       0:	3c040a00 	lui	a0,0xa00
       4:	24020000 	li	v0,0
       8:	3c08c254 	lui	t0,0xc254
       c:	3508e3d8 	ori	t0,t0,0xe3d8
      10:	3409f469 	li	t1,0xf469
      14:	2d10f469 	sltiu	s0,t0,-2967
      18:	24120001 	li	s2,1
      1c:	16120932 	bne	s0,s2,24e8 <inst_error>
      20:	00000000 	nop
      24:	00000000 	nop
      28:	3c087a56 	lui	t0,0x7a56
      2c:	3508334c 	ori	t0,t0,0x334c
      30:	240902f5 	li	t1,757
      34:	2d1002f5 	sltiu	s0,t0,757
      38:	24120000 	li	s2,0
      3c:	1612092a 	bne	s0,s2,24e8 <inst_error>
      40:	00000000 	nop
      44:	00000000 	nop
      48:	3c08abcd 	lui	t0,0xabcd
      4c:	35082c00 	ori	t0,t0,0x2c00
      50:	3409f7c7 	li	t1,0xf7c7
      54:	2d10f7c7 	sltiu	s0,t0,-2105
      58:	24120001 	li	s2,1
      5c:	16120922 	bne	s0,s2,24e8 <inst_error>
      60:	00000000 	nop
      64:	00000000 	nop
      68:	3c0825c8 	lui	t0,0x25c8
      6c:	350835b7 	ori	t0,t0,0x35b7
      70:	24096dba 	li	t1,28090
      74:	2d106dba 	sltiu	s0,t0,28090
      78:	24120000 	li	s2,0
      7c:	1612091a 	bne	s0,s2,24e8 <inst_error>
      80:	00000000 	nop
      84:	00000000 	nop
      88:	3c0810ea 	lui	t0,0x10ea
      8c:	35083bf2 	ori	t0,t0,0x3bf2
      90:	24090ff4 	li	t1,4084
      94:	2d100ff4 	sltiu	s0,t0,4084
      98:	24120000 	li	s2,0
      9c:	16120912 	bne	s0,s2,24e8 <inst_error>
      a0:	00000000 	nop
      a4:	00000000 	nop
      a8:	3c08494c 	lui	t0,0x494c
      ac:	35082712 	ori	t0,t0,0x2712
      b0:	2409407a 	li	t1,16506
      b4:	2d10407a 	sltiu	s0,t0,16506
      b8:	24120000 	li	s2,0
      bc:	1612090a 	bne	s0,s2,24e8 <inst_error>
      c0:	00000000 	nop
      c4:	00000000 	nop
      c8:	3c08977b 	lui	t0,0x977b
      cc:	35080d34 	ori	t0,t0,0xd34
      d0:	24091280 	li	t1,4736
      d4:	2d101280 	sltiu	s0,t0,4736
      d8:	24120000 	li	s2,0
      dc:	16120902 	bne	s0,s2,24e8 <inst_error>
      e0:	00000000 	nop
      e4:	00000000 	nop
      e8:	3c08868f 	lui	t0,0x868f
      ec:	35087bf9 	ori	t0,t0,0x7bf9
      f0:	240915e7 	li	t1,5607
      f4:	2d1015e7 	sltiu	s0,t0,5607
      f8:	24120000 	li	s2,0
      fc:	161208fa 	bne	s0,s2,24e8 <inst_error>
     100:	00000000 	nop
     104:	00000000 	nop
     108:	3c0885a7 	lui	t0,0x85a7
     10c:	35088bab 	ori	t0,t0,0x8bab
     110:	24090898 	li	t1,2200
     114:	2d100898 	sltiu	s0,t0,2200
     118:	24120000 	li	s2,0
     11c:	161208f2 	bne	s0,s2,24e8 <inst_error>
     120:	00000000 	nop
     124:	00000000 	nop
     128:	3c0867b1 	lui	t0,0x67b1
     12c:	35083d20 	ori	t0,t0,0x3d20
     130:	240975a5 	li	t1,30117
     134:	2d1075a5 	sltiu	s0,t0,30117
     138:	24120000 	li	s2,0
     13c:	161208ea 	bne	s0,s2,24e8 <inst_error>
     140:	00000000 	nop
     144:	00000000 	nop
     148:	3c08d982 	lui	t0,0xd982
     14c:	350863b6 	ori	t0,t0,0x63b6
     150:	24095642 	li	t1,22082
     154:	2d105642 	sltiu	s0,t0,22082
     158:	24120000 	li	s2,0
     15c:	161208e2 	bne	s0,s2,24e8 <inst_error>
     160:	00000000 	nop
     164:	00000000 	nop
     168:	3c083389 	lui	t0,0x3389
     16c:	35089815 	ori	t0,t0,0x9815
     170:	3409b202 	li	t1,0xb202
     174:	2d10b202 	sltiu	s0,t0,-19966
     178:	24120001 	li	s2,1
     17c:	161208da 	bne	s0,s2,24e8 <inst_error>
     180:	00000000 	nop
     184:	00000000 	nop
     188:	3c083a88 	lui	t0,0x3a88
     18c:	35080fb8 	ori	t0,t0,0xfb8
     190:	240918cc 	li	t1,6348
     194:	2d1018cc 	sltiu	s0,t0,6348
     198:	24120000 	li	s2,0
     19c:	161208d2 	bne	s0,s2,24e8 <inst_error>
     1a0:	00000000 	nop
     1a4:	00000000 	nop
     1a8:	3c08197b 	lui	t0,0x197b
     1ac:	35087590 	ori	t0,t0,0x7590
     1b0:	3409c754 	li	t1,0xc754
     1b4:	2d10c754 	sltiu	s0,t0,-14508
     1b8:	24120001 	li	s2,1
     1bc:	161208ca 	bne	s0,s2,24e8 <inst_error>
     1c0:	00000000 	nop
     1c4:	00000000 	nop
     1c8:	3c0865a1 	lui	t0,0x65a1
     1cc:	3508b8c4 	ori	t0,t0,0xb8c4
     1d0:	24097c77 	li	t1,31863
     1d4:	2d107c77 	sltiu	s0,t0,31863
     1d8:	24120000 	li	s2,0
     1dc:	161208c2 	bne	s0,s2,24e8 <inst_error>
     1e0:	00000000 	nop
     1e4:	00000000 	nop
     1e8:	3c0806fc 	lui	t0,0x6fc
     1ec:	35081f2e 	ori	t0,t0,0x1f2e
     1f0:	340991fb 	li	t1,0x91fb
     1f4:	2d1091fb 	sltiu	s0,t0,-28165
     1f8:	24120001 	li	s2,1
     1fc:	161208ba 	bne	s0,s2,24e8 <inst_error>
     200:	00000000 	nop
     204:	00000000 	nop
     208:	3c08ba93 	lui	t0,0xba93
     20c:	350867b9 	ori	t0,t0,0x67b9
     210:	3409d36c 	li	t1,0xd36c
     214:	2d10d36c 	sltiu	s0,t0,-11412
     218:	24120001 	li	s2,1
     21c:	161208b2 	bne	s0,s2,24e8 <inst_error>
     220:	00000000 	nop
     224:	00000000 	nop
     228:	3c08a0cb 	lui	t0,0xa0cb
     22c:	3508f154 	ori	t0,t0,0xf154
     230:	24090d0c 	li	t1,3340
     234:	2d100d0c 	sltiu	s0,t0,3340
     238:	24120000 	li	s2,0
     23c:	161208aa 	bne	s0,s2,24e8 <inst_error>
     240:	00000000 	nop
     244:	00000000 	nop
     248:	3c084abf 	lui	t0,0x4abf
     24c:	3508a210 	ori	t0,t0,0xa210
     250:	2409425c 	li	t1,16988
     254:	2d10425c 	sltiu	s0,t0,16988
     258:	24120000 	li	s2,0
     25c:	161208a2 	bne	s0,s2,24e8 <inst_error>
     260:	00000000 	nop
     264:	00000000 	nop
     268:	3c08fd04 	lui	t0,0xfd04
     26c:	3508e6b9 	ori	t0,t0,0xe6b9
     270:	3409cd24 	li	t1,0xcd24
     274:	2d10cd24 	sltiu	s0,t0,-13020
     278:	24120001 	li	s2,1
     27c:	1612089a 	bne	s0,s2,24e8 <inst_error>
     280:	00000000 	nop
     284:	00000000 	nop
     288:	3c084a84 	lui	t0,0x4a84
     28c:	3508dd80 	ori	t0,t0,0xdd80
     290:	240916a8 	li	t1,5800
     294:	2d1016a8 	sltiu	s0,t0,5800
     298:	24120000 	li	s2,0
     29c:	16120892 	bne	s0,s2,24e8 <inst_error>
     2a0:	00000000 	nop
     2a4:	00000000 	nop
     2a8:	3c085ea3 	lui	t0,0x5ea3
     2ac:	350873b0 	ori	t0,t0,0x73b0
     2b0:	3409aca6 	li	t1,0xaca6
     2b4:	2d10aca6 	sltiu	s0,t0,-21338
     2b8:	24120001 	li	s2,1
     2bc:	1612088a 	bne	s0,s2,24e8 <inst_error>
     2c0:	00000000 	nop
     2c4:	00000000 	nop
     2c8:	3c08b1c6 	lui	t0,0xb1c6
     2cc:	35081e84 	ori	t0,t0,0x1e84
     2d0:	240972be 	li	t1,29374
     2d4:	2d1072be 	sltiu	s0,t0,29374
     2d8:	24120000 	li	s2,0
     2dc:	16120882 	bne	s0,s2,24e8 <inst_error>
     2e0:	00000000 	nop
     2e4:	00000000 	nop
     2e8:	3c088d8c 	lui	t0,0x8d8c
     2ec:	350856c6 	ori	t0,t0,0x56c6
     2f0:	240919e0 	li	t1,6624
     2f4:	2d1019e0 	sltiu	s0,t0,6624
     2f8:	24120000 	li	s2,0
     2fc:	1612087a 	bne	s0,s2,24e8 <inst_error>
     300:	00000000 	nop
     304:	00000000 	nop
     308:	3c08d497 	lui	t0,0xd497
     30c:	35082598 	ori	t0,t0,0x2598
     310:	3409f950 	li	t1,0xf950
     314:	2d10f950 	sltiu	s0,t0,-1712
     318:	24120001 	li	s2,1
     31c:	16120872 	bne	s0,s2,24e8 <inst_error>
     320:	00000000 	nop
     324:	00000000 	nop
     328:	3c08bd26 	lui	t0,0xbd26
     32c:	3508734a 	ori	t0,t0,0x734a
     330:	3409aac0 	li	t1,0xaac0
     334:	2d10aac0 	sltiu	s0,t0,-21824
     338:	24120001 	li	s2,1
     33c:	1612086a 	bne	s0,s2,24e8 <inst_error>
     340:	00000000 	nop
     344:	00000000 	nop
     348:	3c083432 	lui	t0,0x3432
     34c:	350880c0 	ori	t0,t0,0x80c0
     350:	24096c96 	li	t1,27798
     354:	2d106c96 	sltiu	s0,t0,27798
     358:	24120000 	li	s2,0
     35c:	16120862 	bne	s0,s2,24e8 <inst_error>
     360:	00000000 	nop
     364:	00000000 	nop
     368:	3c081ae3 	lui	t0,0x1ae3
     36c:	3508ad00 	ori	t0,t0,0xad00
     370:	34098df9 	li	t1,0x8df9
     374:	2d108df9 	sltiu	s0,t0,-29191
     378:	24120001 	li	s2,1
     37c:	1612085a 	bne	s0,s2,24e8 <inst_error>
     380:	00000000 	nop
     384:	00000000 	nop
     388:	3c08d589 	lui	t0,0xd589
     38c:	3508aae0 	ori	t0,t0,0xaae0
     390:	24096d30 	li	t1,27952
     394:	2d106d30 	sltiu	s0,t0,27952
     398:	24120000 	li	s2,0
     39c:	16120852 	bne	s0,s2,24e8 <inst_error>
     3a0:	00000000 	nop
     3a4:	00000000 	nop
     3a8:	3c0815b8 	lui	t0,0x15b8
     3ac:	3508c524 	ori	t0,t0,0xc524
     3b0:	24090758 	li	t1,1880
     3b4:	2d100758 	sltiu	s0,t0,1880
     3b8:	24120000 	li	s2,0
     3bc:	1612084a 	bne	s0,s2,24e8 <inst_error>
     3c0:	00000000 	nop
     3c4:	00000000 	nop
     3c8:	3c082986 	lui	t0,0x2986
     3cc:	35081ff7 	ori	t0,t0,0x1ff7
     3d0:	240952cc 	li	t1,21196
     3d4:	2d1052cc 	sltiu	s0,t0,21196
     3d8:	24120000 	li	s2,0
     3dc:	16120842 	bne	s0,s2,24e8 <inst_error>
     3e0:	00000000 	nop
     3e4:	00000000 	nop
     3e8:	3c081460 	lui	t0,0x1460
     3ec:	35083517 	ori	t0,t0,0x3517
     3f0:	3409d892 	li	t1,0xd892
     3f4:	2d10d892 	sltiu	s0,t0,-10094
     3f8:	24120001 	li	s2,1
     3fc:	1612083a 	bne	s0,s2,24e8 <inst_error>
     400:	00000000 	nop
     404:	00000000 	nop
     408:	3c082afe 	lui	t0,0x2afe
     40c:	3508b200 	ori	t0,t0,0xb200
     410:	34098cf8 	li	t1,0x8cf8
     414:	2d108cf8 	sltiu	s0,t0,-29448
     418:	24120001 	li	s2,1
     41c:	16120832 	bne	s0,s2,24e8 <inst_error>
     420:	00000000 	nop
     424:	00000000 	nop
     428:	3c085ee4 	lui	t0,0x5ee4
     42c:	35083660 	ori	t0,t0,0x3660
     430:	3409f0f2 	li	t1,0xf0f2
     434:	2d10f0f2 	sltiu	s0,t0,-3854
     438:	24120001 	li	s2,1
     43c:	1612082a 	bne	s0,s2,24e8 <inst_error>
     440:	00000000 	nop
     444:	00000000 	nop
     448:	3c0809bc 	lui	t0,0x9bc
     44c:	35088a70 	ori	t0,t0,0x8a70
     450:	3409bd3d 	li	t1,0xbd3d
     454:	2d10bd3d 	sltiu	s0,t0,-17091
     458:	24120001 	li	s2,1
     45c:	16120822 	bne	s0,s2,24e8 <inst_error>
     460:	00000000 	nop
     464:	00000000 	nop
     468:	3c08ecf2 	lui	t0,0xecf2
     46c:	35084c80 	ori	t0,t0,0x4c80
     470:	24092bf5 	li	t1,11253
     474:	2d102bf5 	sltiu	s0,t0,11253
     478:	24120000 	li	s2,0
     47c:	1612081a 	bne	s0,s2,24e8 <inst_error>
     480:	00000000 	nop
     484:	00000000 	nop
     488:	3c086098 	lui	t0,0x6098
     48c:	35087cbb 	ori	t0,t0,0x7cbb
     490:	3409fefc 	li	t1,0xfefc
     494:	2d10fefc 	sltiu	s0,t0,-260
     498:	24120001 	li	s2,1
     49c:	16120812 	bne	s0,s2,24e8 <inst_error>
     4a0:	00000000 	nop
     4a4:	00000000 	nop
     4a8:	3c08e3b9 	lui	t0,0xe3b9
     4ac:	35081bfc 	ori	t0,t0,0x1bfc
     4b0:	3409a768 	li	t1,0xa768
     4b4:	2d10a768 	sltiu	s0,t0,-22680
     4b8:	24120001 	li	s2,1
     4bc:	1612080a 	bne	s0,s2,24e8 <inst_error>
     4c0:	00000000 	nop
     4c4:	00000000 	nop
     4c8:	3c087def 	lui	t0,0x7def
     4cc:	3508e89a 	ori	t0,t0,0xe89a
     4d0:	2409539c 	li	t1,21404
     4d4:	2d10539c 	sltiu	s0,t0,21404
     4d8:	24120000 	li	s2,0
     4dc:	16120802 	bne	s0,s2,24e8 <inst_error>
     4e0:	00000000 	nop
     4e4:	00000000 	nop
     4e8:	3c084150 	lui	t0,0x4150
     4ec:	35084f88 	ori	t0,t0,0x4f88
     4f0:	3409c36a 	li	t1,0xc36a
     4f4:	2d10c36a 	sltiu	s0,t0,-15510
     4f8:	24120001 	li	s2,1
     4fc:	161207fa 	bne	s0,s2,24e8 <inst_error>
     500:	00000000 	nop
     504:	00000000 	nop
     508:	3c0882eb 	lui	t0,0x82eb
     50c:	35086ff4 	ori	t0,t0,0x6ff4
     510:	24097c20 	li	t1,31776
     514:	2d107c20 	sltiu	s0,t0,31776
     518:	24120000 	li	s2,0
     51c:	161207f2 	bne	s0,s2,24e8 <inst_error>
     520:	00000000 	nop
     524:	00000000 	nop
     528:	3c085e6e 	lui	t0,0x5e6e
     52c:	3508d880 	ori	t0,t0,0xd880
     530:	24091ce9 	li	t1,7401
     534:	2d101ce9 	sltiu	s0,t0,7401
     538:	24120000 	li	s2,0
     53c:	161207ea 	bne	s0,s2,24e8 <inst_error>
     540:	00000000 	nop
     544:	00000000 	nop
     548:	3c08a028 	lui	t0,0xa028
     54c:	35089d40 	ori	t0,t0,0x9d40
     550:	3409e7cb 	li	t1,0xe7cb
     554:	2d10e7cb 	sltiu	s0,t0,-6197
     558:	24120001 	li	s2,1
     55c:	161207e2 	bne	s0,s2,24e8 <inst_error>
     560:	00000000 	nop
     564:	00000000 	nop
     568:	3c083832 	lui	t0,0x3832
     56c:	35081117 	ori	t0,t0,0x1117
     570:	3409ed76 	li	t1,0xed76
     574:	2d10ed76 	sltiu	s0,t0,-4746
     578:	24120001 	li	s2,1
     57c:	161207da 	bne	s0,s2,24e8 <inst_error>
     580:	00000000 	nop
     584:	00000000 	nop
     588:	3c0812a8 	lui	t0,0x12a8
     58c:	35088941 	ori	t0,t0,0x8941
     590:	24090a3c 	li	t1,2620
     594:	2d100a3c 	sltiu	s0,t0,2620
     598:	24120000 	li	s2,0
     59c:	161207d2 	bne	s0,s2,24e8 <inst_error>
     5a0:	00000000 	nop
     5a4:	00000000 	nop
     5a8:	3c08ed5d 	lui	t0,0xed5d
     5ac:	35087100 	ori	t0,t0,0x7100
     5b0:	24092eb0 	li	t1,11952
     5b4:	2d102eb0 	sltiu	s0,t0,11952
     5b8:	24120000 	li	s2,0
     5bc:	161207ca 	bne	s0,s2,24e8 <inst_error>
     5c0:	00000000 	nop
     5c4:	00000000 	nop
     5c8:	3c08d38b 	lui	t0,0xd38b
     5cc:	35089f88 	ori	t0,t0,0x9f88
     5d0:	2409108c 	li	t1,4236
     5d4:	2d10108c 	sltiu	s0,t0,4236
     5d8:	24120000 	li	s2,0
     5dc:	161207c2 	bne	s0,s2,24e8 <inst_error>
     5e0:	00000000 	nop
     5e4:	00000000 	nop
     5e8:	3c08ea5f 	lui	t0,0xea5f
     5ec:	35080780 	ori	t0,t0,0x780
     5f0:	34099fdf 	li	t1,0x9fdf
     5f4:	2d109fdf 	sltiu	s0,t0,-24609
     5f8:	24120001 	li	s2,1
     5fc:	161207ba 	bne	s0,s2,24e8 <inst_error>
     600:	00000000 	nop
     604:	00000000 	nop
     608:	3c08ea28 	lui	t0,0xea28
     60c:	3508e0c8 	ori	t0,t0,0xe0c8
     610:	24095fa2 	li	t1,24482
     614:	2d105fa2 	sltiu	s0,t0,24482
     618:	24120000 	li	s2,0
     61c:	161207b2 	bne	s0,s2,24e8 <inst_error>
     620:	00000000 	nop
     624:	00000000 	nop
     628:	3c080ec1 	lui	t0,0xec1
     62c:	3508dee5 	ori	t0,t0,0xdee5
     630:	240972d2 	li	t1,29394
     634:	2d1072d2 	sltiu	s0,t0,29394
     638:	24120000 	li	s2,0
     63c:	161207aa 	bne	s0,s2,24e8 <inst_error>
     640:	00000000 	nop
     644:	00000000 	nop
     648:	3c0826b8 	lui	t0,0x26b8
     64c:	3508c998 	ori	t0,t0,0xc998
     650:	240973de 	li	t1,29662
     654:	2d1073de 	sltiu	s0,t0,29662
     658:	24120000 	li	s2,0
     65c:	161207a2 	bne	s0,s2,24e8 <inst_error>
     660:	00000000 	nop
     664:	00000000 	nop
     668:	3c08bd07 	lui	t0,0xbd07
     66c:	35085074 	ori	t0,t0,0x5074
     670:	2409449e 	li	t1,17566
     674:	2d10449e 	sltiu	s0,t0,17566
     678:	24120000 	li	s2,0
     67c:	1612079a 	bne	s0,s2,24e8 <inst_error>
     680:	00000000 	nop
     684:	00000000 	nop
     688:	3c089d53 	lui	t0,0x9d53
     68c:	3508bafc 	ori	t0,t0,0xbafc
     690:	3409ec24 	li	t1,0xec24
     694:	2d10ec24 	sltiu	s0,t0,-5084
     698:	24120001 	li	s2,1
     69c:	16120792 	bne	s0,s2,24e8 <inst_error>
     6a0:	00000000 	nop
     6a4:	00000000 	nop
     6a8:	3c087d85 	lui	t0,0x7d85
     6ac:	3508cdb0 	ori	t0,t0,0xcdb0
     6b0:	24096d7c 	li	t1,28028
     6b4:	2d106d7c 	sltiu	s0,t0,28028
     6b8:	24120000 	li	s2,0
     6bc:	1612078a 	bne	s0,s2,24e8 <inst_error>
     6c0:	00000000 	nop
     6c4:	00000000 	nop
     6c8:	3c085d26 	lui	t0,0x5d26
     6cc:	35087400 	ori	t0,t0,0x7400
     6d0:	240936ac 	li	t1,13996
     6d4:	2d1036ac 	sltiu	s0,t0,13996
     6d8:	24120000 	li	s2,0
     6dc:	16120782 	bne	s0,s2,24e8 <inst_error>
     6e0:	00000000 	nop
     6e4:	00000000 	nop
     6e8:	3c08f3b6 	lui	t0,0xf3b6
     6ec:	35083bc0 	ori	t0,t0,0x3bc0
     6f0:	3409bd1e 	li	t1,0xbd1e
     6f4:	2d10bd1e 	sltiu	s0,t0,-17122
     6f8:	24120001 	li	s2,1
     6fc:	1612077a 	bne	s0,s2,24e8 <inst_error>
     700:	00000000 	nop
     704:	00000000 	nop
     708:	3c0840ed 	lui	t0,0x40ed
     70c:	350891e0 	ori	t0,t0,0x91e0
     710:	2409099c 	li	t1,2460
     714:	2d10099c 	sltiu	s0,t0,2460
     718:	24120000 	li	s2,0
     71c:	16120772 	bne	s0,s2,24e8 <inst_error>
     720:	00000000 	nop
     724:	00000000 	nop
     728:	3c085396 	lui	t0,0x5396
     72c:	3508f740 	ori	t0,t0,0xf740
     730:	3409cbfd 	li	t1,0xcbfd
     734:	2d10cbfd 	sltiu	s0,t0,-13315
     738:	24120001 	li	s2,1
     73c:	1612076a 	bne	s0,s2,24e8 <inst_error>
     740:	00000000 	nop
     744:	00000000 	nop
     748:	3c08a86c 	lui	t0,0xa86c
     74c:	35087df0 	ori	t0,t0,0x7df0
     750:	3409cf01 	li	t1,0xcf01
     754:	2d10cf01 	sltiu	s0,t0,-12543
     758:	24120001 	li	s2,1
     75c:	16120762 	bne	s0,s2,24e8 <inst_error>
     760:	00000000 	nop
     764:	00000000 	nop
     768:	3c080041 	lui	t0,0x41
     76c:	35082d74 	ori	t0,t0,0x2d74
     770:	24093178 	li	t1,12664
     774:	2d103178 	sltiu	s0,t0,12664
     778:	24120000 	li	s2,0
     77c:	1612075a 	bne	s0,s2,24e8 <inst_error>
     780:	00000000 	nop
     784:	00000000 	nop
     788:	3c0886a5 	lui	t0,0x86a5
     78c:	3508e264 	ori	t0,t0,0xe264
     790:	240952da 	li	t1,21210
     794:	2d1052da 	sltiu	s0,t0,21210
     798:	24120000 	li	s2,0
     79c:	16120752 	bne	s0,s2,24e8 <inst_error>
     7a0:	00000000 	nop
     7a4:	00000000 	nop
     7a8:	3c08ca63 	lui	t0,0xca63
     7ac:	3508a907 	ori	t0,t0,0xa907
     7b0:	24093185 	li	t1,12677
     7b4:	2d103185 	sltiu	s0,t0,12677
     7b8:	24120000 	li	s2,0
     7bc:	1612074a 	bne	s0,s2,24e8 <inst_error>
     7c0:	00000000 	nop
     7c4:	00000000 	nop
     7c8:	3c08fa97 	lui	t0,0xfa97
     7cc:	3508665a 	ori	t0,t0,0x665a
     7d0:	240958d7 	li	t1,22743
     7d4:	2d1058d7 	sltiu	s0,t0,22743
     7d8:	24120000 	li	s2,0
     7dc:	16120742 	bne	s0,s2,24e8 <inst_error>
     7e0:	00000000 	nop
     7e4:	00000000 	nop
     7e8:	3c08cf4d 	lui	t0,0xcf4d
     7ec:	350821aa 	ori	t0,t0,0x21aa
     7f0:	24090edc 	li	t1,3804
     7f4:	2d100edc 	sltiu	s0,t0,3804
     7f8:	24120000 	li	s2,0
     7fc:	1612073a 	bne	s0,s2,24e8 <inst_error>
     800:	00000000 	nop
     804:	00000000 	nop
     808:	3c0869c4 	lui	t0,0x69c4
     80c:	35085edc 	ori	t0,t0,0x5edc
     810:	24096530 	li	t1,25904
     814:	2d106530 	sltiu	s0,t0,25904
     818:	24120000 	li	s2,0
     81c:	16120732 	bne	s0,s2,24e8 <inst_error>
     820:	00000000 	nop
     824:	00000000 	nop
     828:	3c08cd55 	lui	t0,0xcd55
     82c:	350812cb 	ori	t0,t0,0x12cb
     830:	24093395 	li	t1,13205
     834:	2d103395 	sltiu	s0,t0,13205
     838:	24120000 	li	s2,0
     83c:	1612072a 	bne	s0,s2,24e8 <inst_error>
     840:	00000000 	nop
     844:	00000000 	nop
     848:	3c080899 	lui	t0,0x899
     84c:	3508ac00 	ori	t0,t0,0xac00
     850:	3409d626 	li	t1,0xd626
     854:	2d10d626 	sltiu	s0,t0,-10714
     858:	24120001 	li	s2,1
     85c:	16120722 	bne	s0,s2,24e8 <inst_error>
     860:	00000000 	nop
     864:	00000000 	nop
     868:	3c086d46 	lui	t0,0x6d46
     86c:	35088800 	ori	t0,t0,0x8800
     870:	24092410 	li	t1,9232
     874:	2d102410 	sltiu	s0,t0,9232
     878:	24120000 	li	s2,0
     87c:	1612071a 	bne	s0,s2,24e8 <inst_error>
     880:	00000000 	nop
     884:	00000000 	nop
     888:	3c08ec85 	lui	t0,0xec85
     88c:	350814c0 	ori	t0,t0,0x14c0
     890:	24094f4e 	li	t1,20302
     894:	2d104f4e 	sltiu	s0,t0,20302
     898:	24120000 	li	s2,0
     89c:	16120712 	bne	s0,s2,24e8 <inst_error>
     8a0:	00000000 	nop
     8a4:	00000000 	nop
     8a8:	3c0812a7 	lui	t0,0x12a7
     8ac:	3508789a 	ori	t0,t0,0x789a
     8b0:	3409d763 	li	t1,0xd763
     8b4:	2d10d763 	sltiu	s0,t0,-10397
     8b8:	24120001 	li	s2,1
     8bc:	1612070a 	bne	s0,s2,24e8 <inst_error>
     8c0:	00000000 	nop
     8c4:	00000000 	nop
     8c8:	3c08e523 	lui	t0,0xe523
     8cc:	35083112 	ori	t0,t0,0x3112
     8d0:	34098af6 	li	t1,0x8af6
     8d4:	2d108af6 	sltiu	s0,t0,-29962
     8d8:	24120001 	li	s2,1
     8dc:	16120702 	bne	s0,s2,24e8 <inst_error>
     8e0:	00000000 	nop
     8e4:	00000000 	nop
     8e8:	3c08dc81 	lui	t0,0xdc81
     8ec:	35080bbb 	ori	t0,t0,0xbbb
     8f0:	34098b90 	li	t1,0x8b90
     8f4:	2d108b90 	sltiu	s0,t0,-29808
     8f8:	24120001 	li	s2,1
     8fc:	161206fa 	bne	s0,s2,24e8 <inst_error>
     900:	00000000 	nop
     904:	00000000 	nop
     908:	3c08f14e 	lui	t0,0xf14e
     90c:	35089ca8 	ori	t0,t0,0x9ca8
     910:	3409c618 	li	t1,0xc618
     914:	2d10c618 	sltiu	s0,t0,-14824
     918:	24120001 	li	s2,1
     91c:	161206f2 	bne	s0,s2,24e8 <inst_error>
     920:	00000000 	nop
     924:	00000000 	nop
     928:	3c08a967 	lui	t0,0xa967
     92c:	35083020 	ori	t0,t0,0x3020
     930:	3409c36e 	li	t1,0xc36e
     934:	2d10c36e 	sltiu	s0,t0,-15506
     938:	24120001 	li	s2,1
     93c:	161206ea 	bne	s0,s2,24e8 <inst_error>
     940:	00000000 	nop
     944:	00000000 	nop
     948:	3c0894bd 	lui	t0,0x94bd
     94c:	3508cb7b 	ori	t0,t0,0xcb7b
     950:	34098724 	li	t1,0x8724
     954:	2d108724 	sltiu	s0,t0,-30940
     958:	24120001 	li	s2,1
     95c:	161206e2 	bne	s0,s2,24e8 <inst_error>
     960:	00000000 	nop
     964:	00000000 	nop
     968:	3c08c074 	lui	t0,0xc074
     96c:	3508e8b0 	ori	t0,t0,0xe8b0
     970:	340995f4 	li	t1,0x95f4
     974:	2d1095f4 	sltiu	s0,t0,-27148
     978:	24120001 	li	s2,1
     97c:	161206da 	bne	s0,s2,24e8 <inst_error>
     980:	00000000 	nop
     984:	00000000 	nop
     988:	3c08e3da 	lui	t0,0xe3da
     98c:	35086090 	ori	t0,t0,0x6090
     990:	240907c8 	li	t1,1992
     994:	2d1007c8 	sltiu	s0,t0,1992
     998:	24120000 	li	s2,0
     99c:	161206d2 	bne	s0,s2,24e8 <inst_error>
     9a0:	00000000 	nop
     9a4:	00000000 	nop
     9a8:	3c08ae7c 	lui	t0,0xae7c
     9ac:	35085a80 	ori	t0,t0,0x5a80
     9b0:	3409c114 	li	t1,0xc114
     9b4:	2d10c114 	sltiu	s0,t0,-16108
     9b8:	24120001 	li	s2,1
     9bc:	161206ca 	bne	s0,s2,24e8 <inst_error>
     9c0:	00000000 	nop
     9c4:	00000000 	nop
     9c8:	3c086729 	lui	t0,0x6729
     9cc:	350881fd 	ori	t0,t0,0x81fd
     9d0:	3409c129 	li	t1,0xc129
     9d4:	2d10c129 	sltiu	s0,t0,-16087
     9d8:	24120001 	li	s2,1
     9dc:	161206c2 	bne	s0,s2,24e8 <inst_error>
     9e0:	00000000 	nop
     9e4:	00000000 	nop
     9e8:	3c08122f 	lui	t0,0x122f
     9ec:	350894e0 	ori	t0,t0,0x94e0
     9f0:	3409e180 	li	t1,0xe180
     9f4:	2d10e180 	sltiu	s0,t0,-7808
     9f8:	24120001 	li	s2,1
     9fc:	161206ba 	bne	s0,s2,24e8 <inst_error>
     a00:	00000000 	nop
     a04:	00000000 	nop
     a08:	3c08afab 	lui	t0,0xafab
     a0c:	350869cc 	ori	t0,t0,0x69cc
     a10:	24090a4d 	li	t1,2637
     a14:	2d100a4d 	sltiu	s0,t0,2637
     a18:	24120000 	li	s2,0
     a1c:	161206b2 	bne	s0,s2,24e8 <inst_error>
     a20:	00000000 	nop
     a24:	00000000 	nop
     a28:	3c08ef8a 	lui	t0,0xef8a
     a2c:	35089a2c 	ori	t0,t0,0x9a2c
     a30:	34098d94 	li	t1,0x8d94
     a34:	2d108d94 	sltiu	s0,t0,-29292
     a38:	24120001 	li	s2,1
     a3c:	161206aa 	bne	s0,s2,24e8 <inst_error>
     a40:	00000000 	nop
     a44:	00000000 	nop
     a48:	3c08749d 	lui	t0,0x749d
     a4c:	3508c4c4 	ori	t0,t0,0xc4c4
     a50:	3409aeb8 	li	t1,0xaeb8
     a54:	2d10aeb8 	sltiu	s0,t0,-20808
     a58:	24120001 	li	s2,1
     a5c:	161206a2 	bne	s0,s2,24e8 <inst_error>
     a60:	00000000 	nop
     a64:	00000000 	nop
     a68:	3c08e256 	lui	t0,0xe256
     a6c:	3508fe48 	ori	t0,t0,0xfe48
     a70:	340984fd 	li	t1,0x84fd
     a74:	2d1084fd 	sltiu	s0,t0,-31491
     a78:	24120001 	li	s2,1
     a7c:	1612069a 	bne	s0,s2,24e8 <inst_error>
     a80:	00000000 	nop
     a84:	00000000 	nop
     a88:	3c08970c 	lui	t0,0x970c
     a8c:	35086730 	ori	t0,t0,0x6730
     a90:	2409714a 	li	t1,29002
     a94:	2d10714a 	sltiu	s0,t0,29002
     a98:	24120000 	li	s2,0
     a9c:	16120692 	bne	s0,s2,24e8 <inst_error>
     aa0:	00000000 	nop
     aa4:	00000000 	nop
     aa8:	3c08b75c 	lui	t0,0xb75c
     aac:	3508c575 	ori	t0,t0,0xc575
     ab0:	2409080e 	li	t1,2062
     ab4:	2d10080e 	sltiu	s0,t0,2062
     ab8:	24120000 	li	s2,0
     abc:	1612068a 	bne	s0,s2,24e8 <inst_error>
     ac0:	00000000 	nop
     ac4:	00000000 	nop
     ac8:	3c089cfe 	lui	t0,0x9cfe
     acc:	3508b59a 	ori	t0,t0,0xb59a
     ad0:	2409374d 	li	t1,14157
     ad4:	2d10374d 	sltiu	s0,t0,14157
     ad8:	24120000 	li	s2,0
     adc:	16120682 	bne	s0,s2,24e8 <inst_error>
     ae0:	00000000 	nop
     ae4:	00000000 	nop
     ae8:	3c08c0db 	lui	t0,0xc0db
     aec:	35086a60 	ori	t0,t0,0x6a60
     af0:	2409300a 	li	t1,12298
     af4:	2d10300a 	sltiu	s0,t0,12298
     af8:	24120000 	li	s2,0
     afc:	1612067a 	bne	s0,s2,24e8 <inst_error>
     b00:	00000000 	nop
     b04:	00000000 	nop
     b08:	3c08aa73 	lui	t0,0xaa73
     b0c:	350891d8 	ori	t0,t0,0x91d8
     b10:	3409e5a3 	li	t1,0xe5a3
     b14:	2d10e5a3 	sltiu	s0,t0,-6749
     b18:	24120001 	li	s2,1
     b1c:	16120672 	bne	s0,s2,24e8 <inst_error>
     b20:	00000000 	nop
     b24:	00000000 	nop
     b28:	3c082875 	lui	t0,0x2875
     b2c:	3508f9fa 	ori	t0,t0,0xf9fa
     b30:	3409b3c8 	li	t1,0xb3c8
     b34:	2d10b3c8 	sltiu	s0,t0,-19512
     b38:	24120001 	li	s2,1
     b3c:	1612066a 	bne	s0,s2,24e8 <inst_error>
     b40:	00000000 	nop
     b44:	00000000 	nop
     b48:	3c0883d6 	lui	t0,0x83d6
     b4c:	35087990 	ori	t0,t0,0x7990
     b50:	24096a62 	li	t1,27234
     b54:	2d106a62 	sltiu	s0,t0,27234
     b58:	24120000 	li	s2,0
     b5c:	16120662 	bne	s0,s2,24e8 <inst_error>
     b60:	00000000 	nop
     b64:	00000000 	nop
     b68:	3c083bd6 	lui	t0,0x3bd6
     b6c:	35087330 	ori	t0,t0,0x7330
     b70:	3409859e 	li	t1,0x859e
     b74:	2d10859e 	sltiu	s0,t0,-31330
     b78:	24120001 	li	s2,1
     b7c:	1612065a 	bne	s0,s2,24e8 <inst_error>
     b80:	00000000 	nop
     b84:	00000000 	nop
     b88:	3c08cbe8 	lui	t0,0xcbe8
     b8c:	35086d55 	ori	t0,t0,0x6d55
     b90:	3409e6bb 	li	t1,0xe6bb
     b94:	2d10e6bb 	sltiu	s0,t0,-6469
     b98:	24120001 	li	s2,1
     b9c:	16120652 	bne	s0,s2,24e8 <inst_error>
     ba0:	00000000 	nop
     ba4:	00000000 	nop
     ba8:	3c08277a 	lui	t0,0x277a
     bac:	350862c6 	ori	t0,t0,0x62c6
     bb0:	24095c96 	li	t1,23702
     bb4:	2d105c96 	sltiu	s0,t0,23702
     bb8:	24120000 	li	s2,0
     bbc:	1612064a 	bne	s0,s2,24e8 <inst_error>
     bc0:	00000000 	nop
     bc4:	00000000 	nop
     bc8:	3c08ef53 	lui	t0,0xef53
     bcc:	3508abd8 	ori	t0,t0,0xabd8
     bd0:	34099a7a 	li	t1,0x9a7a
     bd4:	2d109a7a 	sltiu	s0,t0,-25990
     bd8:	24120001 	li	s2,1
     bdc:	16120642 	bne	s0,s2,24e8 <inst_error>
     be0:	00000000 	nop
     be4:	00000000 	nop
     be8:	3c086505 	lui	t0,0x6505
     bec:	3508daa5 	ori	t0,t0,0xdaa5
     bf0:	24090c60 	li	t1,3168
     bf4:	2d100c60 	sltiu	s0,t0,3168
     bf8:	24120000 	li	s2,0
     bfc:	1612063a 	bne	s0,s2,24e8 <inst_error>
     c00:	00000000 	nop
     c04:	00000000 	nop
     c08:	3c08bd42 	lui	t0,0xbd42
     c0c:	35086d20 	ori	t0,t0,0x6d20
     c10:	24091326 	li	t1,4902
     c14:	2d101326 	sltiu	s0,t0,4902
     c18:	24120000 	li	s2,0
     c1c:	16120632 	bne	s0,s2,24e8 <inst_error>
     c20:	00000000 	nop
     c24:	00000000 	nop
     c28:	3c08d5c1 	lui	t0,0xd5c1
     c2c:	350810da 	ori	t0,t0,0x10da
     c30:	24091f8c 	li	t1,8076
     c34:	2d101f8c 	sltiu	s0,t0,8076
     c38:	24120000 	li	s2,0
     c3c:	1612062a 	bne	s0,s2,24e8 <inst_error>
     c40:	00000000 	nop
     c44:	00000000 	nop
     c48:	3c08d5e4 	lui	t0,0xd5e4
     c4c:	35088c59 	ori	t0,t0,0x8c59
     c50:	2409740f 	li	t1,29711
     c54:	2d10740f 	sltiu	s0,t0,29711
     c58:	24120000 	li	s2,0
     c5c:	16120622 	bne	s0,s2,24e8 <inst_error>
     c60:	00000000 	nop
     c64:	00000000 	nop
     c68:	3c08cce8 	lui	t0,0xcce8
     c6c:	35087935 	ori	t0,t0,0x7935
     c70:	3409c5ea 	li	t1,0xc5ea
     c74:	2d10c5ea 	sltiu	s0,t0,-14870
     c78:	24120001 	li	s2,1
     c7c:	1612061a 	bne	s0,s2,24e8 <inst_error>
     c80:	00000000 	nop
     c84:	00000000 	nop
     c88:	3c08d96a 	lui	t0,0xd96a
     c8c:	3508f938 	ori	t0,t0,0xf938
     c90:	24096e84 	li	t1,28292
     c94:	2d106e84 	sltiu	s0,t0,28292
     c98:	24120000 	li	s2,0
     c9c:	16120612 	bne	s0,s2,24e8 <inst_error>
     ca0:	00000000 	nop
     ca4:	00000000 	nop
     ca8:	3c08470c 	lui	t0,0x470c
     cac:	35087090 	ori	t0,t0,0x7090
     cb0:	24093f94 	li	t1,16276
     cb4:	2d103f94 	sltiu	s0,t0,16276
     cb8:	24120000 	li	s2,0
     cbc:	1612060a 	bne	s0,s2,24e8 <inst_error>
     cc0:	00000000 	nop
     cc4:	00000000 	nop
     cc8:	3c08419b 	lui	t0,0x419b
     ccc:	3508a854 	ori	t0,t0,0xa854
     cd0:	240962cd 	li	t1,25293
     cd4:	2d1062cd 	sltiu	s0,t0,25293
     cd8:	24120000 	li	s2,0
     cdc:	16120602 	bne	s0,s2,24e8 <inst_error>
     ce0:	00000000 	nop
     ce4:	00000000 	nop
     ce8:	3c089171 	lui	t0,0x9171
     cec:	35088eb8 	ori	t0,t0,0x8eb8
     cf0:	3409aa36 	li	t1,0xaa36
     cf4:	2d10aa36 	sltiu	s0,t0,-21962
     cf8:	24120001 	li	s2,1
     cfc:	161205fa 	bne	s0,s2,24e8 <inst_error>
     d00:	00000000 	nop
     d04:	00000000 	nop
     d08:	3c0877d8 	lui	t0,0x77d8
     d0c:	35086579 	ori	t0,t0,0x6579
     d10:	34098a68 	li	t1,0x8a68
     d14:	2d108a68 	sltiu	s0,t0,-30104
     d18:	24120001 	li	s2,1
     d1c:	161205f2 	bne	s0,s2,24e8 <inst_error>
     d20:	00000000 	nop
     d24:	00000000 	nop
     d28:	3c08c7d7 	lui	t0,0xc7d7
     d2c:	3508a240 	ori	t0,t0,0xa240
     d30:	24090cdc 	li	t1,3292
     d34:	2d100cdc 	sltiu	s0,t0,3292
     d38:	24120000 	li	s2,0
     d3c:	161205ea 	bne	s0,s2,24e8 <inst_error>
     d40:	00000000 	nop
     d44:	00000000 	nop
     d48:	3c08fcef 	lui	t0,0xfcef
     d4c:	3508c780 	ori	t0,t0,0xc780
     d50:	24091066 	li	t1,4198
     d54:	2d101066 	sltiu	s0,t0,4198
     d58:	24120000 	li	s2,0
     d5c:	161205e2 	bne	s0,s2,24e8 <inst_error>
     d60:	00000000 	nop
     d64:	00000000 	nop
     d68:	3c08e6b0 	lui	t0,0xe6b0
     d6c:	35086500 	ori	t0,t0,0x6500
     d70:	240959b9 	li	t1,22969
     d74:	2d1059b9 	sltiu	s0,t0,22969
     d78:	24120000 	li	s2,0
     d7c:	161205da 	bne	s0,s2,24e8 <inst_error>
     d80:	00000000 	nop
     d84:	00000000 	nop
     d88:	3c08faa0 	lui	t0,0xfaa0
     d8c:	35087474 	ori	t0,t0,0x7474
     d90:	24097db4 	li	t1,32180
     d94:	2d107db4 	sltiu	s0,t0,32180
     d98:	24120000 	li	s2,0
     d9c:	161205d2 	bne	s0,s2,24e8 <inst_error>
     da0:	00000000 	nop
     da4:	00000000 	nop
     da8:	3c08a064 	lui	t0,0xa064
     dac:	3508bb00 	ori	t0,t0,0xbb00
     db0:	240927b4 	li	t1,10164
     db4:	2d1027b4 	sltiu	s0,t0,10164
     db8:	24120000 	li	s2,0
     dbc:	161205ca 	bne	s0,s2,24e8 <inst_error>
     dc0:	00000000 	nop
     dc4:	00000000 	nop
     dc8:	3c086b99 	lui	t0,0x6b99
     dcc:	35087b2c 	ori	t0,t0,0x7b2c
     dd0:	34099345 	li	t1,0x9345
     dd4:	2d109345 	sltiu	s0,t0,-27835
     dd8:	24120001 	li	s2,1
     ddc:	161205c2 	bne	s0,s2,24e8 <inst_error>
     de0:	00000000 	nop
     de4:	00000000 	nop
     de8:	3c088311 	lui	t0,0x8311
     dec:	3508c8ee 	ori	t0,t0,0xc8ee
     df0:	24095818 	li	t1,22552
     df4:	2d105818 	sltiu	s0,t0,22552
     df8:	24120000 	li	s2,0
     dfc:	161205ba 	bne	s0,s2,24e8 <inst_error>
     e00:	00000000 	nop
     e04:	00000000 	nop
     e08:	3c085ea6 	lui	t0,0x5ea6
     e0c:	3508acac 	ori	t0,t0,0xacac
     e10:	3409915f 	li	t1,0x915f
     e14:	2d10915f 	sltiu	s0,t0,-28321
     e18:	24120001 	li	s2,1
     e1c:	161205b2 	bne	s0,s2,24e8 <inst_error>
     e20:	00000000 	nop
     e24:	00000000 	nop
     e28:	3c084dea 	lui	t0,0x4dea
     e2c:	35088f80 	ori	t0,t0,0x8f80
     e30:	3409e233 	li	t1,0xe233
     e34:	2d10e233 	sltiu	s0,t0,-7629
     e38:	24120001 	li	s2,1
     e3c:	161205aa 	bne	s0,s2,24e8 <inst_error>
     e40:	00000000 	nop
     e44:	00000000 	nop
     e48:	3c080e02 	lui	t0,0xe02
     e4c:	3508f997 	ori	t0,t0,0xf997
     e50:	24091c1f 	li	t1,7199
     e54:	2d101c1f 	sltiu	s0,t0,7199
     e58:	24120000 	li	s2,0
     e5c:	161205a2 	bne	s0,s2,24e8 <inst_error>
     e60:	00000000 	nop
     e64:	00000000 	nop
     e68:	3c083149 	lui	t0,0x3149
     e6c:	35087cc4 	ori	t0,t0,0x7cc4
     e70:	240941e2 	li	t1,16866
     e74:	2d1041e2 	sltiu	s0,t0,16866
     e78:	24120000 	li	s2,0
     e7c:	1612059a 	bne	s0,s2,24e8 <inst_error>
     e80:	00000000 	nop
     e84:	00000000 	nop
     e88:	3c0822de 	lui	t0,0x22de
     e8c:	350823b6 	ori	t0,t0,0x23b6
     e90:	24094f20 	li	t1,20256
     e94:	2d104f20 	sltiu	s0,t0,20256
     e98:	24120000 	li	s2,0
     e9c:	16120592 	bne	s0,s2,24e8 <inst_error>
     ea0:	00000000 	nop
     ea4:	00000000 	nop
     ea8:	3c081934 	lui	t0,0x1934
     eac:	35081260 	ori	t0,t0,0x1260
     eb0:	24090352 	li	t1,850
     eb4:	2d100352 	sltiu	s0,t0,850
     eb8:	24120000 	li	s2,0
     ebc:	1612058a 	bne	s0,s2,24e8 <inst_error>
     ec0:	00000000 	nop
     ec4:	00000000 	nop
     ec8:	3c08bae3 	lui	t0,0xbae3
     ecc:	35085040 	ori	t0,t0,0x5040
     ed0:	24092407 	li	t1,9223
     ed4:	2d102407 	sltiu	s0,t0,9223
     ed8:	24120000 	li	s2,0
     edc:	16120582 	bne	s0,s2,24e8 <inst_error>
     ee0:	00000000 	nop
     ee4:	00000000 	nop
     ee8:	3c08736e 	lui	t0,0x736e
     eec:	3508af44 	ori	t0,t0,0xaf44
     ef0:	3409fb36 	li	t1,0xfb36
     ef4:	2d10fb36 	sltiu	s0,t0,-1226
     ef8:	24120001 	li	s2,1
     efc:	1612057a 	bne	s0,s2,24e8 <inst_error>
     f00:	00000000 	nop
     f04:	00000000 	nop
     f08:	3c080e86 	lui	t0,0xe86
     f0c:	35083bab 	ori	t0,t0,0x3bab
     f10:	3409b779 	li	t1,0xb779
     f14:	2d10b779 	sltiu	s0,t0,-18567
     f18:	24120001 	li	s2,1
     f1c:	16120572 	bne	s0,s2,24e8 <inst_error>
     f20:	00000000 	nop
     f24:	00000000 	nop
     f28:	3c083efa 	lui	t0,0x3efa
     f2c:	3508a7a6 	ori	t0,t0,0xa7a6
     f30:	3409d92d 	li	t1,0xd92d
     f34:	2d10d92d 	sltiu	s0,t0,-9939
     f38:	24120001 	li	s2,1
     f3c:	1612056a 	bne	s0,s2,24e8 <inst_error>
     f40:	00000000 	nop
     f44:	00000000 	nop
     f48:	3c08aa07 	lui	t0,0xaa07
     f4c:	35086f00 	ori	t0,t0,0x6f00
     f50:	3409ea1a 	li	t1,0xea1a
     f54:	2d10ea1a 	sltiu	s0,t0,-5606
     f58:	24120001 	li	s2,1
     f5c:	16120562 	bne	s0,s2,24e8 <inst_error>
     f60:	00000000 	nop
     f64:	00000000 	nop
     f68:	3c08c5d0 	lui	t0,0xc5d0
     f6c:	3508dd88 	ori	t0,t0,0xdd88
     f70:	3409c7ec 	li	t1,0xc7ec
     f74:	2d10c7ec 	sltiu	s0,t0,-14356
     f78:	24120001 	li	s2,1
     f7c:	1612055a 	bne	s0,s2,24e8 <inst_error>
     f80:	00000000 	nop
     f84:	00000000 	nop
     f88:	3c08edd0 	lui	t0,0xedd0
     f8c:	3508687b 	ori	t0,t0,0x687b
     f90:	24093f54 	li	t1,16212
     f94:	2d103f54 	sltiu	s0,t0,16212
     f98:	24120000 	li	s2,0
     f9c:	16120552 	bne	s0,s2,24e8 <inst_error>
     fa0:	00000000 	nop
     fa4:	00000000 	nop
     fa8:	3c087b0e 	lui	t0,0x7b0e
     fac:	3508659c 	ori	t0,t0,0x659c
     fb0:	24095e34 	li	t1,24116
     fb4:	2d105e34 	sltiu	s0,t0,24116
     fb8:	24120000 	li	s2,0
     fbc:	1612054a 	bne	s0,s2,24e8 <inst_error>
     fc0:	00000000 	nop
     fc4:	00000000 	nop
     fc8:	3c089194 	lui	t0,0x9194
     fcc:	35083cee 	ori	t0,t0,0x3cee
     fd0:	3409c600 	li	t1,0xc600
     fd4:	2d10c600 	sltiu	s0,t0,-14848
     fd8:	24120001 	li	s2,1
     fdc:	16120542 	bne	s0,s2,24e8 <inst_error>
     fe0:	00000000 	nop
     fe4:	00000000 	nop
     fe8:	3c082947 	lui	t0,0x2947
     fec:	350813b8 	ori	t0,t0,0x13b8
     ff0:	3409b802 	li	t1,0xb802
     ff4:	2d10b802 	sltiu	s0,t0,-18430
     ff8:	24120001 	li	s2,1
     ffc:	1612053a 	bne	s0,s2,24e8 <inst_error>
    1000:	00000000 	nop
    1004:	00000000 	nop
    1008:	3c08a3d9 	lui	t0,0xa3d9
    100c:	35085ee0 	ori	t0,t0,0x5ee0
    1010:	3409ef7c 	li	t1,0xef7c
    1014:	2d10ef7c 	sltiu	s0,t0,-4228
    1018:	24120001 	li	s2,1
    101c:	16120532 	bne	s0,s2,24e8 <inst_error>
    1020:	00000000 	nop
    1024:	00000000 	nop
    1028:	3c0869d2 	lui	t0,0x69d2
    102c:	3508bd20 	ori	t0,t0,0xbd20
    1030:	34099188 	li	t1,0x9188
    1034:	2d109188 	sltiu	s0,t0,-28280
    1038:	24120001 	li	s2,1
    103c:	1612052a 	bne	s0,s2,24e8 <inst_error>
    1040:	00000000 	nop
    1044:	00000000 	nop
    1048:	3c086f48 	lui	t0,0x6f48
    104c:	35082088 	ori	t0,t0,0x2088
    1050:	3409c9ce 	li	t1,0xc9ce
    1054:	2d10c9ce 	sltiu	s0,t0,-13874
    1058:	24120001 	li	s2,1
    105c:	16120522 	bne	s0,s2,24e8 <inst_error>
    1060:	00000000 	nop
    1064:	00000000 	nop
    1068:	3c089dcf 	lui	t0,0x9dcf
    106c:	3508c840 	ori	t0,t0,0xc840
    1070:	24097978 	li	t1,31096
    1074:	2d107978 	sltiu	s0,t0,31096
    1078:	24120000 	li	s2,0
    107c:	1612051a 	bne	s0,s2,24e8 <inst_error>
    1080:	00000000 	nop
    1084:	00000000 	nop
    1088:	3c085a77 	lui	t0,0x5a77
    108c:	3508cae0 	ori	t0,t0,0xcae0
    1090:	24093af8 	li	t1,15096
    1094:	2d103af8 	sltiu	s0,t0,15096
    1098:	24120000 	li	s2,0
    109c:	16120512 	bne	s0,s2,24e8 <inst_error>
    10a0:	00000000 	nop
    10a4:	00000000 	nop
    10a8:	3c088dbf 	lui	t0,0x8dbf
    10ac:	3508a5c0 	ori	t0,t0,0xa5c0
    10b0:	3409d029 	li	t1,0xd029
    10b4:	2d10d029 	sltiu	s0,t0,-12247
    10b8:	24120001 	li	s2,1
    10bc:	1612050a 	bne	s0,s2,24e8 <inst_error>
    10c0:	00000000 	nop
    10c4:	00000000 	nop
    10c8:	3c08b38a 	lui	t0,0xb38a
    10cc:	3508cbe0 	ori	t0,t0,0xcbe0
    10d0:	24096530 	li	t1,25904
    10d4:	2d106530 	sltiu	s0,t0,25904
    10d8:	24120000 	li	s2,0
    10dc:	16120502 	bne	s0,s2,24e8 <inst_error>
    10e0:	00000000 	nop
    10e4:	00000000 	nop
    10e8:	3c08de66 	lui	t0,0xde66
    10ec:	350873f0 	ori	t0,t0,0x73f0
    10f0:	240941de 	li	t1,16862
    10f4:	2d1041de 	sltiu	s0,t0,16862
    10f8:	24120000 	li	s2,0
    10fc:	161204fa 	bne	s0,s2,24e8 <inst_error>
    1100:	00000000 	nop
    1104:	00000000 	nop
    1108:	3c08a352 	lui	t0,0xa352
    110c:	35080110 	ori	t0,t0,0x110
    1110:	3409bb9c 	li	t1,0xbb9c
    1114:	2d10bb9c 	sltiu	s0,t0,-17508
    1118:	24120001 	li	s2,1
    111c:	161204f2 	bne	s0,s2,24e8 <inst_error>
    1120:	00000000 	nop
    1124:	00000000 	nop
    1128:	3c0839a3 	lui	t0,0x39a3
    112c:	3508ed60 	ori	t0,t0,0xed60
    1130:	3409b1f0 	li	t1,0xb1f0
    1134:	2d10b1f0 	sltiu	s0,t0,-19984
    1138:	24120001 	li	s2,1
    113c:	161204ea 	bne	s0,s2,24e8 <inst_error>
    1140:	00000000 	nop
    1144:	00000000 	nop
    1148:	3c088438 	lui	t0,0x8438
    114c:	35085a48 	ori	t0,t0,0x5a48
    1150:	240976f2 	li	t1,30450
    1154:	2d1076f2 	sltiu	s0,t0,30450
    1158:	24120000 	li	s2,0
    115c:	161204e2 	bne	s0,s2,24e8 <inst_error>
    1160:	00000000 	nop
    1164:	00000000 	nop
    1168:	3c0867b1 	lui	t0,0x67b1
    116c:	3508b642 	ori	t0,t0,0xb642
    1170:	24092168 	li	t1,8552
    1174:	2d102168 	sltiu	s0,t0,8552
    1178:	24120000 	li	s2,0
    117c:	161204da 	bne	s0,s2,24e8 <inst_error>
    1180:	00000000 	nop
    1184:	00000000 	nop
    1188:	3c083f18 	lui	t0,0x3f18
    118c:	350896ae 	ori	t0,t0,0x96ae
    1190:	3409c9ce 	li	t1,0xc9ce
    1194:	2d10c9ce 	sltiu	s0,t0,-13874
    1198:	24120001 	li	s2,1
    119c:	161204d2 	bne	s0,s2,24e8 <inst_error>
    11a0:	00000000 	nop
    11a4:	00000000 	nop
    11a8:	3c08c720 	lui	t0,0xc720
    11ac:	35086c26 	ori	t0,t0,0x6c26
    11b0:	24090e88 	li	t1,3720
    11b4:	2d100e88 	sltiu	s0,t0,3720
    11b8:	24120000 	li	s2,0
    11bc:	161204ca 	bne	s0,s2,24e8 <inst_error>
    11c0:	00000000 	nop
    11c4:	00000000 	nop
    11c8:	3c081d42 	lui	t0,0x1d42
    11cc:	3508f6c4 	ori	t0,t0,0xf6c4
    11d0:	3409bab6 	li	t1,0xbab6
    11d4:	2d10bab6 	sltiu	s0,t0,-17738
    11d8:	24120001 	li	s2,1
    11dc:	161204c2 	bne	s0,s2,24e8 <inst_error>
    11e0:	00000000 	nop
    11e4:	00000000 	nop
    11e8:	3c0860d2 	lui	t0,0x60d2
    11ec:	3508b080 	ori	t0,t0,0xb080
    11f0:	240928c7 	li	t1,10439
    11f4:	2d1028c7 	sltiu	s0,t0,10439
    11f8:	24120000 	li	s2,0
    11fc:	161204ba 	bne	s0,s2,24e8 <inst_error>
    1200:	00000000 	nop
    1204:	00000000 	nop
    1208:	3c080f66 	lui	t0,0xf66
    120c:	350872d4 	ori	t0,t0,0x72d4
    1210:	3409ecd4 	li	t1,0xecd4
    1214:	2d10ecd4 	sltiu	s0,t0,-4908
    1218:	24120001 	li	s2,1
    121c:	161204b2 	bne	s0,s2,24e8 <inst_error>
    1220:	00000000 	nop
    1224:	00000000 	nop
    1228:	3c083992 	lui	t0,0x3992
    122c:	35084098 	ori	t0,t0,0x4098
    1230:	3409c018 	li	t1,0xc018
    1234:	2d10c018 	sltiu	s0,t0,-16360
    1238:	24120001 	li	s2,1
    123c:	161204aa 	bne	s0,s2,24e8 <inst_error>
    1240:	00000000 	nop
    1244:	00000000 	nop
    1248:	3c08bafc 	lui	t0,0xbafc
    124c:	350822ea 	ori	t0,t0,0x22ea
    1250:	3409d300 	li	t1,0xd300
    1254:	2d10d300 	sltiu	s0,t0,-11520
    1258:	24120001 	li	s2,1
    125c:	161204a2 	bne	s0,s2,24e8 <inst_error>
    1260:	00000000 	nop
    1264:	00000000 	nop
    1268:	3c081f6f 	lui	t0,0x1f6f
    126c:	3508d4e4 	ori	t0,t0,0xd4e4
    1270:	24092168 	li	t1,8552
    1274:	2d102168 	sltiu	s0,t0,8552
    1278:	24120000 	li	s2,0
    127c:	1612049a 	bne	s0,s2,24e8 <inst_error>
    1280:	00000000 	nop
    1284:	00000000 	nop
    1288:	3c08ff27 	lui	t0,0xff27
    128c:	35085c54 	ori	t0,t0,0x5c54
    1290:	24097680 	li	t1,30336
    1294:	2d107680 	sltiu	s0,t0,30336
    1298:	24120000 	li	s2,0
    129c:	16120492 	bne	s0,s2,24e8 <inst_error>
    12a0:	00000000 	nop
    12a4:	00000000 	nop
    12a8:	3c08beec 	lui	t0,0xbeec
    12ac:	3508d49a 	ori	t0,t0,0xd49a
    12b0:	24097c1e 	li	t1,31774
    12b4:	2d107c1e 	sltiu	s0,t0,31774
    12b8:	24120000 	li	s2,0
    12bc:	1612048a 	bne	s0,s2,24e8 <inst_error>
    12c0:	00000000 	nop
    12c4:	00000000 	nop
    12c8:	3c081fdc 	lui	t0,0x1fdc
    12cc:	350848da 	ori	t0,t0,0x48da
    12d0:	340982d8 	li	t1,0x82d8
    12d4:	2d1082d8 	sltiu	s0,t0,-32040
    12d8:	24120001 	li	s2,1
    12dc:	16120482 	bne	s0,s2,24e8 <inst_error>
    12e0:	00000000 	nop
    12e4:	00000000 	nop
    12e8:	3c08d9bf 	lui	t0,0xd9bf
    12ec:	3508b444 	ori	t0,t0,0xb444
    12f0:	24094cfa 	li	t1,19706
    12f4:	2d104cfa 	sltiu	s0,t0,19706
    12f8:	24120000 	li	s2,0
    12fc:	1612047a 	bne	s0,s2,24e8 <inst_error>
    1300:	00000000 	nop
    1304:	00000000 	nop
    1308:	3c08bfcf 	lui	t0,0xbfcf
    130c:	350886d4 	ori	t0,t0,0x86d4
    1310:	3409f1ac 	li	t1,0xf1ac
    1314:	2d10f1ac 	sltiu	s0,t0,-3668
    1318:	24120001 	li	s2,1
    131c:	16120472 	bne	s0,s2,24e8 <inst_error>
    1320:	00000000 	nop
    1324:	00000000 	nop
    1328:	3c088a88 	lui	t0,0x8a88
    132c:	35080440 	ori	t0,t0,0x440
    1330:	240918ca 	li	t1,6346
    1334:	2d1018ca 	sltiu	s0,t0,6346
    1338:	24120000 	li	s2,0
    133c:	1612046a 	bne	s0,s2,24e8 <inst_error>
    1340:	00000000 	nop
    1344:	00000000 	nop
    1348:	3c085171 	lui	t0,0x5171
    134c:	350832d0 	ori	t0,t0,0x32d0
    1350:	2409205f 	li	t1,8287
    1354:	2d10205f 	sltiu	s0,t0,8287
    1358:	24120000 	li	s2,0
    135c:	16120462 	bne	s0,s2,24e8 <inst_error>
    1360:	00000000 	nop
    1364:	00000000 	nop
    1368:	3c082555 	lui	t0,0x2555
    136c:	35084980 	ori	t0,t0,0x4980
    1370:	34098565 	li	t1,0x8565
    1374:	2d108565 	sltiu	s0,t0,-31387
    1378:	24120001 	li	s2,1
    137c:	1612045a 	bne	s0,s2,24e8 <inst_error>
    1380:	00000000 	nop
    1384:	00000000 	nop
    1388:	3c085c76 	lui	t0,0x5c76
    138c:	35088b80 	ori	t0,t0,0x8b80
    1390:	34099c24 	li	t1,0x9c24
    1394:	2d109c24 	sltiu	s0,t0,-25564
    1398:	24120001 	li	s2,1
    139c:	16120452 	bne	s0,s2,24e8 <inst_error>
    13a0:	00000000 	nop
    13a4:	00000000 	nop
    13a8:	3c08a5e0 	lui	t0,0xa5e0
    13ac:	3508ee9c 	ori	t0,t0,0xee9c
    13b0:	3409d6c8 	li	t1,0xd6c8
    13b4:	2d10d6c8 	sltiu	s0,t0,-10552
    13b8:	24120001 	li	s2,1
    13bc:	1612044a 	bne	s0,s2,24e8 <inst_error>
    13c0:	00000000 	nop
    13c4:	00000000 	nop
    13c8:	3c0899a7 	lui	t0,0x99a7
    13cc:	35089a82 	ori	t0,t0,0x9a82
    13d0:	24095378 	li	t1,21368
    13d4:	2d105378 	sltiu	s0,t0,21368
    13d8:	24120000 	li	s2,0
    13dc:	16120442 	bne	s0,s2,24e8 <inst_error>
    13e0:	00000000 	nop
    13e4:	00000000 	nop
    13e8:	3c08e0f1 	lui	t0,0xe0f1
    13ec:	35084238 	ori	t0,t0,0x4238
    13f0:	340980b5 	li	t1,0x80b5
    13f4:	2d1080b5 	sltiu	s0,t0,-32587
    13f8:	24120001 	li	s2,1
    13fc:	1612043a 	bne	s0,s2,24e8 <inst_error>
    1400:	00000000 	nop
    1404:	00000000 	nop
    1408:	3c0848cb 	lui	t0,0x48cb
    140c:	35088610 	ori	t0,t0,0x8610
    1410:	240913d8 	li	t1,5080
    1414:	2d1013d8 	sltiu	s0,t0,5080
    1418:	24120000 	li	s2,0
    141c:	16120432 	bne	s0,s2,24e8 <inst_error>
    1420:	00000000 	nop
    1424:	00000000 	nop
    1428:	3c08caf0 	lui	t0,0xcaf0
    142c:	3508c374 	ori	t0,t0,0xc374
    1430:	24092c75 	li	t1,11381
    1434:	2d102c75 	sltiu	s0,t0,11381
    1438:	24120000 	li	s2,0
    143c:	1612042a 	bne	s0,s2,24e8 <inst_error>
    1440:	00000000 	nop
    1444:	00000000 	nop
    1448:	3c089b94 	lui	t0,0x9b94
    144c:	3508e694 	ori	t0,t0,0xe694
    1450:	34099b36 	li	t1,0x9b36
    1454:	2d109b36 	sltiu	s0,t0,-25802
    1458:	24120001 	li	s2,1
    145c:	16120422 	bne	s0,s2,24e8 <inst_error>
    1460:	00000000 	nop
    1464:	00000000 	nop
    1468:	3c08aad1 	lui	t0,0xaad1
    146c:	3508ada4 	ori	t0,t0,0xada4
    1470:	2409752a 	li	t1,29994
    1474:	2d10752a 	sltiu	s0,t0,29994
    1478:	24120000 	li	s2,0
    147c:	1612041a 	bne	s0,s2,24e8 <inst_error>
    1480:	00000000 	nop
    1484:	00000000 	nop
    1488:	3c08b5ab 	lui	t0,0xb5ab
    148c:	3508cbf4 	ori	t0,t0,0xcbf4
    1490:	24096693 	li	t1,26259
    1494:	2d106693 	sltiu	s0,t0,26259
    1498:	24120000 	li	s2,0
    149c:	16120412 	bne	s0,s2,24e8 <inst_error>
    14a0:	00000000 	nop
    14a4:	00000000 	nop
    14a8:	3c08ae3d 	lui	t0,0xae3d
    14ac:	3508f620 	ori	t0,t0,0xf620
    14b0:	3409aa36 	li	t1,0xaa36
    14b4:	2d10aa36 	sltiu	s0,t0,-21962
    14b8:	24120001 	li	s2,1
    14bc:	1612040a 	bne	s0,s2,24e8 <inst_error>
    14c0:	00000000 	nop
    14c4:	00000000 	nop
    14c8:	3c0876ac 	lui	t0,0x76ac
    14cc:	3508762c 	ori	t0,t0,0x762c
    14d0:	3409e100 	li	t1,0xe100
    14d4:	2d10e100 	sltiu	s0,t0,-7936
    14d8:	24120001 	li	s2,1
    14dc:	16120402 	bne	s0,s2,24e8 <inst_error>
    14e0:	00000000 	nop
    14e4:	00000000 	nop
    14e8:	3c08c2c2 	lui	t0,0xc2c2
    14ec:	35083308 	ori	t0,t0,0x3308
    14f0:	240936a0 	li	t1,13984
    14f4:	2d1036a0 	sltiu	s0,t0,13984
    14f8:	24120000 	li	s2,0
    14fc:	161203fa 	bne	s0,s2,24e8 <inst_error>
    1500:	00000000 	nop
    1504:	00000000 	nop
    1508:	3c088c04 	lui	t0,0x8c04
    150c:	3508ec50 	ori	t0,t0,0xec50
    1510:	24097e44 	li	t1,32324
    1514:	2d107e44 	sltiu	s0,t0,32324
    1518:	24120000 	li	s2,0
    151c:	161203f2 	bne	s0,s2,24e8 <inst_error>
    1520:	00000000 	nop
    1524:	00000000 	nop
    1528:	3c085922 	lui	t0,0x5922
    152c:	35080200 	ori	t0,t0,0x200
    1530:	3409bab0 	li	t1,0xbab0
    1534:	2d10bab0 	sltiu	s0,t0,-17744
    1538:	24120001 	li	s2,1
    153c:	161203ea 	bne	s0,s2,24e8 <inst_error>
    1540:	00000000 	nop
    1544:	00000000 	nop
    1548:	3c08b954 	lui	t0,0xb954
    154c:	3508b083 	ori	t0,t0,0xb083
    1550:	24092760 	li	t1,10080
    1554:	2d102760 	sltiu	s0,t0,10080
    1558:	24120000 	li	s2,0
    155c:	161203e2 	bne	s0,s2,24e8 <inst_error>
    1560:	00000000 	nop
    1564:	00000000 	nop
    1568:	3c08945f 	lui	t0,0x945f
    156c:	3508fd60 	ori	t0,t0,0xfd60
    1570:	24096f87 	li	t1,28551
    1574:	2d106f87 	sltiu	s0,t0,28551
    1578:	24120000 	li	s2,0
    157c:	161203da 	bne	s0,s2,24e8 <inst_error>
    1580:	00000000 	nop
    1584:	00000000 	nop
    1588:	3c084bb5 	lui	t0,0x4bb5
    158c:	3508630c 	ori	t0,t0,0x630c
    1590:	240919a8 	li	t1,6568
    1594:	2d1019a8 	sltiu	s0,t0,6568
    1598:	24120000 	li	s2,0
    159c:	161203d2 	bne	s0,s2,24e8 <inst_error>
    15a0:	00000000 	nop
    15a4:	00000000 	nop
    15a8:	3c084594 	lui	t0,0x4594
    15ac:	350825f4 	ori	t0,t0,0x25f4
    15b0:	3409b028 	li	t1,0xb028
    15b4:	2d10b028 	sltiu	s0,t0,-20440
    15b8:	24120001 	li	s2,1
    15bc:	161203ca 	bne	s0,s2,24e8 <inst_error>
    15c0:	00000000 	nop
    15c4:	00000000 	nop
    15c8:	3c084a58 	lui	t0,0x4a58
    15cc:	35084c00 	ori	t0,t0,0x4c00
    15d0:	24090dcc 	li	t1,3532
    15d4:	2d100dcc 	sltiu	s0,t0,3532
    15d8:	24120000 	li	s2,0
    15dc:	161203c2 	bne	s0,s2,24e8 <inst_error>
    15e0:	00000000 	nop
    15e4:	00000000 	nop
    15e8:	3c0894b5 	lui	t0,0x94b5
    15ec:	35084308 	ori	t0,t0,0x4308
    15f0:	3409ee2a 	li	t1,0xee2a
    15f4:	2d10ee2a 	sltiu	s0,t0,-4566
    15f8:	24120001 	li	s2,1
    15fc:	161203ba 	bne	s0,s2,24e8 <inst_error>
    1600:	00000000 	nop
    1604:	00000000 	nop
    1608:	3c084687 	lui	t0,0x4687
    160c:	3508236c 	ori	t0,t0,0x236c
    1610:	24093fa4 	li	t1,16292
    1614:	2d103fa4 	sltiu	s0,t0,16292
    1618:	24120000 	li	s2,0
    161c:	161203b2 	bne	s0,s2,24e8 <inst_error>
    1620:	00000000 	nop
    1624:	00000000 	nop
    1628:	3c081ee5 	lui	t0,0x1ee5
    162c:	3508c220 	ori	t0,t0,0xc220
    1630:	24091945 	li	t1,6469
    1634:	2d101945 	sltiu	s0,t0,6469
    1638:	24120000 	li	s2,0
    163c:	161203aa 	bne	s0,s2,24e8 <inst_error>
    1640:	00000000 	nop
    1644:	00000000 	nop
    1648:	3c084df1 	lui	t0,0x4df1
    164c:	3508c530 	ori	t0,t0,0xc530
    1650:	24095c00 	li	t1,23552
    1654:	2d105c00 	sltiu	s0,t0,23552
    1658:	24120000 	li	s2,0
    165c:	161203a2 	bne	s0,s2,24e8 <inst_error>
    1660:	00000000 	nop
    1664:	00000000 	nop
    1668:	3c08ec98 	lui	t0,0xec98
    166c:	35082c3e 	ori	t0,t0,0x2c3e
    1670:	3409a4a0 	li	t1,0xa4a0
    1674:	2d10a4a0 	sltiu	s0,t0,-23392
    1678:	24120001 	li	s2,1
    167c:	1612039a 	bne	s0,s2,24e8 <inst_error>
    1680:	00000000 	nop
    1684:	00000000 	nop
    1688:	3c08a49e 	lui	t0,0xa49e
    168c:	35083620 	ori	t0,t0,0x3620
    1690:	3409de96 	li	t1,0xde96
    1694:	2d10de96 	sltiu	s0,t0,-8554
    1698:	24120001 	li	s2,1
    169c:	16120392 	bne	s0,s2,24e8 <inst_error>
    16a0:	00000000 	nop
    16a4:	00000000 	nop
    16a8:	3c08a8d7 	lui	t0,0xa8d7
    16ac:	35086ac0 	ori	t0,t0,0x6ac0
    16b0:	3409c736 	li	t1,0xc736
    16b4:	2d10c736 	sltiu	s0,t0,-14538
    16b8:	24120001 	li	s2,1
    16bc:	1612038a 	bne	s0,s2,24e8 <inst_error>
    16c0:	00000000 	nop
    16c4:	00000000 	nop
    16c8:	3c08a36d 	lui	t0,0xa36d
    16cc:	350833dc 	ori	t0,t0,0x33dc
    16d0:	240965dc 	li	t1,26076
    16d4:	2d1065dc 	sltiu	s0,t0,26076
    16d8:	24120000 	li	s2,0
    16dc:	16120382 	bne	s0,s2,24e8 <inst_error>
    16e0:	00000000 	nop
    16e4:	00000000 	nop
    16e8:	3c089cea 	lui	t0,0x9cea
    16ec:	35088ff4 	ori	t0,t0,0x8ff4
    16f0:	3409f8d4 	li	t1,0xf8d4
    16f4:	2d10f8d4 	sltiu	s0,t0,-1836
    16f8:	24120001 	li	s2,1
    16fc:	1612037a 	bne	s0,s2,24e8 <inst_error>
    1700:	00000000 	nop
    1704:	00000000 	nop
    1708:	3c0822c1 	lui	t0,0x22c1
    170c:	3508d98a 	ori	t0,t0,0xd98a
    1710:	24097210 	li	t1,29200
    1714:	2d107210 	sltiu	s0,t0,29200
    1718:	24120000 	li	s2,0
    171c:	16120372 	bne	s0,s2,24e8 <inst_error>
    1720:	00000000 	nop
    1724:	00000000 	nop
    1728:	3c0841b0 	lui	t0,0x41b0
    172c:	3508979c 	ori	t0,t0,0x979c
    1730:	3409a8d7 	li	t1,0xa8d7
    1734:	2d10a8d7 	sltiu	s0,t0,-22313
    1738:	24120001 	li	s2,1
    173c:	1612036a 	bne	s0,s2,24e8 <inst_error>
    1740:	00000000 	nop
    1744:	00000000 	nop
    1748:	3c089dc9 	lui	t0,0x9dc9
    174c:	35083b4f 	ori	t0,t0,0x3b4f
    1750:	3409a4a0 	li	t1,0xa4a0
    1754:	2d10a4a0 	sltiu	s0,t0,-23392
    1758:	24120001 	li	s2,1
    175c:	16120362 	bne	s0,s2,24e8 <inst_error>
    1760:	00000000 	nop
    1764:	00000000 	nop
    1768:	3c0878de 	lui	t0,0x78de
    176c:	350888d2 	ori	t0,t0,0x88d2
    1770:	24092880 	li	t1,10368
    1774:	2d102880 	sltiu	s0,t0,10368
    1778:	24120000 	li	s2,0
    177c:	1612035a 	bne	s0,s2,24e8 <inst_error>
    1780:	00000000 	nop
    1784:	00000000 	nop
    1788:	3c0813f6 	lui	t0,0x13f6
    178c:	3508e998 	ori	t0,t0,0xe998
    1790:	2409008b 	li	t1,139
    1794:	2d10008b 	sltiu	s0,t0,139
    1798:	24120000 	li	s2,0
    179c:	16120352 	bne	s0,s2,24e8 <inst_error>
    17a0:	00000000 	nop
    17a4:	00000000 	nop
    17a8:	3c08b7c0 	lui	t0,0xb7c0
    17ac:	35087400 	ori	t0,t0,0x7400
    17b0:	24092644 	li	t1,9796
    17b4:	2d102644 	sltiu	s0,t0,9796
    17b8:	24120000 	li	s2,0
    17bc:	1612034a 	bne	s0,s2,24e8 <inst_error>
    17c0:	00000000 	nop
    17c4:	00000000 	nop
    17c8:	3c0842f1 	lui	t0,0x42f1
    17cc:	350888fe 	ori	t0,t0,0x88fe
    17d0:	34099314 	li	t1,0x9314
    17d4:	2d109314 	sltiu	s0,t0,-27884
    17d8:	24120001 	li	s2,1
    17dc:	16120342 	bne	s0,s2,24e8 <inst_error>
    17e0:	00000000 	nop
    17e4:	00000000 	nop
    17e8:	3c0893ac 	lui	t0,0x93ac
    17ec:	35083400 	ori	t0,t0,0x3400
    17f0:	24095d13 	li	t1,23827
    17f4:	2d105d13 	sltiu	s0,t0,23827
    17f8:	24120000 	li	s2,0
    17fc:	1612033a 	bne	s0,s2,24e8 <inst_error>
    1800:	00000000 	nop
    1804:	00000000 	nop
    1808:	3c083a97 	lui	t0,0x3a97
    180c:	35080198 	ori	t0,t0,0x198
    1810:	3409e401 	li	t1,0xe401
    1814:	2d10e401 	sltiu	s0,t0,-7167
    1818:	24120001 	li	s2,1
    181c:	16120332 	bne	s0,s2,24e8 <inst_error>
    1820:	00000000 	nop
    1824:	00000000 	nop
    1828:	3c082a1b 	lui	t0,0x2a1b
    182c:	35080bb4 	ori	t0,t0,0xbb4
    1830:	340998d0 	li	t1,0x98d0
    1834:	2d1098d0 	sltiu	s0,t0,-26416
    1838:	24120001 	li	s2,1
    183c:	1612032a 	bne	s0,s2,24e8 <inst_error>
    1840:	00000000 	nop
    1844:	00000000 	nop
    1848:	3c08d0b4 	lui	t0,0xd0b4
    184c:	3508acf0 	ori	t0,t0,0xacf0
    1850:	3409d491 	li	t1,0xd491
    1854:	2d10d491 	sltiu	s0,t0,-11119
    1858:	24120001 	li	s2,1
    185c:	16120322 	bne	s0,s2,24e8 <inst_error>
    1860:	00000000 	nop
    1864:	00000000 	nop
    1868:	3c08e0d2 	lui	t0,0xe0d2
    186c:	3508b5fa 	ori	t0,t0,0xb5fa
    1870:	3409b1b6 	li	t1,0xb1b6
    1874:	2d10b1b6 	sltiu	s0,t0,-20042
    1878:	24120001 	li	s2,1
    187c:	1612031a 	bne	s0,s2,24e8 <inst_error>
    1880:	00000000 	nop
    1884:	00000000 	nop
    1888:	3c08533c 	lui	t0,0x533c
    188c:	35087880 	ori	t0,t0,0x7880
    1890:	34098e63 	li	t1,0x8e63
    1894:	2d108e63 	sltiu	s0,t0,-29085
    1898:	24120001 	li	s2,1
    189c:	16120312 	bne	s0,s2,24e8 <inst_error>
    18a0:	00000000 	nop
    18a4:	00000000 	nop
    18a8:	3c080251 	lui	t0,0x251
    18ac:	3508adc0 	ori	t0,t0,0xadc0
    18b0:	3409d3d8 	li	t1,0xd3d8
    18b4:	2d10d3d8 	sltiu	s0,t0,-11304
    18b8:	24120001 	li	s2,1
    18bc:	1612030a 	bne	s0,s2,24e8 <inst_error>
    18c0:	00000000 	nop
    18c4:	00000000 	nop
    18c8:	3c082d20 	lui	t0,0x2d20
    18cc:	350885dc 	ori	t0,t0,0x85dc
    18d0:	34098640 	li	t1,0x8640
    18d4:	2d108640 	sltiu	s0,t0,-31168
    18d8:	24120001 	li	s2,1
    18dc:	16120302 	bne	s0,s2,24e8 <inst_error>
    18e0:	00000000 	nop
    18e4:	00000000 	nop
    18e8:	3c083f67 	lui	t0,0x3f67
    18ec:	350830a0 	ori	t0,t0,0x30a0
    18f0:	2409008f 	li	t1,143
    18f4:	2d10008f 	sltiu	s0,t0,143
    18f8:	24120000 	li	s2,0
    18fc:	161202fa 	bne	s0,s2,24e8 <inst_error>
    1900:	00000000 	nop
    1904:	00000000 	nop
    1908:	3c085a88 	lui	t0,0x5a88
    190c:	35087b40 	ori	t0,t0,0x7b40
    1910:	24090000 	li	t1,0
    1914:	2d100000 	sltiu	s0,t0,0
    1918:	24120000 	li	s2,0
    191c:	161202f2 	bne	s0,s2,24e8 <inst_error>
    1920:	00000000 	nop
    1924:	00000000 	nop
    1928:	3c0877f6 	lui	t0,0x77f6
    192c:	3508f704 	ori	t0,t0,0xf704
    1930:	24090000 	li	t1,0
    1934:	2d100000 	sltiu	s0,t0,0
    1938:	24120000 	li	s2,0
    193c:	161202ea 	bne	s0,s2,24e8 <inst_error>
    1940:	00000000 	nop
    1944:	00000000 	nop
    1948:	3c081706 	lui	t0,0x1706
    194c:	35085b00 	ori	t0,t0,0x5b00
    1950:	24090000 	li	t1,0
    1954:	2d100000 	sltiu	s0,t0,0
    1958:	24120000 	li	s2,0
    195c:	161202e2 	bne	s0,s2,24e8 <inst_error>
    1960:	00000000 	nop
    1964:	00000000 	nop
    1968:	3c0840e6 	lui	t0,0x40e6
    196c:	350844f8 	ori	t0,t0,0x44f8
    1970:	24090000 	li	t1,0
    1974:	2d100000 	sltiu	s0,t0,0
    1978:	24120000 	li	s2,0
    197c:	161202da 	bne	s0,s2,24e8 <inst_error>
    1980:	00000000 	nop
    1984:	00000000 	nop
    1988:	3c08051f 	lui	t0,0x51f
    198c:	35080300 	ori	t0,t0,0x300
    1990:	24090000 	li	t1,0
    1994:	2d100000 	sltiu	s0,t0,0
    1998:	24120000 	li	s2,0
    199c:	161202d2 	bne	s0,s2,24e8 <inst_error>
    19a0:	00000000 	nop
    19a4:	00000000 	nop
    19a8:	3c082182 	lui	t0,0x2182
    19ac:	35082ca0 	ori	t0,t0,0x2ca0
    19b0:	24090000 	li	t1,0
    19b4:	2d100000 	sltiu	s0,t0,0
    19b8:	24120000 	li	s2,0
    19bc:	161202ca 	bne	s0,s2,24e8 <inst_error>
    19c0:	00000000 	nop
    19c4:	00000000 	nop
    19c8:	3c0810be 	lui	t0,0x10be
    19cc:	35085096 	ori	t0,t0,0x5096
    19d0:	24090000 	li	t1,0
    19d4:	2d100000 	sltiu	s0,t0,0
    19d8:	24120000 	li	s2,0
    19dc:	161202c2 	bne	s0,s2,24e8 <inst_error>
    19e0:	00000000 	nop
    19e4:	00000000 	nop
    19e8:	3c08e044 	lui	t0,0xe044
    19ec:	3508c598 	ori	t0,t0,0xc598
    19f0:	24090000 	li	t1,0
    19f4:	2d100000 	sltiu	s0,t0,0
    19f8:	24120000 	li	s2,0
    19fc:	161202ba 	bne	s0,s2,24e8 <inst_error>
    1a00:	00000000 	nop
    1a04:	00000000 	nop
    1a08:	3c08502f 	lui	t0,0x502f
    1a0c:	35083ef8 	ori	t0,t0,0x3ef8
    1a10:	24090000 	li	t1,0
    1a14:	2d100000 	sltiu	s0,t0,0
    1a18:	24120000 	li	s2,0
    1a1c:	161202b2 	bne	s0,s2,24e8 <inst_error>
    1a20:	00000000 	nop
    1a24:	00000000 	nop
    1a28:	3c08ff47 	lui	t0,0xff47
    1a2c:	3508ef40 	ori	t0,t0,0xef40
    1a30:	24090000 	li	t1,0
    1a34:	2d100000 	sltiu	s0,t0,0
    1a38:	24120000 	li	s2,0
    1a3c:	161202aa 	bne	s0,s2,24e8 <inst_error>
    1a40:	00000000 	nop
    1a44:	00000000 	nop
    1a48:	3c0866ce 	lui	t0,0x66ce
    1a4c:	35087cbe 	ori	t0,t0,0x7cbe
    1a50:	24090000 	li	t1,0
    1a54:	2d100000 	sltiu	s0,t0,0
    1a58:	24120000 	li	s2,0
    1a5c:	161202a2 	bne	s0,s2,24e8 <inst_error>
    1a60:	00000000 	nop
    1a64:	00000000 	nop
    1a68:	3c082937 	lui	t0,0x2937
    1a6c:	35082a28 	ori	t0,t0,0x2a28
    1a70:	24090000 	li	t1,0
    1a74:	2d100000 	sltiu	s0,t0,0
    1a78:	24120000 	li	s2,0
    1a7c:	1612029a 	bne	s0,s2,24e8 <inst_error>
    1a80:	00000000 	nop
    1a84:	00000000 	nop
    1a88:	3c08845c 	lui	t0,0x845c
    1a8c:	3508e200 	ori	t0,t0,0xe200
    1a90:	24090000 	li	t1,0
    1a94:	2d100000 	sltiu	s0,t0,0
    1a98:	24120000 	li	s2,0
    1a9c:	16120292 	bne	s0,s2,24e8 <inst_error>
    1aa0:	00000000 	nop
    1aa4:	00000000 	nop
    1aa8:	3c081632 	lui	t0,0x1632
    1aac:	35081ee0 	ori	t0,t0,0x1ee0
    1ab0:	24090000 	li	t1,0
    1ab4:	2d100000 	sltiu	s0,t0,0
    1ab8:	24120000 	li	s2,0
    1abc:	1612028a 	bne	s0,s2,24e8 <inst_error>
    1ac0:	00000000 	nop
    1ac4:	00000000 	nop
    1ac8:	3c084565 	lui	t0,0x4565
    1acc:	350840c0 	ori	t0,t0,0x40c0
    1ad0:	24090000 	li	t1,0
    1ad4:	2d100000 	sltiu	s0,t0,0
    1ad8:	24120000 	li	s2,0
    1adc:	16120282 	bne	s0,s2,24e8 <inst_error>
    1ae0:	00000000 	nop
    1ae4:	00000000 	nop
    1ae8:	3c089b07 	lui	t0,0x9b07
    1aec:	350805f0 	ori	t0,t0,0x5f0
    1af0:	24090000 	li	t1,0
    1af4:	2d100000 	sltiu	s0,t0,0
    1af8:	24120000 	li	s2,0
    1afc:	1612027a 	bne	s0,s2,24e8 <inst_error>
    1b00:	00000000 	nop
    1b04:	00000000 	nop
    1b08:	3c0895e2 	lui	t0,0x95e2
    1b0c:	35080950 	ori	t0,t0,0x950
    1b10:	24090000 	li	t1,0
    1b14:	2d100000 	sltiu	s0,t0,0
    1b18:	24120000 	li	s2,0
    1b1c:	16120272 	bne	s0,s2,24e8 <inst_error>
    1b20:	00000000 	nop
    1b24:	00000000 	nop
    1b28:	3c080831 	lui	t0,0x831
    1b2c:	35082224 	ori	t0,t0,0x2224
    1b30:	24090000 	li	t1,0
    1b34:	2d100000 	sltiu	s0,t0,0
    1b38:	24120000 	li	s2,0
    1b3c:	1612026a 	bne	s0,s2,24e8 <inst_error>
    1b40:	00000000 	nop
    1b44:	00000000 	nop
    1b48:	3c080313 	lui	t0,0x313
    1b4c:	35088460 	ori	t0,t0,0x8460
    1b50:	24090000 	li	t1,0
    1b54:	2d100000 	sltiu	s0,t0,0
    1b58:	24120000 	li	s2,0
    1b5c:	16120262 	bne	s0,s2,24e8 <inst_error>
    1b60:	00000000 	nop
    1b64:	00000000 	nop
    1b68:	3c083978 	lui	t0,0x3978
    1b6c:	3508fdde 	ori	t0,t0,0xfdde
    1b70:	24090000 	li	t1,0
    1b74:	2d100000 	sltiu	s0,t0,0
    1b78:	24120000 	li	s2,0
    1b7c:	1612025a 	bne	s0,s2,24e8 <inst_error>
    1b80:	00000000 	nop
    1b84:	00000000 	nop
    1b88:	3c08fad1 	lui	t0,0xfad1
    1b8c:	3508e400 	ori	t0,t0,0xe400
    1b90:	24090000 	li	t1,0
    1b94:	2d100000 	sltiu	s0,t0,0
    1b98:	24120000 	li	s2,0
    1b9c:	16120252 	bne	s0,s2,24e8 <inst_error>
    1ba0:	00000000 	nop
    1ba4:	00000000 	nop
    1ba8:	3c08514e 	lui	t0,0x514e
    1bac:	3508de20 	ori	t0,t0,0xde20
    1bb0:	24090000 	li	t1,0
    1bb4:	2d100000 	sltiu	s0,t0,0
    1bb8:	24120000 	li	s2,0
    1bbc:	1612024a 	bne	s0,s2,24e8 <inst_error>
    1bc0:	00000000 	nop
    1bc4:	00000000 	nop
    1bc8:	3c088889 	lui	t0,0x8889
    1bcc:	3508e66f 	ori	t0,t0,0xe66f
    1bd0:	24090000 	li	t1,0
    1bd4:	2d100000 	sltiu	s0,t0,0
    1bd8:	24120000 	li	s2,0
    1bdc:	16120242 	bne	s0,s2,24e8 <inst_error>
    1be0:	00000000 	nop
    1be4:	00000000 	nop
    1be8:	3c083ac1 	lui	t0,0x3ac1
    1bec:	3508a4fc 	ori	t0,t0,0xa4fc
    1bf0:	24090000 	li	t1,0
    1bf4:	2d100000 	sltiu	s0,t0,0
    1bf8:	24120000 	li	s2,0
    1bfc:	1612023a 	bne	s0,s2,24e8 <inst_error>
    1c00:	00000000 	nop
    1c04:	00000000 	nop
    1c08:	3c083ed2 	lui	t0,0x3ed2
    1c0c:	3508ea5f 	ori	t0,t0,0xea5f
    1c10:	24090000 	li	t1,0
    1c14:	2d100000 	sltiu	s0,t0,0
    1c18:	24120000 	li	s2,0
    1c1c:	16120232 	bne	s0,s2,24e8 <inst_error>
    1c20:	00000000 	nop
    1c24:	00000000 	nop
    1c28:	3c088063 	lui	t0,0x8063
    1c2c:	35083134 	ori	t0,t0,0x3134
    1c30:	24090000 	li	t1,0
    1c34:	2d100000 	sltiu	s0,t0,0
    1c38:	24120000 	li	s2,0
    1c3c:	1612022a 	bne	s0,s2,24e8 <inst_error>
    1c40:	00000000 	nop
    1c44:	00000000 	nop
    1c48:	3c086ba5 	lui	t0,0x6ba5
    1c4c:	3508c2bb 	ori	t0,t0,0xc2bb
    1c50:	24090000 	li	t1,0
    1c54:	2d100000 	sltiu	s0,t0,0
    1c58:	24120000 	li	s2,0
    1c5c:	16120222 	bne	s0,s2,24e8 <inst_error>
    1c60:	00000000 	nop
    1c64:	00000000 	nop
    1c68:	3c086fa0 	lui	t0,0x6fa0
    1c6c:	3508b5c0 	ori	t0,t0,0xb5c0
    1c70:	24090000 	li	t1,0
    1c74:	2d100000 	sltiu	s0,t0,0
    1c78:	24120000 	li	s2,0
    1c7c:	1612021a 	bne	s0,s2,24e8 <inst_error>
    1c80:	00000000 	nop
    1c84:	00000000 	nop
    1c88:	3c08d2aa 	lui	t0,0xd2aa
    1c8c:	3508a7be 	ori	t0,t0,0xa7be
    1c90:	24090000 	li	t1,0
    1c94:	2d100000 	sltiu	s0,t0,0
    1c98:	24120000 	li	s2,0
    1c9c:	16120212 	bne	s0,s2,24e8 <inst_error>
    1ca0:	00000000 	nop
    1ca4:	00000000 	nop
    1ca8:	3c08e48a 	lui	t0,0xe48a
    1cac:	35084b08 	ori	t0,t0,0x4b08
    1cb0:	24090000 	li	t1,0
    1cb4:	2d100000 	sltiu	s0,t0,0
    1cb8:	24120000 	li	s2,0
    1cbc:	1612020a 	bne	s0,s2,24e8 <inst_error>
    1cc0:	00000000 	nop
    1cc4:	00000000 	nop
    1cc8:	3c086fb2 	lui	t0,0x6fb2
    1ccc:	35082958 	ori	t0,t0,0x2958
    1cd0:	24090000 	li	t1,0
    1cd4:	2d100000 	sltiu	s0,t0,0
    1cd8:	24120000 	li	s2,0
    1cdc:	16120202 	bne	s0,s2,24e8 <inst_error>
    1ce0:	00000000 	nop
    1ce4:	00000000 	nop
    1ce8:	3c08154e 	lui	t0,0x154e
    1cec:	35086134 	ori	t0,t0,0x6134
    1cf0:	24090000 	li	t1,0
    1cf4:	2d100000 	sltiu	s0,t0,0
    1cf8:	24120000 	li	s2,0
    1cfc:	161201fa 	bne	s0,s2,24e8 <inst_error>
    1d00:	00000000 	nop
    1d04:	00000000 	nop
    1d08:	3c089cf2 	lui	t0,0x9cf2
    1d0c:	35083035 	ori	t0,t0,0x3035
    1d10:	24090000 	li	t1,0
    1d14:	2d100000 	sltiu	s0,t0,0
    1d18:	24120000 	li	s2,0
    1d1c:	161201f2 	bne	s0,s2,24e8 <inst_error>
    1d20:	00000000 	nop
    1d24:	00000000 	nop
    1d28:	3c085fe5 	lui	t0,0x5fe5
    1d2c:	3508308c 	ori	t0,t0,0x308c
    1d30:	24090000 	li	t1,0
    1d34:	2d100000 	sltiu	s0,t0,0
    1d38:	24120000 	li	s2,0
    1d3c:	161201ea 	bne	s0,s2,24e8 <inst_error>
    1d40:	00000000 	nop
    1d44:	00000000 	nop
    1d48:	3c08afc0 	lui	t0,0xafc0
    1d4c:	3508d82c 	ori	t0,t0,0xd82c
    1d50:	24090000 	li	t1,0
    1d54:	2d100000 	sltiu	s0,t0,0
    1d58:	24120000 	li	s2,0
    1d5c:	161201e2 	bne	s0,s2,24e8 <inst_error>
    1d60:	00000000 	nop
    1d64:	00000000 	nop
    1d68:	3c082472 	lui	t0,0x2472
    1d6c:	3508d528 	ori	t0,t0,0xd528
    1d70:	24090000 	li	t1,0
    1d74:	2d100000 	sltiu	s0,t0,0
    1d78:	24120000 	li	s2,0
    1d7c:	161201da 	bne	s0,s2,24e8 <inst_error>
    1d80:	00000000 	nop
    1d84:	00000000 	nop
    1d88:	3c082819 	lui	t0,0x2819
    1d8c:	35086e0f 	ori	t0,t0,0x6e0f
    1d90:	24090000 	li	t1,0
    1d94:	2d100000 	sltiu	s0,t0,0
    1d98:	24120000 	li	s2,0
    1d9c:	161201d2 	bne	s0,s2,24e8 <inst_error>
    1da0:	00000000 	nop
    1da4:	00000000 	nop
    1da8:	3c088c5a 	lui	t0,0x8c5a
    1dac:	3508d5f4 	ori	t0,t0,0xd5f4
    1db0:	24090000 	li	t1,0
    1db4:	2d100000 	sltiu	s0,t0,0
    1db8:	24120000 	li	s2,0
    1dbc:	161201ca 	bne	s0,s2,24e8 <inst_error>
    1dc0:	00000000 	nop
    1dc4:	00000000 	nop
    1dc8:	3c08579e 	lui	t0,0x579e
    1dcc:	3508b980 	ori	t0,t0,0xb980
    1dd0:	24090000 	li	t1,0
    1dd4:	2d100000 	sltiu	s0,t0,0
    1dd8:	24120000 	li	s2,0
    1ddc:	161201c2 	bne	s0,s2,24e8 <inst_error>
    1de0:	00000000 	nop
    1de4:	00000000 	nop
    1de8:	3c08f521 	lui	t0,0xf521
    1dec:	35080f00 	ori	t0,t0,0xf00
    1df0:	24090000 	li	t1,0
    1df4:	2d100000 	sltiu	s0,t0,0
    1df8:	24120000 	li	s2,0
    1dfc:	161201ba 	bne	s0,s2,24e8 <inst_error>
    1e00:	00000000 	nop
    1e04:	00000000 	nop
    1e08:	3c0893aa 	lui	t0,0x93aa
    1e0c:	35087fc5 	ori	t0,t0,0x7fc5
    1e10:	24090000 	li	t1,0
    1e14:	2d100000 	sltiu	s0,t0,0
    1e18:	24120000 	li	s2,0
    1e1c:	161201b2 	bne	s0,s2,24e8 <inst_error>
    1e20:	00000000 	nop
    1e24:	00000000 	nop
    1e28:	3c081bab 	lui	t0,0x1bab
    1e2c:	35084b60 	ori	t0,t0,0x4b60
    1e30:	24090000 	li	t1,0
    1e34:	2d100000 	sltiu	s0,t0,0
    1e38:	24120000 	li	s2,0
    1e3c:	161201aa 	bne	s0,s2,24e8 <inst_error>
    1e40:	00000000 	nop
    1e44:	00000000 	nop
    1e48:	3c08e581 	lui	t0,0xe581
    1e4c:	35087240 	ori	t0,t0,0x7240
    1e50:	24090000 	li	t1,0
    1e54:	2d100000 	sltiu	s0,t0,0
    1e58:	24120000 	li	s2,0
    1e5c:	161201a2 	bne	s0,s2,24e8 <inst_error>
    1e60:	00000000 	nop
    1e64:	00000000 	nop
    1e68:	3c08cc59 	lui	t0,0xcc59
    1e6c:	3508904c 	ori	t0,t0,0x904c
    1e70:	24090000 	li	t1,0
    1e74:	2d100000 	sltiu	s0,t0,0
    1e78:	24120000 	li	s2,0
    1e7c:	1612019a 	bne	s0,s2,24e8 <inst_error>
    1e80:	00000000 	nop
    1e84:	00000000 	nop
    1e88:	3c08398b 	lui	t0,0x398b
    1e8c:	3508d619 	ori	t0,t0,0xd619
    1e90:	24090000 	li	t1,0
    1e94:	2d100000 	sltiu	s0,t0,0
    1e98:	24120000 	li	s2,0
    1e9c:	16120192 	bne	s0,s2,24e8 <inst_error>
    1ea0:	00000000 	nop
    1ea4:	00000000 	nop
    1ea8:	3c0867b8 	lui	t0,0x67b8
    1eac:	35089b28 	ori	t0,t0,0x9b28
    1eb0:	24090000 	li	t1,0
    1eb4:	2d100000 	sltiu	s0,t0,0
    1eb8:	24120000 	li	s2,0
    1ebc:	1612018a 	bne	s0,s2,24e8 <inst_error>
    1ec0:	00000000 	nop
    1ec4:	00000000 	nop
    1ec8:	3c08efd8 	lui	t0,0xefd8
    1ecc:	35080fc4 	ori	t0,t0,0xfc4
    1ed0:	24090000 	li	t1,0
    1ed4:	2d100000 	sltiu	s0,t0,0
    1ed8:	24120000 	li	s2,0
    1edc:	16120182 	bne	s0,s2,24e8 <inst_error>
    1ee0:	00000000 	nop
    1ee4:	00000000 	nop
    1ee8:	3c0855d2 	lui	t0,0x55d2
    1eec:	3508d016 	ori	t0,t0,0xd016
    1ef0:	24090000 	li	t1,0
    1ef4:	2d100000 	sltiu	s0,t0,0
    1ef8:	24120000 	li	s2,0
    1efc:	1612017a 	bne	s0,s2,24e8 <inst_error>
    1f00:	00000000 	nop
    1f04:	00000000 	nop
    1f08:	3c089609 	lui	t0,0x9609
    1f0c:	35089350 	ori	t0,t0,0x9350
    1f10:	24090000 	li	t1,0
    1f14:	2d100000 	sltiu	s0,t0,0
    1f18:	24120000 	li	s2,0
    1f1c:	16120172 	bne	s0,s2,24e8 <inst_error>
    1f20:	00000000 	nop
    1f24:	00000000 	nop
    1f28:	3c08719d 	lui	t0,0x719d
    1f2c:	350844a8 	ori	t0,t0,0x44a8
    1f30:	24090000 	li	t1,0
    1f34:	2d100000 	sltiu	s0,t0,0
    1f38:	24120000 	li	s2,0
    1f3c:	1612016a 	bne	s0,s2,24e8 <inst_error>
    1f40:	00000000 	nop
    1f44:	00000000 	nop
    1f48:	24080000 	li	t0,0
    1f4c:	3409b625 	li	t1,0xb625
    1f50:	2d10b625 	sltiu	s0,t0,-18907
    1f54:	24120001 	li	s2,1
    1f58:	16120163 	bne	s0,s2,24e8 <inst_error>
    1f5c:	00000000 	nop
    1f60:	00000000 	nop
    1f64:	24080000 	li	t0,0
    1f68:	3409d72e 	li	t1,0xd72e
    1f6c:	2d10d72e 	sltiu	s0,t0,-10450
    1f70:	24120001 	li	s2,1
    1f74:	1612015c 	bne	s0,s2,24e8 <inst_error>
    1f78:	00000000 	nop
    1f7c:	00000000 	nop
    1f80:	24080000 	li	t0,0
    1f84:	24095e36 	li	t1,24118
    1f88:	2d105e36 	sltiu	s0,t0,24118
    1f8c:	24120001 	li	s2,1
    1f90:	16120155 	bne	s0,s2,24e8 <inst_error>
    1f94:	00000000 	nop
    1f98:	00000000 	nop
    1f9c:	24080000 	li	t0,0
    1fa0:	34099e40 	li	t1,0x9e40
    1fa4:	2d109e40 	sltiu	s0,t0,-25024
    1fa8:	24120001 	li	s2,1
    1fac:	1612014e 	bne	s0,s2,24e8 <inst_error>
    1fb0:	00000000 	nop
    1fb4:	00000000 	nop
    1fb8:	24080000 	li	t0,0
    1fbc:	24096d08 	li	t1,27912
    1fc0:	2d106d08 	sltiu	s0,t0,27912
    1fc4:	24120001 	li	s2,1
    1fc8:	16120147 	bne	s0,s2,24e8 <inst_error>
    1fcc:	00000000 	nop
    1fd0:	00000000 	nop
    1fd4:	24080000 	li	t0,0
    1fd8:	3409c6c4 	li	t1,0xc6c4
    1fdc:	2d10c6c4 	sltiu	s0,t0,-14652
    1fe0:	24120001 	li	s2,1
    1fe4:	16120140 	bne	s0,s2,24e8 <inst_error>
    1fe8:	00000000 	nop
    1fec:	00000000 	nop
    1ff0:	24080000 	li	t0,0
    1ff4:	24092f0d 	li	t1,12045
    1ff8:	2d102f0d 	sltiu	s0,t0,12045
    1ffc:	24120001 	li	s2,1
    2000:	16120139 	bne	s0,s2,24e8 <inst_error>
    2004:	00000000 	nop
    2008:	00000000 	nop
    200c:	24080000 	li	t0,0
    2010:	3409e460 	li	t1,0xe460
    2014:	2d10e460 	sltiu	s0,t0,-7072
    2018:	24120001 	li	s2,1
    201c:	16120132 	bne	s0,s2,24e8 <inst_error>
    2020:	00000000 	nop
    2024:	00000000 	nop
    2028:	24080000 	li	t0,0
    202c:	340999de 	li	t1,0x99de
    2030:	2d1099de 	sltiu	s0,t0,-26146
    2034:	24120001 	li	s2,1
    2038:	1612012b 	bne	s0,s2,24e8 <inst_error>
    203c:	00000000 	nop
    2040:	00000000 	nop
    2044:	24080000 	li	t0,0
    2048:	3409a798 	li	t1,0xa798
    204c:	2d10a798 	sltiu	s0,t0,-22632
    2050:	24120001 	li	s2,1
    2054:	16120124 	bne	s0,s2,24e8 <inst_error>
    2058:	00000000 	nop
    205c:	00000000 	nop
    2060:	24080000 	li	t0,0
    2064:	3409da38 	li	t1,0xda38
    2068:	2d10da38 	sltiu	s0,t0,-9672
    206c:	24120001 	li	s2,1
    2070:	1612011d 	bne	s0,s2,24e8 <inst_error>
    2074:	00000000 	nop
    2078:	00000000 	nop
    207c:	24080000 	li	t0,0
    2080:	3409e6b4 	li	t1,0xe6b4
    2084:	2d10e6b4 	sltiu	s0,t0,-6476
    2088:	24120001 	li	s2,1
    208c:	16120116 	bne	s0,s2,24e8 <inst_error>
    2090:	00000000 	nop
    2094:	00000000 	nop
    2098:	24080000 	li	t0,0
    209c:	24091bdf 	li	t1,7135
    20a0:	2d101bdf 	sltiu	s0,t0,7135
    20a4:	24120001 	li	s2,1
    20a8:	1612010f 	bne	s0,s2,24e8 <inst_error>
    20ac:	00000000 	nop
    20b0:	00000000 	nop
    20b4:	24080000 	li	t0,0
    20b8:	24093cc8 	li	t1,15560
    20bc:	2d103cc8 	sltiu	s0,t0,15560
    20c0:	24120001 	li	s2,1
    20c4:	16120108 	bne	s0,s2,24e8 <inst_error>
    20c8:	00000000 	nop
    20cc:	00000000 	nop
    20d0:	24080000 	li	t0,0
    20d4:	2409771c 	li	t1,30492
    20d8:	2d10771c 	sltiu	s0,t0,30492
    20dc:	24120001 	li	s2,1
    20e0:	16120101 	bne	s0,s2,24e8 <inst_error>
    20e4:	00000000 	nop
    20e8:	00000000 	nop
    20ec:	24080000 	li	t0,0
    20f0:	3409e4d6 	li	t1,0xe4d6
    20f4:	2d10e4d6 	sltiu	s0,t0,-6954
    20f8:	24120001 	li	s2,1
    20fc:	161200fa 	bne	s0,s2,24e8 <inst_error>
    2100:	00000000 	nop
    2104:	00000000 	nop
    2108:	24080000 	li	t0,0
    210c:	24092100 	li	t1,8448
    2110:	2d102100 	sltiu	s0,t0,8448
    2114:	24120001 	li	s2,1
    2118:	161200f3 	bne	s0,s2,24e8 <inst_error>
    211c:	00000000 	nop
    2120:	00000000 	nop
    2124:	24080000 	li	t0,0
    2128:	3409d725 	li	t1,0xd725
    212c:	2d10d725 	sltiu	s0,t0,-10459
    2130:	24120001 	li	s2,1
    2134:	161200ec 	bne	s0,s2,24e8 <inst_error>
    2138:	00000000 	nop
    213c:	00000000 	nop
    2140:	24080000 	li	t0,0
    2144:	24095d3a 	li	t1,23866
    2148:	2d105d3a 	sltiu	s0,t0,23866
    214c:	24120001 	li	s2,1
    2150:	161200e5 	bne	s0,s2,24e8 <inst_error>
    2154:	00000000 	nop
    2158:	00000000 	nop
    215c:	24080000 	li	t0,0
    2160:	3409cc47 	li	t1,0xcc47
    2164:	2d10cc47 	sltiu	s0,t0,-13241
    2168:	24120001 	li	s2,1
    216c:	161200de 	bne	s0,s2,24e8 <inst_error>
    2170:	00000000 	nop
    2174:	00000000 	nop
    2178:	24080000 	li	t0,0
    217c:	24093eb8 	li	t1,16056
    2180:	2d103eb8 	sltiu	s0,t0,16056
    2184:	24120001 	li	s2,1
    2188:	161200d7 	bne	s0,s2,24e8 <inst_error>
    218c:	00000000 	nop
    2190:	00000000 	nop
    2194:	24080000 	li	t0,0
    2198:	240944ec 	li	t1,17644
    219c:	2d1044ec 	sltiu	s0,t0,17644
    21a0:	24120001 	li	s2,1
    21a4:	161200d0 	bne	s0,s2,24e8 <inst_error>
    21a8:	00000000 	nop
    21ac:	00000000 	nop
    21b0:	24080000 	li	t0,0
    21b4:	3409bde0 	li	t1,0xbde0
    21b8:	2d10bde0 	sltiu	s0,t0,-16928
    21bc:	24120001 	li	s2,1
    21c0:	161200c9 	bne	s0,s2,24e8 <inst_error>
    21c4:	00000000 	nop
    21c8:	00000000 	nop
    21cc:	24080000 	li	t0,0
    21d0:	3409a4b1 	li	t1,0xa4b1
    21d4:	2d10a4b1 	sltiu	s0,t0,-23375
    21d8:	24120001 	li	s2,1
    21dc:	161200c2 	bne	s0,s2,24e8 <inst_error>
    21e0:	00000000 	nop
    21e4:	00000000 	nop
    21e8:	24080000 	li	t0,0
    21ec:	3409cbae 	li	t1,0xcbae
    21f0:	2d10cbae 	sltiu	s0,t0,-13394
    21f4:	24120001 	li	s2,1
    21f8:	161200bb 	bne	s0,s2,24e8 <inst_error>
    21fc:	00000000 	nop
    2200:	00000000 	nop
    2204:	24080000 	li	t0,0
    2208:	24091c44 	li	t1,7236
    220c:	2d101c44 	sltiu	s0,t0,7236
    2210:	24120001 	li	s2,1
    2214:	161200b4 	bne	s0,s2,24e8 <inst_error>
    2218:	00000000 	nop
    221c:	00000000 	nop
    2220:	24080000 	li	t0,0
    2224:	3409ae1d 	li	t1,0xae1d
    2228:	2d10ae1d 	sltiu	s0,t0,-20963
    222c:	24120001 	li	s2,1
    2230:	161200ad 	bne	s0,s2,24e8 <inst_error>
    2234:	00000000 	nop
    2238:	00000000 	nop
    223c:	24080000 	li	t0,0
    2240:	3409f028 	li	t1,0xf028
    2244:	2d10f028 	sltiu	s0,t0,-4056
    2248:	24120001 	li	s2,1
    224c:	161200a6 	bne	s0,s2,24e8 <inst_error>
    2250:	00000000 	nop
    2254:	00000000 	nop
    2258:	24080000 	li	t0,0
    225c:	3409f520 	li	t1,0xf520
    2260:	2d10f520 	sltiu	s0,t0,-2784
    2264:	24120001 	li	s2,1
    2268:	1612009f 	bne	s0,s2,24e8 <inst_error>
    226c:	00000000 	nop
    2270:	00000000 	nop
    2274:	24080000 	li	t0,0
    2278:	3409ab2f 	li	t1,0xab2f
    227c:	2d10ab2f 	sltiu	s0,t0,-21713
    2280:	24120001 	li	s2,1
    2284:	16120098 	bne	s0,s2,24e8 <inst_error>
    2288:	00000000 	nop
    228c:	00000000 	nop
    2290:	24080000 	li	t0,0
    2294:	3409e612 	li	t1,0xe612
    2298:	2d10e612 	sltiu	s0,t0,-6638
    229c:	24120001 	li	s2,1
    22a0:	16120091 	bne	s0,s2,24e8 <inst_error>
    22a4:	00000000 	nop
    22a8:	00000000 	nop
    22ac:	24080000 	li	t0,0
    22b0:	24093665 	li	t1,13925
    22b4:	2d103665 	sltiu	s0,t0,13925
    22b8:	24120001 	li	s2,1
    22bc:	1612008a 	bne	s0,s2,24e8 <inst_error>
    22c0:	00000000 	nop
    22c4:	00000000 	nop
    22c8:	24080000 	li	t0,0
    22cc:	240918ec 	li	t1,6380
    22d0:	2d1018ec 	sltiu	s0,t0,6380
    22d4:	24120001 	li	s2,1
    22d8:	16120083 	bne	s0,s2,24e8 <inst_error>
    22dc:	00000000 	nop
    22e0:	00000000 	nop
    22e4:	24080000 	li	t0,0
    22e8:	3409c23a 	li	t1,0xc23a
    22ec:	2d10c23a 	sltiu	s0,t0,-15814
    22f0:	24120001 	li	s2,1
    22f4:	1612007c 	bne	s0,s2,24e8 <inst_error>
    22f8:	00000000 	nop
    22fc:	00000000 	nop
    2300:	24080000 	li	t0,0
    2304:	24092345 	li	t1,9029
    2308:	2d102345 	sltiu	s0,t0,9029
    230c:	24120001 	li	s2,1
    2310:	16120075 	bne	s0,s2,24e8 <inst_error>
    2314:	00000000 	nop
    2318:	00000000 	nop
    231c:	24080000 	li	t0,0
    2320:	2409031d 	li	t1,797
    2324:	2d10031d 	sltiu	s0,t0,797
    2328:	24120001 	li	s2,1
    232c:	1612006e 	bne	s0,s2,24e8 <inst_error>
    2330:	00000000 	nop
    2334:	00000000 	nop
    2338:	24080000 	li	t0,0
    233c:	3409a3d0 	li	t1,0xa3d0
    2340:	2d10a3d0 	sltiu	s0,t0,-23600
    2344:	24120001 	li	s2,1
    2348:	16120067 	bne	s0,s2,24e8 <inst_error>
    234c:	00000000 	nop
    2350:	00000000 	nop
    2354:	24080000 	li	t0,0
    2358:	24092c47 	li	t1,11335
    235c:	2d102c47 	sltiu	s0,t0,11335
    2360:	24120001 	li	s2,1
    2364:	16120060 	bne	s0,s2,24e8 <inst_error>
    2368:	00000000 	nop
    236c:	00000000 	nop
    2370:	24080000 	li	t0,0
    2374:	24092d66 	li	t1,11622
    2378:	2d102d66 	sltiu	s0,t0,11622
    237c:	24120001 	li	s2,1
    2380:	16120059 	bne	s0,s2,24e8 <inst_error>
    2384:	00000000 	nop
    2388:	00000000 	nop
    238c:	24080000 	li	t0,0
    2390:	34098ca7 	li	t1,0x8ca7
    2394:	2d108ca7 	sltiu	s0,t0,-29529
    2398:	24120001 	li	s2,1
    239c:	16120052 	bne	s0,s2,24e8 <inst_error>
    23a0:	00000000 	nop
    23a4:	00000000 	nop
    23a8:	24080000 	li	t0,0
    23ac:	24095d13 	li	t1,23827
    23b0:	2d105d13 	sltiu	s0,t0,23827
    23b4:	24120001 	li	s2,1
    23b8:	1612004b 	bne	s0,s2,24e8 <inst_error>
    23bc:	00000000 	nop
    23c0:	00000000 	nop
    23c4:	24080000 	li	t0,0
    23c8:	3409b8b8 	li	t1,0xb8b8
    23cc:	2d10b8b8 	sltiu	s0,t0,-18248
    23d0:	24120001 	li	s2,1
    23d4:	16120044 	bne	s0,s2,24e8 <inst_error>
    23d8:	00000000 	nop
    23dc:	00000000 	nop
    23e0:	24080000 	li	t0,0
    23e4:	3409ba66 	li	t1,0xba66
    23e8:	2d10ba66 	sltiu	s0,t0,-17818
    23ec:	24120001 	li	s2,1
    23f0:	1612003d 	bne	s0,s2,24e8 <inst_error>
    23f4:	00000000 	nop
    23f8:	00000000 	nop
    23fc:	24080000 	li	t0,0
    2400:	24097960 	li	t1,31072
    2404:	2d107960 	sltiu	s0,t0,31072
    2408:	24120001 	li	s2,1
    240c:	16120036 	bne	s0,s2,24e8 <inst_error>
    2410:	00000000 	nop
    2414:	00000000 	nop
    2418:	24080000 	li	t0,0
    241c:	240912f0 	li	t1,4848
    2420:	2d1012f0 	sltiu	s0,t0,4848
    2424:	24120001 	li	s2,1
    2428:	1612002f 	bne	s0,s2,24e8 <inst_error>
    242c:	00000000 	nop
    2430:	00000000 	nop
    2434:	24080000 	li	t0,0
    2438:	3409859f 	li	t1,0x859f
    243c:	2d10859f 	sltiu	s0,t0,-31329
    2440:	24120001 	li	s2,1
    2444:	16120028 	bne	s0,s2,24e8 <inst_error>
    2448:	00000000 	nop
    244c:	00000000 	nop
    2450:	24080000 	li	t0,0
    2454:	3409ed76 	li	t1,0xed76
    2458:	2d10ed76 	sltiu	s0,t0,-4746
    245c:	24120001 	li	s2,1
    2460:	16120021 	bne	s0,s2,24e8 <inst_error>
    2464:	00000000 	nop
    2468:	00000000 	nop
    246c:	24080000 	li	t0,0
    2470:	24092594 	li	t1,9620
    2474:	2d102594 	sltiu	s0,t0,9620
    2478:	24120001 	li	s2,1
    247c:	1612001a 	bne	s0,s2,24e8 <inst_error>
    2480:	00000000 	nop
    2484:	00000000 	nop
    2488:	24080000 	li	t0,0
    248c:	240970df 	li	t1,28895
    2490:	2d1070df 	sltiu	s0,t0,28895
    2494:	24120001 	li	s2,1
    2498:	16120013 	bne	s0,s2,24e8 <inst_error>
    249c:	00000000 	nop
    24a0:	00000000 	nop
    24a4:	24080000 	li	t0,0
    24a8:	3409c3b8 	li	t1,0xc3b8
    24ac:	2d10c3b8 	sltiu	s0,t0,-15432
    24b0:	24120001 	li	s2,1
    24b4:	1612000c 	bne	s0,s2,24e8 <inst_error>
    24b8:	00000000 	nop
    24bc:	00000000 	nop
    24c0:	24080000 	li	t0,0
    24c4:	24090000 	li	t1,0
    24c8:	2d100000 	sltiu	s0,t0,0
    24cc:	24120000 	li	s2,0
    24d0:	16120005 	bne	s0,s2,24e8 <inst_error>
    24d4:	00000000 	nop
    24d8:	14400003 	bnez	v0,24e8 <inst_error>
    24dc:	00000000 	nop
    24e0:	00000000 	nop
    24e4:	26730001 	addiu	s3,s3,1

000024e8 <inst_error>:
    24e8:	00934025 	or	t0,a0,s3
    24ec:	03e00008 	jr	ra
    24f0:	ae280000 	sw	t0,0(s1)
