       0:	3c041e00 	lui	a0,0x1e00
       4:	24020000 	li	v0,0
       8:	3c0c235f 	lui	t4,0x235f
       c:	358cde00 	ori	t4,t4,0xde00		t4 = 235fde00
      10:	3c0ddd59 	lui	t5,0xdd59
      14:	35ad7dde 	ori	t5,t5,0x7dde		t5 = dd597dde
      18:	24100000 	li	s0,0
      1c:	10000016 	b	78 <n30_bne_test+0x78>
      20:	24120000 	li	s2,0
      24:	00000000 	nop
      28:	3c10235f 	lui	s0,0x235f		跳回来
      2c:	15280023 	bne	t1,t0,bc <n30_bne_test+0xbc>
      30:	3610de00 	ori	s0,s0,0xde00
      34:	10000023 	b	c4 <n30_bne_test+0xc4>
      38:	00000000 	nop
      3c:	00000000 	nop
      40:	00000021 	move	zero,zero
      44:	00000021 	move	zero,zero
      48:	00000021 	move	zero,zero
      4c:	00000021 	move	zero,zero
      50:	00000021 	move	zero,zero
      54:	00000021 	move	zero,zero
      58:	00000021 	move	zero,zero
      5c:	00000021 	move	zero,zero
      60:	00000021 	move	zero,zero
      64:	00000021 	move	zero,zero
      68:	00000021 	move	zero,zero
      6c:	00000021 	move	zero,zero
      70:	00000021 	move	zero,zero
      74:	00000021 	move	zero,zero
      78:	3c08bcaa 	lui	t0,0xbcaa		t0 =
      7c:	3508bd27 	ori	t0,t0,0xbd27		t0 = bcaabd27
      80:	3c0982a7 	lui	t1,0x82a7
      84:	35297a9d 	ori	t1,t1,0x7a9d		t1 = 82a77a9d
      88:	1509ffe7 	bne	t0,t1,28 <n30_bne_test+0x28>	往回跳
      8c:	00000000 	nop
      90:	1000000c 	b	c4 <n30_bne_test+0xc4>
      94:	00000000 	nop
      98:	00000000 	nop
      9c:	00000021 	move	zero,zero
      a0:	00000021 	move	zero,zero
      a4:	00000021 	move	zero,zero
      a8:	00000021 	move	zero,zero
      ac:	00000021 	move	zero,zero
      b0:	00000021 	move	zero,zero
      b4:	00000021 	move	zero,zero
      b8:	00000021 	move	zero,zero
      bc:	3c12dd59 	lui	s2,0xdd59
      c0:	36527dde 	ori	s2,s2,0x7dde
      c4:	00000000 	nop
      c8:	3c14235f 	lui	s4,0x235f
      cc:	3694de00 	ori	s4,s4,0xde00
      d0:	161442d0 	bne	s0,s4,10c14 <inst_error>
      d4:	00000000 	nop
      d8:	00000000 	nop
      dc:	3c15dd59 	lui	s5,0xdd59
      e0:	36b57dde 	ori	s5,s5,0x7dde
      e4:	165542cb 	bne	s2,s5,10c14 <inst_error>
      e8:	00000000 	nop
      ec:	00000000 	nop
      f0:	3c0c9466 	lui	t4,0x9466
      f4:	358c8000 	ori	t4,t4,0x8000
      f8:	3c0de393 	lui	t5,0xe393
      fc:	35ad9568 	ori	t5,t5,0x9568
     100:	24100000 	li	s0,0
     104:	10000016 	b	160 <n30_bne_test+0x160>
     108:	24120000 	li	s2,0
     10c:	00000000 	nop
     110:	3c109466 	lui	s0,0x9466
     114:	15280023 	bne	t1,t0,1a4 <n30_bne_test+0x1a4>
     118:	36108000 	ori	s0,s0,0x8000
     11c:	10000023 	b	1ac <n30_bne_test+0x1ac>
     120:	00000000 	nop
     124:	00000000 	nop
     128:	00000021 	move	zero,zero
     12c:	00000021 	move	zero,zero
     130:	00000021 	move	zero,zero
     134:	00000021 	move	zero,zero
     138:	00000021 	move	zero,zero
     13c:	00000021 	move	zero,zero
     140:	00000021 	move	zero,zero
     144:	00000021 	move	zero,zero
     148:	00000021 	move	zero,zero
     14c:	00000021 	move	zero,zero
     150:	00000021 	move	zero,zero
     154:	00000021 	move	zero,zero
     158:	00000021 	move	zero,zero
     15c:	00000021 	move	zero,zero
     160:	3c08db38 	lui	t0,0xdb38
     164:	35086042 	ori	t0,t0,0x6042
     168:	3c094f6d 	lui	t1,0x4f6d
     16c:	3529035f 	ori	t1,t1,0x35f
     170:	1509ffe7 	bne	t0,t1,110 <n30_bne_test+0x110>
     174:	00000000 	nop
     178:	1000000c 	b	1ac <n30_bne_test+0x1ac>
     17c:	00000000 	nop
     180:	00000000 	nop
     184:	00000021 	move	zero,zero
     188:	00000021 	move	zero,zero
     18c:	00000021 	move	zero,zero
     190:	00000021 	move	zero,zero
     194:	00000021 	move	zero,zero
     198:	00000021 	move	zero,zero
     19c:	00000021 	move	zero,zero
     1a0:	00000021 	move	zero,zero
     1a4:	3c12e393 	lui	s2,0xe393
     1a8:	36529568 	ori	s2,s2,0x9568
     1ac:	00000000 	nop
     1b0:	3c149466 	lui	s4,0x9466
     1b4:	36948000 	ori	s4,s4,0x8000
     1b8:	16144296 	bne	s0,s4,10c14 <inst_error>
     1bc:	00000000 	nop
     1c0:	00000000 	nop
     1c4:	3c15e393 	lui	s5,0xe393
     1c8:	36b59568 	ori	s5,s5,0x9568
     1cc:	16554291 	bne	s2,s5,10c14 <inst_error>
     1d0:	00000000 	nop
     1d4:	00000000 	nop
     1d8:	3c0c9d7e 	lui	t4,0x9d7e
     1dc:	358c5298 	ori	t4,t4,0x5298
     1e0:	3c0dddab 	lui	t5,0xddab
     1e4:	35ad2338 	ori	t5,t5,0x2338
     1e8:	24100000 	li	s0,0
     1ec:	10000016 	b	248 <n30_bne_test+0x248>
     1f0:	24120000 	li	s2,0
     1f4:	00000000 	nop
     1f8:	3c109d7e 	lui	s0,0x9d7e
     1fc:	15280023 	bne	t1,t0,28c <n30_bne_test+0x28c>
     200:	36105298 	ori	s0,s0,0x5298
     204:	10000023 	b	294 <n30_bne_test+0x294>
     208:	00000000 	nop
     20c:	00000000 	nop
     210:	00000021 	move	zero,zero
     214:	00000021 	move	zero,zero
     218:	00000021 	move	zero,zero
     21c:	00000021 	move	zero,zero
     220:	00000021 	move	zero,zero
     224:	00000021 	move	zero,zero
     228:	00000021 	move	zero,zero
     22c:	00000021 	move	zero,zero
     230:	00000021 	move	zero,zero
     234:	00000021 	move	zero,zero
     238:	00000021 	move	zero,zero
     23c:	00000021 	move	zero,zero
     240:	00000021 	move	zero,zero
     244:	00000021 	move	zero,zero
     248:	3c084d86 	lui	t0,0x4d86
     24c:	3508020c 	ori	t0,t0,0x20c
     250:	3c09a71f 	lui	t1,0xa71f
     254:	35297d80 	ori	t1,t1,0x7d80
     258:	1509ffe7 	bne	t0,t1,1f8 <n30_bne_test+0x1f8>
     25c:	00000000 	nop
     260:	1000000c 	b	294 <n30_bne_test+0x294>
     264:	00000000 	nop
     268:	00000000 	nop
     26c:	00000021 	move	zero,zero
     270:	00000021 	move	zero,zero
     274:	00000021 	move	zero,zero
     278:	00000021 	move	zero,zero
     27c:	00000021 	move	zero,zero
     280:	00000021 	move	zero,zero
     284:	00000021 	move	zero,zero
     288:	00000021 	move	zero,zero
     28c:	3c12ddab 	lui	s2,0xddab
     290:	36522338 	ori	s2,s2,0x2338
     294:	00000000 	nop
     298:	3c149d7e 	lui	s4,0x9d7e
     29c:	36945298 	ori	s4,s4,0x5298
     2a0:	1614425c 	bne	s0,s4,10c14 <inst_error>
     2a4:	00000000 	nop
     2a8:	00000000 	nop
     2ac:	3c15ddab 	lui	s5,0xddab
     2b0:	36b52338 	ori	s5,s5,0x2338
     2b4:	16554257 	bne	s2,s5,10c14 <inst_error>
     2b8:	00000000 	nop
     2bc:	00000000 	nop
     2c0:	3c0c8a16 	lui	t4,0x8a16
     2c4:	358c2fc0 	ori	t4,t4,0x2fc0
     2c8:	3c0ddee6 	lui	t5,0xdee6
     2cc:	35adc348 	ori	t5,t5,0xc348
     2d0:	24100000 	li	s0,0
     2d4:	10000016 	b	330 <n30_bne_test+0x330>
     2d8:	24120000 	li	s2,0
     2dc:	00000000 	nop
     2e0:	3c108a16 	lui	s0,0x8a16
     2e4:	15280023 	bne	t1,t0,374 <n30_bne_test+0x374>
     2e8:	36102fc0 	ori	s0,s0,0x2fc0
     2ec:	10000023 	b	37c <n30_bne_test+0x37c>
     2f0:	00000000 	nop
     2f4:	00000000 	nop
     2f8:	00000021 	move	zero,zero
     2fc:	00000021 	move	zero,zero
     300:	00000021 	move	zero,zero
     304:	00000021 	move	zero,zero
     308:	00000021 	move	zero,zero
     30c:	00000021 	move	zero,zero
     310:	00000021 	move	zero,zero
     314:	00000021 	move	zero,zero
     318:	00000021 	move	zero,zero
     31c:	00000021 	move	zero,zero
     320:	00000021 	move	zero,zero
     324:	00000021 	move	zero,zero
     328:	00000021 	move	zero,zero
     32c:	00000021 	move	zero,zero
     330:	3c08d522 	lui	t0,0xd522
     334:	350805c8 	ori	t0,t0,0x5c8
     338:	3c0960eb 	lui	t1,0x60eb
     33c:	35292f03 	ori	t1,t1,0x2f03
     340:	1509ffe7 	bne	t0,t1,2e0 <n30_bne_test+0x2e0>
     344:	00000000 	nop
     348:	1000000c 	b	37c <n30_bne_test+0x37c>
     34c:	00000000 	nop
     350:	00000000 	nop
     354:	00000021 	move	zero,zero
     358:	00000021 	move	zero,zero
     35c:	00000021 	move	zero,zero
     360:	00000021 	move	zero,zero
     364:	00000021 	move	zero,zero
     368:	00000021 	move	zero,zero
     36c:	00000021 	move	zero,zero
     370:	00000021 	move	zero,zero
     374:	3c12dee6 	lui	s2,0xdee6
     378:	3652c348 	ori	s2,s2,0xc348
     37c:	00000000 	nop
     380:	3c148a16 	lui	s4,0x8a16
     384:	36942fc0 	ori	s4,s4,0x2fc0
     388:	16144222 	bne	s0,s4,10c14 <inst_error>
     38c:	00000000 	nop
     390:	00000000 	nop
     394:	3c15dee6 	lui	s5,0xdee6
     398:	36b5c348 	ori	s5,s5,0xc348
     39c:	1655421d 	bne	s2,s5,10c14 <inst_error>
     3a0:	00000000 	nop
     3a4:	00000000 	nop
     3a8:	3c0c6019 	lui	t4,0x6019
     3ac:	358c9ae4 	ori	t4,t4,0x9ae4
     3b0:	3c0d3307 	lui	t5,0x3307
     3b4:	35ad7154 	ori	t5,t5,0x7154
     3b8:	24100000 	li	s0,0
     3bc:	10000016 	b	418 <n30_bne_test+0x418>
     3c0:	24120000 	li	s2,0
     3c4:	00000000 	nop
     3c8:	3c106019 	lui	s0,0x6019
     3cc:	15280023 	bne	t1,t0,45c <n30_bne_test+0x45c>
     3d0:	36109ae4 	ori	s0,s0,0x9ae4
     3d4:	10000023 	b	464 <n30_bne_test+0x464>
     3d8:	00000000 	nop
     3dc:	00000000 	nop
     3e0:	00000021 	move	zero,zero
     3e4:	00000021 	move	zero,zero
     3e8:	00000021 	move	zero,zero
     3ec:	00000021 	move	zero,zero
     3f0:	00000021 	move	zero,zero
     3f4:	00000021 	move	zero,zero
     3f8:	00000021 	move	zero,zero
     3fc:	00000021 	move	zero,zero
     400:	00000021 	move	zero,zero
     404:	00000021 	move	zero,zero
     408:	00000021 	move	zero,zero
     40c:	00000021 	move	zero,zero
     410:	00000021 	move	zero,zero
     414:	00000021 	move	zero,zero
     418:	3c08e95a 	lui	t0,0xe95a
     41c:	350809a5 	ori	t0,t0,0x9a5
     420:	3c0917b9 	lui	t1,0x17b9
     424:	3529e080 	ori	t1,t1,0xe080
     428:	1509ffe7 	bne	t0,t1,3c8 <n30_bne_test+0x3c8>
     42c:	00000000 	nop
     430:	1000000c 	b	464 <n30_bne_test+0x464>
     434:	00000000 	nop
     438:	00000000 	nop
     43c:	00000021 	move	zero,zero
     440:	00000021 	move	zero,zero
     444:	00000021 	move	zero,zero
     448:	00000021 	move	zero,zero
     44c:	00000021 	move	zero,zero
     450:	00000021 	move	zero,zero
     454:	00000021 	move	zero,zero
     458:	00000021 	move	zero,zero
     45c:	3c123307 	lui	s2,0x3307
     460:	36527154 	ori	s2,s2,0x7154
     464:	00000000 	nop
     468:	3c146019 	lui	s4,0x6019
     46c:	36949ae4 	ori	s4,s4,0x9ae4
     470:	161441e8 	bne	s0,s4,10c14 <inst_error>
     474:	00000000 	nop
     478:	00000000 	nop
     47c:	3c153307 	lui	s5,0x3307
     480:	36b57154 	ori	s5,s5,0x7154
     484:	165541e3 	bne	s2,s5,10c14 <inst_error>
     488:	00000000 	nop
     48c:	00000000 	nop
     490:	3c0c0840 	lui	t4,0x840
     494:	358c80f8 	ori	t4,t4,0x80f8
     498:	3c0d644d 	lui	t5,0x644d
     49c:	35ad3e28 	ori	t5,t5,0x3e28
     4a0:	24100000 	li	s0,0
     4a4:	10000016 	b	500 <n30_bne_test+0x500>
     4a8:	24120000 	li	s2,0
     4ac:	00000000 	nop
     4b0:	3c100840 	lui	s0,0x840
     4b4:	15280023 	bne	t1,t0,544 <n30_bne_test+0x544>
     4b8:	361080f8 	ori	s0,s0,0x80f8
     4bc:	10000023 	b	54c <n30_bne_test+0x54c>
     4c0:	00000000 	nop
     4c4:	00000000 	nop
     4c8:	00000021 	move	zero,zero
     4cc:	00000021 	move	zero,zero
     4d0:	00000021 	move	zero,zero
     4d4:	00000021 	move	zero,zero
     4d8:	00000021 	move	zero,zero
     4dc:	00000021 	move	zero,zero
     4e0:	00000021 	move	zero,zero
     4e4:	00000021 	move	zero,zero
     4e8:	00000021 	move	zero,zero
     4ec:	00000021 	move	zero,zero
     4f0:	00000021 	move	zero,zero
     4f4:	00000021 	move	zero,zero
     4f8:	00000021 	move	zero,zero
     4fc:	00000021 	move	zero,zero
     500:	3c08d0d5 	lui	t0,0xd0d5
     504:	35086812 	ori	t0,t0,0x6812
     508:	3c098f52 	lui	t1,0x8f52
     50c:	35297ce0 	ori	t1,t1,0x7ce0
     510:	1509ffe7 	bne	t0,t1,4b0 <n30_bne_test+0x4b0>
     514:	00000000 	nop
     518:	1000000c 	b	54c <n30_bne_test+0x54c>
     51c:	00000000 	nop
     520:	00000000 	nop
     524:	00000021 	move	zero,zero
     528:	00000021 	move	zero,zero
     52c:	00000021 	move	zero,zero
     530:	00000021 	move	zero,zero
     534:	00000021 	move	zero,zero
     538:	00000021 	move	zero,zero
     53c:	00000021 	move	zero,zero
     540:	00000021 	move	zero,zero
     544:	3c12644d 	lui	s2,0x644d
     548:	36523e28 	ori	s2,s2,0x3e28
     54c:	00000000 	nop
     550:	3c140840 	lui	s4,0x840
     554:	369480f8 	ori	s4,s4,0x80f8
     558:	161441ae 	bne	s0,s4,10c14 <inst_error>
     55c:	00000000 	nop
     560:	00000000 	nop
     564:	3c15644d 	lui	s5,0x644d
     568:	36b53e28 	ori	s5,s5,0x3e28
     56c:	165541a9 	bne	s2,s5,10c14 <inst_error>
     570:	00000000 	nop
     574:	00000000 	nop
     578:	3c0cffc9 	lui	t4,0xffc9
     57c:	358c3be4 	ori	t4,t4,0x3be4
     580:	3c0ddb7c 	lui	t5,0xdb7c
     584:	35ad6be4 	ori	t5,t5,0x6be4
     588:	24100000 	li	s0,0
     58c:	10000016 	b	5e8 <n30_bne_test+0x5e8>
     590:	24120000 	li	s2,0
     594:	00000000 	nop
     598:	3c10ffc9 	lui	s0,0xffc9
     59c:	15280023 	bne	t1,t0,62c <n30_bne_test+0x62c>
     5a0:	36103be4 	ori	s0,s0,0x3be4
     5a4:	10000023 	b	634 <n30_bne_test+0x634>
     5a8:	00000000 	nop
     5ac:	00000000 	nop
     5b0:	00000021 	move	zero,zero
     5b4:	00000021 	move	zero,zero
     5b8:	00000021 	move	zero,zero
     5bc:	00000021 	move	zero,zero
     5c0:	00000021 	move	zero,zero
     5c4:	00000021 	move	zero,zero
     5c8:	00000021 	move	zero,zero
     5cc:	00000021 	move	zero,zero
     5d0:	00000021 	move	zero,zero
     5d4:	00000021 	move	zero,zero
     5d8:	00000021 	move	zero,zero
     5dc:	00000021 	move	zero,zero
     5e0:	00000021 	move	zero,zero
     5e4:	00000021 	move	zero,zero
     5e8:	3c083ab2 	lui	t0,0x3ab2
     5ec:	35082930 	ori	t0,t0,0x2930
     5f0:	3c09a008 	lui	t1,0xa008
     5f4:	35291900 	ori	t1,t1,0x1900
     5f8:	1509ffe7 	bne	t0,t1,598 <n30_bne_test+0x598>
     5fc:	00000000 	nop
     600:	1000000c 	b	634 <n30_bne_test+0x634>
     604:	00000000 	nop
     608:	00000000 	nop
     60c:	00000021 	move	zero,zero
     610:	00000021 	move	zero,zero
     614:	00000021 	move	zero,zero
     618:	00000021 	move	zero,zero
     61c:	00000021 	move	zero,zero
     620:	00000021 	move	zero,zero
     624:	00000021 	move	zero,zero
     628:	00000021 	move	zero,zero
     62c:	3c12db7c 	lui	s2,0xdb7c
     630:	36526be4 	ori	s2,s2,0x6be4
     634:	00000000 	nop
     638:	3c14ffc9 	lui	s4,0xffc9
     63c:	36943be4 	ori	s4,s4,0x3be4
     640:	16144174 	bne	s0,s4,10c14 <inst_error>
     644:	00000000 	nop
     648:	00000000 	nop
     64c:	3c15db7c 	lui	s5,0xdb7c
     650:	36b56be4 	ori	s5,s5,0x6be4
     654:	1655416f 	bne	s2,s5,10c14 <inst_error>
     658:	00000000 	nop
     65c:	00000000 	nop
     660:	3c0c5343 	lui	t4,0x5343
     664:	358c0740 	ori	t4,t4,0x740
     668:	3c0d3d72 	lui	t5,0x3d72
     66c:	35ad4733 	ori	t5,t5,0x4733
     670:	24100000 	li	s0,0
     674:	10000016 	b	6d0 <n30_bne_test+0x6d0>
     678:	24120000 	li	s2,0
     67c:	00000000 	nop
     680:	3c105343 	lui	s0,0x5343
     684:	15280023 	bne	t1,t0,714 <n30_bne_test+0x714>
     688:	36100740 	ori	s0,s0,0x740
     68c:	10000023 	b	71c <n30_bne_test+0x71c>
     690:	00000000 	nop
     694:	00000000 	nop
     698:	00000021 	move	zero,zero
     69c:	00000021 	move	zero,zero
     6a0:	00000021 	move	zero,zero
     6a4:	00000021 	move	zero,zero
     6a8:	00000021 	move	zero,zero
     6ac:	00000021 	move	zero,zero
     6b0:	00000021 	move	zero,zero
     6b4:	00000021 	move	zero,zero
     6b8:	00000021 	move	zero,zero
     6bc:	00000021 	move	zero,zero
     6c0:	00000021 	move	zero,zero
     6c4:	00000021 	move	zero,zero
     6c8:	00000021 	move	zero,zero
     6cc:	00000021 	move	zero,zero
     6d0:	3c08289a 	lui	t0,0x289a
     6d4:	35084638 	ori	t0,t0,0x4638
     6d8:	3c09301b 	lui	t1,0x301b
     6dc:	3529f423 	ori	t1,t1,0xf423
     6e0:	1509ffe7 	bne	t0,t1,680 <n30_bne_test+0x680>
     6e4:	00000000 	nop
     6e8:	1000000c 	b	71c <n30_bne_test+0x71c>
     6ec:	00000000 	nop
     6f0:	00000000 	nop
     6f4:	00000021 	move	zero,zero
     6f8:	00000021 	move	zero,zero
     6fc:	00000021 	move	zero,zero
     700:	00000021 	move	zero,zero
     704:	00000021 	move	zero,zero
     708:	00000021 	move	zero,zero
     70c:	00000021 	move	zero,zero
     710:	00000021 	move	zero,zero
     714:	3c123d72 	lui	s2,0x3d72
     718:	36524733 	ori	s2,s2,0x4733
     71c:	00000000 	nop
     720:	3c145343 	lui	s4,0x5343
     724:	36940740 	ori	s4,s4,0x740
     728:	1614413a 	bne	s0,s4,10c14 <inst_error>
     72c:	00000000 	nop
     730:	00000000 	nop
     734:	3c153d72 	lui	s5,0x3d72
     738:	36b54733 	ori	s5,s5,0x4733
     73c:	16554135 	bne	s2,s5,10c14 <inst_error>
     740:	00000000 	nop
     744:	00000000 	nop
     748:	3c0cc877 	lui	t4,0xc877
     74c:	358c56db 	ori	t4,t4,0x56db
     750:	3c0d704f 	lui	t5,0x704f
     754:	35adc138 	ori	t5,t5,0xc138
     758:	24100000 	li	s0,0
     75c:	10000016 	b	7b8 <n30_bne_test+0x7b8>
     760:	24120000 	li	s2,0
     764:	00000000 	nop
     768:	3c10c877 	lui	s0,0xc877
     76c:	15280023 	bne	t1,t0,7fc <n30_bne_test+0x7fc>
     770:	361056db 	ori	s0,s0,0x56db
     774:	10000023 	b	804 <n30_bne_test+0x804>
     778:	00000000 	nop
     77c:	00000000 	nop
     780:	00000021 	move	zero,zero
     784:	00000021 	move	zero,zero
     788:	00000021 	move	zero,zero
     78c:	00000021 	move	zero,zero
     790:	00000021 	move	zero,zero
     794:	00000021 	move	zero,zero
     798:	00000021 	move	zero,zero
     79c:	00000021 	move	zero,zero
     7a0:	00000021 	move	zero,zero
     7a4:	00000021 	move	zero,zero
     7a8:	00000021 	move	zero,zero
     7ac:	00000021 	move	zero,zero
     7b0:	00000021 	move	zero,zero
     7b4:	00000021 	move	zero,zero
     7b8:	3c08b7c9 	lui	t0,0xb7c9
     7bc:	35087f09 	ori	t0,t0,0x7f09
     7c0:	3c09ca21 	lui	t1,0xca21
     7c4:	35290b70 	ori	t1,t1,0xb70
     7c8:	1509ffe7 	bne	t0,t1,768 <n30_bne_test+0x768>
     7cc:	00000000 	nop
     7d0:	1000000c 	b	804 <n30_bne_test+0x804>
     7d4:	00000000 	nop
     7d8:	00000000 	nop
     7dc:	00000021 	move	zero,zero
     7e0:	00000021 	move	zero,zero
     7e4:	00000021 	move	zero,zero
     7e8:	00000021 	move	zero,zero
     7ec:	00000021 	move	zero,zero
     7f0:	00000021 	move	zero,zero
     7f4:	00000021 	move	zero,zero
     7f8:	00000021 	move	zero,zero
     7fc:	3c12704f 	lui	s2,0x704f
     800:	3652c138 	ori	s2,s2,0xc138
     804:	00000000 	nop
     808:	3c14c877 	lui	s4,0xc877
     80c:	369456db 	ori	s4,s4,0x56db
     810:	16144100 	bne	s0,s4,10c14 <inst_error>
     814:	00000000 	nop
     818:	00000000 	nop
     81c:	3c15704f 	lui	s5,0x704f
     820:	36b5c138 	ori	s5,s5,0xc138
     824:	165540fb 	bne	s2,s5,10c14 <inst_error>
     828:	00000000 	nop
     82c:	00000000 	nop
     830:	3c0c3f55 	lui	t4,0x3f55
     834:	358cd370 	ori	t4,t4,0xd370
     838:	3c0ddf6a 	lui	t5,0xdf6a
     83c:	35adb418 	ori	t5,t5,0xb418
     840:	24100000 	li	s0,0
     844:	10000016 	b	8a0 <n30_bne_test+0x8a0>
     848:	24120000 	li	s2,0
     84c:	00000000 	nop
     850:	3c103f55 	lui	s0,0x3f55
     854:	15280023 	bne	t1,t0,8e4 <n30_bne_test+0x8e4>
     858:	3610d370 	ori	s0,s0,0xd370
     85c:	10000023 	b	8ec <n30_bne_test+0x8ec>
     860:	00000000 	nop
     864:	00000000 	nop
     868:	00000021 	move	zero,zero
     86c:	00000021 	move	zero,zero
     870:	00000021 	move	zero,zero
     874:	00000021 	move	zero,zero
     878:	00000021 	move	zero,zero
     87c:	00000021 	move	zero,zero
     880:	00000021 	move	zero,zero
     884:	00000021 	move	zero,zero
     888:	00000021 	move	zero,zero
     88c:	00000021 	move	zero,zero
     890:	00000021 	move	zero,zero
     894:	00000021 	move	zero,zero
     898:	00000021 	move	zero,zero
     89c:	00000021 	move	zero,zero
     8a0:	3c085346 	lui	t0,0x5346
     8a4:	3508185f 	ori	t0,t0,0x185f
     8a8:	3c09dd68 	lui	t1,0xdd68
     8ac:	3529806c 	ori	t1,t1,0x806c
     8b0:	1509ffe7 	bne	t0,t1,850 <n30_bne_test+0x850>
     8b4:	00000000 	nop
     8b8:	1000000c 	b	8ec <n30_bne_test+0x8ec>
     8bc:	00000000 	nop
     8c0:	00000000 	nop
     8c4:	00000021 	move	zero,zero
     8c8:	00000021 	move	zero,zero
     8cc:	00000021 	move	zero,zero
     8d0:	00000021 	move	zero,zero
     8d4:	00000021 	move	zero,zero
     8d8:	00000021 	move	zero,zero
     8dc:	00000021 	move	zero,zero
     8e0:	00000021 	move	zero,zero
     8e4:	3c12df6a 	lui	s2,0xdf6a
     8e8:	3652b418 	ori	s2,s2,0xb418
     8ec:	00000000 	nop
     8f0:	3c143f55 	lui	s4,0x3f55
     8f4:	3694d370 	ori	s4,s4,0xd370
     8f8:	161440c6 	bne	s0,s4,10c14 <inst_error>
     8fc:	00000000 	nop
     900:	00000000 	nop
     904:	3c15df6a 	lui	s5,0xdf6a
     908:	36b5b418 	ori	s5,s5,0xb418
     90c:	165540c1 	bne	s2,s5,10c14 <inst_error>
     910:	00000000 	nop
     914:	00000000 	nop
     918:	3c0c6a68 	lui	t4,0x6a68
     91c:	358cf514 	ori	t4,t4,0xf514
     920:	3c0df7ea 	lui	t5,0xf7ea
     924:	35add2e0 	ori	t5,t5,0xd2e0
     928:	24100000 	li	s0,0
     92c:	10000016 	b	988 <n30_bne_test+0x988>
     930:	24120000 	li	s2,0
     934:	00000000 	nop
     938:	3c106a68 	lui	s0,0x6a68
     93c:	15280023 	bne	t1,t0,9cc <n30_bne_test+0x9cc>
     940:	3610f514 	ori	s0,s0,0xf514
     944:	10000023 	b	9d4 <n30_bne_test+0x9d4>
     948:	00000000 	nop
     94c:	00000000 	nop
     950:	00000021 	move	zero,zero
     954:	00000021 	move	zero,zero
     958:	00000021 	move	zero,zero
     95c:	00000021 	move	zero,zero
     960:	00000021 	move	zero,zero
     964:	00000021 	move	zero,zero
     968:	00000021 	move	zero,zero
     96c:	00000021 	move	zero,zero
     970:	00000021 	move	zero,zero
     974:	00000021 	move	zero,zero
     978:	00000021 	move	zero,zero
     97c:	00000021 	move	zero,zero
     980:	00000021 	move	zero,zero
     984:	00000021 	move	zero,zero
     988:	3c08f573 	lui	t0,0xf573
     98c:	3508a38b 	ori	t0,t0,0xa38b
     990:	3c093975 	lui	t1,0x3975
     994:	35295f2c 	ori	t1,t1,0x5f2c
     998:	1509ffe7 	bne	t0,t1,938 <n30_bne_test+0x938>
     99c:	00000000 	nop
     9a0:	1000000c 	b	9d4 <n30_bne_test+0x9d4>
     9a4:	00000000 	nop
     9a8:	00000000 	nop
     9ac:	00000021 	move	zero,zero
     9b0:	00000021 	move	zero,zero
     9b4:	00000021 	move	zero,zero
     9b8:	00000021 	move	zero,zero
     9bc:	00000021 	move	zero,zero
     9c0:	00000021 	move	zero,zero
     9c4:	00000021 	move	zero,zero
     9c8:	00000021 	move	zero,zero
     9cc:	3c12f7ea 	lui	s2,0xf7ea
     9d0:	3652d2e0 	ori	s2,s2,0xd2e0
     9d4:	00000000 	nop
     9d8:	3c146a68 	lui	s4,0x6a68
     9dc:	3694f514 	ori	s4,s4,0xf514
     9e0:	1614408c 	bne	s0,s4,10c14 <inst_error>
     9e4:	00000000 	nop
     9e8:	00000000 	nop
     9ec:	3c15f7ea 	lui	s5,0xf7ea
     9f0:	36b5d2e0 	ori	s5,s5,0xd2e0
     9f4:	16554087 	bne	s2,s5,10c14 <inst_error>
     9f8:	00000000 	nop
     9fc:	00000000 	nop
     a00:	3c0c3dd4 	lui	t4,0x3dd4
     a04:	358c7244 	ori	t4,t4,0x7244
     a08:	3c0d54fb 	lui	t5,0x54fb
     a0c:	35adacca 	ori	t5,t5,0xacca
     a10:	24100000 	li	s0,0
     a14:	10000016 	b	a70 <n30_bne_test+0xa70>
     a18:	24120000 	li	s2,0
     a1c:	00000000 	nop
     a20:	3c103dd4 	lui	s0,0x3dd4
     a24:	15280023 	bne	t1,t0,ab4 <n30_bne_test+0xab4>
     a28:	36107244 	ori	s0,s0,0x7244
     a2c:	10000023 	b	abc <n30_bne_test+0xabc>
     a30:	00000000 	nop
     a34:	00000000 	nop
     a38:	00000021 	move	zero,zero
     a3c:	00000021 	move	zero,zero
     a40:	00000021 	move	zero,zero
     a44:	00000021 	move	zero,zero
     a48:	00000021 	move	zero,zero
     a4c:	00000021 	move	zero,zero
     a50:	00000021 	move	zero,zero
     a54:	00000021 	move	zero,zero
     a58:	00000021 	move	zero,zero
     a5c:	00000021 	move	zero,zero
     a60:	00000021 	move	zero,zero
     a64:	00000021 	move	zero,zero
     a68:	00000021 	move	zero,zero
     a6c:	00000021 	move	zero,zero
     a70:	3c084ae9 	lui	t0,0x4ae9
     a74:	3508d503 	ori	t0,t0,0xd503
     a78:	3c09961d 	lui	t1,0x961d
     a7c:	3529f024 	ori	t1,t1,0xf024
     a80:	1509ffe7 	bne	t0,t1,a20 <n30_bne_test+0xa20>
     a84:	00000000 	nop
     a88:	1000000c 	b	abc <n30_bne_test+0xabc>
     a8c:	00000000 	nop
     a90:	00000000 	nop
     a94:	00000021 	move	zero,zero
     a98:	00000021 	move	zero,zero
     a9c:	00000021 	move	zero,zero
     aa0:	00000021 	move	zero,zero
     aa4:	00000021 	move	zero,zero
     aa8:	00000021 	move	zero,zero
     aac:	00000021 	move	zero,zero
     ab0:	00000021 	move	zero,zero
     ab4:	3c1254fb 	lui	s2,0x54fb
     ab8:	3652acca 	ori	s2,s2,0xacca
     abc:	00000000 	nop
     ac0:	3c143dd4 	lui	s4,0x3dd4
     ac4:	36947244 	ori	s4,s4,0x7244
     ac8:	16144052 	bne	s0,s4,10c14 <inst_error>
     acc:	00000000 	nop
     ad0:	00000000 	nop
     ad4:	3c1554fb 	lui	s5,0x54fb
     ad8:	36b5acca 	ori	s5,s5,0xacca
     adc:	1655404d 	bne	s2,s5,10c14 <inst_error>
     ae0:	00000000 	nop
     ae4:	00000000 	nop
     ae8:	3c0cd110 	lui	t4,0xd110
     aec:	358cbcc0 	ori	t4,t4,0xbcc0
     af0:	3c0d940d 	lui	t5,0x940d
     af4:	35adba48 	ori	t5,t5,0xba48
     af8:	24100000 	li	s0,0
     afc:	10000016 	b	b58 <n30_bne_test+0xb58>
     b00:	24120000 	li	s2,0
     b04:	00000000 	nop
     b08:	3c10d110 	lui	s0,0xd110
     b0c:	15280023 	bne	t1,t0,b9c <n30_bne_test+0xb9c>
     b10:	3610bcc0 	ori	s0,s0,0xbcc0
     b14:	10000023 	b	ba4 <n30_bne_test+0xba4>
     b18:	00000000 	nop
     b1c:	00000000 	nop
     b20:	00000021 	move	zero,zero
     b24:	00000021 	move	zero,zero
     b28:	00000021 	move	zero,zero
     b2c:	00000021 	move	zero,zero
     b30:	00000021 	move	zero,zero
     b34:	00000021 	move	zero,zero
     b38:	00000021 	move	zero,zero
     b3c:	00000021 	move	zero,zero
     b40:	00000021 	move	zero,zero
     b44:	00000021 	move	zero,zero
     b48:	00000021 	move	zero,zero
     b4c:	00000021 	move	zero,zero
     b50:	00000021 	move	zero,zero
     b54:	00000021 	move	zero,zero
     b58:	3c08376e 	lui	t0,0x376e
     b5c:	3508d178 	ori	t0,t0,0xd178
     b60:	3c09388f 	lui	t1,0x388f
     b64:	35296900 	ori	t1,t1,0x6900
     b68:	1509ffe7 	bne	t0,t1,b08 <n30_bne_test+0xb08>
     b6c:	00000000 	nop
     b70:	1000000c 	b	ba4 <n30_bne_test+0xba4>
     b74:	00000000 	nop
     b78:	00000000 	nop
     b7c:	00000021 	move	zero,zero
     b80:	00000021 	move	zero,zero
     b84:	00000021 	move	zero,zero
     b88:	00000021 	move	zero,zero
     b8c:	00000021 	move	zero,zero
     b90:	00000021 	move	zero,zero
     b94:	00000021 	move	zero,zero
     b98:	00000021 	move	zero,zero
     b9c:	3c12940d 	lui	s2,0x940d
     ba0:	3652ba48 	ori	s2,s2,0xba48
     ba4:	00000000 	nop
     ba8:	3c14d110 	lui	s4,0xd110
     bac:	3694bcc0 	ori	s4,s4,0xbcc0
     bb0:	16144018 	bne	s0,s4,10c14 <inst_error>
     bb4:	00000000 	nop
     bb8:	00000000 	nop
     bbc:	3c15940d 	lui	s5,0x940d
     bc0:	36b5ba48 	ori	s5,s5,0xba48
     bc4:	16554013 	bne	s2,s5,10c14 <inst_error>
     bc8:	00000000 	nop
     bcc:	00000000 	nop
     bd0:	3c0c34d6 	lui	t4,0x34d6
     bd4:	358cc010 	ori	t4,t4,0xc010
     bd8:	3c0dbbf8 	lui	t5,0xbbf8
     bdc:	35ad5d40 	ori	t5,t5,0x5d40
     be0:	24100000 	li	s0,0
     be4:	10000016 	b	c40 <n30_bne_test+0xc40>
     be8:	24120000 	li	s2,0
     bec:	00000000 	nop
     bf0:	3c1034d6 	lui	s0,0x34d6
     bf4:	15280023 	bne	t1,t0,c84 <n30_bne_test+0xc84>
     bf8:	3610c010 	ori	s0,s0,0xc010
     bfc:	10000023 	b	c8c <n30_bne_test+0xc8c>
     c00:	00000000 	nop
     c04:	00000000 	nop
     c08:	00000021 	move	zero,zero
     c0c:	00000021 	move	zero,zero
     c10:	00000021 	move	zero,zero
     c14:	00000021 	move	zero,zero
     c18:	00000021 	move	zero,zero
     c1c:	00000021 	move	zero,zero
     c20:	00000021 	move	zero,zero
     c24:	00000021 	move	zero,zero
     c28:	00000021 	move	zero,zero
     c2c:	00000021 	move	zero,zero
     c30:	00000021 	move	zero,zero
     c34:	00000021 	move	zero,zero
     c38:	00000021 	move	zero,zero
     c3c:	00000021 	move	zero,zero
     c40:	3c087268 	lui	t0,0x7268
     c44:	3508b0d9 	ori	t0,t0,0xb0d9
     c48:	3c094a47 	lui	t1,0x4a47
     c4c:	35295d13 	ori	t1,t1,0x5d13
     c50:	1509ffe7 	bne	t0,t1,bf0 <n30_bne_test+0xbf0>
     c54:	00000000 	nop
     c58:	1000000c 	b	c8c <n30_bne_test+0xc8c>
     c5c:	00000000 	nop
     c60:	00000000 	nop
     c64:	00000021 	move	zero,zero
     c68:	00000021 	move	zero,zero
     c6c:	00000021 	move	zero,zero
     c70:	00000021 	move	zero,zero
     c74:	00000021 	move	zero,zero
     c78:	00000021 	move	zero,zero
     c7c:	00000021 	move	zero,zero
     c80:	00000021 	move	zero,zero
     c84:	3c12bbf8 	lui	s2,0xbbf8
     c88:	36525d40 	ori	s2,s2,0x5d40
     c8c:	00000000 	nop
     c90:	3c1434d6 	lui	s4,0x34d6
     c94:	3694c010 	ori	s4,s4,0xc010
     c98:	16143fde 	bne	s0,s4,10c14 <inst_error>
     c9c:	00000000 	nop
     ca0:	00000000 	nop
     ca4:	3c15bbf8 	lui	s5,0xbbf8
     ca8:	36b55d40 	ori	s5,s5,0x5d40
     cac:	16553fd9 	bne	s2,s5,10c14 <inst_error>
     cb0:	00000000 	nop
     cb4:	00000000 	nop
     cb8:	3c0cfe64 	lui	t4,0xfe64
     cbc:	358c48d6 	ori	t4,t4,0x48d6
     cc0:	3c0d2c95 	lui	t5,0x2c95
     cc4:	35ad0005 	ori	t5,t5,0x5
     cc8:	24100000 	li	s0,0
     ccc:	10000016 	b	d28 <n30_bne_test+0xd28>
     cd0:	24120000 	li	s2,0
     cd4:	00000000 	nop
     cd8:	3c10fe64 	lui	s0,0xfe64
     cdc:	15280023 	bne	t1,t0,d6c <n30_bne_test+0xd6c>
     ce0:	361048d6 	ori	s0,s0,0x48d6
     ce4:	10000023 	b	d74 <n30_bne_test+0xd74>
     ce8:	00000000 	nop
     cec:	00000000 	nop
     cf0:	00000021 	move	zero,zero
     cf4:	00000021 	move	zero,zero
     cf8:	00000021 	move	zero,zero
     cfc:	00000021 	move	zero,zero
     d00:	00000021 	move	zero,zero
     d04:	00000021 	move	zero,zero
     d08:	00000021 	move	zero,zero
     d0c:	00000021 	move	zero,zero
     d10:	00000021 	move	zero,zero
     d14:	00000021 	move	zero,zero
     d18:	00000021 	move	zero,zero
     d1c:	00000021 	move	zero,zero
     d20:	00000021 	move	zero,zero
     d24:	00000021 	move	zero,zero
     d28:	3c0802f7 	lui	t0,0x2f7
     d2c:	3508e8c2 	ori	t0,t0,0xe8c2
     d30:	3c09fa0a 	lui	t1,0xfa0a
     d34:	35295c8a 	ori	t1,t1,0x5c8a
     d38:	1509ffe7 	bne	t0,t1,cd8 <n30_bne_test+0xcd8>
     d3c:	00000000 	nop
     d40:	1000000c 	b	d74 <n30_bne_test+0xd74>
     d44:	00000000 	nop
     d48:	00000000 	nop
     d4c:	00000021 	move	zero,zero
     d50:	00000021 	move	zero,zero
     d54:	00000021 	move	zero,zero
     d58:	00000021 	move	zero,zero
     d5c:	00000021 	move	zero,zero
     d60:	00000021 	move	zero,zero
     d64:	00000021 	move	zero,zero
     d68:	00000021 	move	zero,zero
     d6c:	3c122c95 	lui	s2,0x2c95
     d70:	36520005 	ori	s2,s2,0x5
     d74:	00000000 	nop
     d78:	3c14fe64 	lui	s4,0xfe64
     d7c:	369448d6 	ori	s4,s4,0x48d6
     d80:	16143fa4 	bne	s0,s4,10c14 <inst_error>
     d84:	00000000 	nop
     d88:	00000000 	nop
     d8c:	3c152c95 	lui	s5,0x2c95
     d90:	36b50005 	ori	s5,s5,0x5
     d94:	16553f9f 	bne	s2,s5,10c14 <inst_error>
     d98:	00000000 	nop
     d9c:	00000000 	nop
     da0:	3c0c7ced 	lui	t4,0x7ced
     da4:	358c1018 	ori	t4,t4,0x1018
     da8:	3c0d50b6 	lui	t5,0x50b6
     dac:	35ada855 	ori	t5,t5,0xa855
     db0:	24100000 	li	s0,0
     db4:	10000016 	b	e10 <n30_bne_test+0xe10>
     db8:	24120000 	li	s2,0
     dbc:	00000000 	nop
     dc0:	3c107ced 	lui	s0,0x7ced
     dc4:	15280023 	bne	t1,t0,e54 <n30_bne_test+0xe54>
     dc8:	36101018 	ori	s0,s0,0x1018
     dcc:	10000023 	b	e5c <n30_bne_test+0xe5c>
     dd0:	00000000 	nop
     dd4:	00000000 	nop
     dd8:	00000021 	move	zero,zero
     ddc:	00000021 	move	zero,zero
     de0:	00000021 	move	zero,zero
     de4:	00000021 	move	zero,zero
     de8:	00000021 	move	zero,zero
     dec:	00000021 	move	zero,zero
     df0:	00000021 	move	zero,zero
     df4:	00000021 	move	zero,zero
     df8:	00000021 	move	zero,zero
     dfc:	00000021 	move	zero,zero
     e00:	00000021 	move	zero,zero
     e04:	00000021 	move	zero,zero
     e08:	00000021 	move	zero,zero
     e0c:	00000021 	move	zero,zero
     e10:	3c08a272 	lui	t0,0xa272
     e14:	35089d72 	ori	t0,t0,0x9d72
     e18:	3c09ae9f 	lui	t1,0xae9f
     e1c:	35290cbc 	ori	t1,t1,0xcbc
     e20:	1509ffe7 	bne	t0,t1,dc0 <n30_bne_test+0xdc0>
     e24:	00000000 	nop
     e28:	1000000c 	b	e5c <n30_bne_test+0xe5c>
     e2c:	00000000 	nop
     e30:	00000000 	nop
     e34:	00000021 	move	zero,zero
     e38:	00000021 	move	zero,zero
     e3c:	00000021 	move	zero,zero
     e40:	00000021 	move	zero,zero
     e44:	00000021 	move	zero,zero
     e48:	00000021 	move	zero,zero
     e4c:	00000021 	move	zero,zero
     e50:	00000021 	move	zero,zero
     e54:	3c1250b6 	lui	s2,0x50b6
     e58:	3652a855 	ori	s2,s2,0xa855
     e5c:	00000000 	nop
     e60:	3c147ced 	lui	s4,0x7ced
     e64:	36941018 	ori	s4,s4,0x1018
     e68:	16143f6a 	bne	s0,s4,10c14 <inst_error>
     e6c:	00000000 	nop
     e70:	00000000 	nop
     e74:	3c1550b6 	lui	s5,0x50b6
     e78:	36b5a855 	ori	s5,s5,0xa855
     e7c:	16553f65 	bne	s2,s5,10c14 <inst_error>
     e80:	00000000 	nop
     e84:	00000000 	nop
     e88:	3c0cf323 	lui	t4,0xf323
     e8c:	358c5580 	ori	t4,t4,0x5580
     e90:	3c0d4899 	lui	t5,0x4899
     e94:	35adc954 	ori	t5,t5,0xc954
     e98:	24100000 	li	s0,0
     e9c:	10000016 	b	ef8 <n30_bne_test+0xef8>
     ea0:	24120000 	li	s2,0
     ea4:	00000000 	nop
     ea8:	3c10f323 	lui	s0,0xf323
     eac:	15280023 	bne	t1,t0,f3c <n30_bne_test+0xf3c>
     eb0:	36105580 	ori	s0,s0,0x5580
     eb4:	10000023 	b	f44 <n30_bne_test+0xf44>
     eb8:	00000000 	nop
     ebc:	00000000 	nop
     ec0:	00000021 	move	zero,zero
     ec4:	00000021 	move	zero,zero
     ec8:	00000021 	move	zero,zero
     ecc:	00000021 	move	zero,zero
     ed0:	00000021 	move	zero,zero
     ed4:	00000021 	move	zero,zero
     ed8:	00000021 	move	zero,zero
     edc:	00000021 	move	zero,zero
     ee0:	00000021 	move	zero,zero
     ee4:	00000021 	move	zero,zero
     ee8:	00000021 	move	zero,zero
     eec:	00000021 	move	zero,zero
     ef0:	00000021 	move	zero,zero
     ef4:	00000021 	move	zero,zero
     ef8:	3c085181 	lui	t0,0x5181
     efc:	35086f11 	ori	t0,t0,0x6f11
     f00:	3c0938ac 	lui	t1,0x38ac
     f04:	352965bd 	ori	t1,t1,0x65bd
     f08:	1509ffe7 	bne	t0,t1,ea8 <n30_bne_test+0xea8>
     f0c:	00000000 	nop
     f10:	1000000c 	b	f44 <n30_bne_test+0xf44>
     f14:	00000000 	nop
     f18:	00000000 	nop
     f1c:	00000021 	move	zero,zero
     f20:	00000021 	move	zero,zero
     f24:	00000021 	move	zero,zero
     f28:	00000021 	move	zero,zero
     f2c:	00000021 	move	zero,zero
     f30:	00000021 	move	zero,zero
     f34:	00000021 	move	zero,zero
     f38:	00000021 	move	zero,zero
     f3c:	3c124899 	lui	s2,0x4899
     f40:	3652c954 	ori	s2,s2,0xc954
     f44:	00000000 	nop
     f48:	3c14f323 	lui	s4,0xf323
     f4c:	36945580 	ori	s4,s4,0x5580
     f50:	16143f30 	bne	s0,s4,10c14 <inst_error>
     f54:	00000000 	nop
     f58:	00000000 	nop
     f5c:	3c154899 	lui	s5,0x4899
     f60:	36b5c954 	ori	s5,s5,0xc954
     f64:	16553f2b 	bne	s2,s5,10c14 <inst_error>
     f68:	00000000 	nop
     f6c:	00000000 	nop
     f70:	3c0cfe75 	lui	t4,0xfe75
     f74:	358c5684 	ori	t4,t4,0x5684
     f78:	3c0d8a80 	lui	t5,0x8a80
     f7c:	35adeb35 	ori	t5,t5,0xeb35
     f80:	24100000 	li	s0,0
     f84:	10000016 	b	fe0 <n30_bne_test+0xfe0>
     f88:	24120000 	li	s2,0
     f8c:	00000000 	nop
     f90:	3c10fe75 	lui	s0,0xfe75
     f94:	15280023 	bne	t1,t0,1024 <n30_bne_test+0x1024>
     f98:	36105684 	ori	s0,s0,0x5684
     f9c:	10000023 	b	102c <n30_bne_test+0x102c>
     fa0:	00000000 	nop
     fa4:	00000000 	nop
     fa8:	00000021 	move	zero,zero
     fac:	00000021 	move	zero,zero
     fb0:	00000021 	move	zero,zero
     fb4:	00000021 	move	zero,zero
     fb8:	00000021 	move	zero,zero
     fbc:	00000021 	move	zero,zero
     fc0:	00000021 	move	zero,zero
     fc4:	00000021 	move	zero,zero
     fc8:	00000021 	move	zero,zero
     fcc:	00000021 	move	zero,zero
     fd0:	00000021 	move	zero,zero
     fd4:	00000021 	move	zero,zero
     fd8:	00000021 	move	zero,zero
     fdc:	00000021 	move	zero,zero
     fe0:	3c086bb4 	lui	t0,0x6bb4
     fe4:	35080090 	ori	t0,t0,0x90
     fe8:	3c097513 	lui	t1,0x7513
     fec:	35290d00 	ori	t1,t1,0xd00
     ff0:	1509ffe7 	bne	t0,t1,f90 <n30_bne_test+0xf90>
     ff4:	00000000 	nop
     ff8:	1000000c 	b	102c <n30_bne_test+0x102c>
     ffc:	00000000 	nop
    1000:	00000000 	nop
    1004:	00000021 	move	zero,zero
    1008:	00000021 	move	zero,zero
    100c:	00000021 	move	zero,zero
    1010:	00000021 	move	zero,zero
    1014:	00000021 	move	zero,zero
    1018:	00000021 	move	zero,zero
    101c:	00000021 	move	zero,zero
    1020:	00000021 	move	zero,zero
    1024:	3c128a80 	lui	s2,0x8a80
    1028:	3652eb35 	ori	s2,s2,0xeb35
    102c:	00000000 	nop
    1030:	3c14fe75 	lui	s4,0xfe75
    1034:	36945684 	ori	s4,s4,0x5684
    1038:	16143ef6 	bne	s0,s4,10c14 <inst_error>
    103c:	00000000 	nop
    1040:	00000000 	nop
    1044:	3c158a80 	lui	s5,0x8a80
    1048:	36b5eb35 	ori	s5,s5,0xeb35
    104c:	16553ef1 	bne	s2,s5,10c14 <inst_error>
    1050:	00000000 	nop
    1054:	00000000 	nop
    1058:	3c0c764d 	lui	t4,0x764d
    105c:	358c5510 	ori	t4,t4,0x5510
    1060:	3c0db6fa 	lui	t5,0xb6fa
    1064:	35adea20 	ori	t5,t5,0xea20
    1068:	24100000 	li	s0,0
    106c:	10000016 	b	10c8 <n30_bne_test+0x10c8>
    1070:	24120000 	li	s2,0
    1074:	00000000 	nop
    1078:	3c10764d 	lui	s0,0x764d
    107c:	15280023 	bne	t1,t0,110c <n30_bne_test+0x110c>
    1080:	36105510 	ori	s0,s0,0x5510
    1084:	10000023 	b	1114 <n30_bne_test+0x1114>
    1088:	00000000 	nop
    108c:	00000000 	nop
    1090:	00000021 	move	zero,zero
    1094:	00000021 	move	zero,zero
    1098:	00000021 	move	zero,zero
    109c:	00000021 	move	zero,zero
    10a0:	00000021 	move	zero,zero
    10a4:	00000021 	move	zero,zero
    10a8:	00000021 	move	zero,zero
    10ac:	00000021 	move	zero,zero
    10b0:	00000021 	move	zero,zero
    10b4:	00000021 	move	zero,zero
    10b8:	00000021 	move	zero,zero
    10bc:	00000021 	move	zero,zero
    10c0:	00000021 	move	zero,zero
    10c4:	00000021 	move	zero,zero
    10c8:	3c08c4e1 	lui	t0,0xc4e1
    10cc:	3508f320 	ori	t0,t0,0xf320
    10d0:	3c09f6d0 	lui	t1,0xf6d0
    10d4:	35297020 	ori	t1,t1,0x7020
    10d8:	1509ffe7 	bne	t0,t1,1078 <n30_bne_test+0x1078>
    10dc:	00000000 	nop
    10e0:	1000000c 	b	1114 <n30_bne_test+0x1114>
    10e4:	00000000 	nop
    10e8:	00000000 	nop
    10ec:	00000021 	move	zero,zero
    10f0:	00000021 	move	zero,zero
    10f4:	00000021 	move	zero,zero
    10f8:	00000021 	move	zero,zero
    10fc:	00000021 	move	zero,zero
    1100:	00000021 	move	zero,zero
    1104:	00000021 	move	zero,zero
    1108:	00000021 	move	zero,zero
    110c:	3c12b6fa 	lui	s2,0xb6fa
    1110:	3652ea20 	ori	s2,s2,0xea20
    1114:	00000000 	nop
    1118:	3c14764d 	lui	s4,0x764d
    111c:	36945510 	ori	s4,s4,0x5510
    1120:	16143ebc 	bne	s0,s4,10c14 <inst_error>
    1124:	00000000 	nop
    1128:	00000000 	nop
    112c:	3c15b6fa 	lui	s5,0xb6fa
    1130:	36b5ea20 	ori	s5,s5,0xea20
    1134:	16553eb7 	bne	s2,s5,10c14 <inst_error>
    1138:	00000000 	nop
    113c:	00000000 	nop
    1140:	3c0c8c38 	lui	t4,0x8c38
    1144:	358cdde0 	ori	t4,t4,0xdde0
    1148:	3c0dd820 	lui	t5,0xd820
    114c:	35ad85a8 	ori	t5,t5,0x85a8
    1150:	24100000 	li	s0,0
    1154:	10000016 	b	11b0 <n30_bne_test+0x11b0>
    1158:	24120000 	li	s2,0
    115c:	00000000 	nop
    1160:	3c108c38 	lui	s0,0x8c38
    1164:	15280023 	bne	t1,t0,11f4 <n30_bne_test+0x11f4>
    1168:	3610dde0 	ori	s0,s0,0xdde0
    116c:	10000023 	b	11fc <n30_bne_test+0x11fc>
    1170:	00000000 	nop
    1174:	00000000 	nop
    1178:	00000021 	move	zero,zero
    117c:	00000021 	move	zero,zero
    1180:	00000021 	move	zero,zero
    1184:	00000021 	move	zero,zero
    1188:	00000021 	move	zero,zero
    118c:	00000021 	move	zero,zero
    1190:	00000021 	move	zero,zero
    1194:	00000021 	move	zero,zero
    1198:	00000021 	move	zero,zero
    119c:	00000021 	move	zero,zero
    11a0:	00000021 	move	zero,zero
    11a4:	00000021 	move	zero,zero
    11a8:	00000021 	move	zero,zero
    11ac:	00000021 	move	zero,zero
    11b0:	3c081b1a 	lui	t0,0x1b1a
    11b4:	350880c0 	ori	t0,t0,0x80c0
    11b8:	3c093fa2 	lui	t1,0x3fa2
    11bc:	3529a084 	ori	t1,t1,0xa084
    11c0:	1509ffe7 	bne	t0,t1,1160 <n30_bne_test+0x1160>
    11c4:	00000000 	nop
    11c8:	1000000c 	b	11fc <n30_bne_test+0x11fc>
    11cc:	00000000 	nop
    11d0:	00000000 	nop
    11d4:	00000021 	move	zero,zero
    11d8:	00000021 	move	zero,zero
    11dc:	00000021 	move	zero,zero
    11e0:	00000021 	move	zero,zero
    11e4:	00000021 	move	zero,zero
    11e8:	00000021 	move	zero,zero
    11ec:	00000021 	move	zero,zero
    11f0:	00000021 	move	zero,zero
    11f4:	3c12d820 	lui	s2,0xd820
    11f8:	365285a8 	ori	s2,s2,0x85a8
    11fc:	00000000 	nop
    1200:	3c148c38 	lui	s4,0x8c38
    1204:	3694dde0 	ori	s4,s4,0xdde0
    1208:	16143e82 	bne	s0,s4,10c14 <inst_error>
    120c:	00000000 	nop
    1210:	00000000 	nop
    1214:	3c15d820 	lui	s5,0xd820
    1218:	36b585a8 	ori	s5,s5,0x85a8
    121c:	16553e7d 	bne	s2,s5,10c14 <inst_error>
    1220:	00000000 	nop
    1224:	00000000 	nop
    1228:	3c0c5554 	lui	t4,0x5554
    122c:	358ccc08 	ori	t4,t4,0xcc08
    1230:	3c0dfef9 	lui	t5,0xfef9
    1234:	35adebd0 	ori	t5,t5,0xebd0
    1238:	24100000 	li	s0,0
    123c:	10000016 	b	1298 <n30_bne_test+0x1298>
    1240:	24120000 	li	s2,0
    1244:	00000000 	nop
    1248:	3c105554 	lui	s0,0x5554
    124c:	15280023 	bne	t1,t0,12dc <n30_bne_test+0x12dc>
    1250:	3610cc08 	ori	s0,s0,0xcc08
    1254:	10000023 	b	12e4 <n30_bne_test+0x12e4>
    1258:	00000000 	nop
    125c:	00000000 	nop
    1260:	00000021 	move	zero,zero
    1264:	00000021 	move	zero,zero
    1268:	00000021 	move	zero,zero
    126c:	00000021 	move	zero,zero
    1270:	00000021 	move	zero,zero
    1274:	00000021 	move	zero,zero
    1278:	00000021 	move	zero,zero
    127c:	00000021 	move	zero,zero
    1280:	00000021 	move	zero,zero
    1284:	00000021 	move	zero,zero
    1288:	00000021 	move	zero,zero
    128c:	00000021 	move	zero,zero
    1290:	00000021 	move	zero,zero
    1294:	00000021 	move	zero,zero
    1298:	3c0812ef 	lui	t0,0x12ef
    129c:	3508a34c 	ori	t0,t0,0xa34c
    12a0:	3c09afd2 	lui	t1,0xafd2
    12a4:	35294c7a 	ori	t1,t1,0x4c7a
    12a8:	1509ffe7 	bne	t0,t1,1248 <n30_bne_test+0x1248>
    12ac:	00000000 	nop
    12b0:	1000000c 	b	12e4 <n30_bne_test+0x12e4>
    12b4:	00000000 	nop
    12b8:	00000000 	nop
    12bc:	00000021 	move	zero,zero
    12c0:	00000021 	move	zero,zero
    12c4:	00000021 	move	zero,zero
    12c8:	00000021 	move	zero,zero
    12cc:	00000021 	move	zero,zero
    12d0:	00000021 	move	zero,zero
    12d4:	00000021 	move	zero,zero
    12d8:	00000021 	move	zero,zero
    12dc:	3c12fef9 	lui	s2,0xfef9
    12e0:	3652ebd0 	ori	s2,s2,0xebd0
    12e4:	00000000 	nop
    12e8:	3c145554 	lui	s4,0x5554
    12ec:	3694cc08 	ori	s4,s4,0xcc08
    12f0:	16143e48 	bne	s0,s4,10c14 <inst_error>
    12f4:	00000000 	nop
    12f8:	00000000 	nop
    12fc:	3c15fef9 	lui	s5,0xfef9
    1300:	36b5ebd0 	ori	s5,s5,0xebd0
    1304:	16553e43 	bne	s2,s5,10c14 <inst_error>
    1308:	00000000 	nop
    130c:	00000000 	nop
    1310:	3c0cd927 	lui	t4,0xd927
    1314:	358c3ed0 	ori	t4,t4,0x3ed0
    1318:	3c0d5279 	lui	t5,0x5279
    131c:	35ad86c0 	ori	t5,t5,0x86c0
    1320:	24100000 	li	s0,0
    1324:	10000016 	b	1380 <n30_bne_test+0x1380>
    1328:	24120000 	li	s2,0
    132c:	00000000 	nop
    1330:	3c10d927 	lui	s0,0xd927
    1334:	15280023 	bne	t1,t0,13c4 <n30_bne_test+0x13c4>
    1338:	36103ed0 	ori	s0,s0,0x3ed0
    133c:	10000023 	b	13cc <n30_bne_test+0x13cc>
    1340:	00000000 	nop
    1344:	00000000 	nop
    1348:	00000021 	move	zero,zero
    134c:	00000021 	move	zero,zero
    1350:	00000021 	move	zero,zero
    1354:	00000021 	move	zero,zero
    1358:	00000021 	move	zero,zero
    135c:	00000021 	move	zero,zero
    1360:	00000021 	move	zero,zero
    1364:	00000021 	move	zero,zero
    1368:	00000021 	move	zero,zero
    136c:	00000021 	move	zero,zero
    1370:	00000021 	move	zero,zero
    1374:	00000021 	move	zero,zero
    1378:	00000021 	move	zero,zero
    137c:	00000021 	move	zero,zero
    1380:	3c08579c 	lui	t0,0x579c
    1384:	35085800 	ori	t0,t0,0x5800
    1388:	3c09da05 	lui	t1,0xda05
    138c:	3529fc00 	ori	t1,t1,0xfc00
    1390:	1509ffe7 	bne	t0,t1,1330 <n30_bne_test+0x1330>
    1394:	00000000 	nop
    1398:	1000000c 	b	13cc <n30_bne_test+0x13cc>
    139c:	00000000 	nop
    13a0:	00000000 	nop
    13a4:	00000021 	move	zero,zero
    13a8:	00000021 	move	zero,zero
    13ac:	00000021 	move	zero,zero
    13b0:	00000021 	move	zero,zero
    13b4:	00000021 	move	zero,zero
    13b8:	00000021 	move	zero,zero
    13bc:	00000021 	move	zero,zero
    13c0:	00000021 	move	zero,zero
    13c4:	3c125279 	lui	s2,0x5279
    13c8:	365286c0 	ori	s2,s2,0x86c0
    13cc:	00000000 	nop
    13d0:	3c14d927 	lui	s4,0xd927
    13d4:	36943ed0 	ori	s4,s4,0x3ed0
    13d8:	16143e0e 	bne	s0,s4,10c14 <inst_error>
    13dc:	00000000 	nop
    13e0:	00000000 	nop
    13e4:	3c155279 	lui	s5,0x5279
    13e8:	36b586c0 	ori	s5,s5,0x86c0
    13ec:	16553e09 	bne	s2,s5,10c14 <inst_error>
    13f0:	00000000 	nop
    13f4:	00000000 	nop
    13f8:	3c0ccac1 	lui	t4,0xcac1
    13fc:	358c82b0 	ori	t4,t4,0x82b0
    1400:	3c0df229 	lui	t5,0xf229
    1404:	35ad1c9c 	ori	t5,t5,0x1c9c
    1408:	24100000 	li	s0,0
    140c:	10000016 	b	1468 <n30_bne_test+0x1468>
    1410:	24120000 	li	s2,0
    1414:	00000000 	nop
    1418:	3c10cac1 	lui	s0,0xcac1
    141c:	15280023 	bne	t1,t0,14ac <n30_bne_test+0x14ac>
    1420:	361082b0 	ori	s0,s0,0x82b0
    1424:	10000023 	b	14b4 <n30_bne_test+0x14b4>
    1428:	00000000 	nop
    142c:	00000000 	nop
    1430:	00000021 	move	zero,zero
    1434:	00000021 	move	zero,zero
    1438:	00000021 	move	zero,zero
    143c:	00000021 	move	zero,zero
    1440:	00000021 	move	zero,zero
    1444:	00000021 	move	zero,zero
    1448:	00000021 	move	zero,zero
    144c:	00000021 	move	zero,zero
    1450:	00000021 	move	zero,zero
    1454:	00000021 	move	zero,zero
    1458:	00000021 	move	zero,zero
    145c:	00000021 	move	zero,zero
    1460:	00000021 	move	zero,zero
    1464:	00000021 	move	zero,zero
    1468:	3c086ed6 	lui	t0,0x6ed6
    146c:	35089e00 	ori	t0,t0,0x9e00
    1470:	3c09c9bc 	lui	t1,0xc9bc
    1474:	35299c74 	ori	t1,t1,0x9c74
    1478:	1509ffe7 	bne	t0,t1,1418 <n30_bne_test+0x1418>
    147c:	00000000 	nop
    1480:	1000000c 	b	14b4 <n30_bne_test+0x14b4>
    1484:	00000000 	nop
    1488:	00000000 	nop
    148c:	00000021 	move	zero,zero
    1490:	00000021 	move	zero,zero
    1494:	00000021 	move	zero,zero
    1498:	00000021 	move	zero,zero
    149c:	00000021 	move	zero,zero
    14a0:	00000021 	move	zero,zero
    14a4:	00000021 	move	zero,zero
    14a8:	00000021 	move	zero,zero
    14ac:	3c12f229 	lui	s2,0xf229
    14b0:	36521c9c 	ori	s2,s2,0x1c9c
    14b4:	00000000 	nop
    14b8:	3c14cac1 	lui	s4,0xcac1
    14bc:	369482b0 	ori	s4,s4,0x82b0
    14c0:	16143dd4 	bne	s0,s4,10c14 <inst_error>
    14c4:	00000000 	nop
    14c8:	00000000 	nop
    14cc:	3c15f229 	lui	s5,0xf229
    14d0:	36b51c9c 	ori	s5,s5,0x1c9c
    14d4:	16553dcf 	bne	s2,s5,10c14 <inst_error>
    14d8:	00000000 	nop
    14dc:	00000000 	nop
    14e0:	3c0c7c9b 	lui	t4,0x7c9b
    14e4:	358c5bbe 	ori	t4,t4,0x5bbe
    14e8:	3c0d6855 	lui	t5,0x6855
    14ec:	35ad4000 	ori	t5,t5,0x4000
    14f0:	24100000 	li	s0,0
    14f4:	10000016 	b	1550 <n30_bne_test+0x1550>
    14f8:	24120000 	li	s2,0
    14fc:	00000000 	nop
    1500:	3c107c9b 	lui	s0,0x7c9b
    1504:	15280023 	bne	t1,t0,1594 <n30_bne_test+0x1594>
    1508:	36105bbe 	ori	s0,s0,0x5bbe
    150c:	10000023 	b	159c <n30_bne_test+0x159c>
    1510:	00000000 	nop
    1514:	00000000 	nop
    1518:	00000021 	move	zero,zero
    151c:	00000021 	move	zero,zero
    1520:	00000021 	move	zero,zero
    1524:	00000021 	move	zero,zero
    1528:	00000021 	move	zero,zero
    152c:	00000021 	move	zero,zero
    1530:	00000021 	move	zero,zero
    1534:	00000021 	move	zero,zero
    1538:	00000021 	move	zero,zero
    153c:	00000021 	move	zero,zero
    1540:	00000021 	move	zero,zero
    1544:	00000021 	move	zero,zero
    1548:	00000021 	move	zero,zero
    154c:	00000021 	move	zero,zero
    1550:	3c08ca31 	lui	t0,0xca31
    1554:	35084c8f 	ori	t0,t0,0x4c8f
    1558:	3c0908cb 	lui	t1,0x8cb
    155c:	35298c40 	ori	t1,t1,0x8c40
    1560:	1509ffe7 	bne	t0,t1,1500 <n30_bne_test+0x1500>
    1564:	00000000 	nop
    1568:	1000000c 	b	159c <n30_bne_test+0x159c>
    156c:	00000000 	nop
    1570:	00000000 	nop
    1574:	00000021 	move	zero,zero
    1578:	00000021 	move	zero,zero
    157c:	00000021 	move	zero,zero
    1580:	00000021 	move	zero,zero
    1584:	00000021 	move	zero,zero
    1588:	00000021 	move	zero,zero
    158c:	00000021 	move	zero,zero
    1590:	00000021 	move	zero,zero
    1594:	3c126855 	lui	s2,0x6855
    1598:	36524000 	ori	s2,s2,0x4000
    159c:	00000000 	nop
    15a0:	3c147c9b 	lui	s4,0x7c9b
    15a4:	36945bbe 	ori	s4,s4,0x5bbe
    15a8:	16143d9a 	bne	s0,s4,10c14 <inst_error>
    15ac:	00000000 	nop
    15b0:	00000000 	nop
    15b4:	3c156855 	lui	s5,0x6855
    15b8:	36b54000 	ori	s5,s5,0x4000
    15bc:	16553d95 	bne	s2,s5,10c14 <inst_error>
    15c0:	00000000 	nop
    15c4:	00000000 	nop
    15c8:	3c0c8b00 	lui	t4,0x8b00
    15cc:	358c5dcc 	ori	t4,t4,0x5dcc
    15d0:	3c0d1178 	lui	t5,0x1178
    15d4:	35ad430a 	ori	t5,t5,0x430a
    15d8:	24100000 	li	s0,0
    15dc:	10000016 	b	1638 <n30_bne_test+0x1638>
    15e0:	24120000 	li	s2,0
    15e4:	00000000 	nop
    15e8:	3c108b00 	lui	s0,0x8b00
    15ec:	15280023 	bne	t1,t0,167c <n30_bne_test+0x167c>
    15f0:	36105dcc 	ori	s0,s0,0x5dcc
    15f4:	10000023 	b	1684 <n30_bne_test+0x1684>
    15f8:	00000000 	nop
    15fc:	00000000 	nop
    1600:	00000021 	move	zero,zero
    1604:	00000021 	move	zero,zero
    1608:	00000021 	move	zero,zero
    160c:	00000021 	move	zero,zero
    1610:	00000021 	move	zero,zero
    1614:	00000021 	move	zero,zero
    1618:	00000021 	move	zero,zero
    161c:	00000021 	move	zero,zero
    1620:	00000021 	move	zero,zero
    1624:	00000021 	move	zero,zero
    1628:	00000021 	move	zero,zero
    162c:	00000021 	move	zero,zero
    1630:	00000021 	move	zero,zero
    1634:	00000021 	move	zero,zero
    1638:	3c085b47 	lui	t0,0x5b47
    163c:	35080628 	ori	t0,t0,0x628
    1640:	3c093ff3 	lui	t1,0x3ff3
    1644:	35299fb8 	ori	t1,t1,0x9fb8
    1648:	1509ffe7 	bne	t0,t1,15e8 <n30_bne_test+0x15e8>
    164c:	00000000 	nop
    1650:	1000000c 	b	1684 <n30_bne_test+0x1684>
    1654:	00000000 	nop
    1658:	00000000 	nop
    165c:	00000021 	move	zero,zero
    1660:	00000021 	move	zero,zero
    1664:	00000021 	move	zero,zero
    1668:	00000021 	move	zero,zero
    166c:	00000021 	move	zero,zero
    1670:	00000021 	move	zero,zero
    1674:	00000021 	move	zero,zero
    1678:	00000021 	move	zero,zero
    167c:	3c121178 	lui	s2,0x1178
    1680:	3652430a 	ori	s2,s2,0x430a
    1684:	00000000 	nop
    1688:	3c148b00 	lui	s4,0x8b00
    168c:	36945dcc 	ori	s4,s4,0x5dcc
    1690:	16143d60 	bne	s0,s4,10c14 <inst_error>
    1694:	00000000 	nop
    1698:	00000000 	nop
    169c:	3c151178 	lui	s5,0x1178
    16a0:	36b5430a 	ori	s5,s5,0x430a
    16a4:	16553d5b 	bne	s2,s5,10c14 <inst_error>
    16a8:	00000000 	nop
    16ac:	00000000 	nop
    16b0:	3c0ce3ad 	lui	t4,0xe3ad
    16b4:	358c64c8 	ori	t4,t4,0x64c8
    16b8:	3c0de66d 	lui	t5,0xe66d
    16bc:	35ad52fc 	ori	t5,t5,0x52fc
    16c0:	24100000 	li	s0,0
    16c4:	10000016 	b	1720 <n30_bne_test+0x1720>
    16c8:	24120000 	li	s2,0
    16cc:	00000000 	nop
    16d0:	3c10e3ad 	lui	s0,0xe3ad
    16d4:	15280023 	bne	t1,t0,1764 <n30_bne_test+0x1764>
    16d8:	361064c8 	ori	s0,s0,0x64c8
    16dc:	10000023 	b	176c <n30_bne_test+0x176c>
    16e0:	00000000 	nop
    16e4:	00000000 	nop
    16e8:	00000021 	move	zero,zero
    16ec:	00000021 	move	zero,zero
    16f0:	00000021 	move	zero,zero
    16f4:	00000021 	move	zero,zero
    16f8:	00000021 	move	zero,zero
    16fc:	00000021 	move	zero,zero
    1700:	00000021 	move	zero,zero
    1704:	00000021 	move	zero,zero
    1708:	00000021 	move	zero,zero
    170c:	00000021 	move	zero,zero
    1710:	00000021 	move	zero,zero
    1714:	00000021 	move	zero,zero
    1718:	00000021 	move	zero,zero
    171c:	00000021 	move	zero,zero
    1720:	3c086617 	lui	t0,0x6617
    1724:	3508a3ca 	ori	t0,t0,0xa3ca
    1728:	3c094b54 	lui	t1,0x4b54
    172c:	35296b70 	ori	t1,t1,0x6b70
    1730:	1509ffe7 	bne	t0,t1,16d0 <n30_bne_test+0x16d0>
    1734:	00000000 	nop
    1738:	1000000c 	b	176c <n30_bne_test+0x176c>
    173c:	00000000 	nop
    1740:	00000000 	nop
    1744:	00000021 	move	zero,zero
    1748:	00000021 	move	zero,zero
    174c:	00000021 	move	zero,zero
    1750:	00000021 	move	zero,zero
    1754:	00000021 	move	zero,zero
    1758:	00000021 	move	zero,zero
    175c:	00000021 	move	zero,zero
    1760:	00000021 	move	zero,zero
    1764:	3c12e66d 	lui	s2,0xe66d
    1768:	365252fc 	ori	s2,s2,0x52fc
    176c:	00000000 	nop
    1770:	3c14e3ad 	lui	s4,0xe3ad
    1774:	369464c8 	ori	s4,s4,0x64c8
    1778:	16143d26 	bne	s0,s4,10c14 <inst_error>
    177c:	00000000 	nop
    1780:	00000000 	nop
    1784:	3c15e66d 	lui	s5,0xe66d
    1788:	36b552fc 	ori	s5,s5,0x52fc
    178c:	16553d21 	bne	s2,s5,10c14 <inst_error>
    1790:	00000000 	nop
    1794:	00000000 	nop
    1798:	3c0cec8e 	lui	t4,0xec8e
    179c:	358cd9fe 	ori	t4,t4,0xd9fe
    17a0:	3c0d2566 	lui	t5,0x2566
    17a4:	35ad75c0 	ori	t5,t5,0x75c0
    17a8:	24100000 	li	s0,0
    17ac:	10000016 	b	1808 <n30_bne_test+0x1808>
    17b0:	24120000 	li	s2,0
    17b4:	00000000 	nop
    17b8:	3c10ec8e 	lui	s0,0xec8e
    17bc:	15280023 	bne	t1,t0,184c <n30_bne_test+0x184c>
    17c0:	3610d9fe 	ori	s0,s0,0xd9fe
    17c4:	10000023 	b	1854 <n30_bne_test+0x1854>
    17c8:	00000000 	nop
    17cc:	00000000 	nop
    17d0:	00000021 	move	zero,zero
    17d4:	00000021 	move	zero,zero
    17d8:	00000021 	move	zero,zero
    17dc:	00000021 	move	zero,zero
    17e0:	00000021 	move	zero,zero
    17e4:	00000021 	move	zero,zero
    17e8:	00000021 	move	zero,zero
    17ec:	00000021 	move	zero,zero
    17f0:	00000021 	move	zero,zero
    17f4:	00000021 	move	zero,zero
    17f8:	00000021 	move	zero,zero
    17fc:	00000021 	move	zero,zero
    1800:	00000021 	move	zero,zero
    1804:	00000021 	move	zero,zero
    1808:	3c08c79b 	lui	t0,0xc79b
    180c:	3508cf00 	ori	t0,t0,0xcf00
    1810:	3c09a25e 	lui	t1,0xa25e
    1814:	35297b96 	ori	t1,t1,0x7b96
    1818:	1509ffe7 	bne	t0,t1,17b8 <n30_bne_test+0x17b8>
    181c:	00000000 	nop
    1820:	1000000c 	b	1854 <n30_bne_test+0x1854>
    1824:	00000000 	nop
    1828:	00000000 	nop
    182c:	00000021 	move	zero,zero
    1830:	00000021 	move	zero,zero
    1834:	00000021 	move	zero,zero
    1838:	00000021 	move	zero,zero
    183c:	00000021 	move	zero,zero
    1840:	00000021 	move	zero,zero
    1844:	00000021 	move	zero,zero
    1848:	00000021 	move	zero,zero
    184c:	3c122566 	lui	s2,0x2566
    1850:	365275c0 	ori	s2,s2,0x75c0
    1854:	00000000 	nop
    1858:	3c14ec8e 	lui	s4,0xec8e
    185c:	3694d9fe 	ori	s4,s4,0xd9fe
    1860:	16143cec 	bne	s0,s4,10c14 <inst_error>
    1864:	00000000 	nop
    1868:	00000000 	nop
    186c:	3c152566 	lui	s5,0x2566
    1870:	36b575c0 	ori	s5,s5,0x75c0
    1874:	16553ce7 	bne	s2,s5,10c14 <inst_error>
    1878:	00000000 	nop
    187c:	00000000 	nop
    1880:	3c0cf0b1 	lui	t4,0xf0b1
    1884:	358c3320 	ori	t4,t4,0x3320
    1888:	3c0d3260 	lui	t5,0x3260
    188c:	35ad0a48 	ori	t5,t5,0xa48
    1890:	24100000 	li	s0,0
    1894:	10000016 	b	18f0 <n30_bne_test+0x18f0>
    1898:	24120000 	li	s2,0
    189c:	00000000 	nop
    18a0:	3c10f0b1 	lui	s0,0xf0b1
    18a4:	15280023 	bne	t1,t0,1934 <n30_bne_test+0x1934>
    18a8:	36103320 	ori	s0,s0,0x3320
    18ac:	10000023 	b	193c <n30_bne_test+0x193c>
    18b0:	00000000 	nop
    18b4:	00000000 	nop
    18b8:	00000021 	move	zero,zero
    18bc:	00000021 	move	zero,zero
    18c0:	00000021 	move	zero,zero
    18c4:	00000021 	move	zero,zero
    18c8:	00000021 	move	zero,zero
    18cc:	00000021 	move	zero,zero
    18d0:	00000021 	move	zero,zero
    18d4:	00000021 	move	zero,zero
    18d8:	00000021 	move	zero,zero
    18dc:	00000021 	move	zero,zero
    18e0:	00000021 	move	zero,zero
    18e4:	00000021 	move	zero,zero
    18e8:	00000021 	move	zero,zero
    18ec:	00000021 	move	zero,zero
    18f0:	3c0864f8 	lui	t0,0x64f8
    18f4:	3508bd3c 	ori	t0,t0,0xbd3c
    18f8:	3c09dd80 	lui	t1,0xdd80
    18fc:	35291ec0 	ori	t1,t1,0x1ec0
    1900:	1509ffe7 	bne	t0,t1,18a0 <n30_bne_test+0x18a0>
    1904:	00000000 	nop
    1908:	1000000c 	b	193c <n30_bne_test+0x193c>
    190c:	00000000 	nop
    1910:	00000000 	nop
    1914:	00000021 	move	zero,zero
    1918:	00000021 	move	zero,zero
    191c:	00000021 	move	zero,zero
    1920:	00000021 	move	zero,zero
    1924:	00000021 	move	zero,zero
    1928:	00000021 	move	zero,zero
    192c:	00000021 	move	zero,zero
    1930:	00000021 	move	zero,zero
    1934:	3c123260 	lui	s2,0x3260
    1938:	36520a48 	ori	s2,s2,0xa48
    193c:	00000000 	nop
    1940:	3c14f0b1 	lui	s4,0xf0b1
    1944:	36943320 	ori	s4,s4,0x3320
    1948:	16143cb2 	bne	s0,s4,10c14 <inst_error>
    194c:	00000000 	nop
    1950:	00000000 	nop
    1954:	3c153260 	lui	s5,0x3260
    1958:	36b50a48 	ori	s5,s5,0xa48
    195c:	16553cad 	bne	s2,s5,10c14 <inst_error>
    1960:	00000000 	nop
    1964:	00000000 	nop
    1968:	3c0c8276 	lui	t4,0x8276
    196c:	358cf040 	ori	t4,t4,0xf040
    1970:	3c0da521 	lui	t5,0xa521
    1974:	35ad4741 	ori	t5,t5,0x4741
    1978:	24100000 	li	s0,0
    197c:	10000016 	b	19d8 <n30_bne_test+0x19d8>
    1980:	24120000 	li	s2,0
    1984:	00000000 	nop
    1988:	3c108276 	lui	s0,0x8276
    198c:	15280023 	bne	t1,t0,1a1c <n30_bne_test+0x1a1c>
    1990:	3610f040 	ori	s0,s0,0xf040
    1994:	10000023 	b	1a24 <n30_bne_test+0x1a24>
    1998:	00000000 	nop
    199c:	00000000 	nop
    19a0:	00000021 	move	zero,zero
    19a4:	00000021 	move	zero,zero
    19a8:	00000021 	move	zero,zero
    19ac:	00000021 	move	zero,zero
    19b0:	00000021 	move	zero,zero
    19b4:	00000021 	move	zero,zero
    19b8:	00000021 	move	zero,zero
    19bc:	00000021 	move	zero,zero
    19c0:	00000021 	move	zero,zero
    19c4:	00000021 	move	zero,zero
    19c8:	00000021 	move	zero,zero
    19cc:	00000021 	move	zero,zero
    19d0:	00000021 	move	zero,zero
    19d4:	00000021 	move	zero,zero
    19d8:	3c086007 	lui	t0,0x6007
    19dc:	3508ae32 	ori	t0,t0,0xae32
    19e0:	3c09e256 	lui	t1,0xe256
    19e4:	35292f25 	ori	t1,t1,0x2f25
    19e8:	1509ffe7 	bne	t0,t1,1988 <n30_bne_test+0x1988>
    19ec:	00000000 	nop
    19f0:	1000000c 	b	1a24 <n30_bne_test+0x1a24>
    19f4:	00000000 	nop
    19f8:	00000000 	nop
    19fc:	00000021 	move	zero,zero
    1a00:	00000021 	move	zero,zero
    1a04:	00000021 	move	zero,zero
    1a08:	00000021 	move	zero,zero
    1a0c:	00000021 	move	zero,zero
    1a10:	00000021 	move	zero,zero
    1a14:	00000021 	move	zero,zero
    1a18:	00000021 	move	zero,zero
    1a1c:	3c12a521 	lui	s2,0xa521
    1a20:	36524741 	ori	s2,s2,0x4741
    1a24:	00000000 	nop
    1a28:	3c148276 	lui	s4,0x8276
    1a2c:	3694f040 	ori	s4,s4,0xf040
    1a30:	16143c78 	bne	s0,s4,10c14 <inst_error>
    1a34:	00000000 	nop
    1a38:	00000000 	nop
    1a3c:	3c15a521 	lui	s5,0xa521
    1a40:	36b54741 	ori	s5,s5,0x4741
    1a44:	16553c73 	bne	s2,s5,10c14 <inst_error>
    1a48:	00000000 	nop
    1a4c:	00000000 	nop
    1a50:	3c0c931c 	lui	t4,0x931c
    1a54:	358c95b4 	ori	t4,t4,0x95b4
    1a58:	3c0d4054 	lui	t5,0x4054
    1a5c:	35adf9f0 	ori	t5,t5,0xf9f0
    1a60:	24100000 	li	s0,0
    1a64:	10000016 	b	1ac0 <n30_bne_test+0x1ac0>
    1a68:	24120000 	li	s2,0
    1a6c:	00000000 	nop
    1a70:	3c10931c 	lui	s0,0x931c
    1a74:	15280023 	bne	t1,t0,1b04 <n30_bne_test+0x1b04>
    1a78:	361095b4 	ori	s0,s0,0x95b4
    1a7c:	10000023 	b	1b0c <n30_bne_test+0x1b0c>
    1a80:	00000000 	nop
    1a84:	00000000 	nop
    1a88:	00000021 	move	zero,zero
    1a8c:	00000021 	move	zero,zero
    1a90:	00000021 	move	zero,zero
    1a94:	00000021 	move	zero,zero
    1a98:	00000021 	move	zero,zero
    1a9c:	00000021 	move	zero,zero
    1aa0:	00000021 	move	zero,zero
    1aa4:	00000021 	move	zero,zero
    1aa8:	00000021 	move	zero,zero
    1aac:	00000021 	move	zero,zero
    1ab0:	00000021 	move	zero,zero
    1ab4:	00000021 	move	zero,zero
    1ab8:	00000021 	move	zero,zero
    1abc:	00000021 	move	zero,zero
    1ac0:	3c08379b 	lui	t0,0x379b
    1ac4:	35082295 	ori	t0,t0,0x2295
    1ac8:	3c090cfa 	lui	t1,0xcfa
    1acc:	35298c1c 	ori	t1,t1,0x8c1c
    1ad0:	1509ffe7 	bne	t0,t1,1a70 <n30_bne_test+0x1a70>
    1ad4:	00000000 	nop
    1ad8:	1000000c 	b	1b0c <n30_bne_test+0x1b0c>
    1adc:	00000000 	nop
    1ae0:	00000000 	nop
    1ae4:	00000021 	move	zero,zero
    1ae8:	00000021 	move	zero,zero
    1aec:	00000021 	move	zero,zero
    1af0:	00000021 	move	zero,zero
    1af4:	00000021 	move	zero,zero
    1af8:	00000021 	move	zero,zero
    1afc:	00000021 	move	zero,zero
    1b00:	00000021 	move	zero,zero
    1b04:	3c124054 	lui	s2,0x4054
    1b08:	3652f9f0 	ori	s2,s2,0xf9f0
    1b0c:	00000000 	nop
    1b10:	3c14931c 	lui	s4,0x931c
    1b14:	369495b4 	ori	s4,s4,0x95b4
    1b18:	16143c3e 	bne	s0,s4,10c14 <inst_error>
    1b1c:	00000000 	nop
    1b20:	00000000 	nop
    1b24:	3c154054 	lui	s5,0x4054
    1b28:	36b5f9f0 	ori	s5,s5,0xf9f0
    1b2c:	16553c39 	bne	s2,s5,10c14 <inst_error>
    1b30:	00000000 	nop
    1b34:	00000000 	nop
    1b38:	3c0c3d05 	lui	t4,0x3d05
    1b3c:	358cdf06 	ori	t4,t4,0xdf06
    1b40:	3c0d1f4b 	lui	t5,0x1f4b
    1b44:	35ad921c 	ori	t5,t5,0x921c
    1b48:	24100000 	li	s0,0
    1b4c:	10000016 	b	1ba8 <n30_bne_test+0x1ba8>
    1b50:	24120000 	li	s2,0
    1b54:	00000000 	nop
    1b58:	3c103d05 	lui	s0,0x3d05
    1b5c:	15280023 	bne	t1,t0,1bec <n30_bne_test+0x1bec>
    1b60:	3610df06 	ori	s0,s0,0xdf06
    1b64:	10000023 	b	1bf4 <n30_bne_test+0x1bf4>
    1b68:	00000000 	nop
    1b6c:	00000000 	nop
    1b70:	00000021 	move	zero,zero
    1b74:	00000021 	move	zero,zero
    1b78:	00000021 	move	zero,zero
    1b7c:	00000021 	move	zero,zero
    1b80:	00000021 	move	zero,zero
    1b84:	00000021 	move	zero,zero
    1b88:	00000021 	move	zero,zero
    1b8c:	00000021 	move	zero,zero
    1b90:	00000021 	move	zero,zero
    1b94:	00000021 	move	zero,zero
    1b98:	00000021 	move	zero,zero
    1b9c:	00000021 	move	zero,zero
    1ba0:	00000021 	move	zero,zero
    1ba4:	00000021 	move	zero,zero
    1ba8:	3c08e1e7 	lui	t0,0xe1e7
    1bac:	35083816 	ori	t0,t0,0x3816
    1bb0:	3c096ec3 	lui	t1,0x6ec3
    1bb4:	35298dd8 	ori	t1,t1,0x8dd8
    1bb8:	1509ffe7 	bne	t0,t1,1b58 <n30_bne_test+0x1b58>
    1bbc:	00000000 	nop
    1bc0:	1000000c 	b	1bf4 <n30_bne_test+0x1bf4>
    1bc4:	00000000 	nop
    1bc8:	00000000 	nop
    1bcc:	00000021 	move	zero,zero
    1bd0:	00000021 	move	zero,zero
    1bd4:	00000021 	move	zero,zero
    1bd8:	00000021 	move	zero,zero
    1bdc:	00000021 	move	zero,zero
    1be0:	00000021 	move	zero,zero
    1be4:	00000021 	move	zero,zero
    1be8:	00000021 	move	zero,zero
    1bec:	3c121f4b 	lui	s2,0x1f4b
    1bf0:	3652921c 	ori	s2,s2,0x921c
    1bf4:	00000000 	nop
    1bf8:	3c143d05 	lui	s4,0x3d05
    1bfc:	3694df06 	ori	s4,s4,0xdf06
    1c00:	16143c04 	bne	s0,s4,10c14 <inst_error>
    1c04:	00000000 	nop
    1c08:	00000000 	nop
    1c0c:	3c151f4b 	lui	s5,0x1f4b
    1c10:	36b5921c 	ori	s5,s5,0x921c
    1c14:	16553bff 	bne	s2,s5,10c14 <inst_error>
    1c18:	00000000 	nop
    1c1c:	00000000 	nop
    1c20:	3c0c6df1 	lui	t4,0x6df1
    1c24:	358ce518 	ori	t4,t4,0xe518
    1c28:	3c0de6dc 	lui	t5,0xe6dc
    1c2c:	35ad0f4e 	ori	t5,t5,0xf4e
    1c30:	24100000 	li	s0,0
    1c34:	10000016 	b	1c90 <n30_bne_test+0x1c90>
    1c38:	24120000 	li	s2,0
    1c3c:	00000000 	nop
    1c40:	3c106df1 	lui	s0,0x6df1
    1c44:	15280023 	bne	t1,t0,1cd4 <n30_bne_test+0x1cd4>
    1c48:	3610e518 	ori	s0,s0,0xe518
    1c4c:	10000023 	b	1cdc <n30_bne_test+0x1cdc>
    1c50:	00000000 	nop
    1c54:	00000000 	nop
    1c58:	00000021 	move	zero,zero
    1c5c:	00000021 	move	zero,zero
    1c60:	00000021 	move	zero,zero
    1c64:	00000021 	move	zero,zero
    1c68:	00000021 	move	zero,zero
    1c6c:	00000021 	move	zero,zero
    1c70:	00000021 	move	zero,zero
    1c74:	00000021 	move	zero,zero
    1c78:	00000021 	move	zero,zero
    1c7c:	00000021 	move	zero,zero
    1c80:	00000021 	move	zero,zero
    1c84:	00000021 	move	zero,zero
    1c88:	00000021 	move	zero,zero
    1c8c:	00000021 	move	zero,zero
    1c90:	3c08498a 	lui	t0,0x498a
    1c94:	3508d0f6 	ori	t0,t0,0xd0f6
    1c98:	3c0922c6 	lui	t1,0x22c6
    1c9c:	3529c30a 	ori	t1,t1,0xc30a
    1ca0:	1509ffe7 	bne	t0,t1,1c40 <n30_bne_test+0x1c40>
    1ca4:	00000000 	nop
    1ca8:	1000000c 	b	1cdc <n30_bne_test+0x1cdc>
    1cac:	00000000 	nop
    1cb0:	00000000 	nop
    1cb4:	00000021 	move	zero,zero
    1cb8:	00000021 	move	zero,zero
    1cbc:	00000021 	move	zero,zero
    1cc0:	00000021 	move	zero,zero
    1cc4:	00000021 	move	zero,zero
    1cc8:	00000021 	move	zero,zero
    1ccc:	00000021 	move	zero,zero
    1cd0:	00000021 	move	zero,zero
    1cd4:	3c12e6dc 	lui	s2,0xe6dc
    1cd8:	36520f4e 	ori	s2,s2,0xf4e
    1cdc:	00000000 	nop
    1ce0:	3c146df1 	lui	s4,0x6df1
    1ce4:	3694e518 	ori	s4,s4,0xe518
    1ce8:	16143bca 	bne	s0,s4,10c14 <inst_error>
    1cec:	00000000 	nop
    1cf0:	00000000 	nop
    1cf4:	3c15e6dc 	lui	s5,0xe6dc
    1cf8:	36b50f4e 	ori	s5,s5,0xf4e
    1cfc:	16553bc5 	bne	s2,s5,10c14 <inst_error>
    1d00:	00000000 	nop
    1d04:	00000000 	nop
    1d08:	3c0c451c 	lui	t4,0x451c
    1d0c:	358cf0d0 	ori	t4,t4,0xf0d0
    1d10:	3c0dd311 	lui	t5,0xd311
    1d14:	35adf9e5 	ori	t5,t5,0xf9e5
    1d18:	24100000 	li	s0,0
    1d1c:	10000016 	b	1d78 <n30_bne_test+0x1d78>
    1d20:	24120000 	li	s2,0
    1d24:	00000000 	nop
    1d28:	3c10451c 	lui	s0,0x451c
    1d2c:	15280023 	bne	t1,t0,1dbc <n30_bne_test+0x1dbc>
    1d30:	3610f0d0 	ori	s0,s0,0xf0d0
    1d34:	10000023 	b	1dc4 <n30_bne_test+0x1dc4>
    1d38:	00000000 	nop
    1d3c:	00000000 	nop
    1d40:	00000021 	move	zero,zero
    1d44:	00000021 	move	zero,zero
    1d48:	00000021 	move	zero,zero
    1d4c:	00000021 	move	zero,zero
    1d50:	00000021 	move	zero,zero
    1d54:	00000021 	move	zero,zero
    1d58:	00000021 	move	zero,zero
    1d5c:	00000021 	move	zero,zero
    1d60:	00000021 	move	zero,zero
    1d64:	00000021 	move	zero,zero
    1d68:	00000021 	move	zero,zero
    1d6c:	00000021 	move	zero,zero
    1d70:	00000021 	move	zero,zero
    1d74:	00000021 	move	zero,zero
    1d78:	3c0851cb 	lui	t0,0x51cb
    1d7c:	350827de 	ori	t0,t0,0x27de
    1d80:	3c090dce 	lui	t1,0xdce
    1d84:	35292d00 	ori	t1,t1,0x2d00
    1d88:	1509ffe7 	bne	t0,t1,1d28 <n30_bne_test+0x1d28>
    1d8c:	00000000 	nop
    1d90:	1000000c 	b	1dc4 <n30_bne_test+0x1dc4>
    1d94:	00000000 	nop
    1d98:	00000000 	nop
    1d9c:	00000021 	move	zero,zero
    1da0:	00000021 	move	zero,zero
    1da4:	00000021 	move	zero,zero
    1da8:	00000021 	move	zero,zero
    1dac:	00000021 	move	zero,zero
    1db0:	00000021 	move	zero,zero
    1db4:	00000021 	move	zero,zero
    1db8:	00000021 	move	zero,zero
    1dbc:	3c12d311 	lui	s2,0xd311
    1dc0:	3652f9e5 	ori	s2,s2,0xf9e5
    1dc4:	00000000 	nop
    1dc8:	3c14451c 	lui	s4,0x451c
    1dcc:	3694f0d0 	ori	s4,s4,0xf0d0
    1dd0:	16143b90 	bne	s0,s4,10c14 <inst_error>
    1dd4:	00000000 	nop
    1dd8:	00000000 	nop
    1ddc:	3c15d311 	lui	s5,0xd311
    1de0:	36b5f9e5 	ori	s5,s5,0xf9e5
    1de4:	16553b8b 	bne	s2,s5,10c14 <inst_error>
    1de8:	00000000 	nop
    1dec:	00000000 	nop
    1df0:	3c0ca2c1 	lui	t4,0xa2c1
    1df4:	358c5a80 	ori	t4,t4,0x5a80
    1df8:	3c0d4299 	lui	t5,0x4299
    1dfc:	35ad06c8 	ori	t5,t5,0x6c8
    1e00:	24100000 	li	s0,0
    1e04:	10000016 	b	1e60 <n30_bne_test+0x1e60>
    1e08:	24120000 	li	s2,0
    1e0c:	00000000 	nop
    1e10:	3c10a2c1 	lui	s0,0xa2c1
    1e14:	15280023 	bne	t1,t0,1ea4 <n30_bne_test+0x1ea4>
    1e18:	36105a80 	ori	s0,s0,0x5a80
    1e1c:	10000023 	b	1eac <n30_bne_test+0x1eac>
    1e20:	00000000 	nop
    1e24:	00000000 	nop
    1e28:	00000021 	move	zero,zero
    1e2c:	00000021 	move	zero,zero
    1e30:	00000021 	move	zero,zero
    1e34:	00000021 	move	zero,zero
    1e38:	00000021 	move	zero,zero
    1e3c:	00000021 	move	zero,zero
    1e40:	00000021 	move	zero,zero
    1e44:	00000021 	move	zero,zero
    1e48:	00000021 	move	zero,zero
    1e4c:	00000021 	move	zero,zero
    1e50:	00000021 	move	zero,zero
    1e54:	00000021 	move	zero,zero
    1e58:	00000021 	move	zero,zero
    1e5c:	00000021 	move	zero,zero
    1e60:	3c087df6 	lui	t0,0x7df6
    1e64:	35080ae0 	ori	t0,t0,0xae0
    1e68:	3c09a75b 	lui	t1,0xa75b
    1e6c:	3529d401 	ori	t1,t1,0xd401
    1e70:	1509ffe7 	bne	t0,t1,1e10 <n30_bne_test+0x1e10>
    1e74:	00000000 	nop
    1e78:	1000000c 	b	1eac <n30_bne_test+0x1eac>
    1e7c:	00000000 	nop
    1e80:	00000000 	nop
    1e84:	00000021 	move	zero,zero
    1e88:	00000021 	move	zero,zero
    1e8c:	00000021 	move	zero,zero
    1e90:	00000021 	move	zero,zero
    1e94:	00000021 	move	zero,zero
    1e98:	00000021 	move	zero,zero
    1e9c:	00000021 	move	zero,zero
    1ea0:	00000021 	move	zero,zero
    1ea4:	3c124299 	lui	s2,0x4299
    1ea8:	365206c8 	ori	s2,s2,0x6c8
    1eac:	00000000 	nop
    1eb0:	3c14a2c1 	lui	s4,0xa2c1
    1eb4:	36945a80 	ori	s4,s4,0x5a80
    1eb8:	16143b56 	bne	s0,s4,10c14 <inst_error>
    1ebc:	00000000 	nop
    1ec0:	00000000 	nop
    1ec4:	3c154299 	lui	s5,0x4299
    1ec8:	36b506c8 	ori	s5,s5,0x6c8
    1ecc:	16553b51 	bne	s2,s5,10c14 <inst_error>
    1ed0:	00000000 	nop
    1ed4:	00000000 	nop
    1ed8:	3c0cbf63 	lui	t4,0xbf63
    1edc:	358c1b72 	ori	t4,t4,0x1b72
    1ee0:	3c0d8677 	lui	t5,0x8677
    1ee4:	35ad2cbc 	ori	t5,t5,0x2cbc
    1ee8:	24100000 	li	s0,0
    1eec:	10000016 	b	1f48 <n30_bne_test+0x1f48>
    1ef0:	24120000 	li	s2,0
    1ef4:	00000000 	nop
    1ef8:	3c10bf63 	lui	s0,0xbf63
    1efc:	15280023 	bne	t1,t0,1f8c <n30_bne_test+0x1f8c>
    1f00:	36101b72 	ori	s0,s0,0x1b72
    1f04:	10000023 	b	1f94 <n30_bne_test+0x1f94>
    1f08:	00000000 	nop
    1f0c:	00000000 	nop
    1f10:	00000021 	move	zero,zero
    1f14:	00000021 	move	zero,zero
    1f18:	00000021 	move	zero,zero
    1f1c:	00000021 	move	zero,zero
    1f20:	00000021 	move	zero,zero
    1f24:	00000021 	move	zero,zero
    1f28:	00000021 	move	zero,zero
    1f2c:	00000021 	move	zero,zero
    1f30:	00000021 	move	zero,zero
    1f34:	00000021 	move	zero,zero
    1f38:	00000021 	move	zero,zero
    1f3c:	00000021 	move	zero,zero
    1f40:	00000021 	move	zero,zero
    1f44:	00000021 	move	zero,zero
    1f48:	3c088420 	lui	t0,0x8420
    1f4c:	350871a0 	ori	t0,t0,0x71a0
    1f50:	3c09a995 	lui	t1,0xa995
    1f54:	3529bea4 	ori	t1,t1,0xbea4
    1f58:	1509ffe7 	bne	t0,t1,1ef8 <n30_bne_test+0x1ef8>
    1f5c:	00000000 	nop
    1f60:	1000000c 	b	1f94 <n30_bne_test+0x1f94>
    1f64:	00000000 	nop
    1f68:	00000000 	nop
    1f6c:	00000021 	move	zero,zero
    1f70:	00000021 	move	zero,zero
    1f74:	00000021 	move	zero,zero
    1f78:	00000021 	move	zero,zero
    1f7c:	00000021 	move	zero,zero
    1f80:	00000021 	move	zero,zero
    1f84:	00000021 	move	zero,zero
    1f88:	00000021 	move	zero,zero
    1f8c:	3c128677 	lui	s2,0x8677
    1f90:	36522cbc 	ori	s2,s2,0x2cbc
    1f94:	00000000 	nop
    1f98:	3c14bf63 	lui	s4,0xbf63
    1f9c:	36941b72 	ori	s4,s4,0x1b72
    1fa0:	16143b1c 	bne	s0,s4,10c14 <inst_error>
    1fa4:	00000000 	nop
    1fa8:	00000000 	nop
    1fac:	3c158677 	lui	s5,0x8677
    1fb0:	36b52cbc 	ori	s5,s5,0x2cbc
    1fb4:	16553b17 	bne	s2,s5,10c14 <inst_error>
    1fb8:	00000000 	nop
    1fbc:	00000000 	nop
    1fc0:	3c0c3735 	lui	t4,0x3735
    1fc4:	358c6d80 	ori	t4,t4,0x6d80
    1fc8:	3c0d3fda 	lui	t5,0x3fda
    1fcc:	35ad89f8 	ori	t5,t5,0x89f8
    1fd0:	24100000 	li	s0,0
    1fd4:	10000016 	b	2030 <n30_bne_test+0x2030>
    1fd8:	24120000 	li	s2,0
    1fdc:	00000000 	nop
    1fe0:	3c103735 	lui	s0,0x3735
    1fe4:	15280023 	bne	t1,t0,2074 <n30_bne_test+0x2074>
    1fe8:	36106d80 	ori	s0,s0,0x6d80
    1fec:	10000023 	b	207c <n30_bne_test+0x207c>
    1ff0:	00000000 	nop
    1ff4:	00000000 	nop
    1ff8:	00000021 	move	zero,zero
    1ffc:	00000021 	move	zero,zero
    2000:	00000021 	move	zero,zero
    2004:	00000021 	move	zero,zero
    2008:	00000021 	move	zero,zero
    200c:	00000021 	move	zero,zero
    2010:	00000021 	move	zero,zero
    2014:	00000021 	move	zero,zero
    2018:	00000021 	move	zero,zero
    201c:	00000021 	move	zero,zero
    2020:	00000021 	move	zero,zero
    2024:	00000021 	move	zero,zero
    2028:	00000021 	move	zero,zero
    202c:	00000021 	move	zero,zero
    2030:	3c08dde8 	lui	t0,0xdde8
    2034:	3508ccf2 	ori	t0,t0,0xccf2
    2038:	3c098f0c 	lui	t1,0x8f0c
    203c:	3529bb6f 	ori	t1,t1,0xbb6f
    2040:	1509ffe7 	bne	t0,t1,1fe0 <n30_bne_test+0x1fe0>
    2044:	00000000 	nop
    2048:	1000000c 	b	207c <n30_bne_test+0x207c>
    204c:	00000000 	nop
    2050:	00000000 	nop
    2054:	00000021 	move	zero,zero
    2058:	00000021 	move	zero,zero
    205c:	00000021 	move	zero,zero
    2060:	00000021 	move	zero,zero
    2064:	00000021 	move	zero,zero
    2068:	00000021 	move	zero,zero
    206c:	00000021 	move	zero,zero
    2070:	00000021 	move	zero,zero
    2074:	3c123fda 	lui	s2,0x3fda
    2078:	365289f8 	ori	s2,s2,0x89f8
    207c:	00000000 	nop
    2080:	3c143735 	lui	s4,0x3735
    2084:	36946d80 	ori	s4,s4,0x6d80
    2088:	16143ae2 	bne	s0,s4,10c14 <inst_error>
    208c:	00000000 	nop
    2090:	00000000 	nop
    2094:	3c153fda 	lui	s5,0x3fda
    2098:	36b589f8 	ori	s5,s5,0x89f8
    209c:	16553add 	bne	s2,s5,10c14 <inst_error>
    20a0:	00000000 	nop
    20a4:	00000000 	nop
    20a8:	3c0c030e 	lui	t4,0x30e
    20ac:	358ceb24 	ori	t4,t4,0xeb24
    20b0:	3c0d148c 	lui	t5,0x148c
    20b4:	35ad7301 	ori	t5,t5,0x7301
    20b8:	24100000 	li	s0,0
    20bc:	10000016 	b	2118 <n30_bne_test+0x2118>
    20c0:	24120000 	li	s2,0
    20c4:	00000000 	nop
    20c8:	3c10030e 	lui	s0,0x30e
    20cc:	15280023 	bne	t1,t0,215c <n30_bne_test+0x215c>
    20d0:	3610eb24 	ori	s0,s0,0xeb24
    20d4:	10000023 	b	2164 <n30_bne_test+0x2164>
    20d8:	00000000 	nop
    20dc:	00000000 	nop
    20e0:	00000021 	move	zero,zero
    20e4:	00000021 	move	zero,zero
    20e8:	00000021 	move	zero,zero
    20ec:	00000021 	move	zero,zero
    20f0:	00000021 	move	zero,zero
    20f4:	00000021 	move	zero,zero
    20f8:	00000021 	move	zero,zero
    20fc:	00000021 	move	zero,zero
    2100:	00000021 	move	zero,zero
    2104:	00000021 	move	zero,zero
    2108:	00000021 	move	zero,zero
    210c:	00000021 	move	zero,zero
    2110:	00000021 	move	zero,zero
    2114:	00000021 	move	zero,zero
    2118:	3c080765 	lui	t0,0x765
    211c:	3508a5c0 	ori	t0,t0,0xa5c0
    2120:	3c09cfab 	lui	t1,0xcfab
    2124:	35294ad7 	ori	t1,t1,0x4ad7
    2128:	1509ffe7 	bne	t0,t1,20c8 <n30_bne_test+0x20c8>
    212c:	00000000 	nop
    2130:	1000000c 	b	2164 <n30_bne_test+0x2164>
    2134:	00000000 	nop
    2138:	00000000 	nop
    213c:	00000021 	move	zero,zero
    2140:	00000021 	move	zero,zero
    2144:	00000021 	move	zero,zero
    2148:	00000021 	move	zero,zero
    214c:	00000021 	move	zero,zero
    2150:	00000021 	move	zero,zero
    2154:	00000021 	move	zero,zero
    2158:	00000021 	move	zero,zero
    215c:	3c12148c 	lui	s2,0x148c
    2160:	36527301 	ori	s2,s2,0x7301
    2164:	00000000 	nop
    2168:	3c14030e 	lui	s4,0x30e
    216c:	3694eb24 	ori	s4,s4,0xeb24
    2170:	16143aa8 	bne	s0,s4,10c14 <inst_error>
    2174:	00000000 	nop
    2178:	00000000 	nop
    217c:	3c15148c 	lui	s5,0x148c
    2180:	36b57301 	ori	s5,s5,0x7301
    2184:	16553aa3 	bne	s2,s5,10c14 <inst_error>
    2188:	00000000 	nop
    218c:	00000000 	nop
    2190:	3c0ce76b 	lui	t4,0xe76b
    2194:	358c9dfe 	ori	t4,t4,0x9dfe
    2198:	3c0ddbaf 	lui	t5,0xdbaf
    219c:	35ada780 	ori	t5,t5,0xa780
    21a0:	24100000 	li	s0,0
    21a4:	10000016 	b	2200 <n30_bne_test+0x2200>
    21a8:	24120000 	li	s2,0
    21ac:	00000000 	nop
    21b0:	3c10e76b 	lui	s0,0xe76b
    21b4:	15280023 	bne	t1,t0,2244 <n30_bne_test+0x2244>
    21b8:	36109dfe 	ori	s0,s0,0x9dfe
    21bc:	10000023 	b	224c <n30_bne_test+0x224c>
    21c0:	00000000 	nop
    21c4:	00000000 	nop
    21c8:	00000021 	move	zero,zero
    21cc:	00000021 	move	zero,zero
    21d0:	00000021 	move	zero,zero
    21d4:	00000021 	move	zero,zero
    21d8:	00000021 	move	zero,zero
    21dc:	00000021 	move	zero,zero
    21e0:	00000021 	move	zero,zero
    21e4:	00000021 	move	zero,zero
    21e8:	00000021 	move	zero,zero
    21ec:	00000021 	move	zero,zero
    21f0:	00000021 	move	zero,zero
    21f4:	00000021 	move	zero,zero
    21f8:	00000021 	move	zero,zero
    21fc:	00000021 	move	zero,zero
    2200:	3c0806f5 	lui	t0,0x6f5
    2204:	350861f8 	ori	t0,t0,0x61f8
    2208:	3c09b7b9 	lui	t1,0xb7b9
    220c:	35291d7a 	ori	t1,t1,0x1d7a
    2210:	1509ffe7 	bne	t0,t1,21b0 <n30_bne_test+0x21b0>
    2214:	00000000 	nop
    2218:	1000000c 	b	224c <n30_bne_test+0x224c>
    221c:	00000000 	nop
    2220:	00000000 	nop
    2224:	00000021 	move	zero,zero
    2228:	00000021 	move	zero,zero
    222c:	00000021 	move	zero,zero
    2230:	00000021 	move	zero,zero
    2234:	00000021 	move	zero,zero
    2238:	00000021 	move	zero,zero
    223c:	00000021 	move	zero,zero
    2240:	00000021 	move	zero,zero
    2244:	3c12dbaf 	lui	s2,0xdbaf
    2248:	3652a780 	ori	s2,s2,0xa780
    224c:	00000000 	nop
    2250:	3c14e76b 	lui	s4,0xe76b
    2254:	36949dfe 	ori	s4,s4,0x9dfe
    2258:	16143a6e 	bne	s0,s4,10c14 <inst_error>
    225c:	00000000 	nop
    2260:	00000000 	nop
    2264:	3c15dbaf 	lui	s5,0xdbaf
    2268:	36b5a780 	ori	s5,s5,0xa780
    226c:	16553a69 	bne	s2,s5,10c14 <inst_error>
    2270:	00000000 	nop
    2274:	00000000 	nop
    2278:	3c0c9d91 	lui	t4,0x9d91
    227c:	358cd900 	ori	t4,t4,0xd900
    2280:	3c0d6eb1 	lui	t5,0x6eb1
    2284:	35ad4fc8 	ori	t5,t5,0x4fc8
    2288:	24100000 	li	s0,0
    228c:	10000016 	b	22e8 <n30_bne_test+0x22e8>
    2290:	24120000 	li	s2,0
    2294:	00000000 	nop
    2298:	3c109d91 	lui	s0,0x9d91
    229c:	15280023 	bne	t1,t0,232c <n30_bne_test+0x232c>
    22a0:	3610d900 	ori	s0,s0,0xd900
    22a4:	10000023 	b	2334 <n30_bne_test+0x2334>
    22a8:	00000000 	nop
    22ac:	00000000 	nop
    22b0:	00000021 	move	zero,zero
    22b4:	00000021 	move	zero,zero
    22b8:	00000021 	move	zero,zero
    22bc:	00000021 	move	zero,zero
    22c0:	00000021 	move	zero,zero
    22c4:	00000021 	move	zero,zero
    22c8:	00000021 	move	zero,zero
    22cc:	00000021 	move	zero,zero
    22d0:	00000021 	move	zero,zero
    22d4:	00000021 	move	zero,zero
    22d8:	00000021 	move	zero,zero
    22dc:	00000021 	move	zero,zero
    22e0:	00000021 	move	zero,zero
    22e4:	00000021 	move	zero,zero
    22e8:	3c086a4e 	lui	t0,0x6a4e
    22ec:	35083a0e 	ori	t0,t0,0x3a0e
    22f0:	3c0937cf 	lui	t1,0x37cf
    22f4:	352911c0 	ori	t1,t1,0x11c0
    22f8:	1509ffe7 	bne	t0,t1,2298 <n30_bne_test+0x2298>
    22fc:	00000000 	nop
    2300:	1000000c 	b	2334 <n30_bne_test+0x2334>
    2304:	00000000 	nop
    2308:	00000000 	nop
    230c:	00000021 	move	zero,zero
    2310:	00000021 	move	zero,zero
    2314:	00000021 	move	zero,zero
    2318:	00000021 	move	zero,zero
    231c:	00000021 	move	zero,zero
    2320:	00000021 	move	zero,zero
    2324:	00000021 	move	zero,zero
    2328:	00000021 	move	zero,zero
    232c:	3c126eb1 	lui	s2,0x6eb1
    2330:	36524fc8 	ori	s2,s2,0x4fc8
    2334:	00000000 	nop
    2338:	3c149d91 	lui	s4,0x9d91
    233c:	3694d900 	ori	s4,s4,0xd900
    2340:	16143a34 	bne	s0,s4,10c14 <inst_error>
    2344:	00000000 	nop
    2348:	00000000 	nop
    234c:	3c156eb1 	lui	s5,0x6eb1
    2350:	36b54fc8 	ori	s5,s5,0x4fc8
    2354:	16553a2f 	bne	s2,s5,10c14 <inst_error>
    2358:	00000000 	nop
    235c:	00000000 	nop
    2360:	3c0cf799 	lui	t4,0xf799
    2364:	358c5cb0 	ori	t4,t4,0x5cb0
    2368:	3c0d96c1 	lui	t5,0x96c1
    236c:	35ad87b8 	ori	t5,t5,0x87b8
    2370:	24100000 	li	s0,0
    2374:	10000016 	b	23d0 <n30_bne_test+0x23d0>
    2378:	24120000 	li	s2,0
    237c:	00000000 	nop
    2380:	3c10f799 	lui	s0,0xf799
    2384:	15280023 	bne	t1,t0,2414 <n30_bne_test+0x2414>
    2388:	36105cb0 	ori	s0,s0,0x5cb0
    238c:	10000023 	b	241c <n30_bne_test+0x241c>
    2390:	00000000 	nop
    2394:	00000000 	nop
    2398:	00000021 	move	zero,zero
    239c:	00000021 	move	zero,zero
    23a0:	00000021 	move	zero,zero
    23a4:	00000021 	move	zero,zero
    23a8:	00000021 	move	zero,zero
    23ac:	00000021 	move	zero,zero
    23b0:	00000021 	move	zero,zero
    23b4:	00000021 	move	zero,zero
    23b8:	00000021 	move	zero,zero
    23bc:	00000021 	move	zero,zero
    23c0:	00000021 	move	zero,zero
    23c4:	00000021 	move	zero,zero
    23c8:	00000021 	move	zero,zero
    23cc:	00000021 	move	zero,zero
    23d0:	3c082e15 	lui	t0,0x2e15
    23d4:	35088d90 	ori	t0,t0,0x8d90
    23d8:	3c09bedb 	lui	t1,0xbedb
    23dc:	3529266f 	ori	t1,t1,0x266f
    23e0:	1509ffe7 	bne	t0,t1,2380 <n30_bne_test+0x2380>
    23e4:	00000000 	nop
    23e8:	1000000c 	b	241c <n30_bne_test+0x241c>
    23ec:	00000000 	nop
    23f0:	00000000 	nop
    23f4:	00000021 	move	zero,zero
    23f8:	00000021 	move	zero,zero
    23fc:	00000021 	move	zero,zero
    2400:	00000021 	move	zero,zero
    2404:	00000021 	move	zero,zero
    2408:	00000021 	move	zero,zero
    240c:	00000021 	move	zero,zero
    2410:	00000021 	move	zero,zero
    2414:	3c1296c1 	lui	s2,0x96c1
    2418:	365287b8 	ori	s2,s2,0x87b8
    241c:	00000000 	nop
    2420:	3c14f799 	lui	s4,0xf799
    2424:	36945cb0 	ori	s4,s4,0x5cb0
    2428:	161439fa 	bne	s0,s4,10c14 <inst_error>
    242c:	00000000 	nop
    2430:	00000000 	nop
    2434:	3c1596c1 	lui	s5,0x96c1
    2438:	36b587b8 	ori	s5,s5,0x87b8
    243c:	165539f5 	bne	s2,s5,10c14 <inst_error>
    2440:	00000000 	nop
    2444:	00000000 	nop
    2448:	3c0c9cd6 	lui	t4,0x9cd6
    244c:	358c6080 	ori	t4,t4,0x6080
    2450:	3c0de283 	lui	t5,0xe283
    2454:	35ad1414 	ori	t5,t5,0x1414
    2458:	24100000 	li	s0,0
    245c:	10000016 	b	24b8 <n30_bne_test+0x24b8>
    2460:	24120000 	li	s2,0
    2464:	00000000 	nop
    2468:	3c109cd6 	lui	s0,0x9cd6
    246c:	15280023 	bne	t1,t0,24fc <n30_bne_test+0x24fc>
    2470:	36106080 	ori	s0,s0,0x6080
    2474:	10000023 	b	2504 <n30_bne_test+0x2504>
    2478:	00000000 	nop
    247c:	00000000 	nop
    2480:	00000021 	move	zero,zero
    2484:	00000021 	move	zero,zero
    2488:	00000021 	move	zero,zero
    248c:	00000021 	move	zero,zero
    2490:	00000021 	move	zero,zero
    2494:	00000021 	move	zero,zero
    2498:	00000021 	move	zero,zero
    249c:	00000021 	move	zero,zero
    24a0:	00000021 	move	zero,zero
    24a4:	00000021 	move	zero,zero
    24a8:	00000021 	move	zero,zero
    24ac:	00000021 	move	zero,zero
    24b0:	00000021 	move	zero,zero
    24b4:	00000021 	move	zero,zero
    24b8:	3c08eda0 	lui	t0,0xeda0
    24bc:	35083d68 	ori	t0,t0,0x3d68
    24c0:	3c098b59 	lui	t1,0x8b59
    24c4:	352913ac 	ori	t1,t1,0x13ac
    24c8:	1509ffe7 	bne	t0,t1,2468 <n30_bne_test+0x2468>
    24cc:	00000000 	nop
    24d0:	1000000c 	b	2504 <n30_bne_test+0x2504>
    24d4:	00000000 	nop
    24d8:	00000000 	nop
    24dc:	00000021 	move	zero,zero
    24e0:	00000021 	move	zero,zero
    24e4:	00000021 	move	zero,zero
    24e8:	00000021 	move	zero,zero
    24ec:	00000021 	move	zero,zero
    24f0:	00000021 	move	zero,zero
    24f4:	00000021 	move	zero,zero
    24f8:	00000021 	move	zero,zero
    24fc:	3c12e283 	lui	s2,0xe283
    2500:	36521414 	ori	s2,s2,0x1414
    2504:	00000000 	nop
    2508:	3c149cd6 	lui	s4,0x9cd6
    250c:	36946080 	ori	s4,s4,0x6080
    2510:	161439c0 	bne	s0,s4,10c14 <inst_error>
    2514:	00000000 	nop
    2518:	00000000 	nop
    251c:	3c15e283 	lui	s5,0xe283
    2520:	36b51414 	ori	s5,s5,0x1414
    2524:	165539bb 	bne	s2,s5,10c14 <inst_error>
    2528:	00000000 	nop
    252c:	00000000 	nop
    2530:	3c0c6b03 	lui	t4,0x6b03
    2534:	358cdffe 	ori	t4,t4,0xdffe
    2538:	3c0dd22b 	lui	t5,0xd22b
    253c:	35ad8118 	ori	t5,t5,0x8118
    2540:	24100000 	li	s0,0
    2544:	10000016 	b	25a0 <n30_bne_test+0x25a0>
    2548:	24120000 	li	s2,0
    254c:	00000000 	nop
    2550:	3c106b03 	lui	s0,0x6b03
    2554:	15280023 	bne	t1,t0,25e4 <n30_bne_test+0x25e4>
    2558:	3610dffe 	ori	s0,s0,0xdffe
    255c:	10000023 	b	25ec <n30_bne_test+0x25ec>
    2560:	00000000 	nop
    2564:	00000000 	nop
    2568:	00000021 	move	zero,zero
    256c:	00000021 	move	zero,zero
    2570:	00000021 	move	zero,zero
    2574:	00000021 	move	zero,zero
    2578:	00000021 	move	zero,zero
    257c:	00000021 	move	zero,zero
    2580:	00000021 	move	zero,zero
    2584:	00000021 	move	zero,zero
    2588:	00000021 	move	zero,zero
    258c:	00000021 	move	zero,zero
    2590:	00000021 	move	zero,zero
    2594:	00000021 	move	zero,zero
    2598:	00000021 	move	zero,zero
    259c:	00000021 	move	zero,zero
    25a0:	3c085c94 	lui	t0,0x5c94
    25a4:	350895a4 	ori	t0,t0,0x95a4
    25a8:	3c098b3d 	lui	t1,0x8b3d
    25ac:	3529cd68 	ori	t1,t1,0xcd68
    25b0:	1509ffe7 	bne	t0,t1,2550 <n30_bne_test+0x2550>
    25b4:	00000000 	nop
    25b8:	1000000c 	b	25ec <n30_bne_test+0x25ec>
    25bc:	00000000 	nop
    25c0:	00000000 	nop
    25c4:	00000021 	move	zero,zero
    25c8:	00000021 	move	zero,zero
    25cc:	00000021 	move	zero,zero
    25d0:	00000021 	move	zero,zero
    25d4:	00000021 	move	zero,zero
    25d8:	00000021 	move	zero,zero
    25dc:	00000021 	move	zero,zero
    25e0:	00000021 	move	zero,zero
    25e4:	3c12d22b 	lui	s2,0xd22b
    25e8:	36528118 	ori	s2,s2,0x8118
    25ec:	00000000 	nop
    25f0:	3c146b03 	lui	s4,0x6b03
    25f4:	3694dffe 	ori	s4,s4,0xdffe
    25f8:	16143986 	bne	s0,s4,10c14 <inst_error>
    25fc:	00000000 	nop
    2600:	00000000 	nop
    2604:	3c15d22b 	lui	s5,0xd22b
    2608:	36b58118 	ori	s5,s5,0x8118
    260c:	16553981 	bne	s2,s5,10c14 <inst_error>
    2610:	00000000 	nop
    2614:	00000000 	nop
    2618:	3c0cb95f 	lui	t4,0xb95f
    261c:	358c9100 	ori	t4,t4,0x9100
    2620:	3c0d6522 	lui	t5,0x6522
    2624:	35ad86ba 	ori	t5,t5,0x86ba
    2628:	24100000 	li	s0,0
    262c:	10000016 	b	2688 <n30_bne_test+0x2688>
    2630:	24120000 	li	s2,0
    2634:	00000000 	nop
    2638:	3c10b95f 	lui	s0,0xb95f
    263c:	15280023 	bne	t1,t0,26cc <n30_bne_test+0x26cc>
    2640:	36109100 	ori	s0,s0,0x9100
    2644:	10000023 	b	26d4 <n30_bne_test+0x26d4>
    2648:	00000000 	nop
    264c:	00000000 	nop
    2650:	00000021 	move	zero,zero
    2654:	00000021 	move	zero,zero
    2658:	00000021 	move	zero,zero
    265c:	00000021 	move	zero,zero
    2660:	00000021 	move	zero,zero
    2664:	00000021 	move	zero,zero
    2668:	00000021 	move	zero,zero
    266c:	00000021 	move	zero,zero
    2670:	00000021 	move	zero,zero
    2674:	00000021 	move	zero,zero
    2678:	00000021 	move	zero,zero
    267c:	00000021 	move	zero,zero
    2680:	00000021 	move	zero,zero
    2684:	00000021 	move	zero,zero
    2688:	3c08ba0e 	lui	t0,0xba0e
    268c:	3508a6fe 	ori	t0,t0,0xa6fe
    2690:	3c09861b 	lui	t1,0x861b
    2694:	352965a8 	ori	t1,t1,0x65a8
    2698:	1509ffe7 	bne	t0,t1,2638 <n30_bne_test+0x2638>
    269c:	00000000 	nop
    26a0:	1000000c 	b	26d4 <n30_bne_test+0x26d4>
    26a4:	00000000 	nop
    26a8:	00000000 	nop
    26ac:	00000021 	move	zero,zero
    26b0:	00000021 	move	zero,zero
    26b4:	00000021 	move	zero,zero
    26b8:	00000021 	move	zero,zero
    26bc:	00000021 	move	zero,zero
    26c0:	00000021 	move	zero,zero
    26c4:	00000021 	move	zero,zero
    26c8:	00000021 	move	zero,zero
    26cc:	3c126522 	lui	s2,0x6522
    26d0:	365286ba 	ori	s2,s2,0x86ba
    26d4:	00000000 	nop
    26d8:	3c14b95f 	lui	s4,0xb95f
    26dc:	36949100 	ori	s4,s4,0x9100
    26e0:	1614394c 	bne	s0,s4,10c14 <inst_error>
    26e4:	00000000 	nop
    26e8:	00000000 	nop
    26ec:	3c156522 	lui	s5,0x6522
    26f0:	36b586ba 	ori	s5,s5,0x86ba
    26f4:	16553947 	bne	s2,s5,10c14 <inst_error>
    26f8:	00000000 	nop
    26fc:	00000000 	nop
    2700:	3c0c3437 	lui	t4,0x3437
    2704:	358c3160 	ori	t4,t4,0x3160
    2708:	3c0d37d5 	lui	t5,0x37d5
    270c:	35ad6f90 	ori	t5,t5,0x6f90
    2710:	24100000 	li	s0,0
    2714:	10000016 	b	2770 <n30_bne_test+0x2770>
    2718:	24120000 	li	s2,0
    271c:	00000000 	nop
    2720:	3c103437 	lui	s0,0x3437
    2724:	15280023 	bne	t1,t0,27b4 <n30_bne_test+0x27b4>
    2728:	36103160 	ori	s0,s0,0x3160
    272c:	10000023 	b	27bc <n30_bne_test+0x27bc>
    2730:	00000000 	nop
    2734:	00000000 	nop
    2738:	00000021 	move	zero,zero
    273c:	00000021 	move	zero,zero
    2740:	00000021 	move	zero,zero
    2744:	00000021 	move	zero,zero
    2748:	00000021 	move	zero,zero
    274c:	00000021 	move	zero,zero
    2750:	00000021 	move	zero,zero
    2754:	00000021 	move	zero,zero
    2758:	00000021 	move	zero,zero
    275c:	00000021 	move	zero,zero
    2760:	00000021 	move	zero,zero
    2764:	00000021 	move	zero,zero
    2768:	00000021 	move	zero,zero
    276c:	00000021 	move	zero,zero
    2770:	3c08cd8e 	lui	t0,0xcd8e
    2774:	3508e226 	ori	t0,t0,0xe226
    2778:	3c096e69 	lui	t1,0x6e69
    277c:	35292b22 	ori	t1,t1,0x2b22
    2780:	1509ffe7 	bne	t0,t1,2720 <n30_bne_test+0x2720>
    2784:	00000000 	nop
    2788:	1000000c 	b	27bc <n30_bne_test+0x27bc>
    278c:	00000000 	nop
    2790:	00000000 	nop
    2794:	00000021 	move	zero,zero
    2798:	00000021 	move	zero,zero
    279c:	00000021 	move	zero,zero
    27a0:	00000021 	move	zero,zero
    27a4:	00000021 	move	zero,zero
    27a8:	00000021 	move	zero,zero
    27ac:	00000021 	move	zero,zero
    27b0:	00000021 	move	zero,zero
    27b4:	3c1237d5 	lui	s2,0x37d5
    27b8:	36526f90 	ori	s2,s2,0x6f90
    27bc:	00000000 	nop
    27c0:	3c143437 	lui	s4,0x3437
    27c4:	36943160 	ori	s4,s4,0x3160
    27c8:	16143912 	bne	s0,s4,10c14 <inst_error>
    27cc:	00000000 	nop
    27d0:	00000000 	nop
    27d4:	3c1537d5 	lui	s5,0x37d5
    27d8:	36b56f90 	ori	s5,s5,0x6f90
    27dc:	1655390d 	bne	s2,s5,10c14 <inst_error>
    27e0:	00000000 	nop
    27e4:	00000000 	nop
    27e8:	3c0c8266 	lui	t4,0x8266
    27ec:	358cf858 	ori	t4,t4,0xf858
    27f0:	3c0d117a 	lui	t5,0x117a
    27f4:	35ad2724 	ori	t5,t5,0x2724
    27f8:	24100000 	li	s0,0
    27fc:	10000016 	b	2858 <n30_bne_test+0x2858>
    2800:	24120000 	li	s2,0
    2804:	00000000 	nop
    2808:	3c108266 	lui	s0,0x8266
    280c:	15280023 	bne	t1,t0,289c <n30_bne_test+0x289c>
    2810:	3610f858 	ori	s0,s0,0xf858
    2814:	10000023 	b	28a4 <n30_bne_test+0x28a4>
    2818:	00000000 	nop
    281c:	00000000 	nop
    2820:	00000021 	move	zero,zero
    2824:	00000021 	move	zero,zero
    2828:	00000021 	move	zero,zero
    282c:	00000021 	move	zero,zero
    2830:	00000021 	move	zero,zero
    2834:	00000021 	move	zero,zero
    2838:	00000021 	move	zero,zero
    283c:	00000021 	move	zero,zero
    2840:	00000021 	move	zero,zero
    2844:	00000021 	move	zero,zero
    2848:	00000021 	move	zero,zero
    284c:	00000021 	move	zero,zero
    2850:	00000021 	move	zero,zero
    2854:	00000021 	move	zero,zero
    2858:	3c083b52 	lui	t0,0x3b52
    285c:	350821a0 	ori	t0,t0,0x21a0
    2860:	3c09eced 	lui	t1,0xeced
    2864:	3529d8e8 	ori	t1,t1,0xd8e8
    2868:	1509ffe7 	bne	t0,t1,2808 <n30_bne_test+0x2808>
    286c:	00000000 	nop
    2870:	1000000c 	b	28a4 <n30_bne_test+0x28a4>
    2874:	00000000 	nop
    2878:	00000000 	nop
    287c:	00000021 	move	zero,zero
    2880:	00000021 	move	zero,zero
    2884:	00000021 	move	zero,zero
    2888:	00000021 	move	zero,zero
    288c:	00000021 	move	zero,zero
    2890:	00000021 	move	zero,zero
    2894:	00000021 	move	zero,zero
    2898:	00000021 	move	zero,zero
    289c:	3c12117a 	lui	s2,0x117a
    28a0:	36522724 	ori	s2,s2,0x2724
    28a4:	00000000 	nop
    28a8:	3c148266 	lui	s4,0x8266
    28ac:	3694f858 	ori	s4,s4,0xf858
    28b0:	161438d8 	bne	s0,s4,10c14 <inst_error>
    28b4:	00000000 	nop
    28b8:	00000000 	nop
    28bc:	3c15117a 	lui	s5,0x117a
    28c0:	36b52724 	ori	s5,s5,0x2724
    28c4:	165538d3 	bne	s2,s5,10c14 <inst_error>
    28c8:	00000000 	nop
    28cc:	00000000 	nop
    28d0:	3c0cbbc6 	lui	t4,0xbbc6
    28d4:	358cc61c 	ori	t4,t4,0xc61c
    28d8:	3c0d5916 	lui	t5,0x5916
    28dc:	35ad4300 	ori	t5,t5,0x4300
    28e0:	24100000 	li	s0,0
    28e4:	10000016 	b	2940 <n30_bne_test+0x2940>
    28e8:	24120000 	li	s2,0
    28ec:	00000000 	nop
    28f0:	3c10bbc6 	lui	s0,0xbbc6
    28f4:	15280023 	bne	t1,t0,2984 <n30_bne_test+0x2984>
    28f8:	3610c61c 	ori	s0,s0,0xc61c
    28fc:	10000023 	b	298c <n30_bne_test+0x298c>
    2900:	00000000 	nop
    2904:	00000000 	nop
    2908:	00000021 	move	zero,zero
    290c:	00000021 	move	zero,zero
    2910:	00000021 	move	zero,zero
    2914:	00000021 	move	zero,zero
    2918:	00000021 	move	zero,zero
    291c:	00000021 	move	zero,zero
    2920:	00000021 	move	zero,zero
    2924:	00000021 	move	zero,zero
    2928:	00000021 	move	zero,zero
    292c:	00000021 	move	zero,zero
    2930:	00000021 	move	zero,zero
    2934:	00000021 	move	zero,zero
    2938:	00000021 	move	zero,zero
    293c:	00000021 	move	zero,zero
    2940:	3c080d47 	lui	t0,0xd47
    2944:	35089ce0 	ori	t0,t0,0x9ce0
    2948:	3c092a73 	lui	t1,0x2a73
    294c:	35292152 	ori	t1,t1,0x2152
    2950:	1509ffe7 	bne	t0,t1,28f0 <n30_bne_test+0x28f0>
    2954:	00000000 	nop
    2958:	1000000c 	b	298c <n30_bne_test+0x298c>
    295c:	00000000 	nop
    2960:	00000000 	nop
    2964:	00000021 	move	zero,zero
    2968:	00000021 	move	zero,zero
    296c:	00000021 	move	zero,zero
    2970:	00000021 	move	zero,zero
    2974:	00000021 	move	zero,zero
    2978:	00000021 	move	zero,zero
    297c:	00000021 	move	zero,zero
    2980:	00000021 	move	zero,zero
    2984:	3c125916 	lui	s2,0x5916
    2988:	36524300 	ori	s2,s2,0x4300
    298c:	00000000 	nop
    2990:	3c14bbc6 	lui	s4,0xbbc6
    2994:	3694c61c 	ori	s4,s4,0xc61c
    2998:	1614389e 	bne	s0,s4,10c14 <inst_error>
    299c:	00000000 	nop
    29a0:	00000000 	nop
    29a4:	3c155916 	lui	s5,0x5916
    29a8:	36b54300 	ori	s5,s5,0x4300
    29ac:	16553899 	bne	s2,s5,10c14 <inst_error>
    29b0:	00000000 	nop
    29b4:	00000000 	nop
    29b8:	3c0c8048 	lui	t4,0x8048
    29bc:	358c2a04 	ori	t4,t4,0x2a04
    29c0:	3c0d2af1 	lui	t5,0x2af1
    29c4:	35adaba0 	ori	t5,t5,0xaba0
    29c8:	24100000 	li	s0,0
    29cc:	10000016 	b	2a28 <n30_bne_test+0x2a28>
    29d0:	24120000 	li	s2,0
    29d4:	00000000 	nop
    29d8:	3c108048 	lui	s0,0x8048
    29dc:	15280023 	bne	t1,t0,2a6c <n30_bne_test+0x2a6c>
    29e0:	36102a04 	ori	s0,s0,0x2a04
    29e4:	10000023 	b	2a74 <n30_bne_test+0x2a74>
    29e8:	00000000 	nop
    29ec:	00000000 	nop
    29f0:	00000021 	move	zero,zero
    29f4:	00000021 	move	zero,zero
    29f8:	00000021 	move	zero,zero
    29fc:	00000021 	move	zero,zero
    2a00:	00000021 	move	zero,zero
    2a04:	00000021 	move	zero,zero
    2a08:	00000021 	move	zero,zero
    2a0c:	00000021 	move	zero,zero
    2a10:	00000021 	move	zero,zero
    2a14:	00000021 	move	zero,zero
    2a18:	00000021 	move	zero,zero
    2a1c:	00000021 	move	zero,zero
    2a20:	00000021 	move	zero,zero
    2a24:	00000021 	move	zero,zero
    2a28:	3c083e36 	lui	t0,0x3e36
    2a2c:	3508c5d0 	ori	t0,t0,0xc5d0
    2a30:	3c092885 	lui	t1,0x2885
    2a34:	3529b024 	ori	t1,t1,0xb024
    2a38:	1509ffe7 	bne	t0,t1,29d8 <n30_bne_test+0x29d8>
    2a3c:	00000000 	nop
    2a40:	1000000c 	b	2a74 <n30_bne_test+0x2a74>
    2a44:	00000000 	nop
    2a48:	00000000 	nop
    2a4c:	00000021 	move	zero,zero
    2a50:	00000021 	move	zero,zero
    2a54:	00000021 	move	zero,zero
    2a58:	00000021 	move	zero,zero
    2a5c:	00000021 	move	zero,zero
    2a60:	00000021 	move	zero,zero
    2a64:	00000021 	move	zero,zero
    2a68:	00000021 	move	zero,zero
    2a6c:	3c122af1 	lui	s2,0x2af1
    2a70:	3652aba0 	ori	s2,s2,0xaba0
    2a74:	00000000 	nop
    2a78:	3c148048 	lui	s4,0x8048
    2a7c:	36942a04 	ori	s4,s4,0x2a04
    2a80:	16143864 	bne	s0,s4,10c14 <inst_error>
    2a84:	00000000 	nop
    2a88:	00000000 	nop
    2a8c:	3c152af1 	lui	s5,0x2af1
    2a90:	36b5aba0 	ori	s5,s5,0xaba0
    2a94:	1655385f 	bne	s2,s5,10c14 <inst_error>
    2a98:	00000000 	nop
    2a9c:	00000000 	nop
    2aa0:	3c0cc559 	lui	t4,0xc559
    2aa4:	358cf440 	ori	t4,t4,0xf440
    2aa8:	3c0d473a 	lui	t5,0x473a
    2aac:	35ade964 	ori	t5,t5,0xe964
    2ab0:	24100000 	li	s0,0
    2ab4:	10000016 	b	2b10 <n30_bne_test+0x2b10>
    2ab8:	24120000 	li	s2,0
    2abc:	00000000 	nop
    2ac0:	3c10c559 	lui	s0,0xc559
    2ac4:	15280023 	bne	t1,t0,2b54 <n30_bne_test+0x2b54>
    2ac8:	3610f440 	ori	s0,s0,0xf440
    2acc:	10000023 	b	2b5c <n30_bne_test+0x2b5c>
    2ad0:	00000000 	nop
    2ad4:	00000000 	nop
    2ad8:	00000021 	move	zero,zero
    2adc:	00000021 	move	zero,zero
    2ae0:	00000021 	move	zero,zero
    2ae4:	00000021 	move	zero,zero
    2ae8:	00000021 	move	zero,zero
    2aec:	00000021 	move	zero,zero
    2af0:	00000021 	move	zero,zero
    2af4:	00000021 	move	zero,zero
    2af8:	00000021 	move	zero,zero
    2afc:	00000021 	move	zero,zero
    2b00:	00000021 	move	zero,zero
    2b04:	00000021 	move	zero,zero
    2b08:	00000021 	move	zero,zero
    2b0c:	00000021 	move	zero,zero
    2b10:	3c08fadc 	lui	t0,0xfadc
    2b14:	35081000 	ori	t0,t0,0x1000
    2b18:	3c09b582 	lui	t1,0xb582
    2b1c:	35290d38 	ori	t1,t1,0xd38
    2b20:	1509ffe7 	bne	t0,t1,2ac0 <n30_bne_test+0x2ac0>
    2b24:	00000000 	nop
    2b28:	1000000c 	b	2b5c <n30_bne_test+0x2b5c>
    2b2c:	00000000 	nop
    2b30:	00000000 	nop
    2b34:	00000021 	move	zero,zero
    2b38:	00000021 	move	zero,zero
    2b3c:	00000021 	move	zero,zero
    2b40:	00000021 	move	zero,zero
    2b44:	00000021 	move	zero,zero
    2b48:	00000021 	move	zero,zero
    2b4c:	00000021 	move	zero,zero
    2b50:	00000021 	move	zero,zero
    2b54:	3c12473a 	lui	s2,0x473a
    2b58:	3652e964 	ori	s2,s2,0xe964
    2b5c:	00000000 	nop
    2b60:	3c14c559 	lui	s4,0xc559
    2b64:	3694f440 	ori	s4,s4,0xf440
    2b68:	1614382a 	bne	s0,s4,10c14 <inst_error>
    2b6c:	00000000 	nop
    2b70:	00000000 	nop
    2b74:	3c15473a 	lui	s5,0x473a
    2b78:	36b5e964 	ori	s5,s5,0xe964
    2b7c:	16553825 	bne	s2,s5,10c14 <inst_error>
    2b80:	00000000 	nop
    2b84:	00000000 	nop
    2b88:	3c0ca852 	lui	t4,0xa852
    2b8c:	358c715d 	ori	t4,t4,0x715d
    2b90:	3c0dfb48 	lui	t5,0xfb48
    2b94:	35ad4c16 	ori	t5,t5,0x4c16
    2b98:	24100000 	li	s0,0
    2b9c:	10000016 	b	2bf8 <n30_bne_test+0x2bf8>
    2ba0:	24120000 	li	s2,0
    2ba4:	00000000 	nop
    2ba8:	3c10a852 	lui	s0,0xa852
    2bac:	15280023 	bne	t1,t0,2c3c <n30_bne_test+0x2c3c>
    2bb0:	3610715d 	ori	s0,s0,0x715d
    2bb4:	10000023 	b	2c44 <n30_bne_test+0x2c44>
    2bb8:	00000000 	nop
    2bbc:	00000000 	nop
    2bc0:	00000021 	move	zero,zero
    2bc4:	00000021 	move	zero,zero
    2bc8:	00000021 	move	zero,zero
    2bcc:	00000021 	move	zero,zero
    2bd0:	00000021 	move	zero,zero
    2bd4:	00000021 	move	zero,zero
    2bd8:	00000021 	move	zero,zero
    2bdc:	00000021 	move	zero,zero
    2be0:	00000021 	move	zero,zero
    2be4:	00000021 	move	zero,zero
    2be8:	00000021 	move	zero,zero
    2bec:	00000021 	move	zero,zero
    2bf0:	00000021 	move	zero,zero
    2bf4:	00000021 	move	zero,zero
    2bf8:	3c08ca71 	lui	t0,0xca71
    2bfc:	350898ec 	ori	t0,t0,0x98ec
    2c00:	3c0972d8 	lui	t1,0x72d8
    2c04:	352990f4 	ori	t1,t1,0x90f4
    2c08:	1509ffe7 	bne	t0,t1,2ba8 <n30_bne_test+0x2ba8>
    2c0c:	00000000 	nop
    2c10:	1000000c 	b	2c44 <n30_bne_test+0x2c44>
    2c14:	00000000 	nop
    2c18:	00000000 	nop
    2c1c:	00000021 	move	zero,zero
    2c20:	00000021 	move	zero,zero
    2c24:	00000021 	move	zero,zero
    2c28:	00000021 	move	zero,zero
    2c2c:	00000021 	move	zero,zero
    2c30:	00000021 	move	zero,zero
    2c34:	00000021 	move	zero,zero
    2c38:	00000021 	move	zero,zero
    2c3c:	3c12fb48 	lui	s2,0xfb48
    2c40:	36524c16 	ori	s2,s2,0x4c16
    2c44:	00000000 	nop
    2c48:	3c14a852 	lui	s4,0xa852
    2c4c:	3694715d 	ori	s4,s4,0x715d
    2c50:	161437f0 	bne	s0,s4,10c14 <inst_error>
    2c54:	00000000 	nop
    2c58:	00000000 	nop
    2c5c:	3c15fb48 	lui	s5,0xfb48
    2c60:	36b54c16 	ori	s5,s5,0x4c16
    2c64:	165537eb 	bne	s2,s5,10c14 <inst_error>
    2c68:	00000000 	nop
    2c6c:	00000000 	nop
    2c70:	3c0c2367 	lui	t4,0x2367
    2c74:	358c7418 	ori	t4,t4,0x7418
    2c78:	3c0d14a4 	lui	t5,0x14a4
    2c7c:	35ad1e50 	ori	t5,t5,0x1e50
    2c80:	24100000 	li	s0,0
    2c84:	10000016 	b	2ce0 <n30_bne_test+0x2ce0>
    2c88:	24120000 	li	s2,0
    2c8c:	00000000 	nop
    2c90:	3c102367 	lui	s0,0x2367
    2c94:	15280023 	bne	t1,t0,2d24 <n30_bne_test+0x2d24>
    2c98:	36107418 	ori	s0,s0,0x7418
    2c9c:	10000023 	b	2d2c <n30_bne_test+0x2d2c>
    2ca0:	00000000 	nop
    2ca4:	00000000 	nop
    2ca8:	00000021 	move	zero,zero
    2cac:	00000021 	move	zero,zero
    2cb0:	00000021 	move	zero,zero
    2cb4:	00000021 	move	zero,zero
    2cb8:	00000021 	move	zero,zero
    2cbc:	00000021 	move	zero,zero
    2cc0:	00000021 	move	zero,zero
    2cc4:	00000021 	move	zero,zero
    2cc8:	00000021 	move	zero,zero
    2ccc:	00000021 	move	zero,zero
    2cd0:	00000021 	move	zero,zero
    2cd4:	00000021 	move	zero,zero
    2cd8:	00000021 	move	zero,zero
    2cdc:	00000021 	move	zero,zero
    2ce0:	3c084a1a 	lui	t0,0x4a1a
    2ce4:	35082d02 	ori	t0,t0,0x2d02
    2ce8:	3c09bfc9 	lui	t1,0xbfc9
    2cec:	352959c2 	ori	t1,t1,0x59c2
    2cf0:	1509ffe7 	bne	t0,t1,2c90 <n30_bne_test+0x2c90>
    2cf4:	00000000 	nop
    2cf8:	1000000c 	b	2d2c <n30_bne_test+0x2d2c>
    2cfc:	00000000 	nop
    2d00:	00000000 	nop
    2d04:	00000021 	move	zero,zero
    2d08:	00000021 	move	zero,zero
    2d0c:	00000021 	move	zero,zero
    2d10:	00000021 	move	zero,zero
    2d14:	00000021 	move	zero,zero
    2d18:	00000021 	move	zero,zero
    2d1c:	00000021 	move	zero,zero
    2d20:	00000021 	move	zero,zero
    2d24:	3c1214a4 	lui	s2,0x14a4
    2d28:	36521e50 	ori	s2,s2,0x1e50
    2d2c:	00000000 	nop
    2d30:	3c142367 	lui	s4,0x2367
    2d34:	36947418 	ori	s4,s4,0x7418
    2d38:	161437b6 	bne	s0,s4,10c14 <inst_error>
    2d3c:	00000000 	nop
    2d40:	00000000 	nop
    2d44:	3c1514a4 	lui	s5,0x14a4
    2d48:	36b51e50 	ori	s5,s5,0x1e50
    2d4c:	165537b1 	bne	s2,s5,10c14 <inst_error>
    2d50:	00000000 	nop
    2d54:	00000000 	nop
    2d58:	3c0c8e9b 	lui	t4,0x8e9b
    2d5c:	358ca77c 	ori	t4,t4,0xa77c
    2d60:	3c0dfb95 	lui	t5,0xfb95
    2d64:	35ad02d0 	ori	t5,t5,0x2d0
    2d68:	24100000 	li	s0,0
    2d6c:	10000016 	b	2dc8 <n30_bne_test+0x2dc8>
    2d70:	24120000 	li	s2,0
    2d74:	00000000 	nop
    2d78:	3c108e9b 	lui	s0,0x8e9b
    2d7c:	15280023 	bne	t1,t0,2e0c <n30_bne_test+0x2e0c>
    2d80:	3610a77c 	ori	s0,s0,0xa77c
    2d84:	10000023 	b	2e14 <n30_bne_test+0x2e14>
    2d88:	00000000 	nop
    2d8c:	00000000 	nop
    2d90:	00000021 	move	zero,zero
    2d94:	00000021 	move	zero,zero
    2d98:	00000021 	move	zero,zero
    2d9c:	00000021 	move	zero,zero
    2da0:	00000021 	move	zero,zero
    2da4:	00000021 	move	zero,zero
    2da8:	00000021 	move	zero,zero
    2dac:	00000021 	move	zero,zero
    2db0:	00000021 	move	zero,zero
    2db4:	00000021 	move	zero,zero
    2db8:	00000021 	move	zero,zero
    2dbc:	00000021 	move	zero,zero
    2dc0:	00000021 	move	zero,zero
    2dc4:	00000021 	move	zero,zero
    2dc8:	3c0844c7 	lui	t0,0x44c7
    2dcc:	3508ec00 	ori	t0,t0,0xec00
    2dd0:	3c0981ed 	lui	t1,0x81ed
    2dd4:	3529ef8c 	ori	t1,t1,0xef8c
    2dd8:	1509ffe7 	bne	t0,t1,2d78 <n30_bne_test+0x2d78>
    2ddc:	00000000 	nop
    2de0:	1000000c 	b	2e14 <n30_bne_test+0x2e14>
    2de4:	00000000 	nop
    2de8:	00000000 	nop
    2dec:	00000021 	move	zero,zero
    2df0:	00000021 	move	zero,zero
    2df4:	00000021 	move	zero,zero
    2df8:	00000021 	move	zero,zero
    2dfc:	00000021 	move	zero,zero
    2e00:	00000021 	move	zero,zero
    2e04:	00000021 	move	zero,zero
    2e08:	00000021 	move	zero,zero
    2e0c:	3c12fb95 	lui	s2,0xfb95
    2e10:	365202d0 	ori	s2,s2,0x2d0
    2e14:	00000000 	nop
    2e18:	3c148e9b 	lui	s4,0x8e9b
    2e1c:	3694a77c 	ori	s4,s4,0xa77c
    2e20:	1614377c 	bne	s0,s4,10c14 <inst_error>
    2e24:	00000000 	nop
    2e28:	00000000 	nop
    2e2c:	3c15fb95 	lui	s5,0xfb95
    2e30:	36b502d0 	ori	s5,s5,0x2d0
    2e34:	16553777 	bne	s2,s5,10c14 <inst_error>
    2e38:	00000000 	nop
    2e3c:	00000000 	nop
    2e40:	3c0c97e3 	lui	t4,0x97e3
    2e44:	358c6390 	ori	t4,t4,0x6390
    2e48:	3c0d5ea5 	lui	t5,0x5ea5
    2e4c:	35ad57fc 	ori	t5,t5,0x57fc
    2e50:	24100000 	li	s0,0
    2e54:	10000016 	b	2eb0 <n30_bne_test+0x2eb0>
    2e58:	24120000 	li	s2,0
    2e5c:	00000000 	nop
    2e60:	3c1097e3 	lui	s0,0x97e3
    2e64:	15280023 	bne	t1,t0,2ef4 <n30_bne_test+0x2ef4>
    2e68:	36106390 	ori	s0,s0,0x6390
    2e6c:	10000023 	b	2efc <n30_bne_test+0x2efc>
    2e70:	00000000 	nop
    2e74:	00000000 	nop
    2e78:	00000021 	move	zero,zero
    2e7c:	00000021 	move	zero,zero
    2e80:	00000021 	move	zero,zero
    2e84:	00000021 	move	zero,zero
    2e88:	00000021 	move	zero,zero
    2e8c:	00000021 	move	zero,zero
    2e90:	00000021 	move	zero,zero
    2e94:	00000021 	move	zero,zero
    2e98:	00000021 	move	zero,zero
    2e9c:	00000021 	move	zero,zero
    2ea0:	00000021 	move	zero,zero
    2ea4:	00000021 	move	zero,zero
    2ea8:	00000021 	move	zero,zero
    2eac:	00000021 	move	zero,zero
    2eb0:	3c0896cf 	lui	t0,0x96cf
    2eb4:	35080050 	ori	t0,t0,0x50
    2eb8:	3c0948a2 	lui	t1,0x48a2
    2ebc:	35296648 	ori	t1,t1,0x6648
    2ec0:	1509ffe7 	bne	t0,t1,2e60 <n30_bne_test+0x2e60>
    2ec4:	00000000 	nop
    2ec8:	1000000c 	b	2efc <n30_bne_test+0x2efc>
    2ecc:	00000000 	nop
    2ed0:	00000000 	nop
    2ed4:	00000021 	move	zero,zero
    2ed8:	00000021 	move	zero,zero
    2edc:	00000021 	move	zero,zero
    2ee0:	00000021 	move	zero,zero
    2ee4:	00000021 	move	zero,zero
    2ee8:	00000021 	move	zero,zero
    2eec:	00000021 	move	zero,zero
    2ef0:	00000021 	move	zero,zero
    2ef4:	3c125ea5 	lui	s2,0x5ea5
    2ef8:	365257fc 	ori	s2,s2,0x57fc
    2efc:	00000000 	nop
    2f00:	3c1497e3 	lui	s4,0x97e3
    2f04:	36946390 	ori	s4,s4,0x6390
    2f08:	16143742 	bne	s0,s4,10c14 <inst_error>
    2f0c:	00000000 	nop
    2f10:	00000000 	nop
    2f14:	3c155ea5 	lui	s5,0x5ea5
    2f18:	36b557fc 	ori	s5,s5,0x57fc
    2f1c:	1655373d 	bne	s2,s5,10c14 <inst_error>
    2f20:	00000000 	nop
    2f24:	00000000 	nop
    2f28:	3c0c7262 	lui	t4,0x7262
    2f2c:	358c95bd 	ori	t4,t4,0x95bd
    2f30:	3c0d0cb5 	lui	t5,0xcb5
    2f34:	35ad5a66 	ori	t5,t5,0x5a66
    2f38:	24100000 	li	s0,0
    2f3c:	10000016 	b	2f98 <n30_bne_test+0x2f98>
    2f40:	24120000 	li	s2,0
    2f44:	00000000 	nop
    2f48:	3c107262 	lui	s0,0x7262
    2f4c:	15280023 	bne	t1,t0,2fdc <n30_bne_test+0x2fdc>
    2f50:	361095bd 	ori	s0,s0,0x95bd
    2f54:	10000023 	b	2fe4 <n30_bne_test+0x2fe4>
    2f58:	00000000 	nop
    2f5c:	00000000 	nop
    2f60:	00000021 	move	zero,zero
    2f64:	00000021 	move	zero,zero
    2f68:	00000021 	move	zero,zero
    2f6c:	00000021 	move	zero,zero
    2f70:	00000021 	move	zero,zero
    2f74:	00000021 	move	zero,zero
    2f78:	00000021 	move	zero,zero
    2f7c:	00000021 	move	zero,zero
    2f80:	00000021 	move	zero,zero
    2f84:	00000021 	move	zero,zero
    2f88:	00000021 	move	zero,zero
    2f8c:	00000021 	move	zero,zero
    2f90:	00000021 	move	zero,zero
    2f94:	00000021 	move	zero,zero
    2f98:	3c0841d5 	lui	t0,0x41d5
    2f9c:	35080de8 	ori	t0,t0,0xde8
    2fa0:	3c09095b 	lui	t1,0x95b
    2fa4:	3529ab30 	ori	t1,t1,0xab30
    2fa8:	1509ffe7 	bne	t0,t1,2f48 <n30_bne_test+0x2f48>
    2fac:	00000000 	nop
    2fb0:	1000000c 	b	2fe4 <n30_bne_test+0x2fe4>
    2fb4:	00000000 	nop
    2fb8:	00000000 	nop
    2fbc:	00000021 	move	zero,zero
    2fc0:	00000021 	move	zero,zero
    2fc4:	00000021 	move	zero,zero
    2fc8:	00000021 	move	zero,zero
    2fcc:	00000021 	move	zero,zero
    2fd0:	00000021 	move	zero,zero
    2fd4:	00000021 	move	zero,zero
    2fd8:	00000021 	move	zero,zero
    2fdc:	3c120cb5 	lui	s2,0xcb5
    2fe0:	36525a66 	ori	s2,s2,0x5a66
    2fe4:	00000000 	nop
    2fe8:	3c147262 	lui	s4,0x7262
    2fec:	369495bd 	ori	s4,s4,0x95bd
    2ff0:	16143708 	bne	s0,s4,10c14 <inst_error>
    2ff4:	00000000 	nop
    2ff8:	00000000 	nop
    2ffc:	3c150cb5 	lui	s5,0xcb5
    3000:	36b55a66 	ori	s5,s5,0x5a66
    3004:	16553703 	bne	s2,s5,10c14 <inst_error>
    3008:	00000000 	nop
    300c:	00000000 	nop
    3010:	3c0ce0c0 	lui	t4,0xe0c0
    3014:	358c6b84 	ori	t4,t4,0x6b84
    3018:	3c0d29d1 	lui	t5,0x29d1
    301c:	35ad0a00 	ori	t5,t5,0xa00
    3020:	24100000 	li	s0,0
    3024:	10000016 	b	3080 <n30_bne_test+0x3080>
    3028:	24120000 	li	s2,0
    302c:	00000000 	nop
    3030:	3c10e0c0 	lui	s0,0xe0c0
    3034:	15280023 	bne	t1,t0,30c4 <n30_bne_test+0x30c4>
    3038:	36106b84 	ori	s0,s0,0x6b84
    303c:	10000023 	b	30cc <n30_bne_test+0x30cc>
    3040:	00000000 	nop
    3044:	00000000 	nop
    3048:	00000021 	move	zero,zero
    304c:	00000021 	move	zero,zero
    3050:	00000021 	move	zero,zero
    3054:	00000021 	move	zero,zero
    3058:	00000021 	move	zero,zero
    305c:	00000021 	move	zero,zero
    3060:	00000021 	move	zero,zero
    3064:	00000021 	move	zero,zero
    3068:	00000021 	move	zero,zero
    306c:	00000021 	move	zero,zero
    3070:	00000021 	move	zero,zero
    3074:	00000021 	move	zero,zero
    3078:	00000021 	move	zero,zero
    307c:	00000021 	move	zero,zero
    3080:	3c08b32e 	lui	t0,0xb32e
    3084:	3508f190 	ori	t0,t0,0xf190
    3088:	3c09820a 	lui	t1,0x820a
    308c:	3529f638 	ori	t1,t1,0xf638
    3090:	1509ffe7 	bne	t0,t1,3030 <n30_bne_test+0x3030>
    3094:	00000000 	nop
    3098:	1000000c 	b	30cc <n30_bne_test+0x30cc>
    309c:	00000000 	nop
    30a0:	00000000 	nop
    30a4:	00000021 	move	zero,zero
    30a8:	00000021 	move	zero,zero
    30ac:	00000021 	move	zero,zero
    30b0:	00000021 	move	zero,zero
    30b4:	00000021 	move	zero,zero
    30b8:	00000021 	move	zero,zero
    30bc:	00000021 	move	zero,zero
    30c0:	00000021 	move	zero,zero
    30c4:	3c1229d1 	lui	s2,0x29d1
    30c8:	36520a00 	ori	s2,s2,0xa00
    30cc:	00000000 	nop
    30d0:	3c14e0c0 	lui	s4,0xe0c0
    30d4:	36946b84 	ori	s4,s4,0x6b84
    30d8:	161436ce 	bne	s0,s4,10c14 <inst_error>
    30dc:	00000000 	nop
    30e0:	00000000 	nop
    30e4:	3c1529d1 	lui	s5,0x29d1
    30e8:	36b50a00 	ori	s5,s5,0xa00
    30ec:	165536c9 	bne	s2,s5,10c14 <inst_error>
    30f0:	00000000 	nop
    30f4:	00000000 	nop
    30f8:	3c0ce7e1 	lui	t4,0xe7e1
    30fc:	358c3f77 	ori	t4,t4,0x3f77
    3100:	3c0d0d4a 	lui	t5,0xd4a
    3104:	35ad9678 	ori	t5,t5,0x9678
    3108:	24100000 	li	s0,0
    310c:	10000016 	b	3168 <n30_bne_test+0x3168>
    3110:	24120000 	li	s2,0
    3114:	00000000 	nop
    3118:	3c10e7e1 	lui	s0,0xe7e1
    311c:	15280023 	bne	t1,t0,31ac <n30_bne_test+0x31ac>
    3120:	36103f77 	ori	s0,s0,0x3f77
    3124:	10000023 	b	31b4 <n30_bne_test+0x31b4>
    3128:	00000000 	nop
    312c:	00000000 	nop
    3130:	00000021 	move	zero,zero
    3134:	00000021 	move	zero,zero
    3138:	00000021 	move	zero,zero
    313c:	00000021 	move	zero,zero
    3140:	00000021 	move	zero,zero
    3144:	00000021 	move	zero,zero
    3148:	00000021 	move	zero,zero
    314c:	00000021 	move	zero,zero
    3150:	00000021 	move	zero,zero
    3154:	00000021 	move	zero,zero
    3158:	00000021 	move	zero,zero
    315c:	00000021 	move	zero,zero
    3160:	00000021 	move	zero,zero
    3164:	00000021 	move	zero,zero
    3168:	3c088c21 	lui	t0,0x8c21
    316c:	3508bb84 	ori	t0,t0,0xbb84
    3170:	3c092be7 	lui	t1,0x2be7
    3174:	3529749e 	ori	t1,t1,0x749e
    3178:	1509ffe7 	bne	t0,t1,3118 <n30_bne_test+0x3118>
    317c:	00000000 	nop
    3180:	1000000c 	b	31b4 <n30_bne_test+0x31b4>
    3184:	00000000 	nop
    3188:	00000000 	nop
    318c:	00000021 	move	zero,zero
    3190:	00000021 	move	zero,zero
    3194:	00000021 	move	zero,zero
    3198:	00000021 	move	zero,zero
    319c:	00000021 	move	zero,zero
    31a0:	00000021 	move	zero,zero
    31a4:	00000021 	move	zero,zero
    31a8:	00000021 	move	zero,zero
    31ac:	3c120d4a 	lui	s2,0xd4a
    31b0:	36529678 	ori	s2,s2,0x9678
    31b4:	00000000 	nop
    31b8:	3c14e7e1 	lui	s4,0xe7e1
    31bc:	36943f77 	ori	s4,s4,0x3f77
    31c0:	16143694 	bne	s0,s4,10c14 <inst_error>
    31c4:	00000000 	nop
    31c8:	00000000 	nop
    31cc:	3c150d4a 	lui	s5,0xd4a
    31d0:	36b59678 	ori	s5,s5,0x9678
    31d4:	1655368f 	bne	s2,s5,10c14 <inst_error>
    31d8:	00000000 	nop
    31dc:	00000000 	nop
    31e0:	3c0c3581 	lui	t4,0x3581
    31e4:	358c3018 	ori	t4,t4,0x3018
    31e8:	3c0dfff2 	lui	t5,0xfff2
    31ec:	35ade1bf 	ori	t5,t5,0xe1bf
    31f0:	24100000 	li	s0,0
    31f4:	10000016 	b	3250 <n30_bne_test+0x3250>
    31f8:	24120000 	li	s2,0
    31fc:	00000000 	nop
    3200:	3c103581 	lui	s0,0x3581
    3204:	15280023 	bne	t1,t0,3294 <n30_bne_test+0x3294>
    3208:	36103018 	ori	s0,s0,0x3018
    320c:	10000023 	b	329c <n30_bne_test+0x329c>
    3210:	00000000 	nop
    3214:	00000000 	nop
    3218:	00000021 	move	zero,zero
    321c:	00000021 	move	zero,zero
    3220:	00000021 	move	zero,zero
    3224:	00000021 	move	zero,zero
    3228:	00000021 	move	zero,zero
    322c:	00000021 	move	zero,zero
    3230:	00000021 	move	zero,zero
    3234:	00000021 	move	zero,zero
    3238:	00000021 	move	zero,zero
    323c:	00000021 	move	zero,zero
    3240:	00000021 	move	zero,zero
    3244:	00000021 	move	zero,zero
    3248:	00000021 	move	zero,zero
    324c:	00000021 	move	zero,zero
    3250:	3c084661 	lui	t0,0x4661
    3254:	35089e38 	ori	t0,t0,0x9e38
    3258:	3c0916bd 	lui	t1,0x16bd
    325c:	352940cc 	ori	t1,t1,0x40cc
    3260:	1509ffe7 	bne	t0,t1,3200 <n30_bne_test+0x3200>
    3264:	00000000 	nop
    3268:	1000000c 	b	329c <n30_bne_test+0x329c>
    326c:	00000000 	nop
    3270:	00000000 	nop
    3274:	00000021 	move	zero,zero
    3278:	00000021 	move	zero,zero
    327c:	00000021 	move	zero,zero
    3280:	00000021 	move	zero,zero
    3284:	00000021 	move	zero,zero
    3288:	00000021 	move	zero,zero
    328c:	00000021 	move	zero,zero
    3290:	00000021 	move	zero,zero
    3294:	3c12fff2 	lui	s2,0xfff2
    3298:	3652e1bf 	ori	s2,s2,0xe1bf
    329c:	00000000 	nop
    32a0:	3c143581 	lui	s4,0x3581
    32a4:	36943018 	ori	s4,s4,0x3018
    32a8:	1614365a 	bne	s0,s4,10c14 <inst_error>
    32ac:	00000000 	nop
    32b0:	00000000 	nop
    32b4:	3c15fff2 	lui	s5,0xfff2
    32b8:	36b5e1bf 	ori	s5,s5,0xe1bf
    32bc:	16553655 	bne	s2,s5,10c14 <inst_error>
    32c0:	00000000 	nop
    32c4:	00000000 	nop
    32c8:	3c0c2bc7 	lui	t4,0x2bc7
    32cc:	358cf410 	ori	t4,t4,0xf410
    32d0:	3c0d83b0 	lui	t5,0x83b0
    32d4:	35adfbff 	ori	t5,t5,0xfbff
    32d8:	24100000 	li	s0,0
    32dc:	10000016 	b	3338 <n30_bne_test+0x3338>
    32e0:	24120000 	li	s2,0
    32e4:	00000000 	nop
    32e8:	3c102bc7 	lui	s0,0x2bc7
    32ec:	15280023 	bne	t1,t0,337c <n30_bne_test+0x337c>
    32f0:	3610f410 	ori	s0,s0,0xf410
    32f4:	10000023 	b	3384 <n30_bne_test+0x3384>
    32f8:	00000000 	nop
    32fc:	00000000 	nop
    3300:	00000021 	move	zero,zero
    3304:	00000021 	move	zero,zero
    3308:	00000021 	move	zero,zero
    330c:	00000021 	move	zero,zero
    3310:	00000021 	move	zero,zero
    3314:	00000021 	move	zero,zero
    3318:	00000021 	move	zero,zero
    331c:	00000021 	move	zero,zero
    3320:	00000021 	move	zero,zero
    3324:	00000021 	move	zero,zero
    3328:	00000021 	move	zero,zero
    332c:	00000021 	move	zero,zero
    3330:	00000021 	move	zero,zero
    3334:	00000021 	move	zero,zero
    3338:	3c082295 	lui	t0,0x2295
    333c:	35081764 	ori	t0,t0,0x1764
    3340:	3c09404d 	lui	t1,0x404d
    3344:	3529cb49 	ori	t1,t1,0xcb49
    3348:	1509ffe7 	bne	t0,t1,32e8 <n30_bne_test+0x32e8>
    334c:	00000000 	nop
    3350:	1000000c 	b	3384 <n30_bne_test+0x3384>
    3354:	00000000 	nop
    3358:	00000000 	nop
    335c:	00000021 	move	zero,zero
    3360:	00000021 	move	zero,zero
    3364:	00000021 	move	zero,zero
    3368:	00000021 	move	zero,zero
    336c:	00000021 	move	zero,zero
    3370:	00000021 	move	zero,zero
    3374:	00000021 	move	zero,zero
    3378:	00000021 	move	zero,zero
    337c:	3c1283b0 	lui	s2,0x83b0
    3380:	3652fbff 	ori	s2,s2,0xfbff
    3384:	00000000 	nop
    3388:	3c142bc7 	lui	s4,0x2bc7
    338c:	3694f410 	ori	s4,s4,0xf410
    3390:	16143620 	bne	s0,s4,10c14 <inst_error>
    3394:	00000000 	nop
    3398:	00000000 	nop
    339c:	3c1583b0 	lui	s5,0x83b0
    33a0:	36b5fbff 	ori	s5,s5,0xfbff
    33a4:	1655361b 	bne	s2,s5,10c14 <inst_error>
    33a8:	00000000 	nop
    33ac:	00000000 	nop
    33b0:	3c0cc8e3 	lui	t4,0xc8e3
    33b4:	358c1dd8 	ori	t4,t4,0x1dd8
    33b8:	3c0de871 	lui	t5,0xe871
    33bc:	35adca88 	ori	t5,t5,0xca88
    33c0:	24100000 	li	s0,0
    33c4:	10000016 	b	3420 <n30_bne_test+0x3420>
    33c8:	24120000 	li	s2,0
    33cc:	00000000 	nop
    33d0:	3c10c8e3 	lui	s0,0xc8e3
    33d4:	15280023 	bne	t1,t0,3464 <n30_bne_test+0x3464>
    33d8:	36101dd8 	ori	s0,s0,0x1dd8
    33dc:	10000023 	b	346c <n30_bne_test+0x346c>
    33e0:	00000000 	nop
    33e4:	00000000 	nop
    33e8:	00000021 	move	zero,zero
    33ec:	00000021 	move	zero,zero
    33f0:	00000021 	move	zero,zero
    33f4:	00000021 	move	zero,zero
    33f8:	00000021 	move	zero,zero
    33fc:	00000021 	move	zero,zero
    3400:	00000021 	move	zero,zero
    3404:	00000021 	move	zero,zero
    3408:	00000021 	move	zero,zero
    340c:	00000021 	move	zero,zero
    3410:	00000021 	move	zero,zero
    3414:	00000021 	move	zero,zero
    3418:	00000021 	move	zero,zero
    341c:	00000021 	move	zero,zero
    3420:	3c0846d8 	lui	t0,0x46d8
    3424:	3508b720 	ori	t0,t0,0xb720
    3428:	3c093432 	lui	t1,0x3432
    342c:	3529fb00 	ori	t1,t1,0xfb00
    3430:	1509ffe7 	bne	t0,t1,33d0 <n30_bne_test+0x33d0>
    3434:	00000000 	nop
    3438:	1000000c 	b	346c <n30_bne_test+0x346c>
    343c:	00000000 	nop
    3440:	00000000 	nop
    3444:	00000021 	move	zero,zero
    3448:	00000021 	move	zero,zero
    344c:	00000021 	move	zero,zero
    3450:	00000021 	move	zero,zero
    3454:	00000021 	move	zero,zero
    3458:	00000021 	move	zero,zero
    345c:	00000021 	move	zero,zero
    3460:	00000021 	move	zero,zero
    3464:	3c12e871 	lui	s2,0xe871
    3468:	3652ca88 	ori	s2,s2,0xca88
    346c:	00000000 	nop
    3470:	3c14c8e3 	lui	s4,0xc8e3
    3474:	36941dd8 	ori	s4,s4,0x1dd8
    3478:	161435e6 	bne	s0,s4,10c14 <inst_error>
    347c:	00000000 	nop
    3480:	00000000 	nop
    3484:	3c15e871 	lui	s5,0xe871
    3488:	36b5ca88 	ori	s5,s5,0xca88
    348c:	165535e1 	bne	s2,s5,10c14 <inst_error>
    3490:	00000000 	nop
    3494:	00000000 	nop
    3498:	3c0c1982 	lui	t4,0x1982
    349c:	358c9600 	ori	t4,t4,0x9600
    34a0:	3c0d8624 	lui	t5,0x8624
    34a4:	35ad6bde 	ori	t5,t5,0x6bde
    34a8:	24100000 	li	s0,0
    34ac:	10000016 	b	3508 <n30_bne_test+0x3508>
    34b0:	24120000 	li	s2,0
    34b4:	00000000 	nop
    34b8:	3c101982 	lui	s0,0x1982
    34bc:	15280023 	bne	t1,t0,354c <n30_bne_test+0x354c>
    34c0:	36109600 	ori	s0,s0,0x9600
    34c4:	10000023 	b	3554 <n30_bne_test+0x3554>
    34c8:	00000000 	nop
    34cc:	00000000 	nop
    34d0:	00000021 	move	zero,zero
    34d4:	00000021 	move	zero,zero
    34d8:	00000021 	move	zero,zero
    34dc:	00000021 	move	zero,zero
    34e0:	00000021 	move	zero,zero
    34e4:	00000021 	move	zero,zero
    34e8:	00000021 	move	zero,zero
    34ec:	00000021 	move	zero,zero
    34f0:	00000021 	move	zero,zero
    34f4:	00000021 	move	zero,zero
    34f8:	00000021 	move	zero,zero
    34fc:	00000021 	move	zero,zero
    3500:	00000021 	move	zero,zero
    3504:	00000021 	move	zero,zero
    3508:	3c084174 	lui	t0,0x4174
    350c:	35085330 	ori	t0,t0,0x5330
    3510:	3c092fed 	lui	t1,0x2fed
    3514:	3529f25d 	ori	t1,t1,0xf25d
    3518:	1509ffe7 	bne	t0,t1,34b8 <n30_bne_test+0x34b8>
    351c:	00000000 	nop
    3520:	1000000c 	b	3554 <n30_bne_test+0x3554>
    3524:	00000000 	nop
    3528:	00000000 	nop
    352c:	00000021 	move	zero,zero
    3530:	00000021 	move	zero,zero
    3534:	00000021 	move	zero,zero
    3538:	00000021 	move	zero,zero
    353c:	00000021 	move	zero,zero
    3540:	00000021 	move	zero,zero
    3544:	00000021 	move	zero,zero
    3548:	00000021 	move	zero,zero
    354c:	3c128624 	lui	s2,0x8624
    3550:	36526bde 	ori	s2,s2,0x6bde
    3554:	00000000 	nop
    3558:	3c141982 	lui	s4,0x1982
    355c:	36949600 	ori	s4,s4,0x9600
    3560:	161435ac 	bne	s0,s4,10c14 <inst_error>
    3564:	00000000 	nop
    3568:	00000000 	nop
    356c:	3c158624 	lui	s5,0x8624
    3570:	36b56bde 	ori	s5,s5,0x6bde
    3574:	165535a7 	bne	s2,s5,10c14 <inst_error>
    3578:	00000000 	nop
    357c:	00000000 	nop
    3580:	3c0cc96f 	lui	t4,0xc96f
    3584:	358c916c 	ori	t4,t4,0x916c
    3588:	3c0dbc42 	lui	t5,0xbc42
    358c:	35ade558 	ori	t5,t5,0xe558
    3590:	24100000 	li	s0,0
    3594:	10000016 	b	35f0 <n30_bne_test+0x35f0>
    3598:	24120000 	li	s2,0
    359c:	00000000 	nop
    35a0:	3c10c96f 	lui	s0,0xc96f
    35a4:	15280023 	bne	t1,t0,3634 <n30_bne_test+0x3634>
    35a8:	3610916c 	ori	s0,s0,0x916c
    35ac:	10000023 	b	363c <n30_bne_test+0x363c>
    35b0:	00000000 	nop
    35b4:	00000000 	nop
    35b8:	00000021 	move	zero,zero
    35bc:	00000021 	move	zero,zero
    35c0:	00000021 	move	zero,zero
    35c4:	00000021 	move	zero,zero
    35c8:	00000021 	move	zero,zero
    35cc:	00000021 	move	zero,zero
    35d0:	00000021 	move	zero,zero
    35d4:	00000021 	move	zero,zero
    35d8:	00000021 	move	zero,zero
    35dc:	00000021 	move	zero,zero
    35e0:	00000021 	move	zero,zero
    35e4:	00000021 	move	zero,zero
    35e8:	00000021 	move	zero,zero
    35ec:	00000021 	move	zero,zero
    35f0:	3c082640 	lui	t0,0x2640
    35f4:	3508e748 	ori	t0,t0,0xe748
    35f8:	3c0948f3 	lui	t1,0x48f3
    35fc:	35299d40 	ori	t1,t1,0x9d40
    3600:	1509ffe7 	bne	t0,t1,35a0 <n30_bne_test+0x35a0>
    3604:	00000000 	nop
    3608:	1000000c 	b	363c <n30_bne_test+0x363c>
    360c:	00000000 	nop
    3610:	00000000 	nop
    3614:	00000021 	move	zero,zero
    3618:	00000021 	move	zero,zero
    361c:	00000021 	move	zero,zero
    3620:	00000021 	move	zero,zero
    3624:	00000021 	move	zero,zero
    3628:	00000021 	move	zero,zero
    362c:	00000021 	move	zero,zero
    3630:	00000021 	move	zero,zero
    3634:	3c12bc42 	lui	s2,0xbc42
    3638:	3652e558 	ori	s2,s2,0xe558
    363c:	00000000 	nop
    3640:	3c14c96f 	lui	s4,0xc96f
    3644:	3694916c 	ori	s4,s4,0x916c
    3648:	16143572 	bne	s0,s4,10c14 <inst_error>
    364c:	00000000 	nop
    3650:	00000000 	nop
    3654:	3c15bc42 	lui	s5,0xbc42
    3658:	36b5e558 	ori	s5,s5,0xe558
    365c:	1655356d 	bne	s2,s5,10c14 <inst_error>
    3660:	00000000 	nop
    3664:	00000000 	nop
    3668:	3c0c5bb9 	lui	t4,0x5bb9
    366c:	358cca00 	ori	t4,t4,0xca00
    3670:	3c0d3170 	lui	t5,0x3170
    3674:	35adb92d 	ori	t5,t5,0xb92d
    3678:	24100000 	li	s0,0
    367c:	10000016 	b	36d8 <n30_bne_test+0x36d8>
    3680:	24120000 	li	s2,0
    3684:	00000000 	nop
    3688:	3c105bb9 	lui	s0,0x5bb9
    368c:	15280023 	bne	t1,t0,371c <n30_bne_test+0x371c>
    3690:	3610ca00 	ori	s0,s0,0xca00
    3694:	10000023 	b	3724 <n30_bne_test+0x3724>
    3698:	00000000 	nop
    369c:	00000000 	nop
    36a0:	00000021 	move	zero,zero
    36a4:	00000021 	move	zero,zero
    36a8:	00000021 	move	zero,zero
    36ac:	00000021 	move	zero,zero
    36b0:	00000021 	move	zero,zero
    36b4:	00000021 	move	zero,zero
    36b8:	00000021 	move	zero,zero
    36bc:	00000021 	move	zero,zero
    36c0:	00000021 	move	zero,zero
    36c4:	00000021 	move	zero,zero
    36c8:	00000021 	move	zero,zero
    36cc:	00000021 	move	zero,zero
    36d0:	00000021 	move	zero,zero
    36d4:	00000021 	move	zero,zero
    36d8:	3c0838d0 	lui	t0,0x38d0
    36dc:	3508acf0 	ori	t0,t0,0xacf0
    36e0:	3c09e5fc 	lui	t1,0xe5fc
    36e4:	35294c68 	ori	t1,t1,0x4c68
    36e8:	1509ffe7 	bne	t0,t1,3688 <n30_bne_test+0x3688>
    36ec:	00000000 	nop
    36f0:	1000000c 	b	3724 <n30_bne_test+0x3724>
    36f4:	00000000 	nop
    36f8:	00000000 	nop
    36fc:	00000021 	move	zero,zero
    3700:	00000021 	move	zero,zero
    3704:	00000021 	move	zero,zero
    3708:	00000021 	move	zero,zero
    370c:	00000021 	move	zero,zero
    3710:	00000021 	move	zero,zero
    3714:	00000021 	move	zero,zero
    3718:	00000021 	move	zero,zero
    371c:	3c123170 	lui	s2,0x3170
    3720:	3652b92d 	ori	s2,s2,0xb92d
    3724:	00000000 	nop
    3728:	3c145bb9 	lui	s4,0x5bb9
    372c:	3694ca00 	ori	s4,s4,0xca00
    3730:	16143538 	bne	s0,s4,10c14 <inst_error>
    3734:	00000000 	nop
    3738:	00000000 	nop
    373c:	3c153170 	lui	s5,0x3170
    3740:	36b5b92d 	ori	s5,s5,0xb92d
    3744:	16553533 	bne	s2,s5,10c14 <inst_error>
    3748:	00000000 	nop
    374c:	00000000 	nop
    3750:	3c0cc110 	lui	t4,0xc110
    3754:	358cedc0 	ori	t4,t4,0xedc0
    3758:	3c0d02dc 	lui	t5,0x2dc
    375c:	35ad1040 	ori	t5,t5,0x1040
    3760:	24100000 	li	s0,0
    3764:	10000016 	b	37c0 <n30_bne_test+0x37c0>
    3768:	24120000 	li	s2,0
    376c:	00000000 	nop
    3770:	3c10c110 	lui	s0,0xc110
    3774:	15280023 	bne	t1,t0,3804 <n30_bne_test+0x3804>
    3778:	3610edc0 	ori	s0,s0,0xedc0
    377c:	10000023 	b	380c <n30_bne_test+0x380c>
    3780:	00000000 	nop
    3784:	00000000 	nop
    3788:	00000021 	move	zero,zero
    378c:	00000021 	move	zero,zero
    3790:	00000021 	move	zero,zero
    3794:	00000021 	move	zero,zero
    3798:	00000021 	move	zero,zero
    379c:	00000021 	move	zero,zero
    37a0:	00000021 	move	zero,zero
    37a4:	00000021 	move	zero,zero
    37a8:	00000021 	move	zero,zero
    37ac:	00000021 	move	zero,zero
    37b0:	00000021 	move	zero,zero
    37b4:	00000021 	move	zero,zero
    37b8:	00000021 	move	zero,zero
    37bc:	00000021 	move	zero,zero
    37c0:	3c08e06e 	lui	t0,0xe06e
    37c4:	35085adc 	ori	t0,t0,0x5adc
    37c8:	3c093dae 	lui	t1,0x3dae
    37cc:	3529d318 	ori	t1,t1,0xd318
    37d0:	1509ffe7 	bne	t0,t1,3770 <n30_bne_test+0x3770>
    37d4:	00000000 	nop
    37d8:	1000000c 	b	380c <n30_bne_test+0x380c>
    37dc:	00000000 	nop
    37e0:	00000000 	nop
    37e4:	00000021 	move	zero,zero
    37e8:	00000021 	move	zero,zero
    37ec:	00000021 	move	zero,zero
    37f0:	00000021 	move	zero,zero
    37f4:	00000021 	move	zero,zero
    37f8:	00000021 	move	zero,zero
    37fc:	00000021 	move	zero,zero
    3800:	00000021 	move	zero,zero
    3804:	3c1202dc 	lui	s2,0x2dc
    3808:	36521040 	ori	s2,s2,0x1040
    380c:	00000000 	nop
    3810:	3c14c110 	lui	s4,0xc110
    3814:	3694edc0 	ori	s4,s4,0xedc0
    3818:	161434fe 	bne	s0,s4,10c14 <inst_error>
    381c:	00000000 	nop
    3820:	00000000 	nop
    3824:	3c1502dc 	lui	s5,0x2dc
    3828:	36b51040 	ori	s5,s5,0x1040
    382c:	165534f9 	bne	s2,s5,10c14 <inst_error>
    3830:	00000000 	nop
    3834:	00000000 	nop
    3838:	3c0cf7e6 	lui	t4,0xf7e6
    383c:	358c1590 	ori	t4,t4,0x1590
    3840:	3c0db912 	lui	t5,0xb912
    3844:	35ad11e0 	ori	t5,t5,0x11e0
    3848:	24100000 	li	s0,0
    384c:	10000016 	b	38a8 <n30_bne_test+0x38a8>
    3850:	24120000 	li	s2,0
    3854:	00000000 	nop
    3858:	3c10f7e6 	lui	s0,0xf7e6
    385c:	15280023 	bne	t1,t0,38ec <n30_bne_test+0x38ec>
    3860:	36101590 	ori	s0,s0,0x1590
    3864:	10000023 	b	38f4 <n30_bne_test+0x38f4>
    3868:	00000000 	nop
    386c:	00000000 	nop
    3870:	00000021 	move	zero,zero
    3874:	00000021 	move	zero,zero
    3878:	00000021 	move	zero,zero
    387c:	00000021 	move	zero,zero
    3880:	00000021 	move	zero,zero
    3884:	00000021 	move	zero,zero
    3888:	00000021 	move	zero,zero
    388c:	00000021 	move	zero,zero
    3890:	00000021 	move	zero,zero
    3894:	00000021 	move	zero,zero
    3898:	00000021 	move	zero,zero
    389c:	00000021 	move	zero,zero
    38a0:	00000021 	move	zero,zero
    38a4:	00000021 	move	zero,zero
    38a8:	3c08fa52 	lui	t0,0xfa52
    38ac:	350883e2 	ori	t0,t0,0x83e2
    38b0:	3c09f3ed 	lui	t1,0xf3ed
    38b4:	352999b4 	ori	t1,t1,0x99b4
    38b8:	1509ffe7 	bne	t0,t1,3858 <n30_bne_test+0x3858>
    38bc:	00000000 	nop
    38c0:	1000000c 	b	38f4 <n30_bne_test+0x38f4>
    38c4:	00000000 	nop
    38c8:	00000000 	nop
    38cc:	00000021 	move	zero,zero
    38d0:	00000021 	move	zero,zero
    38d4:	00000021 	move	zero,zero
    38d8:	00000021 	move	zero,zero
    38dc:	00000021 	move	zero,zero
    38e0:	00000021 	move	zero,zero
    38e4:	00000021 	move	zero,zero
    38e8:	00000021 	move	zero,zero
    38ec:	3c12b912 	lui	s2,0xb912
    38f0:	365211e0 	ori	s2,s2,0x11e0
    38f4:	00000000 	nop
    38f8:	3c14f7e6 	lui	s4,0xf7e6
    38fc:	36941590 	ori	s4,s4,0x1590
    3900:	161434c4 	bne	s0,s4,10c14 <inst_error>
    3904:	00000000 	nop
    3908:	00000000 	nop
    390c:	3c15b912 	lui	s5,0xb912
    3910:	36b511e0 	ori	s5,s5,0x11e0
    3914:	165534bf 	bne	s2,s5,10c14 <inst_error>
    3918:	00000000 	nop
    391c:	00000000 	nop
    3920:	3c0ca2a5 	lui	t4,0xa2a5
    3924:	358c98f8 	ori	t4,t4,0x98f8
    3928:	3c0dd039 	lui	t5,0xd039
    392c:	35ada9d8 	ori	t5,t5,0xa9d8
    3930:	24100000 	li	s0,0
    3934:	10000016 	b	3990 <n30_bne_test+0x3990>
    3938:	24120000 	li	s2,0
    393c:	00000000 	nop
    3940:	3c10a2a5 	lui	s0,0xa2a5
    3944:	15280023 	bne	t1,t0,39d4 <n30_bne_test+0x39d4>
    3948:	361098f8 	ori	s0,s0,0x98f8
    394c:	10000023 	b	39dc <n30_bne_test+0x39dc>
    3950:	00000000 	nop
    3954:	00000000 	nop
    3958:	00000021 	move	zero,zero
    395c:	00000021 	move	zero,zero
    3960:	00000021 	move	zero,zero
    3964:	00000021 	move	zero,zero
    3968:	00000021 	move	zero,zero
    396c:	00000021 	move	zero,zero
    3970:	00000021 	move	zero,zero
    3974:	00000021 	move	zero,zero
    3978:	00000021 	move	zero,zero
    397c:	00000021 	move	zero,zero
    3980:	00000021 	move	zero,zero
    3984:	00000021 	move	zero,zero
    3988:	00000021 	move	zero,zero
    398c:	00000021 	move	zero,zero
    3990:	3c08ec2f 	lui	t0,0xec2f
    3994:	350861d2 	ori	t0,t0,0x61d2
    3998:	3c09988b 	lui	t1,0x988b
    399c:	35299bee 	ori	t1,t1,0x9bee
    39a0:	1509ffe7 	bne	t0,t1,3940 <n30_bne_test+0x3940>
    39a4:	00000000 	nop
    39a8:	1000000c 	b	39dc <n30_bne_test+0x39dc>
    39ac:	00000000 	nop
    39b0:	00000000 	nop
    39b4:	00000021 	move	zero,zero
    39b8:	00000021 	move	zero,zero
    39bc:	00000021 	move	zero,zero
    39c0:	00000021 	move	zero,zero
    39c4:	00000021 	move	zero,zero
    39c8:	00000021 	move	zero,zero
    39cc:	00000021 	move	zero,zero
    39d0:	00000021 	move	zero,zero
    39d4:	3c12d039 	lui	s2,0xd039
    39d8:	3652a9d8 	ori	s2,s2,0xa9d8
    39dc:	00000000 	nop
    39e0:	3c14a2a5 	lui	s4,0xa2a5
    39e4:	369498f8 	ori	s4,s4,0x98f8
    39e8:	1614348a 	bne	s0,s4,10c14 <inst_error>
    39ec:	00000000 	nop
    39f0:	00000000 	nop
    39f4:	3c15d039 	lui	s5,0xd039
    39f8:	36b5a9d8 	ori	s5,s5,0xa9d8
    39fc:	16553485 	bne	s2,s5,10c14 <inst_error>
    3a00:	00000000 	nop
    3a04:	00000000 	nop
    3a08:	3c0c3e0a 	lui	t4,0x3e0a
    3a0c:	358cd5a0 	ori	t4,t4,0xd5a0
    3a10:	3c0db487 	lui	t5,0xb487
    3a14:	35ad8950 	ori	t5,t5,0x8950
    3a18:	24100000 	li	s0,0
    3a1c:	10000016 	b	3a78 <n30_bne_test+0x3a78>
    3a20:	24120000 	li	s2,0
    3a24:	00000000 	nop
    3a28:	3c103e0a 	lui	s0,0x3e0a
    3a2c:	15280023 	bne	t1,t0,3abc <n30_bne_test+0x3abc>
    3a30:	3610d5a0 	ori	s0,s0,0xd5a0
    3a34:	10000023 	b	3ac4 <n30_bne_test+0x3ac4>
    3a38:	00000000 	nop
    3a3c:	00000000 	nop
    3a40:	00000021 	move	zero,zero
    3a44:	00000021 	move	zero,zero
    3a48:	00000021 	move	zero,zero
    3a4c:	00000021 	move	zero,zero
    3a50:	00000021 	move	zero,zero
    3a54:	00000021 	move	zero,zero
    3a58:	00000021 	move	zero,zero
    3a5c:	00000021 	move	zero,zero
    3a60:	00000021 	move	zero,zero
    3a64:	00000021 	move	zero,zero
    3a68:	00000021 	move	zero,zero
    3a6c:	00000021 	move	zero,zero
    3a70:	00000021 	move	zero,zero
    3a74:	00000021 	move	zero,zero
    3a78:	3c08cfe8 	lui	t0,0xcfe8
    3a7c:	3508786c 	ori	t0,t0,0x786c
    3a80:	3c099b7a 	lui	t1,0x9b7a
    3a84:	35295560 	ori	t1,t1,0x5560
    3a88:	1509ffe7 	bne	t0,t1,3a28 <n30_bne_test+0x3a28>
    3a8c:	00000000 	nop
    3a90:	1000000c 	b	3ac4 <n30_bne_test+0x3ac4>
    3a94:	00000000 	nop
    3a98:	00000000 	nop
    3a9c:	00000021 	move	zero,zero
    3aa0:	00000021 	move	zero,zero
    3aa4:	00000021 	move	zero,zero
    3aa8:	00000021 	move	zero,zero
    3aac:	00000021 	move	zero,zero
    3ab0:	00000021 	move	zero,zero
    3ab4:	00000021 	move	zero,zero
    3ab8:	00000021 	move	zero,zero
    3abc:	3c12b487 	lui	s2,0xb487
    3ac0:	36528950 	ori	s2,s2,0x8950
    3ac4:	00000000 	nop
    3ac8:	3c143e0a 	lui	s4,0x3e0a
    3acc:	3694d5a0 	ori	s4,s4,0xd5a0
    3ad0:	16143450 	bne	s0,s4,10c14 <inst_error>
    3ad4:	00000000 	nop
    3ad8:	00000000 	nop
    3adc:	3c15b487 	lui	s5,0xb487
    3ae0:	36b58950 	ori	s5,s5,0x8950
    3ae4:	1655344b 	bne	s2,s5,10c14 <inst_error>
    3ae8:	00000000 	nop
    3aec:	00000000 	nop
    3af0:	3c0cfc93 	lui	t4,0xfc93
    3af4:	358cfbc0 	ori	t4,t4,0xfbc0
    3af8:	3c0def74 	lui	t5,0xef74
    3afc:	35adeeca 	ori	t5,t5,0xeeca
    3b00:	24100000 	li	s0,0
    3b04:	10000016 	b	3b60 <n30_bne_test+0x3b60>
    3b08:	24120000 	li	s2,0
    3b0c:	00000000 	nop
    3b10:	3c10fc93 	lui	s0,0xfc93
    3b14:	15280023 	bne	t1,t0,3ba4 <n30_bne_test+0x3ba4>
    3b18:	3610fbc0 	ori	s0,s0,0xfbc0
    3b1c:	10000023 	b	3bac <n30_bne_test+0x3bac>
    3b20:	00000000 	nop
    3b24:	00000000 	nop
    3b28:	00000021 	move	zero,zero
    3b2c:	00000021 	move	zero,zero
    3b30:	00000021 	move	zero,zero
    3b34:	00000021 	move	zero,zero
    3b38:	00000021 	move	zero,zero
    3b3c:	00000021 	move	zero,zero
    3b40:	00000021 	move	zero,zero
    3b44:	00000021 	move	zero,zero
    3b48:	00000021 	move	zero,zero
    3b4c:	00000021 	move	zero,zero
    3b50:	00000021 	move	zero,zero
    3b54:	00000021 	move	zero,zero
    3b58:	00000021 	move	zero,zero
    3b5c:	00000021 	move	zero,zero
    3b60:	3c08bb97 	lui	t0,0xbb97
    3b64:	35087f6a 	ori	t0,t0,0x7f6a
    3b68:	3c098c30 	lui	t1,0x8c30
    3b6c:	3529c880 	ori	t1,t1,0xc880
    3b70:	1509ffe7 	bne	t0,t1,3b10 <n30_bne_test+0x3b10>
    3b74:	00000000 	nop
    3b78:	1000000c 	b	3bac <n30_bne_test+0x3bac>
    3b7c:	00000000 	nop
    3b80:	00000000 	nop
    3b84:	00000021 	move	zero,zero
    3b88:	00000021 	move	zero,zero
    3b8c:	00000021 	move	zero,zero
    3b90:	00000021 	move	zero,zero
    3b94:	00000021 	move	zero,zero
    3b98:	00000021 	move	zero,zero
    3b9c:	00000021 	move	zero,zero
    3ba0:	00000021 	move	zero,zero
    3ba4:	3c12ef74 	lui	s2,0xef74
    3ba8:	3652eeca 	ori	s2,s2,0xeeca
    3bac:	00000000 	nop
    3bb0:	3c14fc93 	lui	s4,0xfc93
    3bb4:	3694fbc0 	ori	s4,s4,0xfbc0
    3bb8:	16143416 	bne	s0,s4,10c14 <inst_error>
    3bbc:	00000000 	nop
    3bc0:	00000000 	nop
    3bc4:	3c15ef74 	lui	s5,0xef74
    3bc8:	36b5eeca 	ori	s5,s5,0xeeca
    3bcc:	16553411 	bne	s2,s5,10c14 <inst_error>
    3bd0:	00000000 	nop
    3bd4:	00000000 	nop
    3bd8:	3c0c4cf6 	lui	t4,0x4cf6
    3bdc:	358ce712 	ori	t4,t4,0xe712
    3be0:	3c0d9480 	lui	t5,0x9480
    3be4:	35ad0248 	ori	t5,t5,0x248
    3be8:	24100000 	li	s0,0
    3bec:	10000016 	b	3c48 <n30_bne_test+0x3c48>
    3bf0:	24120000 	li	s2,0
    3bf4:	00000000 	nop
    3bf8:	3c104cf6 	lui	s0,0x4cf6
    3bfc:	15280023 	bne	t1,t0,3c8c <n30_bne_test+0x3c8c>
    3c00:	3610e712 	ori	s0,s0,0xe712
    3c04:	10000023 	b	3c94 <n30_bne_test+0x3c94>
    3c08:	00000000 	nop
    3c0c:	00000000 	nop
    3c10:	00000021 	move	zero,zero
    3c14:	00000021 	move	zero,zero
    3c18:	00000021 	move	zero,zero
    3c1c:	00000021 	move	zero,zero
    3c20:	00000021 	move	zero,zero
    3c24:	00000021 	move	zero,zero
    3c28:	00000021 	move	zero,zero
    3c2c:	00000021 	move	zero,zero
    3c30:	00000021 	move	zero,zero
    3c34:	00000021 	move	zero,zero
    3c38:	00000021 	move	zero,zero
    3c3c:	00000021 	move	zero,zero
    3c40:	00000021 	move	zero,zero
    3c44:	00000021 	move	zero,zero
    3c48:	3c08137e 	lui	t0,0x137e
    3c4c:	3508b568 	ori	t0,t0,0xb568
    3c50:	3c099c8a 	lui	t1,0x9c8a
    3c54:	35292100 	ori	t1,t1,0x2100
    3c58:	1509ffe7 	bne	t0,t1,3bf8 <n30_bne_test+0x3bf8>
    3c5c:	00000000 	nop
    3c60:	1000000c 	b	3c94 <n30_bne_test+0x3c94>
    3c64:	00000000 	nop
    3c68:	00000000 	nop
    3c6c:	00000021 	move	zero,zero
    3c70:	00000021 	move	zero,zero
    3c74:	00000021 	move	zero,zero
    3c78:	00000021 	move	zero,zero
    3c7c:	00000021 	move	zero,zero
    3c80:	00000021 	move	zero,zero
    3c84:	00000021 	move	zero,zero
    3c88:	00000021 	move	zero,zero
    3c8c:	3c129480 	lui	s2,0x9480
    3c90:	36520248 	ori	s2,s2,0x248
    3c94:	00000000 	nop
    3c98:	3c144cf6 	lui	s4,0x4cf6
    3c9c:	3694e712 	ori	s4,s4,0xe712
    3ca0:	161433dc 	bne	s0,s4,10c14 <inst_error>
    3ca4:	00000000 	nop
    3ca8:	00000000 	nop
    3cac:	3c159480 	lui	s5,0x9480
    3cb0:	36b50248 	ori	s5,s5,0x248
    3cb4:	165533d7 	bne	s2,s5,10c14 <inst_error>
    3cb8:	00000000 	nop
    3cbc:	00000000 	nop
    3cc0:	3c0c8af1 	lui	t4,0x8af1
    3cc4:	358c81c0 	ori	t4,t4,0x81c0
    3cc8:	3c0d1617 	lui	t5,0x1617
    3ccc:	35ad4159 	ori	t5,t5,0x4159
    3cd0:	24100000 	li	s0,0
    3cd4:	10000016 	b	3d30 <n30_bne_test+0x3d30>
    3cd8:	24120000 	li	s2,0
    3cdc:	00000000 	nop
    3ce0:	3c108af1 	lui	s0,0x8af1
    3ce4:	15280023 	bne	t1,t0,3d74 <n30_bne_test+0x3d74>
    3ce8:	361081c0 	ori	s0,s0,0x81c0
    3cec:	10000023 	b	3d7c <n30_bne_test+0x3d7c>
    3cf0:	00000000 	nop
    3cf4:	00000000 	nop
    3cf8:	00000021 	move	zero,zero
    3cfc:	00000021 	move	zero,zero
    3d00:	00000021 	move	zero,zero
    3d04:	00000021 	move	zero,zero
    3d08:	00000021 	move	zero,zero
    3d0c:	00000021 	move	zero,zero
    3d10:	00000021 	move	zero,zero
    3d14:	00000021 	move	zero,zero
    3d18:	00000021 	move	zero,zero
    3d1c:	00000021 	move	zero,zero
    3d20:	00000021 	move	zero,zero
    3d24:	00000021 	move	zero,zero
    3d28:	00000021 	move	zero,zero
    3d2c:	00000021 	move	zero,zero
    3d30:	3c089080 	lui	t0,0x9080
    3d34:	3508e118 	ori	t0,t0,0xe118
    3d38:	3c09cb05 	lui	t1,0xcb05
    3d3c:	3529fbe7 	ori	t1,t1,0xfbe7
    3d40:	1509ffe7 	bne	t0,t1,3ce0 <n30_bne_test+0x3ce0>
    3d44:	00000000 	nop
    3d48:	1000000c 	b	3d7c <n30_bne_test+0x3d7c>
    3d4c:	00000000 	nop
    3d50:	00000000 	nop
    3d54:	00000021 	move	zero,zero
    3d58:	00000021 	move	zero,zero
    3d5c:	00000021 	move	zero,zero
    3d60:	00000021 	move	zero,zero
    3d64:	00000021 	move	zero,zero
    3d68:	00000021 	move	zero,zero
    3d6c:	00000021 	move	zero,zero
    3d70:	00000021 	move	zero,zero
    3d74:	3c121617 	lui	s2,0x1617
    3d78:	36524159 	ori	s2,s2,0x4159
    3d7c:	00000000 	nop
    3d80:	3c148af1 	lui	s4,0x8af1
    3d84:	369481c0 	ori	s4,s4,0x81c0
    3d88:	161433a2 	bne	s0,s4,10c14 <inst_error>
    3d8c:	00000000 	nop
    3d90:	00000000 	nop
    3d94:	3c151617 	lui	s5,0x1617
    3d98:	36b54159 	ori	s5,s5,0x4159
    3d9c:	1655339d 	bne	s2,s5,10c14 <inst_error>
    3da0:	00000000 	nop
    3da4:	00000000 	nop
    3da8:	3c0c4754 	lui	t4,0x4754
    3dac:	358ceb14 	ori	t4,t4,0xeb14
    3db0:	3c0d64db 	lui	t5,0x64db
    3db4:	35adbaac 	ori	t5,t5,0xbaac
    3db8:	24100000 	li	s0,0
    3dbc:	10000016 	b	3e18 <n30_bne_test+0x3e18>
    3dc0:	24120000 	li	s2,0
    3dc4:	00000000 	nop
    3dc8:	3c104754 	lui	s0,0x4754
    3dcc:	15280023 	bne	t1,t0,3e5c <n30_bne_test+0x3e5c>
    3dd0:	3610eb14 	ori	s0,s0,0xeb14
    3dd4:	10000023 	b	3e64 <n30_bne_test+0x3e64>
    3dd8:	00000000 	nop
    3ddc:	00000000 	nop
    3de0:	00000021 	move	zero,zero
    3de4:	00000021 	move	zero,zero
    3de8:	00000021 	move	zero,zero
    3dec:	00000021 	move	zero,zero
    3df0:	00000021 	move	zero,zero
    3df4:	00000021 	move	zero,zero
    3df8:	00000021 	move	zero,zero
    3dfc:	00000021 	move	zero,zero
    3e00:	00000021 	move	zero,zero
    3e04:	00000021 	move	zero,zero
    3e08:	00000021 	move	zero,zero
    3e0c:	00000021 	move	zero,zero
    3e10:	00000021 	move	zero,zero
    3e14:	00000021 	move	zero,zero
    3e18:	3c08fe37 	lui	t0,0xfe37
    3e1c:	3508e93a 	ori	t0,t0,0xe93a
    3e20:	3c097c98 	lui	t1,0x7c98
    3e24:	3529d980 	ori	t1,t1,0xd980
    3e28:	1509ffe7 	bne	t0,t1,3dc8 <n30_bne_test+0x3dc8>
    3e2c:	00000000 	nop
    3e30:	1000000c 	b	3e64 <n30_bne_test+0x3e64>
    3e34:	00000000 	nop
    3e38:	00000000 	nop
    3e3c:	00000021 	move	zero,zero
    3e40:	00000021 	move	zero,zero
    3e44:	00000021 	move	zero,zero
    3e48:	00000021 	move	zero,zero
    3e4c:	00000021 	move	zero,zero
    3e50:	00000021 	move	zero,zero
    3e54:	00000021 	move	zero,zero
    3e58:	00000021 	move	zero,zero
    3e5c:	3c1264db 	lui	s2,0x64db
    3e60:	3652baac 	ori	s2,s2,0xbaac
    3e64:	00000000 	nop
    3e68:	3c144754 	lui	s4,0x4754
    3e6c:	3694eb14 	ori	s4,s4,0xeb14
    3e70:	16143368 	bne	s0,s4,10c14 <inst_error>
    3e74:	00000000 	nop
    3e78:	00000000 	nop
    3e7c:	3c1564db 	lui	s5,0x64db
    3e80:	36b5baac 	ori	s5,s5,0xbaac
    3e84:	16553363 	bne	s2,s5,10c14 <inst_error>
    3e88:	00000000 	nop
    3e8c:	00000000 	nop
    3e90:	3c0c0df0 	lui	t4,0xdf0
    3e94:	358c76d2 	ori	t4,t4,0x76d2
    3e98:	3c0df4e7 	lui	t5,0xf4e7
    3e9c:	35ad7328 	ori	t5,t5,0x7328
    3ea0:	24100000 	li	s0,0
    3ea4:	10000016 	b	3f00 <n30_bne_test+0x3f00>
    3ea8:	24120000 	li	s2,0
    3eac:	00000000 	nop
    3eb0:	3c100df0 	lui	s0,0xdf0
    3eb4:	15280023 	bne	t1,t0,3f44 <n30_bne_test+0x3f44>
    3eb8:	361076d2 	ori	s0,s0,0x76d2
    3ebc:	10000023 	b	3f4c <n30_bne_test+0x3f4c>
    3ec0:	00000000 	nop
    3ec4:	00000000 	nop
    3ec8:	00000021 	move	zero,zero
    3ecc:	00000021 	move	zero,zero
    3ed0:	00000021 	move	zero,zero
    3ed4:	00000021 	move	zero,zero
    3ed8:	00000021 	move	zero,zero
    3edc:	00000021 	move	zero,zero
    3ee0:	00000021 	move	zero,zero
    3ee4:	00000021 	move	zero,zero
    3ee8:	00000021 	move	zero,zero
    3eec:	00000021 	move	zero,zero
    3ef0:	00000021 	move	zero,zero
    3ef4:	00000021 	move	zero,zero
    3ef8:	00000021 	move	zero,zero
    3efc:	00000021 	move	zero,zero
    3f00:	3c080677 	lui	t0,0x677
    3f04:	3508bcb9 	ori	t0,t0,0xbcb9
    3f08:	3c09a761 	lui	t1,0xa761
    3f0c:	3529310e 	ori	t1,t1,0x310e
    3f10:	1509ffe7 	bne	t0,t1,3eb0 <n30_bne_test+0x3eb0>
    3f14:	00000000 	nop
    3f18:	1000000c 	b	3f4c <n30_bne_test+0x3f4c>
    3f1c:	00000000 	nop
    3f20:	00000000 	nop
    3f24:	00000021 	move	zero,zero
    3f28:	00000021 	move	zero,zero
    3f2c:	00000021 	move	zero,zero
    3f30:	00000021 	move	zero,zero
    3f34:	00000021 	move	zero,zero
    3f38:	00000021 	move	zero,zero
    3f3c:	00000021 	move	zero,zero
    3f40:	00000021 	move	zero,zero
    3f44:	3c12f4e7 	lui	s2,0xf4e7
    3f48:	36527328 	ori	s2,s2,0x7328
    3f4c:	00000000 	nop
    3f50:	3c140df0 	lui	s4,0xdf0
    3f54:	369476d2 	ori	s4,s4,0x76d2
    3f58:	1614332e 	bne	s0,s4,10c14 <inst_error>
    3f5c:	00000000 	nop
    3f60:	00000000 	nop
    3f64:	3c15f4e7 	lui	s5,0xf4e7
    3f68:	36b57328 	ori	s5,s5,0x7328
    3f6c:	16553329 	bne	s2,s5,10c14 <inst_error>
    3f70:	00000000 	nop
    3f74:	00000000 	nop
    3f78:	3c0c82b7 	lui	t4,0x82b7
    3f7c:	358cc5a8 	ori	t4,t4,0xc5a8
    3f80:	3c0de9d4 	lui	t5,0xe9d4
    3f84:	35addb30 	ori	t5,t5,0xdb30
    3f88:	24100000 	li	s0,0
    3f8c:	10000016 	b	3fe8 <n30_bne_test+0x3fe8>
    3f90:	24120000 	li	s2,0
    3f94:	00000000 	nop
    3f98:	3c1082b7 	lui	s0,0x82b7
    3f9c:	15280023 	bne	t1,t0,402c <n30_bne_test+0x402c>
    3fa0:	3610c5a8 	ori	s0,s0,0xc5a8
    3fa4:	10000023 	b	4034 <n30_bne_test+0x4034>
    3fa8:	00000000 	nop
    3fac:	00000000 	nop
    3fb0:	00000021 	move	zero,zero
    3fb4:	00000021 	move	zero,zero
    3fb8:	00000021 	move	zero,zero
    3fbc:	00000021 	move	zero,zero
    3fc0:	00000021 	move	zero,zero
    3fc4:	00000021 	move	zero,zero
    3fc8:	00000021 	move	zero,zero
    3fcc:	00000021 	move	zero,zero
    3fd0:	00000021 	move	zero,zero
    3fd4:	00000021 	move	zero,zero
    3fd8:	00000021 	move	zero,zero
    3fdc:	00000021 	move	zero,zero
    3fe0:	00000021 	move	zero,zero
    3fe4:	00000021 	move	zero,zero
    3fe8:	3c08b740 	lui	t0,0xb740
    3fec:	3508b108 	ori	t0,t0,0xb108
    3ff0:	3c098e0d 	lui	t1,0x8e0d
    3ff4:	35294d28 	ori	t1,t1,0x4d28
    3ff8:	1509ffe7 	bne	t0,t1,3f98 <n30_bne_test+0x3f98>
    3ffc:	00000000 	nop
    4000:	1000000c 	b	4034 <n30_bne_test+0x4034>
    4004:	00000000 	nop
    4008:	00000000 	nop
    400c:	00000021 	move	zero,zero
    4010:	00000021 	move	zero,zero
    4014:	00000021 	move	zero,zero
    4018:	00000021 	move	zero,zero
    401c:	00000021 	move	zero,zero
    4020:	00000021 	move	zero,zero
    4024:	00000021 	move	zero,zero
    4028:	00000021 	move	zero,zero
    402c:	3c12e9d4 	lui	s2,0xe9d4
    4030:	3652db30 	ori	s2,s2,0xdb30
    4034:	00000000 	nop
    4038:	3c1482b7 	lui	s4,0x82b7
    403c:	3694c5a8 	ori	s4,s4,0xc5a8
    4040:	161432f4 	bne	s0,s4,10c14 <inst_error>
    4044:	00000000 	nop
    4048:	00000000 	nop
    404c:	3c15e9d4 	lui	s5,0xe9d4
    4050:	36b5db30 	ori	s5,s5,0xdb30
    4054:	165532ef 	bne	s2,s5,10c14 <inst_error>
    4058:	00000000 	nop
    405c:	00000000 	nop
    4060:	3c0c85d5 	lui	t4,0x85d5
    4064:	358c0384 	ori	t4,t4,0x384
    4068:	3c0dd56a 	lui	t5,0xd56a
    406c:	35ad0350 	ori	t5,t5,0x350
    4070:	24100000 	li	s0,0
    4074:	10000016 	b	40d0 <n30_bne_test+0x40d0>
    4078:	24120000 	li	s2,0
    407c:	00000000 	nop
    4080:	3c1085d5 	lui	s0,0x85d5
    4084:	15280023 	bne	t1,t0,4114 <n30_bne_test+0x4114>
    4088:	36100384 	ori	s0,s0,0x384
    408c:	10000023 	b	411c <n30_bne_test+0x411c>
    4090:	00000000 	nop
    4094:	00000000 	nop
    4098:	00000021 	move	zero,zero
    409c:	00000021 	move	zero,zero
    40a0:	00000021 	move	zero,zero
    40a4:	00000021 	move	zero,zero
    40a8:	00000021 	move	zero,zero
    40ac:	00000021 	move	zero,zero
    40b0:	00000021 	move	zero,zero
    40b4:	00000021 	move	zero,zero
    40b8:	00000021 	move	zero,zero
    40bc:	00000021 	move	zero,zero
    40c0:	00000021 	move	zero,zero
    40c4:	00000021 	move	zero,zero
    40c8:	00000021 	move	zero,zero
    40cc:	00000021 	move	zero,zero
    40d0:	3c0837fb 	lui	t0,0x37fb
    40d4:	3508d760 	ori	t0,t0,0xd760
    40d8:	3c0923ba 	lui	t1,0x23ba
    40dc:	3529d9d8 	ori	t1,t1,0xd9d8
    40e0:	1509ffe7 	bne	t0,t1,4080 <n30_bne_test+0x4080>
    40e4:	00000000 	nop
    40e8:	1000000c 	b	411c <n30_bne_test+0x411c>
    40ec:	00000000 	nop
    40f0:	00000000 	nop
    40f4:	00000021 	move	zero,zero
    40f8:	00000021 	move	zero,zero
    40fc:	00000021 	move	zero,zero
    4100:	00000021 	move	zero,zero
    4104:	00000021 	move	zero,zero
    4108:	00000021 	move	zero,zero
    410c:	00000021 	move	zero,zero
    4110:	00000021 	move	zero,zero
    4114:	3c12d56a 	lui	s2,0xd56a
    4118:	36520350 	ori	s2,s2,0x350
    411c:	00000000 	nop
    4120:	3c1485d5 	lui	s4,0x85d5
    4124:	36940384 	ori	s4,s4,0x384
    4128:	161432ba 	bne	s0,s4,10c14 <inst_error>
    412c:	00000000 	nop
    4130:	00000000 	nop
    4134:	3c15d56a 	lui	s5,0xd56a
    4138:	36b50350 	ori	s5,s5,0x350
    413c:	165532b5 	bne	s2,s5,10c14 <inst_error>
    4140:	00000000 	nop
    4144:	00000000 	nop
    4148:	3c0c84ee 	lui	t4,0x84ee
    414c:	358cbcfc 	ori	t4,t4,0xbcfc
    4150:	3c0ddccd 	lui	t5,0xdccd
    4154:	35ad8a48 	ori	t5,t5,0x8a48
    4158:	24100000 	li	s0,0
    415c:	10000016 	b	41b8 <n30_bne_test+0x41b8>
    4160:	24120000 	li	s2,0
    4164:	00000000 	nop
    4168:	3c1084ee 	lui	s0,0x84ee
    416c:	15280023 	bne	t1,t0,41fc <n30_bne_test+0x41fc>
    4170:	3610bcfc 	ori	s0,s0,0xbcfc
    4174:	10000023 	b	4204 <n30_bne_test+0x4204>
    4178:	00000000 	nop
    417c:	00000000 	nop
    4180:	00000021 	move	zero,zero
    4184:	00000021 	move	zero,zero
    4188:	00000021 	move	zero,zero
    418c:	00000021 	move	zero,zero
    4190:	00000021 	move	zero,zero
    4194:	00000021 	move	zero,zero
    4198:	00000021 	move	zero,zero
    419c:	00000021 	move	zero,zero
    41a0:	00000021 	move	zero,zero
    41a4:	00000021 	move	zero,zero
    41a8:	00000021 	move	zero,zero
    41ac:	00000021 	move	zero,zero
    41b0:	00000021 	move	zero,zero
    41b4:	00000021 	move	zero,zero
    41b8:	3c0812ce 	lui	t0,0x12ce
    41bc:	35084958 	ori	t0,t0,0x4958
    41c0:	3c091078 	lui	t1,0x1078
    41c4:	35296eb4 	ori	t1,t1,0x6eb4
    41c8:	1509ffe7 	bne	t0,t1,4168 <n30_bne_test+0x4168>
    41cc:	00000000 	nop
    41d0:	1000000c 	b	4204 <n30_bne_test+0x4204>
    41d4:	00000000 	nop
    41d8:	00000000 	nop
    41dc:	00000021 	move	zero,zero
    41e0:	00000021 	move	zero,zero
    41e4:	00000021 	move	zero,zero
    41e8:	00000021 	move	zero,zero
    41ec:	00000021 	move	zero,zero
    41f0:	00000021 	move	zero,zero
    41f4:	00000021 	move	zero,zero
    41f8:	00000021 	move	zero,zero
    41fc:	3c12dccd 	lui	s2,0xdccd
    4200:	36528a48 	ori	s2,s2,0x8a48
    4204:	00000000 	nop
    4208:	3c1484ee 	lui	s4,0x84ee
    420c:	3694bcfc 	ori	s4,s4,0xbcfc
    4210:	16143280 	bne	s0,s4,10c14 <inst_error>
    4214:	00000000 	nop
    4218:	00000000 	nop
    421c:	3c15dccd 	lui	s5,0xdccd
    4220:	36b58a48 	ori	s5,s5,0x8a48
    4224:	1655327b 	bne	s2,s5,10c14 <inst_error>
    4228:	00000000 	nop
    422c:	00000000 	nop
    4230:	3c0cab31 	lui	t4,0xab31
    4234:	358c9e80 	ori	t4,t4,0x9e80
    4238:	3c0df742 	lui	t5,0xf742
    423c:	35adb258 	ori	t5,t5,0xb258
    4240:	24100000 	li	s0,0
    4244:	10000016 	b	42a0 <n30_bne_test+0x42a0>
    4248:	24120000 	li	s2,0
    424c:	00000000 	nop
    4250:	3c10ab31 	lui	s0,0xab31
    4254:	15280023 	bne	t1,t0,42e4 <n30_bne_test+0x42e4>
    4258:	36109e80 	ori	s0,s0,0x9e80
    425c:	10000023 	b	42ec <n30_bne_test+0x42ec>
    4260:	00000000 	nop
    4264:	00000000 	nop
    4268:	00000021 	move	zero,zero
    426c:	00000021 	move	zero,zero
    4270:	00000021 	move	zero,zero
    4274:	00000021 	move	zero,zero
    4278:	00000021 	move	zero,zero
    427c:	00000021 	move	zero,zero
    4280:	00000021 	move	zero,zero
    4284:	00000021 	move	zero,zero
    4288:	00000021 	move	zero,zero
    428c:	00000021 	move	zero,zero
    4290:	00000021 	move	zero,zero
    4294:	00000021 	move	zero,zero
    4298:	00000021 	move	zero,zero
    429c:	00000021 	move	zero,zero
    42a0:	3c080b65 	lui	t0,0xb65
    42a4:	35084a30 	ori	t0,t0,0x4a30
    42a8:	3c09f345 	lui	t1,0xf345
    42ac:	35291ce0 	ori	t1,t1,0x1ce0
    42b0:	1509ffe7 	bne	t0,t1,4250 <n30_bne_test+0x4250>
    42b4:	00000000 	nop
    42b8:	1000000c 	b	42ec <n30_bne_test+0x42ec>
    42bc:	00000000 	nop
    42c0:	00000000 	nop
    42c4:	00000021 	move	zero,zero
    42c8:	00000021 	move	zero,zero
    42cc:	00000021 	move	zero,zero
    42d0:	00000021 	move	zero,zero
    42d4:	00000021 	move	zero,zero
    42d8:	00000021 	move	zero,zero
    42dc:	00000021 	move	zero,zero
    42e0:	00000021 	move	zero,zero
    42e4:	3c12f742 	lui	s2,0xf742
    42e8:	3652b258 	ori	s2,s2,0xb258
    42ec:	00000000 	nop
    42f0:	3c14ab31 	lui	s4,0xab31
    42f4:	36949e80 	ori	s4,s4,0x9e80
    42f8:	16143246 	bne	s0,s4,10c14 <inst_error>
    42fc:	00000000 	nop
    4300:	00000000 	nop
    4304:	3c15f742 	lui	s5,0xf742
    4308:	36b5b258 	ori	s5,s5,0xb258
    430c:	16553241 	bne	s2,s5,10c14 <inst_error>
    4310:	00000000 	nop
    4314:	00000000 	nop
    4318:	3c0c0313 	lui	t4,0x313
    431c:	358c17b8 	ori	t4,t4,0x17b8
    4320:	3c0d3d61 	lui	t5,0x3d61
    4324:	35adf6b8 	ori	t5,t5,0xf6b8
    4328:	24100000 	li	s0,0
    432c:	10000016 	b	4388 <n30_bne_test+0x4388>
    4330:	24120000 	li	s2,0
    4334:	00000000 	nop
    4338:	3c100313 	lui	s0,0x313
    433c:	15280023 	bne	t1,t0,43cc <n30_bne_test+0x43cc>
    4340:	361017b8 	ori	s0,s0,0x17b8
    4344:	10000023 	b	43d4 <n30_bne_test+0x43d4>
    4348:	00000000 	nop
    434c:	00000000 	nop
    4350:	00000021 	move	zero,zero
    4354:	00000021 	move	zero,zero
    4358:	00000021 	move	zero,zero
    435c:	00000021 	move	zero,zero
    4360:	00000021 	move	zero,zero
    4364:	00000021 	move	zero,zero
    4368:	00000021 	move	zero,zero
    436c:	00000021 	move	zero,zero
    4370:	00000021 	move	zero,zero
    4374:	00000021 	move	zero,zero
    4378:	00000021 	move	zero,zero
    437c:	00000021 	move	zero,zero
    4380:	00000021 	move	zero,zero
    4384:	00000021 	move	zero,zero
    4388:	3c08d04f 	lui	t0,0xd04f
    438c:	3508fdc0 	ori	t0,t0,0xfdc0
    4390:	3c097503 	lui	t1,0x7503
    4394:	3529f772 	ori	t1,t1,0xf772
    4398:	1509ffe7 	bne	t0,t1,4338 <n30_bne_test+0x4338>
    439c:	00000000 	nop
    43a0:	1000000c 	b	43d4 <n30_bne_test+0x43d4>
    43a4:	00000000 	nop
    43a8:	00000000 	nop
    43ac:	00000021 	move	zero,zero
    43b0:	00000021 	move	zero,zero
    43b4:	00000021 	move	zero,zero
    43b8:	00000021 	move	zero,zero
    43bc:	00000021 	move	zero,zero
    43c0:	00000021 	move	zero,zero
    43c4:	00000021 	move	zero,zero
    43c8:	00000021 	move	zero,zero
    43cc:	3c123d61 	lui	s2,0x3d61
    43d0:	3652f6b8 	ori	s2,s2,0xf6b8
    43d4:	00000000 	nop
    43d8:	3c140313 	lui	s4,0x313
    43dc:	369417b8 	ori	s4,s4,0x17b8
    43e0:	1614320c 	bne	s0,s4,10c14 <inst_error>
    43e4:	00000000 	nop
    43e8:	00000000 	nop
    43ec:	3c153d61 	lui	s5,0x3d61
    43f0:	36b5f6b8 	ori	s5,s5,0xf6b8
    43f4:	16553207 	bne	s2,s5,10c14 <inst_error>
    43f8:	00000000 	nop
    43fc:	00000000 	nop
    4400:	3c0c42d4 	lui	t4,0x42d4
    4404:	358c3bf0 	ori	t4,t4,0x3bf0
    4408:	3c0dfe45 	lui	t5,0xfe45
    440c:	35ad34f0 	ori	t5,t5,0x34f0
    4410:	24100000 	li	s0,0
    4414:	10000016 	b	4470 <n30_bne_test+0x4470>
    4418:	24120000 	li	s2,0
    441c:	00000000 	nop
    4420:	3c1042d4 	lui	s0,0x42d4
    4424:	15280023 	bne	t1,t0,44b4 <n30_bne_test+0x44b4>
    4428:	36103bf0 	ori	s0,s0,0x3bf0
    442c:	10000023 	b	44bc <n30_bne_test+0x44bc>
    4430:	00000000 	nop
    4434:	00000000 	nop
    4438:	00000021 	move	zero,zero
    443c:	00000021 	move	zero,zero
    4440:	00000021 	move	zero,zero
    4444:	00000021 	move	zero,zero
    4448:	00000021 	move	zero,zero
    444c:	00000021 	move	zero,zero
    4450:	00000021 	move	zero,zero
    4454:	00000021 	move	zero,zero
    4458:	00000021 	move	zero,zero
    445c:	00000021 	move	zero,zero
    4460:	00000021 	move	zero,zero
    4464:	00000021 	move	zero,zero
    4468:	00000021 	move	zero,zero
    446c:	00000021 	move	zero,zero
    4470:	3c087f1c 	lui	t0,0x7f1c
    4474:	3508510a 	ori	t0,t0,0x510a
    4478:	3c09836d 	lui	t1,0x836d
    447c:	3529c39a 	ori	t1,t1,0xc39a
    4480:	1509ffe7 	bne	t0,t1,4420 <n30_bne_test+0x4420>
    4484:	00000000 	nop
    4488:	1000000c 	b	44bc <n30_bne_test+0x44bc>
    448c:	00000000 	nop
    4490:	00000000 	nop
    4494:	00000021 	move	zero,zero
    4498:	00000021 	move	zero,zero
    449c:	00000021 	move	zero,zero
    44a0:	00000021 	move	zero,zero
    44a4:	00000021 	move	zero,zero
    44a8:	00000021 	move	zero,zero
    44ac:	00000021 	move	zero,zero
    44b0:	00000021 	move	zero,zero
    44b4:	3c12fe45 	lui	s2,0xfe45
    44b8:	365234f0 	ori	s2,s2,0x34f0
    44bc:	00000000 	nop
    44c0:	3c1442d4 	lui	s4,0x42d4
    44c4:	36943bf0 	ori	s4,s4,0x3bf0
    44c8:	161431d2 	bne	s0,s4,10c14 <inst_error>
    44cc:	00000000 	nop
    44d0:	00000000 	nop
    44d4:	3c15fe45 	lui	s5,0xfe45
    44d8:	36b534f0 	ori	s5,s5,0x34f0
    44dc:	165531cd 	bne	s2,s5,10c14 <inst_error>
    44e0:	00000000 	nop
    44e4:	00000000 	nop
    44e8:	3c0c6d73 	lui	t4,0x6d73
    44ec:	358c34d0 	ori	t4,t4,0x34d0
    44f0:	3c0daec2 	lui	t5,0xaec2
    44f4:	35ad4144 	ori	t5,t5,0x4144
    44f8:	24100000 	li	s0,0
    44fc:	10000016 	b	4558 <n30_bne_test+0x4558>
    4500:	24120000 	li	s2,0
    4504:	00000000 	nop
    4508:	3c106d73 	lui	s0,0x6d73
    450c:	15280023 	bne	t1,t0,459c <n30_bne_test+0x459c>
    4510:	361034d0 	ori	s0,s0,0x34d0
    4514:	10000023 	b	45a4 <n30_bne_test+0x45a4>
    4518:	00000000 	nop
    451c:	00000000 	nop
    4520:	00000021 	move	zero,zero
    4524:	00000021 	move	zero,zero
    4528:	00000021 	move	zero,zero
    452c:	00000021 	move	zero,zero
    4530:	00000021 	move	zero,zero
    4534:	00000021 	move	zero,zero
    4538:	00000021 	move	zero,zero
    453c:	00000021 	move	zero,zero
    4540:	00000021 	move	zero,zero
    4544:	00000021 	move	zero,zero
    4548:	00000021 	move	zero,zero
    454c:	00000021 	move	zero,zero
    4550:	00000021 	move	zero,zero
    4554:	00000021 	move	zero,zero
    4558:	3c080cd5 	lui	t0,0xcd5
    455c:	35086940 	ori	t0,t0,0x6940
    4560:	3c091815 	lui	t1,0x1815
    4564:	35295a16 	ori	t1,t1,0x5a16
    4568:	1509ffe7 	bne	t0,t1,4508 <n30_bne_test+0x4508>
    456c:	00000000 	nop
    4570:	1000000c 	b	45a4 <n30_bne_test+0x45a4>
    4574:	00000000 	nop
    4578:	00000000 	nop
    457c:	00000021 	move	zero,zero
    4580:	00000021 	move	zero,zero
    4584:	00000021 	move	zero,zero
    4588:	00000021 	move	zero,zero
    458c:	00000021 	move	zero,zero
    4590:	00000021 	move	zero,zero
    4594:	00000021 	move	zero,zero
    4598:	00000021 	move	zero,zero
    459c:	3c12aec2 	lui	s2,0xaec2
    45a0:	36524144 	ori	s2,s2,0x4144
    45a4:	00000000 	nop
    45a8:	3c146d73 	lui	s4,0x6d73
    45ac:	369434d0 	ori	s4,s4,0x34d0
    45b0:	16143198 	bne	s0,s4,10c14 <inst_error>
    45b4:	00000000 	nop
    45b8:	00000000 	nop
    45bc:	3c15aec2 	lui	s5,0xaec2
    45c0:	36b54144 	ori	s5,s5,0x4144
    45c4:	16553193 	bne	s2,s5,10c14 <inst_error>
    45c8:	00000000 	nop
    45cc:	00000000 	nop
    45d0:	3c0c7372 	lui	t4,0x7372
    45d4:	358c6a64 	ori	t4,t4,0x6a64
    45d8:	3c0d890c 	lui	t5,0x890c
    45dc:	35ad8224 	ori	t5,t5,0x8224
    45e0:	24100000 	li	s0,0
    45e4:	10000016 	b	4640 <n30_bne_test+0x4640>
    45e8:	24120000 	li	s2,0
    45ec:	00000000 	nop
    45f0:	3c107372 	lui	s0,0x7372
    45f4:	15280023 	bne	t1,t0,4684 <n30_bne_test+0x4684>
    45f8:	36106a64 	ori	s0,s0,0x6a64
    45fc:	10000023 	b	468c <n30_bne_test+0x468c>
    4600:	00000000 	nop
    4604:	00000000 	nop
    4608:	00000021 	move	zero,zero
    460c:	00000021 	move	zero,zero
    4610:	00000021 	move	zero,zero
    4614:	00000021 	move	zero,zero
    4618:	00000021 	move	zero,zero
    461c:	00000021 	move	zero,zero
    4620:	00000021 	move	zero,zero
    4624:	00000021 	move	zero,zero
    4628:	00000021 	move	zero,zero
    462c:	00000021 	move	zero,zero
    4630:	00000021 	move	zero,zero
    4634:	00000021 	move	zero,zero
    4638:	00000021 	move	zero,zero
    463c:	00000021 	move	zero,zero
    4640:	3c084b8c 	lui	t0,0x4b8c
    4644:	350859f8 	ori	t0,t0,0x59f8
    4648:	3c092e53 	lui	t1,0x2e53
    464c:	35299b1c 	ori	t1,t1,0x9b1c
    4650:	1509ffe7 	bne	t0,t1,45f0 <n30_bne_test+0x45f0>
    4654:	00000000 	nop
    4658:	1000000c 	b	468c <n30_bne_test+0x468c>
    465c:	00000000 	nop
    4660:	00000000 	nop
    4664:	00000021 	move	zero,zero
    4668:	00000021 	move	zero,zero
    466c:	00000021 	move	zero,zero
    4670:	00000021 	move	zero,zero
    4674:	00000021 	move	zero,zero
    4678:	00000021 	move	zero,zero
    467c:	00000021 	move	zero,zero
    4680:	00000021 	move	zero,zero
    4684:	3c12890c 	lui	s2,0x890c
    4688:	36528224 	ori	s2,s2,0x8224
    468c:	00000000 	nop
    4690:	3c147372 	lui	s4,0x7372
    4694:	36946a64 	ori	s4,s4,0x6a64
    4698:	1614315e 	bne	s0,s4,10c14 <inst_error>
    469c:	00000000 	nop
    46a0:	00000000 	nop
    46a4:	3c15890c 	lui	s5,0x890c
    46a8:	36b58224 	ori	s5,s5,0x8224
    46ac:	16553159 	bne	s2,s5,10c14 <inst_error>
    46b0:	00000000 	nop
    46b4:	00000000 	nop
    46b8:	3c0c14b0 	lui	t4,0x14b0
    46bc:	358c1cc5 	ori	t4,t4,0x1cc5
    46c0:	3c0da920 	lui	t5,0xa920
    46c4:	35ad3830 	ori	t5,t5,0x3830
    46c8:	24100000 	li	s0,0
    46cc:	10000016 	b	4728 <n30_bne_test+0x4728>
    46d0:	24120000 	li	s2,0
    46d4:	00000000 	nop
    46d8:	3c1014b0 	lui	s0,0x14b0
    46dc:	15280023 	bne	t1,t0,476c <n30_bne_test+0x476c>
    46e0:	36101cc5 	ori	s0,s0,0x1cc5
    46e4:	10000023 	b	4774 <n30_bne_test+0x4774>
    46e8:	00000000 	nop
    46ec:	00000000 	nop
    46f0:	00000021 	move	zero,zero
    46f4:	00000021 	move	zero,zero
    46f8:	00000021 	move	zero,zero
    46fc:	00000021 	move	zero,zero
    4700:	00000021 	move	zero,zero
    4704:	00000021 	move	zero,zero
    4708:	00000021 	move	zero,zero
    470c:	00000021 	move	zero,zero
    4710:	00000021 	move	zero,zero
    4714:	00000021 	move	zero,zero
    4718:	00000021 	move	zero,zero
    471c:	00000021 	move	zero,zero
    4720:	00000021 	move	zero,zero
    4724:	00000021 	move	zero,zero
    4728:	3c08fa6a 	lui	t0,0xfa6a
    472c:	35085040 	ori	t0,t0,0x5040
    4730:	3c0991e5 	lui	t1,0x91e5
    4734:	35299182 	ori	t1,t1,0x9182
    4738:	1509ffe7 	bne	t0,t1,46d8 <n30_bne_test+0x46d8>
    473c:	00000000 	nop
    4740:	1000000c 	b	4774 <n30_bne_test+0x4774>
    4744:	00000000 	nop
    4748:	00000000 	nop
    474c:	00000021 	move	zero,zero
    4750:	00000021 	move	zero,zero
    4754:	00000021 	move	zero,zero
    4758:	00000021 	move	zero,zero
    475c:	00000021 	move	zero,zero
    4760:	00000021 	move	zero,zero
    4764:	00000021 	move	zero,zero
    4768:	00000021 	move	zero,zero
    476c:	3c12a920 	lui	s2,0xa920
    4770:	36523830 	ori	s2,s2,0x3830
    4774:	00000000 	nop
    4778:	3c1414b0 	lui	s4,0x14b0
    477c:	36941cc5 	ori	s4,s4,0x1cc5
    4780:	16143124 	bne	s0,s4,10c14 <inst_error>
    4784:	00000000 	nop
    4788:	00000000 	nop
    478c:	3c15a920 	lui	s5,0xa920
    4790:	36b53830 	ori	s5,s5,0x3830
    4794:	1655311f 	bne	s2,s5,10c14 <inst_error>
    4798:	00000000 	nop
    479c:	00000000 	nop
    47a0:	3c0ce6a9 	lui	t4,0xe6a9
    47a4:	358c00fe 	ori	t4,t4,0xfe
    47a8:	3c0d6c59 	lui	t5,0x6c59
    47ac:	35adba20 	ori	t5,t5,0xba20
    47b0:	24100000 	li	s0,0
    47b4:	10000016 	b	4810 <n30_bne_test+0x4810>
    47b8:	24120000 	li	s2,0
    47bc:	00000000 	nop
    47c0:	3c10e6a9 	lui	s0,0xe6a9
    47c4:	15280023 	bne	t1,t0,4854 <n30_bne_test+0x4854>
    47c8:	361000fe 	ori	s0,s0,0xfe
    47cc:	10000023 	b	485c <n30_bne_test+0x485c>
    47d0:	00000000 	nop
    47d4:	00000000 	nop
    47d8:	00000021 	move	zero,zero
    47dc:	00000021 	move	zero,zero
    47e0:	00000021 	move	zero,zero
    47e4:	00000021 	move	zero,zero
    47e8:	00000021 	move	zero,zero
    47ec:	00000021 	move	zero,zero
    47f0:	00000021 	move	zero,zero
    47f4:	00000021 	move	zero,zero
    47f8:	00000021 	move	zero,zero
    47fc:	00000021 	move	zero,zero
    4800:	00000021 	move	zero,zero
    4804:	00000021 	move	zero,zero
    4808:	00000021 	move	zero,zero
    480c:	00000021 	move	zero,zero
    4810:	3c08a82c 	lui	t0,0xa82c
    4814:	35085100 	ori	t0,t0,0x5100
    4818:	3c0992a8 	lui	t1,0x92a8
    481c:	35297240 	ori	t1,t1,0x7240
    4820:	1509ffe7 	bne	t0,t1,47c0 <n30_bne_test+0x47c0>
    4824:	00000000 	nop
    4828:	1000000c 	b	485c <n30_bne_test+0x485c>
    482c:	00000000 	nop
    4830:	00000000 	nop
    4834:	00000021 	move	zero,zero
    4838:	00000021 	move	zero,zero
    483c:	00000021 	move	zero,zero
    4840:	00000021 	move	zero,zero
    4844:	00000021 	move	zero,zero
    4848:	00000021 	move	zero,zero
    484c:	00000021 	move	zero,zero
    4850:	00000021 	move	zero,zero
    4854:	3c126c59 	lui	s2,0x6c59
    4858:	3652ba20 	ori	s2,s2,0xba20
    485c:	00000000 	nop
    4860:	3c14e6a9 	lui	s4,0xe6a9
    4864:	369400fe 	ori	s4,s4,0xfe
    4868:	161430ea 	bne	s0,s4,10c14 <inst_error>
    486c:	00000000 	nop
    4870:	00000000 	nop
    4874:	3c156c59 	lui	s5,0x6c59
    4878:	36b5ba20 	ori	s5,s5,0xba20
    487c:	165530e5 	bne	s2,s5,10c14 <inst_error>
    4880:	00000000 	nop
    4884:	00000000 	nop
    4888:	3c0cdd23 	lui	t4,0xdd23
    488c:	358ce526 	ori	t4,t4,0xe526
    4890:	3c0d91c2 	lui	t5,0x91c2
    4894:	35ad6bd0 	ori	t5,t5,0x6bd0
    4898:	24100000 	li	s0,0
    489c:	10000016 	b	48f8 <n30_bne_test+0x48f8>
    48a0:	24120000 	li	s2,0
    48a4:	00000000 	nop
    48a8:	3c10dd23 	lui	s0,0xdd23
    48ac:	15280023 	bne	t1,t0,493c <n30_bne_test+0x493c>
    48b0:	3610e526 	ori	s0,s0,0xe526
    48b4:	10000023 	b	4944 <n30_bne_test+0x4944>
    48b8:	00000000 	nop
    48bc:	00000000 	nop
    48c0:	00000021 	move	zero,zero
    48c4:	00000021 	move	zero,zero
    48c8:	00000021 	move	zero,zero
    48cc:	00000021 	move	zero,zero
    48d0:	00000021 	move	zero,zero
    48d4:	00000021 	move	zero,zero
    48d8:	00000021 	move	zero,zero
    48dc:	00000021 	move	zero,zero
    48e0:	00000021 	move	zero,zero
    48e4:	00000021 	move	zero,zero
    48e8:	00000021 	move	zero,zero
    48ec:	00000021 	move	zero,zero
    48f0:	00000021 	move	zero,zero
    48f4:	00000021 	move	zero,zero
    48f8:	3c080b0c 	lui	t0,0xb0c
    48fc:	350881e4 	ori	t0,t0,0x81e4
    4900:	3c09ab18 	lui	t1,0xab18
    4904:	35294898 	ori	t1,t1,0x4898
    4908:	1509ffe7 	bne	t0,t1,48a8 <n30_bne_test+0x48a8>
    490c:	00000000 	nop
    4910:	1000000c 	b	4944 <n30_bne_test+0x4944>
    4914:	00000000 	nop
    4918:	00000000 	nop
    491c:	00000021 	move	zero,zero
    4920:	00000021 	move	zero,zero
    4924:	00000021 	move	zero,zero
    4928:	00000021 	move	zero,zero
    492c:	00000021 	move	zero,zero
    4930:	00000021 	move	zero,zero
    4934:	00000021 	move	zero,zero
    4938:	00000021 	move	zero,zero
    493c:	3c1291c2 	lui	s2,0x91c2
    4940:	36526bd0 	ori	s2,s2,0x6bd0
    4944:	00000000 	nop
    4948:	3c14dd23 	lui	s4,0xdd23
    494c:	3694e526 	ori	s4,s4,0xe526
    4950:	161430b0 	bne	s0,s4,10c14 <inst_error>
    4954:	00000000 	nop
    4958:	00000000 	nop
    495c:	3c1591c2 	lui	s5,0x91c2
    4960:	36b56bd0 	ori	s5,s5,0x6bd0
    4964:	165530ab 	bne	s2,s5,10c14 <inst_error>
    4968:	00000000 	nop
    496c:	00000000 	nop
    4970:	3c0cdac7 	lui	t4,0xdac7
    4974:	358c2590 	ori	t4,t4,0x2590
    4978:	3c0da2c6 	lui	t5,0xa2c6
    497c:	35ada1a4 	ori	t5,t5,0xa1a4
    4980:	24100000 	li	s0,0
    4984:	10000016 	b	49e0 <n30_bne_test+0x49e0>
    4988:	24120000 	li	s2,0
    498c:	00000000 	nop
    4990:	3c10dac7 	lui	s0,0xdac7
    4994:	15280023 	bne	t1,t0,4a24 <n30_bne_test+0x4a24>
    4998:	36102590 	ori	s0,s0,0x2590
    499c:	10000023 	b	4a2c <n30_bne_test+0x4a2c>
    49a0:	00000000 	nop
    49a4:	00000000 	nop
    49a8:	00000021 	move	zero,zero
    49ac:	00000021 	move	zero,zero
    49b0:	00000021 	move	zero,zero
    49b4:	00000021 	move	zero,zero
    49b8:	00000021 	move	zero,zero
    49bc:	00000021 	move	zero,zero
    49c0:	00000021 	move	zero,zero
    49c4:	00000021 	move	zero,zero
    49c8:	00000021 	move	zero,zero
    49cc:	00000021 	move	zero,zero
    49d0:	00000021 	move	zero,zero
    49d4:	00000021 	move	zero,zero
    49d8:	00000021 	move	zero,zero
    49dc:	00000021 	move	zero,zero
    49e0:	3c0897d5 	lui	t0,0x97d5
    49e4:	35081023 	ori	t0,t0,0x1023
    49e8:	3c092023 	lui	t1,0x2023
    49ec:	35297fe8 	ori	t1,t1,0x7fe8
    49f0:	1509ffe7 	bne	t0,t1,4990 <n30_bne_test+0x4990>
    49f4:	00000000 	nop
    49f8:	1000000c 	b	4a2c <n30_bne_test+0x4a2c>
    49fc:	00000000 	nop
    4a00:	00000000 	nop
    4a04:	00000021 	move	zero,zero
    4a08:	00000021 	move	zero,zero
    4a0c:	00000021 	move	zero,zero
    4a10:	00000021 	move	zero,zero
    4a14:	00000021 	move	zero,zero
    4a18:	00000021 	move	zero,zero
    4a1c:	00000021 	move	zero,zero
    4a20:	00000021 	move	zero,zero
    4a24:	3c12a2c6 	lui	s2,0xa2c6
    4a28:	3652a1a4 	ori	s2,s2,0xa1a4
    4a2c:	00000000 	nop
    4a30:	3c14dac7 	lui	s4,0xdac7
    4a34:	36942590 	ori	s4,s4,0x2590
    4a38:	16143076 	bne	s0,s4,10c14 <inst_error>
    4a3c:	00000000 	nop
    4a40:	00000000 	nop
    4a44:	3c15a2c6 	lui	s5,0xa2c6
    4a48:	36b5a1a4 	ori	s5,s5,0xa1a4
    4a4c:	16553071 	bne	s2,s5,10c14 <inst_error>
    4a50:	00000000 	nop
    4a54:	00000000 	nop
    4a58:	3c0c8e49 	lui	t4,0x8e49
    4a5c:	358c9699 	ori	t4,t4,0x9699
    4a60:	3c0de236 	lui	t5,0xe236
    4a64:	35ade148 	ori	t5,t5,0xe148
    4a68:	24100000 	li	s0,0
    4a6c:	10000016 	b	4ac8 <n30_bne_test+0x4ac8>
    4a70:	24120000 	li	s2,0
    4a74:	00000000 	nop
    4a78:	3c108e49 	lui	s0,0x8e49
    4a7c:	15280023 	bne	t1,t0,4b0c <n30_bne_test+0x4b0c>
    4a80:	36109699 	ori	s0,s0,0x9699
    4a84:	10000023 	b	4b14 <n30_bne_test+0x4b14>
    4a88:	00000000 	nop
    4a8c:	00000000 	nop
    4a90:	00000021 	move	zero,zero
    4a94:	00000021 	move	zero,zero
    4a98:	00000021 	move	zero,zero
    4a9c:	00000021 	move	zero,zero
    4aa0:	00000021 	move	zero,zero
    4aa4:	00000021 	move	zero,zero
    4aa8:	00000021 	move	zero,zero
    4aac:	00000021 	move	zero,zero
    4ab0:	00000021 	move	zero,zero
    4ab4:	00000021 	move	zero,zero
    4ab8:	00000021 	move	zero,zero
    4abc:	00000021 	move	zero,zero
    4ac0:	00000021 	move	zero,zero
    4ac4:	00000021 	move	zero,zero
    4ac8:	3c0896db 	lui	t0,0x96db
    4acc:	350890b0 	ori	t0,t0,0x90b0
    4ad0:	3c091d1d 	lui	t1,0x1d1d
    4ad4:	3529f7e0 	ori	t1,t1,0xf7e0
    4ad8:	1509ffe7 	bne	t0,t1,4a78 <n30_bne_test+0x4a78>
    4adc:	00000000 	nop
    4ae0:	1000000c 	b	4b14 <n30_bne_test+0x4b14>
    4ae4:	00000000 	nop
    4ae8:	00000000 	nop
    4aec:	00000021 	move	zero,zero
    4af0:	00000021 	move	zero,zero
    4af4:	00000021 	move	zero,zero
    4af8:	00000021 	move	zero,zero
    4afc:	00000021 	move	zero,zero
    4b00:	00000021 	move	zero,zero
    4b04:	00000021 	move	zero,zero
    4b08:	00000021 	move	zero,zero
    4b0c:	3c12e236 	lui	s2,0xe236
    4b10:	3652e148 	ori	s2,s2,0xe148
    4b14:	00000000 	nop
    4b18:	3c148e49 	lui	s4,0x8e49
    4b1c:	36949699 	ori	s4,s4,0x9699
    4b20:	1614303c 	bne	s0,s4,10c14 <inst_error>
    4b24:	00000000 	nop
    4b28:	00000000 	nop
    4b2c:	3c15e236 	lui	s5,0xe236
    4b30:	36b5e148 	ori	s5,s5,0xe148
    4b34:	16553037 	bne	s2,s5,10c14 <inst_error>
    4b38:	00000000 	nop
    4b3c:	00000000 	nop
    4b40:	3c0c887f 	lui	t4,0x887f
    4b44:	358c0b60 	ori	t4,t4,0xb60
    4b48:	3c0df6fd 	lui	t5,0xf6fd
    4b4c:	35ad4de8 	ori	t5,t5,0x4de8
    4b50:	24100000 	li	s0,0
    4b54:	10000016 	b	4bb0 <n30_bne_test+0x4bb0>
    4b58:	24120000 	li	s2,0
    4b5c:	00000000 	nop
    4b60:	3c10887f 	lui	s0,0x887f
    4b64:	15280023 	bne	t1,t0,4bf4 <n30_bne_test+0x4bf4>
    4b68:	36100b60 	ori	s0,s0,0xb60
    4b6c:	10000023 	b	4bfc <n30_bne_test+0x4bfc>
    4b70:	00000000 	nop
    4b74:	00000000 	nop
    4b78:	00000021 	move	zero,zero
    4b7c:	00000021 	move	zero,zero
    4b80:	00000021 	move	zero,zero
    4b84:	00000021 	move	zero,zero
    4b88:	00000021 	move	zero,zero
    4b8c:	00000021 	move	zero,zero
    4b90:	00000021 	move	zero,zero
    4b94:	00000021 	move	zero,zero
    4b98:	00000021 	move	zero,zero
    4b9c:	00000021 	move	zero,zero
    4ba0:	00000021 	move	zero,zero
    4ba4:	00000021 	move	zero,zero
    4ba8:	00000021 	move	zero,zero
    4bac:	00000021 	move	zero,zero
    4bb0:	3c085a54 	lui	t0,0x5a54
    4bb4:	3508c45a 	ori	t0,t0,0xc45a
    4bb8:	3c099ba2 	lui	t1,0x9ba2
    4bbc:	3529015c 	ori	t1,t1,0x15c
    4bc0:	1509ffe7 	bne	t0,t1,4b60 <n30_bne_test+0x4b60>
    4bc4:	00000000 	nop
    4bc8:	1000000c 	b	4bfc <n30_bne_test+0x4bfc>
    4bcc:	00000000 	nop
    4bd0:	00000000 	nop
    4bd4:	00000021 	move	zero,zero
    4bd8:	00000021 	move	zero,zero
    4bdc:	00000021 	move	zero,zero
    4be0:	00000021 	move	zero,zero
    4be4:	00000021 	move	zero,zero
    4be8:	00000021 	move	zero,zero
    4bec:	00000021 	move	zero,zero
    4bf0:	00000021 	move	zero,zero
    4bf4:	3c12f6fd 	lui	s2,0xf6fd
    4bf8:	36524de8 	ori	s2,s2,0x4de8
    4bfc:	00000000 	nop
    4c00:	3c14887f 	lui	s4,0x887f
    4c04:	36940b60 	ori	s4,s4,0xb60
    4c08:	16143002 	bne	s0,s4,10c14 <inst_error>
    4c0c:	00000000 	nop
    4c10:	00000000 	nop
    4c14:	3c15f6fd 	lui	s5,0xf6fd
    4c18:	36b54de8 	ori	s5,s5,0x4de8
    4c1c:	16552ffd 	bne	s2,s5,10c14 <inst_error>
    4c20:	00000000 	nop
    4c24:	00000000 	nop
    4c28:	3c0ce353 	lui	t4,0xe353
    4c2c:	358c0574 	ori	t4,t4,0x574
    4c30:	3c0d6556 	lui	t5,0x6556
    4c34:	35ada3c0 	ori	t5,t5,0xa3c0
    4c38:	24100000 	li	s0,0
    4c3c:	10000016 	b	4c98 <n30_bne_test+0x4c98>
    4c40:	24120000 	li	s2,0
    4c44:	00000000 	nop
    4c48:	3c10e353 	lui	s0,0xe353
    4c4c:	15280023 	bne	t1,t0,4cdc <n30_bne_test+0x4cdc>
    4c50:	36100574 	ori	s0,s0,0x574
    4c54:	10000023 	b	4ce4 <n30_bne_test+0x4ce4>
    4c58:	00000000 	nop
    4c5c:	00000000 	nop
    4c60:	00000021 	move	zero,zero
    4c64:	00000021 	move	zero,zero
    4c68:	00000021 	move	zero,zero
    4c6c:	00000021 	move	zero,zero
    4c70:	00000021 	move	zero,zero
    4c74:	00000021 	move	zero,zero
    4c78:	00000021 	move	zero,zero
    4c7c:	00000021 	move	zero,zero
    4c80:	00000021 	move	zero,zero
    4c84:	00000021 	move	zero,zero
    4c88:	00000021 	move	zero,zero
    4c8c:	00000021 	move	zero,zero
    4c90:	00000021 	move	zero,zero
    4c94:	00000021 	move	zero,zero
    4c98:	3c08264d 	lui	t0,0x264d
    4c9c:	3508e37a 	ori	t0,t0,0xe37a
    4ca0:	3c099fa3 	lui	t1,0x9fa3
    4ca4:	352989ab 	ori	t1,t1,0x89ab
    4ca8:	1509ffe7 	bne	t0,t1,4c48 <n30_bne_test+0x4c48>
    4cac:	00000000 	nop
    4cb0:	1000000c 	b	4ce4 <n30_bne_test+0x4ce4>
    4cb4:	00000000 	nop
    4cb8:	00000000 	nop
    4cbc:	00000021 	move	zero,zero
    4cc0:	00000021 	move	zero,zero
    4cc4:	00000021 	move	zero,zero
    4cc8:	00000021 	move	zero,zero
    4ccc:	00000021 	move	zero,zero
    4cd0:	00000021 	move	zero,zero
    4cd4:	00000021 	move	zero,zero
    4cd8:	00000021 	move	zero,zero
    4cdc:	3c126556 	lui	s2,0x6556
    4ce0:	3652a3c0 	ori	s2,s2,0xa3c0
    4ce4:	00000000 	nop
    4ce8:	3c14e353 	lui	s4,0xe353
    4cec:	36940574 	ori	s4,s4,0x574
    4cf0:	16142fc8 	bne	s0,s4,10c14 <inst_error>
    4cf4:	00000000 	nop
    4cf8:	00000000 	nop
    4cfc:	3c156556 	lui	s5,0x6556
    4d00:	36b5a3c0 	ori	s5,s5,0xa3c0
    4d04:	16552fc3 	bne	s2,s5,10c14 <inst_error>
    4d08:	00000000 	nop
    4d0c:	00000000 	nop
    4d10:	3c0c9509 	lui	t4,0x9509
    4d14:	358c2f84 	ori	t4,t4,0x2f84
    4d18:	3c0dccc1 	lui	t5,0xccc1
    4d1c:	35adcfd0 	ori	t5,t5,0xcfd0
    4d20:	24100000 	li	s0,0
    4d24:	10000016 	b	4d80 <n30_bne_test+0x4d80>
    4d28:	24120000 	li	s2,0
    4d2c:	00000000 	nop
    4d30:	3c109509 	lui	s0,0x9509
    4d34:	15280023 	bne	t1,t0,4dc4 <n30_bne_test+0x4dc4>
    4d38:	36102f84 	ori	s0,s0,0x2f84
    4d3c:	10000023 	b	4dcc <n30_bne_test+0x4dcc>
    4d40:	00000000 	nop
    4d44:	00000000 	nop
    4d48:	00000021 	move	zero,zero
    4d4c:	00000021 	move	zero,zero
    4d50:	00000021 	move	zero,zero
    4d54:	00000021 	move	zero,zero
    4d58:	00000021 	move	zero,zero
    4d5c:	00000021 	move	zero,zero
    4d60:	00000021 	move	zero,zero
    4d64:	00000021 	move	zero,zero
    4d68:	00000021 	move	zero,zero
    4d6c:	00000021 	move	zero,zero
    4d70:	00000021 	move	zero,zero
    4d74:	00000021 	move	zero,zero
    4d78:	00000021 	move	zero,zero
    4d7c:	00000021 	move	zero,zero
    4d80:	3c0854b4 	lui	t0,0x54b4
    4d84:	35085b56 	ori	t0,t0,0x5b56
    4d88:	3c09f8a4 	lui	t1,0xf8a4
    4d8c:	3529a4c0 	ori	t1,t1,0xa4c0
    4d90:	1509ffe7 	bne	t0,t1,4d30 <n30_bne_test+0x4d30>
    4d94:	00000000 	nop
    4d98:	1000000c 	b	4dcc <n30_bne_test+0x4dcc>
    4d9c:	00000000 	nop
    4da0:	00000000 	nop
    4da4:	00000021 	move	zero,zero
    4da8:	00000021 	move	zero,zero
    4dac:	00000021 	move	zero,zero
    4db0:	00000021 	move	zero,zero
    4db4:	00000021 	move	zero,zero
    4db8:	00000021 	move	zero,zero
    4dbc:	00000021 	move	zero,zero
    4dc0:	00000021 	move	zero,zero
    4dc4:	3c12ccc1 	lui	s2,0xccc1
    4dc8:	3652cfd0 	ori	s2,s2,0xcfd0
    4dcc:	00000000 	nop
    4dd0:	3c149509 	lui	s4,0x9509
    4dd4:	36942f84 	ori	s4,s4,0x2f84
    4dd8:	16142f8e 	bne	s0,s4,10c14 <inst_error>
    4ddc:	00000000 	nop
    4de0:	00000000 	nop
    4de4:	3c15ccc1 	lui	s5,0xccc1
    4de8:	36b5cfd0 	ori	s5,s5,0xcfd0
    4dec:	16552f89 	bne	s2,s5,10c14 <inst_error>
    4df0:	00000000 	nop
    4df4:	00000000 	nop
    4df8:	3c0c10d5 	lui	t4,0x10d5
    4dfc:	358cf260 	ori	t4,t4,0xf260
    4e00:	3c0d298e 	lui	t5,0x298e
    4e04:	35adcdf0 	ori	t5,t5,0xcdf0
    4e08:	24100000 	li	s0,0
    4e0c:	10000016 	b	4e68 <n30_bne_test+0x4e68>
    4e10:	24120000 	li	s2,0
    4e14:	00000000 	nop
    4e18:	3c1010d5 	lui	s0,0x10d5
    4e1c:	15280023 	bne	t1,t0,4eac <n30_bne_test+0x4eac>
    4e20:	3610f260 	ori	s0,s0,0xf260
    4e24:	10000023 	b	4eb4 <n30_bne_test+0x4eb4>
    4e28:	00000000 	nop
    4e2c:	00000000 	nop
    4e30:	00000021 	move	zero,zero
    4e34:	00000021 	move	zero,zero
    4e38:	00000021 	move	zero,zero
    4e3c:	00000021 	move	zero,zero
    4e40:	00000021 	move	zero,zero
    4e44:	00000021 	move	zero,zero
    4e48:	00000021 	move	zero,zero
    4e4c:	00000021 	move	zero,zero
    4e50:	00000021 	move	zero,zero
    4e54:	00000021 	move	zero,zero
    4e58:	00000021 	move	zero,zero
    4e5c:	00000021 	move	zero,zero
    4e60:	00000021 	move	zero,zero
    4e64:	00000021 	move	zero,zero
    4e68:	3c0870e6 	lui	t0,0x70e6
    4e6c:	3508db20 	ori	t0,t0,0xdb20
    4e70:	3c09df40 	lui	t1,0xdf40
    4e74:	35294a88 	ori	t1,t1,0x4a88
    4e78:	1509ffe7 	bne	t0,t1,4e18 <n30_bne_test+0x4e18>
    4e7c:	00000000 	nop
    4e80:	1000000c 	b	4eb4 <n30_bne_test+0x4eb4>
    4e84:	00000000 	nop
    4e88:	00000000 	nop
    4e8c:	00000021 	move	zero,zero
    4e90:	00000021 	move	zero,zero
    4e94:	00000021 	move	zero,zero
    4e98:	00000021 	move	zero,zero
    4e9c:	00000021 	move	zero,zero
    4ea0:	00000021 	move	zero,zero
    4ea4:	00000021 	move	zero,zero
    4ea8:	00000021 	move	zero,zero
    4eac:	3c12298e 	lui	s2,0x298e
    4eb0:	3652cdf0 	ori	s2,s2,0xcdf0
    4eb4:	00000000 	nop
    4eb8:	3c1410d5 	lui	s4,0x10d5
    4ebc:	3694f260 	ori	s4,s4,0xf260
    4ec0:	16142f54 	bne	s0,s4,10c14 <inst_error>
    4ec4:	00000000 	nop
    4ec8:	00000000 	nop
    4ecc:	3c15298e 	lui	s5,0x298e
    4ed0:	36b5cdf0 	ori	s5,s5,0xcdf0
    4ed4:	16552f4f 	bne	s2,s5,10c14 <inst_error>
    4ed8:	00000000 	nop
    4edc:	00000000 	nop
    4ee0:	3c0cf5dc 	lui	t4,0xf5dc
    4ee4:	358c6940 	ori	t4,t4,0x6940
    4ee8:	3c0dbe6b 	lui	t5,0xbe6b
    4eec:	35adfb60 	ori	t5,t5,0xfb60
    4ef0:	24100000 	li	s0,0
    4ef4:	10000016 	b	4f50 <n30_bne_test+0x4f50>
    4ef8:	24120000 	li	s2,0
    4efc:	00000000 	nop
    4f00:	3c10f5dc 	lui	s0,0xf5dc
    4f04:	15280023 	bne	t1,t0,4f94 <n30_bne_test+0x4f94>
    4f08:	36106940 	ori	s0,s0,0x6940
    4f0c:	10000023 	b	4f9c <n30_bne_test+0x4f9c>
    4f10:	00000000 	nop
    4f14:	00000000 	nop
    4f18:	00000021 	move	zero,zero
    4f1c:	00000021 	move	zero,zero
    4f20:	00000021 	move	zero,zero
    4f24:	00000021 	move	zero,zero
    4f28:	00000021 	move	zero,zero
    4f2c:	00000021 	move	zero,zero
    4f30:	00000021 	move	zero,zero
    4f34:	00000021 	move	zero,zero
    4f38:	00000021 	move	zero,zero
    4f3c:	00000021 	move	zero,zero
    4f40:	00000021 	move	zero,zero
    4f44:	00000021 	move	zero,zero
    4f48:	00000021 	move	zero,zero
    4f4c:	00000021 	move	zero,zero
    4f50:	3c082e27 	lui	t0,0x2e27
    4f54:	35089cac 	ori	t0,t0,0x9cac
    4f58:	3c094978 	lui	t1,0x4978
    4f5c:	3529e47a 	ori	t1,t1,0xe47a
    4f60:	1509ffe7 	bne	t0,t1,4f00 <n30_bne_test+0x4f00>
    4f64:	00000000 	nop
    4f68:	1000000c 	b	4f9c <n30_bne_test+0x4f9c>
    4f6c:	00000000 	nop
    4f70:	00000000 	nop
    4f74:	00000021 	move	zero,zero
    4f78:	00000021 	move	zero,zero
    4f7c:	00000021 	move	zero,zero
    4f80:	00000021 	move	zero,zero
    4f84:	00000021 	move	zero,zero
    4f88:	00000021 	move	zero,zero
    4f8c:	00000021 	move	zero,zero
    4f90:	00000021 	move	zero,zero
    4f94:	3c12be6b 	lui	s2,0xbe6b
    4f98:	3652fb60 	ori	s2,s2,0xfb60
    4f9c:	00000000 	nop
    4fa0:	3c14f5dc 	lui	s4,0xf5dc
    4fa4:	36946940 	ori	s4,s4,0x6940
    4fa8:	16142f1a 	bne	s0,s4,10c14 <inst_error>
    4fac:	00000000 	nop
    4fb0:	00000000 	nop
    4fb4:	3c15be6b 	lui	s5,0xbe6b
    4fb8:	36b5fb60 	ori	s5,s5,0xfb60
    4fbc:	16552f15 	bne	s2,s5,10c14 <inst_error>
    4fc0:	00000000 	nop
    4fc4:	00000000 	nop
    4fc8:	3c0ceb11 	lui	t4,0xeb11
    4fcc:	358cab90 	ori	t4,t4,0xab90
    4fd0:	3c0deba0 	lui	t5,0xeba0
    4fd4:	35ad5310 	ori	t5,t5,0x5310
    4fd8:	24100000 	li	s0,0
    4fdc:	10000016 	b	5038 <n30_bne_test+0x5038>
    4fe0:	24120000 	li	s2,0
    4fe4:	00000000 	nop
    4fe8:	3c10eb11 	lui	s0,0xeb11
    4fec:	15280023 	bne	t1,t0,507c <n30_bne_test+0x507c>
    4ff0:	3610ab90 	ori	s0,s0,0xab90
    4ff4:	10000023 	b	5084 <n30_bne_test+0x5084>
    4ff8:	00000000 	nop
    4ffc:	00000000 	nop
    5000:	00000021 	move	zero,zero
    5004:	00000021 	move	zero,zero
    5008:	00000021 	move	zero,zero
    500c:	00000021 	move	zero,zero
    5010:	00000021 	move	zero,zero
    5014:	00000021 	move	zero,zero
    5018:	00000021 	move	zero,zero
    501c:	00000021 	move	zero,zero
    5020:	00000021 	move	zero,zero
    5024:	00000021 	move	zero,zero
    5028:	00000021 	move	zero,zero
    502c:	00000021 	move	zero,zero
    5030:	00000021 	move	zero,zero
    5034:	00000021 	move	zero,zero
    5038:	3c0889fd 	lui	t0,0x89fd
    503c:	35086e58 	ori	t0,t0,0x6e58
    5040:	3c09f88d 	lui	t1,0xf88d
    5044:	3529daf9 	ori	t1,t1,0xdaf9
    5048:	1509ffe7 	bne	t0,t1,4fe8 <n30_bne_test+0x4fe8>
    504c:	00000000 	nop
    5050:	1000000c 	b	5084 <n30_bne_test+0x5084>
    5054:	00000000 	nop
    5058:	00000000 	nop
    505c:	00000021 	move	zero,zero
    5060:	00000021 	move	zero,zero
    5064:	00000021 	move	zero,zero
    5068:	00000021 	move	zero,zero
    506c:	00000021 	move	zero,zero
    5070:	00000021 	move	zero,zero
    5074:	00000021 	move	zero,zero
    5078:	00000021 	move	zero,zero
    507c:	3c12eba0 	lui	s2,0xeba0
    5080:	36525310 	ori	s2,s2,0x5310
    5084:	00000000 	nop
    5088:	3c14eb11 	lui	s4,0xeb11
    508c:	3694ab90 	ori	s4,s4,0xab90
    5090:	16142ee0 	bne	s0,s4,10c14 <inst_error>
    5094:	00000000 	nop
    5098:	00000000 	nop
    509c:	3c15eba0 	lui	s5,0xeba0
    50a0:	36b55310 	ori	s5,s5,0x5310
    50a4:	16552edb 	bne	s2,s5,10c14 <inst_error>
    50a8:	00000000 	nop
    50ac:	00000000 	nop
    50b0:	3c0c41ae 	lui	t4,0x41ae
    50b4:	358c3dc0 	ori	t4,t4,0x3dc0
    50b8:	3c0d4fe5 	lui	t5,0x4fe5
    50bc:	35ad9830 	ori	t5,t5,0x9830
    50c0:	24100000 	li	s0,0
    50c4:	10000016 	b	5120 <n30_bne_test+0x5120>
    50c8:	24120000 	li	s2,0
    50cc:	00000000 	nop
    50d0:	3c1041ae 	lui	s0,0x41ae
    50d4:	15280023 	bne	t1,t0,5164 <n30_bne_test+0x5164>
    50d8:	36103dc0 	ori	s0,s0,0x3dc0
    50dc:	10000023 	b	516c <n30_bne_test+0x516c>
    50e0:	00000000 	nop
    50e4:	00000000 	nop
    50e8:	00000021 	move	zero,zero
    50ec:	00000021 	move	zero,zero
    50f0:	00000021 	move	zero,zero
    50f4:	00000021 	move	zero,zero
    50f8:	00000021 	move	zero,zero
    50fc:	00000021 	move	zero,zero
    5100:	00000021 	move	zero,zero
    5104:	00000021 	move	zero,zero
    5108:	00000021 	move	zero,zero
    510c:	00000021 	move	zero,zero
    5110:	00000021 	move	zero,zero
    5114:	00000021 	move	zero,zero
    5118:	00000021 	move	zero,zero
    511c:	00000021 	move	zero,zero
    5120:	3c085ea7 	lui	t0,0x5ea7
    5124:	35084080 	ori	t0,t0,0x4080
    5128:	3c09ef2b 	lui	t1,0xef2b
    512c:	35296a40 	ori	t1,t1,0x6a40
    5130:	1509ffe7 	bne	t0,t1,50d0 <n30_bne_test+0x50d0>
    5134:	00000000 	nop
    5138:	1000000c 	b	516c <n30_bne_test+0x516c>
    513c:	00000000 	nop
    5140:	00000000 	nop
    5144:	00000021 	move	zero,zero
    5148:	00000021 	move	zero,zero
    514c:	00000021 	move	zero,zero
    5150:	00000021 	move	zero,zero
    5154:	00000021 	move	zero,zero
    5158:	00000021 	move	zero,zero
    515c:	00000021 	move	zero,zero
    5160:	00000021 	move	zero,zero
    5164:	3c124fe5 	lui	s2,0x4fe5
    5168:	36529830 	ori	s2,s2,0x9830
    516c:	00000000 	nop
    5170:	3c1441ae 	lui	s4,0x41ae
    5174:	36943dc0 	ori	s4,s4,0x3dc0
    5178:	16142ea6 	bne	s0,s4,10c14 <inst_error>
    517c:	00000000 	nop
    5180:	00000000 	nop
    5184:	3c154fe5 	lui	s5,0x4fe5
    5188:	36b59830 	ori	s5,s5,0x9830
    518c:	16552ea1 	bne	s2,s5,10c14 <inst_error>
    5190:	00000000 	nop
    5194:	00000000 	nop
    5198:	3c0c6909 	lui	t4,0x6909
    519c:	358c0b48 	ori	t4,t4,0xb48
    51a0:	3c0dd8ad 	lui	t5,0xd8ad
    51a4:	35ade460 	ori	t5,t5,0xe460
    51a8:	24100000 	li	s0,0
    51ac:	10000016 	b	5208 <n30_bne_test+0x5208>
    51b0:	24120000 	li	s2,0
    51b4:	00000000 	nop
    51b8:	3c106909 	lui	s0,0x6909
    51bc:	15280023 	bne	t1,t0,524c <n30_bne_test+0x524c>
    51c0:	36100b48 	ori	s0,s0,0xb48
    51c4:	10000023 	b	5254 <n30_bne_test+0x5254>
    51c8:	00000000 	nop
    51cc:	00000000 	nop
    51d0:	00000021 	move	zero,zero
    51d4:	00000021 	move	zero,zero
    51d8:	00000021 	move	zero,zero
    51dc:	00000021 	move	zero,zero
    51e0:	00000021 	move	zero,zero
    51e4:	00000021 	move	zero,zero
    51e8:	00000021 	move	zero,zero
    51ec:	00000021 	move	zero,zero
    51f0:	00000021 	move	zero,zero
    51f4:	00000021 	move	zero,zero
    51f8:	00000021 	move	zero,zero
    51fc:	00000021 	move	zero,zero
    5200:	00000021 	move	zero,zero
    5204:	00000021 	move	zero,zero
    5208:	3c0886d8 	lui	t0,0x86d8
    520c:	35087cd1 	ori	t0,t0,0x7cd1
    5210:	3c09aed3 	lui	t1,0xaed3
    5214:	3529caec 	ori	t1,t1,0xcaec
    5218:	1509ffe7 	bne	t0,t1,51b8 <n30_bne_test+0x51b8>
    521c:	00000000 	nop
    5220:	1000000c 	b	5254 <n30_bne_test+0x5254>
    5224:	00000000 	nop
    5228:	00000000 	nop
    522c:	00000021 	move	zero,zero
    5230:	00000021 	move	zero,zero
    5234:	00000021 	move	zero,zero
    5238:	00000021 	move	zero,zero
    523c:	00000021 	move	zero,zero
    5240:	00000021 	move	zero,zero
    5244:	00000021 	move	zero,zero
    5248:	00000021 	move	zero,zero
    524c:	3c12d8ad 	lui	s2,0xd8ad
    5250:	3652e460 	ori	s2,s2,0xe460
    5254:	00000000 	nop
    5258:	3c146909 	lui	s4,0x6909
    525c:	36940b48 	ori	s4,s4,0xb48
    5260:	16142e6c 	bne	s0,s4,10c14 <inst_error>
    5264:	00000000 	nop
    5268:	00000000 	nop
    526c:	3c15d8ad 	lui	s5,0xd8ad
    5270:	36b5e460 	ori	s5,s5,0xe460
    5274:	16552e67 	bne	s2,s5,10c14 <inst_error>
    5278:	00000000 	nop
    527c:	00000000 	nop
    5280:	3c0c1f19 	lui	t4,0x1f19
    5284:	358cc3e0 	ori	t4,t4,0xc3e0
    5288:	3c0d22b4 	lui	t5,0x22b4
    528c:	35ad0ba8 	ori	t5,t5,0xba8
    5290:	24100000 	li	s0,0
    5294:	10000016 	b	52f0 <n30_bne_test+0x52f0>
    5298:	24120000 	li	s2,0
    529c:	00000000 	nop
    52a0:	3c101f19 	lui	s0,0x1f19
    52a4:	15280023 	bne	t1,t0,5334 <n30_bne_test+0x5334>
    52a8:	3610c3e0 	ori	s0,s0,0xc3e0
    52ac:	10000023 	b	533c <n30_bne_test+0x533c>
    52b0:	00000000 	nop
    52b4:	00000000 	nop
    52b8:	00000021 	move	zero,zero
    52bc:	00000021 	move	zero,zero
    52c0:	00000021 	move	zero,zero
    52c4:	00000021 	move	zero,zero
    52c8:	00000021 	move	zero,zero
    52cc:	00000021 	move	zero,zero
    52d0:	00000021 	move	zero,zero
    52d4:	00000021 	move	zero,zero
    52d8:	00000021 	move	zero,zero
    52dc:	00000021 	move	zero,zero
    52e0:	00000021 	move	zero,zero
    52e4:	00000021 	move	zero,zero
    52e8:	00000021 	move	zero,zero
    52ec:	00000021 	move	zero,zero
    52f0:	3c08be0e 	lui	t0,0xbe0e
    52f4:	35086070 	ori	t0,t0,0x6070
    52f8:	3c09d0d2 	lui	t1,0xd0d2
    52fc:	35292e80 	ori	t1,t1,0x2e80
    5300:	1509ffe7 	bne	t0,t1,52a0 <n30_bne_test+0x52a0>
    5304:	00000000 	nop
    5308:	1000000c 	b	533c <n30_bne_test+0x533c>
    530c:	00000000 	nop
    5310:	00000000 	nop
    5314:	00000021 	move	zero,zero
    5318:	00000021 	move	zero,zero
    531c:	00000021 	move	zero,zero
    5320:	00000021 	move	zero,zero
    5324:	00000021 	move	zero,zero
    5328:	00000021 	move	zero,zero
    532c:	00000021 	move	zero,zero
    5330:	00000021 	move	zero,zero
    5334:	3c1222b4 	lui	s2,0x22b4
    5338:	36520ba8 	ori	s2,s2,0xba8
    533c:	00000000 	nop
    5340:	3c141f19 	lui	s4,0x1f19
    5344:	3694c3e0 	ori	s4,s4,0xc3e0
    5348:	16142e32 	bne	s0,s4,10c14 <inst_error>
    534c:	00000000 	nop
    5350:	00000000 	nop
    5354:	3c1522b4 	lui	s5,0x22b4
    5358:	36b50ba8 	ori	s5,s5,0xba8
    535c:	16552e2d 	bne	s2,s5,10c14 <inst_error>
    5360:	00000000 	nop
    5364:	00000000 	nop
    5368:	3c0c9a22 	lui	t4,0x9a22
    536c:	358c0ced 	ori	t4,t4,0xced
    5370:	3c0d9dd4 	lui	t5,0x9dd4
    5374:	35ad57af 	ori	t5,t5,0x57af
    5378:	24100000 	li	s0,0
    537c:	10000016 	b	53d8 <n30_bne_test+0x53d8>
    5380:	24120000 	li	s2,0
    5384:	00000000 	nop
    5388:	3c109a22 	lui	s0,0x9a22
    538c:	15280023 	bne	t1,t0,541c <n30_bne_test+0x541c>
    5390:	36100ced 	ori	s0,s0,0xced
    5394:	10000023 	b	5424 <n30_bne_test+0x5424>
    5398:	00000000 	nop
    539c:	00000000 	nop
    53a0:	00000021 	move	zero,zero
    53a4:	00000021 	move	zero,zero
    53a8:	00000021 	move	zero,zero
    53ac:	00000021 	move	zero,zero
    53b0:	00000021 	move	zero,zero
    53b4:	00000021 	move	zero,zero
    53b8:	00000021 	move	zero,zero
    53bc:	00000021 	move	zero,zero
    53c0:	00000021 	move	zero,zero
    53c4:	00000021 	move	zero,zero
    53c8:	00000021 	move	zero,zero
    53cc:	00000021 	move	zero,zero
    53d0:	00000021 	move	zero,zero
    53d4:	00000021 	move	zero,zero
    53d8:	3c08f97a 	lui	t0,0xf97a
    53dc:	350802c8 	ori	t0,t0,0x2c8
    53e0:	3c094c95 	lui	t1,0x4c95
    53e4:	35293240 	ori	t1,t1,0x3240
    53e8:	1509ffe7 	bne	t0,t1,5388 <n30_bne_test+0x5388>
    53ec:	00000000 	nop
    53f0:	1000000c 	b	5424 <n30_bne_test+0x5424>
    53f4:	00000000 	nop
    53f8:	00000000 	nop
    53fc:	00000021 	move	zero,zero
    5400:	00000021 	move	zero,zero
    5404:	00000021 	move	zero,zero
    5408:	00000021 	move	zero,zero
    540c:	00000021 	move	zero,zero
    5410:	00000021 	move	zero,zero
    5414:	00000021 	move	zero,zero
    5418:	00000021 	move	zero,zero
    541c:	3c129dd4 	lui	s2,0x9dd4
    5420:	365257af 	ori	s2,s2,0x57af
    5424:	00000000 	nop
    5428:	3c149a22 	lui	s4,0x9a22
    542c:	36940ced 	ori	s4,s4,0xced
    5430:	16142df8 	bne	s0,s4,10c14 <inst_error>
    5434:	00000000 	nop
    5438:	00000000 	nop
    543c:	3c159dd4 	lui	s5,0x9dd4
    5440:	36b557af 	ori	s5,s5,0x57af
    5444:	16552df3 	bne	s2,s5,10c14 <inst_error>
    5448:	00000000 	nop
    544c:	00000000 	nop
    5450:	3c0cd674 	lui	t4,0xd674
    5454:	358cdaa0 	ori	t4,t4,0xdaa0
    5458:	3c0dd4a0 	lui	t5,0xd4a0
    545c:	35adeda9 	ori	t5,t5,0xeda9
    5460:	24100000 	li	s0,0
    5464:	10000016 	b	54c0 <n30_bne_test+0x54c0>
    5468:	24120000 	li	s2,0
    546c:	00000000 	nop
    5470:	3c10d674 	lui	s0,0xd674
    5474:	15280023 	bne	t1,t0,5504 <n30_bne_test+0x5504>
    5478:	3610daa0 	ori	s0,s0,0xdaa0
    547c:	10000023 	b	550c <n30_bne_test+0x550c>
    5480:	00000000 	nop
    5484:	00000000 	nop
    5488:	00000021 	move	zero,zero
    548c:	00000021 	move	zero,zero
    5490:	00000021 	move	zero,zero
    5494:	00000021 	move	zero,zero
    5498:	00000021 	move	zero,zero
    549c:	00000021 	move	zero,zero
    54a0:	00000021 	move	zero,zero
    54a4:	00000021 	move	zero,zero
    54a8:	00000021 	move	zero,zero
    54ac:	00000021 	move	zero,zero
    54b0:	00000021 	move	zero,zero
    54b4:	00000021 	move	zero,zero
    54b8:	00000021 	move	zero,zero
    54bc:	00000021 	move	zero,zero
    54c0:	3c084022 	lui	t0,0x4022
    54c4:	3508e4dc 	ori	t0,t0,0xe4dc
    54c8:	3c0917b7 	lui	t1,0x17b7
    54cc:	3529eec0 	ori	t1,t1,0xeec0
    54d0:	1509ffe7 	bne	t0,t1,5470 <n30_bne_test+0x5470>
    54d4:	00000000 	nop
    54d8:	1000000c 	b	550c <n30_bne_test+0x550c>
    54dc:	00000000 	nop
    54e0:	00000000 	nop
    54e4:	00000021 	move	zero,zero
    54e8:	00000021 	move	zero,zero
    54ec:	00000021 	move	zero,zero
    54f0:	00000021 	move	zero,zero
    54f4:	00000021 	move	zero,zero
    54f8:	00000021 	move	zero,zero
    54fc:	00000021 	move	zero,zero
    5500:	00000021 	move	zero,zero
    5504:	3c12d4a0 	lui	s2,0xd4a0
    5508:	3652eda9 	ori	s2,s2,0xeda9
    550c:	00000000 	nop
    5510:	3c14d674 	lui	s4,0xd674
    5514:	3694daa0 	ori	s4,s4,0xdaa0
    5518:	16142dbe 	bne	s0,s4,10c14 <inst_error>
    551c:	00000000 	nop
    5520:	00000000 	nop
    5524:	3c15d4a0 	lui	s5,0xd4a0
    5528:	36b5eda9 	ori	s5,s5,0xeda9
    552c:	16552db9 	bne	s2,s5,10c14 <inst_error>
    5530:	00000000 	nop
    5534:	00000000 	nop
    5538:	3c0c6648 	lui	t4,0x6648
    553c:	358cf118 	ori	t4,t4,0xf118
    5540:	3c0dda02 	lui	t5,0xda02
    5544:	35ad2f00 	ori	t5,t5,0x2f00
    5548:	24100000 	li	s0,0
    554c:	10000016 	b	55a8 <n30_bne_test+0x55a8>
    5550:	24120000 	li	s2,0
    5554:	00000000 	nop
    5558:	3c106648 	lui	s0,0x6648
    555c:	15280023 	bne	t1,t0,55ec <n30_bne_test+0x55ec>
    5560:	3610f118 	ori	s0,s0,0xf118
    5564:	10000023 	b	55f4 <n30_bne_test+0x55f4>
    5568:	00000000 	nop
    556c:	00000000 	nop
    5570:	00000021 	move	zero,zero
    5574:	00000021 	move	zero,zero
    5578:	00000021 	move	zero,zero
    557c:	00000021 	move	zero,zero
    5580:	00000021 	move	zero,zero
    5584:	00000021 	move	zero,zero
    5588:	00000021 	move	zero,zero
    558c:	00000021 	move	zero,zero
    5590:	00000021 	move	zero,zero
    5594:	00000021 	move	zero,zero
    5598:	00000021 	move	zero,zero
    559c:	00000021 	move	zero,zero
    55a0:	00000021 	move	zero,zero
    55a4:	00000021 	move	zero,zero
    55a8:	3c083fc3 	lui	t0,0x3fc3
    55ac:	3508c6fc 	ori	t0,t0,0xc6fc
    55b0:	3c093b71 	lui	t1,0x3b71
    55b4:	3529c348 	ori	t1,t1,0xc348
    55b8:	1509ffe7 	bne	t0,t1,5558 <n30_bne_test+0x5558>
    55bc:	00000000 	nop
    55c0:	1000000c 	b	55f4 <n30_bne_test+0x55f4>
    55c4:	00000000 	nop
    55c8:	00000000 	nop
    55cc:	00000021 	move	zero,zero
    55d0:	00000021 	move	zero,zero
    55d4:	00000021 	move	zero,zero
    55d8:	00000021 	move	zero,zero
    55dc:	00000021 	move	zero,zero
    55e0:	00000021 	move	zero,zero
    55e4:	00000021 	move	zero,zero
    55e8:	00000021 	move	zero,zero
    55ec:	3c12da02 	lui	s2,0xda02
    55f0:	36522f00 	ori	s2,s2,0x2f00
    55f4:	00000000 	nop
    55f8:	3c146648 	lui	s4,0x6648
    55fc:	3694f118 	ori	s4,s4,0xf118
    5600:	16142d84 	bne	s0,s4,10c14 <inst_error>
    5604:	00000000 	nop
    5608:	00000000 	nop
    560c:	3c15da02 	lui	s5,0xda02
    5610:	36b52f00 	ori	s5,s5,0x2f00
    5614:	16552d7f 	bne	s2,s5,10c14 <inst_error>
    5618:	00000000 	nop
    561c:	00000000 	nop
    5620:	3c0cfe80 	lui	t4,0xfe80
    5624:	358c7950 	ori	t4,t4,0x7950
    5628:	3c0d7706 	lui	t5,0x7706
    562c:	35ad75f8 	ori	t5,t5,0x75f8
    5630:	24100000 	li	s0,0
    5634:	10000016 	b	5690 <n30_bne_test+0x5690>
    5638:	24120000 	li	s2,0
    563c:	00000000 	nop
    5640:	3c10fe80 	lui	s0,0xfe80
    5644:	15280023 	bne	t1,t0,56d4 <n30_bne_test+0x56d4>
    5648:	36107950 	ori	s0,s0,0x7950
    564c:	10000023 	b	56dc <n30_bne_test+0x56dc>
    5650:	00000000 	nop
    5654:	00000000 	nop
    5658:	00000021 	move	zero,zero
    565c:	00000021 	move	zero,zero
    5660:	00000021 	move	zero,zero
    5664:	00000021 	move	zero,zero
    5668:	00000021 	move	zero,zero
    566c:	00000021 	move	zero,zero
    5670:	00000021 	move	zero,zero
    5674:	00000021 	move	zero,zero
    5678:	00000021 	move	zero,zero
    567c:	00000021 	move	zero,zero
    5680:	00000021 	move	zero,zero
    5684:	00000021 	move	zero,zero
    5688:	00000021 	move	zero,zero
    568c:	00000021 	move	zero,zero
    5690:	3c08275b 	lui	t0,0x275b
    5694:	350847d8 	ori	t0,t0,0x47d8
    5698:	3c095f0e 	lui	t1,0x5f0e
    569c:	35292a38 	ori	t1,t1,0x2a38
    56a0:	1509ffe7 	bne	t0,t1,5640 <n30_bne_test+0x5640>
    56a4:	00000000 	nop
    56a8:	1000000c 	b	56dc <n30_bne_test+0x56dc>
    56ac:	00000000 	nop
    56b0:	00000000 	nop
    56b4:	00000021 	move	zero,zero
    56b8:	00000021 	move	zero,zero
    56bc:	00000021 	move	zero,zero
    56c0:	00000021 	move	zero,zero
    56c4:	00000021 	move	zero,zero
    56c8:	00000021 	move	zero,zero
    56cc:	00000021 	move	zero,zero
    56d0:	00000021 	move	zero,zero
    56d4:	3c127706 	lui	s2,0x7706
    56d8:	365275f8 	ori	s2,s2,0x75f8
    56dc:	00000000 	nop
    56e0:	3c14fe80 	lui	s4,0xfe80
    56e4:	36947950 	ori	s4,s4,0x7950
    56e8:	16142d4a 	bne	s0,s4,10c14 <inst_error>
    56ec:	00000000 	nop
    56f0:	00000000 	nop
    56f4:	3c157706 	lui	s5,0x7706
    56f8:	36b575f8 	ori	s5,s5,0x75f8
    56fc:	16552d45 	bne	s2,s5,10c14 <inst_error>
    5700:	00000000 	nop
    5704:	00000000 	nop
    5708:	3c0c668b 	lui	t4,0x668b
    570c:	358ccf90 	ori	t4,t4,0xcf90
    5710:	3c0d0d00 	lui	t5,0xd00
    5714:	35ad31a4 	ori	t5,t5,0x31a4
    5718:	24100000 	li	s0,0
    571c:	10000016 	b	5778 <n30_bne_test+0x5778>
    5720:	24120000 	li	s2,0
    5724:	00000000 	nop
    5728:	3c10668b 	lui	s0,0x668b
    572c:	15280023 	bne	t1,t0,57bc <n30_bne_test+0x57bc>
    5730:	3610cf90 	ori	s0,s0,0xcf90
    5734:	10000023 	b	57c4 <n30_bne_test+0x57c4>
    5738:	00000000 	nop
    573c:	00000000 	nop
    5740:	00000021 	move	zero,zero
    5744:	00000021 	move	zero,zero
    5748:	00000021 	move	zero,zero
    574c:	00000021 	move	zero,zero
    5750:	00000021 	move	zero,zero
    5754:	00000021 	move	zero,zero
    5758:	00000021 	move	zero,zero
    575c:	00000021 	move	zero,zero
    5760:	00000021 	move	zero,zero
    5764:	00000021 	move	zero,zero
    5768:	00000021 	move	zero,zero
    576c:	00000021 	move	zero,zero
    5770:	00000021 	move	zero,zero
    5774:	00000021 	move	zero,zero
    5778:	3c0899c6 	lui	t0,0x99c6
    577c:	3508d534 	ori	t0,t0,0xd534
    5780:	3c0920e8 	lui	t1,0x20e8
    5784:	35291ebc 	ori	t1,t1,0x1ebc
    5788:	1509ffe7 	bne	t0,t1,5728 <n30_bne_test+0x5728>
    578c:	00000000 	nop
    5790:	1000000c 	b	57c4 <n30_bne_test+0x57c4>
    5794:	00000000 	nop
    5798:	00000000 	nop
    579c:	00000021 	move	zero,zero
    57a0:	00000021 	move	zero,zero
    57a4:	00000021 	move	zero,zero
    57a8:	00000021 	move	zero,zero
    57ac:	00000021 	move	zero,zero
    57b0:	00000021 	move	zero,zero
    57b4:	00000021 	move	zero,zero
    57b8:	00000021 	move	zero,zero
    57bc:	3c120d00 	lui	s2,0xd00
    57c0:	365231a4 	ori	s2,s2,0x31a4
    57c4:	00000000 	nop
    57c8:	3c14668b 	lui	s4,0x668b
    57cc:	3694cf90 	ori	s4,s4,0xcf90
    57d0:	16142d10 	bne	s0,s4,10c14 <inst_error>
    57d4:	00000000 	nop
    57d8:	00000000 	nop
    57dc:	3c150d00 	lui	s5,0xd00
    57e0:	36b531a4 	ori	s5,s5,0x31a4
    57e4:	16552d0b 	bne	s2,s5,10c14 <inst_error>
    57e8:	00000000 	nop
    57ec:	00000000 	nop
    57f0:	3c0c6902 	lui	t4,0x6902
    57f4:	358cb7a0 	ori	t4,t4,0xb7a0
    57f8:	3c0ddb29 	lui	t5,0xdb29
    57fc:	35ada24e 	ori	t5,t5,0xa24e
    5800:	24100000 	li	s0,0
    5804:	10000016 	b	5860 <n30_bne_test+0x5860>
    5808:	24120000 	li	s2,0
    580c:	00000000 	nop
    5810:	3c106902 	lui	s0,0x6902
    5814:	15280023 	bne	t1,t0,58a4 <n30_bne_test+0x58a4>
    5818:	3610b7a0 	ori	s0,s0,0xb7a0
    581c:	10000023 	b	58ac <n30_bne_test+0x58ac>
    5820:	00000000 	nop
    5824:	00000000 	nop
    5828:	00000021 	move	zero,zero
    582c:	00000021 	move	zero,zero
    5830:	00000021 	move	zero,zero
    5834:	00000021 	move	zero,zero
    5838:	00000021 	move	zero,zero
    583c:	00000021 	move	zero,zero
    5840:	00000021 	move	zero,zero
    5844:	00000021 	move	zero,zero
    5848:	00000021 	move	zero,zero
    584c:	00000021 	move	zero,zero
    5850:	00000021 	move	zero,zero
    5854:	00000021 	move	zero,zero
    5858:	00000021 	move	zero,zero
    585c:	00000021 	move	zero,zero
    5860:	3c08d752 	lui	t0,0xd752
    5864:	3508e630 	ori	t0,t0,0xe630
    5868:	3c096078 	lui	t1,0x6078
    586c:	35296afc 	ori	t1,t1,0x6afc
    5870:	1509ffe7 	bne	t0,t1,5810 <n30_bne_test+0x5810>
    5874:	00000000 	nop
    5878:	1000000c 	b	58ac <n30_bne_test+0x58ac>
    587c:	00000000 	nop
    5880:	00000000 	nop
    5884:	00000021 	move	zero,zero
    5888:	00000021 	move	zero,zero
    588c:	00000021 	move	zero,zero
    5890:	00000021 	move	zero,zero
    5894:	00000021 	move	zero,zero
    5898:	00000021 	move	zero,zero
    589c:	00000021 	move	zero,zero
    58a0:	00000021 	move	zero,zero
    58a4:	3c12db29 	lui	s2,0xdb29
    58a8:	3652a24e 	ori	s2,s2,0xa24e
    58ac:	00000000 	nop
    58b0:	3c146902 	lui	s4,0x6902
    58b4:	3694b7a0 	ori	s4,s4,0xb7a0
    58b8:	16142cd6 	bne	s0,s4,10c14 <inst_error>
    58bc:	00000000 	nop
    58c0:	00000000 	nop
    58c4:	3c15db29 	lui	s5,0xdb29
    58c8:	36b5a24e 	ori	s5,s5,0xa24e
    58cc:	16552cd1 	bne	s2,s5,10c14 <inst_error>
    58d0:	00000000 	nop
    58d4:	00000000 	nop
    58d8:	3c0ce7b3 	lui	t4,0xe7b3
    58dc:	358c8d3a 	ori	t4,t4,0x8d3a
    58e0:	3c0d55c7 	lui	t5,0x55c7
    58e4:	35ad2bd6 	ori	t5,t5,0x2bd6
    58e8:	24100000 	li	s0,0
    58ec:	10000016 	b	5948 <n30_bne_test+0x5948>
    58f0:	24120000 	li	s2,0
    58f4:	00000000 	nop
    58f8:	3c10e7b3 	lui	s0,0xe7b3
    58fc:	15280023 	bne	t1,t0,598c <n30_bne_test+0x598c>
    5900:	36108d3a 	ori	s0,s0,0x8d3a
    5904:	10000023 	b	5994 <n30_bne_test+0x5994>
    5908:	00000000 	nop
    590c:	00000000 	nop
    5910:	00000021 	move	zero,zero
    5914:	00000021 	move	zero,zero
    5918:	00000021 	move	zero,zero
    591c:	00000021 	move	zero,zero
    5920:	00000021 	move	zero,zero
    5924:	00000021 	move	zero,zero
    5928:	00000021 	move	zero,zero
    592c:	00000021 	move	zero,zero
    5930:	00000021 	move	zero,zero
    5934:	00000021 	move	zero,zero
    5938:	00000021 	move	zero,zero
    593c:	00000021 	move	zero,zero
    5940:	00000021 	move	zero,zero
    5944:	00000021 	move	zero,zero
    5948:	3c08453f 	lui	t0,0x453f
    594c:	35087f9c 	ori	t0,t0,0x7f9c
    5950:	3c095607 	lui	t1,0x5607
    5954:	35295ce0 	ori	t1,t1,0x5ce0
    5958:	1509ffe7 	bne	t0,t1,58f8 <n30_bne_test+0x58f8>
    595c:	00000000 	nop
    5960:	1000000c 	b	5994 <n30_bne_test+0x5994>
    5964:	00000000 	nop
    5968:	00000000 	nop
    596c:	00000021 	move	zero,zero
    5970:	00000021 	move	zero,zero
    5974:	00000021 	move	zero,zero
    5978:	00000021 	move	zero,zero
    597c:	00000021 	move	zero,zero
    5980:	00000021 	move	zero,zero
    5984:	00000021 	move	zero,zero
    5988:	00000021 	move	zero,zero
    598c:	3c1255c7 	lui	s2,0x55c7
    5990:	36522bd6 	ori	s2,s2,0x2bd6
    5994:	00000000 	nop
    5998:	3c14e7b3 	lui	s4,0xe7b3
    599c:	36948d3a 	ori	s4,s4,0x8d3a
    59a0:	16142c9c 	bne	s0,s4,10c14 <inst_error>
    59a4:	00000000 	nop
    59a8:	00000000 	nop
    59ac:	3c1555c7 	lui	s5,0x55c7
    59b0:	36b52bd6 	ori	s5,s5,0x2bd6
    59b4:	16552c97 	bne	s2,s5,10c14 <inst_error>
    59b8:	00000000 	nop
    59bc:	00000000 	nop
    59c0:	3c0cec37 	lui	t4,0xec37
    59c4:	358cc948 	ori	t4,t4,0xc948
    59c8:	3c0da9ad 	lui	t5,0xa9ad
    59cc:	35ad8b80 	ori	t5,t5,0x8b80
    59d0:	24100000 	li	s0,0
    59d4:	10000016 	b	5a30 <n30_bne_test+0x5a30>
    59d8:	24120000 	li	s2,0
    59dc:	00000000 	nop
    59e0:	3c10ec37 	lui	s0,0xec37
    59e4:	15280023 	bne	t1,t0,5a74 <n30_bne_test+0x5a74>
    59e8:	3610c948 	ori	s0,s0,0xc948
    59ec:	10000023 	b	5a7c <n30_bne_test+0x5a7c>
    59f0:	00000000 	nop
    59f4:	00000000 	nop
    59f8:	00000021 	move	zero,zero
    59fc:	00000021 	move	zero,zero
    5a00:	00000021 	move	zero,zero
    5a04:	00000021 	move	zero,zero
    5a08:	00000021 	move	zero,zero
    5a0c:	00000021 	move	zero,zero
    5a10:	00000021 	move	zero,zero
    5a14:	00000021 	move	zero,zero
    5a18:	00000021 	move	zero,zero
    5a1c:	00000021 	move	zero,zero
    5a20:	00000021 	move	zero,zero
    5a24:	00000021 	move	zero,zero
    5a28:	00000021 	move	zero,zero
    5a2c:	00000021 	move	zero,zero
    5a30:	3c087e5d 	lui	t0,0x7e5d
    5a34:	350803f5 	ori	t0,t0,0x3f5
    5a38:	3c09a749 	lui	t1,0xa749
    5a3c:	35294960 	ori	t1,t1,0x4960
    5a40:	1509ffe7 	bne	t0,t1,59e0 <n30_bne_test+0x59e0>
    5a44:	00000000 	nop
    5a48:	1000000c 	b	5a7c <n30_bne_test+0x5a7c>
    5a4c:	00000000 	nop
    5a50:	00000000 	nop
    5a54:	00000021 	move	zero,zero
    5a58:	00000021 	move	zero,zero
    5a5c:	00000021 	move	zero,zero
    5a60:	00000021 	move	zero,zero
    5a64:	00000021 	move	zero,zero
    5a68:	00000021 	move	zero,zero
    5a6c:	00000021 	move	zero,zero
    5a70:	00000021 	move	zero,zero
    5a74:	3c12a9ad 	lui	s2,0xa9ad
    5a78:	36528b80 	ori	s2,s2,0x8b80
    5a7c:	00000000 	nop
    5a80:	3c14ec37 	lui	s4,0xec37
    5a84:	3694c948 	ori	s4,s4,0xc948
    5a88:	16142c62 	bne	s0,s4,10c14 <inst_error>
    5a8c:	00000000 	nop
    5a90:	00000000 	nop
    5a94:	3c15a9ad 	lui	s5,0xa9ad
    5a98:	36b58b80 	ori	s5,s5,0x8b80
    5a9c:	16552c5d 	bne	s2,s5,10c14 <inst_error>
    5aa0:	00000000 	nop
    5aa4:	00000000 	nop
    5aa8:	3c0c59c3 	lui	t4,0x59c3
    5aac:	358cfe74 	ori	t4,t4,0xfe74
    5ab0:	3c0d56af 	lui	t5,0x56af
    5ab4:	35ad4b20 	ori	t5,t5,0x4b20
    5ab8:	24100000 	li	s0,0
    5abc:	10000016 	b	5b18 <n30_bne_test+0x5b18>
    5ac0:	24120000 	li	s2,0
    5ac4:	00000000 	nop
    5ac8:	3c1059c3 	lui	s0,0x59c3
    5acc:	15280023 	bne	t1,t0,5b5c <n30_bne_test+0x5b5c>
    5ad0:	3610fe74 	ori	s0,s0,0xfe74
    5ad4:	10000023 	b	5b64 <n30_bne_test+0x5b64>
    5ad8:	00000000 	nop
    5adc:	00000000 	nop
    5ae0:	00000021 	move	zero,zero
    5ae4:	00000021 	move	zero,zero
    5ae8:	00000021 	move	zero,zero
    5aec:	00000021 	move	zero,zero
    5af0:	00000021 	move	zero,zero
    5af4:	00000021 	move	zero,zero
    5af8:	00000021 	move	zero,zero
    5afc:	00000021 	move	zero,zero
    5b00:	00000021 	move	zero,zero
    5b04:	00000021 	move	zero,zero
    5b08:	00000021 	move	zero,zero
    5b0c:	00000021 	move	zero,zero
    5b10:	00000021 	move	zero,zero
    5b14:	00000021 	move	zero,zero
    5b18:	3c0858b1 	lui	t0,0x58b1
    5b1c:	3508dc22 	ori	t0,t0,0xdc22
    5b20:	3c0958b1 	lui	t1,0x58b1
    5b24:	3529dc22 	ori	t1,t1,0xdc22
    5b28:	1509ffe7 	bne	t0,t1,5ac8 <n30_bne_test+0x5ac8>
    5b2c:	00000000 	nop
    5b30:	1000000c 	b	5b64 <n30_bne_test+0x5b64>
    5b34:	00000000 	nop
    5b38:	00000000 	nop
    5b3c:	00000021 	move	zero,zero
    5b40:	00000021 	move	zero,zero
    5b44:	00000021 	move	zero,zero
    5b48:	00000021 	move	zero,zero
    5b4c:	00000021 	move	zero,zero
    5b50:	00000021 	move	zero,zero
    5b54:	00000021 	move	zero,zero
    5b58:	00000021 	move	zero,zero
    5b5c:	3c1256af 	lui	s2,0x56af
    5b60:	36524b20 	ori	s2,s2,0x4b20
    5b64:	00000000 	nop
    5b68:	24140000 	li	s4,0
    5b6c:	16142c29 	bne	s0,s4,10c14 <inst_error>
    5b70:	00000000 	nop
    5b74:	00000000 	nop
    5b78:	24150000 	li	s5,0
    5b7c:	16552c25 	bne	s2,s5,10c14 <inst_error>
    5b80:	00000000 	nop
    5b84:	00000000 	nop
    5b88:	3c0c67ae 	lui	t4,0x67ae
    5b8c:	358c1e29 	ori	t4,t4,0x1e29
    5b90:	3c0dba8a 	lui	t5,0xba8a
    5b94:	35adfb9e 	ori	t5,t5,0xfb9e
    5b98:	24100000 	li	s0,0
    5b9c:	10000016 	b	5bf8 <n30_bne_test+0x5bf8>
    5ba0:	24120000 	li	s2,0
    5ba4:	00000000 	nop
    5ba8:	3c1067ae 	lui	s0,0x67ae
    5bac:	15280023 	bne	t1,t0,5c3c <n30_bne_test+0x5c3c>
    5bb0:	36101e29 	ori	s0,s0,0x1e29
    5bb4:	10000023 	b	5c44 <n30_bne_test+0x5c44>
    5bb8:	00000000 	nop
    5bbc:	00000000 	nop
    5bc0:	00000021 	move	zero,zero
    5bc4:	00000021 	move	zero,zero
    5bc8:	00000021 	move	zero,zero
    5bcc:	00000021 	move	zero,zero
    5bd0:	00000021 	move	zero,zero
    5bd4:	00000021 	move	zero,zero
    5bd8:	00000021 	move	zero,zero
    5bdc:	00000021 	move	zero,zero
    5be0:	00000021 	move	zero,zero
    5be4:	00000021 	move	zero,zero
    5be8:	00000021 	move	zero,zero
    5bec:	00000021 	move	zero,zero
    5bf0:	00000021 	move	zero,zero
    5bf4:	00000021 	move	zero,zero
    5bf8:	3c086823 	lui	t0,0x6823
    5bfc:	35083e10 	ori	t0,t0,0x3e10
    5c00:	3c096823 	lui	t1,0x6823
    5c04:	35293e10 	ori	t1,t1,0x3e10
    5c08:	1509ffe7 	bne	t0,t1,5ba8 <n30_bne_test+0x5ba8>
    5c0c:	00000000 	nop
    5c10:	1000000c 	b	5c44 <n30_bne_test+0x5c44>
    5c14:	00000000 	nop
    5c18:	00000000 	nop
    5c1c:	00000021 	move	zero,zero
    5c20:	00000021 	move	zero,zero
    5c24:	00000021 	move	zero,zero
    5c28:	00000021 	move	zero,zero
    5c2c:	00000021 	move	zero,zero
    5c30:	00000021 	move	zero,zero
    5c34:	00000021 	move	zero,zero
    5c38:	00000021 	move	zero,zero
    5c3c:	3c12ba8a 	lui	s2,0xba8a
    5c40:	3652fb9e 	ori	s2,s2,0xfb9e
    5c44:	00000000 	nop
    5c48:	24140000 	li	s4,0
    5c4c:	16142bf1 	bne	s0,s4,10c14 <inst_error>
    5c50:	00000000 	nop
    5c54:	00000000 	nop
    5c58:	24150000 	li	s5,0
    5c5c:	16552bed 	bne	s2,s5,10c14 <inst_error>
    5c60:	00000000 	nop
    5c64:	00000000 	nop
    5c68:	3c0c2109 	lui	t4,0x2109
    5c6c:	358cd8f0 	ori	t4,t4,0xd8f0
    5c70:	3c0defea 	lui	t5,0xefea
    5c74:	35ad5e9a 	ori	t5,t5,0x5e9a
    5c78:	24100000 	li	s0,0
    5c7c:	10000016 	b	5cd8 <n30_bne_test+0x5cd8>
    5c80:	24120000 	li	s2,0
    5c84:	00000000 	nop
    5c88:	3c102109 	lui	s0,0x2109
    5c8c:	15280023 	bne	t1,t0,5d1c <n30_bne_test+0x5d1c>
    5c90:	3610d8f0 	ori	s0,s0,0xd8f0
    5c94:	10000023 	b	5d24 <n30_bne_test+0x5d24>
    5c98:	00000000 	nop
    5c9c:	00000000 	nop
    5ca0:	00000021 	move	zero,zero
    5ca4:	00000021 	move	zero,zero
    5ca8:	00000021 	move	zero,zero
    5cac:	00000021 	move	zero,zero
    5cb0:	00000021 	move	zero,zero
    5cb4:	00000021 	move	zero,zero
    5cb8:	00000021 	move	zero,zero
    5cbc:	00000021 	move	zero,zero
    5cc0:	00000021 	move	zero,zero
    5cc4:	00000021 	move	zero,zero
    5cc8:	00000021 	move	zero,zero
    5ccc:	00000021 	move	zero,zero
    5cd0:	00000021 	move	zero,zero
    5cd4:	00000021 	move	zero,zero
    5cd8:	3c08caf4 	lui	t0,0xcaf4
    5cdc:	3508cd20 	ori	t0,t0,0xcd20
    5ce0:	3c09caf4 	lui	t1,0xcaf4
    5ce4:	3529cd20 	ori	t1,t1,0xcd20
    5ce8:	1509ffe7 	bne	t0,t1,5c88 <n30_bne_test+0x5c88>
    5cec:	00000000 	nop
    5cf0:	1000000c 	b	5d24 <n30_bne_test+0x5d24>
    5cf4:	00000000 	nop
    5cf8:	00000000 	nop
    5cfc:	00000021 	move	zero,zero
    5d00:	00000021 	move	zero,zero
    5d04:	00000021 	move	zero,zero
    5d08:	00000021 	move	zero,zero
    5d0c:	00000021 	move	zero,zero
    5d10:	00000021 	move	zero,zero
    5d14:	00000021 	move	zero,zero
    5d18:	00000021 	move	zero,zero
    5d1c:	3c12efea 	lui	s2,0xefea
    5d20:	36525e9a 	ori	s2,s2,0x5e9a
    5d24:	00000000 	nop
    5d28:	24140000 	li	s4,0
    5d2c:	16142bb9 	bne	s0,s4,10c14 <inst_error>
    5d30:	00000000 	nop
    5d34:	00000000 	nop
    5d38:	24150000 	li	s5,0
    5d3c:	16552bb5 	bne	s2,s5,10c14 <inst_error>
    5d40:	00000000 	nop
    5d44:	00000000 	nop
    5d48:	3c0c8d1d 	lui	t4,0x8d1d
    5d4c:	358c7e07 	ori	t4,t4,0x7e07
    5d50:	3c0de325 	lui	t5,0xe325
    5d54:	35adfb8a 	ori	t5,t5,0xfb8a
    5d58:	24100000 	li	s0,0
    5d5c:	10000016 	b	5db8 <n30_bne_test+0x5db8>
    5d60:	24120000 	li	s2,0
    5d64:	00000000 	nop
    5d68:	3c108d1d 	lui	s0,0x8d1d
    5d6c:	15280023 	bne	t1,t0,5dfc <n30_bne_test+0x5dfc>
    5d70:	36107e07 	ori	s0,s0,0x7e07
    5d74:	10000023 	b	5e04 <n30_bne_test+0x5e04>
    5d78:	00000000 	nop
    5d7c:	00000000 	nop
    5d80:	00000021 	move	zero,zero
    5d84:	00000021 	move	zero,zero
    5d88:	00000021 	move	zero,zero
    5d8c:	00000021 	move	zero,zero
    5d90:	00000021 	move	zero,zero
    5d94:	00000021 	move	zero,zero
    5d98:	00000021 	move	zero,zero
    5d9c:	00000021 	move	zero,zero
    5da0:	00000021 	move	zero,zero
    5da4:	00000021 	move	zero,zero
    5da8:	00000021 	move	zero,zero
    5dac:	00000021 	move	zero,zero
    5db0:	00000021 	move	zero,zero
    5db4:	00000021 	move	zero,zero
    5db8:	3c086197 	lui	t0,0x6197
    5dbc:	35088e20 	ori	t0,t0,0x8e20
    5dc0:	3c096197 	lui	t1,0x6197
    5dc4:	35298e20 	ori	t1,t1,0x8e20
    5dc8:	1509ffe7 	bne	t0,t1,5d68 <n30_bne_test+0x5d68>
    5dcc:	00000000 	nop
    5dd0:	1000000c 	b	5e04 <n30_bne_test+0x5e04>
    5dd4:	00000000 	nop
    5dd8:	00000000 	nop
    5ddc:	00000021 	move	zero,zero
    5de0:	00000021 	move	zero,zero
    5de4:	00000021 	move	zero,zero
    5de8:	00000021 	move	zero,zero
    5dec:	00000021 	move	zero,zero
    5df0:	00000021 	move	zero,zero
    5df4:	00000021 	move	zero,zero
    5df8:	00000021 	move	zero,zero
    5dfc:	3c12e325 	lui	s2,0xe325
    5e00:	3652fb8a 	ori	s2,s2,0xfb8a
    5e04:	00000000 	nop
    5e08:	24140000 	li	s4,0
    5e0c:	16142b81 	bne	s0,s4,10c14 <inst_error>
    5e10:	00000000 	nop
    5e14:	00000000 	nop
    5e18:	24150000 	li	s5,0
    5e1c:	16552b7d 	bne	s2,s5,10c14 <inst_error>
    5e20:	00000000 	nop
    5e24:	00000000 	nop
    5e28:	3c0c563b 	lui	t4,0x563b
    5e2c:	358c08a4 	ori	t4,t4,0x8a4
    5e30:	3c0d6bbf 	lui	t5,0x6bbf
    5e34:	35ad1858 	ori	t5,t5,0x1858
    5e38:	24100000 	li	s0,0
    5e3c:	10000016 	b	5e98 <n30_bne_test+0x5e98>
    5e40:	24120000 	li	s2,0
    5e44:	00000000 	nop
    5e48:	3c10563b 	lui	s0,0x563b
    5e4c:	15280023 	bne	t1,t0,5edc <n30_bne_test+0x5edc>
    5e50:	361008a4 	ori	s0,s0,0x8a4
    5e54:	10000023 	b	5ee4 <n30_bne_test+0x5ee4>
    5e58:	00000000 	nop
    5e5c:	00000000 	nop
    5e60:	00000021 	move	zero,zero
    5e64:	00000021 	move	zero,zero
    5e68:	00000021 	move	zero,zero
    5e6c:	00000021 	move	zero,zero
    5e70:	00000021 	move	zero,zero
    5e74:	00000021 	move	zero,zero
    5e78:	00000021 	move	zero,zero
    5e7c:	00000021 	move	zero,zero
    5e80:	00000021 	move	zero,zero
    5e84:	00000021 	move	zero,zero
    5e88:	00000021 	move	zero,zero
    5e8c:	00000021 	move	zero,zero
    5e90:	00000021 	move	zero,zero
    5e94:	00000021 	move	zero,zero
    5e98:	3c08cbd4 	lui	t0,0xcbd4
    5e9c:	3508aed1 	ori	t0,t0,0xaed1
    5ea0:	3c09cbd4 	lui	t1,0xcbd4
    5ea4:	3529aed1 	ori	t1,t1,0xaed1
    5ea8:	1509ffe7 	bne	t0,t1,5e48 <n30_bne_test+0x5e48>
    5eac:	00000000 	nop
    5eb0:	1000000c 	b	5ee4 <n30_bne_test+0x5ee4>
    5eb4:	00000000 	nop
    5eb8:	00000000 	nop
    5ebc:	00000021 	move	zero,zero
    5ec0:	00000021 	move	zero,zero
    5ec4:	00000021 	move	zero,zero
    5ec8:	00000021 	move	zero,zero
    5ecc:	00000021 	move	zero,zero
    5ed0:	00000021 	move	zero,zero
    5ed4:	00000021 	move	zero,zero
    5ed8:	00000021 	move	zero,zero
    5edc:	3c126bbf 	lui	s2,0x6bbf
    5ee0:	36521858 	ori	s2,s2,0x1858
    5ee4:	00000000 	nop
    5ee8:	24140000 	li	s4,0
    5eec:	16142b49 	bne	s0,s4,10c14 <inst_error>
    5ef0:	00000000 	nop
    5ef4:	00000000 	nop
    5ef8:	24150000 	li	s5,0
    5efc:	16552b45 	bne	s2,s5,10c14 <inst_error>
    5f00:	00000000 	nop
    5f04:	00000000 	nop
    5f08:	3c0c3391 	lui	t4,0x3391
    5f0c:	358c0682 	ori	t4,t4,0x682
    5f10:	3c0de302 	lui	t5,0xe302
    5f14:	35ad1dfc 	ori	t5,t5,0x1dfc
    5f18:	24100000 	li	s0,0
    5f1c:	10000016 	b	5f78 <n30_bne_test+0x5f78>
    5f20:	24120000 	li	s2,0
    5f24:	00000000 	nop
    5f28:	3c103391 	lui	s0,0x3391
    5f2c:	15280023 	bne	t1,t0,5fbc <n30_bne_test+0x5fbc>
    5f30:	36100682 	ori	s0,s0,0x682
    5f34:	10000023 	b	5fc4 <n30_bne_test+0x5fc4>
    5f38:	00000000 	nop
    5f3c:	00000000 	nop
    5f40:	00000021 	move	zero,zero
    5f44:	00000021 	move	zero,zero
    5f48:	00000021 	move	zero,zero
    5f4c:	00000021 	move	zero,zero
    5f50:	00000021 	move	zero,zero
    5f54:	00000021 	move	zero,zero
    5f58:	00000021 	move	zero,zero
    5f5c:	00000021 	move	zero,zero
    5f60:	00000021 	move	zero,zero
    5f64:	00000021 	move	zero,zero
    5f68:	00000021 	move	zero,zero
    5f6c:	00000021 	move	zero,zero
    5f70:	00000021 	move	zero,zero
    5f74:	00000021 	move	zero,zero
    5f78:	3c08995b 	lui	t0,0x995b
    5f7c:	3508a690 	ori	t0,t0,0xa690
    5f80:	3c09995b 	lui	t1,0x995b
    5f84:	3529a690 	ori	t1,t1,0xa690
    5f88:	1509ffe7 	bne	t0,t1,5f28 <n30_bne_test+0x5f28>
    5f8c:	00000000 	nop
    5f90:	1000000c 	b	5fc4 <n30_bne_test+0x5fc4>
    5f94:	00000000 	nop
    5f98:	00000000 	nop
    5f9c:	00000021 	move	zero,zero
    5fa0:	00000021 	move	zero,zero
    5fa4:	00000021 	move	zero,zero
    5fa8:	00000021 	move	zero,zero
    5fac:	00000021 	move	zero,zero
    5fb0:	00000021 	move	zero,zero
    5fb4:	00000021 	move	zero,zero
    5fb8:	00000021 	move	zero,zero
    5fbc:	3c12e302 	lui	s2,0xe302
    5fc0:	36521dfc 	ori	s2,s2,0x1dfc
    5fc4:	00000000 	nop
    5fc8:	24140000 	li	s4,0
    5fcc:	16142b11 	bne	s0,s4,10c14 <inst_error>
    5fd0:	00000000 	nop
    5fd4:	00000000 	nop
    5fd8:	24150000 	li	s5,0
    5fdc:	16552b0d 	bne	s2,s5,10c14 <inst_error>
    5fe0:	00000000 	nop
    5fe4:	00000000 	nop
    5fe8:	3c0cedbc 	lui	t4,0xedbc
    5fec:	358c8ea0 	ori	t4,t4,0x8ea0
    5ff0:	3c0d3102 	lui	t5,0x3102
    5ff4:	35ad1800 	ori	t5,t5,0x1800
    5ff8:	24100000 	li	s0,0
    5ffc:	10000016 	b	6058 <n30_bne_test+0x6058>
    6000:	24120000 	li	s2,0
    6004:	00000000 	nop
    6008:	3c10edbc 	lui	s0,0xedbc
    600c:	15280023 	bne	t1,t0,609c <n30_bne_test+0x609c>
    6010:	36108ea0 	ori	s0,s0,0x8ea0
    6014:	10000023 	b	60a4 <n30_bne_test+0x60a4>
    6018:	00000000 	nop
    601c:	00000000 	nop
    6020:	00000021 	move	zero,zero
    6024:	00000021 	move	zero,zero
    6028:	00000021 	move	zero,zero
    602c:	00000021 	move	zero,zero
    6030:	00000021 	move	zero,zero
    6034:	00000021 	move	zero,zero
    6038:	00000021 	move	zero,zero
    603c:	00000021 	move	zero,zero
    6040:	00000021 	move	zero,zero
    6044:	00000021 	move	zero,zero
    6048:	00000021 	move	zero,zero
    604c:	00000021 	move	zero,zero
    6050:	00000021 	move	zero,zero
    6054:	00000021 	move	zero,zero
    6058:	3c08ac36 	lui	t0,0xac36
    605c:	3508da6a 	ori	t0,t0,0xda6a
    6060:	3c09ac36 	lui	t1,0xac36
    6064:	3529da6a 	ori	t1,t1,0xda6a
    6068:	1509ffe7 	bne	t0,t1,6008 <n30_bne_test+0x6008>
    606c:	00000000 	nop
    6070:	1000000c 	b	60a4 <n30_bne_test+0x60a4>
    6074:	00000000 	nop
    6078:	00000000 	nop
    607c:	00000021 	move	zero,zero
    6080:	00000021 	move	zero,zero
    6084:	00000021 	move	zero,zero
    6088:	00000021 	move	zero,zero
    608c:	00000021 	move	zero,zero
    6090:	00000021 	move	zero,zero
    6094:	00000021 	move	zero,zero
    6098:	00000021 	move	zero,zero
    609c:	3c123102 	lui	s2,0x3102
    60a0:	36521800 	ori	s2,s2,0x1800
    60a4:	00000000 	nop
    60a8:	24140000 	li	s4,0
    60ac:	16142ad9 	bne	s0,s4,10c14 <inst_error>
    60b0:	00000000 	nop
    60b4:	00000000 	nop
    60b8:	24150000 	li	s5,0
    60bc:	16552ad5 	bne	s2,s5,10c14 <inst_error>
    60c0:	00000000 	nop
    60c4:	00000000 	nop
    60c8:	3c0c6120 	lui	t4,0x6120
    60cc:	358c0d30 	ori	t4,t4,0xd30
    60d0:	3c0d958d 	lui	t5,0x958d
    60d4:	35adb914 	ori	t5,t5,0xb914
    60d8:	24100000 	li	s0,0
    60dc:	10000016 	b	6138 <n30_bne_test+0x6138>
    60e0:	24120000 	li	s2,0
    60e4:	00000000 	nop
    60e8:	3c106120 	lui	s0,0x6120
    60ec:	15280023 	bne	t1,t0,617c <n30_bne_test+0x617c>
    60f0:	36100d30 	ori	s0,s0,0xd30
    60f4:	10000023 	b	6184 <n30_bne_test+0x6184>
    60f8:	00000000 	nop
    60fc:	00000000 	nop
    6100:	00000021 	move	zero,zero
    6104:	00000021 	move	zero,zero
    6108:	00000021 	move	zero,zero
    610c:	00000021 	move	zero,zero
    6110:	00000021 	move	zero,zero
    6114:	00000021 	move	zero,zero
    6118:	00000021 	move	zero,zero
    611c:	00000021 	move	zero,zero
    6120:	00000021 	move	zero,zero
    6124:	00000021 	move	zero,zero
    6128:	00000021 	move	zero,zero
    612c:	00000021 	move	zero,zero
    6130:	00000021 	move	zero,zero
    6134:	00000021 	move	zero,zero
    6138:	3c08af9d 	lui	t0,0xaf9d
    613c:	3508c450 	ori	t0,t0,0xc450
    6140:	3c09af9d 	lui	t1,0xaf9d
    6144:	3529c450 	ori	t1,t1,0xc450
    6148:	1509ffe7 	bne	t0,t1,60e8 <n30_bne_test+0x60e8>
    614c:	00000000 	nop
    6150:	1000000c 	b	6184 <n30_bne_test+0x6184>
    6154:	00000000 	nop
    6158:	00000000 	nop
    615c:	00000021 	move	zero,zero
    6160:	00000021 	move	zero,zero
    6164:	00000021 	move	zero,zero
    6168:	00000021 	move	zero,zero
    616c:	00000021 	move	zero,zero
    6170:	00000021 	move	zero,zero
    6174:	00000021 	move	zero,zero
    6178:	00000021 	move	zero,zero
    617c:	3c12958d 	lui	s2,0x958d
    6180:	3652b914 	ori	s2,s2,0xb914
    6184:	00000000 	nop
    6188:	24140000 	li	s4,0
    618c:	16142aa1 	bne	s0,s4,10c14 <inst_error>
    6190:	00000000 	nop
    6194:	00000000 	nop
    6198:	24150000 	li	s5,0
    619c:	16552a9d 	bne	s2,s5,10c14 <inst_error>
    61a0:	00000000 	nop
    61a4:	00000000 	nop
    61a8:	3c0c39aa 	lui	t4,0x39aa
    61ac:	358c7698 	ori	t4,t4,0x7698
    61b0:	3c0dab1b 	lui	t5,0xab1b
    61b4:	35adccf0 	ori	t5,t5,0xccf0
    61b8:	24100000 	li	s0,0
    61bc:	10000016 	b	6218 <n30_bne_test+0x6218>
    61c0:	24120000 	li	s2,0
    61c4:	00000000 	nop
    61c8:	3c1039aa 	lui	s0,0x39aa
    61cc:	15280023 	bne	t1,t0,625c <n30_bne_test+0x625c>
    61d0:	36107698 	ori	s0,s0,0x7698
    61d4:	10000023 	b	6264 <n30_bne_test+0x6264>
    61d8:	00000000 	nop
    61dc:	00000000 	nop
    61e0:	00000021 	move	zero,zero
    61e4:	00000021 	move	zero,zero
    61e8:	00000021 	move	zero,zero
    61ec:	00000021 	move	zero,zero
    61f0:	00000021 	move	zero,zero
    61f4:	00000021 	move	zero,zero
    61f8:	00000021 	move	zero,zero
    61fc:	00000021 	move	zero,zero
    6200:	00000021 	move	zero,zero
    6204:	00000021 	move	zero,zero
    6208:	00000021 	move	zero,zero
    620c:	00000021 	move	zero,zero
    6210:	00000021 	move	zero,zero
    6214:	00000021 	move	zero,zero
    6218:	3c084da6 	lui	t0,0x4da6
    621c:	35083b66 	ori	t0,t0,0x3b66
    6220:	3c094da6 	lui	t1,0x4da6
    6224:	35293b66 	ori	t1,t1,0x3b66
    6228:	1509ffe7 	bne	t0,t1,61c8 <n30_bne_test+0x61c8>
    622c:	00000000 	nop
    6230:	1000000c 	b	6264 <n30_bne_test+0x6264>
    6234:	00000000 	nop
    6238:	00000000 	nop
    623c:	00000021 	move	zero,zero
    6240:	00000021 	move	zero,zero
    6244:	00000021 	move	zero,zero
    6248:	00000021 	move	zero,zero
    624c:	00000021 	move	zero,zero
    6250:	00000021 	move	zero,zero
    6254:	00000021 	move	zero,zero
    6258:	00000021 	move	zero,zero
    625c:	3c12ab1b 	lui	s2,0xab1b
    6260:	3652ccf0 	ori	s2,s2,0xccf0
    6264:	00000000 	nop
    6268:	24140000 	li	s4,0
    626c:	16142a69 	bne	s0,s4,10c14 <inst_error>
    6270:	00000000 	nop
    6274:	00000000 	nop
    6278:	24150000 	li	s5,0
    627c:	16552a65 	bne	s2,s5,10c14 <inst_error>
    6280:	00000000 	nop
    6284:	00000000 	nop
    6288:	3c0cdb5f 	lui	t4,0xdb5f
    628c:	358c3f6a 	ori	t4,t4,0x3f6a
    6290:	3c0d5702 	lui	t5,0x5702
    6294:	35ad1f00 	ori	t5,t5,0x1f00
    6298:	24100000 	li	s0,0
    629c:	10000016 	b	62f8 <n30_bne_test+0x62f8>
    62a0:	24120000 	li	s2,0
    62a4:	00000000 	nop
    62a8:	3c10db5f 	lui	s0,0xdb5f
    62ac:	15280023 	bne	t1,t0,633c <n30_bne_test+0x633c>
    62b0:	36103f6a 	ori	s0,s0,0x3f6a
    62b4:	10000023 	b	6344 <n30_bne_test+0x6344>
    62b8:	00000000 	nop
    62bc:	00000000 	nop
    62c0:	00000021 	move	zero,zero
    62c4:	00000021 	move	zero,zero
    62c8:	00000021 	move	zero,zero
    62cc:	00000021 	move	zero,zero
    62d0:	00000021 	move	zero,zero
    62d4:	00000021 	move	zero,zero
    62d8:	00000021 	move	zero,zero
    62dc:	00000021 	move	zero,zero
    62e0:	00000021 	move	zero,zero
    62e4:	00000021 	move	zero,zero
    62e8:	00000021 	move	zero,zero
    62ec:	00000021 	move	zero,zero
    62f0:	00000021 	move	zero,zero
    62f4:	00000021 	move	zero,zero
    62f8:	3c08ea36 	lui	t0,0xea36
    62fc:	3508a755 	ori	t0,t0,0xa755
    6300:	3c09ea36 	lui	t1,0xea36
    6304:	3529a755 	ori	t1,t1,0xa755
    6308:	1509ffe7 	bne	t0,t1,62a8 <n30_bne_test+0x62a8>
    630c:	00000000 	nop
    6310:	1000000c 	b	6344 <n30_bne_test+0x6344>
    6314:	00000000 	nop
    6318:	00000000 	nop
    631c:	00000021 	move	zero,zero
    6320:	00000021 	move	zero,zero
    6324:	00000021 	move	zero,zero
    6328:	00000021 	move	zero,zero
    632c:	00000021 	move	zero,zero
    6330:	00000021 	move	zero,zero
    6334:	00000021 	move	zero,zero
    6338:	00000021 	move	zero,zero
    633c:	3c125702 	lui	s2,0x5702
    6340:	36521f00 	ori	s2,s2,0x1f00
    6344:	00000000 	nop
    6348:	24140000 	li	s4,0
    634c:	16142a31 	bne	s0,s4,10c14 <inst_error>
    6350:	00000000 	nop
    6354:	00000000 	nop
    6358:	24150000 	li	s5,0
    635c:	16552a2d 	bne	s2,s5,10c14 <inst_error>
    6360:	00000000 	nop
    6364:	00000000 	nop
    6368:	3c0cf195 	lui	t4,0xf195
    636c:	358c6200 	ori	t4,t4,0x6200
    6370:	3c0d71fe 	lui	t5,0x71fe
    6374:	35ad0a80 	ori	t5,t5,0xa80
    6378:	24100000 	li	s0,0
    637c:	10000016 	b	63d8 <n30_bne_test+0x63d8>
    6380:	24120000 	li	s2,0
    6384:	00000000 	nop
    6388:	3c10f195 	lui	s0,0xf195
    638c:	15280023 	bne	t1,t0,641c <n30_bne_test+0x641c>
    6390:	36106200 	ori	s0,s0,0x6200
    6394:	10000023 	b	6424 <n30_bne_test+0x6424>
    6398:	00000000 	nop
    639c:	00000000 	nop
    63a0:	00000021 	move	zero,zero
    63a4:	00000021 	move	zero,zero
    63a8:	00000021 	move	zero,zero
    63ac:	00000021 	move	zero,zero
    63b0:	00000021 	move	zero,zero
    63b4:	00000021 	move	zero,zero
    63b8:	00000021 	move	zero,zero
    63bc:	00000021 	move	zero,zero
    63c0:	00000021 	move	zero,zero
    63c4:	00000021 	move	zero,zero
    63c8:	00000021 	move	zero,zero
    63cc:	00000021 	move	zero,zero
    63d0:	00000021 	move	zero,zero
    63d4:	00000021 	move	zero,zero
    63d8:	3c08992d 	lui	t0,0x992d
    63dc:	35084718 	ori	t0,t0,0x4718
    63e0:	3c09992d 	lui	t1,0x992d
    63e4:	35294718 	ori	t1,t1,0x4718
    63e8:	1509ffe7 	bne	t0,t1,6388 <n30_bne_test+0x6388>
    63ec:	00000000 	nop
    63f0:	1000000c 	b	6424 <n30_bne_test+0x6424>
    63f4:	00000000 	nop
    63f8:	00000000 	nop
    63fc:	00000021 	move	zero,zero
    6400:	00000021 	move	zero,zero
    6404:	00000021 	move	zero,zero
    6408:	00000021 	move	zero,zero
    640c:	00000021 	move	zero,zero
    6410:	00000021 	move	zero,zero
    6414:	00000021 	move	zero,zero
    6418:	00000021 	move	zero,zero
    641c:	3c1271fe 	lui	s2,0x71fe
    6420:	36520a80 	ori	s2,s2,0xa80
    6424:	00000000 	nop
    6428:	24140000 	li	s4,0
    642c:	161429f9 	bne	s0,s4,10c14 <inst_error>
    6430:	00000000 	nop
    6434:	00000000 	nop
    6438:	24150000 	li	s5,0
    643c:	165529f5 	bne	s2,s5,10c14 <inst_error>
    6440:	00000000 	nop
    6444:	00000000 	nop
    6448:	3c0c8ebf 	lui	t4,0x8ebf
    644c:	358c96fc 	ori	t4,t4,0x96fc
    6450:	3c0d31e2 	lui	t5,0x31e2
    6454:	35add860 	ori	t5,t5,0xd860
    6458:	24100000 	li	s0,0
    645c:	10000016 	b	64b8 <n30_bne_test+0x64b8>
    6460:	24120000 	li	s2,0
    6464:	00000000 	nop
    6468:	3c108ebf 	lui	s0,0x8ebf
    646c:	15280023 	bne	t1,t0,64fc <n30_bne_test+0x64fc>
    6470:	361096fc 	ori	s0,s0,0x96fc
    6474:	10000023 	b	6504 <n30_bne_test+0x6504>
    6478:	00000000 	nop
    647c:	00000000 	nop
    6480:	00000021 	move	zero,zero
    6484:	00000021 	move	zero,zero
    6488:	00000021 	move	zero,zero
    648c:	00000021 	move	zero,zero
    6490:	00000021 	move	zero,zero
    6494:	00000021 	move	zero,zero
    6498:	00000021 	move	zero,zero
    649c:	00000021 	move	zero,zero
    64a0:	00000021 	move	zero,zero
    64a4:	00000021 	move	zero,zero
    64a8:	00000021 	move	zero,zero
    64ac:	00000021 	move	zero,zero
    64b0:	00000021 	move	zero,zero
    64b4:	00000021 	move	zero,zero
    64b8:	3c08b54b 	lui	t0,0xb54b
    64bc:	350896e8 	ori	t0,t0,0x96e8
    64c0:	3c09b54b 	lui	t1,0xb54b
    64c4:	352996e8 	ori	t1,t1,0x96e8
    64c8:	1509ffe7 	bne	t0,t1,6468 <n30_bne_test+0x6468>
    64cc:	00000000 	nop
    64d0:	1000000c 	b	6504 <n30_bne_test+0x6504>
    64d4:	00000000 	nop
    64d8:	00000000 	nop
    64dc:	00000021 	move	zero,zero
    64e0:	00000021 	move	zero,zero
    64e4:	00000021 	move	zero,zero
    64e8:	00000021 	move	zero,zero
    64ec:	00000021 	move	zero,zero
    64f0:	00000021 	move	zero,zero
    64f4:	00000021 	move	zero,zero
    64f8:	00000021 	move	zero,zero
    64fc:	3c1231e2 	lui	s2,0x31e2
    6500:	3652d860 	ori	s2,s2,0xd860
    6504:	00000000 	nop
    6508:	24140000 	li	s4,0
    650c:	161429c1 	bne	s0,s4,10c14 <inst_error>
    6510:	00000000 	nop
    6514:	00000000 	nop
    6518:	24150000 	li	s5,0
    651c:	165529bd 	bne	s2,s5,10c14 <inst_error>
    6520:	00000000 	nop
    6524:	00000000 	nop
    6528:	3c0cca90 	lui	t4,0xca90
    652c:	358cbaa6 	ori	t4,t4,0xbaa6
    6530:	3c0d4091 	lui	t5,0x4091
    6534:	35adcd6c 	ori	t5,t5,0xcd6c
    6538:	24100000 	li	s0,0
    653c:	10000016 	b	6598 <n30_bne_test+0x6598>
    6540:	24120000 	li	s2,0
    6544:	00000000 	nop
    6548:	3c10ca90 	lui	s0,0xca90
    654c:	15280023 	bne	t1,t0,65dc <n30_bne_test+0x65dc>
    6550:	3610baa6 	ori	s0,s0,0xbaa6
    6554:	10000023 	b	65e4 <n30_bne_test+0x65e4>
    6558:	00000000 	nop
    655c:	00000000 	nop
    6560:	00000021 	move	zero,zero
    6564:	00000021 	move	zero,zero
    6568:	00000021 	move	zero,zero
    656c:	00000021 	move	zero,zero
    6570:	00000021 	move	zero,zero
    6574:	00000021 	move	zero,zero
    6578:	00000021 	move	zero,zero
    657c:	00000021 	move	zero,zero
    6580:	00000021 	move	zero,zero
    6584:	00000021 	move	zero,zero
    6588:	00000021 	move	zero,zero
    658c:	00000021 	move	zero,zero
    6590:	00000021 	move	zero,zero
    6594:	00000021 	move	zero,zero
    6598:	3c08c536 	lui	t0,0xc536
    659c:	350890c4 	ori	t0,t0,0x90c4
    65a0:	3c09c536 	lui	t1,0xc536
    65a4:	352990c4 	ori	t1,t1,0x90c4
    65a8:	1509ffe7 	bne	t0,t1,6548 <n30_bne_test+0x6548>
    65ac:	00000000 	nop
    65b0:	1000000c 	b	65e4 <n30_bne_test+0x65e4>
    65b4:	00000000 	nop
    65b8:	00000000 	nop
    65bc:	00000021 	move	zero,zero
    65c0:	00000021 	move	zero,zero
    65c4:	00000021 	move	zero,zero
    65c8:	00000021 	move	zero,zero
    65cc:	00000021 	move	zero,zero
    65d0:	00000021 	move	zero,zero
    65d4:	00000021 	move	zero,zero
    65d8:	00000021 	move	zero,zero
    65dc:	3c124091 	lui	s2,0x4091
    65e0:	3652cd6c 	ori	s2,s2,0xcd6c
    65e4:	00000000 	nop
    65e8:	24140000 	li	s4,0
    65ec:	16142989 	bne	s0,s4,10c14 <inst_error>
    65f0:	00000000 	nop
    65f4:	00000000 	nop
    65f8:	24150000 	li	s5,0
    65fc:	16552985 	bne	s2,s5,10c14 <inst_error>
    6600:	00000000 	nop
    6604:	00000000 	nop
    6608:	3c0c67fc 	lui	t4,0x67fc
    660c:	358cc470 	ori	t4,t4,0xc470
    6610:	3c0daf74 	lui	t5,0xaf74
    6614:	35ad8ec8 	ori	t5,t5,0x8ec8
    6618:	24100000 	li	s0,0
    661c:	10000016 	b	6678 <n30_bne_test+0x6678>
    6620:	24120000 	li	s2,0
    6624:	00000000 	nop
    6628:	3c1067fc 	lui	s0,0x67fc
    662c:	15280023 	bne	t1,t0,66bc <n30_bne_test+0x66bc>
    6630:	3610c470 	ori	s0,s0,0xc470
    6634:	10000023 	b	66c4 <n30_bne_test+0x66c4>
    6638:	00000000 	nop
    663c:	00000000 	nop
    6640:	00000021 	move	zero,zero
    6644:	00000021 	move	zero,zero
    6648:	00000021 	move	zero,zero
    664c:	00000021 	move	zero,zero
    6650:	00000021 	move	zero,zero
    6654:	00000021 	move	zero,zero
    6658:	00000021 	move	zero,zero
    665c:	00000021 	move	zero,zero
    6660:	00000021 	move	zero,zero
    6664:	00000021 	move	zero,zero
    6668:	00000021 	move	zero,zero
    666c:	00000021 	move	zero,zero
    6670:	00000021 	move	zero,zero
    6674:	00000021 	move	zero,zero
    6678:	3c082fc3 	lui	t0,0x2fc3
    667c:	3508dbde 	ori	t0,t0,0xdbde
    6680:	3c092fc3 	lui	t1,0x2fc3
    6684:	3529dbde 	ori	t1,t1,0xdbde
    6688:	1509ffe7 	bne	t0,t1,6628 <n30_bne_test+0x6628>
    668c:	00000000 	nop
    6690:	1000000c 	b	66c4 <n30_bne_test+0x66c4>
    6694:	00000000 	nop
    6698:	00000000 	nop
    669c:	00000021 	move	zero,zero
    66a0:	00000021 	move	zero,zero
    66a4:	00000021 	move	zero,zero
    66a8:	00000021 	move	zero,zero
    66ac:	00000021 	move	zero,zero
    66b0:	00000021 	move	zero,zero
    66b4:	00000021 	move	zero,zero
    66b8:	00000021 	move	zero,zero
    66bc:	3c12af74 	lui	s2,0xaf74
    66c0:	36528ec8 	ori	s2,s2,0x8ec8
    66c4:	00000000 	nop
    66c8:	24140000 	li	s4,0
    66cc:	16142951 	bne	s0,s4,10c14 <inst_error>
    66d0:	00000000 	nop
    66d4:	00000000 	nop
    66d8:	24150000 	li	s5,0
    66dc:	1655294d 	bne	s2,s5,10c14 <inst_error>
    66e0:	00000000 	nop
    66e4:	00000000 	nop
    66e8:	3c0cea5e 	lui	t4,0xea5e
    66ec:	358c83e8 	ori	t4,t4,0x83e8
    66f0:	3c0dc6aa 	lui	t5,0xc6aa
    66f4:	35ad58f8 	ori	t5,t5,0x58f8
    66f8:	24100000 	li	s0,0
    66fc:	10000016 	b	6758 <n30_bne_test+0x6758>
    6700:	24120000 	li	s2,0
    6704:	00000000 	nop
    6708:	3c10ea5e 	lui	s0,0xea5e
    670c:	15280023 	bne	t1,t0,679c <n30_bne_test+0x679c>
    6710:	361083e8 	ori	s0,s0,0x83e8
    6714:	10000023 	b	67a4 <n30_bne_test+0x67a4>
    6718:	00000000 	nop
    671c:	00000000 	nop
    6720:	00000021 	move	zero,zero
    6724:	00000021 	move	zero,zero
    6728:	00000021 	move	zero,zero
    672c:	00000021 	move	zero,zero
    6730:	00000021 	move	zero,zero
    6734:	00000021 	move	zero,zero
    6738:	00000021 	move	zero,zero
    673c:	00000021 	move	zero,zero
    6740:	00000021 	move	zero,zero
    6744:	00000021 	move	zero,zero
    6748:	00000021 	move	zero,zero
    674c:	00000021 	move	zero,zero
    6750:	00000021 	move	zero,zero
    6754:	00000021 	move	zero,zero
    6758:	3c081c06 	lui	t0,0x1c06
    675c:	35084560 	ori	t0,t0,0x4560
    6760:	3c091c06 	lui	t1,0x1c06
    6764:	35294560 	ori	t1,t1,0x4560
    6768:	1509ffe7 	bne	t0,t1,6708 <n30_bne_test+0x6708>
    676c:	00000000 	nop
    6770:	1000000c 	b	67a4 <n30_bne_test+0x67a4>
    6774:	00000000 	nop
    6778:	00000000 	nop
    677c:	00000021 	move	zero,zero
    6780:	00000021 	move	zero,zero
    6784:	00000021 	move	zero,zero
    6788:	00000021 	move	zero,zero
    678c:	00000021 	move	zero,zero
    6790:	00000021 	move	zero,zero
    6794:	00000021 	move	zero,zero
    6798:	00000021 	move	zero,zero
    679c:	3c12c6aa 	lui	s2,0xc6aa
    67a0:	365258f8 	ori	s2,s2,0x58f8
    67a4:	00000000 	nop
    67a8:	24140000 	li	s4,0
    67ac:	16142919 	bne	s0,s4,10c14 <inst_error>
    67b0:	00000000 	nop
    67b4:	00000000 	nop
    67b8:	24150000 	li	s5,0
    67bc:	16552915 	bne	s2,s5,10c14 <inst_error>
    67c0:	00000000 	nop
    67c4:	00000000 	nop
    67c8:	3c0c3f66 	lui	t4,0x3f66
    67cc:	358c76c0 	ori	t4,t4,0x76c0
    67d0:	3c0d7efd 	lui	t5,0x7efd
    67d4:	35adfee7 	ori	t5,t5,0xfee7
    67d8:	24100000 	li	s0,0
    67dc:	10000016 	b	6838 <n30_bne_test+0x6838>
    67e0:	24120000 	li	s2,0
    67e4:	00000000 	nop
    67e8:	3c103f66 	lui	s0,0x3f66
    67ec:	15280023 	bne	t1,t0,687c <n30_bne_test+0x687c>
    67f0:	361076c0 	ori	s0,s0,0x76c0
    67f4:	10000023 	b	6884 <n30_bne_test+0x6884>
    67f8:	00000000 	nop
    67fc:	00000000 	nop
    6800:	00000021 	move	zero,zero
    6804:	00000021 	move	zero,zero
    6808:	00000021 	move	zero,zero
    680c:	00000021 	move	zero,zero
    6810:	00000021 	move	zero,zero
    6814:	00000021 	move	zero,zero
    6818:	00000021 	move	zero,zero
    681c:	00000021 	move	zero,zero
    6820:	00000021 	move	zero,zero
    6824:	00000021 	move	zero,zero
    6828:	00000021 	move	zero,zero
    682c:	00000021 	move	zero,zero
    6830:	00000021 	move	zero,zero
    6834:	00000021 	move	zero,zero
    6838:	3c08c12b 	lui	t0,0xc12b
    683c:	35084332 	ori	t0,t0,0x4332
    6840:	3c09c12b 	lui	t1,0xc12b
    6844:	35294332 	ori	t1,t1,0x4332
    6848:	1509ffe7 	bne	t0,t1,67e8 <n30_bne_test+0x67e8>
    684c:	00000000 	nop
    6850:	1000000c 	b	6884 <n30_bne_test+0x6884>
    6854:	00000000 	nop
    6858:	00000000 	nop
    685c:	00000021 	move	zero,zero
    6860:	00000021 	move	zero,zero
    6864:	00000021 	move	zero,zero
    6868:	00000021 	move	zero,zero
    686c:	00000021 	move	zero,zero
    6870:	00000021 	move	zero,zero
    6874:	00000021 	move	zero,zero
    6878:	00000021 	move	zero,zero
    687c:	3c127efd 	lui	s2,0x7efd
    6880:	3652fee7 	ori	s2,s2,0xfee7
    6884:	00000000 	nop
    6888:	24140000 	li	s4,0
    688c:	161428e1 	bne	s0,s4,10c14 <inst_error>
    6890:	00000000 	nop
    6894:	00000000 	nop
    6898:	24150000 	li	s5,0
    689c:	165528dd 	bne	s2,s5,10c14 <inst_error>
    68a0:	00000000 	nop
    68a4:	00000000 	nop
    68a8:	3c0c5e7f 	lui	t4,0x5e7f
    68ac:	358ca680 	ori	t4,t4,0xa680
    68b0:	3c0d4595 	lui	t5,0x4595
    68b4:	35add750 	ori	t5,t5,0xd750
    68b8:	24100000 	li	s0,0
    68bc:	10000016 	b	6918 <n30_bne_test+0x6918>
    68c0:	24120000 	li	s2,0
    68c4:	00000000 	nop
    68c8:	3c105e7f 	lui	s0,0x5e7f
    68cc:	15280023 	bne	t1,t0,695c <n30_bne_test+0x695c>
    68d0:	3610a680 	ori	s0,s0,0xa680
    68d4:	10000023 	b	6964 <n30_bne_test+0x6964>
    68d8:	00000000 	nop
    68dc:	00000000 	nop
    68e0:	00000021 	move	zero,zero
    68e4:	00000021 	move	zero,zero
    68e8:	00000021 	move	zero,zero
    68ec:	00000021 	move	zero,zero
    68f0:	00000021 	move	zero,zero
    68f4:	00000021 	move	zero,zero
    68f8:	00000021 	move	zero,zero
    68fc:	00000021 	move	zero,zero
    6900:	00000021 	move	zero,zero
    6904:	00000021 	move	zero,zero
    6908:	00000021 	move	zero,zero
    690c:	00000021 	move	zero,zero
    6910:	00000021 	move	zero,zero
    6914:	00000021 	move	zero,zero
    6918:	3c089759 	lui	t0,0x9759
    691c:	35081c86 	ori	t0,t0,0x1c86
    6920:	3c099759 	lui	t1,0x9759
    6924:	35291c86 	ori	t1,t1,0x1c86
    6928:	1509ffe7 	bne	t0,t1,68c8 <n30_bne_test+0x68c8>
    692c:	00000000 	nop
    6930:	1000000c 	b	6964 <n30_bne_test+0x6964>
    6934:	00000000 	nop
    6938:	00000000 	nop
    693c:	00000021 	move	zero,zero
    6940:	00000021 	move	zero,zero
    6944:	00000021 	move	zero,zero
    6948:	00000021 	move	zero,zero
    694c:	00000021 	move	zero,zero
    6950:	00000021 	move	zero,zero
    6954:	00000021 	move	zero,zero
    6958:	00000021 	move	zero,zero
    695c:	3c124595 	lui	s2,0x4595
    6960:	3652d750 	ori	s2,s2,0xd750
    6964:	00000000 	nop
    6968:	24140000 	li	s4,0
    696c:	161428a9 	bne	s0,s4,10c14 <inst_error>
    6970:	00000000 	nop
    6974:	00000000 	nop
    6978:	24150000 	li	s5,0
    697c:	165528a5 	bne	s2,s5,10c14 <inst_error>
    6980:	00000000 	nop
    6984:	00000000 	nop
    6988:	3c0c846d 	lui	t4,0x846d
    698c:	358c8928 	ori	t4,t4,0x8928
    6990:	3c0da920 	lui	t5,0xa920
    6994:	35ada654 	ori	t5,t5,0xa654
    6998:	24100000 	li	s0,0
    699c:	10000016 	b	69f8 <n30_bne_test+0x69f8>
    69a0:	24120000 	li	s2,0
    69a4:	00000000 	nop
    69a8:	3c10846d 	lui	s0,0x846d
    69ac:	15280023 	bne	t1,t0,6a3c <n30_bne_test+0x6a3c>
    69b0:	36108928 	ori	s0,s0,0x8928
    69b4:	10000023 	b	6a44 <n30_bne_test+0x6a44>
    69b8:	00000000 	nop
    69bc:	00000000 	nop
    69c0:	00000021 	move	zero,zero
    69c4:	00000021 	move	zero,zero
    69c8:	00000021 	move	zero,zero
    69cc:	00000021 	move	zero,zero
    69d0:	00000021 	move	zero,zero
    69d4:	00000021 	move	zero,zero
    69d8:	00000021 	move	zero,zero
    69dc:	00000021 	move	zero,zero
    69e0:	00000021 	move	zero,zero
    69e4:	00000021 	move	zero,zero
    69e8:	00000021 	move	zero,zero
    69ec:	00000021 	move	zero,zero
    69f0:	00000021 	move	zero,zero
    69f4:	00000021 	move	zero,zero
    69f8:	3c08dbd8 	lui	t0,0xdbd8
    69fc:	3508b1e0 	ori	t0,t0,0xb1e0
    6a00:	3c09dbd8 	lui	t1,0xdbd8
    6a04:	3529b1e0 	ori	t1,t1,0xb1e0
    6a08:	1509ffe7 	bne	t0,t1,69a8 <n30_bne_test+0x69a8>
    6a0c:	00000000 	nop
    6a10:	1000000c 	b	6a44 <n30_bne_test+0x6a44>
    6a14:	00000000 	nop
    6a18:	00000000 	nop
    6a1c:	00000021 	move	zero,zero
    6a20:	00000021 	move	zero,zero
    6a24:	00000021 	move	zero,zero
    6a28:	00000021 	move	zero,zero
    6a2c:	00000021 	move	zero,zero
    6a30:	00000021 	move	zero,zero
    6a34:	00000021 	move	zero,zero
    6a38:	00000021 	move	zero,zero
    6a3c:	3c12a920 	lui	s2,0xa920
    6a40:	3652a654 	ori	s2,s2,0xa654
    6a44:	00000000 	nop
    6a48:	24140000 	li	s4,0
    6a4c:	16142871 	bne	s0,s4,10c14 <inst_error>
    6a50:	00000000 	nop
    6a54:	00000000 	nop
    6a58:	24150000 	li	s5,0
    6a5c:	1655286d 	bne	s2,s5,10c14 <inst_error>
    6a60:	00000000 	nop
    6a64:	00000000 	nop
    6a68:	3c0cbe9e 	lui	t4,0xbe9e
    6a6c:	358c2d88 	ori	t4,t4,0x2d88
    6a70:	3c0d46cf 	lui	t5,0x46cf
    6a74:	35ad3c58 	ori	t5,t5,0x3c58
    6a78:	24100000 	li	s0,0
    6a7c:	10000016 	b	6ad8 <n30_bne_test+0x6ad8>
    6a80:	24120000 	li	s2,0
    6a84:	00000000 	nop
    6a88:	3c10be9e 	lui	s0,0xbe9e
    6a8c:	15280023 	bne	t1,t0,6b1c <n30_bne_test+0x6b1c>
    6a90:	36102d88 	ori	s0,s0,0x2d88
    6a94:	10000023 	b	6b24 <n30_bne_test+0x6b24>
    6a98:	00000000 	nop
    6a9c:	00000000 	nop
    6aa0:	00000021 	move	zero,zero
    6aa4:	00000021 	move	zero,zero
    6aa8:	00000021 	move	zero,zero
    6aac:	00000021 	move	zero,zero
    6ab0:	00000021 	move	zero,zero
    6ab4:	00000021 	move	zero,zero
    6ab8:	00000021 	move	zero,zero
    6abc:	00000021 	move	zero,zero
    6ac0:	00000021 	move	zero,zero
    6ac4:	00000021 	move	zero,zero
    6ac8:	00000021 	move	zero,zero
    6acc:	00000021 	move	zero,zero
    6ad0:	00000021 	move	zero,zero
    6ad4:	00000021 	move	zero,zero
    6ad8:	3c0855d0 	lui	t0,0x55d0
    6adc:	3508c9a0 	ori	t0,t0,0xc9a0
    6ae0:	3c0955d0 	lui	t1,0x55d0
    6ae4:	3529c9a0 	ori	t1,t1,0xc9a0
    6ae8:	1509ffe7 	bne	t0,t1,6a88 <n30_bne_test+0x6a88>
    6aec:	00000000 	nop
    6af0:	1000000c 	b	6b24 <n30_bne_test+0x6b24>
    6af4:	00000000 	nop
    6af8:	00000000 	nop
    6afc:	00000021 	move	zero,zero
    6b00:	00000021 	move	zero,zero
    6b04:	00000021 	move	zero,zero
    6b08:	00000021 	move	zero,zero
    6b0c:	00000021 	move	zero,zero
    6b10:	00000021 	move	zero,zero
    6b14:	00000021 	move	zero,zero
    6b18:	00000021 	move	zero,zero
    6b1c:	3c1246cf 	lui	s2,0x46cf
    6b20:	36523c58 	ori	s2,s2,0x3c58
    6b24:	00000000 	nop
    6b28:	24140000 	li	s4,0
    6b2c:	16142839 	bne	s0,s4,10c14 <inst_error>
    6b30:	00000000 	nop
    6b34:	00000000 	nop
    6b38:	24150000 	li	s5,0
    6b3c:	16552835 	bne	s2,s5,10c14 <inst_error>
    6b40:	00000000 	nop
    6b44:	00000000 	nop
    6b48:	3c0c1d26 	lui	t4,0x1d26
    6b4c:	358c7b08 	ori	t4,t4,0x7b08
    6b50:	3c0d6302 	lui	t5,0x6302
    6b54:	35ad8f40 	ori	t5,t5,0x8f40
    6b58:	24100000 	li	s0,0
    6b5c:	10000016 	b	6bb8 <n30_bne_test+0x6bb8>
    6b60:	24120000 	li	s2,0
    6b64:	00000000 	nop
    6b68:	3c101d26 	lui	s0,0x1d26
    6b6c:	15280023 	bne	t1,t0,6bfc <n30_bne_test+0x6bfc>
    6b70:	36107b08 	ori	s0,s0,0x7b08
    6b74:	10000023 	b	6c04 <n30_bne_test+0x6c04>
    6b78:	00000000 	nop
    6b7c:	00000000 	nop
    6b80:	00000021 	move	zero,zero
    6b84:	00000021 	move	zero,zero
    6b88:	00000021 	move	zero,zero
    6b8c:	00000021 	move	zero,zero
    6b90:	00000021 	move	zero,zero
    6b94:	00000021 	move	zero,zero
    6b98:	00000021 	move	zero,zero
    6b9c:	00000021 	move	zero,zero
    6ba0:	00000021 	move	zero,zero
    6ba4:	00000021 	move	zero,zero
    6ba8:	00000021 	move	zero,zero
    6bac:	00000021 	move	zero,zero
    6bb0:	00000021 	move	zero,zero
    6bb4:	00000021 	move	zero,zero
    6bb8:	3c08c1f1 	lui	t0,0xc1f1
    6bbc:	3508857c 	ori	t0,t0,0x857c
    6bc0:	3c09c1f1 	lui	t1,0xc1f1
    6bc4:	3529857c 	ori	t1,t1,0x857c
    6bc8:	1509ffe7 	bne	t0,t1,6b68 <n30_bne_test+0x6b68>
    6bcc:	00000000 	nop
    6bd0:	1000000c 	b	6c04 <n30_bne_test+0x6c04>
    6bd4:	00000000 	nop
    6bd8:	00000000 	nop
    6bdc:	00000021 	move	zero,zero
    6be0:	00000021 	move	zero,zero
    6be4:	00000021 	move	zero,zero
    6be8:	00000021 	move	zero,zero
    6bec:	00000021 	move	zero,zero
    6bf0:	00000021 	move	zero,zero
    6bf4:	00000021 	move	zero,zero
    6bf8:	00000021 	move	zero,zero
    6bfc:	3c126302 	lui	s2,0x6302
    6c00:	36528f40 	ori	s2,s2,0x8f40
    6c04:	00000000 	nop
    6c08:	24140000 	li	s4,0
    6c0c:	16142801 	bne	s0,s4,10c14 <inst_error>
    6c10:	00000000 	nop
    6c14:	00000000 	nop
    6c18:	24150000 	li	s5,0
    6c1c:	165527fd 	bne	s2,s5,10c14 <inst_error>
    6c20:	00000000 	nop
    6c24:	00000000 	nop
    6c28:	3c0ccc8e 	lui	t4,0xcc8e
    6c2c:	358c0db8 	ori	t4,t4,0xdb8
    6c30:	3c0de45d 	lui	t5,0xe45d
    6c34:	35ad15fe 	ori	t5,t5,0x15fe
    6c38:	24100000 	li	s0,0
    6c3c:	10000016 	b	6c98 <n30_bne_test+0x6c98>
    6c40:	24120000 	li	s2,0
    6c44:	00000000 	nop
    6c48:	3c10cc8e 	lui	s0,0xcc8e
    6c4c:	15280023 	bne	t1,t0,6cdc <n30_bne_test+0x6cdc>
    6c50:	36100db8 	ori	s0,s0,0xdb8
    6c54:	10000023 	b	6ce4 <n30_bne_test+0x6ce4>
    6c58:	00000000 	nop
    6c5c:	00000000 	nop
    6c60:	00000021 	move	zero,zero
    6c64:	00000021 	move	zero,zero
    6c68:	00000021 	move	zero,zero
    6c6c:	00000021 	move	zero,zero
    6c70:	00000021 	move	zero,zero
    6c74:	00000021 	move	zero,zero
    6c78:	00000021 	move	zero,zero
    6c7c:	00000021 	move	zero,zero
    6c80:	00000021 	move	zero,zero
    6c84:	00000021 	move	zero,zero
    6c88:	00000021 	move	zero,zero
    6c8c:	00000021 	move	zero,zero
    6c90:	00000021 	move	zero,zero
    6c94:	00000021 	move	zero,zero
    6c98:	3c083ea0 	lui	t0,0x3ea0
    6c9c:	35086ca0 	ori	t0,t0,0x6ca0
    6ca0:	3c093ea0 	lui	t1,0x3ea0
    6ca4:	35296ca0 	ori	t1,t1,0x6ca0
    6ca8:	1509ffe7 	bne	t0,t1,6c48 <n30_bne_test+0x6c48>
    6cac:	00000000 	nop
    6cb0:	1000000c 	b	6ce4 <n30_bne_test+0x6ce4>
    6cb4:	00000000 	nop
    6cb8:	00000000 	nop
    6cbc:	00000021 	move	zero,zero
    6cc0:	00000021 	move	zero,zero
    6cc4:	00000021 	move	zero,zero
    6cc8:	00000021 	move	zero,zero
    6ccc:	00000021 	move	zero,zero
    6cd0:	00000021 	move	zero,zero
    6cd4:	00000021 	move	zero,zero
    6cd8:	00000021 	move	zero,zero
    6cdc:	3c12e45d 	lui	s2,0xe45d
    6ce0:	365215fe 	ori	s2,s2,0x15fe
    6ce4:	00000000 	nop
    6ce8:	24140000 	li	s4,0
    6cec:	161427c9 	bne	s0,s4,10c14 <inst_error>
    6cf0:	00000000 	nop
    6cf4:	00000000 	nop
    6cf8:	24150000 	li	s5,0
    6cfc:	165527c5 	bne	s2,s5,10c14 <inst_error>
    6d00:	00000000 	nop
    6d04:	00000000 	nop
    6d08:	3c0c13a1 	lui	t4,0x13a1
    6d0c:	358c6f06 	ori	t4,t4,0x6f06
    6d10:	3c0de367 	lui	t5,0xe367
    6d14:	35adbc2c 	ori	t5,t5,0xbc2c
    6d18:	24100000 	li	s0,0
    6d1c:	10000016 	b	6d78 <n30_bne_test+0x6d78>
    6d20:	24120000 	li	s2,0
    6d24:	00000000 	nop
    6d28:	3c1013a1 	lui	s0,0x13a1
    6d2c:	15280023 	bne	t1,t0,6dbc <n30_bne_test+0x6dbc>
    6d30:	36106f06 	ori	s0,s0,0x6f06
    6d34:	10000023 	b	6dc4 <n30_bne_test+0x6dc4>
    6d38:	00000000 	nop
    6d3c:	00000000 	nop
    6d40:	00000021 	move	zero,zero
    6d44:	00000021 	move	zero,zero
    6d48:	00000021 	move	zero,zero
    6d4c:	00000021 	move	zero,zero
    6d50:	00000021 	move	zero,zero
    6d54:	00000021 	move	zero,zero
    6d58:	00000021 	move	zero,zero
    6d5c:	00000021 	move	zero,zero
    6d60:	00000021 	move	zero,zero
    6d64:	00000021 	move	zero,zero
    6d68:	00000021 	move	zero,zero
    6d6c:	00000021 	move	zero,zero
    6d70:	00000021 	move	zero,zero
    6d74:	00000021 	move	zero,zero
    6d78:	3c08d020 	lui	t0,0xd020
    6d7c:	35081a70 	ori	t0,t0,0x1a70
    6d80:	3c09d020 	lui	t1,0xd020
    6d84:	35291a70 	ori	t1,t1,0x1a70
    6d88:	1509ffe7 	bne	t0,t1,6d28 <n30_bne_test+0x6d28>
    6d8c:	00000000 	nop
    6d90:	1000000c 	b	6dc4 <n30_bne_test+0x6dc4>
    6d94:	00000000 	nop
    6d98:	00000000 	nop
    6d9c:	00000021 	move	zero,zero
    6da0:	00000021 	move	zero,zero
    6da4:	00000021 	move	zero,zero
    6da8:	00000021 	move	zero,zero
    6dac:	00000021 	move	zero,zero
    6db0:	00000021 	move	zero,zero
    6db4:	00000021 	move	zero,zero
    6db8:	00000021 	move	zero,zero
    6dbc:	3c12e367 	lui	s2,0xe367
    6dc0:	3652bc2c 	ori	s2,s2,0xbc2c
    6dc4:	00000000 	nop
    6dc8:	24140000 	li	s4,0
    6dcc:	16142791 	bne	s0,s4,10c14 <inst_error>
    6dd0:	00000000 	nop
    6dd4:	00000000 	nop
    6dd8:	24150000 	li	s5,0
    6ddc:	1655278d 	bne	s2,s5,10c14 <inst_error>
    6de0:	00000000 	nop
    6de4:	00000000 	nop
    6de8:	3c0cb6b2 	lui	t4,0xb6b2
    6dec:	358c2fbb 	ori	t4,t4,0x2fbb
    6df0:	3c0d3744 	lui	t5,0x3744
    6df4:	35ad6a48 	ori	t5,t5,0x6a48
    6df8:	24100000 	li	s0,0
    6dfc:	10000016 	b	6e58 <n30_bne_test+0x6e58>
    6e00:	24120000 	li	s2,0
    6e04:	00000000 	nop
    6e08:	3c10b6b2 	lui	s0,0xb6b2
    6e0c:	15280023 	bne	t1,t0,6e9c <n30_bne_test+0x6e9c>
    6e10:	36102fbb 	ori	s0,s0,0x2fbb
    6e14:	10000023 	b	6ea4 <n30_bne_test+0x6ea4>
    6e18:	00000000 	nop
    6e1c:	00000000 	nop
    6e20:	00000021 	move	zero,zero
    6e24:	00000021 	move	zero,zero
    6e28:	00000021 	move	zero,zero
    6e2c:	00000021 	move	zero,zero
    6e30:	00000021 	move	zero,zero
    6e34:	00000021 	move	zero,zero
    6e38:	00000021 	move	zero,zero
    6e3c:	00000021 	move	zero,zero
    6e40:	00000021 	move	zero,zero
    6e44:	00000021 	move	zero,zero
    6e48:	00000021 	move	zero,zero
    6e4c:	00000021 	move	zero,zero
    6e50:	00000021 	move	zero,zero
    6e54:	00000021 	move	zero,zero
    6e58:	3c08cd66 	lui	t0,0xcd66
    6e5c:	3508d7d9 	ori	t0,t0,0xd7d9
    6e60:	3c09cd66 	lui	t1,0xcd66
    6e64:	3529d7d9 	ori	t1,t1,0xd7d9
    6e68:	1509ffe7 	bne	t0,t1,6e08 <n30_bne_test+0x6e08>
    6e6c:	00000000 	nop
    6e70:	1000000c 	b	6ea4 <n30_bne_test+0x6ea4>
    6e74:	00000000 	nop
    6e78:	00000000 	nop
    6e7c:	00000021 	move	zero,zero
    6e80:	00000021 	move	zero,zero
    6e84:	00000021 	move	zero,zero
    6e88:	00000021 	move	zero,zero
    6e8c:	00000021 	move	zero,zero
    6e90:	00000021 	move	zero,zero
    6e94:	00000021 	move	zero,zero
    6e98:	00000021 	move	zero,zero
    6e9c:	3c123744 	lui	s2,0x3744
    6ea0:	36526a48 	ori	s2,s2,0x6a48
    6ea4:	00000000 	nop
    6ea8:	24140000 	li	s4,0
    6eac:	16142759 	bne	s0,s4,10c14 <inst_error>
    6eb0:	00000000 	nop
    6eb4:	00000000 	nop
    6eb8:	24150000 	li	s5,0
    6ebc:	16552755 	bne	s2,s5,10c14 <inst_error>
    6ec0:	00000000 	nop
    6ec4:	00000000 	nop
    6ec8:	3c0cbcc8 	lui	t4,0xbcc8
    6ecc:	358c6ba8 	ori	t4,t4,0x6ba8
    6ed0:	3c0d596a 	lui	t5,0x596a
    6ed4:	35adbb80 	ori	t5,t5,0xbb80
    6ed8:	24100000 	li	s0,0
    6edc:	10000016 	b	6f38 <n30_bne_test+0x6f38>
    6ee0:	24120000 	li	s2,0
    6ee4:	00000000 	nop
    6ee8:	3c10bcc8 	lui	s0,0xbcc8
    6eec:	15280023 	bne	t1,t0,6f7c <n30_bne_test+0x6f7c>
    6ef0:	36106ba8 	ori	s0,s0,0x6ba8
    6ef4:	10000023 	b	6f84 <n30_bne_test+0x6f84>
    6ef8:	00000000 	nop
    6efc:	00000000 	nop
    6f00:	00000021 	move	zero,zero
    6f04:	00000021 	move	zero,zero
    6f08:	00000021 	move	zero,zero
    6f0c:	00000021 	move	zero,zero
    6f10:	00000021 	move	zero,zero
    6f14:	00000021 	move	zero,zero
    6f18:	00000021 	move	zero,zero
    6f1c:	00000021 	move	zero,zero
    6f20:	00000021 	move	zero,zero
    6f24:	00000021 	move	zero,zero
    6f28:	00000021 	move	zero,zero
    6f2c:	00000021 	move	zero,zero
    6f30:	00000021 	move	zero,zero
    6f34:	00000021 	move	zero,zero
    6f38:	3c08e4e9 	lui	t0,0xe4e9
    6f3c:	3508b0ec 	ori	t0,t0,0xb0ec
    6f40:	3c09e4e9 	lui	t1,0xe4e9
    6f44:	3529b0ec 	ori	t1,t1,0xb0ec
    6f48:	1509ffe7 	bne	t0,t1,6ee8 <n30_bne_test+0x6ee8>
    6f4c:	00000000 	nop
    6f50:	1000000c 	b	6f84 <n30_bne_test+0x6f84>
    6f54:	00000000 	nop
    6f58:	00000000 	nop
    6f5c:	00000021 	move	zero,zero
    6f60:	00000021 	move	zero,zero
    6f64:	00000021 	move	zero,zero
    6f68:	00000021 	move	zero,zero
    6f6c:	00000021 	move	zero,zero
    6f70:	00000021 	move	zero,zero
    6f74:	00000021 	move	zero,zero
    6f78:	00000021 	move	zero,zero
    6f7c:	3c12596a 	lui	s2,0x596a
    6f80:	3652bb80 	ori	s2,s2,0xbb80
    6f84:	00000000 	nop
    6f88:	24140000 	li	s4,0
    6f8c:	16142721 	bne	s0,s4,10c14 <inst_error>
    6f90:	00000000 	nop
    6f94:	00000000 	nop
    6f98:	24150000 	li	s5,0
    6f9c:	1655271d 	bne	s2,s5,10c14 <inst_error>
    6fa0:	00000000 	nop
    6fa4:	00000000 	nop
    6fa8:	3c0caa4a 	lui	t4,0xaa4a
    6fac:	358cee40 	ori	t4,t4,0xee40
    6fb0:	3c0da1fe 	lui	t5,0xa1fe
    6fb4:	35adc8b8 	ori	t5,t5,0xc8b8
    6fb8:	24100000 	li	s0,0
    6fbc:	10000016 	b	7018 <n30_bne_test+0x7018>
    6fc0:	24120000 	li	s2,0
    6fc4:	00000000 	nop
    6fc8:	3c10aa4a 	lui	s0,0xaa4a
    6fcc:	15280023 	bne	t1,t0,705c <n30_bne_test+0x705c>
    6fd0:	3610ee40 	ori	s0,s0,0xee40
    6fd4:	10000023 	b	7064 <n30_bne_test+0x7064>
    6fd8:	00000000 	nop
    6fdc:	00000000 	nop
    6fe0:	00000021 	move	zero,zero
    6fe4:	00000021 	move	zero,zero
    6fe8:	00000021 	move	zero,zero
    6fec:	00000021 	move	zero,zero
    6ff0:	00000021 	move	zero,zero
    6ff4:	00000021 	move	zero,zero
    6ff8:	00000021 	move	zero,zero
    6ffc:	00000021 	move	zero,zero
    7000:	00000021 	move	zero,zero
    7004:	00000021 	move	zero,zero
    7008:	00000021 	move	zero,zero
    700c:	00000021 	move	zero,zero
    7010:	00000021 	move	zero,zero
    7014:	00000021 	move	zero,zero
    7018:	3c082478 	lui	t0,0x2478
    701c:	350815c0 	ori	t0,t0,0x15c0
    7020:	3c092478 	lui	t1,0x2478
    7024:	352915c0 	ori	t1,t1,0x15c0
    7028:	1509ffe7 	bne	t0,t1,6fc8 <n30_bne_test+0x6fc8>
    702c:	00000000 	nop
    7030:	1000000c 	b	7064 <n30_bne_test+0x7064>
    7034:	00000000 	nop
    7038:	00000000 	nop
    703c:	00000021 	move	zero,zero
    7040:	00000021 	move	zero,zero
    7044:	00000021 	move	zero,zero
    7048:	00000021 	move	zero,zero
    704c:	00000021 	move	zero,zero
    7050:	00000021 	move	zero,zero
    7054:	00000021 	move	zero,zero
    7058:	00000021 	move	zero,zero
    705c:	3c12a1fe 	lui	s2,0xa1fe
    7060:	3652c8b8 	ori	s2,s2,0xc8b8
    7064:	00000000 	nop
    7068:	24140000 	li	s4,0
    706c:	161426e9 	bne	s0,s4,10c14 <inst_error>
    7070:	00000000 	nop
    7074:	00000000 	nop
    7078:	24150000 	li	s5,0
    707c:	165526e5 	bne	s2,s5,10c14 <inst_error>
    7080:	00000000 	nop
    7084:	00000000 	nop
    7088:	3c0c8b0d 	lui	t4,0x8b0d
    708c:	358c4ef8 	ori	t4,t4,0x4ef8
    7090:	3c0d58cd 	lui	t5,0x58cd
    7094:	35ad80d8 	ori	t5,t5,0x80d8
    7098:	24100000 	li	s0,0
    709c:	10000016 	b	70f8 <n30_bne_test+0x70f8>
    70a0:	24120000 	li	s2,0
    70a4:	00000000 	nop
    70a8:	3c108b0d 	lui	s0,0x8b0d
    70ac:	15280023 	bne	t1,t0,713c <n30_bne_test+0x713c>
    70b0:	36104ef8 	ori	s0,s0,0x4ef8
    70b4:	10000023 	b	7144 <n30_bne_test+0x7144>
    70b8:	00000000 	nop
    70bc:	00000000 	nop
    70c0:	00000021 	move	zero,zero
    70c4:	00000021 	move	zero,zero
    70c8:	00000021 	move	zero,zero
    70cc:	00000021 	move	zero,zero
    70d0:	00000021 	move	zero,zero
    70d4:	00000021 	move	zero,zero
    70d8:	00000021 	move	zero,zero
    70dc:	00000021 	move	zero,zero
    70e0:	00000021 	move	zero,zero
    70e4:	00000021 	move	zero,zero
    70e8:	00000021 	move	zero,zero
    70ec:	00000021 	move	zero,zero
    70f0:	00000021 	move	zero,zero
    70f4:	00000021 	move	zero,zero
    70f8:	3c08d7f4 	lui	t0,0xd7f4
    70fc:	3508fae0 	ori	t0,t0,0xfae0
    7100:	3c09d7f4 	lui	t1,0xd7f4
    7104:	3529fae0 	ori	t1,t1,0xfae0
    7108:	1509ffe7 	bne	t0,t1,70a8 <n30_bne_test+0x70a8>
    710c:	00000000 	nop
    7110:	1000000c 	b	7144 <n30_bne_test+0x7144>
    7114:	00000000 	nop
    7118:	00000000 	nop
    711c:	00000021 	move	zero,zero
    7120:	00000021 	move	zero,zero
    7124:	00000021 	move	zero,zero
    7128:	00000021 	move	zero,zero
    712c:	00000021 	move	zero,zero
    7130:	00000021 	move	zero,zero
    7134:	00000021 	move	zero,zero
    7138:	00000021 	move	zero,zero
    713c:	3c1258cd 	lui	s2,0x58cd
    7140:	365280d8 	ori	s2,s2,0x80d8
    7144:	00000000 	nop
    7148:	24140000 	li	s4,0
    714c:	161426b1 	bne	s0,s4,10c14 <inst_error>
    7150:	00000000 	nop
    7154:	00000000 	nop
    7158:	24150000 	li	s5,0
    715c:	165526ad 	bne	s2,s5,10c14 <inst_error>
    7160:	00000000 	nop
    7164:	00000000 	nop
    7168:	3c0c2f4e 	lui	t4,0x2f4e
    716c:	358c9f7e 	ori	t4,t4,0x9f7e
    7170:	3c0d7bd9 	lui	t5,0x7bd9
    7174:	35adb7e6 	ori	t5,t5,0xb7e6
    7178:	24100000 	li	s0,0
    717c:	10000016 	b	71d8 <n30_bne_test+0x71d8>
    7180:	24120000 	li	s2,0
    7184:	00000000 	nop
    7188:	3c102f4e 	lui	s0,0x2f4e
    718c:	15280023 	bne	t1,t0,721c <n30_bne_test+0x721c>
    7190:	36109f7e 	ori	s0,s0,0x9f7e
    7194:	10000023 	b	7224 <n30_bne_test+0x7224>
    7198:	00000000 	nop
    719c:	00000000 	nop
    71a0:	00000021 	move	zero,zero
    71a4:	00000021 	move	zero,zero
    71a8:	00000021 	move	zero,zero
    71ac:	00000021 	move	zero,zero
    71b0:	00000021 	move	zero,zero
    71b4:	00000021 	move	zero,zero
    71b8:	00000021 	move	zero,zero
    71bc:	00000021 	move	zero,zero
    71c0:	00000021 	move	zero,zero
    71c4:	00000021 	move	zero,zero
    71c8:	00000021 	move	zero,zero
    71cc:	00000021 	move	zero,zero
    71d0:	00000021 	move	zero,zero
    71d4:	00000021 	move	zero,zero
    71d8:	3c08aef5 	lui	t0,0xaef5
    71dc:	3508cb00 	ori	t0,t0,0xcb00
    71e0:	3c09aef5 	lui	t1,0xaef5
    71e4:	3529cb00 	ori	t1,t1,0xcb00
    71e8:	1509ffe7 	bne	t0,t1,7188 <n30_bne_test+0x7188>
    71ec:	00000000 	nop
    71f0:	1000000c 	b	7224 <n30_bne_test+0x7224>
    71f4:	00000000 	nop
    71f8:	00000000 	nop
    71fc:	00000021 	move	zero,zero
    7200:	00000021 	move	zero,zero
    7204:	00000021 	move	zero,zero
    7208:	00000021 	move	zero,zero
    720c:	00000021 	move	zero,zero
    7210:	00000021 	move	zero,zero
    7214:	00000021 	move	zero,zero
    7218:	00000021 	move	zero,zero
    721c:	3c127bd9 	lui	s2,0x7bd9
    7220:	3652b7e6 	ori	s2,s2,0xb7e6
    7224:	00000000 	nop
    7228:	24140000 	li	s4,0
    722c:	16142679 	bne	s0,s4,10c14 <inst_error>
    7230:	00000000 	nop
    7234:	00000000 	nop
    7238:	24150000 	li	s5,0
    723c:	16552675 	bne	s2,s5,10c14 <inst_error>
    7240:	00000000 	nop
    7244:	00000000 	nop
    7248:	3c0cbbf7 	lui	t4,0xbbf7
    724c:	358c5228 	ori	t4,t4,0x5228
    7250:	3c0d7d68 	lui	t5,0x7d68
    7254:	35add3c7 	ori	t5,t5,0xd3c7
    7258:	24100000 	li	s0,0
    725c:	10000016 	b	72b8 <n30_bne_test+0x72b8>
    7260:	24120000 	li	s2,0
    7264:	00000000 	nop
    7268:	3c10bbf7 	lui	s0,0xbbf7
    726c:	15280023 	bne	t1,t0,72fc <n30_bne_test+0x72fc>
    7270:	36105228 	ori	s0,s0,0x5228
    7274:	10000023 	b	7304 <n30_bne_test+0x7304>
    7278:	00000000 	nop
    727c:	00000000 	nop
    7280:	00000021 	move	zero,zero
    7284:	00000021 	move	zero,zero
    7288:	00000021 	move	zero,zero
    728c:	00000021 	move	zero,zero
    7290:	00000021 	move	zero,zero
    7294:	00000021 	move	zero,zero
    7298:	00000021 	move	zero,zero
    729c:	00000021 	move	zero,zero
    72a0:	00000021 	move	zero,zero
    72a4:	00000021 	move	zero,zero
    72a8:	00000021 	move	zero,zero
    72ac:	00000021 	move	zero,zero
    72b0:	00000021 	move	zero,zero
    72b4:	00000021 	move	zero,zero
    72b8:	3c081c9e 	lui	t0,0x1c9e
    72bc:	350845ab 	ori	t0,t0,0x45ab
    72c0:	3c091c9e 	lui	t1,0x1c9e
    72c4:	352945ab 	ori	t1,t1,0x45ab
    72c8:	1509ffe7 	bne	t0,t1,7268 <n30_bne_test+0x7268>
    72cc:	00000000 	nop
    72d0:	1000000c 	b	7304 <n30_bne_test+0x7304>
    72d4:	00000000 	nop
    72d8:	00000000 	nop
    72dc:	00000021 	move	zero,zero
    72e0:	00000021 	move	zero,zero
    72e4:	00000021 	move	zero,zero
    72e8:	00000021 	move	zero,zero
    72ec:	00000021 	move	zero,zero
    72f0:	00000021 	move	zero,zero
    72f4:	00000021 	move	zero,zero
    72f8:	00000021 	move	zero,zero
    72fc:	3c127d68 	lui	s2,0x7d68
    7300:	3652d3c7 	ori	s2,s2,0xd3c7
    7304:	00000000 	nop
    7308:	24140000 	li	s4,0
    730c:	16142641 	bne	s0,s4,10c14 <inst_error>
    7310:	00000000 	nop
    7314:	00000000 	nop
    7318:	24150000 	li	s5,0
    731c:	1655263d 	bne	s2,s5,10c14 <inst_error>
    7320:	00000000 	nop
    7324:	00000000 	nop
    7328:	3c0c35f4 	lui	t4,0x35f4
    732c:	358c89d4 	ori	t4,t4,0x89d4
    7330:	3c0d4622 	lui	t5,0x4622
    7334:	35ad3883 	ori	t5,t5,0x3883
    7338:	24100000 	li	s0,0
    733c:	10000016 	b	7398 <n30_bne_test+0x7398>
    7340:	24120000 	li	s2,0
    7344:	00000000 	nop
    7348:	3c1035f4 	lui	s0,0x35f4
    734c:	15280023 	bne	t1,t0,73dc <n30_bne_test+0x73dc>
    7350:	361089d4 	ori	s0,s0,0x89d4
    7354:	10000023 	b	73e4 <n30_bne_test+0x73e4>
    7358:	00000000 	nop
    735c:	00000000 	nop
    7360:	00000021 	move	zero,zero
    7364:	00000021 	move	zero,zero
    7368:	00000021 	move	zero,zero
    736c:	00000021 	move	zero,zero
    7370:	00000021 	move	zero,zero
    7374:	00000021 	move	zero,zero
    7378:	00000021 	move	zero,zero
    737c:	00000021 	move	zero,zero
    7380:	00000021 	move	zero,zero
    7384:	00000021 	move	zero,zero
    7388:	00000021 	move	zero,zero
    738c:	00000021 	move	zero,zero
    7390:	00000021 	move	zero,zero
    7394:	00000021 	move	zero,zero
    7398:	3c084646 	lui	t0,0x4646
    739c:	3508bd73 	ori	t0,t0,0xbd73
    73a0:	3c094646 	lui	t1,0x4646
    73a4:	3529bd73 	ori	t1,t1,0xbd73
    73a8:	1509ffe7 	bne	t0,t1,7348 <n30_bne_test+0x7348>
    73ac:	00000000 	nop
    73b0:	1000000c 	b	73e4 <n30_bne_test+0x73e4>
    73b4:	00000000 	nop
    73b8:	00000000 	nop
    73bc:	00000021 	move	zero,zero
    73c0:	00000021 	move	zero,zero
    73c4:	00000021 	move	zero,zero
    73c8:	00000021 	move	zero,zero
    73cc:	00000021 	move	zero,zero
    73d0:	00000021 	move	zero,zero
    73d4:	00000021 	move	zero,zero
    73d8:	00000021 	move	zero,zero
    73dc:	3c124622 	lui	s2,0x4622
    73e0:	36523883 	ori	s2,s2,0x3883
    73e4:	00000000 	nop
    73e8:	24140000 	li	s4,0
    73ec:	16142609 	bne	s0,s4,10c14 <inst_error>
    73f0:	00000000 	nop
    73f4:	00000000 	nop
    73f8:	24150000 	li	s5,0
    73fc:	16552605 	bne	s2,s5,10c14 <inst_error>
    7400:	00000000 	nop
    7404:	00000000 	nop
    7408:	3c0cca85 	lui	t4,0xca85
    740c:	358cb4c0 	ori	t4,t4,0xb4c0
    7410:	3c0d0e04 	lui	t5,0xe04
    7414:	35ad0ee8 	ori	t5,t5,0xee8
    7418:	24100000 	li	s0,0
    741c:	10000016 	b	7478 <n30_bne_test+0x7478>
    7420:	24120000 	li	s2,0
    7424:	00000000 	nop
    7428:	3c10ca85 	lui	s0,0xca85
    742c:	15280023 	bne	t1,t0,74bc <n30_bne_test+0x74bc>
    7430:	3610b4c0 	ori	s0,s0,0xb4c0
    7434:	10000023 	b	74c4 <n30_bne_test+0x74c4>
    7438:	00000000 	nop
    743c:	00000000 	nop
    7440:	00000021 	move	zero,zero
    7444:	00000021 	move	zero,zero
    7448:	00000021 	move	zero,zero
    744c:	00000021 	move	zero,zero
    7450:	00000021 	move	zero,zero
    7454:	00000021 	move	zero,zero
    7458:	00000021 	move	zero,zero
    745c:	00000021 	move	zero,zero
    7460:	00000021 	move	zero,zero
    7464:	00000021 	move	zero,zero
    7468:	00000021 	move	zero,zero
    746c:	00000021 	move	zero,zero
    7470:	00000021 	move	zero,zero
    7474:	00000021 	move	zero,zero
    7478:	3c08b501 	lui	t0,0xb501
    747c:	35087ebb 	ori	t0,t0,0x7ebb
    7480:	3c09b501 	lui	t1,0xb501
    7484:	35297ebb 	ori	t1,t1,0x7ebb
    7488:	1509ffe7 	bne	t0,t1,7428 <n30_bne_test+0x7428>
    748c:	00000000 	nop
    7490:	1000000c 	b	74c4 <n30_bne_test+0x74c4>
    7494:	00000000 	nop
    7498:	00000000 	nop
    749c:	00000021 	move	zero,zero
    74a0:	00000021 	move	zero,zero
    74a4:	00000021 	move	zero,zero
    74a8:	00000021 	move	zero,zero
    74ac:	00000021 	move	zero,zero
    74b0:	00000021 	move	zero,zero
    74b4:	00000021 	move	zero,zero
    74b8:	00000021 	move	zero,zero
    74bc:	3c120e04 	lui	s2,0xe04
    74c0:	36520ee8 	ori	s2,s2,0xee8
    74c4:	00000000 	nop
    74c8:	24140000 	li	s4,0
    74cc:	161425d1 	bne	s0,s4,10c14 <inst_error>
    74d0:	00000000 	nop
    74d4:	00000000 	nop
    74d8:	24150000 	li	s5,0
    74dc:	165525cd 	bne	s2,s5,10c14 <inst_error>
    74e0:	00000000 	nop
    74e4:	00000000 	nop
    74e8:	3c0c4e29 	lui	t4,0x4e29
    74ec:	358cb20c 	ori	t4,t4,0xb20c
    74f0:	3c0d8015 	lui	t5,0x8015
    74f4:	35ad4d9c 	ori	t5,t5,0x4d9c
    74f8:	24100000 	li	s0,0
    74fc:	10000016 	b	7558 <n30_bne_test+0x7558>
    7500:	24120000 	li	s2,0
    7504:	00000000 	nop
    7508:	3c104e29 	lui	s0,0x4e29
    750c:	15280023 	bne	t1,t0,759c <n30_bne_test+0x759c>
    7510:	3610b20c 	ori	s0,s0,0xb20c
    7514:	10000023 	b	75a4 <n30_bne_test+0x75a4>
    7518:	00000000 	nop
    751c:	00000000 	nop
    7520:	00000021 	move	zero,zero
    7524:	00000021 	move	zero,zero
    7528:	00000021 	move	zero,zero
    752c:	00000021 	move	zero,zero
    7530:	00000021 	move	zero,zero
    7534:	00000021 	move	zero,zero
    7538:	00000021 	move	zero,zero
    753c:	00000021 	move	zero,zero
    7540:	00000021 	move	zero,zero
    7544:	00000021 	move	zero,zero
    7548:	00000021 	move	zero,zero
    754c:	00000021 	move	zero,zero
    7550:	00000021 	move	zero,zero
    7554:	00000021 	move	zero,zero
    7558:	3c08e297 	lui	t0,0xe297
    755c:	3508d40f 	ori	t0,t0,0xd40f
    7560:	3c09e297 	lui	t1,0xe297
    7564:	3529d40f 	ori	t1,t1,0xd40f
    7568:	1509ffe7 	bne	t0,t1,7508 <n30_bne_test+0x7508>
    756c:	00000000 	nop
    7570:	1000000c 	b	75a4 <n30_bne_test+0x75a4>
    7574:	00000000 	nop
    7578:	00000000 	nop
    757c:	00000021 	move	zero,zero
    7580:	00000021 	move	zero,zero
    7584:	00000021 	move	zero,zero
    7588:	00000021 	move	zero,zero
    758c:	00000021 	move	zero,zero
    7590:	00000021 	move	zero,zero
    7594:	00000021 	move	zero,zero
    7598:	00000021 	move	zero,zero
    759c:	3c128015 	lui	s2,0x8015
    75a0:	36524d9c 	ori	s2,s2,0x4d9c
    75a4:	00000000 	nop
    75a8:	24140000 	li	s4,0
    75ac:	16142599 	bne	s0,s4,10c14 <inst_error>
    75b0:	00000000 	nop
    75b4:	00000000 	nop
    75b8:	24150000 	li	s5,0
    75bc:	16552595 	bne	s2,s5,10c14 <inst_error>
    75c0:	00000000 	nop
    75c4:	00000000 	nop
    75c8:	3c0c49a2 	lui	t4,0x49a2
    75cc:	358c5280 	ori	t4,t4,0x5280
    75d0:	3c0dc812 	lui	t5,0xc812
    75d4:	35adb400 	ori	t5,t5,0xb400
    75d8:	24100000 	li	s0,0
    75dc:	10000016 	b	7638 <n30_bne_test+0x7638>
    75e0:	24120000 	li	s2,0
    75e4:	00000000 	nop
    75e8:	3c1049a2 	lui	s0,0x49a2
    75ec:	15280023 	bne	t1,t0,767c <n30_bne_test+0x767c>
    75f0:	36105280 	ori	s0,s0,0x5280
    75f4:	10000023 	b	7684 <n30_bne_test+0x7684>
    75f8:	00000000 	nop
    75fc:	00000000 	nop
    7600:	00000021 	move	zero,zero
    7604:	00000021 	move	zero,zero
    7608:	00000021 	move	zero,zero
    760c:	00000021 	move	zero,zero
    7610:	00000021 	move	zero,zero
    7614:	00000021 	move	zero,zero
    7618:	00000021 	move	zero,zero
    761c:	00000021 	move	zero,zero
    7620:	00000021 	move	zero,zero
    7624:	00000021 	move	zero,zero
    7628:	00000021 	move	zero,zero
    762c:	00000021 	move	zero,zero
    7630:	00000021 	move	zero,zero
    7634:	00000021 	move	zero,zero
    7638:	3c088b78 	lui	t0,0x8b78
    763c:	3508f900 	ori	t0,t0,0xf900
    7640:	3c098b78 	lui	t1,0x8b78
    7644:	3529f900 	ori	t1,t1,0xf900
    7648:	1509ffe7 	bne	t0,t1,75e8 <n30_bne_test+0x75e8>
    764c:	00000000 	nop
    7650:	1000000c 	b	7684 <n30_bne_test+0x7684>
    7654:	00000000 	nop
    7658:	00000000 	nop
    765c:	00000021 	move	zero,zero
    7660:	00000021 	move	zero,zero
    7664:	00000021 	move	zero,zero
    7668:	00000021 	move	zero,zero
    766c:	00000021 	move	zero,zero
    7670:	00000021 	move	zero,zero
    7674:	00000021 	move	zero,zero
    7678:	00000021 	move	zero,zero
    767c:	3c12c812 	lui	s2,0xc812
    7680:	3652b400 	ori	s2,s2,0xb400
    7684:	00000000 	nop
    7688:	24140000 	li	s4,0
    768c:	16142561 	bne	s0,s4,10c14 <inst_error>
    7690:	00000000 	nop
    7694:	00000000 	nop
    7698:	24150000 	li	s5,0
    769c:	1655255d 	bne	s2,s5,10c14 <inst_error>
    76a0:	00000000 	nop
    76a4:	00000000 	nop
    76a8:	3c0cdb29 	lui	t4,0xdb29
    76ac:	358ccfb0 	ori	t4,t4,0xcfb0
    76b0:	3c0d15f2 	lui	t5,0x15f2
    76b4:	35adc27c 	ori	t5,t5,0xc27c
    76b8:	24100000 	li	s0,0
    76bc:	10000016 	b	7718 <n30_bne_test+0x7718>
    76c0:	24120000 	li	s2,0
    76c4:	00000000 	nop
    76c8:	3c10db29 	lui	s0,0xdb29
    76cc:	15280023 	bne	t1,t0,775c <n30_bne_test+0x775c>
    76d0:	3610cfb0 	ori	s0,s0,0xcfb0
    76d4:	10000023 	b	7764 <n30_bne_test+0x7764>
    76d8:	00000000 	nop
    76dc:	00000000 	nop
    76e0:	00000021 	move	zero,zero
    76e4:	00000021 	move	zero,zero
    76e8:	00000021 	move	zero,zero
    76ec:	00000021 	move	zero,zero
    76f0:	00000021 	move	zero,zero
    76f4:	00000021 	move	zero,zero
    76f8:	00000021 	move	zero,zero
    76fc:	00000021 	move	zero,zero
    7700:	00000021 	move	zero,zero
    7704:	00000021 	move	zero,zero
    7708:	00000021 	move	zero,zero
    770c:	00000021 	move	zero,zero
    7710:	00000021 	move	zero,zero
    7714:	00000021 	move	zero,zero
    7718:	3c0831aa 	lui	t0,0x31aa
    771c:	35082e48 	ori	t0,t0,0x2e48
    7720:	3c0931aa 	lui	t1,0x31aa
    7724:	35292e48 	ori	t1,t1,0x2e48
    7728:	1509ffe7 	bne	t0,t1,76c8 <n30_bne_test+0x76c8>
    772c:	00000000 	nop
    7730:	1000000c 	b	7764 <n30_bne_test+0x7764>
    7734:	00000000 	nop
    7738:	00000000 	nop
    773c:	00000021 	move	zero,zero
    7740:	00000021 	move	zero,zero
    7744:	00000021 	move	zero,zero
    7748:	00000021 	move	zero,zero
    774c:	00000021 	move	zero,zero
    7750:	00000021 	move	zero,zero
    7754:	00000021 	move	zero,zero
    7758:	00000021 	move	zero,zero
    775c:	3c1215f2 	lui	s2,0x15f2
    7760:	3652c27c 	ori	s2,s2,0xc27c
    7764:	00000000 	nop
    7768:	24140000 	li	s4,0
    776c:	16142529 	bne	s0,s4,10c14 <inst_error>
    7770:	00000000 	nop
    7774:	00000000 	nop
    7778:	24150000 	li	s5,0
    777c:	16552525 	bne	s2,s5,10c14 <inst_error>
    7780:	00000000 	nop
    7784:	00000000 	nop
    7788:	3c0c53f8 	lui	t4,0x53f8
    778c:	358c2f94 	ori	t4,t4,0x2f94
    7790:	3c0d4c94 	lui	t5,0x4c94
    7794:	35ad2030 	ori	t5,t5,0x2030
    7798:	24100000 	li	s0,0
    779c:	10000016 	b	77f8 <n30_bne_test+0x77f8>
    77a0:	24120000 	li	s2,0
    77a4:	00000000 	nop
    77a8:	3c1053f8 	lui	s0,0x53f8
    77ac:	15280023 	bne	t1,t0,783c <n30_bne_test+0x783c>
    77b0:	36102f94 	ori	s0,s0,0x2f94
    77b4:	10000023 	b	7844 <n30_bne_test+0x7844>
    77b8:	00000000 	nop
    77bc:	00000000 	nop
    77c0:	00000021 	move	zero,zero
    77c4:	00000021 	move	zero,zero
    77c8:	00000021 	move	zero,zero
    77cc:	00000021 	move	zero,zero
    77d0:	00000021 	move	zero,zero
    77d4:	00000021 	move	zero,zero
    77d8:	00000021 	move	zero,zero
    77dc:	00000021 	move	zero,zero
    77e0:	00000021 	move	zero,zero
    77e4:	00000021 	move	zero,zero
    77e8:	00000021 	move	zero,zero
    77ec:	00000021 	move	zero,zero
    77f0:	00000021 	move	zero,zero
    77f4:	00000021 	move	zero,zero
    77f8:	3c08552c 	lui	t0,0x552c
    77fc:	3508a6aa 	ori	t0,t0,0xa6aa
    7800:	3c09552c 	lui	t1,0x552c
    7804:	3529a6aa 	ori	t1,t1,0xa6aa
    7808:	1509ffe7 	bne	t0,t1,77a8 <n30_bne_test+0x77a8>
    780c:	00000000 	nop
    7810:	1000000c 	b	7844 <n30_bne_test+0x7844>
    7814:	00000000 	nop
    7818:	00000000 	nop
    781c:	00000021 	move	zero,zero
    7820:	00000021 	move	zero,zero
    7824:	00000021 	move	zero,zero
    7828:	00000021 	move	zero,zero
    782c:	00000021 	move	zero,zero
    7830:	00000021 	move	zero,zero
    7834:	00000021 	move	zero,zero
    7838:	00000021 	move	zero,zero
    783c:	3c124c94 	lui	s2,0x4c94
    7840:	36522030 	ori	s2,s2,0x2030
    7844:	00000000 	nop
    7848:	24140000 	li	s4,0
    784c:	161424f1 	bne	s0,s4,10c14 <inst_error>
    7850:	00000000 	nop
    7854:	00000000 	nop
    7858:	24150000 	li	s5,0
    785c:	165524ed 	bne	s2,s5,10c14 <inst_error>
    7860:	00000000 	nop
    7864:	00000000 	nop
    7868:	3c0c6cef 	lui	t4,0x6cef
    786c:	358c8800 	ori	t4,t4,0x8800
    7870:	3c0dd717 	lui	t5,0xd717
    7874:	35adc5ec 	ori	t5,t5,0xc5ec
    7878:	24100000 	li	s0,0
    787c:	10000016 	b	78d8 <n30_bne_test+0x78d8>
    7880:	24120000 	li	s2,0
    7884:	00000000 	nop
    7888:	3c106cef 	lui	s0,0x6cef
    788c:	15280023 	bne	t1,t0,791c <n30_bne_test+0x791c>
    7890:	36108800 	ori	s0,s0,0x8800
    7894:	10000023 	b	7924 <n30_bne_test+0x7924>
    7898:	00000000 	nop
    789c:	00000000 	nop
    78a0:	00000021 	move	zero,zero
    78a4:	00000021 	move	zero,zero
    78a8:	00000021 	move	zero,zero
    78ac:	00000021 	move	zero,zero
    78b0:	00000021 	move	zero,zero
    78b4:	00000021 	move	zero,zero
    78b8:	00000021 	move	zero,zero
    78bc:	00000021 	move	zero,zero
    78c0:	00000021 	move	zero,zero
    78c4:	00000021 	move	zero,zero
    78c8:	00000021 	move	zero,zero
    78cc:	00000021 	move	zero,zero
    78d0:	00000021 	move	zero,zero
    78d4:	00000021 	move	zero,zero
    78d8:	3c088095 	lui	t0,0x8095
    78dc:	3508cf14 	ori	t0,t0,0xcf14
    78e0:	3c098095 	lui	t1,0x8095
    78e4:	3529cf14 	ori	t1,t1,0xcf14
    78e8:	1509ffe7 	bne	t0,t1,7888 <n30_bne_test+0x7888>
    78ec:	00000000 	nop
    78f0:	1000000c 	b	7924 <n30_bne_test+0x7924>
    78f4:	00000000 	nop
    78f8:	00000000 	nop
    78fc:	00000021 	move	zero,zero
    7900:	00000021 	move	zero,zero
    7904:	00000021 	move	zero,zero
    7908:	00000021 	move	zero,zero
    790c:	00000021 	move	zero,zero
    7910:	00000021 	move	zero,zero
    7914:	00000021 	move	zero,zero
    7918:	00000021 	move	zero,zero
    791c:	3c12d717 	lui	s2,0xd717
    7920:	3652c5ec 	ori	s2,s2,0xc5ec
    7924:	00000000 	nop
    7928:	24140000 	li	s4,0
    792c:	161424b9 	bne	s0,s4,10c14 <inst_error>
    7930:	00000000 	nop
    7934:	00000000 	nop
    7938:	24150000 	li	s5,0
    793c:	165524b5 	bne	s2,s5,10c14 <inst_error>
    7940:	00000000 	nop
    7944:	00000000 	nop
    7948:	3c0c01bc 	lui	t4,0x1bc
    794c:	358c39dc 	ori	t4,t4,0x39dc
    7950:	3c0d839a 	lui	t5,0x839a
    7954:	35ad9e28 	ori	t5,t5,0x9e28
    7958:	24100000 	li	s0,0
    795c:	10000016 	b	79b8 <n30_bne_test+0x79b8>
    7960:	24120000 	li	s2,0
    7964:	00000000 	nop
    7968:	3c1001bc 	lui	s0,0x1bc
    796c:	15280023 	bne	t1,t0,79fc <n30_bne_test+0x79fc>
    7970:	361039dc 	ori	s0,s0,0x39dc
    7974:	10000023 	b	7a04 <n30_bne_test+0x7a04>
    7978:	00000000 	nop
    797c:	00000000 	nop
    7980:	00000021 	move	zero,zero
    7984:	00000021 	move	zero,zero
    7988:	00000021 	move	zero,zero
    798c:	00000021 	move	zero,zero
    7990:	00000021 	move	zero,zero
    7994:	00000021 	move	zero,zero
    7998:	00000021 	move	zero,zero
    799c:	00000021 	move	zero,zero
    79a0:	00000021 	move	zero,zero
    79a4:	00000021 	move	zero,zero
    79a8:	00000021 	move	zero,zero
    79ac:	00000021 	move	zero,zero
    79b0:	00000021 	move	zero,zero
    79b4:	00000021 	move	zero,zero
    79b8:	3c08a7e1 	lui	t0,0xa7e1
    79bc:	3508bbb2 	ori	t0,t0,0xbbb2
    79c0:	3c09a7e1 	lui	t1,0xa7e1
    79c4:	3529bbb2 	ori	t1,t1,0xbbb2
    79c8:	1509ffe7 	bne	t0,t1,7968 <n30_bne_test+0x7968>
    79cc:	00000000 	nop
    79d0:	1000000c 	b	7a04 <n30_bne_test+0x7a04>
    79d4:	00000000 	nop
    79d8:	00000000 	nop
    79dc:	00000021 	move	zero,zero
    79e0:	00000021 	move	zero,zero
    79e4:	00000021 	move	zero,zero
    79e8:	00000021 	move	zero,zero
    79ec:	00000021 	move	zero,zero
    79f0:	00000021 	move	zero,zero
    79f4:	00000021 	move	zero,zero
    79f8:	00000021 	move	zero,zero
    79fc:	3c12839a 	lui	s2,0x839a
    7a00:	36529e28 	ori	s2,s2,0x9e28
    7a04:	00000000 	nop
    7a08:	24140000 	li	s4,0
    7a0c:	16142481 	bne	s0,s4,10c14 <inst_error>
    7a10:	00000000 	nop
    7a14:	00000000 	nop
    7a18:	24150000 	li	s5,0
    7a1c:	1655247d 	bne	s2,s5,10c14 <inst_error>
    7a20:	00000000 	nop
    7a24:	00000000 	nop
    7a28:	3c0cd74b 	lui	t4,0xd74b
    7a2c:	358ced4a 	ori	t4,t4,0xed4a
    7a30:	3c0d1ead 	lui	t5,0x1ead
    7a34:	35adde00 	ori	t5,t5,0xde00
    7a38:	24100000 	li	s0,0
    7a3c:	10000016 	b	7a98 <n30_bne_test+0x7a98>
    7a40:	24120000 	li	s2,0
    7a44:	00000000 	nop
    7a48:	3c10d74b 	lui	s0,0xd74b
    7a4c:	15280023 	bne	t1,t0,7adc <n30_bne_test+0x7adc>
    7a50:	3610ed4a 	ori	s0,s0,0xed4a
    7a54:	10000023 	b	7ae4 <n30_bne_test+0x7ae4>
    7a58:	00000000 	nop
    7a5c:	00000000 	nop
    7a60:	00000021 	move	zero,zero
    7a64:	00000021 	move	zero,zero
    7a68:	00000021 	move	zero,zero
    7a6c:	00000021 	move	zero,zero
    7a70:	00000021 	move	zero,zero
    7a74:	00000021 	move	zero,zero
    7a78:	00000021 	move	zero,zero
    7a7c:	00000021 	move	zero,zero
    7a80:	00000021 	move	zero,zero
    7a84:	00000021 	move	zero,zero
    7a88:	00000021 	move	zero,zero
    7a8c:	00000021 	move	zero,zero
    7a90:	00000021 	move	zero,zero
    7a94:	00000021 	move	zero,zero
    7a98:	3c088d4c 	lui	t0,0x8d4c
    7a9c:	35087b7a 	ori	t0,t0,0x7b7a
    7aa0:	3c098d4c 	lui	t1,0x8d4c
    7aa4:	35297b7a 	ori	t1,t1,0x7b7a
    7aa8:	1509ffe7 	bne	t0,t1,7a48 <n30_bne_test+0x7a48>
    7aac:	00000000 	nop
    7ab0:	1000000c 	b	7ae4 <n30_bne_test+0x7ae4>
    7ab4:	00000000 	nop
    7ab8:	00000000 	nop
    7abc:	00000021 	move	zero,zero
    7ac0:	00000021 	move	zero,zero
    7ac4:	00000021 	move	zero,zero
    7ac8:	00000021 	move	zero,zero
    7acc:	00000021 	move	zero,zero
    7ad0:	00000021 	move	zero,zero
    7ad4:	00000021 	move	zero,zero
    7ad8:	00000021 	move	zero,zero
    7adc:	3c121ead 	lui	s2,0x1ead
    7ae0:	3652de00 	ori	s2,s2,0xde00
    7ae4:	00000000 	nop
    7ae8:	24140000 	li	s4,0
    7aec:	16142449 	bne	s0,s4,10c14 <inst_error>
    7af0:	00000000 	nop
    7af4:	00000000 	nop
    7af8:	24150000 	li	s5,0
    7afc:	16552445 	bne	s2,s5,10c14 <inst_error>
    7b00:	00000000 	nop
    7b04:	00000000 	nop
    7b08:	3c0c578e 	lui	t4,0x578e
    7b0c:	358c41e6 	ori	t4,t4,0x41e6
    7b10:	3c0d1f53 	lui	t5,0x1f53
    7b14:	35adbc86 	ori	t5,t5,0xbc86
    7b18:	24100000 	li	s0,0
    7b1c:	10000016 	b	7b78 <n30_bne_test+0x7b78>
    7b20:	24120000 	li	s2,0
    7b24:	00000000 	nop
    7b28:	3c10578e 	lui	s0,0x578e
    7b2c:	15280023 	bne	t1,t0,7bbc <n30_bne_test+0x7bbc>
    7b30:	361041e6 	ori	s0,s0,0x41e6
    7b34:	10000023 	b	7bc4 <n30_bne_test+0x7bc4>
    7b38:	00000000 	nop
    7b3c:	00000000 	nop
    7b40:	00000021 	move	zero,zero
    7b44:	00000021 	move	zero,zero
    7b48:	00000021 	move	zero,zero
    7b4c:	00000021 	move	zero,zero
    7b50:	00000021 	move	zero,zero
    7b54:	00000021 	move	zero,zero
    7b58:	00000021 	move	zero,zero
    7b5c:	00000021 	move	zero,zero
    7b60:	00000021 	move	zero,zero
    7b64:	00000021 	move	zero,zero
    7b68:	00000021 	move	zero,zero
    7b6c:	00000021 	move	zero,zero
    7b70:	00000021 	move	zero,zero
    7b74:	00000021 	move	zero,zero
    7b78:	3c087791 	lui	t0,0x7791
    7b7c:	35089958 	ori	t0,t0,0x9958
    7b80:	3c097791 	lui	t1,0x7791
    7b84:	35299958 	ori	t1,t1,0x9958
    7b88:	1509ffe7 	bne	t0,t1,7b28 <n30_bne_test+0x7b28>
    7b8c:	00000000 	nop
    7b90:	1000000c 	b	7bc4 <n30_bne_test+0x7bc4>
    7b94:	00000000 	nop
    7b98:	00000000 	nop
    7b9c:	00000021 	move	zero,zero
    7ba0:	00000021 	move	zero,zero
    7ba4:	00000021 	move	zero,zero
    7ba8:	00000021 	move	zero,zero
    7bac:	00000021 	move	zero,zero
    7bb0:	00000021 	move	zero,zero
    7bb4:	00000021 	move	zero,zero
    7bb8:	00000021 	move	zero,zero
    7bbc:	3c121f53 	lui	s2,0x1f53
    7bc0:	3652bc86 	ori	s2,s2,0xbc86
    7bc4:	00000000 	nop
    7bc8:	24140000 	li	s4,0
    7bcc:	16142411 	bne	s0,s4,10c14 <inst_error>
    7bd0:	00000000 	nop
    7bd4:	00000000 	nop
    7bd8:	24150000 	li	s5,0
    7bdc:	1655240d 	bne	s2,s5,10c14 <inst_error>
    7be0:	00000000 	nop
    7be4:	00000000 	nop
    7be8:	3c0c3b4c 	lui	t4,0x3b4c
    7bec:	358ca5f8 	ori	t4,t4,0xa5f8
    7bf0:	3c0df4e5 	lui	t5,0xf4e5
    7bf4:	35adcea0 	ori	t5,t5,0xcea0
    7bf8:	24100000 	li	s0,0
    7bfc:	10000016 	b	7c58 <n30_bne_test+0x7c58>
    7c00:	24120000 	li	s2,0
    7c04:	00000000 	nop
    7c08:	3c103b4c 	lui	s0,0x3b4c
    7c0c:	15280023 	bne	t1,t0,7c9c <n30_bne_test+0x7c9c>
    7c10:	3610a5f8 	ori	s0,s0,0xa5f8
    7c14:	10000023 	b	7ca4 <n30_bne_test+0x7ca4>
    7c18:	00000000 	nop
    7c1c:	00000000 	nop
    7c20:	00000021 	move	zero,zero
    7c24:	00000021 	move	zero,zero
    7c28:	00000021 	move	zero,zero
    7c2c:	00000021 	move	zero,zero
    7c30:	00000021 	move	zero,zero
    7c34:	00000021 	move	zero,zero
    7c38:	00000021 	move	zero,zero
    7c3c:	00000021 	move	zero,zero
    7c40:	00000021 	move	zero,zero
    7c44:	00000021 	move	zero,zero
    7c48:	00000021 	move	zero,zero
    7c4c:	00000021 	move	zero,zero
    7c50:	00000021 	move	zero,zero
    7c54:	00000021 	move	zero,zero
    7c58:	3c085c97 	lui	t0,0x5c97
    7c5c:	35089db6 	ori	t0,t0,0x9db6
    7c60:	3c095c97 	lui	t1,0x5c97
    7c64:	35299db6 	ori	t1,t1,0x9db6
    7c68:	1509ffe7 	bne	t0,t1,7c08 <n30_bne_test+0x7c08>
    7c6c:	00000000 	nop
    7c70:	1000000c 	b	7ca4 <n30_bne_test+0x7ca4>
    7c74:	00000000 	nop
    7c78:	00000000 	nop
    7c7c:	00000021 	move	zero,zero
    7c80:	00000021 	move	zero,zero
    7c84:	00000021 	move	zero,zero
    7c88:	00000021 	move	zero,zero
    7c8c:	00000021 	move	zero,zero
    7c90:	00000021 	move	zero,zero
    7c94:	00000021 	move	zero,zero
    7c98:	00000021 	move	zero,zero
    7c9c:	3c12f4e5 	lui	s2,0xf4e5
    7ca0:	3652cea0 	ori	s2,s2,0xcea0
    7ca4:	00000000 	nop
    7ca8:	24140000 	li	s4,0
    7cac:	161423d9 	bne	s0,s4,10c14 <inst_error>
    7cb0:	00000000 	nop
    7cb4:	00000000 	nop
    7cb8:	24150000 	li	s5,0
    7cbc:	165523d5 	bne	s2,s5,10c14 <inst_error>
    7cc0:	00000000 	nop
    7cc4:	00000000 	nop
    7cc8:	3c0c4cf3 	lui	t4,0x4cf3
    7ccc:	358c42c0 	ori	t4,t4,0x42c0
    7cd0:	3c0d108d 	lui	t5,0x108d
    7cd4:	35ad1140 	ori	t5,t5,0x1140
    7cd8:	24100000 	li	s0,0
    7cdc:	10000016 	b	7d38 <n30_bne_test+0x7d38>
    7ce0:	24120000 	li	s2,0
    7ce4:	00000000 	nop
    7ce8:	3c104cf3 	lui	s0,0x4cf3
    7cec:	15280023 	bne	t1,t0,7d7c <n30_bne_test+0x7d7c>
    7cf0:	361042c0 	ori	s0,s0,0x42c0
    7cf4:	10000023 	b	7d84 <n30_bne_test+0x7d84>
    7cf8:	00000000 	nop
    7cfc:	00000000 	nop
    7d00:	00000021 	move	zero,zero
    7d04:	00000021 	move	zero,zero
    7d08:	00000021 	move	zero,zero
    7d0c:	00000021 	move	zero,zero
    7d10:	00000021 	move	zero,zero
    7d14:	00000021 	move	zero,zero
    7d18:	00000021 	move	zero,zero
    7d1c:	00000021 	move	zero,zero
    7d20:	00000021 	move	zero,zero
    7d24:	00000021 	move	zero,zero
    7d28:	00000021 	move	zero,zero
    7d2c:	00000021 	move	zero,zero
    7d30:	00000021 	move	zero,zero
    7d34:	00000021 	move	zero,zero
    7d38:	3c083ca2 	lui	t0,0x3ca2
    7d3c:	35084c26 	ori	t0,t0,0x4c26
    7d40:	3c093ca2 	lui	t1,0x3ca2
    7d44:	35294c26 	ori	t1,t1,0x4c26
    7d48:	1509ffe7 	bne	t0,t1,7ce8 <n30_bne_test+0x7ce8>
    7d4c:	00000000 	nop
    7d50:	1000000c 	b	7d84 <n30_bne_test+0x7d84>
    7d54:	00000000 	nop
    7d58:	00000000 	nop
    7d5c:	00000021 	move	zero,zero
    7d60:	00000021 	move	zero,zero
    7d64:	00000021 	move	zero,zero
    7d68:	00000021 	move	zero,zero
    7d6c:	00000021 	move	zero,zero
    7d70:	00000021 	move	zero,zero
    7d74:	00000021 	move	zero,zero
    7d78:	00000021 	move	zero,zero
    7d7c:	3c12108d 	lui	s2,0x108d
    7d80:	36521140 	ori	s2,s2,0x1140
    7d84:	00000000 	nop
    7d88:	24140000 	li	s4,0
    7d8c:	161423a1 	bne	s0,s4,10c14 <inst_error>
    7d90:	00000000 	nop
    7d94:	00000000 	nop
    7d98:	24150000 	li	s5,0
    7d9c:	1655239d 	bne	s2,s5,10c14 <inst_error>
    7da0:	00000000 	nop
    7da4:	00000000 	nop
    7da8:	3c0c8e87 	lui	t4,0x8e87
    7dac:	358c7120 	ori	t4,t4,0x7120
    7db0:	3c0da8d9 	lui	t5,0xa8d9
    7db4:	35ad95c0 	ori	t5,t5,0x95c0
    7db8:	24100000 	li	s0,0
    7dbc:	10000016 	b	7e18 <n30_bne_test+0x7e18>
    7dc0:	24120000 	li	s2,0
    7dc4:	00000000 	nop
    7dc8:	3c108e87 	lui	s0,0x8e87
    7dcc:	15280023 	bne	t1,t0,7e5c <n30_bne_test+0x7e5c>
    7dd0:	36107120 	ori	s0,s0,0x7120
    7dd4:	10000023 	b	7e64 <n30_bne_test+0x7e64>
    7dd8:	00000000 	nop
    7ddc:	00000000 	nop
    7de0:	00000021 	move	zero,zero
    7de4:	00000021 	move	zero,zero
    7de8:	00000021 	move	zero,zero
    7dec:	00000021 	move	zero,zero
    7df0:	00000021 	move	zero,zero
    7df4:	00000021 	move	zero,zero
    7df8:	00000021 	move	zero,zero
    7dfc:	00000021 	move	zero,zero
    7e00:	00000021 	move	zero,zero
    7e04:	00000021 	move	zero,zero
    7e08:	00000021 	move	zero,zero
    7e0c:	00000021 	move	zero,zero
    7e10:	00000021 	move	zero,zero
    7e14:	00000021 	move	zero,zero
    7e18:	3c08f752 	lui	t0,0xf752
    7e1c:	35086ede 	ori	t0,t0,0x6ede
    7e20:	3c09f752 	lui	t1,0xf752
    7e24:	35296ede 	ori	t1,t1,0x6ede
    7e28:	1509ffe7 	bne	t0,t1,7dc8 <n30_bne_test+0x7dc8>
    7e2c:	00000000 	nop
    7e30:	1000000c 	b	7e64 <n30_bne_test+0x7e64>
    7e34:	00000000 	nop
    7e38:	00000000 	nop
    7e3c:	00000021 	move	zero,zero
    7e40:	00000021 	move	zero,zero
    7e44:	00000021 	move	zero,zero
    7e48:	00000021 	move	zero,zero
    7e4c:	00000021 	move	zero,zero
    7e50:	00000021 	move	zero,zero
    7e54:	00000021 	move	zero,zero
    7e58:	00000021 	move	zero,zero
    7e5c:	3c12a8d9 	lui	s2,0xa8d9
    7e60:	365295c0 	ori	s2,s2,0x95c0
    7e64:	00000000 	nop
    7e68:	24140000 	li	s4,0
    7e6c:	16142369 	bne	s0,s4,10c14 <inst_error>
    7e70:	00000000 	nop
    7e74:	00000000 	nop
    7e78:	24150000 	li	s5,0
    7e7c:	16552365 	bne	s2,s5,10c14 <inst_error>
    7e80:	00000000 	nop
    7e84:	00000000 	nop
    7e88:	3c0c7cc2 	lui	t4,0x7cc2
    7e8c:	358c09cc 	ori	t4,t4,0x9cc
    7e90:	3c0d5b33 	lui	t5,0x5b33
    7e94:	35adaf05 	ori	t5,t5,0xaf05
    7e98:	24100000 	li	s0,0
    7e9c:	10000016 	b	7ef8 <n30_bne_test+0x7ef8>
    7ea0:	24120000 	li	s2,0
    7ea4:	00000000 	nop
    7ea8:	3c107cc2 	lui	s0,0x7cc2
    7eac:	15280023 	bne	t1,t0,7f3c <n30_bne_test+0x7f3c>
    7eb0:	361009cc 	ori	s0,s0,0x9cc
    7eb4:	10000023 	b	7f44 <n30_bne_test+0x7f44>
    7eb8:	00000000 	nop
    7ebc:	00000000 	nop
    7ec0:	00000021 	move	zero,zero
    7ec4:	00000021 	move	zero,zero
    7ec8:	00000021 	move	zero,zero
    7ecc:	00000021 	move	zero,zero
    7ed0:	00000021 	move	zero,zero
    7ed4:	00000021 	move	zero,zero
    7ed8:	00000021 	move	zero,zero
    7edc:	00000021 	move	zero,zero
    7ee0:	00000021 	move	zero,zero
    7ee4:	00000021 	move	zero,zero
    7ee8:	00000021 	move	zero,zero
    7eec:	00000021 	move	zero,zero
    7ef0:	00000021 	move	zero,zero
    7ef4:	00000021 	move	zero,zero
    7ef8:	3c08c2d7 	lui	t0,0xc2d7
    7efc:	3508c380 	ori	t0,t0,0xc380
    7f00:	3c09c2d7 	lui	t1,0xc2d7
    7f04:	3529c380 	ori	t1,t1,0xc380
    7f08:	1509ffe7 	bne	t0,t1,7ea8 <n30_bne_test+0x7ea8>
    7f0c:	00000000 	nop
    7f10:	1000000c 	b	7f44 <n30_bne_test+0x7f44>
    7f14:	00000000 	nop
    7f18:	00000000 	nop
    7f1c:	00000021 	move	zero,zero
    7f20:	00000021 	move	zero,zero
    7f24:	00000021 	move	zero,zero
    7f28:	00000021 	move	zero,zero
    7f2c:	00000021 	move	zero,zero
    7f30:	00000021 	move	zero,zero
    7f34:	00000021 	move	zero,zero
    7f38:	00000021 	move	zero,zero
    7f3c:	3c125b33 	lui	s2,0x5b33
    7f40:	3652af05 	ori	s2,s2,0xaf05
    7f44:	00000000 	nop
    7f48:	24140000 	li	s4,0
    7f4c:	16142331 	bne	s0,s4,10c14 <inst_error>
    7f50:	00000000 	nop
    7f54:	00000000 	nop
    7f58:	24150000 	li	s5,0
    7f5c:	1655232d 	bne	s2,s5,10c14 <inst_error>
    7f60:	00000000 	nop
    7f64:	00000000 	nop
    7f68:	3c0c2f31 	lui	t4,0x2f31
    7f6c:	358cfb40 	ori	t4,t4,0xfb40
    7f70:	3c0da23c 	lui	t5,0xa23c
    7f74:	35adad23 	ori	t5,t5,0xad23
    7f78:	24100000 	li	s0,0
    7f7c:	10000016 	b	7fd8 <n30_bne_test+0x7fd8>
    7f80:	24120000 	li	s2,0
    7f84:	00000000 	nop
    7f88:	3c102f31 	lui	s0,0x2f31
    7f8c:	15280023 	bne	t1,t0,801c <n30_bne_test+0x801c>
    7f90:	3610fb40 	ori	s0,s0,0xfb40
    7f94:	10000023 	b	8024 <n30_bne_test+0x8024>
    7f98:	00000000 	nop
    7f9c:	00000000 	nop
    7fa0:	00000021 	move	zero,zero
    7fa4:	00000021 	move	zero,zero
    7fa8:	00000021 	move	zero,zero
    7fac:	00000021 	move	zero,zero
    7fb0:	00000021 	move	zero,zero
    7fb4:	00000021 	move	zero,zero
    7fb8:	00000021 	move	zero,zero
    7fbc:	00000021 	move	zero,zero
    7fc0:	00000021 	move	zero,zero
    7fc4:	00000021 	move	zero,zero
    7fc8:	00000021 	move	zero,zero
    7fcc:	00000021 	move	zero,zero
    7fd0:	00000021 	move	zero,zero
    7fd4:	00000021 	move	zero,zero
    7fd8:	3c084f88 	lui	t0,0x4f88
    7fdc:	35088d40 	ori	t0,t0,0x8d40
    7fe0:	3c094f88 	lui	t1,0x4f88
    7fe4:	35298d40 	ori	t1,t1,0x8d40
    7fe8:	1509ffe7 	bne	t0,t1,7f88 <n30_bne_test+0x7f88>
    7fec:	00000000 	nop
    7ff0:	1000000c 	b	8024 <n30_bne_test+0x8024>
    7ff4:	00000000 	nop
    7ff8:	00000000 	nop
    7ffc:	00000021 	move	zero,zero
    8000:	00000021 	move	zero,zero
    8004:	00000021 	move	zero,zero
    8008:	00000021 	move	zero,zero
    800c:	00000021 	move	zero,zero
    8010:	00000021 	move	zero,zero
    8014:	00000021 	move	zero,zero
    8018:	00000021 	move	zero,zero
    801c:	3c12a23c 	lui	s2,0xa23c
    8020:	3652ad23 	ori	s2,s2,0xad23
    8024:	00000000 	nop
    8028:	24140000 	li	s4,0
    802c:	161422f9 	bne	s0,s4,10c14 <inst_error>
    8030:	00000000 	nop
    8034:	00000000 	nop
    8038:	24150000 	li	s5,0
    803c:	165522f5 	bne	s2,s5,10c14 <inst_error>
    8040:	00000000 	nop
    8044:	00000000 	nop
    8048:	3c0c075c 	lui	t4,0x75c
    804c:	358c5a20 	ori	t4,t4,0x5a20
    8050:	3c0d7dfe 	lui	t5,0x7dfe
    8054:	35ad2100 	ori	t5,t5,0x2100
    8058:	24100000 	li	s0,0
    805c:	10000016 	b	80b8 <n30_bne_test+0x80b8>
    8060:	24120000 	li	s2,0
    8064:	00000000 	nop
    8068:	3c10075c 	lui	s0,0x75c
    806c:	15280023 	bne	t1,t0,80fc <n30_bne_test+0x80fc>
    8070:	36105a20 	ori	s0,s0,0x5a20
    8074:	10000023 	b	8104 <n30_bne_test+0x8104>
    8078:	00000000 	nop
    807c:	00000000 	nop
    8080:	00000021 	move	zero,zero
    8084:	00000021 	move	zero,zero
    8088:	00000021 	move	zero,zero
    808c:	00000021 	move	zero,zero
    8090:	00000021 	move	zero,zero
    8094:	00000021 	move	zero,zero
    8098:	00000021 	move	zero,zero
    809c:	00000021 	move	zero,zero
    80a0:	00000021 	move	zero,zero
    80a4:	00000021 	move	zero,zero
    80a8:	00000021 	move	zero,zero
    80ac:	00000021 	move	zero,zero
    80b0:	00000021 	move	zero,zero
    80b4:	00000021 	move	zero,zero
    80b8:	3c087aff 	lui	t0,0x7aff
    80bc:	35083880 	ori	t0,t0,0x3880
    80c0:	3c097aff 	lui	t1,0x7aff
    80c4:	35293880 	ori	t1,t1,0x3880
    80c8:	1509ffe7 	bne	t0,t1,8068 <n30_bne_test+0x8068>
    80cc:	00000000 	nop
    80d0:	1000000c 	b	8104 <n30_bne_test+0x8104>
    80d4:	00000000 	nop
    80d8:	00000000 	nop
    80dc:	00000021 	move	zero,zero
    80e0:	00000021 	move	zero,zero
    80e4:	00000021 	move	zero,zero
    80e8:	00000021 	move	zero,zero
    80ec:	00000021 	move	zero,zero
    80f0:	00000021 	move	zero,zero
    80f4:	00000021 	move	zero,zero
    80f8:	00000021 	move	zero,zero
    80fc:	3c127dfe 	lui	s2,0x7dfe
    8100:	36522100 	ori	s2,s2,0x2100
    8104:	00000000 	nop
    8108:	24140000 	li	s4,0
    810c:	161422c1 	bne	s0,s4,10c14 <inst_error>
    8110:	00000000 	nop
    8114:	00000000 	nop
    8118:	24150000 	li	s5,0
    811c:	165522bd 	bne	s2,s5,10c14 <inst_error>
    8120:	00000000 	nop
    8124:	00000000 	nop
    8128:	3c0c7942 	lui	t4,0x7942
    812c:	358c8800 	ori	t4,t4,0x8800
    8130:	3c0d95ac 	lui	t5,0x95ac
    8134:	35ad9da4 	ori	t5,t5,0x9da4
    8138:	24100000 	li	s0,0
    813c:	10000016 	b	8198 <n30_bne_test+0x8198>
    8140:	24120000 	li	s2,0
    8144:	00000000 	nop
    8148:	3c107942 	lui	s0,0x7942
    814c:	15280023 	bne	t1,t0,81dc <n30_bne_test+0x81dc>
    8150:	36108800 	ori	s0,s0,0x8800
    8154:	10000023 	b	81e4 <n30_bne_test+0x81e4>
    8158:	00000000 	nop
    815c:	00000000 	nop
    8160:	00000021 	move	zero,zero
    8164:	00000021 	move	zero,zero
    8168:	00000021 	move	zero,zero
    816c:	00000021 	move	zero,zero
    8170:	00000021 	move	zero,zero
    8174:	00000021 	move	zero,zero
    8178:	00000021 	move	zero,zero
    817c:	00000021 	move	zero,zero
    8180:	00000021 	move	zero,zero
    8184:	00000021 	move	zero,zero
    8188:	00000021 	move	zero,zero
    818c:	00000021 	move	zero,zero
    8190:	00000021 	move	zero,zero
    8194:	00000021 	move	zero,zero
    8198:	3c081cca 	lui	t0,0x1cca
    819c:	3508de40 	ori	t0,t0,0xde40
    81a0:	3c091cca 	lui	t1,0x1cca
    81a4:	3529de40 	ori	t1,t1,0xde40
    81a8:	1509ffe7 	bne	t0,t1,8148 <n30_bne_test+0x8148>
    81ac:	00000000 	nop
    81b0:	1000000c 	b	81e4 <n30_bne_test+0x81e4>
    81b4:	00000000 	nop
    81b8:	00000000 	nop
    81bc:	00000021 	move	zero,zero
    81c0:	00000021 	move	zero,zero
    81c4:	00000021 	move	zero,zero
    81c8:	00000021 	move	zero,zero
    81cc:	00000021 	move	zero,zero
    81d0:	00000021 	move	zero,zero
    81d4:	00000021 	move	zero,zero
    81d8:	00000021 	move	zero,zero
    81dc:	3c1295ac 	lui	s2,0x95ac
    81e0:	36529da4 	ori	s2,s2,0x9da4
    81e4:	00000000 	nop
    81e8:	24140000 	li	s4,0
    81ec:	16142289 	bne	s0,s4,10c14 <inst_error>
    81f0:	00000000 	nop
    81f4:	00000000 	nop
    81f8:	24150000 	li	s5,0
    81fc:	16552285 	bne	s2,s5,10c14 <inst_error>
    8200:	00000000 	nop
    8204:	00000000 	nop
    8208:	3c0c2acf 	lui	t4,0x2acf
    820c:	358c8dc0 	ori	t4,t4,0x8dc0
    8210:	3c0da2dd 	lui	t5,0xa2dd
    8214:	35ad393b 	ori	t5,t5,0x393b
    8218:	24100000 	li	s0,0
    821c:	10000016 	b	8278 <n30_bne_test+0x8278>
    8220:	24120000 	li	s2,0
    8224:	00000000 	nop
    8228:	3c102acf 	lui	s0,0x2acf
    822c:	15280023 	bne	t1,t0,82bc <n30_bne_test+0x82bc>
    8230:	36108dc0 	ori	s0,s0,0x8dc0
    8234:	10000023 	b	82c4 <n30_bne_test+0x82c4>
    8238:	00000000 	nop
    823c:	00000000 	nop
    8240:	00000021 	move	zero,zero
    8244:	00000021 	move	zero,zero
    8248:	00000021 	move	zero,zero
    824c:	00000021 	move	zero,zero
    8250:	00000021 	move	zero,zero
    8254:	00000021 	move	zero,zero
    8258:	00000021 	move	zero,zero
    825c:	00000021 	move	zero,zero
    8260:	00000021 	move	zero,zero
    8264:	00000021 	move	zero,zero
    8268:	00000021 	move	zero,zero
    826c:	00000021 	move	zero,zero
    8270:	00000021 	move	zero,zero
    8274:	00000021 	move	zero,zero
    8278:	3c081ae1 	lui	t0,0x1ae1
    827c:	35089e48 	ori	t0,t0,0x9e48
    8280:	3c091ae1 	lui	t1,0x1ae1
    8284:	35299e48 	ori	t1,t1,0x9e48
    8288:	1509ffe7 	bne	t0,t1,8228 <n30_bne_test+0x8228>
    828c:	00000000 	nop
    8290:	1000000c 	b	82c4 <n30_bne_test+0x82c4>
    8294:	00000000 	nop
    8298:	00000000 	nop
    829c:	00000021 	move	zero,zero
    82a0:	00000021 	move	zero,zero
    82a4:	00000021 	move	zero,zero
    82a8:	00000021 	move	zero,zero
    82ac:	00000021 	move	zero,zero
    82b0:	00000021 	move	zero,zero
    82b4:	00000021 	move	zero,zero
    82b8:	00000021 	move	zero,zero
    82bc:	3c12a2dd 	lui	s2,0xa2dd
    82c0:	3652393b 	ori	s2,s2,0x393b
    82c4:	00000000 	nop
    82c8:	24140000 	li	s4,0
    82cc:	16142251 	bne	s0,s4,10c14 <inst_error>
    82d0:	00000000 	nop
    82d4:	00000000 	nop
    82d8:	24150000 	li	s5,0
    82dc:	1655224d 	bne	s2,s5,10c14 <inst_error>
    82e0:	00000000 	nop
    82e4:	00000000 	nop
    82e8:	3c0cd0f5 	lui	t4,0xd0f5
    82ec:	358cf880 	ori	t4,t4,0xf880
    82f0:	3c0dd28d 	lui	t5,0xd28d
    82f4:	35ad2030 	ori	t5,t5,0x2030
    82f8:	24100000 	li	s0,0
    82fc:	10000016 	b	8358 <n30_bne_test+0x8358>
    8300:	24120000 	li	s2,0
    8304:	00000000 	nop
    8308:	3c10d0f5 	lui	s0,0xd0f5
    830c:	15280023 	bne	t1,t0,839c <n30_bne_test+0x839c>
    8310:	3610f880 	ori	s0,s0,0xf880
    8314:	10000023 	b	83a4 <n30_bne_test+0x83a4>
    8318:	00000000 	nop
    831c:	00000000 	nop
    8320:	00000021 	move	zero,zero
    8324:	00000021 	move	zero,zero
    8328:	00000021 	move	zero,zero
    832c:	00000021 	move	zero,zero
    8330:	00000021 	move	zero,zero
    8334:	00000021 	move	zero,zero
    8338:	00000021 	move	zero,zero
    833c:	00000021 	move	zero,zero
    8340:	00000021 	move	zero,zero
    8344:	00000021 	move	zero,zero
    8348:	00000021 	move	zero,zero
    834c:	00000021 	move	zero,zero
    8350:	00000021 	move	zero,zero
    8354:	00000021 	move	zero,zero
    8358:	3c08b011 	lui	t0,0xb011
    835c:	3508c65a 	ori	t0,t0,0xc65a
    8360:	3c09b011 	lui	t1,0xb011
    8364:	3529c65a 	ori	t1,t1,0xc65a
    8368:	1509ffe7 	bne	t0,t1,8308 <n30_bne_test+0x8308>
    836c:	00000000 	nop
    8370:	1000000c 	b	83a4 <n30_bne_test+0x83a4>
    8374:	00000000 	nop
    8378:	00000000 	nop
    837c:	00000021 	move	zero,zero
    8380:	00000021 	move	zero,zero
    8384:	00000021 	move	zero,zero
    8388:	00000021 	move	zero,zero
    838c:	00000021 	move	zero,zero
    8390:	00000021 	move	zero,zero
    8394:	00000021 	move	zero,zero
    8398:	00000021 	move	zero,zero
    839c:	3c12d28d 	lui	s2,0xd28d
    83a0:	36522030 	ori	s2,s2,0x2030
    83a4:	00000000 	nop
    83a8:	24140000 	li	s4,0
    83ac:	16142219 	bne	s0,s4,10c14 <inst_error>
    83b0:	00000000 	nop
    83b4:	00000000 	nop
    83b8:	24150000 	li	s5,0
    83bc:	16552215 	bne	s2,s5,10c14 <inst_error>
    83c0:	00000000 	nop
    83c4:	00000000 	nop
    83c8:	3c0c2908 	lui	t4,0x2908
    83cc:	358c16b0 	ori	t4,t4,0x16b0
    83d0:	3c0d0f95 	lui	t5,0xf95
    83d4:	35ad8490 	ori	t5,t5,0x8490
    83d8:	24100000 	li	s0,0
    83dc:	10000016 	b	8438 <n30_bne_test+0x8438>
    83e0:	24120000 	li	s2,0
    83e4:	00000000 	nop
    83e8:	3c102908 	lui	s0,0x2908
    83ec:	15280023 	bne	t1,t0,847c <n30_bne_test+0x847c>
    83f0:	361016b0 	ori	s0,s0,0x16b0
    83f4:	10000023 	b	8484 <n30_bne_test+0x8484>
    83f8:	00000000 	nop
    83fc:	00000000 	nop
    8400:	00000021 	move	zero,zero
    8404:	00000021 	move	zero,zero
    8408:	00000021 	move	zero,zero
    840c:	00000021 	move	zero,zero
    8410:	00000021 	move	zero,zero
    8414:	00000021 	move	zero,zero
    8418:	00000021 	move	zero,zero
    841c:	00000021 	move	zero,zero
    8420:	00000021 	move	zero,zero
    8424:	00000021 	move	zero,zero
    8428:	00000021 	move	zero,zero
    842c:	00000021 	move	zero,zero
    8430:	00000021 	move	zero,zero
    8434:	00000021 	move	zero,zero
    8438:	3c089d82 	lui	t0,0x9d82
    843c:	35081b80 	ori	t0,t0,0x1b80
    8440:	3c099d82 	lui	t1,0x9d82
    8444:	35291b80 	ori	t1,t1,0x1b80
    8448:	1509ffe7 	bne	t0,t1,83e8 <n30_bne_test+0x83e8>
    844c:	00000000 	nop
    8450:	1000000c 	b	8484 <n30_bne_test+0x8484>
    8454:	00000000 	nop
    8458:	00000000 	nop
    845c:	00000021 	move	zero,zero
    8460:	00000021 	move	zero,zero
    8464:	00000021 	move	zero,zero
    8468:	00000021 	move	zero,zero
    846c:	00000021 	move	zero,zero
    8470:	00000021 	move	zero,zero
    8474:	00000021 	move	zero,zero
    8478:	00000021 	move	zero,zero
    847c:	3c120f95 	lui	s2,0xf95
    8480:	36528490 	ori	s2,s2,0x8490
    8484:	00000000 	nop
    8488:	24140000 	li	s4,0
    848c:	161421e1 	bne	s0,s4,10c14 <inst_error>
    8490:	00000000 	nop
    8494:	00000000 	nop
    8498:	24150000 	li	s5,0
    849c:	165521dd 	bne	s2,s5,10c14 <inst_error>
    84a0:	00000000 	nop
    84a4:	00000000 	nop
    84a8:	3c0c48d4 	lui	t4,0x48d4
    84ac:	358c4a40 	ori	t4,t4,0x4a40
    84b0:	3c0d47bc 	lui	t5,0x47bc
    84b4:	35ad856c 	ori	t5,t5,0x856c
    84b8:	24100000 	li	s0,0
    84bc:	10000016 	b	8518 <n30_bne_test+0x8518>
    84c0:	24120000 	li	s2,0
    84c4:	00000000 	nop
    84c8:	3c1048d4 	lui	s0,0x48d4
    84cc:	15280023 	bne	t1,t0,855c <n30_bne_test+0x855c>
    84d0:	36104a40 	ori	s0,s0,0x4a40
    84d4:	10000023 	b	8564 <n30_bne_test+0x8564>
    84d8:	00000000 	nop
    84dc:	00000000 	nop
    84e0:	00000021 	move	zero,zero
    84e4:	00000021 	move	zero,zero
    84e8:	00000021 	move	zero,zero
    84ec:	00000021 	move	zero,zero
    84f0:	00000021 	move	zero,zero
    84f4:	00000021 	move	zero,zero
    84f8:	00000021 	move	zero,zero
    84fc:	00000021 	move	zero,zero
    8500:	00000021 	move	zero,zero
    8504:	00000021 	move	zero,zero
    8508:	00000021 	move	zero,zero
    850c:	00000021 	move	zero,zero
    8510:	00000021 	move	zero,zero
    8514:	00000021 	move	zero,zero
    8518:	3c0856a2 	lui	t0,0x56a2
    851c:	3508a476 	ori	t0,t0,0xa476
    8520:	3c0956a2 	lui	t1,0x56a2
    8524:	3529a476 	ori	t1,t1,0xa476
    8528:	1509ffe7 	bne	t0,t1,84c8 <n30_bne_test+0x84c8>
    852c:	00000000 	nop
    8530:	1000000c 	b	8564 <n30_bne_test+0x8564>
    8534:	00000000 	nop
    8538:	00000000 	nop
    853c:	00000021 	move	zero,zero
    8540:	00000021 	move	zero,zero
    8544:	00000021 	move	zero,zero
    8548:	00000021 	move	zero,zero
    854c:	00000021 	move	zero,zero
    8550:	00000021 	move	zero,zero
    8554:	00000021 	move	zero,zero
    8558:	00000021 	move	zero,zero
    855c:	3c1247bc 	lui	s2,0x47bc
    8560:	3652856c 	ori	s2,s2,0x856c
    8564:	00000000 	nop
    8568:	24140000 	li	s4,0
    856c:	161421a9 	bne	s0,s4,10c14 <inst_error>
    8570:	00000000 	nop
    8574:	00000000 	nop
    8578:	24150000 	li	s5,0
    857c:	165521a5 	bne	s2,s5,10c14 <inst_error>
    8580:	00000000 	nop
    8584:	00000000 	nop
    8588:	3c0c3a3b 	lui	t4,0x3a3b
    858c:	358c4ca0 	ori	t4,t4,0x4ca0
    8590:	3c0d078c 	lui	t5,0x78c
    8594:	35ad4c63 	ori	t5,t5,0x4c63
    8598:	24100000 	li	s0,0
    859c:	10000016 	b	85f8 <n30_bne_test+0x85f8>
    85a0:	24120000 	li	s2,0
    85a4:	00000000 	nop
    85a8:	3c103a3b 	lui	s0,0x3a3b
    85ac:	15280023 	bne	t1,t0,863c <n30_bne_test+0x863c>
    85b0:	36104ca0 	ori	s0,s0,0x4ca0
    85b4:	10000023 	b	8644 <n30_bne_test+0x8644>
    85b8:	00000000 	nop
    85bc:	00000000 	nop
    85c0:	00000021 	move	zero,zero
    85c4:	00000021 	move	zero,zero
    85c8:	00000021 	move	zero,zero
    85cc:	00000021 	move	zero,zero
    85d0:	00000021 	move	zero,zero
    85d4:	00000021 	move	zero,zero
    85d8:	00000021 	move	zero,zero
    85dc:	00000021 	move	zero,zero
    85e0:	00000021 	move	zero,zero
    85e4:	00000021 	move	zero,zero
    85e8:	00000021 	move	zero,zero
    85ec:	00000021 	move	zero,zero
    85f0:	00000021 	move	zero,zero
    85f4:	00000021 	move	zero,zero
    85f8:	3c0860d4 	lui	t0,0x60d4
    85fc:	3508c3f8 	ori	t0,t0,0xc3f8
    8600:	3c0960d4 	lui	t1,0x60d4
    8604:	3529c3f8 	ori	t1,t1,0xc3f8
    8608:	1509ffe7 	bne	t0,t1,85a8 <n30_bne_test+0x85a8>
    860c:	00000000 	nop
    8610:	1000000c 	b	8644 <n30_bne_test+0x8644>
    8614:	00000000 	nop
    8618:	00000000 	nop
    861c:	00000021 	move	zero,zero
    8620:	00000021 	move	zero,zero
    8624:	00000021 	move	zero,zero
    8628:	00000021 	move	zero,zero
    862c:	00000021 	move	zero,zero
    8630:	00000021 	move	zero,zero
    8634:	00000021 	move	zero,zero
    8638:	00000021 	move	zero,zero
    863c:	3c12078c 	lui	s2,0x78c
    8640:	36524c63 	ori	s2,s2,0x4c63
    8644:	00000000 	nop
    8648:	24140000 	li	s4,0
    864c:	16142171 	bne	s0,s4,10c14 <inst_error>
    8650:	00000000 	nop
    8654:	00000000 	nop
    8658:	24150000 	li	s5,0
    865c:	1655216d 	bne	s2,s5,10c14 <inst_error>
    8660:	00000000 	nop
    8664:	00000000 	nop
    8668:	3c0ce7f1 	lui	t4,0xe7f1
    866c:	358c6407 	ori	t4,t4,0x6407
    8670:	3c0d9394 	lui	t5,0x9394
    8674:	35ad1160 	ori	t5,t5,0x1160
    8678:	24100000 	li	s0,0
    867c:	10000016 	b	86d8 <n30_bne_test+0x86d8>
    8680:	24120000 	li	s2,0
    8684:	00000000 	nop
    8688:	3c10e7f1 	lui	s0,0xe7f1
    868c:	15280023 	bne	t1,t0,871c <n30_bne_test+0x871c>
    8690:	36106407 	ori	s0,s0,0x6407
    8694:	10000023 	b	8724 <n30_bne_test+0x8724>
    8698:	00000000 	nop
    869c:	00000000 	nop
    86a0:	00000021 	move	zero,zero
    86a4:	00000021 	move	zero,zero
    86a8:	00000021 	move	zero,zero
    86ac:	00000021 	move	zero,zero
    86b0:	00000021 	move	zero,zero
    86b4:	00000021 	move	zero,zero
    86b8:	00000021 	move	zero,zero
    86bc:	00000021 	move	zero,zero
    86c0:	00000021 	move	zero,zero
    86c4:	00000021 	move	zero,zero
    86c8:	00000021 	move	zero,zero
    86cc:	00000021 	move	zero,zero
    86d0:	00000021 	move	zero,zero
    86d4:	00000021 	move	zero,zero
    86d8:	3c08cea5 	lui	t0,0xcea5
    86dc:	35087950 	ori	t0,t0,0x7950
    86e0:	3c09cea5 	lui	t1,0xcea5
    86e4:	35297950 	ori	t1,t1,0x7950
    86e8:	1509ffe7 	bne	t0,t1,8688 <n30_bne_test+0x8688>
    86ec:	00000000 	nop
    86f0:	1000000c 	b	8724 <n30_bne_test+0x8724>
    86f4:	00000000 	nop
    86f8:	00000000 	nop
    86fc:	00000021 	move	zero,zero
    8700:	00000021 	move	zero,zero
    8704:	00000021 	move	zero,zero
    8708:	00000021 	move	zero,zero
    870c:	00000021 	move	zero,zero
    8710:	00000021 	move	zero,zero
    8714:	00000021 	move	zero,zero
    8718:	00000021 	move	zero,zero
    871c:	3c129394 	lui	s2,0x9394
    8720:	36521160 	ori	s2,s2,0x1160
    8724:	00000000 	nop
    8728:	24140000 	li	s4,0
    872c:	16142139 	bne	s0,s4,10c14 <inst_error>
    8730:	00000000 	nop
    8734:	00000000 	nop
    8738:	24150000 	li	s5,0
    873c:	16552135 	bne	s2,s5,10c14 <inst_error>
    8740:	00000000 	nop
    8744:	00000000 	nop
    8748:	3c0cfb77 	lui	t4,0xfb77
    874c:	358c1004 	ori	t4,t4,0x1004
    8750:	3c0d5141 	lui	t5,0x5141
    8754:	35ad5156 	ori	t5,t5,0x5156
    8758:	24100000 	li	s0,0
    875c:	10000016 	b	87b8 <n30_bne_test+0x87b8>
    8760:	24120000 	li	s2,0
    8764:	00000000 	nop
    8768:	3c10fb77 	lui	s0,0xfb77
    876c:	15280023 	bne	t1,t0,87fc <n30_bne_test+0x87fc>
    8770:	36101004 	ori	s0,s0,0x1004
    8774:	10000023 	b	8804 <n30_bne_test+0x8804>
    8778:	00000000 	nop
    877c:	00000000 	nop
    8780:	00000021 	move	zero,zero
    8784:	00000021 	move	zero,zero
    8788:	00000021 	move	zero,zero
    878c:	00000021 	move	zero,zero
    8790:	00000021 	move	zero,zero
    8794:	00000021 	move	zero,zero
    8798:	00000021 	move	zero,zero
    879c:	00000021 	move	zero,zero
    87a0:	00000021 	move	zero,zero
    87a4:	00000021 	move	zero,zero
    87a8:	00000021 	move	zero,zero
    87ac:	00000021 	move	zero,zero
    87b0:	00000021 	move	zero,zero
    87b4:	00000021 	move	zero,zero
    87b8:	3c084bea 	lui	t0,0x4bea
    87bc:	35087c0c 	ori	t0,t0,0x7c0c
    87c0:	3c094bea 	lui	t1,0x4bea
    87c4:	35297c0c 	ori	t1,t1,0x7c0c
    87c8:	1509ffe7 	bne	t0,t1,8768 <n30_bne_test+0x8768>
    87cc:	00000000 	nop
    87d0:	1000000c 	b	8804 <n30_bne_test+0x8804>
    87d4:	00000000 	nop
    87d8:	00000000 	nop
    87dc:	00000021 	move	zero,zero
    87e0:	00000021 	move	zero,zero
    87e4:	00000021 	move	zero,zero
    87e8:	00000021 	move	zero,zero
    87ec:	00000021 	move	zero,zero
    87f0:	00000021 	move	zero,zero
    87f4:	00000021 	move	zero,zero
    87f8:	00000021 	move	zero,zero
    87fc:	3c125141 	lui	s2,0x5141
    8800:	36525156 	ori	s2,s2,0x5156
    8804:	00000000 	nop
    8808:	24140000 	li	s4,0
    880c:	16142101 	bne	s0,s4,10c14 <inst_error>
    8810:	00000000 	nop
    8814:	00000000 	nop
    8818:	24150000 	li	s5,0
    881c:	165520fd 	bne	s2,s5,10c14 <inst_error>
    8820:	00000000 	nop
    8824:	00000000 	nop
    8828:	3c0cd27c 	lui	t4,0xd27c
    882c:	358c1000 	ori	t4,t4,0x1000
    8830:	3c0deb29 	lui	t5,0xeb29
    8834:	35ad72e0 	ori	t5,t5,0x72e0
    8838:	24100000 	li	s0,0
    883c:	10000016 	b	8898 <n30_bne_test+0x8898>
    8840:	24120000 	li	s2,0
    8844:	00000000 	nop
    8848:	3c10d27c 	lui	s0,0xd27c
    884c:	15280023 	bne	t1,t0,88dc <n30_bne_test+0x88dc>
    8850:	36101000 	ori	s0,s0,0x1000
    8854:	10000023 	b	88e4 <n30_bne_test+0x88e4>
    8858:	00000000 	nop
    885c:	00000000 	nop
    8860:	00000021 	move	zero,zero
    8864:	00000021 	move	zero,zero
    8868:	00000021 	move	zero,zero
    886c:	00000021 	move	zero,zero
    8870:	00000021 	move	zero,zero
    8874:	00000021 	move	zero,zero
    8878:	00000021 	move	zero,zero
    887c:	00000021 	move	zero,zero
    8880:	00000021 	move	zero,zero
    8884:	00000021 	move	zero,zero
    8888:	00000021 	move	zero,zero
    888c:	00000021 	move	zero,zero
    8890:	00000021 	move	zero,zero
    8894:	00000021 	move	zero,zero
    8898:	3c088d01 	lui	t0,0x8d01
    889c:	35086c01 	ori	t0,t0,0x6c01
    88a0:	3c098d01 	lui	t1,0x8d01
    88a4:	35296c01 	ori	t1,t1,0x6c01
    88a8:	1509ffe7 	bne	t0,t1,8848 <n30_bne_test+0x8848>
    88ac:	00000000 	nop
    88b0:	1000000c 	b	88e4 <n30_bne_test+0x88e4>
    88b4:	00000000 	nop
    88b8:	00000000 	nop
    88bc:	00000021 	move	zero,zero
    88c0:	00000021 	move	zero,zero
    88c4:	00000021 	move	zero,zero
    88c8:	00000021 	move	zero,zero
    88cc:	00000021 	move	zero,zero
    88d0:	00000021 	move	zero,zero
    88d4:	00000021 	move	zero,zero
    88d8:	00000021 	move	zero,zero
    88dc:	3c12eb29 	lui	s2,0xeb29
    88e0:	365272e0 	ori	s2,s2,0x72e0
    88e4:	00000000 	nop
    88e8:	24140000 	li	s4,0
    88ec:	161420c9 	bne	s0,s4,10c14 <inst_error>
    88f0:	00000000 	nop
    88f4:	00000000 	nop
    88f8:	24150000 	li	s5,0
    88fc:	165520c5 	bne	s2,s5,10c14 <inst_error>
    8900:	00000000 	nop
    8904:	00000000 	nop
    8908:	3c0c892b 	lui	t4,0x892b
    890c:	358c7a57 	ori	t4,t4,0x7a57
    8910:	3c0d7a38 	lui	t5,0x7a38
    8914:	35adc5a0 	ori	t5,t5,0xc5a0
    8918:	24100000 	li	s0,0
    891c:	10000016 	b	8978 <n30_bne_test+0x8978>
    8920:	24120000 	li	s2,0
    8924:	00000000 	nop
    8928:	3c10892b 	lui	s0,0x892b
    892c:	15280023 	bne	t1,t0,89bc <n30_bne_test+0x89bc>
    8930:	36107a57 	ori	s0,s0,0x7a57
    8934:	10000023 	b	89c4 <n30_bne_test+0x89c4>
    8938:	00000000 	nop
    893c:	00000000 	nop
    8940:	00000021 	move	zero,zero
    8944:	00000021 	move	zero,zero
    8948:	00000021 	move	zero,zero
    894c:	00000021 	move	zero,zero
    8950:	00000021 	move	zero,zero
    8954:	00000021 	move	zero,zero
    8958:	00000021 	move	zero,zero
    895c:	00000021 	move	zero,zero
    8960:	00000021 	move	zero,zero
    8964:	00000021 	move	zero,zero
    8968:	00000021 	move	zero,zero
    896c:	00000021 	move	zero,zero
    8970:	00000021 	move	zero,zero
    8974:	00000021 	move	zero,zero
    8978:	3c0861b9 	lui	t0,0x61b9
    897c:	350870a6 	ori	t0,t0,0x70a6
    8980:	3c0961b9 	lui	t1,0x61b9
    8984:	352970a6 	ori	t1,t1,0x70a6
    8988:	1509ffe7 	bne	t0,t1,8928 <n30_bne_test+0x8928>
    898c:	00000000 	nop
    8990:	1000000c 	b	89c4 <n30_bne_test+0x89c4>
    8994:	00000000 	nop
    8998:	00000000 	nop
    899c:	00000021 	move	zero,zero
    89a0:	00000021 	move	zero,zero
    89a4:	00000021 	move	zero,zero
    89a8:	00000021 	move	zero,zero
    89ac:	00000021 	move	zero,zero
    89b0:	00000021 	move	zero,zero
    89b4:	00000021 	move	zero,zero
    89b8:	00000021 	move	zero,zero
    89bc:	3c127a38 	lui	s2,0x7a38
    89c0:	3652c5a0 	ori	s2,s2,0xc5a0
    89c4:	00000000 	nop
    89c8:	24140000 	li	s4,0
    89cc:	16142091 	bne	s0,s4,10c14 <inst_error>
    89d0:	00000000 	nop
    89d4:	00000000 	nop
    89d8:	24150000 	li	s5,0
    89dc:	1655208d 	bne	s2,s5,10c14 <inst_error>
    89e0:	00000000 	nop
    89e4:	00000000 	nop
    89e8:	3c0c2f76 	lui	t4,0x2f76
    89ec:	358c9205 	ori	t4,t4,0x9205
    89f0:	3c0dbc57 	lui	t5,0xbc57
    89f4:	35adb538 	ori	t5,t5,0xb538
    89f8:	24100000 	li	s0,0
    89fc:	10000016 	b	8a58 <n30_bne_test+0x8a58>
    8a00:	24120000 	li	s2,0
    8a04:	00000000 	nop
    8a08:	3c102f76 	lui	s0,0x2f76
    8a0c:	15280023 	bne	t1,t0,8a9c <n30_bne_test+0x8a9c>
    8a10:	36109205 	ori	s0,s0,0x9205
    8a14:	10000023 	b	8aa4 <n30_bne_test+0x8aa4>
    8a18:	00000000 	nop
    8a1c:	00000000 	nop
    8a20:	00000021 	move	zero,zero
    8a24:	00000021 	move	zero,zero
    8a28:	00000021 	move	zero,zero
    8a2c:	00000021 	move	zero,zero
    8a30:	00000021 	move	zero,zero
    8a34:	00000021 	move	zero,zero
    8a38:	00000021 	move	zero,zero
    8a3c:	00000021 	move	zero,zero
    8a40:	00000021 	move	zero,zero
    8a44:	00000021 	move	zero,zero
    8a48:	00000021 	move	zero,zero
    8a4c:	00000021 	move	zero,zero
    8a50:	00000021 	move	zero,zero
    8a54:	00000021 	move	zero,zero
    8a58:	3c083519 	lui	t0,0x3519
    8a5c:	35083060 	ori	t0,t0,0x3060
    8a60:	3c093519 	lui	t1,0x3519
    8a64:	35293060 	ori	t1,t1,0x3060
    8a68:	1509ffe7 	bne	t0,t1,8a08 <n30_bne_test+0x8a08>
    8a6c:	00000000 	nop
    8a70:	1000000c 	b	8aa4 <n30_bne_test+0x8aa4>
    8a74:	00000000 	nop
    8a78:	00000000 	nop
    8a7c:	00000021 	move	zero,zero
    8a80:	00000021 	move	zero,zero
    8a84:	00000021 	move	zero,zero
    8a88:	00000021 	move	zero,zero
    8a8c:	00000021 	move	zero,zero
    8a90:	00000021 	move	zero,zero
    8a94:	00000021 	move	zero,zero
    8a98:	00000021 	move	zero,zero
    8a9c:	3c12bc57 	lui	s2,0xbc57
    8aa0:	3652b538 	ori	s2,s2,0xb538
    8aa4:	00000000 	nop
    8aa8:	24140000 	li	s4,0
    8aac:	16142059 	bne	s0,s4,10c14 <inst_error>
    8ab0:	00000000 	nop
    8ab4:	00000000 	nop
    8ab8:	24150000 	li	s5,0
    8abc:	16552055 	bne	s2,s5,10c14 <inst_error>
    8ac0:	00000000 	nop
    8ac4:	00000000 	nop
    8ac8:	3c0cc1fe 	lui	t4,0xc1fe
    8acc:	358cd10a 	ori	t4,t4,0xd10a
    8ad0:	3c0da6df 	lui	t5,0xa6df
    8ad4:	35ad7480 	ori	t5,t5,0x7480
    8ad8:	24100000 	li	s0,0
    8adc:	10000016 	b	8b38 <n30_bne_test+0x8b38>
    8ae0:	24120000 	li	s2,0
    8ae4:	00000000 	nop
    8ae8:	3c10c1fe 	lui	s0,0xc1fe
    8aec:	15280023 	bne	t1,t0,8b7c <n30_bne_test+0x8b7c>
    8af0:	3610d10a 	ori	s0,s0,0xd10a
    8af4:	10000023 	b	8b84 <n30_bne_test+0x8b84>
    8af8:	00000000 	nop
    8afc:	00000000 	nop
    8b00:	00000021 	move	zero,zero
    8b04:	00000021 	move	zero,zero
    8b08:	00000021 	move	zero,zero
    8b0c:	00000021 	move	zero,zero
    8b10:	00000021 	move	zero,zero
    8b14:	00000021 	move	zero,zero
    8b18:	00000021 	move	zero,zero
    8b1c:	00000021 	move	zero,zero
    8b20:	00000021 	move	zero,zero
    8b24:	00000021 	move	zero,zero
    8b28:	00000021 	move	zero,zero
    8b2c:	00000021 	move	zero,zero
    8b30:	00000021 	move	zero,zero
    8b34:	00000021 	move	zero,zero
    8b38:	3c084f47 	lui	t0,0x4f47
    8b3c:	350842b2 	ori	t0,t0,0x42b2
    8b40:	3c094f47 	lui	t1,0x4f47
    8b44:	352942b2 	ori	t1,t1,0x42b2
    8b48:	1509ffe7 	bne	t0,t1,8ae8 <n30_bne_test+0x8ae8>
    8b4c:	00000000 	nop
    8b50:	1000000c 	b	8b84 <n30_bne_test+0x8b84>
    8b54:	00000000 	nop
    8b58:	00000000 	nop
    8b5c:	00000021 	move	zero,zero
    8b60:	00000021 	move	zero,zero
    8b64:	00000021 	move	zero,zero
    8b68:	00000021 	move	zero,zero
    8b6c:	00000021 	move	zero,zero
    8b70:	00000021 	move	zero,zero
    8b74:	00000021 	move	zero,zero
    8b78:	00000021 	move	zero,zero
    8b7c:	3c12a6df 	lui	s2,0xa6df
    8b80:	36527480 	ori	s2,s2,0x7480
    8b84:	00000000 	nop
    8b88:	24140000 	li	s4,0
    8b8c:	16142021 	bne	s0,s4,10c14 <inst_error>
    8b90:	00000000 	nop
    8b94:	00000000 	nop
    8b98:	24150000 	li	s5,0
    8b9c:	1655201d 	bne	s2,s5,10c14 <inst_error>
    8ba0:	00000000 	nop
    8ba4:	00000000 	nop
    8ba8:	3c0ca349 	lui	t4,0xa349
    8bac:	358cc9d0 	ori	t4,t4,0xc9d0
    8bb0:	3c0dee92 	lui	t5,0xee92
    8bb4:	35adb690 	ori	t5,t5,0xb690
    8bb8:	24100000 	li	s0,0
    8bbc:	10000016 	b	8c18 <n30_bne_test+0x8c18>
    8bc0:	24120000 	li	s2,0
    8bc4:	00000000 	nop
    8bc8:	3c10a349 	lui	s0,0xa349
    8bcc:	15280023 	bne	t1,t0,8c5c <n30_bne_test+0x8c5c>
    8bd0:	3610c9d0 	ori	s0,s0,0xc9d0
    8bd4:	10000023 	b	8c64 <n30_bne_test+0x8c64>
    8bd8:	00000000 	nop
    8bdc:	00000000 	nop
    8be0:	00000021 	move	zero,zero
    8be4:	00000021 	move	zero,zero
    8be8:	00000021 	move	zero,zero
    8bec:	00000021 	move	zero,zero
    8bf0:	00000021 	move	zero,zero
    8bf4:	00000021 	move	zero,zero
    8bf8:	00000021 	move	zero,zero
    8bfc:	00000021 	move	zero,zero
    8c00:	00000021 	move	zero,zero
    8c04:	00000021 	move	zero,zero
    8c08:	00000021 	move	zero,zero
    8c0c:	00000021 	move	zero,zero
    8c10:	00000021 	move	zero,zero
    8c14:	00000021 	move	zero,zero
    8c18:	3c0834ff 	lui	t0,0x34ff
    8c1c:	35086015 	ori	t0,t0,0x6015
    8c20:	3c0934ff 	lui	t1,0x34ff
    8c24:	35296015 	ori	t1,t1,0x6015
    8c28:	1509ffe7 	bne	t0,t1,8bc8 <n30_bne_test+0x8bc8>
    8c2c:	00000000 	nop
    8c30:	1000000c 	b	8c64 <n30_bne_test+0x8c64>
    8c34:	00000000 	nop
    8c38:	00000000 	nop
    8c3c:	00000021 	move	zero,zero
    8c40:	00000021 	move	zero,zero
    8c44:	00000021 	move	zero,zero
    8c48:	00000021 	move	zero,zero
    8c4c:	00000021 	move	zero,zero
    8c50:	00000021 	move	zero,zero
    8c54:	00000021 	move	zero,zero
    8c58:	00000021 	move	zero,zero
    8c5c:	3c12ee92 	lui	s2,0xee92
    8c60:	3652b690 	ori	s2,s2,0xb690
    8c64:	00000000 	nop
    8c68:	24140000 	li	s4,0
    8c6c:	16141fe9 	bne	s0,s4,10c14 <inst_error>
    8c70:	00000000 	nop
    8c74:	00000000 	nop
    8c78:	24150000 	li	s5,0
    8c7c:	16551fe5 	bne	s2,s5,10c14 <inst_error>
    8c80:	00000000 	nop
    8c84:	00000000 	nop
    8c88:	3c0c2362 	lui	t4,0x2362
    8c8c:	358c6e88 	ori	t4,t4,0x6e88
    8c90:	3c0dbc5d 	lui	t5,0xbc5d
    8c94:	35ad8560 	ori	t5,t5,0x8560
    8c98:	24100000 	li	s0,0
    8c9c:	10000016 	b	8cf8 <n30_bne_test+0x8cf8>
    8ca0:	24120000 	li	s2,0
    8ca4:	00000000 	nop
    8ca8:	3c102362 	lui	s0,0x2362
    8cac:	15280023 	bne	t1,t0,8d3c <n30_bne_test+0x8d3c>
    8cb0:	36106e88 	ori	s0,s0,0x6e88
    8cb4:	10000023 	b	8d44 <n30_bne_test+0x8d44>
    8cb8:	00000000 	nop
    8cbc:	00000000 	nop
    8cc0:	00000021 	move	zero,zero
    8cc4:	00000021 	move	zero,zero
    8cc8:	00000021 	move	zero,zero
    8ccc:	00000021 	move	zero,zero
    8cd0:	00000021 	move	zero,zero
    8cd4:	00000021 	move	zero,zero
    8cd8:	00000021 	move	zero,zero
    8cdc:	00000021 	move	zero,zero
    8ce0:	00000021 	move	zero,zero
    8ce4:	00000021 	move	zero,zero
    8ce8:	00000021 	move	zero,zero
    8cec:	00000021 	move	zero,zero
    8cf0:	00000021 	move	zero,zero
    8cf4:	00000021 	move	zero,zero
    8cf8:	3c08e30d 	lui	t0,0xe30d
    8cfc:	3508c982 	ori	t0,t0,0xc982
    8d00:	3c09e30d 	lui	t1,0xe30d
    8d04:	3529c982 	ori	t1,t1,0xc982
    8d08:	1509ffe7 	bne	t0,t1,8ca8 <n30_bne_test+0x8ca8>
    8d0c:	00000000 	nop
    8d10:	1000000c 	b	8d44 <n30_bne_test+0x8d44>
    8d14:	00000000 	nop
    8d18:	00000000 	nop
    8d1c:	00000021 	move	zero,zero
    8d20:	00000021 	move	zero,zero
    8d24:	00000021 	move	zero,zero
    8d28:	00000021 	move	zero,zero
    8d2c:	00000021 	move	zero,zero
    8d30:	00000021 	move	zero,zero
    8d34:	00000021 	move	zero,zero
    8d38:	00000021 	move	zero,zero
    8d3c:	3c12bc5d 	lui	s2,0xbc5d
    8d40:	36528560 	ori	s2,s2,0x8560
    8d44:	00000000 	nop
    8d48:	24140000 	li	s4,0
    8d4c:	16141fb1 	bne	s0,s4,10c14 <inst_error>
    8d50:	00000000 	nop
    8d54:	00000000 	nop
    8d58:	24150000 	li	s5,0
    8d5c:	16551fad 	bne	s2,s5,10c14 <inst_error>
    8d60:	00000000 	nop
    8d64:	00000000 	nop
    8d68:	3c0c8c06 	lui	t4,0x8c06
    8d6c:	358ce6e0 	ori	t4,t4,0xe6e0
    8d70:	3c0d2b87 	lui	t5,0x2b87
    8d74:	35ad2fc0 	ori	t5,t5,0x2fc0
    8d78:	24100000 	li	s0,0
    8d7c:	10000016 	b	8dd8 <n30_bne_test+0x8dd8>
    8d80:	24120000 	li	s2,0
    8d84:	00000000 	nop
    8d88:	3c108c06 	lui	s0,0x8c06
    8d8c:	15280023 	bne	t1,t0,8e1c <n30_bne_test+0x8e1c>
    8d90:	3610e6e0 	ori	s0,s0,0xe6e0
    8d94:	10000023 	b	8e24 <n30_bne_test+0x8e24>
    8d98:	00000000 	nop
    8d9c:	00000000 	nop
    8da0:	00000021 	move	zero,zero
    8da4:	00000021 	move	zero,zero
    8da8:	00000021 	move	zero,zero
    8dac:	00000021 	move	zero,zero
    8db0:	00000021 	move	zero,zero
    8db4:	00000021 	move	zero,zero
    8db8:	00000021 	move	zero,zero
    8dbc:	00000021 	move	zero,zero
    8dc0:	00000021 	move	zero,zero
    8dc4:	00000021 	move	zero,zero
    8dc8:	00000021 	move	zero,zero
    8dcc:	00000021 	move	zero,zero
    8dd0:	00000021 	move	zero,zero
    8dd4:	00000021 	move	zero,zero
    8dd8:	3c0802c3 	lui	t0,0x2c3
    8ddc:	3508561e 	ori	t0,t0,0x561e
    8de0:	3c0902c3 	lui	t1,0x2c3
    8de4:	3529561e 	ori	t1,t1,0x561e
    8de8:	1509ffe7 	bne	t0,t1,8d88 <n30_bne_test+0x8d88>
    8dec:	00000000 	nop
    8df0:	1000000c 	b	8e24 <n30_bne_test+0x8e24>
    8df4:	00000000 	nop
    8df8:	00000000 	nop
    8dfc:	00000021 	move	zero,zero
    8e00:	00000021 	move	zero,zero
    8e04:	00000021 	move	zero,zero
    8e08:	00000021 	move	zero,zero
    8e0c:	00000021 	move	zero,zero
    8e10:	00000021 	move	zero,zero
    8e14:	00000021 	move	zero,zero
    8e18:	00000021 	move	zero,zero
    8e1c:	3c122b87 	lui	s2,0x2b87
    8e20:	36522fc0 	ori	s2,s2,0x2fc0
    8e24:	00000000 	nop
    8e28:	24140000 	li	s4,0
    8e2c:	16141f79 	bne	s0,s4,10c14 <inst_error>
    8e30:	00000000 	nop
    8e34:	00000000 	nop
    8e38:	24150000 	li	s5,0
    8e3c:	16551f75 	bne	s2,s5,10c14 <inst_error>
    8e40:	00000000 	nop
    8e44:	00000000 	nop
    8e48:	3c0cfecd 	lui	t4,0xfecd
    8e4c:	358caf9e 	ori	t4,t4,0xaf9e
    8e50:	3c0db8cf 	lui	t5,0xb8cf
    8e54:	35adfea3 	ori	t5,t5,0xfea3
    8e58:	24100000 	li	s0,0
    8e5c:	10000016 	b	8eb8 <n30_bne_test+0x8eb8>
    8e60:	24120000 	li	s2,0
    8e64:	00000000 	nop
    8e68:	3c10fecd 	lui	s0,0xfecd
    8e6c:	15280023 	bne	t1,t0,8efc <n30_bne_test+0x8efc>
    8e70:	3610af9e 	ori	s0,s0,0xaf9e
    8e74:	10000023 	b	8f04 <n30_bne_test+0x8f04>
    8e78:	00000000 	nop
    8e7c:	00000000 	nop
    8e80:	00000021 	move	zero,zero
    8e84:	00000021 	move	zero,zero
    8e88:	00000021 	move	zero,zero
    8e8c:	00000021 	move	zero,zero
    8e90:	00000021 	move	zero,zero
    8e94:	00000021 	move	zero,zero
    8e98:	00000021 	move	zero,zero
    8e9c:	00000021 	move	zero,zero
    8ea0:	00000021 	move	zero,zero
    8ea4:	00000021 	move	zero,zero
    8ea8:	00000021 	move	zero,zero
    8eac:	00000021 	move	zero,zero
    8eb0:	00000021 	move	zero,zero
    8eb4:	00000021 	move	zero,zero
    8eb8:	3c08ed55 	lui	t0,0xed55
    8ebc:	350810e4 	ori	t0,t0,0x10e4
    8ec0:	3c09ed55 	lui	t1,0xed55
    8ec4:	352910e4 	ori	t1,t1,0x10e4
    8ec8:	1509ffe7 	bne	t0,t1,8e68 <n30_bne_test+0x8e68>
    8ecc:	00000000 	nop
    8ed0:	1000000c 	b	8f04 <n30_bne_test+0x8f04>
    8ed4:	00000000 	nop
    8ed8:	00000000 	nop
    8edc:	00000021 	move	zero,zero
    8ee0:	00000021 	move	zero,zero
    8ee4:	00000021 	move	zero,zero
    8ee8:	00000021 	move	zero,zero
    8eec:	00000021 	move	zero,zero
    8ef0:	00000021 	move	zero,zero
    8ef4:	00000021 	move	zero,zero
    8ef8:	00000021 	move	zero,zero
    8efc:	3c12b8cf 	lui	s2,0xb8cf
    8f00:	3652fea3 	ori	s2,s2,0xfea3
    8f04:	00000000 	nop
    8f08:	24140000 	li	s4,0
    8f0c:	16141f41 	bne	s0,s4,10c14 <inst_error>
    8f10:	00000000 	nop
    8f14:	00000000 	nop
    8f18:	24150000 	li	s5,0
    8f1c:	16551f3d 	bne	s2,s5,10c14 <inst_error>
    8f20:	00000000 	nop
    8f24:	00000000 	nop
    8f28:	3c0c91ad 	lui	t4,0x91ad
    8f2c:	358c998b 	ori	t4,t4,0x998b
    8f30:	3c0d7325 	lui	t5,0x7325
    8f34:	35ad7eb8 	ori	t5,t5,0x7eb8
    8f38:	24100000 	li	s0,0
    8f3c:	10000016 	b	8f98 <n30_bne_test+0x8f98>
    8f40:	24120000 	li	s2,0
    8f44:	00000000 	nop
    8f48:	3c1091ad 	lui	s0,0x91ad
    8f4c:	15280023 	bne	t1,t0,8fdc <n30_bne_test+0x8fdc>
    8f50:	3610998b 	ori	s0,s0,0x998b
    8f54:	10000023 	b	8fe4 <n30_bne_test+0x8fe4>
    8f58:	00000000 	nop
    8f5c:	00000000 	nop
    8f60:	00000021 	move	zero,zero
    8f64:	00000021 	move	zero,zero
    8f68:	00000021 	move	zero,zero
    8f6c:	00000021 	move	zero,zero
    8f70:	00000021 	move	zero,zero
    8f74:	00000021 	move	zero,zero
    8f78:	00000021 	move	zero,zero
    8f7c:	00000021 	move	zero,zero
    8f80:	00000021 	move	zero,zero
    8f84:	00000021 	move	zero,zero
    8f88:	00000021 	move	zero,zero
    8f8c:	00000021 	move	zero,zero
    8f90:	00000021 	move	zero,zero
    8f94:	00000021 	move	zero,zero
    8f98:	3c0866b9 	lui	t0,0x66b9
    8f9c:	3508f9a3 	ori	t0,t0,0xf9a3
    8fa0:	3c0966b9 	lui	t1,0x66b9
    8fa4:	3529f9a3 	ori	t1,t1,0xf9a3
    8fa8:	1509ffe7 	bne	t0,t1,8f48 <n30_bne_test+0x8f48>
    8fac:	00000000 	nop
    8fb0:	1000000c 	b	8fe4 <n30_bne_test+0x8fe4>
    8fb4:	00000000 	nop
    8fb8:	00000000 	nop
    8fbc:	00000021 	move	zero,zero
    8fc0:	00000021 	move	zero,zero
    8fc4:	00000021 	move	zero,zero
    8fc8:	00000021 	move	zero,zero
    8fcc:	00000021 	move	zero,zero
    8fd0:	00000021 	move	zero,zero
    8fd4:	00000021 	move	zero,zero
    8fd8:	00000021 	move	zero,zero
    8fdc:	3c127325 	lui	s2,0x7325
    8fe0:	36527eb8 	ori	s2,s2,0x7eb8
    8fe4:	00000000 	nop
    8fe8:	24140000 	li	s4,0
    8fec:	16141f09 	bne	s0,s4,10c14 <inst_error>
    8ff0:	00000000 	nop
    8ff4:	00000000 	nop
    8ff8:	24150000 	li	s5,0
    8ffc:	16551f05 	bne	s2,s5,10c14 <inst_error>
    9000:	00000000 	nop
    9004:	00000000 	nop
    9008:	3c0c0cf1 	lui	t4,0xcf1
    900c:	358cb018 	ori	t4,t4,0xb018
    9010:	3c0d0cf0 	lui	t5,0xcf0
    9014:	35ad25a4 	ori	t5,t5,0x25a4
    9018:	24100000 	li	s0,0
    901c:	10000016 	b	9078 <n30_bne_test+0x9078>
    9020:	24120000 	li	s2,0
    9024:	00000000 	nop
    9028:	3c100cf1 	lui	s0,0xcf1
    902c:	15280023 	bne	t1,t0,90bc <n30_bne_test+0x90bc>
    9030:	3610b018 	ori	s0,s0,0xb018
    9034:	10000023 	b	90c4 <n30_bne_test+0x90c4>
    9038:	00000000 	nop
    903c:	00000000 	nop
    9040:	00000021 	move	zero,zero
    9044:	00000021 	move	zero,zero
    9048:	00000021 	move	zero,zero
    904c:	00000021 	move	zero,zero
    9050:	00000021 	move	zero,zero
    9054:	00000021 	move	zero,zero
    9058:	00000021 	move	zero,zero
    905c:	00000021 	move	zero,zero
    9060:	00000021 	move	zero,zero
    9064:	00000021 	move	zero,zero
    9068:	00000021 	move	zero,zero
    906c:	00000021 	move	zero,zero
    9070:	00000021 	move	zero,zero
    9074:	00000021 	move	zero,zero
    9078:	3c08228a 	lui	t0,0x228a
    907c:	35081f40 	ori	t0,t0,0x1f40
    9080:	3c09228a 	lui	t1,0x228a
    9084:	35291f40 	ori	t1,t1,0x1f40
    9088:	1509ffe7 	bne	t0,t1,9028 <n30_bne_test+0x9028>
    908c:	00000000 	nop
    9090:	1000000c 	b	90c4 <n30_bne_test+0x90c4>
    9094:	00000000 	nop
    9098:	00000000 	nop
    909c:	00000021 	move	zero,zero
    90a0:	00000021 	move	zero,zero
    90a4:	00000021 	move	zero,zero
    90a8:	00000021 	move	zero,zero
    90ac:	00000021 	move	zero,zero
    90b0:	00000021 	move	zero,zero
    90b4:	00000021 	move	zero,zero
    90b8:	00000021 	move	zero,zero
    90bc:	3c120cf0 	lui	s2,0xcf0
    90c0:	365225a4 	ori	s2,s2,0x25a4
    90c4:	00000000 	nop
    90c8:	24140000 	li	s4,0
    90cc:	16141ed1 	bne	s0,s4,10c14 <inst_error>
    90d0:	00000000 	nop
    90d4:	00000000 	nop
    90d8:	24150000 	li	s5,0
    90dc:	16551ecd 	bne	s2,s5,10c14 <inst_error>
    90e0:	00000000 	nop
    90e4:	00000000 	nop
    90e8:	3c0cfe38 	lui	t4,0xfe38
    90ec:	358cac95 	ori	t4,t4,0xac95
    90f0:	3c0d507d 	lui	t5,0x507d
    90f4:	35ad2ca0 	ori	t5,t5,0x2ca0
    90f8:	24100000 	li	s0,0
    90fc:	10000016 	b	9158 <n30_bne_test+0x9158>
    9100:	24120000 	li	s2,0
    9104:	00000000 	nop
    9108:	3c10fe38 	lui	s0,0xfe38
    910c:	15280023 	bne	t1,t0,919c <n30_bne_test+0x919c>
    9110:	3610ac95 	ori	s0,s0,0xac95
    9114:	10000023 	b	91a4 <n30_bne_test+0x91a4>
    9118:	00000000 	nop
    911c:	00000000 	nop
    9120:	00000021 	move	zero,zero
    9124:	00000021 	move	zero,zero
    9128:	00000021 	move	zero,zero
    912c:	00000021 	move	zero,zero
    9130:	00000021 	move	zero,zero
    9134:	00000021 	move	zero,zero
    9138:	00000021 	move	zero,zero
    913c:	00000021 	move	zero,zero
    9140:	00000021 	move	zero,zero
    9144:	00000021 	move	zero,zero
    9148:	00000021 	move	zero,zero
    914c:	00000021 	move	zero,zero
    9150:	00000021 	move	zero,zero
    9154:	00000021 	move	zero,zero
    9158:	3c08bc2c 	lui	t0,0xbc2c
    915c:	3508c696 	ori	t0,t0,0xc696
    9160:	3c09bc2c 	lui	t1,0xbc2c
    9164:	3529c696 	ori	t1,t1,0xc696
    9168:	1509ffe7 	bne	t0,t1,9108 <n30_bne_test+0x9108>
    916c:	00000000 	nop
    9170:	1000000c 	b	91a4 <n30_bne_test+0x91a4>
    9174:	00000000 	nop
    9178:	00000000 	nop
    917c:	00000021 	move	zero,zero
    9180:	00000021 	move	zero,zero
    9184:	00000021 	move	zero,zero
    9188:	00000021 	move	zero,zero
    918c:	00000021 	move	zero,zero
    9190:	00000021 	move	zero,zero
    9194:	00000021 	move	zero,zero
    9198:	00000021 	move	zero,zero
    919c:	3c12507d 	lui	s2,0x507d
    91a0:	36522ca0 	ori	s2,s2,0x2ca0
    91a4:	00000000 	nop
    91a8:	24140000 	li	s4,0
    91ac:	16141e99 	bne	s0,s4,10c14 <inst_error>
    91b0:	00000000 	nop
    91b4:	00000000 	nop
    91b8:	24150000 	li	s5,0
    91bc:	16551e95 	bne	s2,s5,10c14 <inst_error>
    91c0:	00000000 	nop
    91c4:	00000000 	nop
    91c8:	3c0c89bd 	lui	t4,0x89bd
    91cc:	358c1878 	ori	t4,t4,0x1878
    91d0:	3c0d039f 	lui	t5,0x39f
    91d4:	35add030 	ori	t5,t5,0xd030
    91d8:	24100000 	li	s0,0
    91dc:	10000016 	b	9238 <n30_bne_test+0x9238>
    91e0:	24120000 	li	s2,0
    91e4:	00000000 	nop
    91e8:	3c1089bd 	lui	s0,0x89bd
    91ec:	15280023 	bne	t1,t0,927c <n30_bne_test+0x927c>
    91f0:	36101878 	ori	s0,s0,0x1878
    91f4:	10000023 	b	9284 <n30_bne_test+0x9284>
    91f8:	00000000 	nop
    91fc:	00000000 	nop
    9200:	00000021 	move	zero,zero
    9204:	00000021 	move	zero,zero
    9208:	00000021 	move	zero,zero
    920c:	00000021 	move	zero,zero
    9210:	00000021 	move	zero,zero
    9214:	00000021 	move	zero,zero
    9218:	00000021 	move	zero,zero
    921c:	00000021 	move	zero,zero
    9220:	00000021 	move	zero,zero
    9224:	00000021 	move	zero,zero
    9228:	00000021 	move	zero,zero
    922c:	00000021 	move	zero,zero
    9230:	00000021 	move	zero,zero
    9234:	00000021 	move	zero,zero
    9238:	3c08e04d 	lui	t0,0xe04d
    923c:	3508f6d0 	ori	t0,t0,0xf6d0
    9240:	3c09e04d 	lui	t1,0xe04d
    9244:	3529f6d0 	ori	t1,t1,0xf6d0
    9248:	1509ffe7 	bne	t0,t1,91e8 <n30_bne_test+0x91e8>
    924c:	00000000 	nop
    9250:	1000000c 	b	9284 <n30_bne_test+0x9284>
    9254:	00000000 	nop
    9258:	00000000 	nop
    925c:	00000021 	move	zero,zero
    9260:	00000021 	move	zero,zero
    9264:	00000021 	move	zero,zero
    9268:	00000021 	move	zero,zero
    926c:	00000021 	move	zero,zero
    9270:	00000021 	move	zero,zero
    9274:	00000021 	move	zero,zero
    9278:	00000021 	move	zero,zero
    927c:	3c12039f 	lui	s2,0x39f
    9280:	3652d030 	ori	s2,s2,0xd030
    9284:	00000000 	nop
    9288:	24140000 	li	s4,0
    928c:	16141e61 	bne	s0,s4,10c14 <inst_error>
    9290:	00000000 	nop
    9294:	00000000 	nop
    9298:	24150000 	li	s5,0
    929c:	16551e5d 	bne	s2,s5,10c14 <inst_error>
    92a0:	00000000 	nop
    92a4:	00000000 	nop
    92a8:	3c0cb124 	lui	t4,0xb124
    92ac:	358c9e00 	ori	t4,t4,0x9e00
    92b0:	3c0d9eaa 	lui	t5,0x9eaa
    92b4:	35ad76f4 	ori	t5,t5,0x76f4
    92b8:	24100000 	li	s0,0
    92bc:	10000016 	b	9318 <n30_bne_test+0x9318>
    92c0:	24120000 	li	s2,0
    92c4:	00000000 	nop
    92c8:	3c10b124 	lui	s0,0xb124
    92cc:	15280023 	bne	t1,t0,935c <n30_bne_test+0x935c>
    92d0:	36109e00 	ori	s0,s0,0x9e00
    92d4:	10000023 	b	9364 <n30_bne_test+0x9364>
    92d8:	00000000 	nop
    92dc:	00000000 	nop
    92e0:	00000021 	move	zero,zero
    92e4:	00000021 	move	zero,zero
    92e8:	00000021 	move	zero,zero
    92ec:	00000021 	move	zero,zero
    92f0:	00000021 	move	zero,zero
    92f4:	00000021 	move	zero,zero
    92f8:	00000021 	move	zero,zero
    92fc:	00000021 	move	zero,zero
    9300:	00000021 	move	zero,zero
    9304:	00000021 	move	zero,zero
    9308:	00000021 	move	zero,zero
    930c:	00000021 	move	zero,zero
    9310:	00000021 	move	zero,zero
    9314:	00000021 	move	zero,zero
    9318:	3c08a642 	lui	t0,0xa642
    931c:	3508eba0 	ori	t0,t0,0xeba0
    9320:	3c09a642 	lui	t1,0xa642
    9324:	3529eba0 	ori	t1,t1,0xeba0
    9328:	1509ffe7 	bne	t0,t1,92c8 <n30_bne_test+0x92c8>
    932c:	00000000 	nop
    9330:	1000000c 	b	9364 <n30_bne_test+0x9364>
    9334:	00000000 	nop
    9338:	00000000 	nop
    933c:	00000021 	move	zero,zero
    9340:	00000021 	move	zero,zero
    9344:	00000021 	move	zero,zero
    9348:	00000021 	move	zero,zero
    934c:	00000021 	move	zero,zero
    9350:	00000021 	move	zero,zero
    9354:	00000021 	move	zero,zero
    9358:	00000021 	move	zero,zero
    935c:	3c129eaa 	lui	s2,0x9eaa
    9360:	365276f4 	ori	s2,s2,0x76f4
    9364:	00000000 	nop
    9368:	24140000 	li	s4,0
    936c:	16141e29 	bne	s0,s4,10c14 <inst_error>
    9370:	00000000 	nop
    9374:	00000000 	nop
    9378:	24150000 	li	s5,0
    937c:	16551e25 	bne	s2,s5,10c14 <inst_error>
    9380:	00000000 	nop
    9384:	00000000 	nop
    9388:	3c0c9da9 	lui	t4,0x9da9
    938c:	358cfb7c 	ori	t4,t4,0xfb7c
    9390:	3c0d7263 	lui	t5,0x7263
    9394:	35ad3556 	ori	t5,t5,0x3556
    9398:	24100000 	li	s0,0
    939c:	10000016 	b	93f8 <n30_bne_test+0x93f8>
    93a0:	24120000 	li	s2,0
    93a4:	00000000 	nop
    93a8:	3c109da9 	lui	s0,0x9da9
    93ac:	15280023 	bne	t1,t0,943c <n30_bne_test+0x943c>
    93b0:	3610fb7c 	ori	s0,s0,0xfb7c
    93b4:	10000023 	b	9444 <n30_bne_test+0x9444>
    93b8:	00000000 	nop
    93bc:	00000000 	nop
    93c0:	00000021 	move	zero,zero
    93c4:	00000021 	move	zero,zero
    93c8:	00000021 	move	zero,zero
    93cc:	00000021 	move	zero,zero
    93d0:	00000021 	move	zero,zero
    93d4:	00000021 	move	zero,zero
    93d8:	00000021 	move	zero,zero
    93dc:	00000021 	move	zero,zero
    93e0:	00000021 	move	zero,zero
    93e4:	00000021 	move	zero,zero
    93e8:	00000021 	move	zero,zero
    93ec:	00000021 	move	zero,zero
    93f0:	00000021 	move	zero,zero
    93f4:	00000021 	move	zero,zero
    93f8:	3c084f37 	lui	t0,0x4f37
    93fc:	35084f58 	ori	t0,t0,0x4f58
    9400:	3c094f37 	lui	t1,0x4f37
    9404:	35294f58 	ori	t1,t1,0x4f58
    9408:	1509ffe7 	bne	t0,t1,93a8 <n30_bne_test+0x93a8>
    940c:	00000000 	nop
    9410:	1000000c 	b	9444 <n30_bne_test+0x9444>
    9414:	00000000 	nop
    9418:	00000000 	nop
    941c:	00000021 	move	zero,zero
    9420:	00000021 	move	zero,zero
    9424:	00000021 	move	zero,zero
    9428:	00000021 	move	zero,zero
    942c:	00000021 	move	zero,zero
    9430:	00000021 	move	zero,zero
    9434:	00000021 	move	zero,zero
    9438:	00000021 	move	zero,zero
    943c:	3c127263 	lui	s2,0x7263
    9440:	36523556 	ori	s2,s2,0x3556
    9444:	00000000 	nop
    9448:	24140000 	li	s4,0
    944c:	16141df1 	bne	s0,s4,10c14 <inst_error>
    9450:	00000000 	nop
    9454:	00000000 	nop
    9458:	24150000 	li	s5,0
    945c:	16551ded 	bne	s2,s5,10c14 <inst_error>
    9460:	00000000 	nop
    9464:	00000000 	nop
    9468:	3c0c6eff 	lui	t4,0x6eff
    946c:	358c3a5a 	ori	t4,t4,0x3a5a
    9470:	3c0d8f49 	lui	t5,0x8f49
    9474:	35ade5c8 	ori	t5,t5,0xe5c8
    9478:	24100000 	li	s0,0
    947c:	10000016 	b	94d8 <n30_bne_test+0x94d8>
    9480:	24120000 	li	s2,0
    9484:	00000000 	nop
    9488:	3c106eff 	lui	s0,0x6eff
    948c:	15280023 	bne	t1,t0,951c <n30_bne_test+0x951c>
    9490:	36103a5a 	ori	s0,s0,0x3a5a
    9494:	10000023 	b	9524 <n30_bne_test+0x9524>
    9498:	00000000 	nop
    949c:	00000000 	nop
    94a0:	00000021 	move	zero,zero
    94a4:	00000021 	move	zero,zero
    94a8:	00000021 	move	zero,zero
    94ac:	00000021 	move	zero,zero
    94b0:	00000021 	move	zero,zero
    94b4:	00000021 	move	zero,zero
    94b8:	00000021 	move	zero,zero
    94bc:	00000021 	move	zero,zero
    94c0:	00000021 	move	zero,zero
    94c4:	00000021 	move	zero,zero
    94c8:	00000021 	move	zero,zero
    94cc:	00000021 	move	zero,zero
    94d0:	00000021 	move	zero,zero
    94d4:	00000021 	move	zero,zero
    94d8:	3c0804d4 	lui	t0,0x4d4
    94dc:	35080200 	ori	t0,t0,0x200
    94e0:	3c0904d4 	lui	t1,0x4d4
    94e4:	35290200 	ori	t1,t1,0x200
    94e8:	1509ffe7 	bne	t0,t1,9488 <n30_bne_test+0x9488>
    94ec:	00000000 	nop
    94f0:	1000000c 	b	9524 <n30_bne_test+0x9524>
    94f4:	00000000 	nop
    94f8:	00000000 	nop
    94fc:	00000021 	move	zero,zero
    9500:	00000021 	move	zero,zero
    9504:	00000021 	move	zero,zero
    9508:	00000021 	move	zero,zero
    950c:	00000021 	move	zero,zero
    9510:	00000021 	move	zero,zero
    9514:	00000021 	move	zero,zero
    9518:	00000021 	move	zero,zero
    951c:	3c128f49 	lui	s2,0x8f49
    9520:	3652e5c8 	ori	s2,s2,0xe5c8
    9524:	00000000 	nop
    9528:	24140000 	li	s4,0
    952c:	16141db9 	bne	s0,s4,10c14 <inst_error>
    9530:	00000000 	nop
    9534:	00000000 	nop
    9538:	24150000 	li	s5,0
    953c:	16551db5 	bne	s2,s5,10c14 <inst_error>
    9540:	00000000 	nop
    9544:	00000000 	nop
    9548:	3c0c1d6d 	lui	t4,0x1d6d
    954c:	358c3640 	ori	t4,t4,0x3640
    9550:	3c0da38f 	lui	t5,0xa38f
    9554:	35ada240 	ori	t5,t5,0xa240
    9558:	24100000 	li	s0,0
    955c:	10000016 	b	95b8 <n30_bne_test+0x95b8>
    9560:	24120000 	li	s2,0
    9564:	00000000 	nop
    9568:	3c101d6d 	lui	s0,0x1d6d
    956c:	15280023 	bne	t1,t0,95fc <n30_bne_test+0x95fc>
    9570:	36103640 	ori	s0,s0,0x3640
    9574:	10000023 	b	9604 <n30_bne_test+0x9604>
    9578:	00000000 	nop
    957c:	00000000 	nop
    9580:	00000021 	move	zero,zero
    9584:	00000021 	move	zero,zero
    9588:	00000021 	move	zero,zero
    958c:	00000021 	move	zero,zero
    9590:	00000021 	move	zero,zero
    9594:	00000021 	move	zero,zero
    9598:	00000021 	move	zero,zero
    959c:	00000021 	move	zero,zero
    95a0:	00000021 	move	zero,zero
    95a4:	00000021 	move	zero,zero
    95a8:	00000021 	move	zero,zero
    95ac:	00000021 	move	zero,zero
    95b0:	00000021 	move	zero,zero
    95b4:	00000021 	move	zero,zero
    95b8:	3c08f397 	lui	t0,0xf397
    95bc:	35087c84 	ori	t0,t0,0x7c84
    95c0:	3c09f397 	lui	t1,0xf397
    95c4:	35297c84 	ori	t1,t1,0x7c84
    95c8:	1509ffe7 	bne	t0,t1,9568 <n30_bne_test+0x9568>
    95cc:	00000000 	nop
    95d0:	1000000c 	b	9604 <n30_bne_test+0x9604>
    95d4:	00000000 	nop
    95d8:	00000000 	nop
    95dc:	00000021 	move	zero,zero
    95e0:	00000021 	move	zero,zero
    95e4:	00000021 	move	zero,zero
    95e8:	00000021 	move	zero,zero
    95ec:	00000021 	move	zero,zero
    95f0:	00000021 	move	zero,zero
    95f4:	00000021 	move	zero,zero
    95f8:	00000021 	move	zero,zero
    95fc:	3c12a38f 	lui	s2,0xa38f
    9600:	3652a240 	ori	s2,s2,0xa240
    9604:	00000000 	nop
    9608:	24140000 	li	s4,0
    960c:	16141d81 	bne	s0,s4,10c14 <inst_error>
    9610:	00000000 	nop
    9614:	00000000 	nop
    9618:	24150000 	li	s5,0
    961c:	16551d7d 	bne	s2,s5,10c14 <inst_error>
    9620:	00000000 	nop
    9624:	00000000 	nop
    9628:	3c0cfd24 	lui	t4,0xfd24
    962c:	358c9f76 	ori	t4,t4,0x9f76
    9630:	3c0d25e3 	lui	t5,0x25e3
    9634:	35ad2ba0 	ori	t5,t5,0x2ba0
    9638:	24100000 	li	s0,0
    963c:	10000016 	b	9698 <n30_bne_test+0x9698>
    9640:	24120000 	li	s2,0
    9644:	00000000 	nop
    9648:	3c10fd24 	lui	s0,0xfd24
    964c:	15280023 	bne	t1,t0,96dc <n30_bne_test+0x96dc>
    9650:	36109f76 	ori	s0,s0,0x9f76
    9654:	10000023 	b	96e4 <n30_bne_test+0x96e4>
    9658:	00000000 	nop
    965c:	00000000 	nop
    9660:	00000021 	move	zero,zero
    9664:	00000021 	move	zero,zero
    9668:	00000021 	move	zero,zero
    966c:	00000021 	move	zero,zero
    9670:	00000021 	move	zero,zero
    9674:	00000021 	move	zero,zero
    9678:	00000021 	move	zero,zero
    967c:	00000021 	move	zero,zero
    9680:	00000021 	move	zero,zero
    9684:	00000021 	move	zero,zero
    9688:	00000021 	move	zero,zero
    968c:	00000021 	move	zero,zero
    9690:	00000021 	move	zero,zero
    9694:	00000021 	move	zero,zero
    9698:	3c087bb1 	lui	t0,0x7bb1
    969c:	3508fa14 	ori	t0,t0,0xfa14
    96a0:	3c097bb1 	lui	t1,0x7bb1
    96a4:	3529fa14 	ori	t1,t1,0xfa14
    96a8:	1509ffe7 	bne	t0,t1,9648 <n30_bne_test+0x9648>
    96ac:	00000000 	nop
    96b0:	1000000c 	b	96e4 <n30_bne_test+0x96e4>
    96b4:	00000000 	nop
    96b8:	00000000 	nop
    96bc:	00000021 	move	zero,zero
    96c0:	00000021 	move	zero,zero
    96c4:	00000021 	move	zero,zero
    96c8:	00000021 	move	zero,zero
    96cc:	00000021 	move	zero,zero
    96d0:	00000021 	move	zero,zero
    96d4:	00000021 	move	zero,zero
    96d8:	00000021 	move	zero,zero
    96dc:	3c1225e3 	lui	s2,0x25e3
    96e0:	36522ba0 	ori	s2,s2,0x2ba0
    96e4:	00000000 	nop
    96e8:	24140000 	li	s4,0
    96ec:	16141d49 	bne	s0,s4,10c14 <inst_error>
    96f0:	00000000 	nop
    96f4:	00000000 	nop
    96f8:	24150000 	li	s5,0
    96fc:	16551d45 	bne	s2,s5,10c14 <inst_error>
    9700:	00000000 	nop
    9704:	00000000 	nop
    9708:	3c0ca0d2 	lui	t4,0xa0d2
    970c:	358c1208 	ori	t4,t4,0x1208
    9710:	3c0d5478 	lui	t5,0x5478
    9714:	35adbbf8 	ori	t5,t5,0xbbf8
    9718:	24100000 	li	s0,0
    971c:	10000016 	b	9778 <n30_bne_test+0x9778>
    9720:	24120000 	li	s2,0
    9724:	00000000 	nop
    9728:	3c10a0d2 	lui	s0,0xa0d2
    972c:	15280023 	bne	t1,t0,97bc <n30_bne_test+0x97bc>
    9730:	36101208 	ori	s0,s0,0x1208
    9734:	10000023 	b	97c4 <n30_bne_test+0x97c4>
    9738:	00000000 	nop
    973c:	00000000 	nop
    9740:	00000021 	move	zero,zero
    9744:	00000021 	move	zero,zero
    9748:	00000021 	move	zero,zero
    974c:	00000021 	move	zero,zero
    9750:	00000021 	move	zero,zero
    9754:	00000021 	move	zero,zero
    9758:	00000021 	move	zero,zero
    975c:	00000021 	move	zero,zero
    9760:	00000021 	move	zero,zero
    9764:	00000021 	move	zero,zero
    9768:	00000021 	move	zero,zero
    976c:	00000021 	move	zero,zero
    9770:	00000021 	move	zero,zero
    9774:	00000021 	move	zero,zero
    9778:	3c0877d9 	lui	t0,0x77d9
    977c:	35083460 	ori	t0,t0,0x3460
    9780:	3c0977d9 	lui	t1,0x77d9
    9784:	35293460 	ori	t1,t1,0x3460
    9788:	1509ffe7 	bne	t0,t1,9728 <n30_bne_test+0x9728>
    978c:	00000000 	nop
    9790:	1000000c 	b	97c4 <n30_bne_test+0x97c4>
    9794:	00000000 	nop
    9798:	00000000 	nop
    979c:	00000021 	move	zero,zero
    97a0:	00000021 	move	zero,zero
    97a4:	00000021 	move	zero,zero
    97a8:	00000021 	move	zero,zero
    97ac:	00000021 	move	zero,zero
    97b0:	00000021 	move	zero,zero
    97b4:	00000021 	move	zero,zero
    97b8:	00000021 	move	zero,zero
    97bc:	3c125478 	lui	s2,0x5478
    97c0:	3652bbf8 	ori	s2,s2,0xbbf8
    97c4:	00000000 	nop
    97c8:	24140000 	li	s4,0
    97cc:	16141d11 	bne	s0,s4,10c14 <inst_error>
    97d0:	00000000 	nop
    97d4:	00000000 	nop
    97d8:	24150000 	li	s5,0
    97dc:	16551d0d 	bne	s2,s5,10c14 <inst_error>
    97e0:	00000000 	nop
    97e4:	00000000 	nop
    97e8:	3c0c65b9 	lui	t4,0x65b9
    97ec:	358c53c4 	ori	t4,t4,0x53c4
    97f0:	3c0db4e7 	lui	t5,0xb4e7
    97f4:	35add230 	ori	t5,t5,0xd230
    97f8:	24100000 	li	s0,0
    97fc:	10000016 	b	9858 <n30_bne_test+0x9858>
    9800:	24120000 	li	s2,0
    9804:	00000000 	nop
    9808:	3c1065b9 	lui	s0,0x65b9
    980c:	15280023 	bne	t1,t0,989c <n30_bne_test+0x989c>
    9810:	361053c4 	ori	s0,s0,0x53c4
    9814:	10000023 	b	98a4 <n30_bne_test+0x98a4>
    9818:	00000000 	nop
    981c:	00000000 	nop
    9820:	00000021 	move	zero,zero
    9824:	00000021 	move	zero,zero
    9828:	00000021 	move	zero,zero
    982c:	00000021 	move	zero,zero
    9830:	00000021 	move	zero,zero
    9834:	00000021 	move	zero,zero
    9838:	00000021 	move	zero,zero
    983c:	00000021 	move	zero,zero
    9840:	00000021 	move	zero,zero
    9844:	00000021 	move	zero,zero
    9848:	00000021 	move	zero,zero
    984c:	00000021 	move	zero,zero
    9850:	00000021 	move	zero,zero
    9854:	00000021 	move	zero,zero
    9858:	3c0817ce 	lui	t0,0x17ce
    985c:	3508e700 	ori	t0,t0,0xe700
    9860:	3c0917ce 	lui	t1,0x17ce
    9864:	3529e700 	ori	t1,t1,0xe700
    9868:	1509ffe7 	bne	t0,t1,9808 <n30_bne_test+0x9808>
    986c:	00000000 	nop
    9870:	1000000c 	b	98a4 <n30_bne_test+0x98a4>
    9874:	00000000 	nop
    9878:	00000000 	nop
    987c:	00000021 	move	zero,zero
    9880:	00000021 	move	zero,zero
    9884:	00000021 	move	zero,zero
    9888:	00000021 	move	zero,zero
    988c:	00000021 	move	zero,zero
    9890:	00000021 	move	zero,zero
    9894:	00000021 	move	zero,zero
    9898:	00000021 	move	zero,zero
    989c:	3c12b4e7 	lui	s2,0xb4e7
    98a0:	3652d230 	ori	s2,s2,0xd230
    98a4:	00000000 	nop
    98a8:	24140000 	li	s4,0
    98ac:	16141cd9 	bne	s0,s4,10c14 <inst_error>
    98b0:	00000000 	nop
    98b4:	00000000 	nop
    98b8:	24150000 	li	s5,0
    98bc:	16551cd5 	bne	s2,s5,10c14 <inst_error>
    98c0:	00000000 	nop
    98c4:	00000000 	nop
    98c8:	3c0c9801 	lui	t4,0x9801
    98cc:	358c2b58 	ori	t4,t4,0x2b58
    98d0:	3c0dc20d 	lui	t5,0xc20d
    98d4:	35adacd0 	ori	t5,t5,0xacd0
    98d8:	24100000 	li	s0,0
    98dc:	10000016 	b	9938 <n30_bne_test+0x9938>
    98e0:	24120000 	li	s2,0
    98e4:	00000000 	nop
    98e8:	3c109801 	lui	s0,0x9801
    98ec:	15280023 	bne	t1,t0,997c <n30_bne_test+0x997c>
    98f0:	36102b58 	ori	s0,s0,0x2b58
    98f4:	10000023 	b	9984 <n30_bne_test+0x9984>
    98f8:	00000000 	nop
    98fc:	00000000 	nop
    9900:	00000021 	move	zero,zero
    9904:	00000021 	move	zero,zero
    9908:	00000021 	move	zero,zero
    990c:	00000021 	move	zero,zero
    9910:	00000021 	move	zero,zero
    9914:	00000021 	move	zero,zero
    9918:	00000021 	move	zero,zero
    991c:	00000021 	move	zero,zero
    9920:	00000021 	move	zero,zero
    9924:	00000021 	move	zero,zero
    9928:	00000021 	move	zero,zero
    992c:	00000021 	move	zero,zero
    9930:	00000021 	move	zero,zero
    9934:	00000021 	move	zero,zero
    9938:	3c08797a 	lui	t0,0x797a
    993c:	3508a904 	ori	t0,t0,0xa904
    9940:	3c09797a 	lui	t1,0x797a
    9944:	3529a904 	ori	t1,t1,0xa904
    9948:	1509ffe7 	bne	t0,t1,98e8 <n30_bne_test+0x98e8>
    994c:	00000000 	nop
    9950:	1000000c 	b	9984 <n30_bne_test+0x9984>
    9954:	00000000 	nop
    9958:	00000000 	nop
    995c:	00000021 	move	zero,zero
    9960:	00000021 	move	zero,zero
    9964:	00000021 	move	zero,zero
    9968:	00000021 	move	zero,zero
    996c:	00000021 	move	zero,zero
    9970:	00000021 	move	zero,zero
    9974:	00000021 	move	zero,zero
    9978:	00000021 	move	zero,zero
    997c:	3c12c20d 	lui	s2,0xc20d
    9980:	3652acd0 	ori	s2,s2,0xacd0
    9984:	00000000 	nop
    9988:	24140000 	li	s4,0
    998c:	16141ca1 	bne	s0,s4,10c14 <inst_error>
    9990:	00000000 	nop
    9994:	00000000 	nop
    9998:	24150000 	li	s5,0
    999c:	16551c9d 	bne	s2,s5,10c14 <inst_error>
    99a0:	00000000 	nop
    99a4:	00000000 	nop
    99a8:	3c0c6375 	lui	t4,0x6375
    99ac:	358c2176 	ori	t4,t4,0x2176
    99b0:	3c0d034c 	lui	t5,0x34c
    99b4:	35ad9358 	ori	t5,t5,0x9358
    99b8:	24100000 	li	s0,0
    99bc:	10000016 	b	9a18 <n30_bne_test+0x9a18>
    99c0:	24120000 	li	s2,0
    99c4:	00000000 	nop
    99c8:	3c106375 	lui	s0,0x6375
    99cc:	15280023 	bne	t1,t0,9a5c <n30_bne_test+0x9a5c>
    99d0:	36102176 	ori	s0,s0,0x2176
    99d4:	10000023 	b	9a64 <n30_bne_test+0x9a64>
    99d8:	00000000 	nop
    99dc:	00000000 	nop
    99e0:	00000021 	move	zero,zero
    99e4:	00000021 	move	zero,zero
    99e8:	00000021 	move	zero,zero
    99ec:	00000021 	move	zero,zero
    99f0:	00000021 	move	zero,zero
    99f4:	00000021 	move	zero,zero
    99f8:	00000021 	move	zero,zero
    99fc:	00000021 	move	zero,zero
    9a00:	00000021 	move	zero,zero
    9a04:	00000021 	move	zero,zero
    9a08:	00000021 	move	zero,zero
    9a0c:	00000021 	move	zero,zero
    9a10:	00000021 	move	zero,zero
    9a14:	00000021 	move	zero,zero
    9a18:	3c08834b 	lui	t0,0x834b
    9a1c:	3508907e 	ori	t0,t0,0x907e
    9a20:	3c09834b 	lui	t1,0x834b
    9a24:	3529907e 	ori	t1,t1,0x907e
    9a28:	1509ffe7 	bne	t0,t1,99c8 <n30_bne_test+0x99c8>
    9a2c:	00000000 	nop
    9a30:	1000000c 	b	9a64 <n30_bne_test+0x9a64>
    9a34:	00000000 	nop
    9a38:	00000000 	nop
    9a3c:	00000021 	move	zero,zero
    9a40:	00000021 	move	zero,zero
    9a44:	00000021 	move	zero,zero
    9a48:	00000021 	move	zero,zero
    9a4c:	00000021 	move	zero,zero
    9a50:	00000021 	move	zero,zero
    9a54:	00000021 	move	zero,zero
    9a58:	00000021 	move	zero,zero
    9a5c:	3c12034c 	lui	s2,0x34c
    9a60:	36529358 	ori	s2,s2,0x9358
    9a64:	00000000 	nop
    9a68:	24140000 	li	s4,0
    9a6c:	16141c69 	bne	s0,s4,10c14 <inst_error>
    9a70:	00000000 	nop
    9a74:	00000000 	nop
    9a78:	24150000 	li	s5,0
    9a7c:	16551c65 	bne	s2,s5,10c14 <inst_error>
    9a80:	00000000 	nop
    9a84:	00000000 	nop
    9a88:	3c0c740b 	lui	t4,0x740b
    9a8c:	358c9cf6 	ori	t4,t4,0x9cf6
    9a90:	3c0dd7e4 	lui	t5,0xd7e4
    9a94:	35adcc9c 	ori	t5,t5,0xcc9c
    9a98:	24100000 	li	s0,0
    9a9c:	10000016 	b	9af8 <n30_bne_test+0x9af8>
    9aa0:	24120000 	li	s2,0
    9aa4:	00000000 	nop
    9aa8:	3c10740b 	lui	s0,0x740b
    9aac:	15280023 	bne	t1,t0,9b3c <n30_bne_test+0x9b3c>
    9ab0:	36109cf6 	ori	s0,s0,0x9cf6
    9ab4:	10000023 	b	9b44 <n30_bne_test+0x9b44>
    9ab8:	00000000 	nop
    9abc:	00000000 	nop
    9ac0:	00000021 	move	zero,zero
    9ac4:	00000021 	move	zero,zero
    9ac8:	00000021 	move	zero,zero
    9acc:	00000021 	move	zero,zero
    9ad0:	00000021 	move	zero,zero
    9ad4:	00000021 	move	zero,zero
    9ad8:	00000021 	move	zero,zero
    9adc:	00000021 	move	zero,zero
    9ae0:	00000021 	move	zero,zero
    9ae4:	00000021 	move	zero,zero
    9ae8:	00000021 	move	zero,zero
    9aec:	00000021 	move	zero,zero
    9af0:	00000021 	move	zero,zero
    9af4:	00000021 	move	zero,zero
    9af8:	3c08458b 	lui	t0,0x458b
    9afc:	35087e94 	ori	t0,t0,0x7e94
    9b00:	3c09458b 	lui	t1,0x458b
    9b04:	35297e94 	ori	t1,t1,0x7e94
    9b08:	1509ffe7 	bne	t0,t1,9aa8 <n30_bne_test+0x9aa8>
    9b0c:	00000000 	nop
    9b10:	1000000c 	b	9b44 <n30_bne_test+0x9b44>
    9b14:	00000000 	nop
    9b18:	00000000 	nop
    9b1c:	00000021 	move	zero,zero
    9b20:	00000021 	move	zero,zero
    9b24:	00000021 	move	zero,zero
    9b28:	00000021 	move	zero,zero
    9b2c:	00000021 	move	zero,zero
    9b30:	00000021 	move	zero,zero
    9b34:	00000021 	move	zero,zero
    9b38:	00000021 	move	zero,zero
    9b3c:	3c12d7e4 	lui	s2,0xd7e4
    9b40:	3652cc9c 	ori	s2,s2,0xcc9c
    9b44:	00000000 	nop
    9b48:	24140000 	li	s4,0
    9b4c:	16141c31 	bne	s0,s4,10c14 <inst_error>
    9b50:	00000000 	nop
    9b54:	00000000 	nop
    9b58:	24150000 	li	s5,0
    9b5c:	16551c2d 	bne	s2,s5,10c14 <inst_error>
    9b60:	00000000 	nop
    9b64:	00000000 	nop
    9b68:	3c0ce7d7 	lui	t4,0xe7d7
    9b6c:	358c3f60 	ori	t4,t4,0x3f60
    9b70:	3c0d3b2d 	lui	t5,0x3b2d
    9b74:	35ad0138 	ori	t5,t5,0x138
    9b78:	24100000 	li	s0,0
    9b7c:	10000016 	b	9bd8 <n30_bne_test+0x9bd8>
    9b80:	24120000 	li	s2,0
    9b84:	00000000 	nop
    9b88:	3c10e7d7 	lui	s0,0xe7d7
    9b8c:	15280023 	bne	t1,t0,9c1c <n30_bne_test+0x9c1c>
    9b90:	36103f60 	ori	s0,s0,0x3f60
    9b94:	10000023 	b	9c24 <n30_bne_test+0x9c24>
    9b98:	00000000 	nop
    9b9c:	00000000 	nop
    9ba0:	00000021 	move	zero,zero
    9ba4:	00000021 	move	zero,zero
    9ba8:	00000021 	move	zero,zero
    9bac:	00000021 	move	zero,zero
    9bb0:	00000021 	move	zero,zero
    9bb4:	00000021 	move	zero,zero
    9bb8:	00000021 	move	zero,zero
    9bbc:	00000021 	move	zero,zero
    9bc0:	00000021 	move	zero,zero
    9bc4:	00000021 	move	zero,zero
    9bc8:	00000021 	move	zero,zero
    9bcc:	00000021 	move	zero,zero
    9bd0:	00000021 	move	zero,zero
    9bd4:	00000021 	move	zero,zero
    9bd8:	3c0879cc 	lui	t0,0x79cc
    9bdc:	35088e64 	ori	t0,t0,0x8e64
    9be0:	3c0979cc 	lui	t1,0x79cc
    9be4:	35298e64 	ori	t1,t1,0x8e64
    9be8:	1509ffe7 	bne	t0,t1,9b88 <n30_bne_test+0x9b88>
    9bec:	00000000 	nop
    9bf0:	1000000c 	b	9c24 <n30_bne_test+0x9c24>
    9bf4:	00000000 	nop
    9bf8:	00000000 	nop
    9bfc:	00000021 	move	zero,zero
    9c00:	00000021 	move	zero,zero
    9c04:	00000021 	move	zero,zero
    9c08:	00000021 	move	zero,zero
    9c0c:	00000021 	move	zero,zero
    9c10:	00000021 	move	zero,zero
    9c14:	00000021 	move	zero,zero
    9c18:	00000021 	move	zero,zero
    9c1c:	3c123b2d 	lui	s2,0x3b2d
    9c20:	36520138 	ori	s2,s2,0x138
    9c24:	00000000 	nop
    9c28:	24140000 	li	s4,0
    9c2c:	16141bf9 	bne	s0,s4,10c14 <inst_error>
    9c30:	00000000 	nop
    9c34:	00000000 	nop
    9c38:	24150000 	li	s5,0
    9c3c:	16551bf5 	bne	s2,s5,10c14 <inst_error>
    9c40:	00000000 	nop
    9c44:	00000000 	nop
    9c48:	3c0c4e1d 	lui	t4,0x4e1d
    9c4c:	358c55fa 	ori	t4,t4,0x55fa
    9c50:	3c0d3a1b 	lui	t5,0x3a1b
    9c54:	35adb7f8 	ori	t5,t5,0xb7f8
    9c58:	24100000 	li	s0,0
    9c5c:	10000016 	b	9cb8 <n30_bne_test+0x9cb8>
    9c60:	24120000 	li	s2,0
    9c64:	00000000 	nop
    9c68:	3c104e1d 	lui	s0,0x4e1d
    9c6c:	15280023 	bne	t1,t0,9cfc <n30_bne_test+0x9cfc>
    9c70:	361055fa 	ori	s0,s0,0x55fa
    9c74:	10000023 	b	9d04 <n30_bne_test+0x9d04>
    9c78:	00000000 	nop
    9c7c:	00000000 	nop
    9c80:	00000021 	move	zero,zero
    9c84:	00000021 	move	zero,zero
    9c88:	00000021 	move	zero,zero
    9c8c:	00000021 	move	zero,zero
    9c90:	00000021 	move	zero,zero
    9c94:	00000021 	move	zero,zero
    9c98:	00000021 	move	zero,zero
    9c9c:	00000021 	move	zero,zero
    9ca0:	00000021 	move	zero,zero
    9ca4:	00000021 	move	zero,zero
    9ca8:	00000021 	move	zero,zero
    9cac:	00000021 	move	zero,zero
    9cb0:	00000021 	move	zero,zero
    9cb4:	00000021 	move	zero,zero
    9cb8:	3c08a7d9 	lui	t0,0xa7d9
    9cbc:	3508d150 	ori	t0,t0,0xd150
    9cc0:	3c09a7d9 	lui	t1,0xa7d9
    9cc4:	3529d150 	ori	t1,t1,0xd150
    9cc8:	1509ffe7 	bne	t0,t1,9c68 <n30_bne_test+0x9c68>
    9ccc:	00000000 	nop
    9cd0:	1000000c 	b	9d04 <n30_bne_test+0x9d04>
    9cd4:	00000000 	nop
    9cd8:	00000000 	nop
    9cdc:	00000021 	move	zero,zero
    9ce0:	00000021 	move	zero,zero
    9ce4:	00000021 	move	zero,zero
    9ce8:	00000021 	move	zero,zero
    9cec:	00000021 	move	zero,zero
    9cf0:	00000021 	move	zero,zero
    9cf4:	00000021 	move	zero,zero
    9cf8:	00000021 	move	zero,zero
    9cfc:	3c123a1b 	lui	s2,0x3a1b
    9d00:	3652b7f8 	ori	s2,s2,0xb7f8
    9d04:	00000000 	nop
    9d08:	24140000 	li	s4,0
    9d0c:	16141bc1 	bne	s0,s4,10c14 <inst_error>
    9d10:	00000000 	nop
    9d14:	00000000 	nop
    9d18:	24150000 	li	s5,0
    9d1c:	16551bbd 	bne	s2,s5,10c14 <inst_error>
    9d20:	00000000 	nop
    9d24:	00000000 	nop
    9d28:	3c0c103f 	lui	t4,0x103f
    9d2c:	358c9ab8 	ori	t4,t4,0x9ab8
    9d30:	3c0d9f85 	lui	t5,0x9f85
    9d34:	35ad7da0 	ori	t5,t5,0x7da0
    9d38:	24100000 	li	s0,0
    9d3c:	10000016 	b	9d98 <n30_bne_test+0x9d98>
    9d40:	24120000 	li	s2,0
    9d44:	00000000 	nop
    9d48:	3c10103f 	lui	s0,0x103f
    9d4c:	15280023 	bne	t1,t0,9ddc <n30_bne_test+0x9ddc>
    9d50:	36109ab8 	ori	s0,s0,0x9ab8
    9d54:	10000023 	b	9de4 <n30_bne_test+0x9de4>
    9d58:	00000000 	nop
    9d5c:	00000000 	nop
    9d60:	00000021 	move	zero,zero
    9d64:	00000021 	move	zero,zero
    9d68:	00000021 	move	zero,zero
    9d6c:	00000021 	move	zero,zero
    9d70:	00000021 	move	zero,zero
    9d74:	00000021 	move	zero,zero
    9d78:	00000021 	move	zero,zero
    9d7c:	00000021 	move	zero,zero
    9d80:	00000021 	move	zero,zero
    9d84:	00000021 	move	zero,zero
    9d88:	00000021 	move	zero,zero
    9d8c:	00000021 	move	zero,zero
    9d90:	00000021 	move	zero,zero
    9d94:	00000021 	move	zero,zero
    9d98:	3c081062 	lui	t0,0x1062
    9d9c:	35085c2f 	ori	t0,t0,0x5c2f
    9da0:	3c091062 	lui	t1,0x1062
    9da4:	35295c2f 	ori	t1,t1,0x5c2f
    9da8:	1509ffe7 	bne	t0,t1,9d48 <n30_bne_test+0x9d48>
    9dac:	00000000 	nop
    9db0:	1000000c 	b	9de4 <n30_bne_test+0x9de4>
    9db4:	00000000 	nop
    9db8:	00000000 	nop
    9dbc:	00000021 	move	zero,zero
    9dc0:	00000021 	move	zero,zero
    9dc4:	00000021 	move	zero,zero
    9dc8:	00000021 	move	zero,zero
    9dcc:	00000021 	move	zero,zero
    9dd0:	00000021 	move	zero,zero
    9dd4:	00000021 	move	zero,zero
    9dd8:	00000021 	move	zero,zero
    9ddc:	3c129f85 	lui	s2,0x9f85
    9de0:	36527da0 	ori	s2,s2,0x7da0
    9de4:	00000000 	nop
    9de8:	24140000 	li	s4,0
    9dec:	16141b89 	bne	s0,s4,10c14 <inst_error>
    9df0:	00000000 	nop
    9df4:	00000000 	nop
    9df8:	24150000 	li	s5,0
    9dfc:	16551b85 	bne	s2,s5,10c14 <inst_error>
    9e00:	00000000 	nop
    9e04:	00000000 	nop
    9e08:	3c0c0aa8 	lui	t4,0xaa8
    9e0c:	358c8500 	ori	t4,t4,0x8500
    9e10:	3c0d120f 	lui	t5,0x120f
    9e14:	35ad06d8 	ori	t5,t5,0x6d8
    9e18:	24100000 	li	s0,0
    9e1c:	10000016 	b	9e78 <n30_bne_test+0x9e78>
    9e20:	24120000 	li	s2,0
    9e24:	00000000 	nop
    9e28:	3c100aa8 	lui	s0,0xaa8
    9e2c:	15280023 	bne	t1,t0,9ebc <n30_bne_test+0x9ebc>
    9e30:	36108500 	ori	s0,s0,0x8500
    9e34:	10000023 	b	9ec4 <n30_bne_test+0x9ec4>
    9e38:	00000000 	nop
    9e3c:	00000000 	nop
    9e40:	00000021 	move	zero,zero
    9e44:	00000021 	move	zero,zero
    9e48:	00000021 	move	zero,zero
    9e4c:	00000021 	move	zero,zero
    9e50:	00000021 	move	zero,zero
    9e54:	00000021 	move	zero,zero
    9e58:	00000021 	move	zero,zero
    9e5c:	00000021 	move	zero,zero
    9e60:	00000021 	move	zero,zero
    9e64:	00000021 	move	zero,zero
    9e68:	00000021 	move	zero,zero
    9e6c:	00000021 	move	zero,zero
    9e70:	00000021 	move	zero,zero
    9e74:	00000021 	move	zero,zero
    9e78:	3c084a23 	lui	t0,0x4a23
    9e7c:	3508aee0 	ori	t0,t0,0xaee0
    9e80:	3c094a23 	lui	t1,0x4a23
    9e84:	3529aee0 	ori	t1,t1,0xaee0
    9e88:	1509ffe7 	bne	t0,t1,9e28 <n30_bne_test+0x9e28>
    9e8c:	00000000 	nop
    9e90:	1000000c 	b	9ec4 <n30_bne_test+0x9ec4>
    9e94:	00000000 	nop
    9e98:	00000000 	nop
    9e9c:	00000021 	move	zero,zero
    9ea0:	00000021 	move	zero,zero
    9ea4:	00000021 	move	zero,zero
    9ea8:	00000021 	move	zero,zero
    9eac:	00000021 	move	zero,zero
    9eb0:	00000021 	move	zero,zero
    9eb4:	00000021 	move	zero,zero
    9eb8:	00000021 	move	zero,zero
    9ebc:	3c12120f 	lui	s2,0x120f
    9ec0:	365206d8 	ori	s2,s2,0x6d8
    9ec4:	00000000 	nop
    9ec8:	24140000 	li	s4,0
    9ecc:	16141b51 	bne	s0,s4,10c14 <inst_error>
    9ed0:	00000000 	nop
    9ed4:	00000000 	nop
    9ed8:	24150000 	li	s5,0
    9edc:	16551b4d 	bne	s2,s5,10c14 <inst_error>
    9ee0:	00000000 	nop
    9ee4:	00000000 	nop
    9ee8:	3c0cf555 	lui	t4,0xf555
    9eec:	358c67e9 	ori	t4,t4,0x67e9
    9ef0:	3c0d4cb1 	lui	t5,0x4cb1
    9ef4:	35ad3f68 	ori	t5,t5,0x3f68
    9ef8:	24100000 	li	s0,0
    9efc:	10000016 	b	9f58 <n30_bne_test+0x9f58>
    9f00:	24120000 	li	s2,0
    9f04:	00000000 	nop
    9f08:	3c10f555 	lui	s0,0xf555
    9f0c:	15280023 	bne	t1,t0,9f9c <n30_bne_test+0x9f9c>
    9f10:	361067e9 	ori	s0,s0,0x67e9
    9f14:	10000023 	b	9fa4 <n30_bne_test+0x9fa4>
    9f18:	00000000 	nop
    9f1c:	00000000 	nop
    9f20:	00000021 	move	zero,zero
    9f24:	00000021 	move	zero,zero
    9f28:	00000021 	move	zero,zero
    9f2c:	00000021 	move	zero,zero
    9f30:	00000021 	move	zero,zero
    9f34:	00000021 	move	zero,zero
    9f38:	00000021 	move	zero,zero
    9f3c:	00000021 	move	zero,zero
    9f40:	00000021 	move	zero,zero
    9f44:	00000021 	move	zero,zero
    9f48:	00000021 	move	zero,zero
    9f4c:	00000021 	move	zero,zero
    9f50:	00000021 	move	zero,zero
    9f54:	00000021 	move	zero,zero
    9f58:	3c08ec67 	lui	t0,0xec67
    9f5c:	35088030 	ori	t0,t0,0x8030
    9f60:	3c09ec67 	lui	t1,0xec67
    9f64:	35298030 	ori	t1,t1,0x8030
    9f68:	1509ffe7 	bne	t0,t1,9f08 <n30_bne_test+0x9f08>
    9f6c:	00000000 	nop
    9f70:	1000000c 	b	9fa4 <n30_bne_test+0x9fa4>
    9f74:	00000000 	nop
    9f78:	00000000 	nop
    9f7c:	00000021 	move	zero,zero
    9f80:	00000021 	move	zero,zero
    9f84:	00000021 	move	zero,zero
    9f88:	00000021 	move	zero,zero
    9f8c:	00000021 	move	zero,zero
    9f90:	00000021 	move	zero,zero
    9f94:	00000021 	move	zero,zero
    9f98:	00000021 	move	zero,zero
    9f9c:	3c124cb1 	lui	s2,0x4cb1
    9fa0:	36523f68 	ori	s2,s2,0x3f68
    9fa4:	00000000 	nop
    9fa8:	24140000 	li	s4,0
    9fac:	16141b19 	bne	s0,s4,10c14 <inst_error>
    9fb0:	00000000 	nop
    9fb4:	00000000 	nop
    9fb8:	24150000 	li	s5,0
    9fbc:	16551b15 	bne	s2,s5,10c14 <inst_error>
    9fc0:	00000000 	nop
    9fc4:	00000000 	nop
    9fc8:	3c0cc656 	lui	t4,0xc656
    9fcc:	358c4b1c 	ori	t4,t4,0x4b1c
    9fd0:	3c0d6172 	lui	t5,0x6172
    9fd4:	35ad21e0 	ori	t5,t5,0x21e0
    9fd8:	24100000 	li	s0,0
    9fdc:	10000016 	b	a038 <n30_bne_test+0xa038>
    9fe0:	24120000 	li	s2,0
    9fe4:	00000000 	nop
    9fe8:	3c10c656 	lui	s0,0xc656
    9fec:	15280023 	bne	t1,t0,a07c <n30_bne_test+0xa07c>
    9ff0:	36104b1c 	ori	s0,s0,0x4b1c
    9ff4:	10000023 	b	a084 <n30_bne_test+0xa084>
    9ff8:	00000000 	nop
    9ffc:	00000000 	nop
    a000:	00000021 	move	zero,zero
    a004:	00000021 	move	zero,zero
    a008:	00000021 	move	zero,zero
    a00c:	00000021 	move	zero,zero
    a010:	00000021 	move	zero,zero
    a014:	00000021 	move	zero,zero
    a018:	00000021 	move	zero,zero
    a01c:	00000021 	move	zero,zero
    a020:	00000021 	move	zero,zero
    a024:	00000021 	move	zero,zero
    a028:	00000021 	move	zero,zero
    a02c:	00000021 	move	zero,zero
    a030:	00000021 	move	zero,zero
    a034:	00000021 	move	zero,zero
    a038:	3c087a85 	lui	t0,0x7a85
    a03c:	3508dea0 	ori	t0,t0,0xdea0
    a040:	3c097a85 	lui	t1,0x7a85
    a044:	3529dea0 	ori	t1,t1,0xdea0
    a048:	1509ffe7 	bne	t0,t1,9fe8 <n30_bne_test+0x9fe8>
    a04c:	00000000 	nop
    a050:	1000000c 	b	a084 <n30_bne_test+0xa084>
    a054:	00000000 	nop
    a058:	00000000 	nop
    a05c:	00000021 	move	zero,zero
    a060:	00000021 	move	zero,zero
    a064:	00000021 	move	zero,zero
    a068:	00000021 	move	zero,zero
    a06c:	00000021 	move	zero,zero
    a070:	00000021 	move	zero,zero
    a074:	00000021 	move	zero,zero
    a078:	00000021 	move	zero,zero
    a07c:	3c126172 	lui	s2,0x6172
    a080:	365221e0 	ori	s2,s2,0x21e0
    a084:	00000000 	nop
    a088:	24140000 	li	s4,0
    a08c:	16141ae1 	bne	s0,s4,10c14 <inst_error>
    a090:	00000000 	nop
    a094:	00000000 	nop
    a098:	24150000 	li	s5,0
    a09c:	16551add 	bne	s2,s5,10c14 <inst_error>
    a0a0:	00000000 	nop
    a0a4:	00000000 	nop
    a0a8:	3c0c0e56 	lui	t4,0xe56
    a0ac:	358c1800 	ori	t4,t4,0x1800
    a0b0:	3c0dc039 	lui	t5,0xc039
    a0b4:	35adbe20 	ori	t5,t5,0xbe20
    a0b8:	24100000 	li	s0,0
    a0bc:	10000016 	b	a118 <n30_bne_test+0xa118>
    a0c0:	24120000 	li	s2,0
    a0c4:	00000000 	nop
    a0c8:	3c100e56 	lui	s0,0xe56
    a0cc:	15280023 	bne	t1,t0,a15c <n30_bne_test+0xa15c>
    a0d0:	36101800 	ori	s0,s0,0x1800
    a0d4:	10000023 	b	a164 <n30_bne_test+0xa164>
    a0d8:	00000000 	nop
    a0dc:	00000000 	nop
    a0e0:	00000021 	move	zero,zero
    a0e4:	00000021 	move	zero,zero
    a0e8:	00000021 	move	zero,zero
    a0ec:	00000021 	move	zero,zero
    a0f0:	00000021 	move	zero,zero
    a0f4:	00000021 	move	zero,zero
    a0f8:	00000021 	move	zero,zero
    a0fc:	00000021 	move	zero,zero
    a100:	00000021 	move	zero,zero
    a104:	00000021 	move	zero,zero
    a108:	00000021 	move	zero,zero
    a10c:	00000021 	move	zero,zero
    a110:	00000021 	move	zero,zero
    a114:	00000021 	move	zero,zero
    a118:	3c084f6b 	lui	t0,0x4f6b
    a11c:	35084036 	ori	t0,t0,0x4036
    a120:	3c094f6b 	lui	t1,0x4f6b
    a124:	35294036 	ori	t1,t1,0x4036
    a128:	1509ffe7 	bne	t0,t1,a0c8 <n30_bne_test+0xa0c8>
    a12c:	00000000 	nop
    a130:	1000000c 	b	a164 <n30_bne_test+0xa164>
    a134:	00000000 	nop
    a138:	00000000 	nop
    a13c:	00000021 	move	zero,zero
    a140:	00000021 	move	zero,zero
    a144:	00000021 	move	zero,zero
    a148:	00000021 	move	zero,zero
    a14c:	00000021 	move	zero,zero
    a150:	00000021 	move	zero,zero
    a154:	00000021 	move	zero,zero
    a158:	00000021 	move	zero,zero
    a15c:	3c12c039 	lui	s2,0xc039
    a160:	3652be20 	ori	s2,s2,0xbe20
    a164:	00000000 	nop
    a168:	24140000 	li	s4,0
    a16c:	16141aa9 	bne	s0,s4,10c14 <inst_error>
    a170:	00000000 	nop
    a174:	00000000 	nop
    a178:	24150000 	li	s5,0
    a17c:	16551aa5 	bne	s2,s5,10c14 <inst_error>
    a180:	00000000 	nop
    a184:	00000000 	nop
    a188:	3c0cc985 	lui	t4,0xc985
    a18c:	358cb518 	ori	t4,t4,0xb518
    a190:	3c0d8917 	lui	t5,0x8917
    a194:	35ad3a28 	ori	t5,t5,0x3a28
    a198:	24100000 	li	s0,0
    a19c:	10000016 	b	a1f8 <n30_bne_test+0xa1f8>
    a1a0:	24120000 	li	s2,0
    a1a4:	00000000 	nop
    a1a8:	3c10c985 	lui	s0,0xc985
    a1ac:	15280023 	bne	t1,t0,a23c <n30_bne_test+0xa23c>
    a1b0:	3610b518 	ori	s0,s0,0xb518
    a1b4:	10000023 	b	a244 <n30_bne_test+0xa244>
    a1b8:	00000000 	nop
    a1bc:	00000000 	nop
    a1c0:	00000021 	move	zero,zero
    a1c4:	00000021 	move	zero,zero
    a1c8:	00000021 	move	zero,zero
    a1cc:	00000021 	move	zero,zero
    a1d0:	00000021 	move	zero,zero
    a1d4:	00000021 	move	zero,zero
    a1d8:	00000021 	move	zero,zero
    a1dc:	00000021 	move	zero,zero
    a1e0:	00000021 	move	zero,zero
    a1e4:	00000021 	move	zero,zero
    a1e8:	00000021 	move	zero,zero
    a1ec:	00000021 	move	zero,zero
    a1f0:	00000021 	move	zero,zero
    a1f4:	00000021 	move	zero,zero
    a1f8:	3c083143 	lui	t0,0x3143
    a1fc:	350841ca 	ori	t0,t0,0x41ca
    a200:	3c093143 	lui	t1,0x3143
    a204:	352941ca 	ori	t1,t1,0x41ca
    a208:	1509ffe7 	bne	t0,t1,a1a8 <n30_bne_test+0xa1a8>
    a20c:	00000000 	nop
    a210:	1000000c 	b	a244 <n30_bne_test+0xa244>
    a214:	00000000 	nop
    a218:	00000000 	nop
    a21c:	00000021 	move	zero,zero
    a220:	00000021 	move	zero,zero
    a224:	00000021 	move	zero,zero
    a228:	00000021 	move	zero,zero
    a22c:	00000021 	move	zero,zero
    a230:	00000021 	move	zero,zero
    a234:	00000021 	move	zero,zero
    a238:	00000021 	move	zero,zero
    a23c:	3c128917 	lui	s2,0x8917
    a240:	36523a28 	ori	s2,s2,0x3a28
    a244:	00000000 	nop
    a248:	24140000 	li	s4,0
    a24c:	16141a71 	bne	s0,s4,10c14 <inst_error>
    a250:	00000000 	nop
    a254:	00000000 	nop
    a258:	24150000 	li	s5,0
    a25c:	16551a6d 	bne	s2,s5,10c14 <inst_error>
    a260:	00000000 	nop
    a264:	00000000 	nop
    a268:	3c0c653c 	lui	t4,0x653c
    a26c:	358cb30c 	ori	t4,t4,0xb30c
    a270:	3c0dc469 	lui	t5,0xc469
    a274:	35ad87cc 	ori	t5,t5,0x87cc
    a278:	24100000 	li	s0,0
    a27c:	10000016 	b	a2d8 <n30_bne_test+0xa2d8>
    a280:	24120000 	li	s2,0
    a284:	00000000 	nop
    a288:	3c10653c 	lui	s0,0x653c
    a28c:	15280023 	bne	t1,t0,a31c <n30_bne_test+0xa31c>
    a290:	3610b30c 	ori	s0,s0,0xb30c
    a294:	10000023 	b	a324 <n30_bne_test+0xa324>
    a298:	00000000 	nop
    a29c:	00000000 	nop
    a2a0:	00000021 	move	zero,zero
    a2a4:	00000021 	move	zero,zero
    a2a8:	00000021 	move	zero,zero
    a2ac:	00000021 	move	zero,zero
    a2b0:	00000021 	move	zero,zero
    a2b4:	00000021 	move	zero,zero
    a2b8:	00000021 	move	zero,zero
    a2bc:	00000021 	move	zero,zero
    a2c0:	00000021 	move	zero,zero
    a2c4:	00000021 	move	zero,zero
    a2c8:	00000021 	move	zero,zero
    a2cc:	00000021 	move	zero,zero
    a2d0:	00000021 	move	zero,zero
    a2d4:	00000021 	move	zero,zero
    a2d8:	3c087bd7 	lui	t0,0x7bd7
    a2dc:	3508a60e 	ori	t0,t0,0xa60e
    a2e0:	3c097bd7 	lui	t1,0x7bd7
    a2e4:	3529a60e 	ori	t1,t1,0xa60e
    a2e8:	1509ffe7 	bne	t0,t1,a288 <n30_bne_test+0xa288>
    a2ec:	00000000 	nop
    a2f0:	1000000c 	b	a324 <n30_bne_test+0xa324>
    a2f4:	00000000 	nop
    a2f8:	00000000 	nop
    a2fc:	00000021 	move	zero,zero
    a300:	00000021 	move	zero,zero
    a304:	00000021 	move	zero,zero
    a308:	00000021 	move	zero,zero
    a30c:	00000021 	move	zero,zero
    a310:	00000021 	move	zero,zero
    a314:	00000021 	move	zero,zero
    a318:	00000021 	move	zero,zero
    a31c:	3c12c469 	lui	s2,0xc469
    a320:	365287cc 	ori	s2,s2,0x87cc
    a324:	00000000 	nop
    a328:	24140000 	li	s4,0
    a32c:	16141a39 	bne	s0,s4,10c14 <inst_error>
    a330:	00000000 	nop
    a334:	00000000 	nop
    a338:	24150000 	li	s5,0
    a33c:	16551a35 	bne	s2,s5,10c14 <inst_error>
    a340:	00000000 	nop
    a344:	00000000 	nop
    a348:	3c0ce1b6 	lui	t4,0xe1b6
    a34c:	358c06d4 	ori	t4,t4,0x6d4
    a350:	3c0d6be2 	lui	t5,0x6be2
    a354:	35ad2cf0 	ori	t5,t5,0x2cf0
    a358:	24100000 	li	s0,0
    a35c:	10000016 	b	a3b8 <n30_bne_test+0xa3b8>
    a360:	24120000 	li	s2,0
    a364:	00000000 	nop
    a368:	3c10e1b6 	lui	s0,0xe1b6
    a36c:	15280023 	bne	t1,t0,a3fc <n30_bne_test+0xa3fc>
    a370:	361006d4 	ori	s0,s0,0x6d4
    a374:	10000023 	b	a404 <n30_bne_test+0xa404>
    a378:	00000000 	nop
    a37c:	00000000 	nop
    a380:	00000021 	move	zero,zero
    a384:	00000021 	move	zero,zero
    a388:	00000021 	move	zero,zero
    a38c:	00000021 	move	zero,zero
    a390:	00000021 	move	zero,zero
    a394:	00000021 	move	zero,zero
    a398:	00000021 	move	zero,zero
    a39c:	00000021 	move	zero,zero
    a3a0:	00000021 	move	zero,zero
    a3a4:	00000021 	move	zero,zero
    a3a8:	00000021 	move	zero,zero
    a3ac:	00000021 	move	zero,zero
    a3b0:	00000021 	move	zero,zero
    a3b4:	00000021 	move	zero,zero
    a3b8:	3c08e6e7 	lui	t0,0xe6e7
    a3bc:	3508a560 	ori	t0,t0,0xa560
    a3c0:	3c09e6e7 	lui	t1,0xe6e7
    a3c4:	3529a560 	ori	t1,t1,0xa560
    a3c8:	1509ffe7 	bne	t0,t1,a368 <n30_bne_test+0xa368>
    a3cc:	00000000 	nop
    a3d0:	1000000c 	b	a404 <n30_bne_test+0xa404>
    a3d4:	00000000 	nop
    a3d8:	00000000 	nop
    a3dc:	00000021 	move	zero,zero
    a3e0:	00000021 	move	zero,zero
    a3e4:	00000021 	move	zero,zero
    a3e8:	00000021 	move	zero,zero
    a3ec:	00000021 	move	zero,zero
    a3f0:	00000021 	move	zero,zero
    a3f4:	00000021 	move	zero,zero
    a3f8:	00000021 	move	zero,zero
    a3fc:	3c126be2 	lui	s2,0x6be2
    a400:	36522cf0 	ori	s2,s2,0x2cf0
    a404:	00000000 	nop
    a408:	24140000 	li	s4,0
    a40c:	16141a01 	bne	s0,s4,10c14 <inst_error>
    a410:	00000000 	nop
    a414:	00000000 	nop
    a418:	24150000 	li	s5,0
    a41c:	165519fd 	bne	s2,s5,10c14 <inst_error>
    a420:	00000000 	nop
    a424:	00000000 	nop
    a428:	3c0ca6d7 	lui	t4,0xa6d7
    a42c:	358cec3c 	ori	t4,t4,0xec3c
    a430:	3c0d7622 	lui	t5,0x7622
    a434:	35ad5f60 	ori	t5,t5,0x5f60
    a438:	24100000 	li	s0,0
    a43c:	10000016 	b	a498 <n30_bne_test+0xa498>
    a440:	24120000 	li	s2,0
    a444:	00000000 	nop
    a448:	3c10a6d7 	lui	s0,0xa6d7
    a44c:	15280023 	bne	t1,t0,a4dc <n30_bne_test+0xa4dc>
    a450:	3610ec3c 	ori	s0,s0,0xec3c
    a454:	10000023 	b	a4e4 <n30_bne_test+0xa4e4>
    a458:	00000000 	nop
    a45c:	00000000 	nop
    a460:	00000021 	move	zero,zero
    a464:	00000021 	move	zero,zero
    a468:	00000021 	move	zero,zero
    a46c:	00000021 	move	zero,zero
    a470:	00000021 	move	zero,zero
    a474:	00000021 	move	zero,zero
    a478:	00000021 	move	zero,zero
    a47c:	00000021 	move	zero,zero
    a480:	00000021 	move	zero,zero
    a484:	00000021 	move	zero,zero
    a488:	00000021 	move	zero,zero
    a48c:	00000021 	move	zero,zero
    a490:	00000021 	move	zero,zero
    a494:	00000021 	move	zero,zero
    a498:	3c086fa7 	lui	t0,0x6fa7
    a49c:	35080c9e 	ori	t0,t0,0xc9e
    a4a0:	3c096fa7 	lui	t1,0x6fa7
    a4a4:	35290c9e 	ori	t1,t1,0xc9e
    a4a8:	1509ffe7 	bne	t0,t1,a448 <n30_bne_test+0xa448>
    a4ac:	00000000 	nop
    a4b0:	1000000c 	b	a4e4 <n30_bne_test+0xa4e4>
    a4b4:	00000000 	nop
    a4b8:	00000000 	nop
    a4bc:	00000021 	move	zero,zero
    a4c0:	00000021 	move	zero,zero
    a4c4:	00000021 	move	zero,zero
    a4c8:	00000021 	move	zero,zero
    a4cc:	00000021 	move	zero,zero
    a4d0:	00000021 	move	zero,zero
    a4d4:	00000021 	move	zero,zero
    a4d8:	00000021 	move	zero,zero
    a4dc:	3c127622 	lui	s2,0x7622
    a4e0:	36525f60 	ori	s2,s2,0x5f60
    a4e4:	00000000 	nop
    a4e8:	24140000 	li	s4,0
    a4ec:	161419c9 	bne	s0,s4,10c14 <inst_error>
    a4f0:	00000000 	nop
    a4f4:	00000000 	nop
    a4f8:	24150000 	li	s5,0
    a4fc:	165519c5 	bne	s2,s5,10c14 <inst_error>
    a500:	00000000 	nop
    a504:	00000000 	nop
    a508:	3c0ccf6c 	lui	t4,0xcf6c
    a50c:	358c8ab8 	ori	t4,t4,0x8ab8
    a510:	3c0de2cb 	lui	t5,0xe2cb
    a514:	35ad10ee 	ori	t5,t5,0x10ee
    a518:	24100000 	li	s0,0
    a51c:	10000016 	b	a578 <n30_bne_test+0xa578>
    a520:	24120000 	li	s2,0
    a524:	00000000 	nop
    a528:	3c10cf6c 	lui	s0,0xcf6c
    a52c:	15280023 	bne	t1,t0,a5bc <n30_bne_test+0xa5bc>
    a530:	36108ab8 	ori	s0,s0,0x8ab8
    a534:	10000023 	b	a5c4 <n30_bne_test+0xa5c4>
    a538:	00000000 	nop
    a53c:	00000000 	nop
    a540:	00000021 	move	zero,zero
    a544:	00000021 	move	zero,zero
    a548:	00000021 	move	zero,zero
    a54c:	00000021 	move	zero,zero
    a550:	00000021 	move	zero,zero
    a554:	00000021 	move	zero,zero
    a558:	00000021 	move	zero,zero
    a55c:	00000021 	move	zero,zero
    a560:	00000021 	move	zero,zero
    a564:	00000021 	move	zero,zero
    a568:	00000021 	move	zero,zero
    a56c:	00000021 	move	zero,zero
    a570:	00000021 	move	zero,zero
    a574:	00000021 	move	zero,zero
    a578:	3c088d1a 	lui	t0,0x8d1a
    a57c:	350838fe 	ori	t0,t0,0x38fe
    a580:	3c098d1a 	lui	t1,0x8d1a
    a584:	352938fe 	ori	t1,t1,0x38fe
    a588:	1509ffe7 	bne	t0,t1,a528 <n30_bne_test+0xa528>
    a58c:	00000000 	nop
    a590:	1000000c 	b	a5c4 <n30_bne_test+0xa5c4>
    a594:	00000000 	nop
    a598:	00000000 	nop
    a59c:	00000021 	move	zero,zero
    a5a0:	00000021 	move	zero,zero
    a5a4:	00000021 	move	zero,zero
    a5a8:	00000021 	move	zero,zero
    a5ac:	00000021 	move	zero,zero
    a5b0:	00000021 	move	zero,zero
    a5b4:	00000021 	move	zero,zero
    a5b8:	00000021 	move	zero,zero
    a5bc:	3c12e2cb 	lui	s2,0xe2cb
    a5c0:	365210ee 	ori	s2,s2,0x10ee
    a5c4:	00000000 	nop
    a5c8:	24140000 	li	s4,0
    a5cc:	16141991 	bne	s0,s4,10c14 <inst_error>
    a5d0:	00000000 	nop
    a5d4:	00000000 	nop
    a5d8:	24150000 	li	s5,0
    a5dc:	1655198d 	bne	s2,s5,10c14 <inst_error>
    a5e0:	00000000 	nop
    a5e4:	00000000 	nop
    a5e8:	3c0cefa4 	lui	t4,0xefa4
    a5ec:	358cf26d 	ori	t4,t4,0xf26d
    a5f0:	3c0d8847 	lui	t5,0x8847
    a5f4:	35ad972e 	ori	t5,t5,0x972e
    a5f8:	24100000 	li	s0,0
    a5fc:	10000016 	b	a658 <n30_bne_test+0xa658>
    a600:	24120000 	li	s2,0
    a604:	00000000 	nop
    a608:	3c10efa4 	lui	s0,0xefa4
    a60c:	15280023 	bne	t1,t0,a69c <n30_bne_test+0xa69c>
    a610:	3610f26d 	ori	s0,s0,0xf26d
    a614:	10000023 	b	a6a4 <n30_bne_test+0xa6a4>
    a618:	00000000 	nop
    a61c:	00000000 	nop
    a620:	00000021 	move	zero,zero
    a624:	00000021 	move	zero,zero
    a628:	00000021 	move	zero,zero
    a62c:	00000021 	move	zero,zero
    a630:	00000021 	move	zero,zero
    a634:	00000021 	move	zero,zero
    a638:	00000021 	move	zero,zero
    a63c:	00000021 	move	zero,zero
    a640:	00000021 	move	zero,zero
    a644:	00000021 	move	zero,zero
    a648:	00000021 	move	zero,zero
    a64c:	00000021 	move	zero,zero
    a650:	00000021 	move	zero,zero
    a654:	00000021 	move	zero,zero
    a658:	3c08e97b 	lui	t0,0xe97b
    a65c:	3508eec0 	ori	t0,t0,0xeec0
    a660:	3c09e97b 	lui	t1,0xe97b
    a664:	3529eec0 	ori	t1,t1,0xeec0
    a668:	1509ffe7 	bne	t0,t1,a608 <n30_bne_test+0xa608>
    a66c:	00000000 	nop
    a670:	1000000c 	b	a6a4 <n30_bne_test+0xa6a4>
    a674:	00000000 	nop
    a678:	00000000 	nop
    a67c:	00000021 	move	zero,zero
    a680:	00000021 	move	zero,zero
    a684:	00000021 	move	zero,zero
    a688:	00000021 	move	zero,zero
    a68c:	00000021 	move	zero,zero
    a690:	00000021 	move	zero,zero
    a694:	00000021 	move	zero,zero
    a698:	00000021 	move	zero,zero
    a69c:	3c128847 	lui	s2,0x8847
    a6a0:	3652972e 	ori	s2,s2,0x972e
    a6a4:	00000000 	nop
    a6a8:	24140000 	li	s4,0
    a6ac:	16141959 	bne	s0,s4,10c14 <inst_error>
    a6b0:	00000000 	nop
    a6b4:	00000000 	nop
    a6b8:	24150000 	li	s5,0
    a6bc:	16551955 	bne	s2,s5,10c14 <inst_error>
    a6c0:	00000000 	nop
    a6c4:	00000000 	nop
    a6c8:	3c0c41f6 	lui	t4,0x41f6
    a6cc:	358c3748 	ori	t4,t4,0x3748
    a6d0:	3c0da409 	lui	t5,0xa409
    a6d4:	35ada87d 	ori	t5,t5,0xa87d
    a6d8:	24100000 	li	s0,0
    a6dc:	10000016 	b	a738 <n30_bne_test+0xa738>
    a6e0:	24120000 	li	s2,0
    a6e4:	00000000 	nop
    a6e8:	3c1041f6 	lui	s0,0x41f6
    a6ec:	15280023 	bne	t1,t0,a77c <n30_bne_test+0xa77c>
    a6f0:	36103748 	ori	s0,s0,0x3748
    a6f4:	10000023 	b	a784 <n30_bne_test+0xa784>
    a6f8:	00000000 	nop
    a6fc:	00000000 	nop
    a700:	00000021 	move	zero,zero
    a704:	00000021 	move	zero,zero
    a708:	00000021 	move	zero,zero
    a70c:	00000021 	move	zero,zero
    a710:	00000021 	move	zero,zero
    a714:	00000021 	move	zero,zero
    a718:	00000021 	move	zero,zero
    a71c:	00000021 	move	zero,zero
    a720:	00000021 	move	zero,zero
    a724:	00000021 	move	zero,zero
    a728:	00000021 	move	zero,zero
    a72c:	00000021 	move	zero,zero
    a730:	00000021 	move	zero,zero
    a734:	00000021 	move	zero,zero
    a738:	3c08dd07 	lui	t0,0xdd07
    a73c:	35085d7f 	ori	t0,t0,0x5d7f
    a740:	3c09dd07 	lui	t1,0xdd07
    a744:	35295d7f 	ori	t1,t1,0x5d7f
    a748:	1509ffe7 	bne	t0,t1,a6e8 <n30_bne_test+0xa6e8>
    a74c:	00000000 	nop
    a750:	1000000c 	b	a784 <n30_bne_test+0xa784>
    a754:	00000000 	nop
    a758:	00000000 	nop
    a75c:	00000021 	move	zero,zero
    a760:	00000021 	move	zero,zero
    a764:	00000021 	move	zero,zero
    a768:	00000021 	move	zero,zero
    a76c:	00000021 	move	zero,zero
    a770:	00000021 	move	zero,zero
    a774:	00000021 	move	zero,zero
    a778:	00000021 	move	zero,zero
    a77c:	3c12a409 	lui	s2,0xa409
    a780:	3652a87d 	ori	s2,s2,0xa87d
    a784:	00000000 	nop
    a788:	24140000 	li	s4,0
    a78c:	16141921 	bne	s0,s4,10c14 <inst_error>
    a790:	00000000 	nop
    a794:	00000000 	nop
    a798:	24150000 	li	s5,0
    a79c:	1655191d 	bne	s2,s5,10c14 <inst_error>
    a7a0:	00000000 	nop
    a7a4:	00000000 	nop
    a7a8:	3c0c4d0d 	lui	t4,0x4d0d
    a7ac:	358cd608 	ori	t4,t4,0xd608
    a7b0:	3c0dde6b 	lui	t5,0xde6b
    a7b4:	35ad9fe0 	ori	t5,t5,0x9fe0
    a7b8:	24100000 	li	s0,0
    a7bc:	10000016 	b	a818 <n30_bne_test+0xa818>
    a7c0:	24120000 	li	s2,0
    a7c4:	00000000 	nop
    a7c8:	3c104d0d 	lui	s0,0x4d0d
    a7cc:	15280023 	bne	t1,t0,a85c <n30_bne_test+0xa85c>
    a7d0:	3610d608 	ori	s0,s0,0xd608
    a7d4:	10000023 	b	a864 <n30_bne_test+0xa864>
    a7d8:	00000000 	nop
    a7dc:	00000000 	nop
    a7e0:	00000021 	move	zero,zero
    a7e4:	00000021 	move	zero,zero
    a7e8:	00000021 	move	zero,zero
    a7ec:	00000021 	move	zero,zero
    a7f0:	00000021 	move	zero,zero
    a7f4:	00000021 	move	zero,zero
    a7f8:	00000021 	move	zero,zero
    a7fc:	00000021 	move	zero,zero
    a800:	00000021 	move	zero,zero
    a804:	00000021 	move	zero,zero
    a808:	00000021 	move	zero,zero
    a80c:	00000021 	move	zero,zero
    a810:	00000021 	move	zero,zero
    a814:	00000021 	move	zero,zero
    a818:	3c08fe0e 	lui	t0,0xfe0e
    a81c:	35088813 	ori	t0,t0,0x8813
    a820:	3c09fe0e 	lui	t1,0xfe0e
    a824:	35298813 	ori	t1,t1,0x8813
    a828:	1509ffe7 	bne	t0,t1,a7c8 <n30_bne_test+0xa7c8>
    a82c:	00000000 	nop
    a830:	1000000c 	b	a864 <n30_bne_test+0xa864>
    a834:	00000000 	nop
    a838:	00000000 	nop
    a83c:	00000021 	move	zero,zero
    a840:	00000021 	move	zero,zero
    a844:	00000021 	move	zero,zero
    a848:	00000021 	move	zero,zero
    a84c:	00000021 	move	zero,zero
    a850:	00000021 	move	zero,zero
    a854:	00000021 	move	zero,zero
    a858:	00000021 	move	zero,zero
    a85c:	3c12de6b 	lui	s2,0xde6b
    a860:	36529fe0 	ori	s2,s2,0x9fe0
    a864:	00000000 	nop
    a868:	24140000 	li	s4,0
    a86c:	161418e9 	bne	s0,s4,10c14 <inst_error>
    a870:	00000000 	nop
    a874:	00000000 	nop
    a878:	24150000 	li	s5,0
    a87c:	165518e5 	bne	s2,s5,10c14 <inst_error>
    a880:	00000000 	nop
    a884:	00000000 	nop
    a888:	3c0c38df 	lui	t4,0x38df
    a88c:	358c4e4c 	ori	t4,t4,0x4e4c
    a890:	3c0d65dd 	lui	t5,0x65dd
    a894:	35ad29f8 	ori	t5,t5,0x29f8
    a898:	24100000 	li	s0,0
    a89c:	10000016 	b	a8f8 <n30_bne_test+0xa8f8>
    a8a0:	24120000 	li	s2,0
    a8a4:	00000000 	nop
    a8a8:	3c1038df 	lui	s0,0x38df
    a8ac:	15280023 	bne	t1,t0,a93c <n30_bne_test+0xa93c>
    a8b0:	36104e4c 	ori	s0,s0,0x4e4c
    a8b4:	10000023 	b	a944 <n30_bne_test+0xa944>
    a8b8:	00000000 	nop
    a8bc:	00000000 	nop
    a8c0:	00000021 	move	zero,zero
    a8c4:	00000021 	move	zero,zero
    a8c8:	00000021 	move	zero,zero
    a8cc:	00000021 	move	zero,zero
    a8d0:	00000021 	move	zero,zero
    a8d4:	00000021 	move	zero,zero
    a8d8:	00000021 	move	zero,zero
    a8dc:	00000021 	move	zero,zero
    a8e0:	00000021 	move	zero,zero
    a8e4:	00000021 	move	zero,zero
    a8e8:	00000021 	move	zero,zero
    a8ec:	00000021 	move	zero,zero
    a8f0:	00000021 	move	zero,zero
    a8f4:	00000021 	move	zero,zero
    a8f8:	3c08ede0 	lui	t0,0xede0
    a8fc:	350874e0 	ori	t0,t0,0x74e0
    a900:	3c09ede0 	lui	t1,0xede0
    a904:	352974e0 	ori	t1,t1,0x74e0
    a908:	1509ffe7 	bne	t0,t1,a8a8 <n30_bne_test+0xa8a8>
    a90c:	00000000 	nop
    a910:	1000000c 	b	a944 <n30_bne_test+0xa944>
    a914:	00000000 	nop
    a918:	00000000 	nop
    a91c:	00000021 	move	zero,zero
    a920:	00000021 	move	zero,zero
    a924:	00000021 	move	zero,zero
    a928:	00000021 	move	zero,zero
    a92c:	00000021 	move	zero,zero
    a930:	00000021 	move	zero,zero
    a934:	00000021 	move	zero,zero
    a938:	00000021 	move	zero,zero
    a93c:	3c1265dd 	lui	s2,0x65dd
    a940:	365229f8 	ori	s2,s2,0x29f8
    a944:	00000000 	nop
    a948:	24140000 	li	s4,0
    a94c:	161418b1 	bne	s0,s4,10c14 <inst_error>
    a950:	00000000 	nop
    a954:	00000000 	nop
    a958:	24150000 	li	s5,0
    a95c:	165518ad 	bne	s2,s5,10c14 <inst_error>
    a960:	00000000 	nop
    a964:	00000000 	nop
    a968:	3c0c570b 	lui	t4,0x570b
    a96c:	358cf47c 	ori	t4,t4,0xf47c
    a970:	3c0d28ce 	lui	t5,0x28ce
    a974:	35ad6e66 	ori	t5,t5,0x6e66
    a978:	24100000 	li	s0,0
    a97c:	10000016 	b	a9d8 <n30_bne_test+0xa9d8>
    a980:	24120000 	li	s2,0
    a984:	00000000 	nop
    a988:	3c10570b 	lui	s0,0x570b
    a98c:	15280023 	bne	t1,t0,aa1c <n30_bne_test+0xaa1c>
    a990:	3610f47c 	ori	s0,s0,0xf47c
    a994:	10000023 	b	aa24 <n30_bne_test+0xaa24>
    a998:	00000000 	nop
    a99c:	00000000 	nop
    a9a0:	00000021 	move	zero,zero
    a9a4:	00000021 	move	zero,zero
    a9a8:	00000021 	move	zero,zero
    a9ac:	00000021 	move	zero,zero
    a9b0:	00000021 	move	zero,zero
    a9b4:	00000021 	move	zero,zero
    a9b8:	00000021 	move	zero,zero
    a9bc:	00000021 	move	zero,zero
    a9c0:	00000021 	move	zero,zero
    a9c4:	00000021 	move	zero,zero
    a9c8:	00000021 	move	zero,zero
    a9cc:	00000021 	move	zero,zero
    a9d0:	00000021 	move	zero,zero
    a9d4:	00000021 	move	zero,zero
    a9d8:	3c085a2b 	lui	t0,0x5a2b
    a9dc:	3508b954 	ori	t0,t0,0xb954
    a9e0:	3c095a2b 	lui	t1,0x5a2b
    a9e4:	3529b954 	ori	t1,t1,0xb954
    a9e8:	1509ffe7 	bne	t0,t1,a988 <n30_bne_test+0xa988>
    a9ec:	00000000 	nop
    a9f0:	1000000c 	b	aa24 <n30_bne_test+0xaa24>
    a9f4:	00000000 	nop
    a9f8:	00000000 	nop
    a9fc:	00000021 	move	zero,zero
    aa00:	00000021 	move	zero,zero
    aa04:	00000021 	move	zero,zero
    aa08:	00000021 	move	zero,zero
    aa0c:	00000021 	move	zero,zero
    aa10:	00000021 	move	zero,zero
    aa14:	00000021 	move	zero,zero
    aa18:	00000021 	move	zero,zero
    aa1c:	3c1228ce 	lui	s2,0x28ce
    aa20:	36526e66 	ori	s2,s2,0x6e66
    aa24:	00000000 	nop
    aa28:	24140000 	li	s4,0
    aa2c:	16141879 	bne	s0,s4,10c14 <inst_error>
    aa30:	00000000 	nop
    aa34:	00000000 	nop
    aa38:	24150000 	li	s5,0
    aa3c:	16551875 	bne	s2,s5,10c14 <inst_error>
    aa40:	00000000 	nop
    aa44:	00000000 	nop
    aa48:	3c0c3770 	lui	t4,0x3770
    aa4c:	358cfb08 	ori	t4,t4,0xfb08
    aa50:	3c0dbbbf 	lui	t5,0xbbbf
    aa54:	35adbef8 	ori	t5,t5,0xbef8
    aa58:	24100000 	li	s0,0
    aa5c:	10000016 	b	aab8 <n30_bne_test+0xaab8>
    aa60:	24120000 	li	s2,0
    aa64:	00000000 	nop
    aa68:	3c103770 	lui	s0,0x3770
    aa6c:	15280023 	bne	t1,t0,aafc <n30_bne_test+0xaafc>
    aa70:	3610fb08 	ori	s0,s0,0xfb08
    aa74:	10000023 	b	ab04 <n30_bne_test+0xab04>
    aa78:	00000000 	nop
    aa7c:	00000000 	nop
    aa80:	00000021 	move	zero,zero
    aa84:	00000021 	move	zero,zero
    aa88:	00000021 	move	zero,zero
    aa8c:	00000021 	move	zero,zero
    aa90:	00000021 	move	zero,zero
    aa94:	00000021 	move	zero,zero
    aa98:	00000021 	move	zero,zero
    aa9c:	00000021 	move	zero,zero
    aaa0:	00000021 	move	zero,zero
    aaa4:	00000021 	move	zero,zero
    aaa8:	00000021 	move	zero,zero
    aaac:	00000021 	move	zero,zero
    aab0:	00000021 	move	zero,zero
    aab4:	00000021 	move	zero,zero
    aab8:	3c08ea36 	lui	t0,0xea36
    aabc:	3508ddd8 	ori	t0,t0,0xddd8
    aac0:	3c09ea36 	lui	t1,0xea36
    aac4:	3529ddd8 	ori	t1,t1,0xddd8
    aac8:	1509ffe7 	bne	t0,t1,aa68 <n30_bne_test+0xaa68>
    aacc:	00000000 	nop
    aad0:	1000000c 	b	ab04 <n30_bne_test+0xab04>
    aad4:	00000000 	nop
    aad8:	00000000 	nop
    aadc:	00000021 	move	zero,zero
    aae0:	00000021 	move	zero,zero
    aae4:	00000021 	move	zero,zero
    aae8:	00000021 	move	zero,zero
    aaec:	00000021 	move	zero,zero
    aaf0:	00000021 	move	zero,zero
    aaf4:	00000021 	move	zero,zero
    aaf8:	00000021 	move	zero,zero
    aafc:	3c12bbbf 	lui	s2,0xbbbf
    ab00:	3652bef8 	ori	s2,s2,0xbef8
    ab04:	00000000 	nop
    ab08:	24140000 	li	s4,0
    ab0c:	16141841 	bne	s0,s4,10c14 <inst_error>
    ab10:	00000000 	nop
    ab14:	00000000 	nop
    ab18:	24150000 	li	s5,0
    ab1c:	1655183d 	bne	s2,s5,10c14 <inst_error>
    ab20:	00000000 	nop
    ab24:	00000000 	nop
    ab28:	3c0cff5a 	lui	t4,0xff5a
    ab2c:	358ce000 	ori	t4,t4,0xe000
    ab30:	3c0d266f 	lui	t5,0x266f
    ab34:	35ad499e 	ori	t5,t5,0x499e
    ab38:	24100000 	li	s0,0
    ab3c:	10000016 	b	ab98 <n30_bne_test+0xab98>
    ab40:	24120000 	li	s2,0
    ab44:	00000000 	nop
    ab48:	3c10ff5a 	lui	s0,0xff5a
    ab4c:	15280023 	bne	t1,t0,abdc <n30_bne_test+0xabdc>
    ab50:	3610e000 	ori	s0,s0,0xe000
    ab54:	10000023 	b	abe4 <n30_bne_test+0xabe4>
    ab58:	00000000 	nop
    ab5c:	00000000 	nop
    ab60:	00000021 	move	zero,zero
    ab64:	00000021 	move	zero,zero
    ab68:	00000021 	move	zero,zero
    ab6c:	00000021 	move	zero,zero
    ab70:	00000021 	move	zero,zero
    ab74:	00000021 	move	zero,zero
    ab78:	00000021 	move	zero,zero
    ab7c:	00000021 	move	zero,zero
    ab80:	00000021 	move	zero,zero
    ab84:	00000021 	move	zero,zero
    ab88:	00000021 	move	zero,zero
    ab8c:	00000021 	move	zero,zero
    ab90:	00000021 	move	zero,zero
    ab94:	00000021 	move	zero,zero
    ab98:	3c0859c4 	lui	t0,0x59c4
    ab9c:	3508a701 	ori	t0,t0,0xa701
    aba0:	3c0959c4 	lui	t1,0x59c4
    aba4:	3529a701 	ori	t1,t1,0xa701
    aba8:	1509ffe7 	bne	t0,t1,ab48 <n30_bne_test+0xab48>
    abac:	00000000 	nop
    abb0:	1000000c 	b	abe4 <n30_bne_test+0xabe4>
    abb4:	00000000 	nop
    abb8:	00000000 	nop
    abbc:	00000021 	move	zero,zero
    abc0:	00000021 	move	zero,zero
    abc4:	00000021 	move	zero,zero
    abc8:	00000021 	move	zero,zero
    abcc:	00000021 	move	zero,zero
    abd0:	00000021 	move	zero,zero
    abd4:	00000021 	move	zero,zero
    abd8:	00000021 	move	zero,zero
    abdc:	3c12266f 	lui	s2,0x266f
    abe0:	3652499e 	ori	s2,s2,0x499e
    abe4:	00000000 	nop
    abe8:	24140000 	li	s4,0
    abec:	16141809 	bne	s0,s4,10c14 <inst_error>
    abf0:	00000000 	nop
    abf4:	00000000 	nop
    abf8:	24150000 	li	s5,0
    abfc:	16551805 	bne	s2,s5,10c14 <inst_error>
    ac00:	00000000 	nop
    ac04:	00000000 	nop
    ac08:	3c0c5f42 	lui	t4,0x5f42
    ac0c:	358cc0be 	ori	t4,t4,0xc0be
    ac10:	3c0d0d62 	lui	t5,0xd62
    ac14:	35ad6708 	ori	t5,t5,0x6708
    ac18:	24100000 	li	s0,0
    ac1c:	10000016 	b	ac78 <n30_bne_test+0xac78>
    ac20:	24120000 	li	s2,0
    ac24:	00000000 	nop
    ac28:	3c105f42 	lui	s0,0x5f42
    ac2c:	15280023 	bne	t1,t0,acbc <n30_bne_test+0xacbc>
    ac30:	3610c0be 	ori	s0,s0,0xc0be
    ac34:	10000023 	b	acc4 <n30_bne_test+0xacc4>
    ac38:	00000000 	nop
    ac3c:	00000000 	nop
    ac40:	00000021 	move	zero,zero
    ac44:	00000021 	move	zero,zero
    ac48:	00000021 	move	zero,zero
    ac4c:	00000021 	move	zero,zero
    ac50:	00000021 	move	zero,zero
    ac54:	00000021 	move	zero,zero
    ac58:	00000021 	move	zero,zero
    ac5c:	00000021 	move	zero,zero
    ac60:	00000021 	move	zero,zero
    ac64:	00000021 	move	zero,zero
    ac68:	00000021 	move	zero,zero
    ac6c:	00000021 	move	zero,zero
    ac70:	00000021 	move	zero,zero
    ac74:	00000021 	move	zero,zero
    ac78:	3c087843 	lui	t0,0x7843
    ac7c:	35083560 	ori	t0,t0,0x3560
    ac80:	3c097843 	lui	t1,0x7843
    ac84:	35293560 	ori	t1,t1,0x3560
    ac88:	1509ffe7 	bne	t0,t1,ac28 <n30_bne_test+0xac28>
    ac8c:	00000000 	nop
    ac90:	1000000c 	b	acc4 <n30_bne_test+0xacc4>
    ac94:	00000000 	nop
    ac98:	00000000 	nop
    ac9c:	00000021 	move	zero,zero
    aca0:	00000021 	move	zero,zero
    aca4:	00000021 	move	zero,zero
    aca8:	00000021 	move	zero,zero
    acac:	00000021 	move	zero,zero
    acb0:	00000021 	move	zero,zero
    acb4:	00000021 	move	zero,zero
    acb8:	00000021 	move	zero,zero
    acbc:	3c120d62 	lui	s2,0xd62
    acc0:	36526708 	ori	s2,s2,0x6708
    acc4:	00000000 	nop
    acc8:	24140000 	li	s4,0
    accc:	161417d1 	bne	s0,s4,10c14 <inst_error>
    acd0:	00000000 	nop
    acd4:	00000000 	nop
    acd8:	24150000 	li	s5,0
    acdc:	165517cd 	bne	s2,s5,10c14 <inst_error>
    ace0:	00000000 	nop
    ace4:	00000000 	nop
    ace8:	3c0c577d 	lui	t4,0x577d
    acec:	358c3f9c 	ori	t4,t4,0x3f9c
    acf0:	3c0d1963 	lui	t5,0x1963
    acf4:	35ad9580 	ori	t5,t5,0x9580
    acf8:	24100000 	li	s0,0
    acfc:	10000016 	b	ad58 <n30_bne_test+0xad58>
    ad00:	24120000 	li	s2,0
    ad04:	00000000 	nop
    ad08:	3c10577d 	lui	s0,0x577d
    ad0c:	15280023 	bne	t1,t0,ad9c <n30_bne_test+0xad9c>
    ad10:	36103f9c 	ori	s0,s0,0x3f9c
    ad14:	10000023 	b	ada4 <n30_bne_test+0xada4>
    ad18:	00000000 	nop
    ad1c:	00000000 	nop
    ad20:	00000021 	move	zero,zero
    ad24:	00000021 	move	zero,zero
    ad28:	00000021 	move	zero,zero
    ad2c:	00000021 	move	zero,zero
    ad30:	00000021 	move	zero,zero
    ad34:	00000021 	move	zero,zero
    ad38:	00000021 	move	zero,zero
    ad3c:	00000021 	move	zero,zero
    ad40:	00000021 	move	zero,zero
    ad44:	00000021 	move	zero,zero
    ad48:	00000021 	move	zero,zero
    ad4c:	00000021 	move	zero,zero
    ad50:	00000021 	move	zero,zero
    ad54:	00000021 	move	zero,zero
    ad58:	3c08fa04 	lui	t0,0xfa04
    ad5c:	35088400 	ori	t0,t0,0x8400
    ad60:	3c09fa04 	lui	t1,0xfa04
    ad64:	35298400 	ori	t1,t1,0x8400
    ad68:	1509ffe7 	bne	t0,t1,ad08 <n30_bne_test+0xad08>
    ad6c:	00000000 	nop
    ad70:	1000000c 	b	ada4 <n30_bne_test+0xada4>
    ad74:	00000000 	nop
    ad78:	00000000 	nop
    ad7c:	00000021 	move	zero,zero
    ad80:	00000021 	move	zero,zero
    ad84:	00000021 	move	zero,zero
    ad88:	00000021 	move	zero,zero
    ad8c:	00000021 	move	zero,zero
    ad90:	00000021 	move	zero,zero
    ad94:	00000021 	move	zero,zero
    ad98:	00000021 	move	zero,zero
    ad9c:	3c121963 	lui	s2,0x1963
    ada0:	36529580 	ori	s2,s2,0x9580
    ada4:	00000000 	nop
    ada8:	24140000 	li	s4,0
    adac:	16141799 	bne	s0,s4,10c14 <inst_error>
    adb0:	00000000 	nop
    adb4:	00000000 	nop
    adb8:	24150000 	li	s5,0
    adbc:	16551795 	bne	s2,s5,10c14 <inst_error>
    adc0:	00000000 	nop
    adc4:	00000000 	nop
    adc8:	3c0ce1bb 	lui	t4,0xe1bb
    adcc:	358caa30 	ori	t4,t4,0xaa30
    add0:	3c0d6f70 	lui	t5,0x6f70
    add4:	35ad86d8 	ori	t5,t5,0x86d8
    add8:	24100000 	li	s0,0
    addc:	10000016 	b	ae38 <n30_bne_test+0xae38>
    ade0:	24120000 	li	s2,0
    ade4:	00000000 	nop
    ade8:	3c10e1bb 	lui	s0,0xe1bb
    adec:	15280023 	bne	t1,t0,ae7c <n30_bne_test+0xae7c>
    adf0:	3610aa30 	ori	s0,s0,0xaa30
    adf4:	10000023 	b	ae84 <n30_bne_test+0xae84>
    adf8:	00000000 	nop
    adfc:	00000000 	nop
    ae00:	00000021 	move	zero,zero
    ae04:	00000021 	move	zero,zero
    ae08:	00000021 	move	zero,zero
    ae0c:	00000021 	move	zero,zero
    ae10:	00000021 	move	zero,zero
    ae14:	00000021 	move	zero,zero
    ae18:	00000021 	move	zero,zero
    ae1c:	00000021 	move	zero,zero
    ae20:	00000021 	move	zero,zero
    ae24:	00000021 	move	zero,zero
    ae28:	00000021 	move	zero,zero
    ae2c:	00000021 	move	zero,zero
    ae30:	00000021 	move	zero,zero
    ae34:	00000021 	move	zero,zero
    ae38:	3c080c3b 	lui	t0,0xc3b
    ae3c:	35087e40 	ori	t0,t0,0x7e40
    ae40:	3c090c3b 	lui	t1,0xc3b
    ae44:	35297e40 	ori	t1,t1,0x7e40
    ae48:	1509ffe7 	bne	t0,t1,ade8 <n30_bne_test+0xade8>
    ae4c:	00000000 	nop
    ae50:	1000000c 	b	ae84 <n30_bne_test+0xae84>
    ae54:	00000000 	nop
    ae58:	00000000 	nop
    ae5c:	00000021 	move	zero,zero
    ae60:	00000021 	move	zero,zero
    ae64:	00000021 	move	zero,zero
    ae68:	00000021 	move	zero,zero
    ae6c:	00000021 	move	zero,zero
    ae70:	00000021 	move	zero,zero
    ae74:	00000021 	move	zero,zero
    ae78:	00000021 	move	zero,zero
    ae7c:	3c126f70 	lui	s2,0x6f70
    ae80:	365286d8 	ori	s2,s2,0x86d8
    ae84:	00000000 	nop
    ae88:	24140000 	li	s4,0
    ae8c:	16141761 	bne	s0,s4,10c14 <inst_error>
    ae90:	00000000 	nop
    ae94:	00000000 	nop
    ae98:	24150000 	li	s5,0
    ae9c:	1655175d 	bne	s2,s5,10c14 <inst_error>
    aea0:	00000000 	nop
    aea4:	00000000 	nop
    aea8:	3c0c8988 	lui	t4,0x8988
    aeac:	358c455c 	ori	t4,t4,0x455c
    aeb0:	3c0d009f 	lui	t5,0x9f
    aeb4:	35ad91a4 	ori	t5,t5,0x91a4
    aeb8:	24100000 	li	s0,0
    aebc:	10000016 	b	af18 <n30_bne_test+0xaf18>
    aec0:	24120000 	li	s2,0
    aec4:	00000000 	nop
    aec8:	3c108988 	lui	s0,0x8988
    aecc:	15280023 	bne	t1,t0,af5c <n30_bne_test+0xaf5c>
    aed0:	3610455c 	ori	s0,s0,0x455c
    aed4:	10000023 	b	af64 <n30_bne_test+0xaf64>
    aed8:	00000000 	nop
    aedc:	00000000 	nop
    aee0:	00000021 	move	zero,zero
    aee4:	00000021 	move	zero,zero
    aee8:	00000021 	move	zero,zero
    aeec:	00000021 	move	zero,zero
    aef0:	00000021 	move	zero,zero
    aef4:	00000021 	move	zero,zero
    aef8:	00000021 	move	zero,zero
    aefc:	00000021 	move	zero,zero
    af00:	00000021 	move	zero,zero
    af04:	00000021 	move	zero,zero
    af08:	00000021 	move	zero,zero
    af0c:	00000021 	move	zero,zero
    af10:	00000021 	move	zero,zero
    af14:	00000021 	move	zero,zero
    af18:	3c08d27e 	lui	t0,0xd27e
    af1c:	35085a00 	ori	t0,t0,0x5a00
    af20:	3c09d27e 	lui	t1,0xd27e
    af24:	35295a00 	ori	t1,t1,0x5a00
    af28:	1509ffe7 	bne	t0,t1,aec8 <n30_bne_test+0xaec8>
    af2c:	00000000 	nop
    af30:	1000000c 	b	af64 <n30_bne_test+0xaf64>
    af34:	00000000 	nop
    af38:	00000000 	nop
    af3c:	00000021 	move	zero,zero
    af40:	00000021 	move	zero,zero
    af44:	00000021 	move	zero,zero
    af48:	00000021 	move	zero,zero
    af4c:	00000021 	move	zero,zero
    af50:	00000021 	move	zero,zero
    af54:	00000021 	move	zero,zero
    af58:	00000021 	move	zero,zero
    af5c:	3c12009f 	lui	s2,0x9f
    af60:	365291a4 	ori	s2,s2,0x91a4
    af64:	00000000 	nop
    af68:	24140000 	li	s4,0
    af6c:	16141729 	bne	s0,s4,10c14 <inst_error>
    af70:	00000000 	nop
    af74:	00000000 	nop
    af78:	24150000 	li	s5,0
    af7c:	16551725 	bne	s2,s5,10c14 <inst_error>
    af80:	00000000 	nop
    af84:	00000000 	nop
    af88:	3c0c4ad4 	lui	t4,0x4ad4
    af8c:	358c4d00 	ori	t4,t4,0x4d00
    af90:	3c0dbb62 	lui	t5,0xbb62
    af94:	35adaa40 	ori	t5,t5,0xaa40
    af98:	24100000 	li	s0,0
    af9c:	10000016 	b	aff8 <n30_bne_test+0xaff8>
    afa0:	24120000 	li	s2,0
    afa4:	00000000 	nop
    afa8:	3c104ad4 	lui	s0,0x4ad4
    afac:	15280023 	bne	t1,t0,b03c <n30_bne_test+0xb03c>
    afb0:	36104d00 	ori	s0,s0,0x4d00
    afb4:	10000023 	b	b044 <n30_bne_test+0xb044>
    afb8:	00000000 	nop
    afbc:	00000000 	nop
    afc0:	00000021 	move	zero,zero
    afc4:	00000021 	move	zero,zero
    afc8:	00000021 	move	zero,zero
    afcc:	00000021 	move	zero,zero
    afd0:	00000021 	move	zero,zero
    afd4:	00000021 	move	zero,zero
    afd8:	00000021 	move	zero,zero
    afdc:	00000021 	move	zero,zero
    afe0:	00000021 	move	zero,zero
    afe4:	00000021 	move	zero,zero
    afe8:	00000021 	move	zero,zero
    afec:	00000021 	move	zero,zero
    aff0:	00000021 	move	zero,zero
    aff4:	00000021 	move	zero,zero
    aff8:	3c08dc08 	lui	t0,0xdc08
    affc:	3508df40 	ori	t0,t0,0xdf40
    b000:	3c09dc08 	lui	t1,0xdc08
    b004:	3529df40 	ori	t1,t1,0xdf40
    b008:	1509ffe7 	bne	t0,t1,afa8 <n30_bne_test+0xafa8>
    b00c:	00000000 	nop
    b010:	1000000c 	b	b044 <n30_bne_test+0xb044>
    b014:	00000000 	nop
    b018:	00000000 	nop
    b01c:	00000021 	move	zero,zero
    b020:	00000021 	move	zero,zero
    b024:	00000021 	move	zero,zero
    b028:	00000021 	move	zero,zero
    b02c:	00000021 	move	zero,zero
    b030:	00000021 	move	zero,zero
    b034:	00000021 	move	zero,zero
    b038:	00000021 	move	zero,zero
    b03c:	3c12bb62 	lui	s2,0xbb62
    b040:	3652aa40 	ori	s2,s2,0xaa40
    b044:	00000000 	nop
    b048:	24140000 	li	s4,0
    b04c:	161416f1 	bne	s0,s4,10c14 <inst_error>
    b050:	00000000 	nop
    b054:	00000000 	nop
    b058:	24150000 	li	s5,0
    b05c:	165516ed 	bne	s2,s5,10c14 <inst_error>
    b060:	00000000 	nop
    b064:	00000000 	nop
    b068:	3c0c4dc9 	lui	t4,0x4dc9
    b06c:	358c1b40 	ori	t4,t4,0x1b40
    b070:	3c0d9613 	lui	t5,0x9613
    b074:	35ade98e 	ori	t5,t5,0xe98e
    b078:	24100000 	li	s0,0
    b07c:	10000016 	b	b0d8 <n30_bne_test+0xb0d8>
    b080:	24120000 	li	s2,0
    b084:	00000000 	nop
    b088:	3c104dc9 	lui	s0,0x4dc9
    b08c:	15280023 	bne	t1,t0,b11c <n30_bne_test+0xb11c>
    b090:	36101b40 	ori	s0,s0,0x1b40
    b094:	10000023 	b	b124 <n30_bne_test+0xb124>
    b098:	00000000 	nop
    b09c:	00000000 	nop
    b0a0:	00000021 	move	zero,zero
    b0a4:	00000021 	move	zero,zero
    b0a8:	00000021 	move	zero,zero
    b0ac:	00000021 	move	zero,zero
    b0b0:	00000021 	move	zero,zero
    b0b4:	00000021 	move	zero,zero
    b0b8:	00000021 	move	zero,zero
    b0bc:	00000021 	move	zero,zero
    b0c0:	00000021 	move	zero,zero
    b0c4:	00000021 	move	zero,zero
    b0c8:	00000021 	move	zero,zero
    b0cc:	00000021 	move	zero,zero
    b0d0:	00000021 	move	zero,zero
    b0d4:	00000021 	move	zero,zero
    b0d8:	3c08f3d5 	lui	t0,0xf3d5
    b0dc:	3508dd00 	ori	t0,t0,0xdd00
    b0e0:	3c09f3d5 	lui	t1,0xf3d5
    b0e4:	3529dd00 	ori	t1,t1,0xdd00
    b0e8:	1509ffe7 	bne	t0,t1,b088 <n30_bne_test+0xb088>
    b0ec:	00000000 	nop
    b0f0:	1000000c 	b	b124 <n30_bne_test+0xb124>
    b0f4:	00000000 	nop
    b0f8:	00000000 	nop
    b0fc:	00000021 	move	zero,zero
    b100:	00000021 	move	zero,zero
    b104:	00000021 	move	zero,zero
    b108:	00000021 	move	zero,zero
    b10c:	00000021 	move	zero,zero
    b110:	00000021 	move	zero,zero
    b114:	00000021 	move	zero,zero
    b118:	00000021 	move	zero,zero
    b11c:	3c129613 	lui	s2,0x9613
    b120:	3652e98e 	ori	s2,s2,0xe98e
    b124:	00000000 	nop
    b128:	24140000 	li	s4,0
    b12c:	161416b9 	bne	s0,s4,10c14 <inst_error>
    b130:	00000000 	nop
    b134:	00000000 	nop
    b138:	24150000 	li	s5,0
    b13c:	165516b5 	bne	s2,s5,10c14 <inst_error>
    b140:	00000000 	nop
    b144:	00000000 	nop
    b148:	3c0cc7f7 	lui	t4,0xc7f7
    b14c:	358c4069 	ori	t4,t4,0x4069
    b150:	3c0dd22b 	lui	t5,0xd22b
    b154:	35ad57c8 	ori	t5,t5,0x57c8
    b158:	24100000 	li	s0,0
    b15c:	10000016 	b	b1b8 <n30_bne_test+0xb1b8>
    b160:	24120000 	li	s2,0
    b164:	00000000 	nop
    b168:	3c10c7f7 	lui	s0,0xc7f7
    b16c:	15280023 	bne	t1,t0,b1fc <n30_bne_test+0xb1fc>
    b170:	36104069 	ori	s0,s0,0x4069
    b174:	10000023 	b	b204 <n30_bne_test+0xb204>
    b178:	00000000 	nop
    b17c:	00000000 	nop
    b180:	00000021 	move	zero,zero
    b184:	00000021 	move	zero,zero
    b188:	00000021 	move	zero,zero
    b18c:	00000021 	move	zero,zero
    b190:	00000021 	move	zero,zero
    b194:	00000021 	move	zero,zero
    b198:	00000021 	move	zero,zero
    b19c:	00000021 	move	zero,zero
    b1a0:	00000021 	move	zero,zero
    b1a4:	00000021 	move	zero,zero
    b1a8:	00000021 	move	zero,zero
    b1ac:	00000021 	move	zero,zero
    b1b0:	00000021 	move	zero,zero
    b1b4:	00000021 	move	zero,zero
    b1b8:	3c087cb1 	lui	t0,0x7cb1
    b1bc:	3508dcd4 	ori	t0,t0,0xdcd4
    b1c0:	3c097cb1 	lui	t1,0x7cb1
    b1c4:	3529dcd4 	ori	t1,t1,0xdcd4
    b1c8:	1509ffe7 	bne	t0,t1,b168 <n30_bne_test+0xb168>
    b1cc:	00000000 	nop
    b1d0:	1000000c 	b	b204 <n30_bne_test+0xb204>
    b1d4:	00000000 	nop
    b1d8:	00000000 	nop
    b1dc:	00000021 	move	zero,zero
    b1e0:	00000021 	move	zero,zero
    b1e4:	00000021 	move	zero,zero
    b1e8:	00000021 	move	zero,zero
    b1ec:	00000021 	move	zero,zero
    b1f0:	00000021 	move	zero,zero
    b1f4:	00000021 	move	zero,zero
    b1f8:	00000021 	move	zero,zero
    b1fc:	3c12d22b 	lui	s2,0xd22b
    b200:	365257c8 	ori	s2,s2,0x57c8
    b204:	00000000 	nop
    b208:	24140000 	li	s4,0
    b20c:	16141681 	bne	s0,s4,10c14 <inst_error>
    b210:	00000000 	nop
    b214:	00000000 	nop
    b218:	24150000 	li	s5,0
    b21c:	1655167d 	bne	s2,s5,10c14 <inst_error>
    b220:	00000000 	nop
    b224:	00000000 	nop
    b228:	3c0cb206 	lui	t4,0xb206
    b22c:	358cba26 	ori	t4,t4,0xba26
    b230:	3c0dbdee 	lui	t5,0xbdee
    b234:	35add800 	ori	t5,t5,0xd800
    b238:	24100000 	li	s0,0
    b23c:	10000016 	b	b298 <n30_bne_test+0xb298>
    b240:	24120000 	li	s2,0
    b244:	00000000 	nop
    b248:	3c10b206 	lui	s0,0xb206
    b24c:	15280022 	bne	t1,t0,b2d8 <n30_bne_test+0xb2d8>
    b250:	3610ba26 	ori	s0,s0,0xba26
    b254:	10000022 	b	b2e0 <n30_bne_test+0xb2e0>
    b258:	00000000 	nop
    b25c:	00000000 	nop
    b260:	00000021 	move	zero,zero
    b264:	00000021 	move	zero,zero
    b268:	00000021 	move	zero,zero
    b26c:	00000021 	move	zero,zero
    b270:	00000021 	move	zero,zero
    b274:	00000021 	move	zero,zero
    b278:	00000021 	move	zero,zero
    b27c:	00000021 	move	zero,zero
    b280:	00000021 	move	zero,zero
    b284:	00000021 	move	zero,zero
    b288:	00000021 	move	zero,zero
    b28c:	00000021 	move	zero,zero
    b290:	00000021 	move	zero,zero
    b294:	00000021 	move	zero,zero
    b298:	3c08aa8b 	lui	t0,0xaa8b
    b29c:	35087550 	ori	t0,t0,0x7550
    b2a0:	24090000 	li	t1,0
    b2a4:	1509ffe8 	bne	t0,t1,b248 <n30_bne_test+0xb248>
    b2a8:	00000000 	nop
    b2ac:	1000000c 	b	b2e0 <n30_bne_test+0xb2e0>
    b2b0:	00000000 	nop
    b2b4:	00000000 	nop
    b2b8:	00000021 	move	zero,zero
    b2bc:	00000021 	move	zero,zero
    b2c0:	00000021 	move	zero,zero
    b2c4:	00000021 	move	zero,zero
    b2c8:	00000021 	move	zero,zero
    b2cc:	00000021 	move	zero,zero
    b2d0:	00000021 	move	zero,zero
    b2d4:	00000021 	move	zero,zero
    b2d8:	3c12bdee 	lui	s2,0xbdee
    b2dc:	3652d800 	ori	s2,s2,0xd800
    b2e0:	00000000 	nop
    b2e4:	3c14b206 	lui	s4,0xb206
    b2e8:	3694ba26 	ori	s4,s4,0xba26
    b2ec:	16141649 	bne	s0,s4,10c14 <inst_error>
    b2f0:	00000000 	nop
    b2f4:	00000000 	nop
    b2f8:	3c15bdee 	lui	s5,0xbdee
    b2fc:	36b5d800 	ori	s5,s5,0xd800
    b300:	16551644 	bne	s2,s5,10c14 <inst_error>
    b304:	00000000 	nop
    b308:	00000000 	nop
    b30c:	3c0ceeff 	lui	t4,0xeeff
    b310:	358c8e78 	ori	t4,t4,0x8e78
    b314:	3c0d99be 	lui	t5,0x99be
    b318:	35ad0628 	ori	t5,t5,0x628
    b31c:	24100000 	li	s0,0
    b320:	10000016 	b	b37c <n30_bne_test+0xb37c>
    b324:	24120000 	li	s2,0
    b328:	00000000 	nop
    b32c:	3c10eeff 	lui	s0,0xeeff
    b330:	15280022 	bne	t1,t0,b3bc <n30_bne_test+0xb3bc>
    b334:	36108e78 	ori	s0,s0,0x8e78
    b338:	10000022 	b	b3c4 <n30_bne_test+0xb3c4>
    b33c:	00000000 	nop
    b340:	00000000 	nop
    b344:	00000021 	move	zero,zero
    b348:	00000021 	move	zero,zero
    b34c:	00000021 	move	zero,zero
    b350:	00000021 	move	zero,zero
    b354:	00000021 	move	zero,zero
    b358:	00000021 	move	zero,zero
    b35c:	00000021 	move	zero,zero
    b360:	00000021 	move	zero,zero
    b364:	00000021 	move	zero,zero
    b368:	00000021 	move	zero,zero
    b36c:	00000021 	move	zero,zero
    b370:	00000021 	move	zero,zero
    b374:	00000021 	move	zero,zero
    b378:	00000021 	move	zero,zero
    b37c:	3c08cf8a 	lui	t0,0xcf8a
    b380:	35084898 	ori	t0,t0,0x4898
    b384:	24090000 	li	t1,0
    b388:	1509ffe8 	bne	t0,t1,b32c <n30_bne_test+0xb32c>
    b38c:	00000000 	nop
    b390:	1000000c 	b	b3c4 <n30_bne_test+0xb3c4>
    b394:	00000000 	nop
    b398:	00000000 	nop
    b39c:	00000021 	move	zero,zero
    b3a0:	00000021 	move	zero,zero
    b3a4:	00000021 	move	zero,zero
    b3a8:	00000021 	move	zero,zero
    b3ac:	00000021 	move	zero,zero
    b3b0:	00000021 	move	zero,zero
    b3b4:	00000021 	move	zero,zero
    b3b8:	00000021 	move	zero,zero
    b3bc:	3c1299be 	lui	s2,0x99be
    b3c0:	36520628 	ori	s2,s2,0x628
    b3c4:	00000000 	nop
    b3c8:	3c14eeff 	lui	s4,0xeeff
    b3cc:	36948e78 	ori	s4,s4,0x8e78
    b3d0:	16141610 	bne	s0,s4,10c14 <inst_error>
    b3d4:	00000000 	nop
    b3d8:	00000000 	nop
    b3dc:	3c1599be 	lui	s5,0x99be
    b3e0:	36b50628 	ori	s5,s5,0x628
    b3e4:	1655160b 	bne	s2,s5,10c14 <inst_error>
    b3e8:	00000000 	nop
    b3ec:	00000000 	nop
    b3f0:	3c0c8de2 	lui	t4,0x8de2
    b3f4:	358ca8f8 	ori	t4,t4,0xa8f8
    b3f8:	3c0d4666 	lui	t5,0x4666
    b3fc:	35adff30 	ori	t5,t5,0xff30
    b400:	24100000 	li	s0,0
    b404:	10000016 	b	b460 <n30_bne_test+0xb460>
    b408:	24120000 	li	s2,0
    b40c:	00000000 	nop
    b410:	3c108de2 	lui	s0,0x8de2
    b414:	15280022 	bne	t1,t0,b4a0 <n30_bne_test+0xb4a0>
    b418:	3610a8f8 	ori	s0,s0,0xa8f8
    b41c:	10000022 	b	b4a8 <n30_bne_test+0xb4a8>
    b420:	00000000 	nop
    b424:	00000000 	nop
    b428:	00000021 	move	zero,zero
    b42c:	00000021 	move	zero,zero
    b430:	00000021 	move	zero,zero
    b434:	00000021 	move	zero,zero
    b438:	00000021 	move	zero,zero
    b43c:	00000021 	move	zero,zero
    b440:	00000021 	move	zero,zero
    b444:	00000021 	move	zero,zero
    b448:	00000021 	move	zero,zero
    b44c:	00000021 	move	zero,zero
    b450:	00000021 	move	zero,zero
    b454:	00000021 	move	zero,zero
    b458:	00000021 	move	zero,zero
    b45c:	00000021 	move	zero,zero
    b460:	3c089169 	lui	t0,0x9169
    b464:	3508d4e6 	ori	t0,t0,0xd4e6
    b468:	24090000 	li	t1,0
    b46c:	1509ffe8 	bne	t0,t1,b410 <n30_bne_test+0xb410>
    b470:	00000000 	nop
    b474:	1000000c 	b	b4a8 <n30_bne_test+0xb4a8>
    b478:	00000000 	nop
    b47c:	00000000 	nop
    b480:	00000021 	move	zero,zero
    b484:	00000021 	move	zero,zero
    b488:	00000021 	move	zero,zero
    b48c:	00000021 	move	zero,zero
    b490:	00000021 	move	zero,zero
    b494:	00000021 	move	zero,zero
    b498:	00000021 	move	zero,zero
    b49c:	00000021 	move	zero,zero
    b4a0:	3c124666 	lui	s2,0x4666
    b4a4:	3652ff30 	ori	s2,s2,0xff30
    b4a8:	00000000 	nop
    b4ac:	3c148de2 	lui	s4,0x8de2
    b4b0:	3694a8f8 	ori	s4,s4,0xa8f8
    b4b4:	161415d7 	bne	s0,s4,10c14 <inst_error>
    b4b8:	00000000 	nop
    b4bc:	00000000 	nop
    b4c0:	3c154666 	lui	s5,0x4666
    b4c4:	36b5ff30 	ori	s5,s5,0xff30
    b4c8:	165515d2 	bne	s2,s5,10c14 <inst_error>
    b4cc:	00000000 	nop
    b4d0:	00000000 	nop
    b4d4:	3c0cf914 	lui	t4,0xf914
    b4d8:	358ce5f0 	ori	t4,t4,0xe5f0
    b4dc:	3c0dbfc0 	lui	t5,0xbfc0
    b4e0:	35ad2728 	ori	t5,t5,0x2728
    b4e4:	24100000 	li	s0,0
    b4e8:	10000016 	b	b544 <n30_bne_test+0xb544>
    b4ec:	24120000 	li	s2,0
    b4f0:	00000000 	nop
    b4f4:	3c10f914 	lui	s0,0xf914
    b4f8:	15280022 	bne	t1,t0,b584 <n30_bne_test+0xb584>
    b4fc:	3610e5f0 	ori	s0,s0,0xe5f0
    b500:	10000022 	b	b58c <n30_bne_test+0xb58c>
    b504:	00000000 	nop
    b508:	00000000 	nop
    b50c:	00000021 	move	zero,zero
    b510:	00000021 	move	zero,zero
    b514:	00000021 	move	zero,zero
    b518:	00000021 	move	zero,zero
    b51c:	00000021 	move	zero,zero
    b520:	00000021 	move	zero,zero
    b524:	00000021 	move	zero,zero
    b528:	00000021 	move	zero,zero
    b52c:	00000021 	move	zero,zero
    b530:	00000021 	move	zero,zero
    b534:	00000021 	move	zero,zero
    b538:	00000021 	move	zero,zero
    b53c:	00000021 	move	zero,zero
    b540:	00000021 	move	zero,zero
    b544:	3c088c72 	lui	t0,0x8c72
    b548:	35087392 	ori	t0,t0,0x7392
    b54c:	24090000 	li	t1,0
    b550:	1509ffe8 	bne	t0,t1,b4f4 <n30_bne_test+0xb4f4>
    b554:	00000000 	nop
    b558:	1000000c 	b	b58c <n30_bne_test+0xb58c>
    b55c:	00000000 	nop
    b560:	00000000 	nop
    b564:	00000021 	move	zero,zero
    b568:	00000021 	move	zero,zero
    b56c:	00000021 	move	zero,zero
    b570:	00000021 	move	zero,zero
    b574:	00000021 	move	zero,zero
    b578:	00000021 	move	zero,zero
    b57c:	00000021 	move	zero,zero
    b580:	00000021 	move	zero,zero
    b584:	3c12bfc0 	lui	s2,0xbfc0
    b588:	36522728 	ori	s2,s2,0x2728
    b58c:	00000000 	nop
    b590:	3c14f914 	lui	s4,0xf914
    b594:	3694e5f0 	ori	s4,s4,0xe5f0
    b598:	1614159e 	bne	s0,s4,10c14 <inst_error>
    b59c:	00000000 	nop
    b5a0:	00000000 	nop
    b5a4:	3c15bfc0 	lui	s5,0xbfc0
    b5a8:	36b52728 	ori	s5,s5,0x2728
    b5ac:	16551599 	bne	s2,s5,10c14 <inst_error>
    b5b0:	00000000 	nop
    b5b4:	00000000 	nop
    b5b8:	3c0cf0b7 	lui	t4,0xf0b7
    b5bc:	358cfb80 	ori	t4,t4,0xfb80
    b5c0:	3c0d34d4 	lui	t5,0x34d4
    b5c4:	35ad39e0 	ori	t5,t5,0x39e0
    b5c8:	24100000 	li	s0,0
    b5cc:	10000016 	b	b628 <n30_bne_test+0xb628>
    b5d0:	24120000 	li	s2,0
    b5d4:	00000000 	nop
    b5d8:	3c10f0b7 	lui	s0,0xf0b7
    b5dc:	15280022 	bne	t1,t0,b668 <n30_bne_test+0xb668>
    b5e0:	3610fb80 	ori	s0,s0,0xfb80
    b5e4:	10000022 	b	b670 <n30_bne_test+0xb670>
    b5e8:	00000000 	nop
    b5ec:	00000000 	nop
    b5f0:	00000021 	move	zero,zero
    b5f4:	00000021 	move	zero,zero
    b5f8:	00000021 	move	zero,zero
    b5fc:	00000021 	move	zero,zero
    b600:	00000021 	move	zero,zero
    b604:	00000021 	move	zero,zero
    b608:	00000021 	move	zero,zero
    b60c:	00000021 	move	zero,zero
    b610:	00000021 	move	zero,zero
    b614:	00000021 	move	zero,zero
    b618:	00000021 	move	zero,zero
    b61c:	00000021 	move	zero,zero
    b620:	00000021 	move	zero,zero
    b624:	00000021 	move	zero,zero
    b628:	3c08b4e2 	lui	t0,0xb4e2
    b62c:	3508d6c0 	ori	t0,t0,0xd6c0
    b630:	24090000 	li	t1,0
    b634:	1509ffe8 	bne	t0,t1,b5d8 <n30_bne_test+0xb5d8>
    b638:	00000000 	nop
    b63c:	1000000c 	b	b670 <n30_bne_test+0xb670>
    b640:	00000000 	nop
    b644:	00000000 	nop
    b648:	00000021 	move	zero,zero
    b64c:	00000021 	move	zero,zero
    b650:	00000021 	move	zero,zero
    b654:	00000021 	move	zero,zero
    b658:	00000021 	move	zero,zero
    b65c:	00000021 	move	zero,zero
    b660:	00000021 	move	zero,zero
    b664:	00000021 	move	zero,zero
    b668:	3c1234d4 	lui	s2,0x34d4
    b66c:	365239e0 	ori	s2,s2,0x39e0
    b670:	00000000 	nop
    b674:	3c14f0b7 	lui	s4,0xf0b7
    b678:	3694fb80 	ori	s4,s4,0xfb80
    b67c:	16141565 	bne	s0,s4,10c14 <inst_error>
    b680:	00000000 	nop
    b684:	00000000 	nop
    b688:	3c1534d4 	lui	s5,0x34d4
    b68c:	36b539e0 	ori	s5,s5,0x39e0
    b690:	16551560 	bne	s2,s5,10c14 <inst_error>
    b694:	00000000 	nop
    b698:	00000000 	nop
    b69c:	3c0c3aa0 	lui	t4,0x3aa0
    b6a0:	358c2880 	ori	t4,t4,0x2880
    b6a4:	3c0d9516 	lui	t5,0x9516
    b6a8:	35ad1fc6 	ori	t5,t5,0x1fc6
    b6ac:	24100000 	li	s0,0
    b6b0:	10000016 	b	b70c <n30_bne_test+0xb70c>
    b6b4:	24120000 	li	s2,0
    b6b8:	00000000 	nop
    b6bc:	3c103aa0 	lui	s0,0x3aa0
    b6c0:	15280022 	bne	t1,t0,b74c <n30_bne_test+0xb74c>
    b6c4:	36102880 	ori	s0,s0,0x2880
    b6c8:	10000022 	b	b754 <n30_bne_test+0xb754>
    b6cc:	00000000 	nop
    b6d0:	00000000 	nop
    b6d4:	00000021 	move	zero,zero
    b6d8:	00000021 	move	zero,zero
    b6dc:	00000021 	move	zero,zero
    b6e0:	00000021 	move	zero,zero
    b6e4:	00000021 	move	zero,zero
    b6e8:	00000021 	move	zero,zero
    b6ec:	00000021 	move	zero,zero
    b6f0:	00000021 	move	zero,zero
    b6f4:	00000021 	move	zero,zero
    b6f8:	00000021 	move	zero,zero
    b6fc:	00000021 	move	zero,zero
    b700:	00000021 	move	zero,zero
    b704:	00000021 	move	zero,zero
    b708:	00000021 	move	zero,zero
    b70c:	3c08c0d9 	lui	t0,0xc0d9
    b710:	35082060 	ori	t0,t0,0x2060
    b714:	24090000 	li	t1,0
    b718:	1509ffe8 	bne	t0,t1,b6bc <n30_bne_test+0xb6bc>
    b71c:	00000000 	nop
    b720:	1000000c 	b	b754 <n30_bne_test+0xb754>
    b724:	00000000 	nop
    b728:	00000000 	nop
    b72c:	00000021 	move	zero,zero
    b730:	00000021 	move	zero,zero
    b734:	00000021 	move	zero,zero
    b738:	00000021 	move	zero,zero
    b73c:	00000021 	move	zero,zero
    b740:	00000021 	move	zero,zero
    b744:	00000021 	move	zero,zero
    b748:	00000021 	move	zero,zero
    b74c:	3c129516 	lui	s2,0x9516
    b750:	36521fc6 	ori	s2,s2,0x1fc6
    b754:	00000000 	nop
    b758:	3c143aa0 	lui	s4,0x3aa0
    b75c:	36942880 	ori	s4,s4,0x2880
    b760:	1614152c 	bne	s0,s4,10c14 <inst_error>
    b764:	00000000 	nop
    b768:	00000000 	nop
    b76c:	3c159516 	lui	s5,0x9516
    b770:	36b51fc6 	ori	s5,s5,0x1fc6
    b774:	16551527 	bne	s2,s5,10c14 <inst_error>
    b778:	00000000 	nop
    b77c:	00000000 	nop
    b780:	3c0cf7f4 	lui	t4,0xf7f4
    b784:	358c49fb 	ori	t4,t4,0x49fb
    b788:	3c0dbd54 	lui	t5,0xbd54
    b78c:	35adfd00 	ori	t5,t5,0xfd00
    b790:	24100000 	li	s0,0
    b794:	10000016 	b	b7f0 <n30_bne_test+0xb7f0>
    b798:	24120000 	li	s2,0
    b79c:	00000000 	nop
    b7a0:	3c10f7f4 	lui	s0,0xf7f4
    b7a4:	15280022 	bne	t1,t0,b830 <n30_bne_test+0xb830>
    b7a8:	361049fb 	ori	s0,s0,0x49fb
    b7ac:	10000022 	b	b838 <n30_bne_test+0xb838>
    b7b0:	00000000 	nop
    b7b4:	00000000 	nop
    b7b8:	00000021 	move	zero,zero
    b7bc:	00000021 	move	zero,zero
    b7c0:	00000021 	move	zero,zero
    b7c4:	00000021 	move	zero,zero
    b7c8:	00000021 	move	zero,zero
    b7cc:	00000021 	move	zero,zero
    b7d0:	00000021 	move	zero,zero
    b7d4:	00000021 	move	zero,zero
    b7d8:	00000021 	move	zero,zero
    b7dc:	00000021 	move	zero,zero
    b7e0:	00000021 	move	zero,zero
    b7e4:	00000021 	move	zero,zero
    b7e8:	00000021 	move	zero,zero
    b7ec:	00000021 	move	zero,zero
    b7f0:	3c08e583 	lui	t0,0xe583
    b7f4:	35084417 	ori	t0,t0,0x4417
    b7f8:	24090000 	li	t1,0
    b7fc:	1509ffe8 	bne	t0,t1,b7a0 <n30_bne_test+0xb7a0>
    b800:	00000000 	nop
    b804:	1000000c 	b	b838 <n30_bne_test+0xb838>
    b808:	00000000 	nop
    b80c:	00000000 	nop
    b810:	00000021 	move	zero,zero
    b814:	00000021 	move	zero,zero
    b818:	00000021 	move	zero,zero
    b81c:	00000021 	move	zero,zero
    b820:	00000021 	move	zero,zero
    b824:	00000021 	move	zero,zero
    b828:	00000021 	move	zero,zero
    b82c:	00000021 	move	zero,zero
    b830:	3c12bd54 	lui	s2,0xbd54
    b834:	3652fd00 	ori	s2,s2,0xfd00
    b838:	00000000 	nop
    b83c:	3c14f7f4 	lui	s4,0xf7f4
    b840:	369449fb 	ori	s4,s4,0x49fb
    b844:	161414f3 	bne	s0,s4,10c14 <inst_error>
    b848:	00000000 	nop
    b84c:	00000000 	nop
    b850:	3c15bd54 	lui	s5,0xbd54
    b854:	36b5fd00 	ori	s5,s5,0xfd00
    b858:	165514ee 	bne	s2,s5,10c14 <inst_error>
    b85c:	00000000 	nop
    b860:	00000000 	nop
    b864:	3c0c7dbc 	lui	t4,0x7dbc
    b868:	358c8068 	ori	t4,t4,0x8068
    b86c:	3c0d4efa 	lui	t5,0x4efa
    b870:	35adda60 	ori	t5,t5,0xda60
    b874:	24100000 	li	s0,0
    b878:	10000016 	b	b8d4 <n30_bne_test+0xb8d4>
    b87c:	24120000 	li	s2,0
    b880:	00000000 	nop
    b884:	3c107dbc 	lui	s0,0x7dbc
    b888:	15280022 	bne	t1,t0,b914 <n30_bne_test+0xb914>
    b88c:	36108068 	ori	s0,s0,0x8068
    b890:	10000022 	b	b91c <n30_bne_test+0xb91c>
    b894:	00000000 	nop
    b898:	00000000 	nop
    b89c:	00000021 	move	zero,zero
    b8a0:	00000021 	move	zero,zero
    b8a4:	00000021 	move	zero,zero
    b8a8:	00000021 	move	zero,zero
    b8ac:	00000021 	move	zero,zero
    b8b0:	00000021 	move	zero,zero
    b8b4:	00000021 	move	zero,zero
    b8b8:	00000021 	move	zero,zero
    b8bc:	00000021 	move	zero,zero
    b8c0:	00000021 	move	zero,zero
    b8c4:	00000021 	move	zero,zero
    b8c8:	00000021 	move	zero,zero
    b8cc:	00000021 	move	zero,zero
    b8d0:	00000021 	move	zero,zero
    b8d4:	3c08d557 	lui	t0,0xd557
    b8d8:	3508e6e4 	ori	t0,t0,0xe6e4
    b8dc:	24090000 	li	t1,0
    b8e0:	1509ffe8 	bne	t0,t1,b884 <n30_bne_test+0xb884>
    b8e4:	00000000 	nop
    b8e8:	1000000c 	b	b91c <n30_bne_test+0xb91c>
    b8ec:	00000000 	nop
    b8f0:	00000000 	nop
    b8f4:	00000021 	move	zero,zero
    b8f8:	00000021 	move	zero,zero
    b8fc:	00000021 	move	zero,zero
    b900:	00000021 	move	zero,zero
    b904:	00000021 	move	zero,zero
    b908:	00000021 	move	zero,zero
    b90c:	00000021 	move	zero,zero
    b910:	00000021 	move	zero,zero
    b914:	3c124efa 	lui	s2,0x4efa
    b918:	3652da60 	ori	s2,s2,0xda60
    b91c:	00000000 	nop
    b920:	3c147dbc 	lui	s4,0x7dbc
    b924:	36948068 	ori	s4,s4,0x8068
    b928:	161414ba 	bne	s0,s4,10c14 <inst_error>
    b92c:	00000000 	nop
    b930:	00000000 	nop
    b934:	3c154efa 	lui	s5,0x4efa
    b938:	36b5da60 	ori	s5,s5,0xda60
    b93c:	165514b5 	bne	s2,s5,10c14 <inst_error>
    b940:	00000000 	nop
    b944:	00000000 	nop
    b948:	3c0cac9f 	lui	t4,0xac9f
    b94c:	358ca100 	ori	t4,t4,0xa100
    b950:	3c0d1901 	lui	t5,0x1901
    b954:	35ad87e8 	ori	t5,t5,0x87e8
    b958:	24100000 	li	s0,0
    b95c:	10000016 	b	b9b8 <n30_bne_test+0xb9b8>
    b960:	24120000 	li	s2,0
    b964:	00000000 	nop
    b968:	3c10ac9f 	lui	s0,0xac9f
    b96c:	15280022 	bne	t1,t0,b9f8 <n30_bne_test+0xb9f8>
    b970:	3610a100 	ori	s0,s0,0xa100
    b974:	10000022 	b	ba00 <n30_bne_test+0xba00>
    b978:	00000000 	nop
    b97c:	00000000 	nop
    b980:	00000021 	move	zero,zero
    b984:	00000021 	move	zero,zero
    b988:	00000021 	move	zero,zero
    b98c:	00000021 	move	zero,zero
    b990:	00000021 	move	zero,zero
    b994:	00000021 	move	zero,zero
    b998:	00000021 	move	zero,zero
    b99c:	00000021 	move	zero,zero
    b9a0:	00000021 	move	zero,zero
    b9a4:	00000021 	move	zero,zero
    b9a8:	00000021 	move	zero,zero
    b9ac:	00000021 	move	zero,zero
    b9b0:	00000021 	move	zero,zero
    b9b4:	00000021 	move	zero,zero
    b9b8:	3c08b437 	lui	t0,0xb437
    b9bc:	3508f388 	ori	t0,t0,0xf388
    b9c0:	24090000 	li	t1,0
    b9c4:	1509ffe8 	bne	t0,t1,b968 <n30_bne_test+0xb968>
    b9c8:	00000000 	nop
    b9cc:	1000000c 	b	ba00 <n30_bne_test+0xba00>
    b9d0:	00000000 	nop
    b9d4:	00000000 	nop
    b9d8:	00000021 	move	zero,zero
    b9dc:	00000021 	move	zero,zero
    b9e0:	00000021 	move	zero,zero
    b9e4:	00000021 	move	zero,zero
    b9e8:	00000021 	move	zero,zero
    b9ec:	00000021 	move	zero,zero
    b9f0:	00000021 	move	zero,zero
    b9f4:	00000021 	move	zero,zero
    b9f8:	3c121901 	lui	s2,0x1901
    b9fc:	365287e8 	ori	s2,s2,0x87e8
    ba00:	00000000 	nop
    ba04:	3c14ac9f 	lui	s4,0xac9f
    ba08:	3694a100 	ori	s4,s4,0xa100
    ba0c:	16141481 	bne	s0,s4,10c14 <inst_error>
    ba10:	00000000 	nop
    ba14:	00000000 	nop
    ba18:	3c151901 	lui	s5,0x1901
    ba1c:	36b587e8 	ori	s5,s5,0x87e8
    ba20:	1655147c 	bne	s2,s5,10c14 <inst_error>
    ba24:	00000000 	nop
    ba28:	00000000 	nop
    ba2c:	3c0ce0cb 	lui	t4,0xe0cb
    ba30:	358ccfc0 	ori	t4,t4,0xcfc0
    ba34:	3c0d9635 	lui	t5,0x9635
    ba38:	35ad82be 	ori	t5,t5,0x82be
    ba3c:	24100000 	li	s0,0
    ba40:	10000016 	b	ba9c <n30_bne_test+0xba9c>
    ba44:	24120000 	li	s2,0
    ba48:	00000000 	nop
    ba4c:	3c10e0cb 	lui	s0,0xe0cb
    ba50:	15280022 	bne	t1,t0,badc <n30_bne_test+0xbadc>
    ba54:	3610cfc0 	ori	s0,s0,0xcfc0
    ba58:	10000022 	b	bae4 <n30_bne_test+0xbae4>
    ba5c:	00000000 	nop
    ba60:	00000000 	nop
    ba64:	00000021 	move	zero,zero
    ba68:	00000021 	move	zero,zero
    ba6c:	00000021 	move	zero,zero
    ba70:	00000021 	move	zero,zero
    ba74:	00000021 	move	zero,zero
    ba78:	00000021 	move	zero,zero
    ba7c:	00000021 	move	zero,zero
    ba80:	00000021 	move	zero,zero
    ba84:	00000021 	move	zero,zero
    ba88:	00000021 	move	zero,zero
    ba8c:	00000021 	move	zero,zero
    ba90:	00000021 	move	zero,zero
    ba94:	00000021 	move	zero,zero
    ba98:	00000021 	move	zero,zero
    ba9c:	3c08e822 	lui	t0,0xe822
    baa0:	3508ca21 	ori	t0,t0,0xca21
    baa4:	24090000 	li	t1,0
    baa8:	1509ffe8 	bne	t0,t1,ba4c <n30_bne_test+0xba4c>
    baac:	00000000 	nop
    bab0:	1000000c 	b	bae4 <n30_bne_test+0xbae4>
    bab4:	00000000 	nop
    bab8:	00000000 	nop
    babc:	00000021 	move	zero,zero
    bac0:	00000021 	move	zero,zero
    bac4:	00000021 	move	zero,zero
    bac8:	00000021 	move	zero,zero
    bacc:	00000021 	move	zero,zero
    bad0:	00000021 	move	zero,zero
    bad4:	00000021 	move	zero,zero
    bad8:	00000021 	move	zero,zero
    badc:	3c129635 	lui	s2,0x9635
    bae0:	365282be 	ori	s2,s2,0x82be
    bae4:	00000000 	nop
    bae8:	3c14e0cb 	lui	s4,0xe0cb
    baec:	3694cfc0 	ori	s4,s4,0xcfc0
    baf0:	16141448 	bne	s0,s4,10c14 <inst_error>
    baf4:	00000000 	nop
    baf8:	00000000 	nop
    bafc:	3c159635 	lui	s5,0x9635
    bb00:	36b582be 	ori	s5,s5,0x82be
    bb04:	16551443 	bne	s2,s5,10c14 <inst_error>
    bb08:	00000000 	nop
    bb0c:	00000000 	nop
    bb10:	3c0c32a9 	lui	t4,0x32a9
    bb14:	358c6121 	ori	t4,t4,0x6121
    bb18:	3c0d780c 	lui	t5,0x780c
    bb1c:	35adfcb0 	ori	t5,t5,0xfcb0
    bb20:	24100000 	li	s0,0
    bb24:	10000016 	b	bb80 <n30_bne_test+0xbb80>
    bb28:	24120000 	li	s2,0
    bb2c:	00000000 	nop
    bb30:	3c1032a9 	lui	s0,0x32a9
    bb34:	15280022 	bne	t1,t0,bbc0 <n30_bne_test+0xbbc0>
    bb38:	36106121 	ori	s0,s0,0x6121
    bb3c:	10000022 	b	bbc8 <n30_bne_test+0xbbc8>
    bb40:	00000000 	nop
    bb44:	00000000 	nop
    bb48:	00000021 	move	zero,zero
    bb4c:	00000021 	move	zero,zero
    bb50:	00000021 	move	zero,zero
    bb54:	00000021 	move	zero,zero
    bb58:	00000021 	move	zero,zero
    bb5c:	00000021 	move	zero,zero
    bb60:	00000021 	move	zero,zero
    bb64:	00000021 	move	zero,zero
    bb68:	00000021 	move	zero,zero
    bb6c:	00000021 	move	zero,zero
    bb70:	00000021 	move	zero,zero
    bb74:	00000021 	move	zero,zero
    bb78:	00000021 	move	zero,zero
    bb7c:	00000021 	move	zero,zero
    bb80:	3c083374 	lui	t0,0x3374
    bb84:	3508510c 	ori	t0,t0,0x510c
    bb88:	24090000 	li	t1,0
    bb8c:	1509ffe8 	bne	t0,t1,bb30 <n30_bne_test+0xbb30>
    bb90:	00000000 	nop
    bb94:	1000000c 	b	bbc8 <n30_bne_test+0xbbc8>
    bb98:	00000000 	nop
    bb9c:	00000000 	nop
    bba0:	00000021 	move	zero,zero
    bba4:	00000021 	move	zero,zero
    bba8:	00000021 	move	zero,zero
    bbac:	00000021 	move	zero,zero
    bbb0:	00000021 	move	zero,zero
    bbb4:	00000021 	move	zero,zero
    bbb8:	00000021 	move	zero,zero
    bbbc:	00000021 	move	zero,zero
    bbc0:	3c12780c 	lui	s2,0x780c
    bbc4:	3652fcb0 	ori	s2,s2,0xfcb0
    bbc8:	00000000 	nop
    bbcc:	3c1432a9 	lui	s4,0x32a9
    bbd0:	36946121 	ori	s4,s4,0x6121
    bbd4:	1614140f 	bne	s0,s4,10c14 <inst_error>
    bbd8:	00000000 	nop
    bbdc:	00000000 	nop
    bbe0:	3c15780c 	lui	s5,0x780c
    bbe4:	36b5fcb0 	ori	s5,s5,0xfcb0
    bbe8:	1655140a 	bne	s2,s5,10c14 <inst_error>
    bbec:	00000000 	nop
    bbf0:	00000000 	nop
    bbf4:	3c0cff9f 	lui	t4,0xff9f
    bbf8:	358cd4d2 	ori	t4,t4,0xd4d2
    bbfc:	3c0d36f3 	lui	t5,0x36f3
    bc00:	35ade0ee 	ori	t5,t5,0xe0ee
    bc04:	24100000 	li	s0,0
    bc08:	10000016 	b	bc64 <n30_bne_test+0xbc64>
    bc0c:	24120000 	li	s2,0
    bc10:	00000000 	nop
    bc14:	3c10ff9f 	lui	s0,0xff9f
    bc18:	15280022 	bne	t1,t0,bca4 <n30_bne_test+0xbca4>
    bc1c:	3610d4d2 	ori	s0,s0,0xd4d2
    bc20:	10000022 	b	bcac <n30_bne_test+0xbcac>
    bc24:	00000000 	nop
    bc28:	00000000 	nop
    bc2c:	00000021 	move	zero,zero
    bc30:	00000021 	move	zero,zero
    bc34:	00000021 	move	zero,zero
    bc38:	00000021 	move	zero,zero
    bc3c:	00000021 	move	zero,zero
    bc40:	00000021 	move	zero,zero
    bc44:	00000021 	move	zero,zero
    bc48:	00000021 	move	zero,zero
    bc4c:	00000021 	move	zero,zero
    bc50:	00000021 	move	zero,zero
    bc54:	00000021 	move	zero,zero
    bc58:	00000021 	move	zero,zero
    bc5c:	00000021 	move	zero,zero
    bc60:	00000021 	move	zero,zero
    bc64:	3c08a10f 	lui	t0,0xa10f
    bc68:	350823f0 	ori	t0,t0,0x23f0
    bc6c:	24090000 	li	t1,0
    bc70:	1509ffe8 	bne	t0,t1,bc14 <n30_bne_test+0xbc14>
    bc74:	00000000 	nop
    bc78:	1000000c 	b	bcac <n30_bne_test+0xbcac>
    bc7c:	00000000 	nop
    bc80:	00000000 	nop
    bc84:	00000021 	move	zero,zero
    bc88:	00000021 	move	zero,zero
    bc8c:	00000021 	move	zero,zero
    bc90:	00000021 	move	zero,zero
    bc94:	00000021 	move	zero,zero
    bc98:	00000021 	move	zero,zero
    bc9c:	00000021 	move	zero,zero
    bca0:	00000021 	move	zero,zero
    bca4:	3c1236f3 	lui	s2,0x36f3
    bca8:	3652e0ee 	ori	s2,s2,0xe0ee
    bcac:	00000000 	nop
    bcb0:	3c14ff9f 	lui	s4,0xff9f
    bcb4:	3694d4d2 	ori	s4,s4,0xd4d2
    bcb8:	161413d6 	bne	s0,s4,10c14 <inst_error>
    bcbc:	00000000 	nop
    bcc0:	00000000 	nop
    bcc4:	3c1536f3 	lui	s5,0x36f3
    bcc8:	36b5e0ee 	ori	s5,s5,0xe0ee
    bccc:	165513d1 	bne	s2,s5,10c14 <inst_error>
    bcd0:	00000000 	nop
    bcd4:	00000000 	nop
    bcd8:	3c0c429f 	lui	t4,0x429f
    bcdc:	358c8e70 	ori	t4,t4,0x8e70
    bce0:	3c0d6cf8 	lui	t5,0x6cf8
    bce4:	35adf7a0 	ori	t5,t5,0xf7a0
    bce8:	24100000 	li	s0,0
    bcec:	10000016 	b	bd48 <n30_bne_test+0xbd48>
    bcf0:	24120000 	li	s2,0
    bcf4:	00000000 	nop
    bcf8:	3c10429f 	lui	s0,0x429f
    bcfc:	15280022 	bne	t1,t0,bd88 <n30_bne_test+0xbd88>
    bd00:	36108e70 	ori	s0,s0,0x8e70
    bd04:	10000022 	b	bd90 <n30_bne_test+0xbd90>
    bd08:	00000000 	nop
    bd0c:	00000000 	nop
    bd10:	00000021 	move	zero,zero
    bd14:	00000021 	move	zero,zero
    bd18:	00000021 	move	zero,zero
    bd1c:	00000021 	move	zero,zero
    bd20:	00000021 	move	zero,zero
    bd24:	00000021 	move	zero,zero
    bd28:	00000021 	move	zero,zero
    bd2c:	00000021 	move	zero,zero
    bd30:	00000021 	move	zero,zero
    bd34:	00000021 	move	zero,zero
    bd38:	00000021 	move	zero,zero
    bd3c:	00000021 	move	zero,zero
    bd40:	00000021 	move	zero,zero
    bd44:	00000021 	move	zero,zero
    bd48:	3c08df18 	lui	t0,0xdf18
    bd4c:	3508c280 	ori	t0,t0,0xc280
    bd50:	24090000 	li	t1,0
    bd54:	1509ffe8 	bne	t0,t1,bcf8 <n30_bne_test+0xbcf8>
    bd58:	00000000 	nop
    bd5c:	1000000c 	b	bd90 <n30_bne_test+0xbd90>
    bd60:	00000000 	nop
    bd64:	00000000 	nop
    bd68:	00000021 	move	zero,zero
    bd6c:	00000021 	move	zero,zero
    bd70:	00000021 	move	zero,zero
    bd74:	00000021 	move	zero,zero
    bd78:	00000021 	move	zero,zero
    bd7c:	00000021 	move	zero,zero
    bd80:	00000021 	move	zero,zero
    bd84:	00000021 	move	zero,zero
    bd88:	3c126cf8 	lui	s2,0x6cf8
    bd8c:	3652f7a0 	ori	s2,s2,0xf7a0
    bd90:	00000000 	nop
    bd94:	3c14429f 	lui	s4,0x429f
    bd98:	36948e70 	ori	s4,s4,0x8e70
    bd9c:	1614139d 	bne	s0,s4,10c14 <inst_error>
    bda0:	00000000 	nop
    bda4:	00000000 	nop
    bda8:	3c156cf8 	lui	s5,0x6cf8
    bdac:	36b5f7a0 	ori	s5,s5,0xf7a0
    bdb0:	16551398 	bne	s2,s5,10c14 <inst_error>
    bdb4:	00000000 	nop
    bdb8:	00000000 	nop
    bdbc:	3c0cbce5 	lui	t4,0xbce5
    bdc0:	358c1b0b 	ori	t4,t4,0x1b0b
    bdc4:	3c0d8fcb 	lui	t5,0x8fcb
    bdc8:	35ad2950 	ori	t5,t5,0x2950
    bdcc:	24100000 	li	s0,0
    bdd0:	10000016 	b	be2c <n30_bne_test+0xbe2c>
    bdd4:	24120000 	li	s2,0
    bdd8:	00000000 	nop
    bddc:	3c10bce5 	lui	s0,0xbce5
    bde0:	15280022 	bne	t1,t0,be6c <n30_bne_test+0xbe6c>
    bde4:	36101b0b 	ori	s0,s0,0x1b0b
    bde8:	10000022 	b	be74 <n30_bne_test+0xbe74>
    bdec:	00000000 	nop
    bdf0:	00000000 	nop
    bdf4:	00000021 	move	zero,zero
    bdf8:	00000021 	move	zero,zero
    bdfc:	00000021 	move	zero,zero
    be00:	00000021 	move	zero,zero
    be04:	00000021 	move	zero,zero
    be08:	00000021 	move	zero,zero
    be0c:	00000021 	move	zero,zero
    be10:	00000021 	move	zero,zero
    be14:	00000021 	move	zero,zero
    be18:	00000021 	move	zero,zero
    be1c:	00000021 	move	zero,zero
    be20:	00000021 	move	zero,zero
    be24:	00000021 	move	zero,zero
    be28:	00000021 	move	zero,zero
    be2c:	3c08ea92 	lui	t0,0xea92
    be30:	3508c588 	ori	t0,t0,0xc588
    be34:	24090000 	li	t1,0
    be38:	1509ffe8 	bne	t0,t1,bddc <n30_bne_test+0xbddc>
    be3c:	00000000 	nop
    be40:	1000000c 	b	be74 <n30_bne_test+0xbe74>
    be44:	00000000 	nop
    be48:	00000000 	nop
    be4c:	00000021 	move	zero,zero
    be50:	00000021 	move	zero,zero
    be54:	00000021 	move	zero,zero
    be58:	00000021 	move	zero,zero
    be5c:	00000021 	move	zero,zero
    be60:	00000021 	move	zero,zero
    be64:	00000021 	move	zero,zero
    be68:	00000021 	move	zero,zero
    be6c:	3c128fcb 	lui	s2,0x8fcb
    be70:	36522950 	ori	s2,s2,0x2950
    be74:	00000000 	nop
    be78:	3c14bce5 	lui	s4,0xbce5
    be7c:	36941b0b 	ori	s4,s4,0x1b0b
    be80:	16141364 	bne	s0,s4,10c14 <inst_error>
    be84:	00000000 	nop
    be88:	00000000 	nop
    be8c:	3c158fcb 	lui	s5,0x8fcb
    be90:	36b52950 	ori	s5,s5,0x2950
    be94:	1655135f 	bne	s2,s5,10c14 <inst_error>
    be98:	00000000 	nop
    be9c:	00000000 	nop
    bea0:	3c0c12e5 	lui	t4,0x12e5
    bea4:	358cb630 	ori	t4,t4,0xb630
    bea8:	3c0d30e6 	lui	t5,0x30e6
    beac:	35ad7b92 	ori	t5,t5,0x7b92
    beb0:	24100000 	li	s0,0
    beb4:	10000016 	b	bf10 <n30_bne_test+0xbf10>
    beb8:	24120000 	li	s2,0
    bebc:	00000000 	nop
    bec0:	3c1012e5 	lui	s0,0x12e5
    bec4:	15280022 	bne	t1,t0,bf50 <n30_bne_test+0xbf50>
    bec8:	3610b630 	ori	s0,s0,0xb630
    becc:	10000022 	b	bf58 <n30_bne_test+0xbf58>
    bed0:	00000000 	nop
    bed4:	00000000 	nop
    bed8:	00000021 	move	zero,zero
    bedc:	00000021 	move	zero,zero
    bee0:	00000021 	move	zero,zero
    bee4:	00000021 	move	zero,zero
    bee8:	00000021 	move	zero,zero
    beec:	00000021 	move	zero,zero
    bef0:	00000021 	move	zero,zero
    bef4:	00000021 	move	zero,zero
    bef8:	00000021 	move	zero,zero
    befc:	00000021 	move	zero,zero
    bf00:	00000021 	move	zero,zero
    bf04:	00000021 	move	zero,zero
    bf08:	00000021 	move	zero,zero
    bf0c:	00000021 	move	zero,zero
    bf10:	3c086348 	lui	t0,0x6348
    bf14:	35088fb8 	ori	t0,t0,0x8fb8
    bf18:	24090000 	li	t1,0
    bf1c:	1509ffe8 	bne	t0,t1,bec0 <n30_bne_test+0xbec0>
    bf20:	00000000 	nop
    bf24:	1000000c 	b	bf58 <n30_bne_test+0xbf58>
    bf28:	00000000 	nop
    bf2c:	00000000 	nop
    bf30:	00000021 	move	zero,zero
    bf34:	00000021 	move	zero,zero
    bf38:	00000021 	move	zero,zero
    bf3c:	00000021 	move	zero,zero
    bf40:	00000021 	move	zero,zero
    bf44:	00000021 	move	zero,zero
    bf48:	00000021 	move	zero,zero
    bf4c:	00000021 	move	zero,zero
    bf50:	3c1230e6 	lui	s2,0x30e6
    bf54:	36527b92 	ori	s2,s2,0x7b92
    bf58:	00000000 	nop
    bf5c:	3c1412e5 	lui	s4,0x12e5
    bf60:	3694b630 	ori	s4,s4,0xb630
    bf64:	1614132b 	bne	s0,s4,10c14 <inst_error>
    bf68:	00000000 	nop
    bf6c:	00000000 	nop
    bf70:	3c1530e6 	lui	s5,0x30e6
    bf74:	36b57b92 	ori	s5,s5,0x7b92
    bf78:	16551326 	bne	s2,s5,10c14 <inst_error>
    bf7c:	00000000 	nop
    bf80:	00000000 	nop
    bf84:	3c0c56e0 	lui	t4,0x56e0
    bf88:	358caa24 	ori	t4,t4,0xaa24
    bf8c:	3c0dcb85 	lui	t5,0xcb85
    bf90:	35ad0982 	ori	t5,t5,0x982
    bf94:	24100000 	li	s0,0
    bf98:	10000016 	b	bff4 <n30_bne_test+0xbff4>
    bf9c:	24120000 	li	s2,0
    bfa0:	00000000 	nop
    bfa4:	3c1056e0 	lui	s0,0x56e0
    bfa8:	15280022 	bne	t1,t0,c034 <n30_bne_test+0xc034>
    bfac:	3610aa24 	ori	s0,s0,0xaa24
    bfb0:	10000022 	b	c03c <n30_bne_test+0xc03c>
    bfb4:	00000000 	nop
    bfb8:	00000000 	nop
    bfbc:	00000021 	move	zero,zero
    bfc0:	00000021 	move	zero,zero
    bfc4:	00000021 	move	zero,zero
    bfc8:	00000021 	move	zero,zero
    bfcc:	00000021 	move	zero,zero
    bfd0:	00000021 	move	zero,zero
    bfd4:	00000021 	move	zero,zero
    bfd8:	00000021 	move	zero,zero
    bfdc:	00000021 	move	zero,zero
    bfe0:	00000021 	move	zero,zero
    bfe4:	00000021 	move	zero,zero
    bfe8:	00000021 	move	zero,zero
    bfec:	00000021 	move	zero,zero
    bff0:	00000021 	move	zero,zero
    bff4:	3c08f555 	lui	t0,0xf555
    bff8:	35084068 	ori	t0,t0,0x4068
    bffc:	24090000 	li	t1,0
    c000:	1509ffe8 	bne	t0,t1,bfa4 <n30_bne_test+0xbfa4>
    c004:	00000000 	nop
    c008:	1000000c 	b	c03c <n30_bne_test+0xc03c>
    c00c:	00000000 	nop
    c010:	00000000 	nop
    c014:	00000021 	move	zero,zero
    c018:	00000021 	move	zero,zero
    c01c:	00000021 	move	zero,zero
    c020:	00000021 	move	zero,zero
    c024:	00000021 	move	zero,zero
    c028:	00000021 	move	zero,zero
    c02c:	00000021 	move	zero,zero
    c030:	00000021 	move	zero,zero
    c034:	3c12cb85 	lui	s2,0xcb85
    c038:	36520982 	ori	s2,s2,0x982
    c03c:	00000000 	nop
    c040:	3c1456e0 	lui	s4,0x56e0
    c044:	3694aa24 	ori	s4,s4,0xaa24
    c048:	161412f2 	bne	s0,s4,10c14 <inst_error>
    c04c:	00000000 	nop
    c050:	00000000 	nop
    c054:	3c15cb85 	lui	s5,0xcb85
    c058:	36b50982 	ori	s5,s5,0x982
    c05c:	165512ed 	bne	s2,s5,10c14 <inst_error>
    c060:	00000000 	nop
    c064:	00000000 	nop
    c068:	3c0c52bc 	lui	t4,0x52bc
    c06c:	358ccf3c 	ori	t4,t4,0xcf3c
    c070:	3c0de51f 	lui	t5,0xe51f
    c074:	35ad83fc 	ori	t5,t5,0x83fc
    c078:	24100000 	li	s0,0
    c07c:	10000016 	b	c0d8 <n30_bne_test+0xc0d8>
    c080:	24120000 	li	s2,0
    c084:	00000000 	nop
    c088:	3c1052bc 	lui	s0,0x52bc
    c08c:	15280022 	bne	t1,t0,c118 <n30_bne_test+0xc118>
    c090:	3610cf3c 	ori	s0,s0,0xcf3c
    c094:	10000022 	b	c120 <n30_bne_test+0xc120>
    c098:	00000000 	nop
    c09c:	00000000 	nop
    c0a0:	00000021 	move	zero,zero
    c0a4:	00000021 	move	zero,zero
    c0a8:	00000021 	move	zero,zero
    c0ac:	00000021 	move	zero,zero
    c0b0:	00000021 	move	zero,zero
    c0b4:	00000021 	move	zero,zero
    c0b8:	00000021 	move	zero,zero
    c0bc:	00000021 	move	zero,zero
    c0c0:	00000021 	move	zero,zero
    c0c4:	00000021 	move	zero,zero
    c0c8:	00000021 	move	zero,zero
    c0cc:	00000021 	move	zero,zero
    c0d0:	00000021 	move	zero,zero
    c0d4:	00000021 	move	zero,zero
    c0d8:	3c08a72f 	lui	t0,0xa72f
    c0dc:	35087240 	ori	t0,t0,0x7240
    c0e0:	24090000 	li	t1,0
    c0e4:	1509ffe8 	bne	t0,t1,c088 <n30_bne_test+0xc088>
    c0e8:	00000000 	nop
    c0ec:	1000000c 	b	c120 <n30_bne_test+0xc120>
    c0f0:	00000000 	nop
    c0f4:	00000000 	nop
    c0f8:	00000021 	move	zero,zero
    c0fc:	00000021 	move	zero,zero
    c100:	00000021 	move	zero,zero
    c104:	00000021 	move	zero,zero
    c108:	00000021 	move	zero,zero
    c10c:	00000021 	move	zero,zero
    c110:	00000021 	move	zero,zero
    c114:	00000021 	move	zero,zero
    c118:	3c12e51f 	lui	s2,0xe51f
    c11c:	365283fc 	ori	s2,s2,0x83fc
    c120:	00000000 	nop
    c124:	3c1452bc 	lui	s4,0x52bc
    c128:	3694cf3c 	ori	s4,s4,0xcf3c
    c12c:	161412b9 	bne	s0,s4,10c14 <inst_error>
    c130:	00000000 	nop
    c134:	00000000 	nop
    c138:	3c15e51f 	lui	s5,0xe51f
    c13c:	36b583fc 	ori	s5,s5,0x83fc
    c140:	165512b4 	bne	s2,s5,10c14 <inst_error>
    c144:	00000000 	nop
    c148:	00000000 	nop
    c14c:	3c0ccdbf 	lui	t4,0xcdbf
    c150:	358c5374 	ori	t4,t4,0x5374
    c154:	3c0d1a14 	lui	t5,0x1a14
    c158:	35ad6330 	ori	t5,t5,0x6330
    c15c:	24100000 	li	s0,0
    c160:	10000016 	b	c1bc <n30_bne_test+0xc1bc>
    c164:	24120000 	li	s2,0
    c168:	00000000 	nop
    c16c:	3c10cdbf 	lui	s0,0xcdbf
    c170:	15280022 	bne	t1,t0,c1fc <n30_bne_test+0xc1fc>
    c174:	36105374 	ori	s0,s0,0x5374
    c178:	10000022 	b	c204 <n30_bne_test+0xc204>
    c17c:	00000000 	nop
    c180:	00000000 	nop
    c184:	00000021 	move	zero,zero
    c188:	00000021 	move	zero,zero
    c18c:	00000021 	move	zero,zero
    c190:	00000021 	move	zero,zero
    c194:	00000021 	move	zero,zero
    c198:	00000021 	move	zero,zero
    c19c:	00000021 	move	zero,zero
    c1a0:	00000021 	move	zero,zero
    c1a4:	00000021 	move	zero,zero
    c1a8:	00000021 	move	zero,zero
    c1ac:	00000021 	move	zero,zero
    c1b0:	00000021 	move	zero,zero
    c1b4:	00000021 	move	zero,zero
    c1b8:	00000021 	move	zero,zero
    c1bc:	3c08f952 	lui	t0,0xf952
    c1c0:	35085442 	ori	t0,t0,0x5442
    c1c4:	24090000 	li	t1,0
    c1c8:	1509ffe8 	bne	t0,t1,c16c <n30_bne_test+0xc16c>
    c1cc:	00000000 	nop
    c1d0:	1000000c 	b	c204 <n30_bne_test+0xc204>
    c1d4:	00000000 	nop
    c1d8:	00000000 	nop
    c1dc:	00000021 	move	zero,zero
    c1e0:	00000021 	move	zero,zero
    c1e4:	00000021 	move	zero,zero
    c1e8:	00000021 	move	zero,zero
    c1ec:	00000021 	move	zero,zero
    c1f0:	00000021 	move	zero,zero
    c1f4:	00000021 	move	zero,zero
    c1f8:	00000021 	move	zero,zero
    c1fc:	3c121a14 	lui	s2,0x1a14
    c200:	36526330 	ori	s2,s2,0x6330
    c204:	00000000 	nop
    c208:	3c14cdbf 	lui	s4,0xcdbf
    c20c:	36945374 	ori	s4,s4,0x5374
    c210:	16141280 	bne	s0,s4,10c14 <inst_error>
    c214:	00000000 	nop
    c218:	00000000 	nop
    c21c:	3c151a14 	lui	s5,0x1a14
    c220:	36b56330 	ori	s5,s5,0x6330
    c224:	1655127b 	bne	s2,s5,10c14 <inst_error>
    c228:	00000000 	nop
    c22c:	00000000 	nop
    c230:	3c0cec47 	lui	t4,0xec47
    c234:	358c0e0a 	ori	t4,t4,0xe0a
    c238:	3c0d1533 	lui	t5,0x1533
    c23c:	35ad9bc0 	ori	t5,t5,0x9bc0
    c240:	24100000 	li	s0,0
    c244:	10000016 	b	c2a0 <n30_bne_test+0xc2a0>
    c248:	24120000 	li	s2,0
    c24c:	00000000 	nop
    c250:	3c10ec47 	lui	s0,0xec47
    c254:	15280022 	bne	t1,t0,c2e0 <n30_bne_test+0xc2e0>
    c258:	36100e0a 	ori	s0,s0,0xe0a
    c25c:	10000022 	b	c2e8 <n30_bne_test+0xc2e8>
    c260:	00000000 	nop
    c264:	00000000 	nop
    c268:	00000021 	move	zero,zero
    c26c:	00000021 	move	zero,zero
    c270:	00000021 	move	zero,zero
    c274:	00000021 	move	zero,zero
    c278:	00000021 	move	zero,zero
    c27c:	00000021 	move	zero,zero
    c280:	00000021 	move	zero,zero
    c284:	00000021 	move	zero,zero
    c288:	00000021 	move	zero,zero
    c28c:	00000021 	move	zero,zero
    c290:	00000021 	move	zero,zero
    c294:	00000021 	move	zero,zero
    c298:	00000021 	move	zero,zero
    c29c:	00000021 	move	zero,zero
    c2a0:	3c082aee 	lui	t0,0x2aee
    c2a4:	350870cc 	ori	t0,t0,0x70cc
    c2a8:	24090000 	li	t1,0
    c2ac:	1509ffe8 	bne	t0,t1,c250 <n30_bne_test+0xc250>
    c2b0:	00000000 	nop
    c2b4:	1000000c 	b	c2e8 <n30_bne_test+0xc2e8>
    c2b8:	00000000 	nop
    c2bc:	00000000 	nop
    c2c0:	00000021 	move	zero,zero
    c2c4:	00000021 	move	zero,zero
    c2c8:	00000021 	move	zero,zero
    c2cc:	00000021 	move	zero,zero
    c2d0:	00000021 	move	zero,zero
    c2d4:	00000021 	move	zero,zero
    c2d8:	00000021 	move	zero,zero
    c2dc:	00000021 	move	zero,zero
    c2e0:	3c121533 	lui	s2,0x1533
    c2e4:	36529bc0 	ori	s2,s2,0x9bc0
    c2e8:	00000000 	nop
    c2ec:	3c14ec47 	lui	s4,0xec47
    c2f0:	36940e0a 	ori	s4,s4,0xe0a
    c2f4:	16141247 	bne	s0,s4,10c14 <inst_error>
    c2f8:	00000000 	nop
    c2fc:	00000000 	nop
    c300:	3c151533 	lui	s5,0x1533
    c304:	36b59bc0 	ori	s5,s5,0x9bc0
    c308:	16551242 	bne	s2,s5,10c14 <inst_error>
    c30c:	00000000 	nop
    c310:	00000000 	nop
    c314:	3c0c5f44 	lui	t4,0x5f44
    c318:	358caca5 	ori	t4,t4,0xaca5
    c31c:	3c0d935c 	lui	t5,0x935c
    c320:	35add3f4 	ori	t5,t5,0xd3f4
    c324:	24100000 	li	s0,0
    c328:	10000016 	b	c384 <n30_bne_test+0xc384>
    c32c:	24120000 	li	s2,0
    c330:	00000000 	nop
    c334:	3c105f44 	lui	s0,0x5f44
    c338:	15280022 	bne	t1,t0,c3c4 <n30_bne_test+0xc3c4>
    c33c:	3610aca5 	ori	s0,s0,0xaca5
    c340:	10000022 	b	c3cc <n30_bne_test+0xc3cc>
    c344:	00000000 	nop
    c348:	00000000 	nop
    c34c:	00000021 	move	zero,zero
    c350:	00000021 	move	zero,zero
    c354:	00000021 	move	zero,zero
    c358:	00000021 	move	zero,zero
    c35c:	00000021 	move	zero,zero
    c360:	00000021 	move	zero,zero
    c364:	00000021 	move	zero,zero
    c368:	00000021 	move	zero,zero
    c36c:	00000021 	move	zero,zero
    c370:	00000021 	move	zero,zero
    c374:	00000021 	move	zero,zero
    c378:	00000021 	move	zero,zero
    c37c:	00000021 	move	zero,zero
    c380:	00000021 	move	zero,zero
    c384:	3c08e7cf 	lui	t0,0xe7cf
    c388:	350823cd 	ori	t0,t0,0x23cd
    c38c:	24090000 	li	t1,0
    c390:	1509ffe8 	bne	t0,t1,c334 <n30_bne_test+0xc334>
    c394:	00000000 	nop
    c398:	1000000c 	b	c3cc <n30_bne_test+0xc3cc>
    c39c:	00000000 	nop
    c3a0:	00000000 	nop
    c3a4:	00000021 	move	zero,zero
    c3a8:	00000021 	move	zero,zero
    c3ac:	00000021 	move	zero,zero
    c3b0:	00000021 	move	zero,zero
    c3b4:	00000021 	move	zero,zero
    c3b8:	00000021 	move	zero,zero
    c3bc:	00000021 	move	zero,zero
    c3c0:	00000021 	move	zero,zero
    c3c4:	3c12935c 	lui	s2,0x935c
    c3c8:	3652d3f4 	ori	s2,s2,0xd3f4
    c3cc:	00000000 	nop
    c3d0:	3c145f44 	lui	s4,0x5f44
    c3d4:	3694aca5 	ori	s4,s4,0xaca5
    c3d8:	1614120e 	bne	s0,s4,10c14 <inst_error>
    c3dc:	00000000 	nop
    c3e0:	00000000 	nop
    c3e4:	3c15935c 	lui	s5,0x935c
    c3e8:	36b5d3f4 	ori	s5,s5,0xd3f4
    c3ec:	16551209 	bne	s2,s5,10c14 <inst_error>
    c3f0:	00000000 	nop
    c3f4:	00000000 	nop
    c3f8:	3c0c16c2 	lui	t4,0x16c2
    c3fc:	358cc2d2 	ori	t4,t4,0xc2d2
    c400:	3c0ddbc2 	lui	t5,0xdbc2
    c404:	35addd86 	ori	t5,t5,0xdd86
    c408:	24100000 	li	s0,0
    c40c:	10000016 	b	c468 <n30_bne_test+0xc468>
    c410:	24120000 	li	s2,0
    c414:	00000000 	nop
    c418:	3c1016c2 	lui	s0,0x16c2
    c41c:	15280022 	bne	t1,t0,c4a8 <n30_bne_test+0xc4a8>
    c420:	3610c2d2 	ori	s0,s0,0xc2d2
    c424:	10000022 	b	c4b0 <n30_bne_test+0xc4b0>
    c428:	00000000 	nop
    c42c:	00000000 	nop
    c430:	00000021 	move	zero,zero
    c434:	00000021 	move	zero,zero
    c438:	00000021 	move	zero,zero
    c43c:	00000021 	move	zero,zero
    c440:	00000021 	move	zero,zero
    c444:	00000021 	move	zero,zero
    c448:	00000021 	move	zero,zero
    c44c:	00000021 	move	zero,zero
    c450:	00000021 	move	zero,zero
    c454:	00000021 	move	zero,zero
    c458:	00000021 	move	zero,zero
    c45c:	00000021 	move	zero,zero
    c460:	00000021 	move	zero,zero
    c464:	00000021 	move	zero,zero
    c468:	3c08784c 	lui	t0,0x784c
    c46c:	3508035c 	ori	t0,t0,0x35c
    c470:	24090000 	li	t1,0
    c474:	1509ffe8 	bne	t0,t1,c418 <n30_bne_test+0xc418>
    c478:	00000000 	nop
    c47c:	1000000c 	b	c4b0 <n30_bne_test+0xc4b0>
    c480:	00000000 	nop
    c484:	00000000 	nop
    c488:	00000021 	move	zero,zero
    c48c:	00000021 	move	zero,zero
    c490:	00000021 	move	zero,zero
    c494:	00000021 	move	zero,zero
    c498:	00000021 	move	zero,zero
    c49c:	00000021 	move	zero,zero
    c4a0:	00000021 	move	zero,zero
    c4a4:	00000021 	move	zero,zero
    c4a8:	3c12dbc2 	lui	s2,0xdbc2
    c4ac:	3652dd86 	ori	s2,s2,0xdd86
    c4b0:	00000000 	nop
    c4b4:	3c1416c2 	lui	s4,0x16c2
    c4b8:	3694c2d2 	ori	s4,s4,0xc2d2
    c4bc:	161411d5 	bne	s0,s4,10c14 <inst_error>
    c4c0:	00000000 	nop
    c4c4:	00000000 	nop
    c4c8:	3c15dbc2 	lui	s5,0xdbc2
    c4cc:	36b5dd86 	ori	s5,s5,0xdd86
    c4d0:	165511d0 	bne	s2,s5,10c14 <inst_error>
    c4d4:	00000000 	nop
    c4d8:	00000000 	nop
    c4dc:	3c0ccf9c 	lui	t4,0xcf9c
    c4e0:	358c2af0 	ori	t4,t4,0x2af0
    c4e4:	3c0de16b 	lui	t5,0xe16b
    c4e8:	35adf6aa 	ori	t5,t5,0xf6aa
    c4ec:	24100000 	li	s0,0
    c4f0:	10000016 	b	c54c <n30_bne_test+0xc54c>
    c4f4:	24120000 	li	s2,0
    c4f8:	00000000 	nop
    c4fc:	3c10cf9c 	lui	s0,0xcf9c
    c500:	15280022 	bne	t1,t0,c58c <n30_bne_test+0xc58c>
    c504:	36102af0 	ori	s0,s0,0x2af0
    c508:	10000022 	b	c594 <n30_bne_test+0xc594>
    c50c:	00000000 	nop
    c510:	00000000 	nop
    c514:	00000021 	move	zero,zero
    c518:	00000021 	move	zero,zero
    c51c:	00000021 	move	zero,zero
    c520:	00000021 	move	zero,zero
    c524:	00000021 	move	zero,zero
    c528:	00000021 	move	zero,zero
    c52c:	00000021 	move	zero,zero
    c530:	00000021 	move	zero,zero
    c534:	00000021 	move	zero,zero
    c538:	00000021 	move	zero,zero
    c53c:	00000021 	move	zero,zero
    c540:	00000021 	move	zero,zero
    c544:	00000021 	move	zero,zero
    c548:	00000021 	move	zero,zero
    c54c:	3c08381b 	lui	t0,0x381b
    c550:	35080fc7 	ori	t0,t0,0xfc7
    c554:	24090000 	li	t1,0
    c558:	1509ffe8 	bne	t0,t1,c4fc <n30_bne_test+0xc4fc>
    c55c:	00000000 	nop
    c560:	1000000c 	b	c594 <n30_bne_test+0xc594>
    c564:	00000000 	nop
    c568:	00000000 	nop
    c56c:	00000021 	move	zero,zero
    c570:	00000021 	move	zero,zero
    c574:	00000021 	move	zero,zero
    c578:	00000021 	move	zero,zero
    c57c:	00000021 	move	zero,zero
    c580:	00000021 	move	zero,zero
    c584:	00000021 	move	zero,zero
    c588:	00000021 	move	zero,zero
    c58c:	3c12e16b 	lui	s2,0xe16b
    c590:	3652f6aa 	ori	s2,s2,0xf6aa
    c594:	00000000 	nop
    c598:	3c14cf9c 	lui	s4,0xcf9c
    c59c:	36942af0 	ori	s4,s4,0x2af0
    c5a0:	1614119c 	bne	s0,s4,10c14 <inst_error>
    c5a4:	00000000 	nop
    c5a8:	00000000 	nop
    c5ac:	3c15e16b 	lui	s5,0xe16b
    c5b0:	36b5f6aa 	ori	s5,s5,0xf6aa
    c5b4:	16551197 	bne	s2,s5,10c14 <inst_error>
    c5b8:	00000000 	nop
    c5bc:	00000000 	nop
    c5c0:	3c0c9ba0 	lui	t4,0x9ba0
    c5c4:	358cbeb0 	ori	t4,t4,0xbeb0
    c5c8:	3c0d489d 	lui	t5,0x489d
    c5cc:	35ad2488 	ori	t5,t5,0x2488
    c5d0:	24100000 	li	s0,0
    c5d4:	10000016 	b	c630 <n30_bne_test+0xc630>
    c5d8:	24120000 	li	s2,0
    c5dc:	00000000 	nop
    c5e0:	3c109ba0 	lui	s0,0x9ba0
    c5e4:	15280022 	bne	t1,t0,c670 <n30_bne_test+0xc670>
    c5e8:	3610beb0 	ori	s0,s0,0xbeb0
    c5ec:	10000022 	b	c678 <n30_bne_test+0xc678>
    c5f0:	00000000 	nop
    c5f4:	00000000 	nop
    c5f8:	00000021 	move	zero,zero
    c5fc:	00000021 	move	zero,zero
    c600:	00000021 	move	zero,zero
    c604:	00000021 	move	zero,zero
    c608:	00000021 	move	zero,zero
    c60c:	00000021 	move	zero,zero
    c610:	00000021 	move	zero,zero
    c614:	00000021 	move	zero,zero
    c618:	00000021 	move	zero,zero
    c61c:	00000021 	move	zero,zero
    c620:	00000021 	move	zero,zero
    c624:	00000021 	move	zero,zero
    c628:	00000021 	move	zero,zero
    c62c:	00000021 	move	zero,zero
    c630:	3c08a304 	lui	t0,0xa304
    c634:	3508a35c 	ori	t0,t0,0xa35c
    c638:	24090000 	li	t1,0
    c63c:	1509ffe8 	bne	t0,t1,c5e0 <n30_bne_test+0xc5e0>
    c640:	00000000 	nop
    c644:	1000000c 	b	c678 <n30_bne_test+0xc678>
    c648:	00000000 	nop
    c64c:	00000000 	nop
    c650:	00000021 	move	zero,zero
    c654:	00000021 	move	zero,zero
    c658:	00000021 	move	zero,zero
    c65c:	00000021 	move	zero,zero
    c660:	00000021 	move	zero,zero
    c664:	00000021 	move	zero,zero
    c668:	00000021 	move	zero,zero
    c66c:	00000021 	move	zero,zero
    c670:	3c12489d 	lui	s2,0x489d
    c674:	36522488 	ori	s2,s2,0x2488
    c678:	00000000 	nop
    c67c:	3c149ba0 	lui	s4,0x9ba0
    c680:	3694beb0 	ori	s4,s4,0xbeb0
    c684:	16141163 	bne	s0,s4,10c14 <inst_error>
    c688:	00000000 	nop
    c68c:	00000000 	nop
    c690:	3c15489d 	lui	s5,0x489d
    c694:	36b52488 	ori	s5,s5,0x2488
    c698:	1655115e 	bne	s2,s5,10c14 <inst_error>
    c69c:	00000000 	nop
    c6a0:	00000000 	nop
    c6a4:	3c0c4398 	lui	t4,0x4398
    c6a8:	358c5248 	ori	t4,t4,0x5248
    c6ac:	3c0d2ac1 	lui	t5,0x2ac1
    c6b0:	35add2a8 	ori	t5,t5,0xd2a8
    c6b4:	24100000 	li	s0,0
    c6b8:	10000016 	b	c714 <n30_bne_test+0xc714>
    c6bc:	24120000 	li	s2,0
    c6c0:	00000000 	nop
    c6c4:	3c104398 	lui	s0,0x4398
    c6c8:	15280022 	bne	t1,t0,c754 <n30_bne_test+0xc754>
    c6cc:	36105248 	ori	s0,s0,0x5248
    c6d0:	10000022 	b	c75c <n30_bne_test+0xc75c>
    c6d4:	00000000 	nop
    c6d8:	00000000 	nop
    c6dc:	00000021 	move	zero,zero
    c6e0:	00000021 	move	zero,zero
    c6e4:	00000021 	move	zero,zero
    c6e8:	00000021 	move	zero,zero
    c6ec:	00000021 	move	zero,zero
    c6f0:	00000021 	move	zero,zero
    c6f4:	00000021 	move	zero,zero
    c6f8:	00000021 	move	zero,zero
    c6fc:	00000021 	move	zero,zero
    c700:	00000021 	move	zero,zero
    c704:	00000021 	move	zero,zero
    c708:	00000021 	move	zero,zero
    c70c:	00000021 	move	zero,zero
    c710:	00000021 	move	zero,zero
    c714:	3c0889b0 	lui	t0,0x89b0
    c718:	35083300 	ori	t0,t0,0x3300
    c71c:	24090000 	li	t1,0
    c720:	1509ffe8 	bne	t0,t1,c6c4 <n30_bne_test+0xc6c4>
    c724:	00000000 	nop
    c728:	1000000c 	b	c75c <n30_bne_test+0xc75c>
    c72c:	00000000 	nop
    c730:	00000000 	nop
    c734:	00000021 	move	zero,zero
    c738:	00000021 	move	zero,zero
    c73c:	00000021 	move	zero,zero
    c740:	00000021 	move	zero,zero
    c744:	00000021 	move	zero,zero
    c748:	00000021 	move	zero,zero
    c74c:	00000021 	move	zero,zero
    c750:	00000021 	move	zero,zero
    c754:	3c122ac1 	lui	s2,0x2ac1
    c758:	3652d2a8 	ori	s2,s2,0xd2a8
    c75c:	00000000 	nop
    c760:	3c144398 	lui	s4,0x4398
    c764:	36945248 	ori	s4,s4,0x5248
    c768:	1614112a 	bne	s0,s4,10c14 <inst_error>
    c76c:	00000000 	nop
    c770:	00000000 	nop
    c774:	3c152ac1 	lui	s5,0x2ac1
    c778:	36b5d2a8 	ori	s5,s5,0xd2a8
    c77c:	16551125 	bne	s2,s5,10c14 <inst_error>
    c780:	00000000 	nop
    c784:	00000000 	nop
    c788:	3c0c3044 	lui	t4,0x3044
    c78c:	358c4ec0 	ori	t4,t4,0x4ec0
    c790:	3c0d0025 	lui	t5,0x25
    c794:	35ad34c4 	ori	t5,t5,0x34c4
    c798:	24100000 	li	s0,0
    c79c:	10000016 	b	c7f8 <n30_bne_test+0xc7f8>
    c7a0:	24120000 	li	s2,0
    c7a4:	00000000 	nop
    c7a8:	3c103044 	lui	s0,0x3044
    c7ac:	15280022 	bne	t1,t0,c838 <n30_bne_test+0xc838>
    c7b0:	36104ec0 	ori	s0,s0,0x4ec0
    c7b4:	10000022 	b	c840 <n30_bne_test+0xc840>
    c7b8:	00000000 	nop
    c7bc:	00000000 	nop
    c7c0:	00000021 	move	zero,zero
    c7c4:	00000021 	move	zero,zero
    c7c8:	00000021 	move	zero,zero
    c7cc:	00000021 	move	zero,zero
    c7d0:	00000021 	move	zero,zero
    c7d4:	00000021 	move	zero,zero
    c7d8:	00000021 	move	zero,zero
    c7dc:	00000021 	move	zero,zero
    c7e0:	00000021 	move	zero,zero
    c7e4:	00000021 	move	zero,zero
    c7e8:	00000021 	move	zero,zero
    c7ec:	00000021 	move	zero,zero
    c7f0:	00000021 	move	zero,zero
    c7f4:	00000021 	move	zero,zero
    c7f8:	3c08cc4e 	lui	t0,0xcc4e
    c7fc:	3508749c 	ori	t0,t0,0x749c
    c800:	24090000 	li	t1,0
    c804:	1509ffe8 	bne	t0,t1,c7a8 <n30_bne_test+0xc7a8>
    c808:	00000000 	nop
    c80c:	1000000c 	b	c840 <n30_bne_test+0xc840>
    c810:	00000000 	nop
    c814:	00000000 	nop
    c818:	00000021 	move	zero,zero
    c81c:	00000021 	move	zero,zero
    c820:	00000021 	move	zero,zero
    c824:	00000021 	move	zero,zero
    c828:	00000021 	move	zero,zero
    c82c:	00000021 	move	zero,zero
    c830:	00000021 	move	zero,zero
    c834:	00000021 	move	zero,zero
    c838:	3c120025 	lui	s2,0x25
    c83c:	365234c4 	ori	s2,s2,0x34c4
    c840:	00000000 	nop
    c844:	3c143044 	lui	s4,0x3044
    c848:	36944ec0 	ori	s4,s4,0x4ec0
    c84c:	161410f1 	bne	s0,s4,10c14 <inst_error>
    c850:	00000000 	nop
    c854:	00000000 	nop
    c858:	3c150025 	lui	s5,0x25
    c85c:	36b534c4 	ori	s5,s5,0x34c4
    c860:	165510ec 	bne	s2,s5,10c14 <inst_error>
    c864:	00000000 	nop
    c868:	00000000 	nop
    c86c:	3c0c2093 	lui	t4,0x2093
    c870:	358c5758 	ori	t4,t4,0x5758
    c874:	3c0dbadb 	lui	t5,0xbadb
    c878:	35addd3c 	ori	t5,t5,0xdd3c
    c87c:	24100000 	li	s0,0
    c880:	10000016 	b	c8dc <n30_bne_test+0xc8dc>
    c884:	24120000 	li	s2,0
    c888:	00000000 	nop
    c88c:	3c102093 	lui	s0,0x2093
    c890:	15280022 	bne	t1,t0,c91c <n30_bne_test+0xc91c>
    c894:	36105758 	ori	s0,s0,0x5758
    c898:	10000022 	b	c924 <n30_bne_test+0xc924>
    c89c:	00000000 	nop
    c8a0:	00000000 	nop
    c8a4:	00000021 	move	zero,zero
    c8a8:	00000021 	move	zero,zero
    c8ac:	00000021 	move	zero,zero
    c8b0:	00000021 	move	zero,zero
    c8b4:	00000021 	move	zero,zero
    c8b8:	00000021 	move	zero,zero
    c8bc:	00000021 	move	zero,zero
    c8c0:	00000021 	move	zero,zero
    c8c4:	00000021 	move	zero,zero
    c8c8:	00000021 	move	zero,zero
    c8cc:	00000021 	move	zero,zero
    c8d0:	00000021 	move	zero,zero
    c8d4:	00000021 	move	zero,zero
    c8d8:	00000021 	move	zero,zero
    c8dc:	3c08bb1a 	lui	t0,0xbb1a
    c8e0:	3508fce8 	ori	t0,t0,0xfce8
    c8e4:	24090000 	li	t1,0
    c8e8:	1509ffe8 	bne	t0,t1,c88c <n30_bne_test+0xc88c>
    c8ec:	00000000 	nop
    c8f0:	1000000c 	b	c924 <n30_bne_test+0xc924>
    c8f4:	00000000 	nop
    c8f8:	00000000 	nop
    c8fc:	00000021 	move	zero,zero
    c900:	00000021 	move	zero,zero
    c904:	00000021 	move	zero,zero
    c908:	00000021 	move	zero,zero
    c90c:	00000021 	move	zero,zero
    c910:	00000021 	move	zero,zero
    c914:	00000021 	move	zero,zero
    c918:	00000021 	move	zero,zero
    c91c:	3c12badb 	lui	s2,0xbadb
    c920:	3652dd3c 	ori	s2,s2,0xdd3c
    c924:	00000000 	nop
    c928:	3c142093 	lui	s4,0x2093
    c92c:	36945758 	ori	s4,s4,0x5758
    c930:	161410b8 	bne	s0,s4,10c14 <inst_error>
    c934:	00000000 	nop
    c938:	00000000 	nop
    c93c:	3c15badb 	lui	s5,0xbadb
    c940:	36b5dd3c 	ori	s5,s5,0xdd3c
    c944:	165510b3 	bne	s2,s5,10c14 <inst_error>
    c948:	00000000 	nop
    c94c:	00000000 	nop
    c950:	3c0c845f 	lui	t4,0x845f
    c954:	358c6be2 	ori	t4,t4,0x6be2
    c958:	3c0dbf53 	lui	t5,0xbf53
    c95c:	35ad3b6d 	ori	t5,t5,0x3b6d
    c960:	24100000 	li	s0,0
    c964:	10000016 	b	c9c0 <n30_bne_test+0xc9c0>
    c968:	24120000 	li	s2,0
    c96c:	00000000 	nop
    c970:	3c10845f 	lui	s0,0x845f
    c974:	15280022 	bne	t1,t0,ca00 <n30_bne_test+0xca00>
    c978:	36106be2 	ori	s0,s0,0x6be2
    c97c:	10000022 	b	ca08 <n30_bne_test+0xca08>
    c980:	00000000 	nop
    c984:	00000000 	nop
    c988:	00000021 	move	zero,zero
    c98c:	00000021 	move	zero,zero
    c990:	00000021 	move	zero,zero
    c994:	00000021 	move	zero,zero
    c998:	00000021 	move	zero,zero
    c99c:	00000021 	move	zero,zero
    c9a0:	00000021 	move	zero,zero
    c9a4:	00000021 	move	zero,zero
    c9a8:	00000021 	move	zero,zero
    c9ac:	00000021 	move	zero,zero
    c9b0:	00000021 	move	zero,zero
    c9b4:	00000021 	move	zero,zero
    c9b8:	00000021 	move	zero,zero
    c9bc:	00000021 	move	zero,zero
    c9c0:	3c080af9 	lui	t0,0xaf9
    c9c4:	3508f120 	ori	t0,t0,0xf120
    c9c8:	24090000 	li	t1,0
    c9cc:	1509ffe8 	bne	t0,t1,c970 <n30_bne_test+0xc970>
    c9d0:	00000000 	nop
    c9d4:	1000000c 	b	ca08 <n30_bne_test+0xca08>
    c9d8:	00000000 	nop
    c9dc:	00000000 	nop
    c9e0:	00000021 	move	zero,zero
    c9e4:	00000021 	move	zero,zero
    c9e8:	00000021 	move	zero,zero
    c9ec:	00000021 	move	zero,zero
    c9f0:	00000021 	move	zero,zero
    c9f4:	00000021 	move	zero,zero
    c9f8:	00000021 	move	zero,zero
    c9fc:	00000021 	move	zero,zero
    ca00:	3c12bf53 	lui	s2,0xbf53
    ca04:	36523b6d 	ori	s2,s2,0x3b6d
    ca08:	00000000 	nop
    ca0c:	3c14845f 	lui	s4,0x845f
    ca10:	36946be2 	ori	s4,s4,0x6be2
    ca14:	1614107f 	bne	s0,s4,10c14 <inst_error>
    ca18:	00000000 	nop
    ca1c:	00000000 	nop
    ca20:	3c15bf53 	lui	s5,0xbf53
    ca24:	36b53b6d 	ori	s5,s5,0x3b6d
    ca28:	1655107a 	bne	s2,s5,10c14 <inst_error>
    ca2c:	00000000 	nop
    ca30:	00000000 	nop
    ca34:	3c0cf23b 	lui	t4,0xf23b
    ca38:	358c84c2 	ori	t4,t4,0x84c2
    ca3c:	3c0d5d79 	lui	t5,0x5d79
    ca40:	35adb8a0 	ori	t5,t5,0xb8a0
    ca44:	24100000 	li	s0,0
    ca48:	10000016 	b	caa4 <n30_bne_test+0xcaa4>
    ca4c:	24120000 	li	s2,0
    ca50:	00000000 	nop
    ca54:	3c10f23b 	lui	s0,0xf23b
    ca58:	15280022 	bne	t1,t0,cae4 <n30_bne_test+0xcae4>
    ca5c:	361084c2 	ori	s0,s0,0x84c2
    ca60:	10000022 	b	caec <n30_bne_test+0xcaec>
    ca64:	00000000 	nop
    ca68:	00000000 	nop
    ca6c:	00000021 	move	zero,zero
    ca70:	00000021 	move	zero,zero
    ca74:	00000021 	move	zero,zero
    ca78:	00000021 	move	zero,zero
    ca7c:	00000021 	move	zero,zero
    ca80:	00000021 	move	zero,zero
    ca84:	00000021 	move	zero,zero
    ca88:	00000021 	move	zero,zero
    ca8c:	00000021 	move	zero,zero
    ca90:	00000021 	move	zero,zero
    ca94:	00000021 	move	zero,zero
    ca98:	00000021 	move	zero,zero
    ca9c:	00000021 	move	zero,zero
    caa0:	00000021 	move	zero,zero
    caa4:	3c083c97 	lui	t0,0x3c97
    caa8:	35087628 	ori	t0,t0,0x7628
    caac:	24090000 	li	t1,0
    cab0:	1509ffe8 	bne	t0,t1,ca54 <n30_bne_test+0xca54>
    cab4:	00000000 	nop
    cab8:	1000000c 	b	caec <n30_bne_test+0xcaec>
    cabc:	00000000 	nop
    cac0:	00000000 	nop
    cac4:	00000021 	move	zero,zero
    cac8:	00000021 	move	zero,zero
    cacc:	00000021 	move	zero,zero
    cad0:	00000021 	move	zero,zero
    cad4:	00000021 	move	zero,zero
    cad8:	00000021 	move	zero,zero
    cadc:	00000021 	move	zero,zero
    cae0:	00000021 	move	zero,zero
    cae4:	3c125d79 	lui	s2,0x5d79
    cae8:	3652b8a0 	ori	s2,s2,0xb8a0
    caec:	00000000 	nop
    caf0:	3c14f23b 	lui	s4,0xf23b
    caf4:	369484c2 	ori	s4,s4,0x84c2
    caf8:	16141046 	bne	s0,s4,10c14 <inst_error>
    cafc:	00000000 	nop
    cb00:	00000000 	nop
    cb04:	3c155d79 	lui	s5,0x5d79
    cb08:	36b5b8a0 	ori	s5,s5,0xb8a0
    cb0c:	16551041 	bne	s2,s5,10c14 <inst_error>
    cb10:	00000000 	nop
    cb14:	00000000 	nop
    cb18:	3c0c4729 	lui	t4,0x4729
    cb1c:	358c0560 	ori	t4,t4,0x560
    cb20:	3c0d9858 	lui	t5,0x9858
    cb24:	35ada8c0 	ori	t5,t5,0xa8c0
    cb28:	24100000 	li	s0,0
    cb2c:	10000016 	b	cb88 <n30_bne_test+0xcb88>
    cb30:	24120000 	li	s2,0
    cb34:	00000000 	nop
    cb38:	3c104729 	lui	s0,0x4729
    cb3c:	15280022 	bne	t1,t0,cbc8 <n30_bne_test+0xcbc8>
    cb40:	36100560 	ori	s0,s0,0x560
    cb44:	10000022 	b	cbd0 <n30_bne_test+0xcbd0>
    cb48:	00000000 	nop
    cb4c:	00000000 	nop
    cb50:	00000021 	move	zero,zero
    cb54:	00000021 	move	zero,zero
    cb58:	00000021 	move	zero,zero
    cb5c:	00000021 	move	zero,zero
    cb60:	00000021 	move	zero,zero
    cb64:	00000021 	move	zero,zero
    cb68:	00000021 	move	zero,zero
    cb6c:	00000021 	move	zero,zero
    cb70:	00000021 	move	zero,zero
    cb74:	00000021 	move	zero,zero
    cb78:	00000021 	move	zero,zero
    cb7c:	00000021 	move	zero,zero
    cb80:	00000021 	move	zero,zero
    cb84:	00000021 	move	zero,zero
    cb88:	3c08fd6e 	lui	t0,0xfd6e
    cb8c:	35087b90 	ori	t0,t0,0x7b90
    cb90:	24090000 	li	t1,0
    cb94:	1509ffe8 	bne	t0,t1,cb38 <n30_bne_test+0xcb38>
    cb98:	00000000 	nop
    cb9c:	1000000c 	b	cbd0 <n30_bne_test+0xcbd0>
    cba0:	00000000 	nop
    cba4:	00000000 	nop
    cba8:	00000021 	move	zero,zero
    cbac:	00000021 	move	zero,zero
    cbb0:	00000021 	move	zero,zero
    cbb4:	00000021 	move	zero,zero
    cbb8:	00000021 	move	zero,zero
    cbbc:	00000021 	move	zero,zero
    cbc0:	00000021 	move	zero,zero
    cbc4:	00000021 	move	zero,zero
    cbc8:	3c129858 	lui	s2,0x9858
    cbcc:	3652a8c0 	ori	s2,s2,0xa8c0
    cbd0:	00000000 	nop
    cbd4:	3c144729 	lui	s4,0x4729
    cbd8:	36940560 	ori	s4,s4,0x560
    cbdc:	1614100d 	bne	s0,s4,10c14 <inst_error>
    cbe0:	00000000 	nop
    cbe4:	00000000 	nop
    cbe8:	3c159858 	lui	s5,0x9858
    cbec:	36b5a8c0 	ori	s5,s5,0xa8c0
    cbf0:	16551008 	bne	s2,s5,10c14 <inst_error>
    cbf4:	00000000 	nop
    cbf8:	00000000 	nop
    cbfc:	3c0cb090 	lui	t4,0xb090
    cc00:	358cf1c2 	ori	t4,t4,0xf1c2
    cc04:	3c0dd924 	lui	t5,0xd924
    cc08:	35ad3f16 	ori	t5,t5,0x3f16
    cc0c:	24100000 	li	s0,0
    cc10:	10000016 	b	cc6c <n30_bne_test+0xcc6c>
    cc14:	24120000 	li	s2,0
    cc18:	00000000 	nop
    cc1c:	3c10b090 	lui	s0,0xb090
    cc20:	15280022 	bne	t1,t0,ccac <n30_bne_test+0xccac>
    cc24:	3610f1c2 	ori	s0,s0,0xf1c2
    cc28:	10000022 	b	ccb4 <n30_bne_test+0xccb4>
    cc2c:	00000000 	nop
    cc30:	00000000 	nop
    cc34:	00000021 	move	zero,zero
    cc38:	00000021 	move	zero,zero
    cc3c:	00000021 	move	zero,zero
    cc40:	00000021 	move	zero,zero
    cc44:	00000021 	move	zero,zero
    cc48:	00000021 	move	zero,zero
    cc4c:	00000021 	move	zero,zero
    cc50:	00000021 	move	zero,zero
    cc54:	00000021 	move	zero,zero
    cc58:	00000021 	move	zero,zero
    cc5c:	00000021 	move	zero,zero
    cc60:	00000021 	move	zero,zero
    cc64:	00000021 	move	zero,zero
    cc68:	00000021 	move	zero,zero
    cc6c:	3c080a5c 	lui	t0,0xa5c
    cc70:	3508f8a4 	ori	t0,t0,0xf8a4
    cc74:	24090000 	li	t1,0
    cc78:	1509ffe8 	bne	t0,t1,cc1c <n30_bne_test+0xcc1c>
    cc7c:	00000000 	nop
    cc80:	1000000c 	b	ccb4 <n30_bne_test+0xccb4>
    cc84:	00000000 	nop
    cc88:	00000000 	nop
    cc8c:	00000021 	move	zero,zero
    cc90:	00000021 	move	zero,zero
    cc94:	00000021 	move	zero,zero
    cc98:	00000021 	move	zero,zero
    cc9c:	00000021 	move	zero,zero
    cca0:	00000021 	move	zero,zero
    cca4:	00000021 	move	zero,zero
    cca8:	00000021 	move	zero,zero
    ccac:	3c12d924 	lui	s2,0xd924
    ccb0:	36523f16 	ori	s2,s2,0x3f16
    ccb4:	00000000 	nop
    ccb8:	3c14b090 	lui	s4,0xb090
    ccbc:	3694f1c2 	ori	s4,s4,0xf1c2
    ccc0:	16140fd4 	bne	s0,s4,10c14 <inst_error>
    ccc4:	00000000 	nop
    ccc8:	00000000 	nop
    cccc:	3c15d924 	lui	s5,0xd924
    ccd0:	36b53f16 	ori	s5,s5,0x3f16
    ccd4:	16550fcf 	bne	s2,s5,10c14 <inst_error>
    ccd8:	00000000 	nop
    ccdc:	00000000 	nop
    cce0:	3c0cd257 	lui	t4,0xd257
    cce4:	358c1570 	ori	t4,t4,0x1570
    cce8:	3c0dde69 	lui	t5,0xde69
    ccec:	35ad657e 	ori	t5,t5,0x657e
    ccf0:	24100000 	li	s0,0
    ccf4:	10000016 	b	cd50 <n30_bne_test+0xcd50>
    ccf8:	24120000 	li	s2,0
    ccfc:	00000000 	nop
    cd00:	3c10d257 	lui	s0,0xd257
    cd04:	15280022 	bne	t1,t0,cd90 <n30_bne_test+0xcd90>
    cd08:	36101570 	ori	s0,s0,0x1570
    cd0c:	10000022 	b	cd98 <n30_bne_test+0xcd98>
    cd10:	00000000 	nop
    cd14:	00000000 	nop
    cd18:	00000021 	move	zero,zero
    cd1c:	00000021 	move	zero,zero
    cd20:	00000021 	move	zero,zero
    cd24:	00000021 	move	zero,zero
    cd28:	00000021 	move	zero,zero
    cd2c:	00000021 	move	zero,zero
    cd30:	00000021 	move	zero,zero
    cd34:	00000021 	move	zero,zero
    cd38:	00000021 	move	zero,zero
    cd3c:	00000021 	move	zero,zero
    cd40:	00000021 	move	zero,zero
    cd44:	00000021 	move	zero,zero
    cd48:	00000021 	move	zero,zero
    cd4c:	00000021 	move	zero,zero
    cd50:	3c08c02c 	lui	t0,0xc02c
    cd54:	35089c40 	ori	t0,t0,0x9c40
    cd58:	24090000 	li	t1,0
    cd5c:	1509ffe8 	bne	t0,t1,cd00 <n30_bne_test+0xcd00>
    cd60:	00000000 	nop
    cd64:	1000000c 	b	cd98 <n30_bne_test+0xcd98>
    cd68:	00000000 	nop
    cd6c:	00000000 	nop
    cd70:	00000021 	move	zero,zero
    cd74:	00000021 	move	zero,zero
    cd78:	00000021 	move	zero,zero
    cd7c:	00000021 	move	zero,zero
    cd80:	00000021 	move	zero,zero
    cd84:	00000021 	move	zero,zero
    cd88:	00000021 	move	zero,zero
    cd8c:	00000021 	move	zero,zero
    cd90:	3c12de69 	lui	s2,0xde69
    cd94:	3652657e 	ori	s2,s2,0x657e
    cd98:	00000000 	nop
    cd9c:	3c14d257 	lui	s4,0xd257
    cda0:	36941570 	ori	s4,s4,0x1570
    cda4:	16140f9b 	bne	s0,s4,10c14 <inst_error>
    cda8:	00000000 	nop
    cdac:	00000000 	nop
    cdb0:	3c15de69 	lui	s5,0xde69
    cdb4:	36b5657e 	ori	s5,s5,0x657e
    cdb8:	16550f96 	bne	s2,s5,10c14 <inst_error>
    cdbc:	00000000 	nop
    cdc0:	00000000 	nop
    cdc4:	3c0caf43 	lui	t4,0xaf43
    cdc8:	358c22b0 	ori	t4,t4,0x22b0
    cdcc:	3c0d5e1a 	lui	t5,0x5e1a
    cdd0:	35ad0d5e 	ori	t5,t5,0xd5e
    cdd4:	24100000 	li	s0,0
    cdd8:	10000016 	b	ce34 <n30_bne_test+0xce34>
    cddc:	24120000 	li	s2,0
    cde0:	00000000 	nop
    cde4:	3c10af43 	lui	s0,0xaf43
    cde8:	15280022 	bne	t1,t0,ce74 <n30_bne_test+0xce74>
    cdec:	361022b0 	ori	s0,s0,0x22b0
    cdf0:	10000022 	b	ce7c <n30_bne_test+0xce7c>
    cdf4:	00000000 	nop
    cdf8:	00000000 	nop
    cdfc:	00000021 	move	zero,zero
    ce00:	00000021 	move	zero,zero
    ce04:	00000021 	move	zero,zero
    ce08:	00000021 	move	zero,zero
    ce0c:	00000021 	move	zero,zero
    ce10:	00000021 	move	zero,zero
    ce14:	00000021 	move	zero,zero
    ce18:	00000021 	move	zero,zero
    ce1c:	00000021 	move	zero,zero
    ce20:	00000021 	move	zero,zero
    ce24:	00000021 	move	zero,zero
    ce28:	00000021 	move	zero,zero
    ce2c:	00000021 	move	zero,zero
    ce30:	00000021 	move	zero,zero
    ce34:	3c08d8ff 	lui	t0,0xd8ff
    ce38:	350871e8 	ori	t0,t0,0x71e8
    ce3c:	24090000 	li	t1,0
    ce40:	1509ffe8 	bne	t0,t1,cde4 <n30_bne_test+0xcde4>
    ce44:	00000000 	nop
    ce48:	1000000c 	b	ce7c <n30_bne_test+0xce7c>
    ce4c:	00000000 	nop
    ce50:	00000000 	nop
    ce54:	00000021 	move	zero,zero
    ce58:	00000021 	move	zero,zero
    ce5c:	00000021 	move	zero,zero
    ce60:	00000021 	move	zero,zero
    ce64:	00000021 	move	zero,zero
    ce68:	00000021 	move	zero,zero
    ce6c:	00000021 	move	zero,zero
    ce70:	00000021 	move	zero,zero
    ce74:	3c125e1a 	lui	s2,0x5e1a
    ce78:	36520d5e 	ori	s2,s2,0xd5e
    ce7c:	00000000 	nop
    ce80:	3c14af43 	lui	s4,0xaf43
    ce84:	369422b0 	ori	s4,s4,0x22b0
    ce88:	16140f62 	bne	s0,s4,10c14 <inst_error>
    ce8c:	00000000 	nop
    ce90:	00000000 	nop
    ce94:	3c155e1a 	lui	s5,0x5e1a
    ce98:	36b50d5e 	ori	s5,s5,0xd5e
    ce9c:	16550f5d 	bne	s2,s5,10c14 <inst_error>
    cea0:	00000000 	nop
    cea4:	00000000 	nop
    cea8:	3c0cecab 	lui	t4,0xecab
    ceac:	358c9b60 	ori	t4,t4,0x9b60
    ceb0:	3c0d152b 	lui	t5,0x152b
    ceb4:	35adde74 	ori	t5,t5,0xde74
    ceb8:	24100000 	li	s0,0
    cebc:	10000016 	b	cf18 <n30_bne_test+0xcf18>
    cec0:	24120000 	li	s2,0
    cec4:	00000000 	nop
    cec8:	3c10ecab 	lui	s0,0xecab
    cecc:	15280022 	bne	t1,t0,cf58 <n30_bne_test+0xcf58>
    ced0:	36109b60 	ori	s0,s0,0x9b60
    ced4:	10000022 	b	cf60 <n30_bne_test+0xcf60>
    ced8:	00000000 	nop
    cedc:	00000000 	nop
    cee0:	00000021 	move	zero,zero
    cee4:	00000021 	move	zero,zero
    cee8:	00000021 	move	zero,zero
    ceec:	00000021 	move	zero,zero
    cef0:	00000021 	move	zero,zero
    cef4:	00000021 	move	zero,zero
    cef8:	00000021 	move	zero,zero
    cefc:	00000021 	move	zero,zero
    cf00:	00000021 	move	zero,zero
    cf04:	00000021 	move	zero,zero
    cf08:	00000021 	move	zero,zero
    cf0c:	00000021 	move	zero,zero
    cf10:	00000021 	move	zero,zero
    cf14:	00000021 	move	zero,zero
    cf18:	3c08671f 	lui	t0,0x671f
    cf1c:	3508d946 	ori	t0,t0,0xd946
    cf20:	24090000 	li	t1,0
    cf24:	1509ffe8 	bne	t0,t1,cec8 <n30_bne_test+0xcec8>
    cf28:	00000000 	nop
    cf2c:	1000000c 	b	cf60 <n30_bne_test+0xcf60>
    cf30:	00000000 	nop
    cf34:	00000000 	nop
    cf38:	00000021 	move	zero,zero
    cf3c:	00000021 	move	zero,zero
    cf40:	00000021 	move	zero,zero
    cf44:	00000021 	move	zero,zero
    cf48:	00000021 	move	zero,zero
    cf4c:	00000021 	move	zero,zero
    cf50:	00000021 	move	zero,zero
    cf54:	00000021 	move	zero,zero
    cf58:	3c12152b 	lui	s2,0x152b
    cf5c:	3652de74 	ori	s2,s2,0xde74
    cf60:	00000000 	nop
    cf64:	3c14ecab 	lui	s4,0xecab
    cf68:	36949b60 	ori	s4,s4,0x9b60
    cf6c:	16140f29 	bne	s0,s4,10c14 <inst_error>
    cf70:	00000000 	nop
    cf74:	00000000 	nop
    cf78:	3c15152b 	lui	s5,0x152b
    cf7c:	36b5de74 	ori	s5,s5,0xde74
    cf80:	16550f24 	bne	s2,s5,10c14 <inst_error>
    cf84:	00000000 	nop
    cf88:	00000000 	nop
    cf8c:	3c0c426b 	lui	t4,0x426b
    cf90:	358c0338 	ori	t4,t4,0x338
    cf94:	3c0dd067 	lui	t5,0xd067
    cf98:	35adbe5d 	ori	t5,t5,0xbe5d
    cf9c:	24100000 	li	s0,0
    cfa0:	10000016 	b	cffc <n30_bne_test+0xcffc>
    cfa4:	24120000 	li	s2,0
    cfa8:	00000000 	nop
    cfac:	3c10426b 	lui	s0,0x426b
    cfb0:	15280022 	bne	t1,t0,d03c <n30_bne_test+0xd03c>
    cfb4:	36100338 	ori	s0,s0,0x338
    cfb8:	10000022 	b	d044 <n30_bne_test+0xd044>
    cfbc:	00000000 	nop
    cfc0:	00000000 	nop
    cfc4:	00000021 	move	zero,zero
    cfc8:	00000021 	move	zero,zero
    cfcc:	00000021 	move	zero,zero
    cfd0:	00000021 	move	zero,zero
    cfd4:	00000021 	move	zero,zero
    cfd8:	00000021 	move	zero,zero
    cfdc:	00000021 	move	zero,zero
    cfe0:	00000021 	move	zero,zero
    cfe4:	00000021 	move	zero,zero
    cfe8:	00000021 	move	zero,zero
    cfec:	00000021 	move	zero,zero
    cff0:	00000021 	move	zero,zero
    cff4:	00000021 	move	zero,zero
    cff8:	00000021 	move	zero,zero
    cffc:	3c08d8e5 	lui	t0,0xd8e5
    d000:	3508c300 	ori	t0,t0,0xc300
    d004:	24090000 	li	t1,0
    d008:	1509ffe8 	bne	t0,t1,cfac <n30_bne_test+0xcfac>
    d00c:	00000000 	nop
    d010:	1000000c 	b	d044 <n30_bne_test+0xd044>
    d014:	00000000 	nop
    d018:	00000000 	nop
    d01c:	00000021 	move	zero,zero
    d020:	00000021 	move	zero,zero
    d024:	00000021 	move	zero,zero
    d028:	00000021 	move	zero,zero
    d02c:	00000021 	move	zero,zero
    d030:	00000021 	move	zero,zero
    d034:	00000021 	move	zero,zero
    d038:	00000021 	move	zero,zero
    d03c:	3c12d067 	lui	s2,0xd067
    d040:	3652be5d 	ori	s2,s2,0xbe5d
    d044:	00000000 	nop
    d048:	3c14426b 	lui	s4,0x426b
    d04c:	36940338 	ori	s4,s4,0x338
    d050:	16140ef0 	bne	s0,s4,10c14 <inst_error>
    d054:	00000000 	nop
    d058:	00000000 	nop
    d05c:	3c15d067 	lui	s5,0xd067
    d060:	36b5be5d 	ori	s5,s5,0xbe5d
    d064:	16550eeb 	bne	s2,s5,10c14 <inst_error>
    d068:	00000000 	nop
    d06c:	00000000 	nop
    d070:	3c0c0b0f 	lui	t4,0xb0f
    d074:	358cb6fa 	ori	t4,t4,0xb6fa
    d078:	3c0da88c 	lui	t5,0xa88c
    d07c:	35ada280 	ori	t5,t5,0xa280
    d080:	24100000 	li	s0,0
    d084:	10000016 	b	d0e0 <n30_bne_test+0xd0e0>
    d088:	24120000 	li	s2,0
    d08c:	00000000 	nop
    d090:	3c100b0f 	lui	s0,0xb0f
    d094:	15280022 	bne	t1,t0,d120 <n30_bne_test+0xd120>
    d098:	3610b6fa 	ori	s0,s0,0xb6fa
    d09c:	10000022 	b	d128 <n30_bne_test+0xd128>
    d0a0:	00000000 	nop
    d0a4:	00000000 	nop
    d0a8:	00000021 	move	zero,zero
    d0ac:	00000021 	move	zero,zero
    d0b0:	00000021 	move	zero,zero
    d0b4:	00000021 	move	zero,zero
    d0b8:	00000021 	move	zero,zero
    d0bc:	00000021 	move	zero,zero
    d0c0:	00000021 	move	zero,zero
    d0c4:	00000021 	move	zero,zero
    d0c8:	00000021 	move	zero,zero
    d0cc:	00000021 	move	zero,zero
    d0d0:	00000021 	move	zero,zero
    d0d4:	00000021 	move	zero,zero
    d0d8:	00000021 	move	zero,zero
    d0dc:	00000021 	move	zero,zero
    d0e0:	3c08e59f 	lui	t0,0xe59f
    d0e4:	3508c674 	ori	t0,t0,0xc674
    d0e8:	24090000 	li	t1,0
    d0ec:	1509ffe8 	bne	t0,t1,d090 <n30_bne_test+0xd090>
    d0f0:	00000000 	nop
    d0f4:	1000000c 	b	d128 <n30_bne_test+0xd128>
    d0f8:	00000000 	nop
    d0fc:	00000000 	nop
    d100:	00000021 	move	zero,zero
    d104:	00000021 	move	zero,zero
    d108:	00000021 	move	zero,zero
    d10c:	00000021 	move	zero,zero
    d110:	00000021 	move	zero,zero
    d114:	00000021 	move	zero,zero
    d118:	00000021 	move	zero,zero
    d11c:	00000021 	move	zero,zero
    d120:	3c12a88c 	lui	s2,0xa88c
    d124:	3652a280 	ori	s2,s2,0xa280
    d128:	00000000 	nop
    d12c:	3c140b0f 	lui	s4,0xb0f
    d130:	3694b6fa 	ori	s4,s4,0xb6fa
    d134:	16140eb7 	bne	s0,s4,10c14 <inst_error>
    d138:	00000000 	nop
    d13c:	00000000 	nop
    d140:	3c15a88c 	lui	s5,0xa88c
    d144:	36b5a280 	ori	s5,s5,0xa280
    d148:	16550eb2 	bne	s2,s5,10c14 <inst_error>
    d14c:	00000000 	nop
    d150:	00000000 	nop
    d154:	3c0c3331 	lui	t4,0x3331
    d158:	358c0338 	ori	t4,t4,0x338
    d15c:	3c0dd0c8 	lui	t5,0xd0c8
    d160:	35ad3580 	ori	t5,t5,0x3580
    d164:	24100000 	li	s0,0
    d168:	10000016 	b	d1c4 <n30_bne_test+0xd1c4>
    d16c:	24120000 	li	s2,0
    d170:	00000000 	nop
    d174:	3c103331 	lui	s0,0x3331
    d178:	15280022 	bne	t1,t0,d204 <n30_bne_test+0xd204>
    d17c:	36100338 	ori	s0,s0,0x338
    d180:	10000022 	b	d20c <n30_bne_test+0xd20c>
    d184:	00000000 	nop
    d188:	00000000 	nop
    d18c:	00000021 	move	zero,zero
    d190:	00000021 	move	zero,zero
    d194:	00000021 	move	zero,zero
    d198:	00000021 	move	zero,zero
    d19c:	00000021 	move	zero,zero
    d1a0:	00000021 	move	zero,zero
    d1a4:	00000021 	move	zero,zero
    d1a8:	00000021 	move	zero,zero
    d1ac:	00000021 	move	zero,zero
    d1b0:	00000021 	move	zero,zero
    d1b4:	00000021 	move	zero,zero
    d1b8:	00000021 	move	zero,zero
    d1bc:	00000021 	move	zero,zero
    d1c0:	00000021 	move	zero,zero
    d1c4:	3c08ad87 	lui	t0,0xad87
    d1c8:	35089fc7 	ori	t0,t0,0x9fc7
    d1cc:	24090000 	li	t1,0
    d1d0:	1509ffe8 	bne	t0,t1,d174 <n30_bne_test+0xd174>
    d1d4:	00000000 	nop
    d1d8:	1000000c 	b	d20c <n30_bne_test+0xd20c>
    d1dc:	00000000 	nop
    d1e0:	00000000 	nop
    d1e4:	00000021 	move	zero,zero
    d1e8:	00000021 	move	zero,zero
    d1ec:	00000021 	move	zero,zero
    d1f0:	00000021 	move	zero,zero
    d1f4:	00000021 	move	zero,zero
    d1f8:	00000021 	move	zero,zero
    d1fc:	00000021 	move	zero,zero
    d200:	00000021 	move	zero,zero
    d204:	3c12d0c8 	lui	s2,0xd0c8
    d208:	36523580 	ori	s2,s2,0x3580
    d20c:	00000000 	nop
    d210:	3c143331 	lui	s4,0x3331
    d214:	36940338 	ori	s4,s4,0x338
    d218:	16140e7e 	bne	s0,s4,10c14 <inst_error>
    d21c:	00000000 	nop
    d220:	00000000 	nop
    d224:	3c15d0c8 	lui	s5,0xd0c8
    d228:	36b53580 	ori	s5,s5,0x3580
    d22c:	16550e79 	bne	s2,s5,10c14 <inst_error>
    d230:	00000000 	nop
    d234:	00000000 	nop
    d238:	3c0cb7c9 	lui	t4,0xb7c9
    d23c:	358c4b51 	ori	t4,t4,0x4b51
    d240:	3c0d2486 	lui	t5,0x2486
    d244:	35ad6f90 	ori	t5,t5,0x6f90
    d248:	24100000 	li	s0,0
    d24c:	10000016 	b	d2a8 <n30_bne_test+0xd2a8>
    d250:	24120000 	li	s2,0
    d254:	00000000 	nop
    d258:	3c10b7c9 	lui	s0,0xb7c9
    d25c:	15280022 	bne	t1,t0,d2e8 <n30_bne_test+0xd2e8>
    d260:	36104b51 	ori	s0,s0,0x4b51
    d264:	10000022 	b	d2f0 <n30_bne_test+0xd2f0>
    d268:	00000000 	nop
    d26c:	00000000 	nop
    d270:	00000021 	move	zero,zero
    d274:	00000021 	move	zero,zero
    d278:	00000021 	move	zero,zero
    d27c:	00000021 	move	zero,zero
    d280:	00000021 	move	zero,zero
    d284:	00000021 	move	zero,zero
    d288:	00000021 	move	zero,zero
    d28c:	00000021 	move	zero,zero
    d290:	00000021 	move	zero,zero
    d294:	00000021 	move	zero,zero
    d298:	00000021 	move	zero,zero
    d29c:	00000021 	move	zero,zero
    d2a0:	00000021 	move	zero,zero
    d2a4:	00000021 	move	zero,zero
    d2a8:	3c08d8b6 	lui	t0,0xd8b6
    d2ac:	35089bf4 	ori	t0,t0,0x9bf4
    d2b0:	24090000 	li	t1,0
    d2b4:	1509ffe8 	bne	t0,t1,d258 <n30_bne_test+0xd258>
    d2b8:	00000000 	nop
    d2bc:	1000000c 	b	d2f0 <n30_bne_test+0xd2f0>
    d2c0:	00000000 	nop
    d2c4:	00000000 	nop
    d2c8:	00000021 	move	zero,zero
    d2cc:	00000021 	move	zero,zero
    d2d0:	00000021 	move	zero,zero
    d2d4:	00000021 	move	zero,zero
    d2d8:	00000021 	move	zero,zero
    d2dc:	00000021 	move	zero,zero
    d2e0:	00000021 	move	zero,zero
    d2e4:	00000021 	move	zero,zero
    d2e8:	3c122486 	lui	s2,0x2486
    d2ec:	36526f90 	ori	s2,s2,0x6f90
    d2f0:	00000000 	nop
    d2f4:	3c14b7c9 	lui	s4,0xb7c9
    d2f8:	36944b51 	ori	s4,s4,0x4b51
    d2fc:	16140e45 	bne	s0,s4,10c14 <inst_error>
    d300:	00000000 	nop
    d304:	00000000 	nop
    d308:	3c152486 	lui	s5,0x2486
    d30c:	36b56f90 	ori	s5,s5,0x6f90
    d310:	16550e40 	bne	s2,s5,10c14 <inst_error>
    d314:	00000000 	nop
    d318:	00000000 	nop
    d31c:	3c0cbf0e 	lui	t4,0xbf0e
    d320:	358cedc4 	ori	t4,t4,0xedc4
    d324:	3c0d7d46 	lui	t5,0x7d46
    d328:	35ad3846 	ori	t5,t5,0x3846
    d32c:	24100000 	li	s0,0
    d330:	10000016 	b	d38c <n30_bne_test+0xd38c>
    d334:	24120000 	li	s2,0
    d338:	00000000 	nop
    d33c:	3c10bf0e 	lui	s0,0xbf0e
    d340:	15280022 	bne	t1,t0,d3cc <n30_bne_test+0xd3cc>
    d344:	3610edc4 	ori	s0,s0,0xedc4
    d348:	10000022 	b	d3d4 <n30_bne_test+0xd3d4>
    d34c:	00000000 	nop
    d350:	00000000 	nop
    d354:	00000021 	move	zero,zero
    d358:	00000021 	move	zero,zero
    d35c:	00000021 	move	zero,zero
    d360:	00000021 	move	zero,zero
    d364:	00000021 	move	zero,zero
    d368:	00000021 	move	zero,zero
    d36c:	00000021 	move	zero,zero
    d370:	00000021 	move	zero,zero
    d374:	00000021 	move	zero,zero
    d378:	00000021 	move	zero,zero
    d37c:	00000021 	move	zero,zero
    d380:	00000021 	move	zero,zero
    d384:	00000021 	move	zero,zero
    d388:	00000021 	move	zero,zero
    d38c:	3c080b65 	lui	t0,0xb65
    d390:	350873f2 	ori	t0,t0,0x73f2
    d394:	24090000 	li	t1,0
    d398:	1509ffe8 	bne	t0,t1,d33c <n30_bne_test+0xd33c>
    d39c:	00000000 	nop
    d3a0:	1000000c 	b	d3d4 <n30_bne_test+0xd3d4>
    d3a4:	00000000 	nop
    d3a8:	00000000 	nop
    d3ac:	00000021 	move	zero,zero
    d3b0:	00000021 	move	zero,zero
    d3b4:	00000021 	move	zero,zero
    d3b8:	00000021 	move	zero,zero
    d3bc:	00000021 	move	zero,zero
    d3c0:	00000021 	move	zero,zero
    d3c4:	00000021 	move	zero,zero
    d3c8:	00000021 	move	zero,zero
    d3cc:	3c127d46 	lui	s2,0x7d46
    d3d0:	36523846 	ori	s2,s2,0x3846
    d3d4:	00000000 	nop
    d3d8:	3c14bf0e 	lui	s4,0xbf0e
    d3dc:	3694edc4 	ori	s4,s4,0xedc4
    d3e0:	16140e0c 	bne	s0,s4,10c14 <inst_error>
    d3e4:	00000000 	nop
    d3e8:	00000000 	nop
    d3ec:	3c157d46 	lui	s5,0x7d46
    d3f0:	36b53846 	ori	s5,s5,0x3846
    d3f4:	16550e07 	bne	s2,s5,10c14 <inst_error>
    d3f8:	00000000 	nop
    d3fc:	00000000 	nop
    d400:	3c0c7531 	lui	t4,0x7531
    d404:	358c0c70 	ori	t4,t4,0xc70
    d408:	3c0de977 	lui	t5,0xe977
    d40c:	35aded44 	ori	t5,t5,0xed44
    d410:	24100000 	li	s0,0
    d414:	10000016 	b	d470 <n30_bne_test+0xd470>
    d418:	24120000 	li	s2,0
    d41c:	00000000 	nop
    d420:	3c107531 	lui	s0,0x7531
    d424:	15280021 	bne	t1,t0,d4ac <n30_bne_test+0xd4ac>
    d428:	36100c70 	ori	s0,s0,0xc70
    d42c:	10000021 	b	d4b4 <n30_bne_test+0xd4b4>
    d430:	00000000 	nop
    d434:	00000000 	nop
    d438:	00000021 	move	zero,zero
    d43c:	00000021 	move	zero,zero
    d440:	00000021 	move	zero,zero
    d444:	00000021 	move	zero,zero
    d448:	00000021 	move	zero,zero
    d44c:	00000021 	move	zero,zero
    d450:	00000021 	move	zero,zero
    d454:	00000021 	move	zero,zero
    d458:	00000021 	move	zero,zero
    d45c:	00000021 	move	zero,zero
    d460:	00000021 	move	zero,zero
    d464:	00000021 	move	zero,zero
    d468:	00000021 	move	zero,zero
    d46c:	00000021 	move	zero,zero
    d470:	3c08b9f3 	lui	t0,0xb9f3
    d474:	24090000 	li	t1,0
    d478:	1509ffe9 	bne	t0,t1,d420 <n30_bne_test+0xd420>
    d47c:	00000000 	nop
    d480:	1000000c 	b	d4b4 <n30_bne_test+0xd4b4>
    d484:	00000000 	nop
    d488:	00000000 	nop
    d48c:	00000021 	move	zero,zero
    d490:	00000021 	move	zero,zero
    d494:	00000021 	move	zero,zero
    d498:	00000021 	move	zero,zero
    d49c:	00000021 	move	zero,zero
    d4a0:	00000021 	move	zero,zero
    d4a4:	00000021 	move	zero,zero
    d4a8:	00000021 	move	zero,zero
    d4ac:	3c12e977 	lui	s2,0xe977
    d4b0:	3652ed44 	ori	s2,s2,0xed44
    d4b4:	00000000 	nop
    d4b8:	3c147531 	lui	s4,0x7531
    d4bc:	36940c70 	ori	s4,s4,0xc70
    d4c0:	16140dd4 	bne	s0,s4,10c14 <inst_error>
    d4c4:	00000000 	nop
    d4c8:	00000000 	nop
    d4cc:	3c15e977 	lui	s5,0xe977
    d4d0:	36b5ed44 	ori	s5,s5,0xed44
    d4d4:	16550dcf 	bne	s2,s5,10c14 <inst_error>
    d4d8:	00000000 	nop
    d4dc:	00000000 	nop
    d4e0:	3c0c0d05 	lui	t4,0xd05
    d4e4:	358cab02 	ori	t4,t4,0xab02
    d4e8:	3c0d1e8f 	lui	t5,0x1e8f
    d4ec:	35ad8702 	ori	t5,t5,0x8702
    d4f0:	24100000 	li	s0,0
    d4f4:	10000016 	b	d550 <n30_bne_test+0xd550>
    d4f8:	24120000 	li	s2,0
    d4fc:	00000000 	nop
    d500:	3c100d05 	lui	s0,0xd05
    d504:	15280022 	bne	t1,t0,d590 <n30_bne_test+0xd590>
    d508:	3610ab02 	ori	s0,s0,0xab02
    d50c:	10000022 	b	d598 <n30_bne_test+0xd598>
    d510:	00000000 	nop
    d514:	00000000 	nop
    d518:	00000021 	move	zero,zero
    d51c:	00000021 	move	zero,zero
    d520:	00000021 	move	zero,zero
    d524:	00000021 	move	zero,zero
    d528:	00000021 	move	zero,zero
    d52c:	00000021 	move	zero,zero
    d530:	00000021 	move	zero,zero
    d534:	00000021 	move	zero,zero
    d538:	00000021 	move	zero,zero
    d53c:	00000021 	move	zero,zero
    d540:	00000021 	move	zero,zero
    d544:	00000021 	move	zero,zero
    d548:	00000021 	move	zero,zero
    d54c:	00000021 	move	zero,zero
    d550:	3c08ee48 	lui	t0,0xee48
    d554:	3508bda8 	ori	t0,t0,0xbda8
    d558:	24090000 	li	t1,0
    d55c:	1509ffe8 	bne	t0,t1,d500 <n30_bne_test+0xd500>
    d560:	00000000 	nop
    d564:	1000000c 	b	d598 <n30_bne_test+0xd598>
    d568:	00000000 	nop
    d56c:	00000000 	nop
    d570:	00000021 	move	zero,zero
    d574:	00000021 	move	zero,zero
    d578:	00000021 	move	zero,zero
    d57c:	00000021 	move	zero,zero
    d580:	00000021 	move	zero,zero
    d584:	00000021 	move	zero,zero
    d588:	00000021 	move	zero,zero
    d58c:	00000021 	move	zero,zero
    d590:	3c121e8f 	lui	s2,0x1e8f
    d594:	36528702 	ori	s2,s2,0x8702
    d598:	00000000 	nop
    d59c:	3c140d05 	lui	s4,0xd05
    d5a0:	3694ab02 	ori	s4,s4,0xab02
    d5a4:	16140d9b 	bne	s0,s4,10c14 <inst_error>
    d5a8:	00000000 	nop
    d5ac:	00000000 	nop
    d5b0:	3c151e8f 	lui	s5,0x1e8f
    d5b4:	36b58702 	ori	s5,s5,0x8702
    d5b8:	16550d96 	bne	s2,s5,10c14 <inst_error>
    d5bc:	00000000 	nop
    d5c0:	00000000 	nop
    d5c4:	3c0c445a 	lui	t4,0x445a
    d5c8:	358c57e9 	ori	t4,t4,0x57e9
    d5cc:	3c0da940 	lui	t5,0xa940
    d5d0:	35ad150e 	ori	t5,t5,0x150e
    d5d4:	24100000 	li	s0,0
    d5d8:	10000016 	b	d634 <n30_bne_test+0xd634>
    d5dc:	24120000 	li	s2,0
    d5e0:	00000000 	nop
    d5e4:	3c10445a 	lui	s0,0x445a
    d5e8:	15280022 	bne	t1,t0,d674 <n30_bne_test+0xd674>
    d5ec:	361057e9 	ori	s0,s0,0x57e9
    d5f0:	10000022 	b	d67c <n30_bne_test+0xd67c>
    d5f4:	00000000 	nop
    d5f8:	00000000 	nop
    d5fc:	00000021 	move	zero,zero
    d600:	00000021 	move	zero,zero
    d604:	00000021 	move	zero,zero
    d608:	00000021 	move	zero,zero
    d60c:	00000021 	move	zero,zero
    d610:	00000021 	move	zero,zero
    d614:	00000021 	move	zero,zero
    d618:	00000021 	move	zero,zero
    d61c:	00000021 	move	zero,zero
    d620:	00000021 	move	zero,zero
    d624:	00000021 	move	zero,zero
    d628:	00000021 	move	zero,zero
    d62c:	00000021 	move	zero,zero
    d630:	00000021 	move	zero,zero
    d634:	3c081739 	lui	t0,0x1739
    d638:	35086930 	ori	t0,t0,0x6930
    d63c:	24090000 	li	t1,0
    d640:	1509ffe8 	bne	t0,t1,d5e4 <n30_bne_test+0xd5e4>
    d644:	00000000 	nop
    d648:	1000000c 	b	d67c <n30_bne_test+0xd67c>
    d64c:	00000000 	nop
    d650:	00000000 	nop
    d654:	00000021 	move	zero,zero
    d658:	00000021 	move	zero,zero
    d65c:	00000021 	move	zero,zero
    d660:	00000021 	move	zero,zero
    d664:	00000021 	move	zero,zero
    d668:	00000021 	move	zero,zero
    d66c:	00000021 	move	zero,zero
    d670:	00000021 	move	zero,zero
    d674:	3c12a940 	lui	s2,0xa940
    d678:	3652150e 	ori	s2,s2,0x150e
    d67c:	00000000 	nop
    d680:	3c14445a 	lui	s4,0x445a
    d684:	369457e9 	ori	s4,s4,0x57e9
    d688:	16140d62 	bne	s0,s4,10c14 <inst_error>
    d68c:	00000000 	nop
    d690:	00000000 	nop
    d694:	3c15a940 	lui	s5,0xa940
    d698:	36b5150e 	ori	s5,s5,0x150e
    d69c:	16550d5d 	bne	s2,s5,10c14 <inst_error>
    d6a0:	00000000 	nop
    d6a4:	00000000 	nop
    d6a8:	3c0cf020 	lui	t4,0xf020
    d6ac:	358c5350 	ori	t4,t4,0x5350
    d6b0:	3c0de468 	lui	t5,0xe468
    d6b4:	35add614 	ori	t5,t5,0xd614
    d6b8:	24100000 	li	s0,0
    d6bc:	10000016 	b	d718 <n30_bne_test+0xd718>
    d6c0:	24120000 	li	s2,0
    d6c4:	00000000 	nop
    d6c8:	3c10f020 	lui	s0,0xf020
    d6cc:	15280022 	bne	t1,t0,d758 <n30_bne_test+0xd758>
    d6d0:	36105350 	ori	s0,s0,0x5350
    d6d4:	10000022 	b	d760 <n30_bne_test+0xd760>
    d6d8:	00000000 	nop
    d6dc:	00000000 	nop
    d6e0:	00000021 	move	zero,zero
    d6e4:	00000021 	move	zero,zero
    d6e8:	00000021 	move	zero,zero
    d6ec:	00000021 	move	zero,zero
    d6f0:	00000021 	move	zero,zero
    d6f4:	00000021 	move	zero,zero
    d6f8:	00000021 	move	zero,zero
    d6fc:	00000021 	move	zero,zero
    d700:	00000021 	move	zero,zero
    d704:	00000021 	move	zero,zero
    d708:	00000021 	move	zero,zero
    d70c:	00000021 	move	zero,zero
    d710:	00000021 	move	zero,zero
    d714:	00000021 	move	zero,zero
    d718:	3c083d2d 	lui	t0,0x3d2d
    d71c:	35086ed0 	ori	t0,t0,0x6ed0
    d720:	24090000 	li	t1,0
    d724:	1509ffe8 	bne	t0,t1,d6c8 <n30_bne_test+0xd6c8>
    d728:	00000000 	nop
    d72c:	1000000c 	b	d760 <n30_bne_test+0xd760>
    d730:	00000000 	nop
    d734:	00000000 	nop
    d738:	00000021 	move	zero,zero
    d73c:	00000021 	move	zero,zero
    d740:	00000021 	move	zero,zero
    d744:	00000021 	move	zero,zero
    d748:	00000021 	move	zero,zero
    d74c:	00000021 	move	zero,zero
    d750:	00000021 	move	zero,zero
    d754:	00000021 	move	zero,zero
    d758:	3c12e468 	lui	s2,0xe468
    d75c:	3652d614 	ori	s2,s2,0xd614
    d760:	00000000 	nop
    d764:	3c14f020 	lui	s4,0xf020
    d768:	36945350 	ori	s4,s4,0x5350
    d76c:	16140d29 	bne	s0,s4,10c14 <inst_error>
    d770:	00000000 	nop
    d774:	00000000 	nop
    d778:	3c15e468 	lui	s5,0xe468
    d77c:	36b5d614 	ori	s5,s5,0xd614
    d780:	16550d24 	bne	s2,s5,10c14 <inst_error>
    d784:	00000000 	nop
    d788:	00000000 	nop
    d78c:	3c0c8488 	lui	t4,0x8488
    d790:	358c1236 	ori	t4,t4,0x1236
    d794:	3c0d636e 	lui	t5,0x636e
    d798:	35ad19c4 	ori	t5,t5,0x19c4
    d79c:	24100000 	li	s0,0
    d7a0:	10000016 	b	d7fc <n30_bne_test+0xd7fc>
    d7a4:	24120000 	li	s2,0
    d7a8:	00000000 	nop
    d7ac:	3c108488 	lui	s0,0x8488
    d7b0:	15280022 	bne	t1,t0,d83c <n30_bne_test+0xd83c>
    d7b4:	36101236 	ori	s0,s0,0x1236
    d7b8:	10000022 	b	d844 <n30_bne_test+0xd844>
    d7bc:	00000000 	nop
    d7c0:	00000000 	nop
    d7c4:	00000021 	move	zero,zero
    d7c8:	00000021 	move	zero,zero
    d7cc:	00000021 	move	zero,zero
    d7d0:	00000021 	move	zero,zero
    d7d4:	00000021 	move	zero,zero
    d7d8:	00000021 	move	zero,zero
    d7dc:	00000021 	move	zero,zero
    d7e0:	00000021 	move	zero,zero
    d7e4:	00000021 	move	zero,zero
    d7e8:	00000021 	move	zero,zero
    d7ec:	00000021 	move	zero,zero
    d7f0:	00000021 	move	zero,zero
    d7f4:	00000021 	move	zero,zero
    d7f8:	00000021 	move	zero,zero
    d7fc:	3c089fef 	lui	t0,0x9fef
    d800:	3508d380 	ori	t0,t0,0xd380
    d804:	24090000 	li	t1,0
    d808:	1509ffe8 	bne	t0,t1,d7ac <n30_bne_test+0xd7ac>
    d80c:	00000000 	nop
    d810:	1000000c 	b	d844 <n30_bne_test+0xd844>
    d814:	00000000 	nop
    d818:	00000000 	nop
    d81c:	00000021 	move	zero,zero
    d820:	00000021 	move	zero,zero
    d824:	00000021 	move	zero,zero
    d828:	00000021 	move	zero,zero
    d82c:	00000021 	move	zero,zero
    d830:	00000021 	move	zero,zero
    d834:	00000021 	move	zero,zero
    d838:	00000021 	move	zero,zero
    d83c:	3c12636e 	lui	s2,0x636e
    d840:	365219c4 	ori	s2,s2,0x19c4
    d844:	00000000 	nop
    d848:	3c148488 	lui	s4,0x8488
    d84c:	36941236 	ori	s4,s4,0x1236
    d850:	16140cf0 	bne	s0,s4,10c14 <inst_error>
    d854:	00000000 	nop
    d858:	00000000 	nop
    d85c:	3c15636e 	lui	s5,0x636e
    d860:	36b519c4 	ori	s5,s5,0x19c4
    d864:	16550ceb 	bne	s2,s5,10c14 <inst_error>
    d868:	00000000 	nop
    d86c:	00000000 	nop
    d870:	3c0c3e89 	lui	t4,0x3e89
    d874:	358c6f80 	ori	t4,t4,0x6f80
    d878:	3c0d271f 	lui	t5,0x271f
    d87c:	35adb930 	ori	t5,t5,0xb930
    d880:	24100000 	li	s0,0
    d884:	10000016 	b	d8e0 <n30_bne_test+0xd8e0>
    d888:	24120000 	li	s2,0
    d88c:	00000000 	nop
    d890:	3c103e89 	lui	s0,0x3e89
    d894:	15280022 	bne	t1,t0,d920 <n30_bne_test+0xd920>
    d898:	36106f80 	ori	s0,s0,0x6f80
    d89c:	10000022 	b	d928 <n30_bne_test+0xd928>
    d8a0:	00000000 	nop
    d8a4:	00000000 	nop
    d8a8:	00000021 	move	zero,zero
    d8ac:	00000021 	move	zero,zero
    d8b0:	00000021 	move	zero,zero
    d8b4:	00000021 	move	zero,zero
    d8b8:	00000021 	move	zero,zero
    d8bc:	00000021 	move	zero,zero
    d8c0:	00000021 	move	zero,zero
    d8c4:	00000021 	move	zero,zero
    d8c8:	00000021 	move	zero,zero
    d8cc:	00000021 	move	zero,zero
    d8d0:	00000021 	move	zero,zero
    d8d4:	00000021 	move	zero,zero
    d8d8:	00000021 	move	zero,zero
    d8dc:	00000021 	move	zero,zero
    d8e0:	3c08bd3a 	lui	t0,0xbd3a
    d8e4:	35085f46 	ori	t0,t0,0x5f46
    d8e8:	24090000 	li	t1,0
    d8ec:	1509ffe8 	bne	t0,t1,d890 <n30_bne_test+0xd890>
    d8f0:	00000000 	nop
    d8f4:	1000000c 	b	d928 <n30_bne_test+0xd928>
    d8f8:	00000000 	nop
    d8fc:	00000000 	nop
    d900:	00000021 	move	zero,zero
    d904:	00000021 	move	zero,zero
    d908:	00000021 	move	zero,zero
    d90c:	00000021 	move	zero,zero
    d910:	00000021 	move	zero,zero
    d914:	00000021 	move	zero,zero
    d918:	00000021 	move	zero,zero
    d91c:	00000021 	move	zero,zero
    d920:	3c12271f 	lui	s2,0x271f
    d924:	3652b930 	ori	s2,s2,0xb930
    d928:	00000000 	nop
    d92c:	3c143e89 	lui	s4,0x3e89
    d930:	36946f80 	ori	s4,s4,0x6f80
    d934:	16140cb7 	bne	s0,s4,10c14 <inst_error>
    d938:	00000000 	nop
    d93c:	00000000 	nop
    d940:	3c15271f 	lui	s5,0x271f
    d944:	36b5b930 	ori	s5,s5,0xb930
    d948:	16550cb2 	bne	s2,s5,10c14 <inst_error>
    d94c:	00000000 	nop
    d950:	00000000 	nop
    d954:	3c0c6148 	lui	t4,0x6148
    d958:	358c120c 	ori	t4,t4,0x120c
    d95c:	3c0df6ff 	lui	t5,0xf6ff
    d960:	35ad94eb 	ori	t5,t5,0x94eb
    d964:	24100000 	li	s0,0
    d968:	10000016 	b	d9c4 <n30_bne_test+0xd9c4>
    d96c:	24120000 	li	s2,0
    d970:	00000000 	nop
    d974:	3c106148 	lui	s0,0x6148
    d978:	15280022 	bne	t1,t0,da04 <n30_bne_test+0xda04>
    d97c:	3610120c 	ori	s0,s0,0x120c
    d980:	10000022 	b	da0c <n30_bne_test+0xda0c>
    d984:	00000000 	nop
    d988:	00000000 	nop
    d98c:	00000021 	move	zero,zero
    d990:	00000021 	move	zero,zero
    d994:	00000021 	move	zero,zero
    d998:	00000021 	move	zero,zero
    d99c:	00000021 	move	zero,zero
    d9a0:	00000021 	move	zero,zero
    d9a4:	00000021 	move	zero,zero
    d9a8:	00000021 	move	zero,zero
    d9ac:	00000021 	move	zero,zero
    d9b0:	00000021 	move	zero,zero
    d9b4:	00000021 	move	zero,zero
    d9b8:	00000021 	move	zero,zero
    d9bc:	00000021 	move	zero,zero
    d9c0:	00000021 	move	zero,zero
    d9c4:	3c08b66b 	lui	t0,0xb66b
    d9c8:	3508a5c0 	ori	t0,t0,0xa5c0
    d9cc:	24090000 	li	t1,0
    d9d0:	1509ffe8 	bne	t0,t1,d974 <n30_bne_test+0xd974>
    d9d4:	00000000 	nop
    d9d8:	1000000c 	b	da0c <n30_bne_test+0xda0c>
    d9dc:	00000000 	nop
    d9e0:	00000000 	nop
    d9e4:	00000021 	move	zero,zero
    d9e8:	00000021 	move	zero,zero
    d9ec:	00000021 	move	zero,zero
    d9f0:	00000021 	move	zero,zero
    d9f4:	00000021 	move	zero,zero
    d9f8:	00000021 	move	zero,zero
    d9fc:	00000021 	move	zero,zero
    da00:	00000021 	move	zero,zero
    da04:	3c12f6ff 	lui	s2,0xf6ff
    da08:	365294eb 	ori	s2,s2,0x94eb
    da0c:	00000000 	nop
    da10:	3c146148 	lui	s4,0x6148
    da14:	3694120c 	ori	s4,s4,0x120c
    da18:	16140c7e 	bne	s0,s4,10c14 <inst_error>
    da1c:	00000000 	nop
    da20:	00000000 	nop
    da24:	3c15f6ff 	lui	s5,0xf6ff
    da28:	36b594eb 	ori	s5,s5,0x94eb
    da2c:	16550c79 	bne	s2,s5,10c14 <inst_error>
    da30:	00000000 	nop
    da34:	00000000 	nop
    da38:	3c0cd983 	lui	t4,0xd983
    da3c:	358ca868 	ori	t4,t4,0xa868
    da40:	3c0d4e36 	lui	t5,0x4e36
    da44:	35add14d 	ori	t5,t5,0xd14d
    da48:	24100000 	li	s0,0
    da4c:	10000016 	b	daa8 <n30_bne_test+0xdaa8>
    da50:	24120000 	li	s2,0
    da54:	00000000 	nop
    da58:	3c10d983 	lui	s0,0xd983
    da5c:	15280022 	bne	t1,t0,dae8 <n30_bne_test+0xdae8>
    da60:	3610a868 	ori	s0,s0,0xa868
    da64:	10000022 	b	daf0 <n30_bne_test+0xdaf0>
    da68:	00000000 	nop
    da6c:	00000000 	nop
    da70:	00000021 	move	zero,zero
    da74:	00000021 	move	zero,zero
    da78:	00000021 	move	zero,zero
    da7c:	00000021 	move	zero,zero
    da80:	00000021 	move	zero,zero
    da84:	00000021 	move	zero,zero
    da88:	00000021 	move	zero,zero
    da8c:	00000021 	move	zero,zero
    da90:	00000021 	move	zero,zero
    da94:	00000021 	move	zero,zero
    da98:	00000021 	move	zero,zero
    da9c:	00000021 	move	zero,zero
    daa0:	00000021 	move	zero,zero
    daa4:	00000021 	move	zero,zero
    daa8:	3c0827d5 	lui	t0,0x27d5
    daac:	35086534 	ori	t0,t0,0x6534
    dab0:	24090000 	li	t1,0
    dab4:	1509ffe8 	bne	t0,t1,da58 <n30_bne_test+0xda58>
    dab8:	00000000 	nop
    dabc:	1000000c 	b	daf0 <n30_bne_test+0xdaf0>
    dac0:	00000000 	nop
    dac4:	00000000 	nop
    dac8:	00000021 	move	zero,zero
    dacc:	00000021 	move	zero,zero
    dad0:	00000021 	move	zero,zero
    dad4:	00000021 	move	zero,zero
    dad8:	00000021 	move	zero,zero
    dadc:	00000021 	move	zero,zero
    dae0:	00000021 	move	zero,zero
    dae4:	00000021 	move	zero,zero
    dae8:	3c124e36 	lui	s2,0x4e36
    daec:	3652d14d 	ori	s2,s2,0xd14d
    daf0:	00000000 	nop
    daf4:	3c14d983 	lui	s4,0xd983
    daf8:	3694a868 	ori	s4,s4,0xa868
    dafc:	16140c45 	bne	s0,s4,10c14 <inst_error>
    db00:	00000000 	nop
    db04:	00000000 	nop
    db08:	3c154e36 	lui	s5,0x4e36
    db0c:	36b5d14d 	ori	s5,s5,0xd14d
    db10:	16550c40 	bne	s2,s5,10c14 <inst_error>
    db14:	00000000 	nop
    db18:	00000000 	nop
    db1c:	3c0c63d1 	lui	t4,0x63d1
    db20:	358c5f30 	ori	t4,t4,0x5f30
    db24:	3c0d1cca 	lui	t5,0x1cca
    db28:	35adbc34 	ori	t5,t5,0xbc34
    db2c:	24100000 	li	s0,0
    db30:	10000016 	b	db8c <n30_bne_test+0xdb8c>
    db34:	24120000 	li	s2,0
    db38:	00000000 	nop
    db3c:	3c1063d1 	lui	s0,0x63d1
    db40:	15280022 	bne	t1,t0,dbcc <n30_bne_test+0xdbcc>
    db44:	36105f30 	ori	s0,s0,0x5f30
    db48:	10000022 	b	dbd4 <n30_bne_test+0xdbd4>
    db4c:	00000000 	nop
    db50:	00000000 	nop
    db54:	00000021 	move	zero,zero
    db58:	00000021 	move	zero,zero
    db5c:	00000021 	move	zero,zero
    db60:	00000021 	move	zero,zero
    db64:	00000021 	move	zero,zero
    db68:	00000021 	move	zero,zero
    db6c:	00000021 	move	zero,zero
    db70:	00000021 	move	zero,zero
    db74:	00000021 	move	zero,zero
    db78:	00000021 	move	zero,zero
    db7c:	00000021 	move	zero,zero
    db80:	00000021 	move	zero,zero
    db84:	00000021 	move	zero,zero
    db88:	00000021 	move	zero,zero
    db8c:	3c084d99 	lui	t0,0x4d99
    db90:	35082003 	ori	t0,t0,0x2003
    db94:	24090000 	li	t1,0
    db98:	1509ffe8 	bne	t0,t1,db3c <n30_bne_test+0xdb3c>
    db9c:	00000000 	nop
    dba0:	1000000c 	b	dbd4 <n30_bne_test+0xdbd4>
    dba4:	00000000 	nop
    dba8:	00000000 	nop
    dbac:	00000021 	move	zero,zero
    dbb0:	00000021 	move	zero,zero
    dbb4:	00000021 	move	zero,zero
    dbb8:	00000021 	move	zero,zero
    dbbc:	00000021 	move	zero,zero
    dbc0:	00000021 	move	zero,zero
    dbc4:	00000021 	move	zero,zero
    dbc8:	00000021 	move	zero,zero
    dbcc:	3c121cca 	lui	s2,0x1cca
    dbd0:	3652bc34 	ori	s2,s2,0xbc34
    dbd4:	00000000 	nop
    dbd8:	3c1463d1 	lui	s4,0x63d1
    dbdc:	36945f30 	ori	s4,s4,0x5f30
    dbe0:	16140c0c 	bne	s0,s4,10c14 <inst_error>
    dbe4:	00000000 	nop
    dbe8:	00000000 	nop
    dbec:	3c151cca 	lui	s5,0x1cca
    dbf0:	36b5bc34 	ori	s5,s5,0xbc34
    dbf4:	16550c07 	bne	s2,s5,10c14 <inst_error>
    dbf8:	00000000 	nop
    dbfc:	00000000 	nop
    dc00:	3c0c514a 	lui	t4,0x514a
    dc04:	358c6c70 	ori	t4,t4,0x6c70
    dc08:	3c0d15bb 	lui	t5,0x15bb
    dc0c:	35ade844 	ori	t5,t5,0xe844
    dc10:	24100000 	li	s0,0
    dc14:	10000016 	b	dc70 <n30_bne_test+0xdc70>
    dc18:	24120000 	li	s2,0
    dc1c:	00000000 	nop
    dc20:	3c10514a 	lui	s0,0x514a
    dc24:	15280022 	bne	t1,t0,dcb0 <n30_bne_test+0xdcb0>
    dc28:	36106c70 	ori	s0,s0,0x6c70
    dc2c:	10000022 	b	dcb8 <n30_bne_test+0xdcb8>
    dc30:	00000000 	nop
    dc34:	00000000 	nop
    dc38:	00000021 	move	zero,zero
    dc3c:	00000021 	move	zero,zero
    dc40:	00000021 	move	zero,zero
    dc44:	00000021 	move	zero,zero
    dc48:	00000021 	move	zero,zero
    dc4c:	00000021 	move	zero,zero
    dc50:	00000021 	move	zero,zero
    dc54:	00000021 	move	zero,zero
    dc58:	00000021 	move	zero,zero
    dc5c:	00000021 	move	zero,zero
    dc60:	00000021 	move	zero,zero
    dc64:	00000021 	move	zero,zero
    dc68:	00000021 	move	zero,zero
    dc6c:	00000021 	move	zero,zero
    dc70:	3c08f3a1 	lui	t0,0xf3a1
    dc74:	35080830 	ori	t0,t0,0x830
    dc78:	24090000 	li	t1,0
    dc7c:	1509ffe8 	bne	t0,t1,dc20 <n30_bne_test+0xdc20>
    dc80:	00000000 	nop
    dc84:	1000000c 	b	dcb8 <n30_bne_test+0xdcb8>
    dc88:	00000000 	nop
    dc8c:	00000000 	nop
    dc90:	00000021 	move	zero,zero
    dc94:	00000021 	move	zero,zero
    dc98:	00000021 	move	zero,zero
    dc9c:	00000021 	move	zero,zero
    dca0:	00000021 	move	zero,zero
    dca4:	00000021 	move	zero,zero
    dca8:	00000021 	move	zero,zero
    dcac:	00000021 	move	zero,zero
    dcb0:	3c1215bb 	lui	s2,0x15bb
    dcb4:	3652e844 	ori	s2,s2,0xe844
    dcb8:	00000000 	nop
    dcbc:	3c14514a 	lui	s4,0x514a
    dcc0:	36946c70 	ori	s4,s4,0x6c70
    dcc4:	16140bd3 	bne	s0,s4,10c14 <inst_error>
    dcc8:	00000000 	nop
    dccc:	00000000 	nop
    dcd0:	3c1515bb 	lui	s5,0x15bb
    dcd4:	36b5e844 	ori	s5,s5,0xe844
    dcd8:	16550bce 	bne	s2,s5,10c14 <inst_error>
    dcdc:	00000000 	nop
    dce0:	00000000 	nop
    dce4:	3c0c4d05 	lui	t4,0x4d05
    dce8:	358cd260 	ori	t4,t4,0xd260
    dcec:	3c0df43f 	lui	t5,0xf43f
    dcf0:	35ad79fc 	ori	t5,t5,0x79fc
    dcf4:	24100000 	li	s0,0
    dcf8:	10000016 	b	dd54 <n30_bne_test+0xdd54>
    dcfc:	24120000 	li	s2,0
    dd00:	00000000 	nop
    dd04:	3c104d05 	lui	s0,0x4d05
    dd08:	15280022 	bne	t1,t0,dd94 <n30_bne_test+0xdd94>
    dd0c:	3610d260 	ori	s0,s0,0xd260
    dd10:	10000022 	b	dd9c <n30_bne_test+0xdd9c>
    dd14:	00000000 	nop
    dd18:	00000000 	nop
    dd1c:	00000021 	move	zero,zero
    dd20:	00000021 	move	zero,zero
    dd24:	00000021 	move	zero,zero
    dd28:	00000021 	move	zero,zero
    dd2c:	00000021 	move	zero,zero
    dd30:	00000021 	move	zero,zero
    dd34:	00000021 	move	zero,zero
    dd38:	00000021 	move	zero,zero
    dd3c:	00000021 	move	zero,zero
    dd40:	00000021 	move	zero,zero
    dd44:	00000021 	move	zero,zero
    dd48:	00000021 	move	zero,zero
    dd4c:	00000021 	move	zero,zero
    dd50:	00000021 	move	zero,zero
    dd54:	3c0807a8 	lui	t0,0x7a8
    dd58:	35085d88 	ori	t0,t0,0x5d88
    dd5c:	24090000 	li	t1,0
    dd60:	1509ffe8 	bne	t0,t1,dd04 <n30_bne_test+0xdd04>
    dd64:	00000000 	nop
    dd68:	1000000c 	b	dd9c <n30_bne_test+0xdd9c>
    dd6c:	00000000 	nop
    dd70:	00000000 	nop
    dd74:	00000021 	move	zero,zero
    dd78:	00000021 	move	zero,zero
    dd7c:	00000021 	move	zero,zero
    dd80:	00000021 	move	zero,zero
    dd84:	00000021 	move	zero,zero
    dd88:	00000021 	move	zero,zero
    dd8c:	00000021 	move	zero,zero
    dd90:	00000021 	move	zero,zero
    dd94:	3c12f43f 	lui	s2,0xf43f
    dd98:	365279fc 	ori	s2,s2,0x79fc
    dd9c:	00000000 	nop
    dda0:	3c144d05 	lui	s4,0x4d05
    dda4:	3694d260 	ori	s4,s4,0xd260
    dda8:	16140b9a 	bne	s0,s4,10c14 <inst_error>
    ddac:	00000000 	nop
    ddb0:	00000000 	nop
    ddb4:	3c15f43f 	lui	s5,0xf43f
    ddb8:	36b579fc 	ori	s5,s5,0x79fc
    ddbc:	16550b95 	bne	s2,s5,10c14 <inst_error>
    ddc0:	00000000 	nop
    ddc4:	00000000 	nop
    ddc8:	3c0c5b4c 	lui	t4,0x5b4c
    ddcc:	358ccd80 	ori	t4,t4,0xcd80
    ddd0:	3c0dc4a3 	lui	t5,0xc4a3
    ddd4:	35adeb21 	ori	t5,t5,0xeb21
    ddd8:	24100000 	li	s0,0
    dddc:	10000016 	b	de38 <n30_bne_test+0xde38>
    dde0:	24120000 	li	s2,0
    dde4:	00000000 	nop
    dde8:	3c105b4c 	lui	s0,0x5b4c
    ddec:	15280022 	bne	t1,t0,de78 <n30_bne_test+0xde78>
    ddf0:	3610cd80 	ori	s0,s0,0xcd80
    ddf4:	10000022 	b	de80 <n30_bne_test+0xde80>
    ddf8:	00000000 	nop
    ddfc:	00000000 	nop
    de00:	00000021 	move	zero,zero
    de04:	00000021 	move	zero,zero
    de08:	00000021 	move	zero,zero
    de0c:	00000021 	move	zero,zero
    de10:	00000021 	move	zero,zero
    de14:	00000021 	move	zero,zero
    de18:	00000021 	move	zero,zero
    de1c:	00000021 	move	zero,zero
    de20:	00000021 	move	zero,zero
    de24:	00000021 	move	zero,zero
    de28:	00000021 	move	zero,zero
    de2c:	00000021 	move	zero,zero
    de30:	00000021 	move	zero,zero
    de34:	00000021 	move	zero,zero
    de38:	3c08b713 	lui	t0,0xb713
    de3c:	3508ebac 	ori	t0,t0,0xebac
    de40:	24090000 	li	t1,0
    de44:	1509ffe8 	bne	t0,t1,dde8 <n30_bne_test+0xdde8>
    de48:	00000000 	nop
    de4c:	1000000c 	b	de80 <n30_bne_test+0xde80>
    de50:	00000000 	nop
    de54:	00000000 	nop
    de58:	00000021 	move	zero,zero
    de5c:	00000021 	move	zero,zero
    de60:	00000021 	move	zero,zero
    de64:	00000021 	move	zero,zero
    de68:	00000021 	move	zero,zero
    de6c:	00000021 	move	zero,zero
    de70:	00000021 	move	zero,zero
    de74:	00000021 	move	zero,zero
    de78:	3c12c4a3 	lui	s2,0xc4a3
    de7c:	3652eb21 	ori	s2,s2,0xeb21
    de80:	00000000 	nop
    de84:	3c145b4c 	lui	s4,0x5b4c
    de88:	3694cd80 	ori	s4,s4,0xcd80
    de8c:	16140b61 	bne	s0,s4,10c14 <inst_error>
    de90:	00000000 	nop
    de94:	00000000 	nop
    de98:	3c15c4a3 	lui	s5,0xc4a3
    de9c:	36b5eb21 	ori	s5,s5,0xeb21
    dea0:	16550b5c 	bne	s2,s5,10c14 <inst_error>
    dea4:	00000000 	nop
    dea8:	00000000 	nop
    deac:	3c0c52ef 	lui	t4,0x52ef
    deb0:	358ceacc 	ori	t4,t4,0xeacc
    deb4:	3c0d8b1f 	lui	t5,0x8b1f
    deb8:	35ad5402 	ori	t5,t5,0x5402
    debc:	24100000 	li	s0,0
    dec0:	10000016 	b	df1c <n30_bne_test+0xdf1c>
    dec4:	24120000 	li	s2,0
    dec8:	00000000 	nop
    decc:	3c1052ef 	lui	s0,0x52ef
    ded0:	15280022 	bne	t1,t0,df5c <n30_bne_test+0xdf5c>
    ded4:	3610eacc 	ori	s0,s0,0xeacc
    ded8:	10000022 	b	df64 <n30_bne_test+0xdf64>
    dedc:	00000000 	nop
    dee0:	00000000 	nop
    dee4:	00000021 	move	zero,zero
    dee8:	00000021 	move	zero,zero
    deec:	00000021 	move	zero,zero
    def0:	00000021 	move	zero,zero
    def4:	00000021 	move	zero,zero
    def8:	00000021 	move	zero,zero
    defc:	00000021 	move	zero,zero
    df00:	00000021 	move	zero,zero
    df04:	00000021 	move	zero,zero
    df08:	00000021 	move	zero,zero
    df0c:	00000021 	move	zero,zero
    df10:	00000021 	move	zero,zero
    df14:	00000021 	move	zero,zero
    df18:	00000021 	move	zero,zero
    df1c:	24080000 	li	t0,0
    df20:	3c09bb22 	lui	t1,0xbb22
    df24:	3529d1aa 	ori	t1,t1,0xd1aa
    df28:	1509ffe8 	bne	t0,t1,decc <n30_bne_test+0xdecc>
    df2c:	00000000 	nop
    df30:	1000000c 	b	df64 <n30_bne_test+0xdf64>
    df34:	00000000 	nop
    df38:	00000000 	nop
    df3c:	00000021 	move	zero,zero
    df40:	00000021 	move	zero,zero
    df44:	00000021 	move	zero,zero
    df48:	00000021 	move	zero,zero
    df4c:	00000021 	move	zero,zero
    df50:	00000021 	move	zero,zero
    df54:	00000021 	move	zero,zero
    df58:	00000021 	move	zero,zero
    df5c:	3c128b1f 	lui	s2,0x8b1f
    df60:	36525402 	ori	s2,s2,0x5402
    df64:	00000000 	nop
    df68:	3c1452ef 	lui	s4,0x52ef
    df6c:	3694eacc 	ori	s4,s4,0xeacc
    df70:	16140b28 	bne	s0,s4,10c14 <inst_error>
    df74:	00000000 	nop
    df78:	00000000 	nop
    df7c:	3c158b1f 	lui	s5,0x8b1f
    df80:	36b55402 	ori	s5,s5,0x5402
    df84:	16550b23 	bne	s2,s5,10c14 <inst_error>
    df88:	00000000 	nop
    df8c:	00000000 	nop
    df90:	3c0c3c7e 	lui	t4,0x3c7e
    df94:	358cc120 	ori	t4,t4,0xc120
    df98:	3c0d6518 	lui	t5,0x6518
    df9c:	35adaa99 	ori	t5,t5,0xaa99
    dfa0:	24100000 	li	s0,0
    dfa4:	10000016 	b	e000 <n30_bne_test+0xe000>
    dfa8:	24120000 	li	s2,0
    dfac:	00000000 	nop
    dfb0:	3c103c7e 	lui	s0,0x3c7e
    dfb4:	15280022 	bne	t1,t0,e040 <n30_bne_test+0xe040>
    dfb8:	3610c120 	ori	s0,s0,0xc120
    dfbc:	10000022 	b	e048 <n30_bne_test+0xe048>
    dfc0:	00000000 	nop
    dfc4:	00000000 	nop
    dfc8:	00000021 	move	zero,zero
    dfcc:	00000021 	move	zero,zero
    dfd0:	00000021 	move	zero,zero
    dfd4:	00000021 	move	zero,zero
    dfd8:	00000021 	move	zero,zero
    dfdc:	00000021 	move	zero,zero
    dfe0:	00000021 	move	zero,zero
    dfe4:	00000021 	move	zero,zero
    dfe8:	00000021 	move	zero,zero
    dfec:	00000021 	move	zero,zero
    dff0:	00000021 	move	zero,zero
    dff4:	00000021 	move	zero,zero
    dff8:	00000021 	move	zero,zero
    dffc:	00000021 	move	zero,zero
    e000:	24080000 	li	t0,0
    e004:	3c094c09 	lui	t1,0x4c09
    e008:	35291d68 	ori	t1,t1,0x1d68
    e00c:	1509ffe8 	bne	t0,t1,dfb0 <n30_bne_test+0xdfb0>
    e010:	00000000 	nop
    e014:	1000000c 	b	e048 <n30_bne_test+0xe048>
    e018:	00000000 	nop
    e01c:	00000000 	nop
    e020:	00000021 	move	zero,zero
    e024:	00000021 	move	zero,zero
    e028:	00000021 	move	zero,zero
    e02c:	00000021 	move	zero,zero
    e030:	00000021 	move	zero,zero
    e034:	00000021 	move	zero,zero
    e038:	00000021 	move	zero,zero
    e03c:	00000021 	move	zero,zero
    e040:	3c126518 	lui	s2,0x6518
    e044:	3652aa99 	ori	s2,s2,0xaa99
    e048:	00000000 	nop
    e04c:	3c143c7e 	lui	s4,0x3c7e
    e050:	3694c120 	ori	s4,s4,0xc120
    e054:	16140aef 	bne	s0,s4,10c14 <inst_error>
    e058:	00000000 	nop
    e05c:	00000000 	nop
    e060:	3c156518 	lui	s5,0x6518
    e064:	36b5aa99 	ori	s5,s5,0xaa99
    e068:	16550aea 	bne	s2,s5,10c14 <inst_error>
    e06c:	00000000 	nop
    e070:	00000000 	nop
    e074:	3c0cf267 	lui	t4,0xf267
    e078:	358c8f0c 	ori	t4,t4,0x8f0c
    e07c:	3c0d8f89 	lui	t5,0x8f89
    e080:	35ad2ee0 	ori	t5,t5,0x2ee0
    e084:	24100000 	li	s0,0
    e088:	10000016 	b	e0e4 <n30_bne_test+0xe0e4>
    e08c:	24120000 	li	s2,0
    e090:	00000000 	nop
    e094:	3c10f267 	lui	s0,0xf267
    e098:	15280022 	bne	t1,t0,e124 <n30_bne_test+0xe124>
    e09c:	36108f0c 	ori	s0,s0,0x8f0c
    e0a0:	10000022 	b	e12c <n30_bne_test+0xe12c>
    e0a4:	00000000 	nop
    e0a8:	00000000 	nop
    e0ac:	00000021 	move	zero,zero
    e0b0:	00000021 	move	zero,zero
    e0b4:	00000021 	move	zero,zero
    e0b8:	00000021 	move	zero,zero
    e0bc:	00000021 	move	zero,zero
    e0c0:	00000021 	move	zero,zero
    e0c4:	00000021 	move	zero,zero
    e0c8:	00000021 	move	zero,zero
    e0cc:	00000021 	move	zero,zero
    e0d0:	00000021 	move	zero,zero
    e0d4:	00000021 	move	zero,zero
    e0d8:	00000021 	move	zero,zero
    e0dc:	00000021 	move	zero,zero
    e0e0:	00000021 	move	zero,zero
    e0e4:	24080000 	li	t0,0
    e0e8:	3c09d4a3 	lui	t1,0xd4a3
    e0ec:	3529fdd0 	ori	t1,t1,0xfdd0
    e0f0:	1509ffe8 	bne	t0,t1,e094 <n30_bne_test+0xe094>
    e0f4:	00000000 	nop
    e0f8:	1000000c 	b	e12c <n30_bne_test+0xe12c>
    e0fc:	00000000 	nop
    e100:	00000000 	nop
    e104:	00000021 	move	zero,zero
    e108:	00000021 	move	zero,zero
    e10c:	00000021 	move	zero,zero
    e110:	00000021 	move	zero,zero
    e114:	00000021 	move	zero,zero
    e118:	00000021 	move	zero,zero
    e11c:	00000021 	move	zero,zero
    e120:	00000021 	move	zero,zero
    e124:	3c128f89 	lui	s2,0x8f89
    e128:	36522ee0 	ori	s2,s2,0x2ee0
    e12c:	00000000 	nop
    e130:	3c14f267 	lui	s4,0xf267
    e134:	36948f0c 	ori	s4,s4,0x8f0c
    e138:	16140ab6 	bne	s0,s4,10c14 <inst_error>
    e13c:	00000000 	nop
    e140:	00000000 	nop
    e144:	3c158f89 	lui	s5,0x8f89
    e148:	36b52ee0 	ori	s5,s5,0x2ee0
    e14c:	16550ab1 	bne	s2,s5,10c14 <inst_error>
    e150:	00000000 	nop
    e154:	00000000 	nop
    e158:	3c0cec70 	lui	t4,0xec70
    e15c:	358cc6b8 	ori	t4,t4,0xc6b8
    e160:	3c0d955f 	lui	t5,0x955f
    e164:	35ad2bd8 	ori	t5,t5,0x2bd8
    e168:	24100000 	li	s0,0
    e16c:	10000016 	b	e1c8 <n30_bne_test+0xe1c8>
    e170:	24120000 	li	s2,0
    e174:	00000000 	nop
    e178:	3c10ec70 	lui	s0,0xec70
    e17c:	15280022 	bne	t1,t0,e208 <n30_bne_test+0xe208>
    e180:	3610c6b8 	ori	s0,s0,0xc6b8
    e184:	10000022 	b	e210 <n30_bne_test+0xe210>
    e188:	00000000 	nop
    e18c:	00000000 	nop
    e190:	00000021 	move	zero,zero
    e194:	00000021 	move	zero,zero
    e198:	00000021 	move	zero,zero
    e19c:	00000021 	move	zero,zero
    e1a0:	00000021 	move	zero,zero
    e1a4:	00000021 	move	zero,zero
    e1a8:	00000021 	move	zero,zero
    e1ac:	00000021 	move	zero,zero
    e1b0:	00000021 	move	zero,zero
    e1b4:	00000021 	move	zero,zero
    e1b8:	00000021 	move	zero,zero
    e1bc:	00000021 	move	zero,zero
    e1c0:	00000021 	move	zero,zero
    e1c4:	00000021 	move	zero,zero
    e1c8:	24080000 	li	t0,0
    e1cc:	3c09e7c2 	lui	t1,0xe7c2
    e1d0:	352975e6 	ori	t1,t1,0x75e6
    e1d4:	1509ffe8 	bne	t0,t1,e178 <n30_bne_test+0xe178>
    e1d8:	00000000 	nop
    e1dc:	1000000c 	b	e210 <n30_bne_test+0xe210>
    e1e0:	00000000 	nop
    e1e4:	00000000 	nop
    e1e8:	00000021 	move	zero,zero
    e1ec:	00000021 	move	zero,zero
    e1f0:	00000021 	move	zero,zero
    e1f4:	00000021 	move	zero,zero
    e1f8:	00000021 	move	zero,zero
    e1fc:	00000021 	move	zero,zero
    e200:	00000021 	move	zero,zero
    e204:	00000021 	move	zero,zero
    e208:	3c12955f 	lui	s2,0x955f
    e20c:	36522bd8 	ori	s2,s2,0x2bd8
    e210:	00000000 	nop
    e214:	3c14ec70 	lui	s4,0xec70
    e218:	3694c6b8 	ori	s4,s4,0xc6b8
    e21c:	16140a7d 	bne	s0,s4,10c14 <inst_error>
    e220:	00000000 	nop
    e224:	00000000 	nop
    e228:	3c15955f 	lui	s5,0x955f
    e22c:	36b52bd8 	ori	s5,s5,0x2bd8
    e230:	16550a78 	bne	s2,s5,10c14 <inst_error>
    e234:	00000000 	nop
    e238:	00000000 	nop
    e23c:	3c0c2851 	lui	t4,0x2851
    e240:	358cd82c 	ori	t4,t4,0xd82c
    e244:	3c0d53c3 	lui	t5,0x53c3
    e248:	35ada1e0 	ori	t5,t5,0xa1e0
    e24c:	24100000 	li	s0,0
    e250:	10000016 	b	e2ac <n30_bne_test+0xe2ac>
    e254:	24120000 	li	s2,0
    e258:	00000000 	nop
    e25c:	3c102851 	lui	s0,0x2851
    e260:	15280022 	bne	t1,t0,e2ec <n30_bne_test+0xe2ec>
    e264:	3610d82c 	ori	s0,s0,0xd82c
    e268:	10000022 	b	e2f4 <n30_bne_test+0xe2f4>
    e26c:	00000000 	nop
    e270:	00000000 	nop
    e274:	00000021 	move	zero,zero
    e278:	00000021 	move	zero,zero
    e27c:	00000021 	move	zero,zero
    e280:	00000021 	move	zero,zero
    e284:	00000021 	move	zero,zero
    e288:	00000021 	move	zero,zero
    e28c:	00000021 	move	zero,zero
    e290:	00000021 	move	zero,zero
    e294:	00000021 	move	zero,zero
    e298:	00000021 	move	zero,zero
    e29c:	00000021 	move	zero,zero
    e2a0:	00000021 	move	zero,zero
    e2a4:	00000021 	move	zero,zero
    e2a8:	00000021 	move	zero,zero
    e2ac:	24080000 	li	t0,0
    e2b0:	3c094235 	lui	t1,0x4235
    e2b4:	35295cf4 	ori	t1,t1,0x5cf4
    e2b8:	1509ffe8 	bne	t0,t1,e25c <n30_bne_test+0xe25c>
    e2bc:	00000000 	nop
    e2c0:	1000000c 	b	e2f4 <n30_bne_test+0xe2f4>
    e2c4:	00000000 	nop
    e2c8:	00000000 	nop
    e2cc:	00000021 	move	zero,zero
    e2d0:	00000021 	move	zero,zero
    e2d4:	00000021 	move	zero,zero
    e2d8:	00000021 	move	zero,zero
    e2dc:	00000021 	move	zero,zero
    e2e0:	00000021 	move	zero,zero
    e2e4:	00000021 	move	zero,zero
    e2e8:	00000021 	move	zero,zero
    e2ec:	3c1253c3 	lui	s2,0x53c3
    e2f0:	3652a1e0 	ori	s2,s2,0xa1e0
    e2f4:	00000000 	nop
    e2f8:	3c142851 	lui	s4,0x2851
    e2fc:	3694d82c 	ori	s4,s4,0xd82c
    e300:	16140a44 	bne	s0,s4,10c14 <inst_error>
    e304:	00000000 	nop
    e308:	00000000 	nop
    e30c:	3c1553c3 	lui	s5,0x53c3
    e310:	36b5a1e0 	ori	s5,s5,0xa1e0
    e314:	16550a3f 	bne	s2,s5,10c14 <inst_error>
    e318:	00000000 	nop
    e31c:	00000000 	nop
    e320:	3c0c2a5b 	lui	t4,0x2a5b
    e324:	358c1ca0 	ori	t4,t4,0x1ca0
    e328:	3c0d0c79 	lui	t5,0xc79
    e32c:	35ad8620 	ori	t5,t5,0x8620
    e330:	24100000 	li	s0,0
    e334:	10000016 	b	e390 <n30_bne_test+0xe390>
    e338:	24120000 	li	s2,0
    e33c:	00000000 	nop
    e340:	3c102a5b 	lui	s0,0x2a5b
    e344:	15280022 	bne	t1,t0,e3d0 <n30_bne_test+0xe3d0>
    e348:	36101ca0 	ori	s0,s0,0x1ca0
    e34c:	10000022 	b	e3d8 <n30_bne_test+0xe3d8>
    e350:	00000000 	nop
    e354:	00000000 	nop
    e358:	00000021 	move	zero,zero
    e35c:	00000021 	move	zero,zero
    e360:	00000021 	move	zero,zero
    e364:	00000021 	move	zero,zero
    e368:	00000021 	move	zero,zero
    e36c:	00000021 	move	zero,zero
    e370:	00000021 	move	zero,zero
    e374:	00000021 	move	zero,zero
    e378:	00000021 	move	zero,zero
    e37c:	00000021 	move	zero,zero
    e380:	00000021 	move	zero,zero
    e384:	00000021 	move	zero,zero
    e388:	00000021 	move	zero,zero
    e38c:	00000021 	move	zero,zero
    e390:	24080000 	li	t0,0
    e394:	3c09ab66 	lui	t1,0xab66
    e398:	352936d5 	ori	t1,t1,0x36d5
    e39c:	1509ffe8 	bne	t0,t1,e340 <n30_bne_test+0xe340>
    e3a0:	00000000 	nop
    e3a4:	1000000c 	b	e3d8 <n30_bne_test+0xe3d8>
    e3a8:	00000000 	nop
    e3ac:	00000000 	nop
    e3b0:	00000021 	move	zero,zero
    e3b4:	00000021 	move	zero,zero
    e3b8:	00000021 	move	zero,zero
    e3bc:	00000021 	move	zero,zero
    e3c0:	00000021 	move	zero,zero
    e3c4:	00000021 	move	zero,zero
    e3c8:	00000021 	move	zero,zero
    e3cc:	00000021 	move	zero,zero
    e3d0:	3c120c79 	lui	s2,0xc79
    e3d4:	36528620 	ori	s2,s2,0x8620
    e3d8:	00000000 	nop
    e3dc:	3c142a5b 	lui	s4,0x2a5b
    e3e0:	36941ca0 	ori	s4,s4,0x1ca0
    e3e4:	16140a0b 	bne	s0,s4,10c14 <inst_error>
    e3e8:	00000000 	nop
    e3ec:	00000000 	nop
    e3f0:	3c150c79 	lui	s5,0xc79
    e3f4:	36b58620 	ori	s5,s5,0x8620
    e3f8:	16550a06 	bne	s2,s5,10c14 <inst_error>
    e3fc:	00000000 	nop
    e400:	00000000 	nop
    e404:	3c0cfd63 	lui	t4,0xfd63
    e408:	358cb29c 	ori	t4,t4,0xb29c
    e40c:	3c0dd3a2 	lui	t5,0xd3a2
    e410:	35ad2562 	ori	t5,t5,0x2562
    e414:	24100000 	li	s0,0
    e418:	10000016 	b	e474 <n30_bne_test+0xe474>
    e41c:	24120000 	li	s2,0
    e420:	00000000 	nop
    e424:	3c10fd63 	lui	s0,0xfd63
    e428:	15280022 	bne	t1,t0,e4b4 <n30_bne_test+0xe4b4>
    e42c:	3610b29c 	ori	s0,s0,0xb29c
    e430:	10000022 	b	e4bc <n30_bne_test+0xe4bc>
    e434:	00000000 	nop
    e438:	00000000 	nop
    e43c:	00000021 	move	zero,zero
    e440:	00000021 	move	zero,zero
    e444:	00000021 	move	zero,zero
    e448:	00000021 	move	zero,zero
    e44c:	00000021 	move	zero,zero
    e450:	00000021 	move	zero,zero
    e454:	00000021 	move	zero,zero
    e458:	00000021 	move	zero,zero
    e45c:	00000021 	move	zero,zero
    e460:	00000021 	move	zero,zero
    e464:	00000021 	move	zero,zero
    e468:	00000021 	move	zero,zero
    e46c:	00000021 	move	zero,zero
    e470:	00000021 	move	zero,zero
    e474:	24080000 	li	t0,0
    e478:	3c092526 	lui	t1,0x2526
    e47c:	3529c610 	ori	t1,t1,0xc610
    e480:	1509ffe8 	bne	t0,t1,e424 <n30_bne_test+0xe424>
    e484:	00000000 	nop
    e488:	1000000c 	b	e4bc <n30_bne_test+0xe4bc>
    e48c:	00000000 	nop
    e490:	00000000 	nop
    e494:	00000021 	move	zero,zero
    e498:	00000021 	move	zero,zero
    e49c:	00000021 	move	zero,zero
    e4a0:	00000021 	move	zero,zero
    e4a4:	00000021 	move	zero,zero
    e4a8:	00000021 	move	zero,zero
    e4ac:	00000021 	move	zero,zero
    e4b0:	00000021 	move	zero,zero
    e4b4:	3c12d3a2 	lui	s2,0xd3a2
    e4b8:	36522562 	ori	s2,s2,0x2562
    e4bc:	00000000 	nop
    e4c0:	3c14fd63 	lui	s4,0xfd63
    e4c4:	3694b29c 	ori	s4,s4,0xb29c
    e4c8:	161409d2 	bne	s0,s4,10c14 <inst_error>
    e4cc:	00000000 	nop
    e4d0:	00000000 	nop
    e4d4:	3c15d3a2 	lui	s5,0xd3a2
    e4d8:	36b52562 	ori	s5,s5,0x2562
    e4dc:	165509cd 	bne	s2,s5,10c14 <inst_error>
    e4e0:	00000000 	nop
    e4e4:	00000000 	nop
    e4e8:	3c0cc689 	lui	t4,0xc689
    e4ec:	358c9028 	ori	t4,t4,0x9028
    e4f0:	3c0dedce 	lui	t5,0xedce
    e4f4:	35ad3230 	ori	t5,t5,0x3230
    e4f8:	24100000 	li	s0,0
    e4fc:	10000016 	b	e558 <n30_bne_test+0xe558>
    e500:	24120000 	li	s2,0
    e504:	00000000 	nop
    e508:	3c10c689 	lui	s0,0xc689
    e50c:	15280022 	bne	t1,t0,e598 <n30_bne_test+0xe598>
    e510:	36109028 	ori	s0,s0,0x9028
    e514:	10000022 	b	e5a0 <n30_bne_test+0xe5a0>
    e518:	00000000 	nop
    e51c:	00000000 	nop
    e520:	00000021 	move	zero,zero
    e524:	00000021 	move	zero,zero
    e528:	00000021 	move	zero,zero
    e52c:	00000021 	move	zero,zero
    e530:	00000021 	move	zero,zero
    e534:	00000021 	move	zero,zero
    e538:	00000021 	move	zero,zero
    e53c:	00000021 	move	zero,zero
    e540:	00000021 	move	zero,zero
    e544:	00000021 	move	zero,zero
    e548:	00000021 	move	zero,zero
    e54c:	00000021 	move	zero,zero
    e550:	00000021 	move	zero,zero
    e554:	00000021 	move	zero,zero
    e558:	24080000 	li	t0,0
    e55c:	3c09f64a 	lui	t1,0xf64a
    e560:	35291200 	ori	t1,t1,0x1200
    e564:	1509ffe8 	bne	t0,t1,e508 <n30_bne_test+0xe508>
    e568:	00000000 	nop
    e56c:	1000000c 	b	e5a0 <n30_bne_test+0xe5a0>
    e570:	00000000 	nop
    e574:	00000000 	nop
    e578:	00000021 	move	zero,zero
    e57c:	00000021 	move	zero,zero
    e580:	00000021 	move	zero,zero
    e584:	00000021 	move	zero,zero
    e588:	00000021 	move	zero,zero
    e58c:	00000021 	move	zero,zero
    e590:	00000021 	move	zero,zero
    e594:	00000021 	move	zero,zero
    e598:	3c12edce 	lui	s2,0xedce
    e59c:	36523230 	ori	s2,s2,0x3230
    e5a0:	00000000 	nop
    e5a4:	3c14c689 	lui	s4,0xc689
    e5a8:	36949028 	ori	s4,s4,0x9028
    e5ac:	16140999 	bne	s0,s4,10c14 <inst_error>
    e5b0:	00000000 	nop
    e5b4:	00000000 	nop
    e5b8:	3c15edce 	lui	s5,0xedce
    e5bc:	36b53230 	ori	s5,s5,0x3230
    e5c0:	16550994 	bne	s2,s5,10c14 <inst_error>
    e5c4:	00000000 	nop
    e5c8:	00000000 	nop
    e5cc:	3c0c549a 	lui	t4,0x549a
    e5d0:	358cb500 	ori	t4,t4,0xb500
    e5d4:	3c0d16da 	lui	t5,0x16da
    e5d8:	35ada7f0 	ori	t5,t5,0xa7f0
    e5dc:	24100000 	li	s0,0
    e5e0:	10000016 	b	e63c <n30_bne_test+0xe63c>
    e5e4:	24120000 	li	s2,0
    e5e8:	00000000 	nop
    e5ec:	3c10549a 	lui	s0,0x549a
    e5f0:	15280022 	bne	t1,t0,e67c <n30_bne_test+0xe67c>
    e5f4:	3610b500 	ori	s0,s0,0xb500
    e5f8:	10000022 	b	e684 <n30_bne_test+0xe684>
    e5fc:	00000000 	nop
    e600:	00000000 	nop
    e604:	00000021 	move	zero,zero
    e608:	00000021 	move	zero,zero
    e60c:	00000021 	move	zero,zero
    e610:	00000021 	move	zero,zero
    e614:	00000021 	move	zero,zero
    e618:	00000021 	move	zero,zero
    e61c:	00000021 	move	zero,zero
    e620:	00000021 	move	zero,zero
    e624:	00000021 	move	zero,zero
    e628:	00000021 	move	zero,zero
    e62c:	00000021 	move	zero,zero
    e630:	00000021 	move	zero,zero
    e634:	00000021 	move	zero,zero
    e638:	00000021 	move	zero,zero
    e63c:	24080000 	li	t0,0
    e640:	3c09d84b 	lui	t1,0xd84b
    e644:	35295b98 	ori	t1,t1,0x5b98
    e648:	1509ffe8 	bne	t0,t1,e5ec <n30_bne_test+0xe5ec>
    e64c:	00000000 	nop
    e650:	1000000c 	b	e684 <n30_bne_test+0xe684>
    e654:	00000000 	nop
    e658:	00000000 	nop
    e65c:	00000021 	move	zero,zero
    e660:	00000021 	move	zero,zero
    e664:	00000021 	move	zero,zero
    e668:	00000021 	move	zero,zero
    e66c:	00000021 	move	zero,zero
    e670:	00000021 	move	zero,zero
    e674:	00000021 	move	zero,zero
    e678:	00000021 	move	zero,zero
    e67c:	3c1216da 	lui	s2,0x16da
    e680:	3652a7f0 	ori	s2,s2,0xa7f0
    e684:	00000000 	nop
    e688:	3c14549a 	lui	s4,0x549a
    e68c:	3694b500 	ori	s4,s4,0xb500
    e690:	16140960 	bne	s0,s4,10c14 <inst_error>
    e694:	00000000 	nop
    e698:	00000000 	nop
    e69c:	3c1516da 	lui	s5,0x16da
    e6a0:	36b5a7f0 	ori	s5,s5,0xa7f0
    e6a4:	1655095b 	bne	s2,s5,10c14 <inst_error>
    e6a8:	00000000 	nop
    e6ac:	00000000 	nop
    e6b0:	3c0c154a 	lui	t4,0x154a
    e6b4:	358c0340 	ori	t4,t4,0x340
    e6b8:	3c0d339b 	lui	t5,0x339b
    e6bc:	35ad44d6 	ori	t5,t5,0x44d6
    e6c0:	24100000 	li	s0,0
    e6c4:	10000016 	b	e720 <n30_bne_test+0xe720>
    e6c8:	24120000 	li	s2,0
    e6cc:	00000000 	nop
    e6d0:	3c10154a 	lui	s0,0x154a
    e6d4:	15280022 	bne	t1,t0,e760 <n30_bne_test+0xe760>
    e6d8:	36100340 	ori	s0,s0,0x340
    e6dc:	10000022 	b	e768 <n30_bne_test+0xe768>
    e6e0:	00000000 	nop
    e6e4:	00000000 	nop
    e6e8:	00000021 	move	zero,zero
    e6ec:	00000021 	move	zero,zero
    e6f0:	00000021 	move	zero,zero
    e6f4:	00000021 	move	zero,zero
    e6f8:	00000021 	move	zero,zero
    e6fc:	00000021 	move	zero,zero
    e700:	00000021 	move	zero,zero
    e704:	00000021 	move	zero,zero
    e708:	00000021 	move	zero,zero
    e70c:	00000021 	move	zero,zero
    e710:	00000021 	move	zero,zero
    e714:	00000021 	move	zero,zero
    e718:	00000021 	move	zero,zero
    e71c:	00000021 	move	zero,zero
    e720:	24080000 	li	t0,0
    e724:	3c09aaeb 	lui	t1,0xaaeb
    e728:	3529992c 	ori	t1,t1,0x992c
    e72c:	1509ffe8 	bne	t0,t1,e6d0 <n30_bne_test+0xe6d0>
    e730:	00000000 	nop
    e734:	1000000c 	b	e768 <n30_bne_test+0xe768>
    e738:	00000000 	nop
    e73c:	00000000 	nop
    e740:	00000021 	move	zero,zero
    e744:	00000021 	move	zero,zero
    e748:	00000021 	move	zero,zero
    e74c:	00000021 	move	zero,zero
    e750:	00000021 	move	zero,zero
    e754:	00000021 	move	zero,zero
    e758:	00000021 	move	zero,zero
    e75c:	00000021 	move	zero,zero
    e760:	3c12339b 	lui	s2,0x339b
    e764:	365244d6 	ori	s2,s2,0x44d6
    e768:	00000000 	nop
    e76c:	3c14154a 	lui	s4,0x154a
    e770:	36940340 	ori	s4,s4,0x340
    e774:	16140927 	bne	s0,s4,10c14 <inst_error>
    e778:	00000000 	nop
    e77c:	00000000 	nop
    e780:	3c15339b 	lui	s5,0x339b
    e784:	36b544d6 	ori	s5,s5,0x44d6
    e788:	16550922 	bne	s2,s5,10c14 <inst_error>
    e78c:	00000000 	nop
    e790:	00000000 	nop
    e794:	3c0c740b 	lui	t4,0x740b
    e798:	358c3cb4 	ori	t4,t4,0x3cb4
    e79c:	3c0dd634 	lui	t5,0xd634
    e7a0:	35ad2340 	ori	t5,t5,0x2340
    e7a4:	24100000 	li	s0,0
    e7a8:	10000016 	b	e804 <n30_bne_test+0xe804>
    e7ac:	24120000 	li	s2,0
    e7b0:	00000000 	nop
    e7b4:	3c10740b 	lui	s0,0x740b
    e7b8:	15280022 	bne	t1,t0,e844 <n30_bne_test+0xe844>
    e7bc:	36103cb4 	ori	s0,s0,0x3cb4
    e7c0:	10000022 	b	e84c <n30_bne_test+0xe84c>
    e7c4:	00000000 	nop
    e7c8:	00000000 	nop
    e7cc:	00000021 	move	zero,zero
    e7d0:	00000021 	move	zero,zero
    e7d4:	00000021 	move	zero,zero
    e7d8:	00000021 	move	zero,zero
    e7dc:	00000021 	move	zero,zero
    e7e0:	00000021 	move	zero,zero
    e7e4:	00000021 	move	zero,zero
    e7e8:	00000021 	move	zero,zero
    e7ec:	00000021 	move	zero,zero
    e7f0:	00000021 	move	zero,zero
    e7f4:	00000021 	move	zero,zero
    e7f8:	00000021 	move	zero,zero
    e7fc:	00000021 	move	zero,zero
    e800:	00000021 	move	zero,zero
    e804:	24080000 	li	t0,0
    e808:	3c09a352 	lui	t1,0xa352
    e80c:	35293878 	ori	t1,t1,0x3878
    e810:	1509ffe8 	bne	t0,t1,e7b4 <n30_bne_test+0xe7b4>
    e814:	00000000 	nop
    e818:	1000000c 	b	e84c <n30_bne_test+0xe84c>
    e81c:	00000000 	nop
    e820:	00000000 	nop
    e824:	00000021 	move	zero,zero
    e828:	00000021 	move	zero,zero
    e82c:	00000021 	move	zero,zero
    e830:	00000021 	move	zero,zero
    e834:	00000021 	move	zero,zero
    e838:	00000021 	move	zero,zero
    e83c:	00000021 	move	zero,zero
    e840:	00000021 	move	zero,zero
    e844:	3c12d634 	lui	s2,0xd634
    e848:	36522340 	ori	s2,s2,0x2340
    e84c:	00000000 	nop
    e850:	3c14740b 	lui	s4,0x740b
    e854:	36943cb4 	ori	s4,s4,0x3cb4
    e858:	161408ee 	bne	s0,s4,10c14 <inst_error>
    e85c:	00000000 	nop
    e860:	00000000 	nop
    e864:	3c15d634 	lui	s5,0xd634
    e868:	36b52340 	ori	s5,s5,0x2340
    e86c:	165508e9 	bne	s2,s5,10c14 <inst_error>
    e870:	00000000 	nop
    e874:	00000000 	nop
    e878:	3c0c638e 	lui	t4,0x638e
    e87c:	358c01f7 	ori	t4,t4,0x1f7
    e880:	3c0d30b6 	lui	t5,0x30b6
    e884:	35adc750 	ori	t5,t5,0xc750
    e888:	24100000 	li	s0,0
    e88c:	10000016 	b	e8e8 <n30_bne_test+0xe8e8>
    e890:	24120000 	li	s2,0
    e894:	00000000 	nop
    e898:	3c10638e 	lui	s0,0x638e
    e89c:	15280022 	bne	t1,t0,e928 <n30_bne_test+0xe928>
    e8a0:	361001f7 	ori	s0,s0,0x1f7
    e8a4:	10000022 	b	e930 <n30_bne_test+0xe930>
    e8a8:	00000000 	nop
    e8ac:	00000000 	nop
    e8b0:	00000021 	move	zero,zero
    e8b4:	00000021 	move	zero,zero
    e8b8:	00000021 	move	zero,zero
    e8bc:	00000021 	move	zero,zero
    e8c0:	00000021 	move	zero,zero
    e8c4:	00000021 	move	zero,zero
    e8c8:	00000021 	move	zero,zero
    e8cc:	00000021 	move	zero,zero
    e8d0:	00000021 	move	zero,zero
    e8d4:	00000021 	move	zero,zero
    e8d8:	00000021 	move	zero,zero
    e8dc:	00000021 	move	zero,zero
    e8e0:	00000021 	move	zero,zero
    e8e4:	00000021 	move	zero,zero
    e8e8:	24080000 	li	t0,0
    e8ec:	3c09f701 	lui	t1,0xf701
    e8f0:	35295a40 	ori	t1,t1,0x5a40
    e8f4:	1509ffe8 	bne	t0,t1,e898 <n30_bne_test+0xe898>
    e8f8:	00000000 	nop
    e8fc:	1000000c 	b	e930 <n30_bne_test+0xe930>
    e900:	00000000 	nop
    e904:	00000000 	nop
    e908:	00000021 	move	zero,zero
    e90c:	00000021 	move	zero,zero
    e910:	00000021 	move	zero,zero
    e914:	00000021 	move	zero,zero
    e918:	00000021 	move	zero,zero
    e91c:	00000021 	move	zero,zero
    e920:	00000021 	move	zero,zero
    e924:	00000021 	move	zero,zero
    e928:	3c1230b6 	lui	s2,0x30b6
    e92c:	3652c750 	ori	s2,s2,0xc750
    e930:	00000000 	nop
    e934:	3c14638e 	lui	s4,0x638e
    e938:	369401f7 	ori	s4,s4,0x1f7
    e93c:	161408b5 	bne	s0,s4,10c14 <inst_error>
    e940:	00000000 	nop
    e944:	00000000 	nop
    e948:	3c1530b6 	lui	s5,0x30b6
    e94c:	36b5c750 	ori	s5,s5,0xc750
    e950:	165508b0 	bne	s2,s5,10c14 <inst_error>
    e954:	00000000 	nop
    e958:	00000000 	nop
    e95c:	3c0c0e54 	lui	t4,0xe54
    e960:	358c3812 	ori	t4,t4,0x3812
    e964:	3c0da87b 	lui	t5,0xa87b
    e968:	35ad4680 	ori	t5,t5,0x4680
    e96c:	24100000 	li	s0,0
    e970:	10000016 	b	e9cc <n30_bne_test+0xe9cc>
    e974:	24120000 	li	s2,0
    e978:	00000000 	nop
    e97c:	3c100e54 	lui	s0,0xe54
    e980:	15280022 	bne	t1,t0,ea0c <n30_bne_test+0xea0c>
    e984:	36103812 	ori	s0,s0,0x3812
    e988:	10000022 	b	ea14 <n30_bne_test+0xea14>
    e98c:	00000000 	nop
    e990:	00000000 	nop
    e994:	00000021 	move	zero,zero
    e998:	00000021 	move	zero,zero
    e99c:	00000021 	move	zero,zero
    e9a0:	00000021 	move	zero,zero
    e9a4:	00000021 	move	zero,zero
    e9a8:	00000021 	move	zero,zero
    e9ac:	00000021 	move	zero,zero
    e9b0:	00000021 	move	zero,zero
    e9b4:	00000021 	move	zero,zero
    e9b8:	00000021 	move	zero,zero
    e9bc:	00000021 	move	zero,zero
    e9c0:	00000021 	move	zero,zero
    e9c4:	00000021 	move	zero,zero
    e9c8:	00000021 	move	zero,zero
    e9cc:	24080000 	li	t0,0
    e9d0:	3c090eb0 	lui	t1,0xeb0
    e9d4:	35290ec0 	ori	t1,t1,0xec0
    e9d8:	1509ffe8 	bne	t0,t1,e97c <n30_bne_test+0xe97c>
    e9dc:	00000000 	nop
    e9e0:	1000000c 	b	ea14 <n30_bne_test+0xea14>
    e9e4:	00000000 	nop
    e9e8:	00000000 	nop
    e9ec:	00000021 	move	zero,zero
    e9f0:	00000021 	move	zero,zero
    e9f4:	00000021 	move	zero,zero
    e9f8:	00000021 	move	zero,zero
    e9fc:	00000021 	move	zero,zero
    ea00:	00000021 	move	zero,zero
    ea04:	00000021 	move	zero,zero
    ea08:	00000021 	move	zero,zero
    ea0c:	3c12a87b 	lui	s2,0xa87b
    ea10:	36524680 	ori	s2,s2,0x4680
    ea14:	00000000 	nop
    ea18:	3c140e54 	lui	s4,0xe54
    ea1c:	36943812 	ori	s4,s4,0x3812
    ea20:	1614087c 	bne	s0,s4,10c14 <inst_error>
    ea24:	00000000 	nop
    ea28:	00000000 	nop
    ea2c:	3c15a87b 	lui	s5,0xa87b
    ea30:	36b54680 	ori	s5,s5,0x4680
    ea34:	16550877 	bne	s2,s5,10c14 <inst_error>
    ea38:	00000000 	nop
    ea3c:	00000000 	nop
    ea40:	3c0c5623 	lui	t4,0x5623
    ea44:	358c7fe8 	ori	t4,t4,0x7fe8
    ea48:	3c0d4765 	lui	t5,0x4765
    ea4c:	35ad13e2 	ori	t5,t5,0x13e2
    ea50:	24100000 	li	s0,0
    ea54:	10000016 	b	eab0 <n30_bne_test+0xeab0>
    ea58:	24120000 	li	s2,0
    ea5c:	00000000 	nop
    ea60:	3c105623 	lui	s0,0x5623
    ea64:	15280022 	bne	t1,t0,eaf0 <n30_bne_test+0xeaf0>
    ea68:	36107fe8 	ori	s0,s0,0x7fe8
    ea6c:	10000022 	b	eaf8 <n30_bne_test+0xeaf8>
    ea70:	00000000 	nop
    ea74:	00000000 	nop
    ea78:	00000021 	move	zero,zero
    ea7c:	00000021 	move	zero,zero
    ea80:	00000021 	move	zero,zero
    ea84:	00000021 	move	zero,zero
    ea88:	00000021 	move	zero,zero
    ea8c:	00000021 	move	zero,zero
    ea90:	00000021 	move	zero,zero
    ea94:	00000021 	move	zero,zero
    ea98:	00000021 	move	zero,zero
    ea9c:	00000021 	move	zero,zero
    eaa0:	00000021 	move	zero,zero
    eaa4:	00000021 	move	zero,zero
    eaa8:	00000021 	move	zero,zero
    eaac:	00000021 	move	zero,zero
    eab0:	24080000 	li	t0,0
    eab4:	3c09f683 	lui	t1,0xf683
    eab8:	35298110 	ori	t1,t1,0x8110
    eabc:	1509ffe8 	bne	t0,t1,ea60 <n30_bne_test+0xea60>
    eac0:	00000000 	nop
    eac4:	1000000c 	b	eaf8 <n30_bne_test+0xeaf8>
    eac8:	00000000 	nop
    eacc:	00000000 	nop
    ead0:	00000021 	move	zero,zero
    ead4:	00000021 	move	zero,zero
    ead8:	00000021 	move	zero,zero
    eadc:	00000021 	move	zero,zero
    eae0:	00000021 	move	zero,zero
    eae4:	00000021 	move	zero,zero
    eae8:	00000021 	move	zero,zero
    eaec:	00000021 	move	zero,zero
    eaf0:	3c124765 	lui	s2,0x4765
    eaf4:	365213e2 	ori	s2,s2,0x13e2
    eaf8:	00000000 	nop
    eafc:	3c145623 	lui	s4,0x5623
    eb00:	36947fe8 	ori	s4,s4,0x7fe8
    eb04:	16140843 	bne	s0,s4,10c14 <inst_error>
    eb08:	00000000 	nop
    eb0c:	00000000 	nop
    eb10:	3c154765 	lui	s5,0x4765
    eb14:	36b513e2 	ori	s5,s5,0x13e2
    eb18:	1655083e 	bne	s2,s5,10c14 <inst_error>
    eb1c:	00000000 	nop
    eb20:	00000000 	nop
    eb24:	3c0c23d8 	lui	t4,0x23d8
    eb28:	358ce5c8 	ori	t4,t4,0xe5c8
    eb2c:	3c0d07ab 	lui	t5,0x7ab
    eb30:	35ad1cc4 	ori	t5,t5,0x1cc4
    eb34:	24100000 	li	s0,0
    eb38:	10000016 	b	eb94 <n30_bne_test+0xeb94>
    eb3c:	24120000 	li	s2,0
    eb40:	00000000 	nop
    eb44:	3c1023d8 	lui	s0,0x23d8
    eb48:	15280022 	bne	t1,t0,ebd4 <n30_bne_test+0xebd4>
    eb4c:	3610e5c8 	ori	s0,s0,0xe5c8
    eb50:	10000022 	b	ebdc <n30_bne_test+0xebdc>
    eb54:	00000000 	nop
    eb58:	00000000 	nop
    eb5c:	00000021 	move	zero,zero
    eb60:	00000021 	move	zero,zero
    eb64:	00000021 	move	zero,zero
    eb68:	00000021 	move	zero,zero
    eb6c:	00000021 	move	zero,zero
    eb70:	00000021 	move	zero,zero
    eb74:	00000021 	move	zero,zero
    eb78:	00000021 	move	zero,zero
    eb7c:	00000021 	move	zero,zero
    eb80:	00000021 	move	zero,zero
    eb84:	00000021 	move	zero,zero
    eb88:	00000021 	move	zero,zero
    eb8c:	00000021 	move	zero,zero
    eb90:	00000021 	move	zero,zero
    eb94:	24080000 	li	t0,0
    eb98:	3c09e795 	lui	t1,0xe795
    eb9c:	3529f452 	ori	t1,t1,0xf452
    eba0:	1509ffe8 	bne	t0,t1,eb44 <n30_bne_test+0xeb44>
    eba4:	00000000 	nop
    eba8:	1000000c 	b	ebdc <n30_bne_test+0xebdc>
    ebac:	00000000 	nop
    ebb0:	00000000 	nop
    ebb4:	00000021 	move	zero,zero
    ebb8:	00000021 	move	zero,zero
    ebbc:	00000021 	move	zero,zero
    ebc0:	00000021 	move	zero,zero
    ebc4:	00000021 	move	zero,zero
    ebc8:	00000021 	move	zero,zero
    ebcc:	00000021 	move	zero,zero
    ebd0:	00000021 	move	zero,zero
    ebd4:	3c1207ab 	lui	s2,0x7ab
    ebd8:	36521cc4 	ori	s2,s2,0x1cc4
    ebdc:	00000000 	nop
    ebe0:	3c1423d8 	lui	s4,0x23d8
    ebe4:	3694e5c8 	ori	s4,s4,0xe5c8
    ebe8:	1614080a 	bne	s0,s4,10c14 <inst_error>
    ebec:	00000000 	nop
    ebf0:	00000000 	nop
    ebf4:	3c1507ab 	lui	s5,0x7ab
    ebf8:	36b51cc4 	ori	s5,s5,0x1cc4
    ebfc:	16550805 	bne	s2,s5,10c14 <inst_error>
    ec00:	00000000 	nop
    ec04:	00000000 	nop
    ec08:	3c0ccf48 	lui	t4,0xcf48
    ec0c:	358c071c 	ori	t4,t4,0x71c
    ec10:	3c0d7df4 	lui	t5,0x7df4
    ec14:	35ad192c 	ori	t5,t5,0x192c
    ec18:	24100000 	li	s0,0
    ec1c:	10000016 	b	ec78 <n30_bne_test+0xec78>
    ec20:	24120000 	li	s2,0
    ec24:	00000000 	nop
    ec28:	3c10cf48 	lui	s0,0xcf48
    ec2c:	15280022 	bne	t1,t0,ecb8 <n30_bne_test+0xecb8>
    ec30:	3610071c 	ori	s0,s0,0x71c
    ec34:	10000022 	b	ecc0 <n30_bne_test+0xecc0>
    ec38:	00000000 	nop
    ec3c:	00000000 	nop
    ec40:	00000021 	move	zero,zero
    ec44:	00000021 	move	zero,zero
    ec48:	00000021 	move	zero,zero
    ec4c:	00000021 	move	zero,zero
    ec50:	00000021 	move	zero,zero
    ec54:	00000021 	move	zero,zero
    ec58:	00000021 	move	zero,zero
    ec5c:	00000021 	move	zero,zero
    ec60:	00000021 	move	zero,zero
    ec64:	00000021 	move	zero,zero
    ec68:	00000021 	move	zero,zero
    ec6c:	00000021 	move	zero,zero
    ec70:	00000021 	move	zero,zero
    ec74:	00000021 	move	zero,zero
    ec78:	24080000 	li	t0,0
    ec7c:	3c09bc63 	lui	t1,0xbc63
    ec80:	3529f599 	ori	t1,t1,0xf599
    ec84:	1509ffe8 	bne	t0,t1,ec28 <n30_bne_test+0xec28>
    ec88:	00000000 	nop
    ec8c:	1000000c 	b	ecc0 <n30_bne_test+0xecc0>
    ec90:	00000000 	nop
    ec94:	00000000 	nop
    ec98:	00000021 	move	zero,zero
    ec9c:	00000021 	move	zero,zero
    eca0:	00000021 	move	zero,zero
    eca4:	00000021 	move	zero,zero
    eca8:	00000021 	move	zero,zero
    ecac:	00000021 	move	zero,zero
    ecb0:	00000021 	move	zero,zero
    ecb4:	00000021 	move	zero,zero
    ecb8:	3c127df4 	lui	s2,0x7df4
    ecbc:	3652192c 	ori	s2,s2,0x192c
    ecc0:	00000000 	nop
    ecc4:	3c14cf48 	lui	s4,0xcf48
    ecc8:	3694071c 	ori	s4,s4,0x71c
    eccc:	161407d1 	bne	s0,s4,10c14 <inst_error>
    ecd0:	00000000 	nop
    ecd4:	00000000 	nop
    ecd8:	3c157df4 	lui	s5,0x7df4
    ecdc:	36b5192c 	ori	s5,s5,0x192c
    ece0:	165507cc 	bne	s2,s5,10c14 <inst_error>
    ece4:	00000000 	nop
    ece8:	00000000 	nop
    ecec:	3c0cfea3 	lui	t4,0xfea3
    ecf0:	358cd078 	ori	t4,t4,0xd078
    ecf4:	3c0d2c4b 	lui	t5,0x2c4b
    ecf8:	35ad1e7c 	ori	t5,t5,0x1e7c
    ecfc:	24100000 	li	s0,0
    ed00:	10000016 	b	ed5c <n30_bne_test+0xed5c>
    ed04:	24120000 	li	s2,0
    ed08:	00000000 	nop
    ed0c:	3c10fea3 	lui	s0,0xfea3
    ed10:	15280022 	bne	t1,t0,ed9c <n30_bne_test+0xed9c>
    ed14:	3610d078 	ori	s0,s0,0xd078
    ed18:	10000022 	b	eda4 <n30_bne_test+0xeda4>
    ed1c:	00000000 	nop
    ed20:	00000000 	nop
    ed24:	00000021 	move	zero,zero
    ed28:	00000021 	move	zero,zero
    ed2c:	00000021 	move	zero,zero
    ed30:	00000021 	move	zero,zero
    ed34:	00000021 	move	zero,zero
    ed38:	00000021 	move	zero,zero
    ed3c:	00000021 	move	zero,zero
    ed40:	00000021 	move	zero,zero
    ed44:	00000021 	move	zero,zero
    ed48:	00000021 	move	zero,zero
    ed4c:	00000021 	move	zero,zero
    ed50:	00000021 	move	zero,zero
    ed54:	00000021 	move	zero,zero
    ed58:	00000021 	move	zero,zero
    ed5c:	24080000 	li	t0,0
    ed60:	3c09b1aa 	lui	t1,0xb1aa
    ed64:	35295546 	ori	t1,t1,0x5546
    ed68:	1509ffe8 	bne	t0,t1,ed0c <n30_bne_test+0xed0c>
    ed6c:	00000000 	nop
    ed70:	1000000c 	b	eda4 <n30_bne_test+0xeda4>
    ed74:	00000000 	nop
    ed78:	00000000 	nop
    ed7c:	00000021 	move	zero,zero
    ed80:	00000021 	move	zero,zero
    ed84:	00000021 	move	zero,zero
    ed88:	00000021 	move	zero,zero
    ed8c:	00000021 	move	zero,zero
    ed90:	00000021 	move	zero,zero
    ed94:	00000021 	move	zero,zero
    ed98:	00000021 	move	zero,zero
    ed9c:	3c122c4b 	lui	s2,0x2c4b
    eda0:	36521e7c 	ori	s2,s2,0x1e7c
    eda4:	00000000 	nop
    eda8:	3c14fea3 	lui	s4,0xfea3
    edac:	3694d078 	ori	s4,s4,0xd078
    edb0:	16140798 	bne	s0,s4,10c14 <inst_error>
    edb4:	00000000 	nop
    edb8:	00000000 	nop
    edbc:	3c152c4b 	lui	s5,0x2c4b
    edc0:	36b51e7c 	ori	s5,s5,0x1e7c
    edc4:	16550793 	bne	s2,s5,10c14 <inst_error>
    edc8:	00000000 	nop
    edcc:	00000000 	nop
    edd0:	3c0c919f 	lui	t4,0x919f
    edd4:	358c876c 	ori	t4,t4,0x876c
    edd8:	3c0d2662 	lui	t5,0x2662
    eddc:	35ad52a9 	ori	t5,t5,0x52a9
    ede0:	24100000 	li	s0,0
    ede4:	10000016 	b	ee40 <n30_bne_test+0xee40>
    ede8:	24120000 	li	s2,0
    edec:	00000000 	nop
    edf0:	3c10919f 	lui	s0,0x919f
    edf4:	15280022 	bne	t1,t0,ee80 <n30_bne_test+0xee80>
    edf8:	3610876c 	ori	s0,s0,0x876c
    edfc:	10000022 	b	ee88 <n30_bne_test+0xee88>
    ee00:	00000000 	nop
    ee04:	00000000 	nop
    ee08:	00000021 	move	zero,zero
    ee0c:	00000021 	move	zero,zero
    ee10:	00000021 	move	zero,zero
    ee14:	00000021 	move	zero,zero
    ee18:	00000021 	move	zero,zero
    ee1c:	00000021 	move	zero,zero
    ee20:	00000021 	move	zero,zero
    ee24:	00000021 	move	zero,zero
    ee28:	00000021 	move	zero,zero
    ee2c:	00000021 	move	zero,zero
    ee30:	00000021 	move	zero,zero
    ee34:	00000021 	move	zero,zero
    ee38:	00000021 	move	zero,zero
    ee3c:	00000021 	move	zero,zero
    ee40:	24080000 	li	t0,0
    ee44:	3c09128a 	lui	t1,0x128a
    ee48:	352965f0 	ori	t1,t1,0x65f0
    ee4c:	1509ffe8 	bne	t0,t1,edf0 <n30_bne_test+0xedf0>
    ee50:	00000000 	nop
    ee54:	1000000c 	b	ee88 <n30_bne_test+0xee88>
    ee58:	00000000 	nop
    ee5c:	00000000 	nop
    ee60:	00000021 	move	zero,zero
    ee64:	00000021 	move	zero,zero
    ee68:	00000021 	move	zero,zero
    ee6c:	00000021 	move	zero,zero
    ee70:	00000021 	move	zero,zero
    ee74:	00000021 	move	zero,zero
    ee78:	00000021 	move	zero,zero
    ee7c:	00000021 	move	zero,zero
    ee80:	3c122662 	lui	s2,0x2662
    ee84:	365252a9 	ori	s2,s2,0x52a9
    ee88:	00000000 	nop
    ee8c:	3c14919f 	lui	s4,0x919f
    ee90:	3694876c 	ori	s4,s4,0x876c
    ee94:	1614075f 	bne	s0,s4,10c14 <inst_error>
    ee98:	00000000 	nop
    ee9c:	00000000 	nop
    eea0:	3c152662 	lui	s5,0x2662
    eea4:	36b552a9 	ori	s5,s5,0x52a9
    eea8:	1655075a 	bne	s2,s5,10c14 <inst_error>
    eeac:	00000000 	nop
    eeb0:	00000000 	nop
    eeb4:	3c0ce442 	lui	t4,0xe442
    eeb8:	358c4a48 	ori	t4,t4,0x4a48
    eebc:	3c0dec76 	lui	t5,0xec76
    eec0:	35ade8f2 	ori	t5,t5,0xe8f2
    eec4:	24100000 	li	s0,0
    eec8:	10000016 	b	ef24 <n30_bne_test+0xef24>
    eecc:	24120000 	li	s2,0
    eed0:	00000000 	nop
    eed4:	3c10e442 	lui	s0,0xe442
    eed8:	15280022 	bne	t1,t0,ef64 <n30_bne_test+0xef64>
    eedc:	36104a48 	ori	s0,s0,0x4a48
    eee0:	10000022 	b	ef6c <n30_bne_test+0xef6c>
    eee4:	00000000 	nop
    eee8:	00000000 	nop
    eeec:	00000021 	move	zero,zero
    eef0:	00000021 	move	zero,zero
    eef4:	00000021 	move	zero,zero
    eef8:	00000021 	move	zero,zero
    eefc:	00000021 	move	zero,zero
    ef00:	00000021 	move	zero,zero
    ef04:	00000021 	move	zero,zero
    ef08:	00000021 	move	zero,zero
    ef0c:	00000021 	move	zero,zero
    ef10:	00000021 	move	zero,zero
    ef14:	00000021 	move	zero,zero
    ef18:	00000021 	move	zero,zero
    ef1c:	00000021 	move	zero,zero
    ef20:	00000021 	move	zero,zero
    ef24:	24080000 	li	t0,0
    ef28:	3c0939ff 	lui	t1,0x39ff
    ef2c:	3529a438 	ori	t1,t1,0xa438
    ef30:	1509ffe8 	bne	t0,t1,eed4 <n30_bne_test+0xeed4>
    ef34:	00000000 	nop
    ef38:	1000000c 	b	ef6c <n30_bne_test+0xef6c>
    ef3c:	00000000 	nop
    ef40:	00000000 	nop
    ef44:	00000021 	move	zero,zero
    ef48:	00000021 	move	zero,zero
    ef4c:	00000021 	move	zero,zero
    ef50:	00000021 	move	zero,zero
    ef54:	00000021 	move	zero,zero
    ef58:	00000021 	move	zero,zero
    ef5c:	00000021 	move	zero,zero
    ef60:	00000021 	move	zero,zero
    ef64:	3c12ec76 	lui	s2,0xec76
    ef68:	3652e8f2 	ori	s2,s2,0xe8f2
    ef6c:	00000000 	nop
    ef70:	3c14e442 	lui	s4,0xe442
    ef74:	36944a48 	ori	s4,s4,0x4a48
    ef78:	16140726 	bne	s0,s4,10c14 <inst_error>
    ef7c:	00000000 	nop
    ef80:	00000000 	nop
    ef84:	3c15ec76 	lui	s5,0xec76
    ef88:	36b5e8f2 	ori	s5,s5,0xe8f2
    ef8c:	16550721 	bne	s2,s5,10c14 <inst_error>
    ef90:	00000000 	nop
    ef94:	00000000 	nop
    ef98:	3c0cb54e 	lui	t4,0xb54e
    ef9c:	358c7bb0 	ori	t4,t4,0x7bb0
    efa0:	3c0df288 	lui	t5,0xf288
    efa4:	35ade550 	ori	t5,t5,0xe550
    efa8:	24100000 	li	s0,0
    efac:	10000016 	b	f008 <n30_bne_test+0xf008>
    efb0:	24120000 	li	s2,0
    efb4:	00000000 	nop
    efb8:	3c10b54e 	lui	s0,0xb54e
    efbc:	15280022 	bne	t1,t0,f048 <n30_bne_test+0xf048>
    efc0:	36107bb0 	ori	s0,s0,0x7bb0
    efc4:	10000022 	b	f050 <n30_bne_test+0xf050>
    efc8:	00000000 	nop
    efcc:	00000000 	nop
    efd0:	00000021 	move	zero,zero
    efd4:	00000021 	move	zero,zero
    efd8:	00000021 	move	zero,zero
    efdc:	00000021 	move	zero,zero
    efe0:	00000021 	move	zero,zero
    efe4:	00000021 	move	zero,zero
    efe8:	00000021 	move	zero,zero
    efec:	00000021 	move	zero,zero
    eff0:	00000021 	move	zero,zero
    eff4:	00000021 	move	zero,zero
    eff8:	00000021 	move	zero,zero
    effc:	00000021 	move	zero,zero
    f000:	00000021 	move	zero,zero
    f004:	00000021 	move	zero,zero
    f008:	24080000 	li	t0,0
    f00c:	3c094b38 	lui	t1,0x4b38
    f010:	3529dc00 	ori	t1,t1,0xdc00
    f014:	1509ffe8 	bne	t0,t1,efb8 <n30_bne_test+0xefb8>
    f018:	00000000 	nop
    f01c:	1000000c 	b	f050 <n30_bne_test+0xf050>
    f020:	00000000 	nop
    f024:	00000000 	nop
    f028:	00000021 	move	zero,zero
    f02c:	00000021 	move	zero,zero
    f030:	00000021 	move	zero,zero
    f034:	00000021 	move	zero,zero
    f038:	00000021 	move	zero,zero
    f03c:	00000021 	move	zero,zero
    f040:	00000021 	move	zero,zero
    f044:	00000021 	move	zero,zero
    f048:	3c12f288 	lui	s2,0xf288
    f04c:	3652e550 	ori	s2,s2,0xe550
    f050:	00000000 	nop
    f054:	3c14b54e 	lui	s4,0xb54e
    f058:	36947bb0 	ori	s4,s4,0x7bb0
    f05c:	161406ed 	bne	s0,s4,10c14 <inst_error>
    f060:	00000000 	nop
    f064:	00000000 	nop
    f068:	3c15f288 	lui	s5,0xf288
    f06c:	36b5e550 	ori	s5,s5,0xe550
    f070:	165506e8 	bne	s2,s5,10c14 <inst_error>
    f074:	00000000 	nop
    f078:	00000000 	nop
    f07c:	3c0ccb1c 	lui	t4,0xcb1c
    f080:	358c8a18 	ori	t4,t4,0x8a18
    f084:	3c0d30da 	lui	t5,0x30da
    f088:	35ad476b 	ori	t5,t5,0x476b
    f08c:	24100000 	li	s0,0
    f090:	10000016 	b	f0ec <n30_bne_test+0xf0ec>
    f094:	24120000 	li	s2,0
    f098:	00000000 	nop
    f09c:	3c10cb1c 	lui	s0,0xcb1c
    f0a0:	15280021 	bne	t1,t0,f128 <n30_bne_test+0xf128>
    f0a4:	36108a18 	ori	s0,s0,0x8a18
    f0a8:	10000021 	b	f130 <n30_bne_test+0xf130>
    f0ac:	00000000 	nop
    f0b0:	00000000 	nop
    f0b4:	00000021 	move	zero,zero
    f0b8:	00000021 	move	zero,zero
    f0bc:	00000021 	move	zero,zero
    f0c0:	00000021 	move	zero,zero
    f0c4:	00000021 	move	zero,zero
    f0c8:	00000021 	move	zero,zero
    f0cc:	00000021 	move	zero,zero
    f0d0:	00000021 	move	zero,zero
    f0d4:	00000021 	move	zero,zero
    f0d8:	00000021 	move	zero,zero
    f0dc:	00000021 	move	zero,zero
    f0e0:	00000021 	move	zero,zero
    f0e4:	00000021 	move	zero,zero
    f0e8:	00000021 	move	zero,zero
    f0ec:	24080000 	li	t0,0
    f0f0:	3c0974a8 	lui	t1,0x74a8
    f0f4:	1509ffe9 	bne	t0,t1,f09c <n30_bne_test+0xf09c>
    f0f8:	00000000 	nop
    f0fc:	1000000c 	b	f130 <n30_bne_test+0xf130>
    f100:	00000000 	nop
    f104:	00000000 	nop
    f108:	00000021 	move	zero,zero
    f10c:	00000021 	move	zero,zero
    f110:	00000021 	move	zero,zero
    f114:	00000021 	move	zero,zero
    f118:	00000021 	move	zero,zero
    f11c:	00000021 	move	zero,zero
    f120:	00000021 	move	zero,zero
    f124:	00000021 	move	zero,zero
    f128:	3c1230da 	lui	s2,0x30da
    f12c:	3652476b 	ori	s2,s2,0x476b
    f130:	00000000 	nop
    f134:	3c14cb1c 	lui	s4,0xcb1c
    f138:	36948a18 	ori	s4,s4,0x8a18
    f13c:	161406b5 	bne	s0,s4,10c14 <inst_error>
    f140:	00000000 	nop
    f144:	00000000 	nop
    f148:	3c1530da 	lui	s5,0x30da
    f14c:	36b5476b 	ori	s5,s5,0x476b
    f150:	165506b0 	bne	s2,s5,10c14 <inst_error>
    f154:	00000000 	nop
    f158:	00000000 	nop
    f15c:	3c0c1eab 	lui	t4,0x1eab
    f160:	358c3fe0 	ori	t4,t4,0x3fe0
    f164:	3c0d4de0 	lui	t5,0x4de0
    f168:	35ad1ec6 	ori	t5,t5,0x1ec6
    f16c:	24100000 	li	s0,0
    f170:	10000016 	b	f1cc <n30_bne_test+0xf1cc>
    f174:	24120000 	li	s2,0
    f178:	00000000 	nop
    f17c:	3c101eab 	lui	s0,0x1eab
    f180:	15280022 	bne	t1,t0,f20c <n30_bne_test+0xf20c>
    f184:	36103fe0 	ori	s0,s0,0x3fe0
    f188:	10000022 	b	f214 <n30_bne_test+0xf214>
    f18c:	00000000 	nop
    f190:	00000000 	nop
    f194:	00000021 	move	zero,zero
    f198:	00000021 	move	zero,zero
    f19c:	00000021 	move	zero,zero
    f1a0:	00000021 	move	zero,zero
    f1a4:	00000021 	move	zero,zero
    f1a8:	00000021 	move	zero,zero
    f1ac:	00000021 	move	zero,zero
    f1b0:	00000021 	move	zero,zero
    f1b4:	00000021 	move	zero,zero
    f1b8:	00000021 	move	zero,zero
    f1bc:	00000021 	move	zero,zero
    f1c0:	00000021 	move	zero,zero
    f1c4:	00000021 	move	zero,zero
    f1c8:	00000021 	move	zero,zero
    f1cc:	24080000 	li	t0,0
    f1d0:	3c09d1ed 	lui	t1,0xd1ed
    f1d4:	35295e5a 	ori	t1,t1,0x5e5a
    f1d8:	1509ffe8 	bne	t0,t1,f17c <n30_bne_test+0xf17c>
    f1dc:	00000000 	nop
    f1e0:	1000000c 	b	f214 <n30_bne_test+0xf214>
    f1e4:	00000000 	nop
    f1e8:	00000000 	nop
    f1ec:	00000021 	move	zero,zero
    f1f0:	00000021 	move	zero,zero
    f1f4:	00000021 	move	zero,zero
    f1f8:	00000021 	move	zero,zero
    f1fc:	00000021 	move	zero,zero
    f200:	00000021 	move	zero,zero
    f204:	00000021 	move	zero,zero
    f208:	00000021 	move	zero,zero
    f20c:	3c124de0 	lui	s2,0x4de0
    f210:	36521ec6 	ori	s2,s2,0x1ec6
    f214:	00000000 	nop
    f218:	3c141eab 	lui	s4,0x1eab
    f21c:	36943fe0 	ori	s4,s4,0x3fe0
    f220:	1614067c 	bne	s0,s4,10c14 <inst_error>
    f224:	00000000 	nop
    f228:	00000000 	nop
    f22c:	3c154de0 	lui	s5,0x4de0
    f230:	36b51ec6 	ori	s5,s5,0x1ec6
    f234:	16550677 	bne	s2,s5,10c14 <inst_error>
    f238:	00000000 	nop
    f23c:	00000000 	nop
    f240:	3c0c7a54 	lui	t4,0x7a54
    f244:	358cb48f 	ori	t4,t4,0xb48f
    f248:	3c0ddad6 	lui	t5,0xdad6
    f24c:	35adf3c4 	ori	t5,t5,0xf3c4
    f250:	24100000 	li	s0,0
    f254:	10000016 	b	f2b0 <n30_bne_test+0xf2b0>
    f258:	24120000 	li	s2,0
    f25c:	00000000 	nop
    f260:	3c107a54 	lui	s0,0x7a54
    f264:	15280022 	bne	t1,t0,f2f0 <n30_bne_test+0xf2f0>
    f268:	3610b48f 	ori	s0,s0,0xb48f
    f26c:	10000022 	b	f2f8 <n30_bne_test+0xf2f8>
    f270:	00000000 	nop
    f274:	00000000 	nop
    f278:	00000021 	move	zero,zero
    f27c:	00000021 	move	zero,zero
    f280:	00000021 	move	zero,zero
    f284:	00000021 	move	zero,zero
    f288:	00000021 	move	zero,zero
    f28c:	00000021 	move	zero,zero
    f290:	00000021 	move	zero,zero
    f294:	00000021 	move	zero,zero
    f298:	00000021 	move	zero,zero
    f29c:	00000021 	move	zero,zero
    f2a0:	00000021 	move	zero,zero
    f2a4:	00000021 	move	zero,zero
    f2a8:	00000021 	move	zero,zero
    f2ac:	00000021 	move	zero,zero
    f2b0:	24080000 	li	t0,0
    f2b4:	3c094aa2 	lui	t1,0x4aa2
    f2b8:	35290178 	ori	t1,t1,0x178
    f2bc:	1509ffe8 	bne	t0,t1,f260 <n30_bne_test+0xf260>
    f2c0:	00000000 	nop
    f2c4:	1000000c 	b	f2f8 <n30_bne_test+0xf2f8>
    f2c8:	00000000 	nop
    f2cc:	00000000 	nop
    f2d0:	00000021 	move	zero,zero
    f2d4:	00000021 	move	zero,zero
    f2d8:	00000021 	move	zero,zero
    f2dc:	00000021 	move	zero,zero
    f2e0:	00000021 	move	zero,zero
    f2e4:	00000021 	move	zero,zero
    f2e8:	00000021 	move	zero,zero
    f2ec:	00000021 	move	zero,zero
    f2f0:	3c12dad6 	lui	s2,0xdad6
    f2f4:	3652f3c4 	ori	s2,s2,0xf3c4
    f2f8:	00000000 	nop
    f2fc:	3c147a54 	lui	s4,0x7a54
    f300:	3694b48f 	ori	s4,s4,0xb48f
    f304:	16140643 	bne	s0,s4,10c14 <inst_error>
    f308:	00000000 	nop
    f30c:	00000000 	nop
    f310:	3c15dad6 	lui	s5,0xdad6
    f314:	36b5f3c4 	ori	s5,s5,0xf3c4
    f318:	1655063e 	bne	s2,s5,10c14 <inst_error>
    f31c:	00000000 	nop
    f320:	00000000 	nop
    f324:	3c0c5b4d 	lui	t4,0x5b4d
    f328:	358c401a 	ori	t4,t4,0x401a
    f32c:	3c0dc7e8 	lui	t5,0xc7e8
    f330:	35adbe26 	ori	t5,t5,0xbe26
    f334:	24100000 	li	s0,0
    f338:	10000016 	b	f394 <n30_bne_test+0xf394>
    f33c:	24120000 	li	s2,0
    f340:	00000000 	nop
    f344:	3c105b4d 	lui	s0,0x5b4d
    f348:	15280022 	bne	t1,t0,f3d4 <n30_bne_test+0xf3d4>
    f34c:	3610401a 	ori	s0,s0,0x401a
    f350:	10000022 	b	f3dc <n30_bne_test+0xf3dc>
    f354:	00000000 	nop
    f358:	00000000 	nop
    f35c:	00000021 	move	zero,zero
    f360:	00000021 	move	zero,zero
    f364:	00000021 	move	zero,zero
    f368:	00000021 	move	zero,zero
    f36c:	00000021 	move	zero,zero
    f370:	00000021 	move	zero,zero
    f374:	00000021 	move	zero,zero
    f378:	00000021 	move	zero,zero
    f37c:	00000021 	move	zero,zero
    f380:	00000021 	move	zero,zero
    f384:	00000021 	move	zero,zero
    f388:	00000021 	move	zero,zero
    f38c:	00000021 	move	zero,zero
    f390:	00000021 	move	zero,zero
    f394:	24080000 	li	t0,0
    f398:	3c09ef7b 	lui	t1,0xef7b
    f39c:	35291d94 	ori	t1,t1,0x1d94
    f3a0:	1509ffe8 	bne	t0,t1,f344 <n30_bne_test+0xf344>
    f3a4:	00000000 	nop
    f3a8:	1000000c 	b	f3dc <n30_bne_test+0xf3dc>
    f3ac:	00000000 	nop
    f3b0:	00000000 	nop
    f3b4:	00000021 	move	zero,zero
    f3b8:	00000021 	move	zero,zero
    f3bc:	00000021 	move	zero,zero
    f3c0:	00000021 	move	zero,zero
    f3c4:	00000021 	move	zero,zero
    f3c8:	00000021 	move	zero,zero
    f3cc:	00000021 	move	zero,zero
    f3d0:	00000021 	move	zero,zero
    f3d4:	3c12c7e8 	lui	s2,0xc7e8
    f3d8:	3652be26 	ori	s2,s2,0xbe26
    f3dc:	00000000 	nop
    f3e0:	3c145b4d 	lui	s4,0x5b4d
    f3e4:	3694401a 	ori	s4,s4,0x401a
    f3e8:	1614060a 	bne	s0,s4,10c14 <inst_error>
    f3ec:	00000000 	nop
    f3f0:	00000000 	nop
    f3f4:	3c15c7e8 	lui	s5,0xc7e8
    f3f8:	36b5be26 	ori	s5,s5,0xbe26
    f3fc:	16550605 	bne	s2,s5,10c14 <inst_error>
    f400:	00000000 	nop
    f404:	00000000 	nop
    f408:	3c0c4525 	lui	t4,0x4525
    f40c:	358ce5a6 	ori	t4,t4,0xe5a6
    f410:	3c0db712 	lui	t5,0xb712
    f414:	35ad8672 	ori	t5,t5,0x8672
    f418:	24100000 	li	s0,0
    f41c:	10000016 	b	f478 <n30_bne_test+0xf478>
    f420:	24120000 	li	s2,0
    f424:	00000000 	nop
    f428:	3c104525 	lui	s0,0x4525
    f42c:	15280022 	bne	t1,t0,f4b8 <n30_bne_test+0xf4b8>
    f430:	3610e5a6 	ori	s0,s0,0xe5a6
    f434:	10000022 	b	f4c0 <n30_bne_test+0xf4c0>
    f438:	00000000 	nop
    f43c:	00000000 	nop
    f440:	00000021 	move	zero,zero
    f444:	00000021 	move	zero,zero
    f448:	00000021 	move	zero,zero
    f44c:	00000021 	move	zero,zero
    f450:	00000021 	move	zero,zero
    f454:	00000021 	move	zero,zero
    f458:	00000021 	move	zero,zero
    f45c:	00000021 	move	zero,zero
    f460:	00000021 	move	zero,zero
    f464:	00000021 	move	zero,zero
    f468:	00000021 	move	zero,zero
    f46c:	00000021 	move	zero,zero
    f470:	00000021 	move	zero,zero
    f474:	00000021 	move	zero,zero
    f478:	24080000 	li	t0,0
    f47c:	3c09dce5 	lui	t1,0xdce5
    f480:	35299fd0 	ori	t1,t1,0x9fd0
    f484:	1509ffe8 	bne	t0,t1,f428 <n30_bne_test+0xf428>
    f488:	00000000 	nop
    f48c:	1000000c 	b	f4c0 <n30_bne_test+0xf4c0>
    f490:	00000000 	nop
    f494:	00000000 	nop
    f498:	00000021 	move	zero,zero
    f49c:	00000021 	move	zero,zero
    f4a0:	00000021 	move	zero,zero
    f4a4:	00000021 	move	zero,zero
    f4a8:	00000021 	move	zero,zero
    f4ac:	00000021 	move	zero,zero
    f4b0:	00000021 	move	zero,zero
    f4b4:	00000021 	move	zero,zero
    f4b8:	3c12b712 	lui	s2,0xb712
    f4bc:	36528672 	ori	s2,s2,0x8672
    f4c0:	00000000 	nop
    f4c4:	3c144525 	lui	s4,0x4525
    f4c8:	3694e5a6 	ori	s4,s4,0xe5a6
    f4cc:	161405d1 	bne	s0,s4,10c14 <inst_error>
    f4d0:	00000000 	nop
    f4d4:	00000000 	nop
    f4d8:	3c15b712 	lui	s5,0xb712
    f4dc:	36b58672 	ori	s5,s5,0x8672
    f4e0:	165505cc 	bne	s2,s5,10c14 <inst_error>
    f4e4:	00000000 	nop
    f4e8:	00000000 	nop
    f4ec:	3c0c4b52 	lui	t4,0x4b52
    f4f0:	358cab90 	ori	t4,t4,0xab90
    f4f4:	3c0d99b9 	lui	t5,0x99b9
    f4f8:	35ad9170 	ori	t5,t5,0x9170
    f4fc:	24100000 	li	s0,0
    f500:	10000016 	b	f55c <n30_bne_test+0xf55c>
    f504:	24120000 	li	s2,0
    f508:	00000000 	nop
    f50c:	3c104b52 	lui	s0,0x4b52
    f510:	15280022 	bne	t1,t0,f59c <n30_bne_test+0xf59c>
    f514:	3610ab90 	ori	s0,s0,0xab90
    f518:	10000022 	b	f5a4 <n30_bne_test+0xf5a4>
    f51c:	00000000 	nop
    f520:	00000000 	nop
    f524:	00000021 	move	zero,zero
    f528:	00000021 	move	zero,zero
    f52c:	00000021 	move	zero,zero
    f530:	00000021 	move	zero,zero
    f534:	00000021 	move	zero,zero
    f538:	00000021 	move	zero,zero
    f53c:	00000021 	move	zero,zero
    f540:	00000021 	move	zero,zero
    f544:	00000021 	move	zero,zero
    f548:	00000021 	move	zero,zero
    f54c:	00000021 	move	zero,zero
    f550:	00000021 	move	zero,zero
    f554:	00000021 	move	zero,zero
    f558:	00000021 	move	zero,zero
    f55c:	24080000 	li	t0,0
    f560:	3c09c6d4 	lui	t1,0xc6d4
    f564:	3529f907 	ori	t1,t1,0xf907
    f568:	1509ffe8 	bne	t0,t1,f50c <n30_bne_test+0xf50c>
    f56c:	00000000 	nop
    f570:	1000000c 	b	f5a4 <n30_bne_test+0xf5a4>
    f574:	00000000 	nop
    f578:	00000000 	nop
    f57c:	00000021 	move	zero,zero
    f580:	00000021 	move	zero,zero
    f584:	00000021 	move	zero,zero
    f588:	00000021 	move	zero,zero
    f58c:	00000021 	move	zero,zero
    f590:	00000021 	move	zero,zero
    f594:	00000021 	move	zero,zero
    f598:	00000021 	move	zero,zero
    f59c:	3c1299b9 	lui	s2,0x99b9
    f5a0:	36529170 	ori	s2,s2,0x9170
    f5a4:	00000000 	nop
    f5a8:	3c144b52 	lui	s4,0x4b52
    f5ac:	3694ab90 	ori	s4,s4,0xab90
    f5b0:	16140598 	bne	s0,s4,10c14 <inst_error>
    f5b4:	00000000 	nop
    f5b8:	00000000 	nop
    f5bc:	3c1599b9 	lui	s5,0x99b9
    f5c0:	36b59170 	ori	s5,s5,0x9170
    f5c4:	16550593 	bne	s2,s5,10c14 <inst_error>
    f5c8:	00000000 	nop
    f5cc:	00000000 	nop
    f5d0:	3c0c118e 	lui	t4,0x118e
    f5d4:	358cf470 	ori	t4,t4,0xf470
    f5d8:	3c0d35c5 	lui	t5,0x35c5
    f5dc:	35ad777a 	ori	t5,t5,0x777a
    f5e0:	24100000 	li	s0,0
    f5e4:	10000016 	b	f640 <n30_bne_test+0xf640>
    f5e8:	24120000 	li	s2,0
    f5ec:	00000000 	nop
    f5f0:	3c10118e 	lui	s0,0x118e
    f5f4:	15280022 	bne	t1,t0,f680 <n30_bne_test+0xf680>
    f5f8:	3610f470 	ori	s0,s0,0xf470
    f5fc:	10000022 	b	f688 <n30_bne_test+0xf688>
    f600:	00000000 	nop
    f604:	00000000 	nop
    f608:	00000021 	move	zero,zero
    f60c:	00000021 	move	zero,zero
    f610:	00000021 	move	zero,zero
    f614:	00000021 	move	zero,zero
    f618:	00000021 	move	zero,zero
    f61c:	00000021 	move	zero,zero
    f620:	00000021 	move	zero,zero
    f624:	00000021 	move	zero,zero
    f628:	00000021 	move	zero,zero
    f62c:	00000021 	move	zero,zero
    f630:	00000021 	move	zero,zero
    f634:	00000021 	move	zero,zero
    f638:	00000021 	move	zero,zero
    f63c:	00000021 	move	zero,zero
    f640:	24080000 	li	t0,0
    f644:	3c091877 	lui	t1,0x1877
    f648:	35299ea8 	ori	t1,t1,0x9ea8
    f64c:	1509ffe8 	bne	t0,t1,f5f0 <n30_bne_test+0xf5f0>
    f650:	00000000 	nop
    f654:	1000000c 	b	f688 <n30_bne_test+0xf688>
    f658:	00000000 	nop
    f65c:	00000000 	nop
    f660:	00000021 	move	zero,zero
    f664:	00000021 	move	zero,zero
    f668:	00000021 	move	zero,zero
    f66c:	00000021 	move	zero,zero
    f670:	00000021 	move	zero,zero
    f674:	00000021 	move	zero,zero
    f678:	00000021 	move	zero,zero
    f67c:	00000021 	move	zero,zero
    f680:	3c1235c5 	lui	s2,0x35c5
    f684:	3652777a 	ori	s2,s2,0x777a
    f688:	00000000 	nop
    f68c:	3c14118e 	lui	s4,0x118e
    f690:	3694f470 	ori	s4,s4,0xf470
    f694:	1614055f 	bne	s0,s4,10c14 <inst_error>
    f698:	00000000 	nop
    f69c:	00000000 	nop
    f6a0:	3c1535c5 	lui	s5,0x35c5
    f6a4:	36b5777a 	ori	s5,s5,0x777a
    f6a8:	1655055a 	bne	s2,s5,10c14 <inst_error>
    f6ac:	00000000 	nop
    f6b0:	00000000 	nop
    f6b4:	3c0c6b76 	lui	t4,0x6b76
    f6b8:	358caee8 	ori	t4,t4,0xaee8
    f6bc:	3c0d99f7 	lui	t5,0x99f7
    f6c0:	35addfe8 	ori	t5,t5,0xdfe8
    f6c4:	24100000 	li	s0,0
    f6c8:	10000016 	b	f724 <n30_bne_test+0xf724>
    f6cc:	24120000 	li	s2,0
    f6d0:	00000000 	nop
    f6d4:	3c106b76 	lui	s0,0x6b76
    f6d8:	15280022 	bne	t1,t0,f764 <n30_bne_test+0xf764>
    f6dc:	3610aee8 	ori	s0,s0,0xaee8
    f6e0:	10000022 	b	f76c <n30_bne_test+0xf76c>
    f6e4:	00000000 	nop
    f6e8:	00000000 	nop
    f6ec:	00000021 	move	zero,zero
    f6f0:	00000021 	move	zero,zero
    f6f4:	00000021 	move	zero,zero
    f6f8:	00000021 	move	zero,zero
    f6fc:	00000021 	move	zero,zero
    f700:	00000021 	move	zero,zero
    f704:	00000021 	move	zero,zero
    f708:	00000021 	move	zero,zero
    f70c:	00000021 	move	zero,zero
    f710:	00000021 	move	zero,zero
    f714:	00000021 	move	zero,zero
    f718:	00000021 	move	zero,zero
    f71c:	00000021 	move	zero,zero
    f720:	00000021 	move	zero,zero
    f724:	24080000 	li	t0,0
    f728:	3c0968d8 	lui	t1,0x68d8
    f72c:	35297fc6 	ori	t1,t1,0x7fc6
    f730:	1509ffe8 	bne	t0,t1,f6d4 <n30_bne_test+0xf6d4>
    f734:	00000000 	nop
    f738:	1000000c 	b	f76c <n30_bne_test+0xf76c>
    f73c:	00000000 	nop
    f740:	00000000 	nop
    f744:	00000021 	move	zero,zero
    f748:	00000021 	move	zero,zero
    f74c:	00000021 	move	zero,zero
    f750:	00000021 	move	zero,zero
    f754:	00000021 	move	zero,zero
    f758:	00000021 	move	zero,zero
    f75c:	00000021 	move	zero,zero
    f760:	00000021 	move	zero,zero
    f764:	3c1299f7 	lui	s2,0x99f7
    f768:	3652dfe8 	ori	s2,s2,0xdfe8
    f76c:	00000000 	nop
    f770:	3c146b76 	lui	s4,0x6b76
    f774:	3694aee8 	ori	s4,s4,0xaee8
    f778:	16140526 	bne	s0,s4,10c14 <inst_error>
    f77c:	00000000 	nop
    f780:	00000000 	nop
    f784:	3c1599f7 	lui	s5,0x99f7
    f788:	36b5dfe8 	ori	s5,s5,0xdfe8
    f78c:	16550521 	bne	s2,s5,10c14 <inst_error>
    f790:	00000000 	nop
    f794:	00000000 	nop
    f798:	3c0cd18b 	lui	t4,0xd18b
    f79c:	358cc8b8 	ori	t4,t4,0xc8b8
    f7a0:	3c0d4a98 	lui	t5,0x4a98
    f7a4:	35ad9270 	ori	t5,t5,0x9270
    f7a8:	24100000 	li	s0,0
    f7ac:	10000016 	b	f808 <n30_bne_test+0xf808>
    f7b0:	24120000 	li	s2,0
    f7b4:	00000000 	nop
    f7b8:	3c10d18b 	lui	s0,0xd18b
    f7bc:	15280022 	bne	t1,t0,f848 <n30_bne_test+0xf848>
    f7c0:	3610c8b8 	ori	s0,s0,0xc8b8
    f7c4:	10000022 	b	f850 <n30_bne_test+0xf850>
    f7c8:	00000000 	nop
    f7cc:	00000000 	nop
    f7d0:	00000021 	move	zero,zero
    f7d4:	00000021 	move	zero,zero
    f7d8:	00000021 	move	zero,zero
    f7dc:	00000021 	move	zero,zero
    f7e0:	00000021 	move	zero,zero
    f7e4:	00000021 	move	zero,zero
    f7e8:	00000021 	move	zero,zero
    f7ec:	00000021 	move	zero,zero
    f7f0:	00000021 	move	zero,zero
    f7f4:	00000021 	move	zero,zero
    f7f8:	00000021 	move	zero,zero
    f7fc:	00000021 	move	zero,zero
    f800:	00000021 	move	zero,zero
    f804:	00000021 	move	zero,zero
    f808:	24080000 	li	t0,0
    f80c:	3c092edc 	lui	t1,0x2edc
    f810:	35296865 	ori	t1,t1,0x6865
    f814:	1509ffe8 	bne	t0,t1,f7b8 <n30_bne_test+0xf7b8>
    f818:	00000000 	nop
    f81c:	1000000c 	b	f850 <n30_bne_test+0xf850>
    f820:	00000000 	nop
    f824:	00000000 	nop
    f828:	00000021 	move	zero,zero
    f82c:	00000021 	move	zero,zero
    f830:	00000021 	move	zero,zero
    f834:	00000021 	move	zero,zero
    f838:	00000021 	move	zero,zero
    f83c:	00000021 	move	zero,zero
    f840:	00000021 	move	zero,zero
    f844:	00000021 	move	zero,zero
    f848:	3c124a98 	lui	s2,0x4a98
    f84c:	36529270 	ori	s2,s2,0x9270
    f850:	00000000 	nop
    f854:	3c14d18b 	lui	s4,0xd18b
    f858:	3694c8b8 	ori	s4,s4,0xc8b8
    f85c:	161404ed 	bne	s0,s4,10c14 <inst_error>
    f860:	00000000 	nop
    f864:	00000000 	nop
    f868:	3c154a98 	lui	s5,0x4a98
    f86c:	36b59270 	ori	s5,s5,0x9270
    f870:	165504e8 	bne	s2,s5,10c14 <inst_error>
    f874:	00000000 	nop
    f878:	00000000 	nop
    f87c:	3c0c6fbe 	lui	t4,0x6fbe
    f880:	358cf3e6 	ori	t4,t4,0xf3e6
    f884:	3c0dd6bb 	lui	t5,0xd6bb
    f888:	35adf280 	ori	t5,t5,0xf280
    f88c:	24100000 	li	s0,0
    f890:	10000016 	b	f8ec <n30_bne_test+0xf8ec>
    f894:	24120000 	li	s2,0
    f898:	00000000 	nop
    f89c:	3c106fbe 	lui	s0,0x6fbe
    f8a0:	15280022 	bne	t1,t0,f92c <n30_bne_test+0xf92c>
    f8a4:	3610f3e6 	ori	s0,s0,0xf3e6
    f8a8:	10000022 	b	f934 <n30_bne_test+0xf934>
    f8ac:	00000000 	nop
    f8b0:	00000000 	nop
    f8b4:	00000021 	move	zero,zero
    f8b8:	00000021 	move	zero,zero
    f8bc:	00000021 	move	zero,zero
    f8c0:	00000021 	move	zero,zero
    f8c4:	00000021 	move	zero,zero
    f8c8:	00000021 	move	zero,zero
    f8cc:	00000021 	move	zero,zero
    f8d0:	00000021 	move	zero,zero
    f8d4:	00000021 	move	zero,zero
    f8d8:	00000021 	move	zero,zero
    f8dc:	00000021 	move	zero,zero
    f8e0:	00000021 	move	zero,zero
    f8e4:	00000021 	move	zero,zero
    f8e8:	00000021 	move	zero,zero
    f8ec:	24080000 	li	t0,0
    f8f0:	3c09beb1 	lui	t1,0xbeb1
    f8f4:	3529b022 	ori	t1,t1,0xb022
    f8f8:	1509ffe8 	bne	t0,t1,f89c <n30_bne_test+0xf89c>
    f8fc:	00000000 	nop
    f900:	1000000c 	b	f934 <n30_bne_test+0xf934>
    f904:	00000000 	nop
    f908:	00000000 	nop
    f90c:	00000021 	move	zero,zero
    f910:	00000021 	move	zero,zero
    f914:	00000021 	move	zero,zero
    f918:	00000021 	move	zero,zero
    f91c:	00000021 	move	zero,zero
    f920:	00000021 	move	zero,zero
    f924:	00000021 	move	zero,zero
    f928:	00000021 	move	zero,zero
    f92c:	3c12d6bb 	lui	s2,0xd6bb
    f930:	3652f280 	ori	s2,s2,0xf280
    f934:	00000000 	nop
    f938:	3c146fbe 	lui	s4,0x6fbe
    f93c:	3694f3e6 	ori	s4,s4,0xf3e6
    f940:	161404b4 	bne	s0,s4,10c14 <inst_error>
    f944:	00000000 	nop
    f948:	00000000 	nop
    f94c:	3c15d6bb 	lui	s5,0xd6bb
    f950:	36b5f280 	ori	s5,s5,0xf280
    f954:	165504af 	bne	s2,s5,10c14 <inst_error>
    f958:	00000000 	nop
    f95c:	00000000 	nop
    f960:	3c0c2755 	lui	t4,0x2755
    f964:	358ce910 	ori	t4,t4,0xe910
    f968:	3c0d04e9 	lui	t5,0x4e9
    f96c:	35ad6844 	ori	t5,t5,0x6844
    f970:	24100000 	li	s0,0
    f974:	10000016 	b	f9d0 <n30_bne_test+0xf9d0>
    f978:	24120000 	li	s2,0
    f97c:	00000000 	nop
    f980:	3c102755 	lui	s0,0x2755
    f984:	15280022 	bne	t1,t0,fa10 <n30_bne_test+0xfa10>
    f988:	3610e910 	ori	s0,s0,0xe910
    f98c:	10000022 	b	fa18 <n30_bne_test+0xfa18>
    f990:	00000000 	nop
    f994:	00000000 	nop
    f998:	00000021 	move	zero,zero
    f99c:	00000021 	move	zero,zero
    f9a0:	00000021 	move	zero,zero
    f9a4:	00000021 	move	zero,zero
    f9a8:	00000021 	move	zero,zero
    f9ac:	00000021 	move	zero,zero
    f9b0:	00000021 	move	zero,zero
    f9b4:	00000021 	move	zero,zero
    f9b8:	00000021 	move	zero,zero
    f9bc:	00000021 	move	zero,zero
    f9c0:	00000021 	move	zero,zero
    f9c4:	00000021 	move	zero,zero
    f9c8:	00000021 	move	zero,zero
    f9cc:	00000021 	move	zero,zero
    f9d0:	24080000 	li	t0,0
    f9d4:	3c0987ed 	lui	t1,0x87ed
    f9d8:	352947a0 	ori	t1,t1,0x47a0
    f9dc:	1509ffe8 	bne	t0,t1,f980 <n30_bne_test+0xf980>
    f9e0:	00000000 	nop
    f9e4:	1000000c 	b	fa18 <n30_bne_test+0xfa18>
    f9e8:	00000000 	nop
    f9ec:	00000000 	nop
    f9f0:	00000021 	move	zero,zero
    f9f4:	00000021 	move	zero,zero
    f9f8:	00000021 	move	zero,zero
    f9fc:	00000021 	move	zero,zero
    fa00:	00000021 	move	zero,zero
    fa04:	00000021 	move	zero,zero
    fa08:	00000021 	move	zero,zero
    fa0c:	00000021 	move	zero,zero
    fa10:	3c1204e9 	lui	s2,0x4e9
    fa14:	36526844 	ori	s2,s2,0x6844
    fa18:	00000000 	nop
    fa1c:	3c142755 	lui	s4,0x2755
    fa20:	3694e910 	ori	s4,s4,0xe910
    fa24:	1614047b 	bne	s0,s4,10c14 <inst_error>
    fa28:	00000000 	nop
    fa2c:	00000000 	nop
    fa30:	3c1504e9 	lui	s5,0x4e9
    fa34:	36b56844 	ori	s5,s5,0x6844
    fa38:	16550476 	bne	s2,s5,10c14 <inst_error>
    fa3c:	00000000 	nop
    fa40:	00000000 	nop
    fa44:	3c0cec2f 	lui	t4,0xec2f
    fa48:	358cea40 	ori	t4,t4,0xea40
    fa4c:	3c0dad64 	lui	t5,0xad64
    fa50:	35ad4718 	ori	t5,t5,0x4718
    fa54:	24100000 	li	s0,0
    fa58:	10000016 	b	fab4 <n30_bne_test+0xfab4>
    fa5c:	24120000 	li	s2,0
    fa60:	00000000 	nop
    fa64:	3c10ec2f 	lui	s0,0xec2f
    fa68:	15280022 	bne	t1,t0,faf4 <n30_bne_test+0xfaf4>
    fa6c:	3610ea40 	ori	s0,s0,0xea40
    fa70:	10000022 	b	fafc <n30_bne_test+0xfafc>
    fa74:	00000000 	nop
    fa78:	00000000 	nop
    fa7c:	00000021 	move	zero,zero
    fa80:	00000021 	move	zero,zero
    fa84:	00000021 	move	zero,zero
    fa88:	00000021 	move	zero,zero
    fa8c:	00000021 	move	zero,zero
    fa90:	00000021 	move	zero,zero
    fa94:	00000021 	move	zero,zero
    fa98:	00000021 	move	zero,zero
    fa9c:	00000021 	move	zero,zero
    faa0:	00000021 	move	zero,zero
    faa4:	00000021 	move	zero,zero
    faa8:	00000021 	move	zero,zero
    faac:	00000021 	move	zero,zero
    fab0:	00000021 	move	zero,zero
    fab4:	24080000 	li	t0,0
    fab8:	3c099e1a 	lui	t1,0x9e1a
    fabc:	3529e5f8 	ori	t1,t1,0xe5f8
    fac0:	1509ffe8 	bne	t0,t1,fa64 <n30_bne_test+0xfa64>
    fac4:	00000000 	nop
    fac8:	1000000c 	b	fafc <n30_bne_test+0xfafc>
    facc:	00000000 	nop
    fad0:	00000000 	nop
    fad4:	00000021 	move	zero,zero
    fad8:	00000021 	move	zero,zero
    fadc:	00000021 	move	zero,zero
    fae0:	00000021 	move	zero,zero
    fae4:	00000021 	move	zero,zero
    fae8:	00000021 	move	zero,zero
    faec:	00000021 	move	zero,zero
    faf0:	00000021 	move	zero,zero
    faf4:	3c12ad64 	lui	s2,0xad64
    faf8:	36524718 	ori	s2,s2,0x4718
    fafc:	00000000 	nop
    fb00:	3c14ec2f 	lui	s4,0xec2f
    fb04:	3694ea40 	ori	s4,s4,0xea40
    fb08:	16140442 	bne	s0,s4,10c14 <inst_error>
    fb0c:	00000000 	nop
    fb10:	00000000 	nop
    fb14:	3c15ad64 	lui	s5,0xad64
    fb18:	36b54718 	ori	s5,s5,0x4718
    fb1c:	1655043d 	bne	s2,s5,10c14 <inst_error>
    fb20:	00000000 	nop
    fb24:	00000000 	nop
    fb28:	3c0cc7a6 	lui	t4,0xc7a6
    fb2c:	358c0e00 	ori	t4,t4,0xe00
    fb30:	3c0d69d2 	lui	t5,0x69d2
    fb34:	35ad7038 	ori	t5,t5,0x7038
    fb38:	24100000 	li	s0,0
    fb3c:	10000016 	b	fb98 <n30_bne_test+0xfb98>
    fb40:	24120000 	li	s2,0
    fb44:	00000000 	nop
    fb48:	3c10c7a6 	lui	s0,0xc7a6
    fb4c:	15280022 	bne	t1,t0,fbd8 <n30_bne_test+0xfbd8>
    fb50:	36100e00 	ori	s0,s0,0xe00
    fb54:	10000022 	b	fbe0 <n30_bne_test+0xfbe0>
    fb58:	00000000 	nop
    fb5c:	00000000 	nop
    fb60:	00000021 	move	zero,zero
    fb64:	00000021 	move	zero,zero
    fb68:	00000021 	move	zero,zero
    fb6c:	00000021 	move	zero,zero
    fb70:	00000021 	move	zero,zero
    fb74:	00000021 	move	zero,zero
    fb78:	00000021 	move	zero,zero
    fb7c:	00000021 	move	zero,zero
    fb80:	00000021 	move	zero,zero
    fb84:	00000021 	move	zero,zero
    fb88:	00000021 	move	zero,zero
    fb8c:	00000021 	move	zero,zero
    fb90:	00000021 	move	zero,zero
    fb94:	00000021 	move	zero,zero
    fb98:	24080000 	li	t0,0
    fb9c:	3c09ec5c 	lui	t1,0xec5c
    fba0:	352923c0 	ori	t1,t1,0x23c0
    fba4:	1509ffe8 	bne	t0,t1,fb48 <n30_bne_test+0xfb48>
    fba8:	00000000 	nop
    fbac:	1000000c 	b	fbe0 <n30_bne_test+0xfbe0>
    fbb0:	00000000 	nop
    fbb4:	00000000 	nop
    fbb8:	00000021 	move	zero,zero
    fbbc:	00000021 	move	zero,zero
    fbc0:	00000021 	move	zero,zero
    fbc4:	00000021 	move	zero,zero
    fbc8:	00000021 	move	zero,zero
    fbcc:	00000021 	move	zero,zero
    fbd0:	00000021 	move	zero,zero
    fbd4:	00000021 	move	zero,zero
    fbd8:	3c1269d2 	lui	s2,0x69d2
    fbdc:	36527038 	ori	s2,s2,0x7038
    fbe0:	00000000 	nop
    fbe4:	3c14c7a6 	lui	s4,0xc7a6
    fbe8:	36940e00 	ori	s4,s4,0xe00
    fbec:	16140409 	bne	s0,s4,10c14 <inst_error>
    fbf0:	00000000 	nop
    fbf4:	00000000 	nop
    fbf8:	3c1569d2 	lui	s5,0x69d2
    fbfc:	36b57038 	ori	s5,s5,0x7038
    fc00:	16550404 	bne	s2,s5,10c14 <inst_error>
    fc04:	00000000 	nop
    fc08:	00000000 	nop
    fc0c:	3c0c426e 	lui	t4,0x426e
    fc10:	358ce00a 	ori	t4,t4,0xe00a
    fc14:	3c0dcd7e 	lui	t5,0xcd7e
    fc18:	35addcb0 	ori	t5,t5,0xdcb0
    fc1c:	24100000 	li	s0,0
    fc20:	10000016 	b	fc7c <n30_bne_test+0xfc7c>
    fc24:	24120000 	li	s2,0
    fc28:	00000000 	nop
    fc2c:	3c10426e 	lui	s0,0x426e
    fc30:	15280022 	bne	t1,t0,fcbc <n30_bne_test+0xfcbc>
    fc34:	3610e00a 	ori	s0,s0,0xe00a
    fc38:	10000022 	b	fcc4 <n30_bne_test+0xfcc4>
    fc3c:	00000000 	nop
    fc40:	00000000 	nop
    fc44:	00000021 	move	zero,zero
    fc48:	00000021 	move	zero,zero
    fc4c:	00000021 	move	zero,zero
    fc50:	00000021 	move	zero,zero
    fc54:	00000021 	move	zero,zero
    fc58:	00000021 	move	zero,zero
    fc5c:	00000021 	move	zero,zero
    fc60:	00000021 	move	zero,zero
    fc64:	00000021 	move	zero,zero
    fc68:	00000021 	move	zero,zero
    fc6c:	00000021 	move	zero,zero
    fc70:	00000021 	move	zero,zero
    fc74:	00000021 	move	zero,zero
    fc78:	00000021 	move	zero,zero
    fc7c:	24080000 	li	t0,0
    fc80:	3c098750 	lui	t1,0x8750
    fc84:	3529a8b4 	ori	t1,t1,0xa8b4
    fc88:	1509ffe8 	bne	t0,t1,fc2c <n30_bne_test+0xfc2c>
    fc8c:	00000000 	nop
    fc90:	1000000c 	b	fcc4 <n30_bne_test+0xfcc4>
    fc94:	00000000 	nop
    fc98:	00000000 	nop
    fc9c:	00000021 	move	zero,zero
    fca0:	00000021 	move	zero,zero
    fca4:	00000021 	move	zero,zero
    fca8:	00000021 	move	zero,zero
    fcac:	00000021 	move	zero,zero
    fcb0:	00000021 	move	zero,zero
    fcb4:	00000021 	move	zero,zero
    fcb8:	00000021 	move	zero,zero
    fcbc:	3c12cd7e 	lui	s2,0xcd7e
    fcc0:	3652dcb0 	ori	s2,s2,0xdcb0
    fcc4:	00000000 	nop
    fcc8:	3c14426e 	lui	s4,0x426e
    fccc:	3694e00a 	ori	s4,s4,0xe00a
    fcd0:	161403d0 	bne	s0,s4,10c14 <inst_error>
    fcd4:	00000000 	nop
    fcd8:	00000000 	nop
    fcdc:	3c15cd7e 	lui	s5,0xcd7e
    fce0:	36b5dcb0 	ori	s5,s5,0xdcb0
    fce4:	165503cb 	bne	s2,s5,10c14 <inst_error>
    fce8:	00000000 	nop
    fcec:	00000000 	nop
    fcf0:	3c0cfbb5 	lui	t4,0xfbb5
    fcf4:	358c881b 	ori	t4,t4,0x881b
    fcf8:	3c0db9b9 	lui	t5,0xb9b9
    fcfc:	35adf8e4 	ori	t5,t5,0xf8e4
    fd00:	24100000 	li	s0,0
    fd04:	10000016 	b	fd60 <n30_bne_test+0xfd60>
    fd08:	24120000 	li	s2,0
    fd0c:	00000000 	nop
    fd10:	3c10fbb5 	lui	s0,0xfbb5
    fd14:	15280022 	bne	t1,t0,fda0 <n30_bne_test+0xfda0>
    fd18:	3610881b 	ori	s0,s0,0x881b
    fd1c:	10000022 	b	fda8 <n30_bne_test+0xfda8>
    fd20:	00000000 	nop
    fd24:	00000000 	nop
    fd28:	00000021 	move	zero,zero
    fd2c:	00000021 	move	zero,zero
    fd30:	00000021 	move	zero,zero
    fd34:	00000021 	move	zero,zero
    fd38:	00000021 	move	zero,zero
    fd3c:	00000021 	move	zero,zero
    fd40:	00000021 	move	zero,zero
    fd44:	00000021 	move	zero,zero
    fd48:	00000021 	move	zero,zero
    fd4c:	00000021 	move	zero,zero
    fd50:	00000021 	move	zero,zero
    fd54:	00000021 	move	zero,zero
    fd58:	00000021 	move	zero,zero
    fd5c:	00000021 	move	zero,zero
    fd60:	24080000 	li	t0,0
    fd64:	3c094b45 	lui	t1,0x4b45
    fd68:	35293890 	ori	t1,t1,0x3890
    fd6c:	1509ffe8 	bne	t0,t1,fd10 <n30_bne_test+0xfd10>
    fd70:	00000000 	nop
    fd74:	1000000c 	b	fda8 <n30_bne_test+0xfda8>
    fd78:	00000000 	nop
    fd7c:	00000000 	nop
    fd80:	00000021 	move	zero,zero
    fd84:	00000021 	move	zero,zero
    fd88:	00000021 	move	zero,zero
    fd8c:	00000021 	move	zero,zero
    fd90:	00000021 	move	zero,zero
    fd94:	00000021 	move	zero,zero
    fd98:	00000021 	move	zero,zero
    fd9c:	00000021 	move	zero,zero
    fda0:	3c12b9b9 	lui	s2,0xb9b9
    fda4:	3652f8e4 	ori	s2,s2,0xf8e4
    fda8:	00000000 	nop
    fdac:	3c14fbb5 	lui	s4,0xfbb5
    fdb0:	3694881b 	ori	s4,s4,0x881b
    fdb4:	16140397 	bne	s0,s4,10c14 <inst_error>
    fdb8:	00000000 	nop
    fdbc:	00000000 	nop
    fdc0:	3c15b9b9 	lui	s5,0xb9b9
    fdc4:	36b5f8e4 	ori	s5,s5,0xf8e4
    fdc8:	16550392 	bne	s2,s5,10c14 <inst_error>
    fdcc:	00000000 	nop
    fdd0:	00000000 	nop
    fdd4:	3c0c655a 	lui	t4,0x655a
    fdd8:	358c0c50 	ori	t4,t4,0xc50
    fddc:	3c0d0d3c 	lui	t5,0xd3c
    fde0:	35ad8021 	ori	t5,t5,0x8021
    fde4:	24100000 	li	s0,0
    fde8:	10000016 	b	fe44 <n30_bne_test+0xfe44>
    fdec:	24120000 	li	s2,0
    fdf0:	00000000 	nop
    fdf4:	3c10655a 	lui	s0,0x655a
    fdf8:	15280022 	bne	t1,t0,fe84 <n30_bne_test+0xfe84>
    fdfc:	36100c50 	ori	s0,s0,0xc50
    fe00:	10000022 	b	fe8c <n30_bne_test+0xfe8c>
    fe04:	00000000 	nop
    fe08:	00000000 	nop
    fe0c:	00000021 	move	zero,zero
    fe10:	00000021 	move	zero,zero
    fe14:	00000021 	move	zero,zero
    fe18:	00000021 	move	zero,zero
    fe1c:	00000021 	move	zero,zero
    fe20:	00000021 	move	zero,zero
    fe24:	00000021 	move	zero,zero
    fe28:	00000021 	move	zero,zero
    fe2c:	00000021 	move	zero,zero
    fe30:	00000021 	move	zero,zero
    fe34:	00000021 	move	zero,zero
    fe38:	00000021 	move	zero,zero
    fe3c:	00000021 	move	zero,zero
    fe40:	00000021 	move	zero,zero
    fe44:	24080000 	li	t0,0
    fe48:	3c094a06 	lui	t1,0x4a06
    fe4c:	35292f46 	ori	t1,t1,0x2f46
    fe50:	1509ffe8 	bne	t0,t1,fdf4 <n30_bne_test+0xfdf4>
    fe54:	00000000 	nop
    fe58:	1000000c 	b	fe8c <n30_bne_test+0xfe8c>
    fe5c:	00000000 	nop
    fe60:	00000000 	nop
    fe64:	00000021 	move	zero,zero
    fe68:	00000021 	move	zero,zero
    fe6c:	00000021 	move	zero,zero
    fe70:	00000021 	move	zero,zero
    fe74:	00000021 	move	zero,zero
    fe78:	00000021 	move	zero,zero
    fe7c:	00000021 	move	zero,zero
    fe80:	00000021 	move	zero,zero
    fe84:	3c120d3c 	lui	s2,0xd3c
    fe88:	36528021 	ori	s2,s2,0x8021
    fe8c:	00000000 	nop
    fe90:	3c14655a 	lui	s4,0x655a
    fe94:	36940c50 	ori	s4,s4,0xc50
    fe98:	1614035e 	bne	s0,s4,10c14 <inst_error>
    fe9c:	00000000 	nop
    fea0:	00000000 	nop
    fea4:	3c150d3c 	lui	s5,0xd3c
    fea8:	36b58021 	ori	s5,s5,0x8021
    feac:	16550359 	bne	s2,s5,10c14 <inst_error>
    feb0:	00000000 	nop
    feb4:	00000000 	nop
    feb8:	3c0c29e9 	lui	t4,0x29e9
    febc:	358c3f90 	ori	t4,t4,0x3f90
    fec0:	3c0d0e16 	lui	t5,0xe16
    fec4:	35ade570 	ori	t5,t5,0xe570
    fec8:	24100000 	li	s0,0
    fecc:	10000016 	b	ff28 <n30_bne_test+0xff28>
    fed0:	24120000 	li	s2,0
    fed4:	00000000 	nop
    fed8:	3c1029e9 	lui	s0,0x29e9
    fedc:	15280022 	bne	t1,t0,ff68 <n30_bne_test+0xff68>
    fee0:	36103f90 	ori	s0,s0,0x3f90
    fee4:	10000022 	b	ff70 <n30_bne_test+0xff70>
    fee8:	00000000 	nop
    feec:	00000000 	nop
    fef0:	00000021 	move	zero,zero
    fef4:	00000021 	move	zero,zero
    fef8:	00000021 	move	zero,zero
    fefc:	00000021 	move	zero,zero
    ff00:	00000021 	move	zero,zero
    ff04:	00000021 	move	zero,zero
    ff08:	00000021 	move	zero,zero
    ff0c:	00000021 	move	zero,zero
    ff10:	00000021 	move	zero,zero
    ff14:	00000021 	move	zero,zero
    ff18:	00000021 	move	zero,zero
    ff1c:	00000021 	move	zero,zero
    ff20:	00000021 	move	zero,zero
    ff24:	00000021 	move	zero,zero
    ff28:	24080000 	li	t0,0
    ff2c:	3c094306 	lui	t1,0x4306
    ff30:	3529015f 	ori	t1,t1,0x15f
    ff34:	1509ffe8 	bne	t0,t1,fed8 <n30_bne_test+0xfed8>
    ff38:	00000000 	nop
    ff3c:	1000000c 	b	ff70 <n30_bne_test+0xff70>
    ff40:	00000000 	nop
    ff44:	00000000 	nop
    ff48:	00000021 	move	zero,zero
    ff4c:	00000021 	move	zero,zero
    ff50:	00000021 	move	zero,zero
    ff54:	00000021 	move	zero,zero
    ff58:	00000021 	move	zero,zero
    ff5c:	00000021 	move	zero,zero
    ff60:	00000021 	move	zero,zero
    ff64:	00000021 	move	zero,zero
    ff68:	3c120e16 	lui	s2,0xe16
    ff6c:	3652e570 	ori	s2,s2,0xe570
    ff70:	00000000 	nop
    ff74:	3c1429e9 	lui	s4,0x29e9
    ff78:	36943f90 	ori	s4,s4,0x3f90
    ff7c:	16140325 	bne	s0,s4,10c14 <inst_error>
    ff80:	00000000 	nop
    ff84:	00000000 	nop
    ff88:	3c150e16 	lui	s5,0xe16
    ff8c:	36b5e570 	ori	s5,s5,0xe570
    ff90:	16550320 	bne	s2,s5,10c14 <inst_error>
    ff94:	00000000 	nop
    ff98:	00000000 	nop
    ff9c:	3c0ce01d 	lui	t4,0xe01d
    ffa0:	358c2d1c 	ori	t4,t4,0x2d1c
    ffa4:	3c0d7d71 	lui	t5,0x7d71
    ffa8:	35ada040 	ori	t5,t5,0xa040
    ffac:	24100000 	li	s0,0
    ffb0:	10000016 	b	1000c <n30_bne_test+0x1000c>
    ffb4:	24120000 	li	s2,0
    ffb8:	00000000 	nop
    ffbc:	3c10e01d 	lui	s0,0xe01d
    ffc0:	15280022 	bne	t1,t0,1004c <n30_bne_test+0x1004c>
    ffc4:	36102d1c 	ori	s0,s0,0x2d1c
    ffc8:	10000022 	b	10054 <n30_bne_test+0x10054>
    ffcc:	00000000 	nop
    ffd0:	00000000 	nop
    ffd4:	00000021 	move	zero,zero
    ffd8:	00000021 	move	zero,zero
    ffdc:	00000021 	move	zero,zero
    ffe0:	00000021 	move	zero,zero
    ffe4:	00000021 	move	zero,zero
    ffe8:	00000021 	move	zero,zero
    ffec:	00000021 	move	zero,zero
    fff0:	00000021 	move	zero,zero
    fff4:	00000021 	move	zero,zero
    fff8:	00000021 	move	zero,zero
    fffc:	00000021 	move	zero,zero
   10000:	00000021 	move	zero,zero
   10004:	00000021 	move	zero,zero
   10008:	00000021 	move	zero,zero
   1000c:	24080000 	li	t0,0
   10010:	3c09438b 	lui	t1,0x438b
   10014:	35292180 	ori	t1,t1,0x2180
   10018:	1509ffe8 	bne	t0,t1,ffbc <n30_bne_test+0xffbc>
   1001c:	00000000 	nop
   10020:	1000000c 	b	10054 <n30_bne_test+0x10054>
   10024:	00000000 	nop
   10028:	00000000 	nop
   1002c:	00000021 	move	zero,zero
   10030:	00000021 	move	zero,zero
   10034:	00000021 	move	zero,zero
   10038:	00000021 	move	zero,zero
   1003c:	00000021 	move	zero,zero
   10040:	00000021 	move	zero,zero
   10044:	00000021 	move	zero,zero
   10048:	00000021 	move	zero,zero
   1004c:	3c127d71 	lui	s2,0x7d71
   10050:	3652a040 	ori	s2,s2,0xa040
   10054:	00000000 	nop
   10058:	3c14e01d 	lui	s4,0xe01d
   1005c:	36942d1c 	ori	s4,s4,0x2d1c
   10060:	161402ec 	bne	s0,s4,10c14 <inst_error>
   10064:	00000000 	nop
   10068:	00000000 	nop
   1006c:	3c157d71 	lui	s5,0x7d71
   10070:	36b5a040 	ori	s5,s5,0xa040
   10074:	165502e7 	bne	s2,s5,10c14 <inst_error>
   10078:	00000000 	nop
   1007c:	00000000 	nop
   10080:	3c0c0834 	lui	t4,0x834
   10084:	358ccc10 	ori	t4,t4,0xcc10
   10088:	3c0d1ca2 	lui	t5,0x1ca2
   1008c:	35ad6760 	ori	t5,t5,0x6760
   10090:	24100000 	li	s0,0
   10094:	10000016 	b	100f0 <n30_bne_test+0x100f0>
   10098:	24120000 	li	s2,0
   1009c:	00000000 	nop
   100a0:	3c100834 	lui	s0,0x834
   100a4:	15280022 	bne	t1,t0,10130 <n30_bne_test+0x10130>
   100a8:	3610cc10 	ori	s0,s0,0xcc10
   100ac:	10000022 	b	10138 <n30_bne_test+0x10138>
   100b0:	00000000 	nop
   100b4:	00000000 	nop
   100b8:	00000021 	move	zero,zero
   100bc:	00000021 	move	zero,zero
   100c0:	00000021 	move	zero,zero
   100c4:	00000021 	move	zero,zero
   100c8:	00000021 	move	zero,zero
   100cc:	00000021 	move	zero,zero
   100d0:	00000021 	move	zero,zero
   100d4:	00000021 	move	zero,zero
   100d8:	00000021 	move	zero,zero
   100dc:	00000021 	move	zero,zero
   100e0:	00000021 	move	zero,zero
   100e4:	00000021 	move	zero,zero
   100e8:	00000021 	move	zero,zero
   100ec:	00000021 	move	zero,zero
   100f0:	24080000 	li	t0,0
   100f4:	3c094bec 	lui	t1,0x4bec
   100f8:	3529a0d0 	ori	t1,t1,0xa0d0
   100fc:	1509ffe8 	bne	t0,t1,100a0 <n30_bne_test+0x100a0>
   10100:	00000000 	nop
   10104:	1000000c 	b	10138 <n30_bne_test+0x10138>
   10108:	00000000 	nop
   1010c:	00000000 	nop
   10110:	00000021 	move	zero,zero
   10114:	00000021 	move	zero,zero
   10118:	00000021 	move	zero,zero
   1011c:	00000021 	move	zero,zero
   10120:	00000021 	move	zero,zero
   10124:	00000021 	move	zero,zero
   10128:	00000021 	move	zero,zero
   1012c:	00000021 	move	zero,zero
   10130:	3c121ca2 	lui	s2,0x1ca2
   10134:	36526760 	ori	s2,s2,0x6760
   10138:	00000000 	nop
   1013c:	3c140834 	lui	s4,0x834
   10140:	3694cc10 	ori	s4,s4,0xcc10
   10144:	161402b3 	bne	s0,s4,10c14 <inst_error>
   10148:	00000000 	nop
   1014c:	00000000 	nop
   10150:	3c151ca2 	lui	s5,0x1ca2
   10154:	36b56760 	ori	s5,s5,0x6760
   10158:	165502ae 	bne	s2,s5,10c14 <inst_error>
   1015c:	00000000 	nop
   10160:	00000000 	nop
   10164:	3c0c1fbf 	lui	t4,0x1fbf
   10168:	358c88ce 	ori	t4,t4,0x88ce
   1016c:	3c0d0062 	lui	t5,0x62
   10170:	35adf672 	ori	t5,t5,0xf672
   10174:	24100000 	li	s0,0
   10178:	10000016 	b	101d4 <n30_bne_test+0x101d4>
   1017c:	24120000 	li	s2,0
   10180:	00000000 	nop
   10184:	3c101fbf 	lui	s0,0x1fbf
   10188:	15280022 	bne	t1,t0,10214 <n30_bne_test+0x10214>
   1018c:	361088ce 	ori	s0,s0,0x88ce
   10190:	10000022 	b	1021c <n30_bne_test+0x1021c>
   10194:	00000000 	nop
   10198:	00000000 	nop
   1019c:	00000021 	move	zero,zero
   101a0:	00000021 	move	zero,zero
   101a4:	00000021 	move	zero,zero
   101a8:	00000021 	move	zero,zero
   101ac:	00000021 	move	zero,zero
   101b0:	00000021 	move	zero,zero
   101b4:	00000021 	move	zero,zero
   101b8:	00000021 	move	zero,zero
   101bc:	00000021 	move	zero,zero
   101c0:	00000021 	move	zero,zero
   101c4:	00000021 	move	zero,zero
   101c8:	00000021 	move	zero,zero
   101cc:	00000021 	move	zero,zero
   101d0:	00000021 	move	zero,zero
   101d4:	24080000 	li	t0,0
   101d8:	3c094d4e 	lui	t1,0x4d4e
   101dc:	3529f93a 	ori	t1,t1,0xf93a
   101e0:	1509ffe8 	bne	t0,t1,10184 <n30_bne_test+0x10184>
   101e4:	00000000 	nop
   101e8:	1000000c 	b	1021c <n30_bne_test+0x1021c>
   101ec:	00000000 	nop
   101f0:	00000000 	nop
   101f4:	00000021 	move	zero,zero
   101f8:	00000021 	move	zero,zero
   101fc:	00000021 	move	zero,zero
   10200:	00000021 	move	zero,zero
   10204:	00000021 	move	zero,zero
   10208:	00000021 	move	zero,zero
   1020c:	00000021 	move	zero,zero
   10210:	00000021 	move	zero,zero
   10214:	3c120062 	lui	s2,0x62
   10218:	3652f672 	ori	s2,s2,0xf672
   1021c:	00000000 	nop
   10220:	3c141fbf 	lui	s4,0x1fbf
   10224:	369488ce 	ori	s4,s4,0x88ce
   10228:	1614027a 	bne	s0,s4,10c14 <inst_error>
   1022c:	00000000 	nop
   10230:	00000000 	nop
   10234:	3c150062 	lui	s5,0x62
   10238:	36b5f672 	ori	s5,s5,0xf672
   1023c:	16550275 	bne	s2,s5,10c14 <inst_error>
   10240:	00000000 	nop
   10244:	00000000 	nop
   10248:	3c0cf451 	lui	t4,0xf451
   1024c:	358c0894 	ori	t4,t4,0x894
   10250:	3c0d90a8 	lui	t5,0x90a8
   10254:	35ad1418 	ori	t5,t5,0x1418
   10258:	24100000 	li	s0,0
   1025c:	10000016 	b	102b8 <n30_bne_test+0x102b8>
   10260:	24120000 	li	s2,0
   10264:	00000000 	nop
   10268:	3c10f451 	lui	s0,0xf451
   1026c:	15280022 	bne	t1,t0,102f8 <n30_bne_test+0x102f8>
   10270:	36100894 	ori	s0,s0,0x894
   10274:	10000022 	b	10300 <n30_bne_test+0x10300>
   10278:	00000000 	nop
   1027c:	00000000 	nop
   10280:	00000021 	move	zero,zero
   10284:	00000021 	move	zero,zero
   10288:	00000021 	move	zero,zero
   1028c:	00000021 	move	zero,zero
   10290:	00000021 	move	zero,zero
   10294:	00000021 	move	zero,zero
   10298:	00000021 	move	zero,zero
   1029c:	00000021 	move	zero,zero
   102a0:	00000021 	move	zero,zero
   102a4:	00000021 	move	zero,zero
   102a8:	00000021 	move	zero,zero
   102ac:	00000021 	move	zero,zero
   102b0:	00000021 	move	zero,zero
   102b4:	00000021 	move	zero,zero
   102b8:	24080000 	li	t0,0
   102bc:	3c091fb5 	lui	t1,0x1fb5
   102c0:	35294c54 	ori	t1,t1,0x4c54
   102c4:	1509ffe8 	bne	t0,t1,10268 <n30_bne_test+0x10268>
   102c8:	00000000 	nop
   102cc:	1000000c 	b	10300 <n30_bne_test+0x10300>
   102d0:	00000000 	nop
   102d4:	00000000 	nop
   102d8:	00000021 	move	zero,zero
   102dc:	00000021 	move	zero,zero
   102e0:	00000021 	move	zero,zero
   102e4:	00000021 	move	zero,zero
   102e8:	00000021 	move	zero,zero
   102ec:	00000021 	move	zero,zero
   102f0:	00000021 	move	zero,zero
   102f4:	00000021 	move	zero,zero
   102f8:	3c1290a8 	lui	s2,0x90a8
   102fc:	36521418 	ori	s2,s2,0x1418
   10300:	00000000 	nop
   10304:	3c14f451 	lui	s4,0xf451
   10308:	36940894 	ori	s4,s4,0x894
   1030c:	16140241 	bne	s0,s4,10c14 <inst_error>
   10310:	00000000 	nop
   10314:	00000000 	nop
   10318:	3c1590a8 	lui	s5,0x90a8
   1031c:	36b51418 	ori	s5,s5,0x1418
   10320:	1655023c 	bne	s2,s5,10c14 <inst_error>
   10324:	00000000 	nop
   10328:	00000000 	nop
   1032c:	3c0ca55e 	lui	t4,0xa55e
   10330:	358c3a99 	ori	t4,t4,0x3a99
   10334:	3c0da457 	lui	t5,0xa457
   10338:	35addfb0 	ori	t5,t5,0xdfb0
   1033c:	24100000 	li	s0,0
   10340:	10000016 	b	1039c <n30_bne_test+0x1039c>
   10344:	24120000 	li	s2,0
   10348:	00000000 	nop
   1034c:	3c10a55e 	lui	s0,0xa55e
   10350:	15280022 	bne	t1,t0,103dc <n30_bne_test+0x103dc>
   10354:	36103a99 	ori	s0,s0,0x3a99
   10358:	10000022 	b	103e4 <n30_bne_test+0x103e4>
   1035c:	00000000 	nop
   10360:	00000000 	nop
   10364:	00000021 	move	zero,zero
   10368:	00000021 	move	zero,zero
   1036c:	00000021 	move	zero,zero
   10370:	00000021 	move	zero,zero
   10374:	00000021 	move	zero,zero
   10378:	00000021 	move	zero,zero
   1037c:	00000021 	move	zero,zero
   10380:	00000021 	move	zero,zero
   10384:	00000021 	move	zero,zero
   10388:	00000021 	move	zero,zero
   1038c:	00000021 	move	zero,zero
   10390:	00000021 	move	zero,zero
   10394:	00000021 	move	zero,zero
   10398:	00000021 	move	zero,zero
   1039c:	24080000 	li	t0,0
   103a0:	3c095ae1 	lui	t1,0x5ae1
   103a4:	3529c10a 	ori	t1,t1,0xc10a
   103a8:	1509ffe8 	bne	t0,t1,1034c <n30_bne_test+0x1034c>
   103ac:	00000000 	nop
   103b0:	1000000c 	b	103e4 <n30_bne_test+0x103e4>
   103b4:	00000000 	nop
   103b8:	00000000 	nop
   103bc:	00000021 	move	zero,zero
   103c0:	00000021 	move	zero,zero
   103c4:	00000021 	move	zero,zero
   103c8:	00000021 	move	zero,zero
   103cc:	00000021 	move	zero,zero
   103d0:	00000021 	move	zero,zero
   103d4:	00000021 	move	zero,zero
   103d8:	00000021 	move	zero,zero
   103dc:	3c12a457 	lui	s2,0xa457
   103e0:	3652dfb0 	ori	s2,s2,0xdfb0
   103e4:	00000000 	nop
   103e8:	3c14a55e 	lui	s4,0xa55e
   103ec:	36943a99 	ori	s4,s4,0x3a99
   103f0:	16140208 	bne	s0,s4,10c14 <inst_error>
   103f4:	00000000 	nop
   103f8:	00000000 	nop
   103fc:	3c15a457 	lui	s5,0xa457
   10400:	36b5dfb0 	ori	s5,s5,0xdfb0
   10404:	16550203 	bne	s2,s5,10c14 <inst_error>
   10408:	00000000 	nop
   1040c:	00000000 	nop
   10410:	3c0c445b 	lui	t4,0x445b
   10414:	358c8590 	ori	t4,t4,0x8590
   10418:	3c0d252b 	lui	t5,0x252b
   1041c:	35adf044 	ori	t5,t5,0xf044
   10420:	24100000 	li	s0,0
   10424:	10000016 	b	10480 <n30_bne_test+0x10480>
   10428:	24120000 	li	s2,0
   1042c:	00000000 	nop
   10430:	3c10445b 	lui	s0,0x445b
   10434:	15280022 	bne	t1,t0,104c0 <n30_bne_test+0x104c0>
   10438:	36108590 	ori	s0,s0,0x8590
   1043c:	10000022 	b	104c8 <n30_bne_test+0x104c8>
   10440:	00000000 	nop
   10444:	00000000 	nop
   10448:	00000021 	move	zero,zero
   1044c:	00000021 	move	zero,zero
   10450:	00000021 	move	zero,zero
   10454:	00000021 	move	zero,zero
   10458:	00000021 	move	zero,zero
   1045c:	00000021 	move	zero,zero
   10460:	00000021 	move	zero,zero
   10464:	00000021 	move	zero,zero
   10468:	00000021 	move	zero,zero
   1046c:	00000021 	move	zero,zero
   10470:	00000021 	move	zero,zero
   10474:	00000021 	move	zero,zero
   10478:	00000021 	move	zero,zero
   1047c:	00000021 	move	zero,zero
   10480:	24080000 	li	t0,0
   10484:	3c09e39c 	lui	t1,0xe39c
   10488:	352965e3 	ori	t1,t1,0x65e3
   1048c:	1509ffe8 	bne	t0,t1,10430 <n30_bne_test+0x10430>
   10490:	00000000 	nop
   10494:	1000000c 	b	104c8 <n30_bne_test+0x104c8>
   10498:	00000000 	nop
   1049c:	00000000 	nop
   104a0:	00000021 	move	zero,zero
   104a4:	00000021 	move	zero,zero
   104a8:	00000021 	move	zero,zero
   104ac:	00000021 	move	zero,zero
   104b0:	00000021 	move	zero,zero
   104b4:	00000021 	move	zero,zero
   104b8:	00000021 	move	zero,zero
   104bc:	00000021 	move	zero,zero
   104c0:	3c12252b 	lui	s2,0x252b
   104c4:	3652f044 	ori	s2,s2,0xf044
   104c8:	00000000 	nop
   104cc:	3c14445b 	lui	s4,0x445b
   104d0:	36948590 	ori	s4,s4,0x8590
   104d4:	161401cf 	bne	s0,s4,10c14 <inst_error>
   104d8:	00000000 	nop
   104dc:	00000000 	nop
   104e0:	3c15252b 	lui	s5,0x252b
   104e4:	36b5f044 	ori	s5,s5,0xf044
   104e8:	165501ca 	bne	s2,s5,10c14 <inst_error>
   104ec:	00000000 	nop
   104f0:	00000000 	nop
   104f4:	3c0c3cf2 	lui	t4,0x3cf2
   104f8:	358ca6f6 	ori	t4,t4,0xa6f6
   104fc:	3c0de505 	lui	t5,0xe505
   10500:	35ad0db0 	ori	t5,t5,0xdb0
   10504:	24100000 	li	s0,0
   10508:	10000016 	b	10564 <n30_bne_test+0x10564>
   1050c:	24120000 	li	s2,0
   10510:	00000000 	nop
   10514:	3c103cf2 	lui	s0,0x3cf2
   10518:	15280022 	bne	t1,t0,105a4 <n30_bne_test+0x105a4>
   1051c:	3610a6f6 	ori	s0,s0,0xa6f6
   10520:	10000022 	b	105ac <n30_bne_test+0x105ac>
   10524:	00000000 	nop
   10528:	00000000 	nop
   1052c:	00000021 	move	zero,zero
   10530:	00000021 	move	zero,zero
   10534:	00000021 	move	zero,zero
   10538:	00000021 	move	zero,zero
   1053c:	00000021 	move	zero,zero
   10540:	00000021 	move	zero,zero
   10544:	00000021 	move	zero,zero
   10548:	00000021 	move	zero,zero
   1054c:	00000021 	move	zero,zero
   10550:	00000021 	move	zero,zero
   10554:	00000021 	move	zero,zero
   10558:	00000021 	move	zero,zero
   1055c:	00000021 	move	zero,zero
   10560:	00000021 	move	zero,zero
   10564:	24080000 	li	t0,0
   10568:	3c0971cf 	lui	t1,0x71cf
   1056c:	35292d6a 	ori	t1,t1,0x2d6a
   10570:	1509ffe8 	bne	t0,t1,10514 <n30_bne_test+0x10514>
   10574:	00000000 	nop
   10578:	1000000c 	b	105ac <n30_bne_test+0x105ac>
   1057c:	00000000 	nop
   10580:	00000000 	nop
   10584:	00000021 	move	zero,zero
   10588:	00000021 	move	zero,zero
   1058c:	00000021 	move	zero,zero
   10590:	00000021 	move	zero,zero
   10594:	00000021 	move	zero,zero
   10598:	00000021 	move	zero,zero
   1059c:	00000021 	move	zero,zero
   105a0:	00000021 	move	zero,zero
   105a4:	3c12e505 	lui	s2,0xe505
   105a8:	36520db0 	ori	s2,s2,0xdb0
   105ac:	00000000 	nop
   105b0:	3c143cf2 	lui	s4,0x3cf2
   105b4:	3694a6f6 	ori	s4,s4,0xa6f6
   105b8:	16140196 	bne	s0,s4,10c14 <inst_error>
   105bc:	00000000 	nop
   105c0:	00000000 	nop
   105c4:	3c15e505 	lui	s5,0xe505
   105c8:	36b50db0 	ori	s5,s5,0xdb0
   105cc:	16550191 	bne	s2,s5,10c14 <inst_error>
   105d0:	00000000 	nop
   105d4:	00000000 	nop
   105d8:	3c0cdb56 	lui	t4,0xdb56
   105dc:	358cb7a8 	ori	t4,t4,0xb7a8
   105e0:	3c0d49b2 	lui	t5,0x49b2
   105e4:	35ad11f0 	ori	t5,t5,0x11f0
   105e8:	24100000 	li	s0,0
   105ec:	10000016 	b	10648 <n30_bne_test+0x10648>
   105f0:	24120000 	li	s2,0
   105f4:	00000000 	nop
   105f8:	3c10db56 	lui	s0,0xdb56
   105fc:	15280022 	bne	t1,t0,10688 <n30_bne_test+0x10688>
   10600:	3610b7a8 	ori	s0,s0,0xb7a8
   10604:	10000022 	b	10690 <n30_bne_test+0x10690>
   10608:	00000000 	nop
   1060c:	00000000 	nop
   10610:	00000021 	move	zero,zero
   10614:	00000021 	move	zero,zero
   10618:	00000021 	move	zero,zero
   1061c:	00000021 	move	zero,zero
   10620:	00000021 	move	zero,zero
   10624:	00000021 	move	zero,zero
   10628:	00000021 	move	zero,zero
   1062c:	00000021 	move	zero,zero
   10630:	00000021 	move	zero,zero
   10634:	00000021 	move	zero,zero
   10638:	00000021 	move	zero,zero
   1063c:	00000021 	move	zero,zero
   10640:	00000021 	move	zero,zero
   10644:	00000021 	move	zero,zero
   10648:	24080000 	li	t0,0
   1064c:	3c091530 	lui	t1,0x1530
   10650:	3529a956 	ori	t1,t1,0xa956
   10654:	1509ffe8 	bne	t0,t1,105f8 <n30_bne_test+0x105f8>
   10658:	00000000 	nop
   1065c:	1000000c 	b	10690 <n30_bne_test+0x10690>
   10660:	00000000 	nop
   10664:	00000000 	nop
   10668:	00000021 	move	zero,zero
   1066c:	00000021 	move	zero,zero
   10670:	00000021 	move	zero,zero
   10674:	00000021 	move	zero,zero
   10678:	00000021 	move	zero,zero
   1067c:	00000021 	move	zero,zero
   10680:	00000021 	move	zero,zero
   10684:	00000021 	move	zero,zero
   10688:	3c1249b2 	lui	s2,0x49b2
   1068c:	365211f0 	ori	s2,s2,0x11f0
   10690:	00000000 	nop
   10694:	3c14db56 	lui	s4,0xdb56
   10698:	3694b7a8 	ori	s4,s4,0xb7a8
   1069c:	1614015d 	bne	s0,s4,10c14 <inst_error>
   106a0:	00000000 	nop
   106a4:	00000000 	nop
   106a8:	3c1549b2 	lui	s5,0x49b2
   106ac:	36b511f0 	ori	s5,s5,0x11f0
   106b0:	16550158 	bne	s2,s5,10c14 <inst_error>
   106b4:	00000000 	nop
   106b8:	00000000 	nop
   106bc:	3c0c38ab 	lui	t4,0x38ab
   106c0:	358cc364 	ori	t4,t4,0xc364
   106c4:	3c0da774 	lui	t5,0xa774
   106c8:	35ada135 	ori	t5,t5,0xa135
   106cc:	24100000 	li	s0,0
   106d0:	10000016 	b	1072c <n30_bne_test+0x1072c>
   106d4:	24120000 	li	s2,0
   106d8:	00000000 	nop
   106dc:	3c1038ab 	lui	s0,0x38ab
   106e0:	15280022 	bne	t1,t0,1076c <n30_bne_test+0x1076c>
   106e4:	3610c364 	ori	s0,s0,0xc364
   106e8:	10000022 	b	10774 <n30_bne_test+0x10774>
   106ec:	00000000 	nop
   106f0:	00000000 	nop
   106f4:	00000021 	move	zero,zero
   106f8:	00000021 	move	zero,zero
   106fc:	00000021 	move	zero,zero
   10700:	00000021 	move	zero,zero
   10704:	00000021 	move	zero,zero
   10708:	00000021 	move	zero,zero
   1070c:	00000021 	move	zero,zero
   10710:	00000021 	move	zero,zero
   10714:	00000021 	move	zero,zero
   10718:	00000021 	move	zero,zero
   1071c:	00000021 	move	zero,zero
   10720:	00000021 	move	zero,zero
   10724:	00000021 	move	zero,zero
   10728:	00000021 	move	zero,zero
   1072c:	24080000 	li	t0,0
   10730:	3c09e343 	lui	t1,0xe343
   10734:	352917f6 	ori	t1,t1,0x17f6
   10738:	1509ffe8 	bne	t0,t1,106dc <n30_bne_test+0x106dc>
   1073c:	00000000 	nop
   10740:	1000000c 	b	10774 <n30_bne_test+0x10774>
   10744:	00000000 	nop
   10748:	00000000 	nop
   1074c:	00000021 	move	zero,zero
   10750:	00000021 	move	zero,zero
   10754:	00000021 	move	zero,zero
   10758:	00000021 	move	zero,zero
   1075c:	00000021 	move	zero,zero
   10760:	00000021 	move	zero,zero
   10764:	00000021 	move	zero,zero
   10768:	00000021 	move	zero,zero
   1076c:	3c12a774 	lui	s2,0xa774
   10770:	3652a135 	ori	s2,s2,0xa135
   10774:	00000000 	nop
   10778:	3c1438ab 	lui	s4,0x38ab
   1077c:	3694c364 	ori	s4,s4,0xc364
   10780:	16140124 	bne	s0,s4,10c14 <inst_error>
   10784:	00000000 	nop
   10788:	00000000 	nop
   1078c:	3c15a774 	lui	s5,0xa774
   10790:	36b5a135 	ori	s5,s5,0xa135
   10794:	1655011f 	bne	s2,s5,10c14 <inst_error>
   10798:	00000000 	nop
   1079c:	00000000 	nop
   107a0:	3c0cb27b 	lui	t4,0xb27b
   107a4:	358cd70c 	ori	t4,t4,0xd70c
   107a8:	3c0db672 	lui	t5,0xb672
   107ac:	35adede0 	ori	t5,t5,0xede0
   107b0:	24100000 	li	s0,0
   107b4:	10000016 	b	10810 <n30_bne_test+0x10810>
   107b8:	24120000 	li	s2,0
   107bc:	00000000 	nop
   107c0:	3c10b27b 	lui	s0,0xb27b
   107c4:	15280022 	bne	t1,t0,10850 <n30_bne_test+0x10850>
   107c8:	3610d70c 	ori	s0,s0,0xd70c
   107cc:	10000022 	b	10858 <n30_bne_test+0x10858>
   107d0:	00000000 	nop
   107d4:	00000000 	nop
   107d8:	00000021 	move	zero,zero
   107dc:	00000021 	move	zero,zero
   107e0:	00000021 	move	zero,zero
   107e4:	00000021 	move	zero,zero
   107e8:	00000021 	move	zero,zero
   107ec:	00000021 	move	zero,zero
   107f0:	00000021 	move	zero,zero
   107f4:	00000021 	move	zero,zero
   107f8:	00000021 	move	zero,zero
   107fc:	00000021 	move	zero,zero
   10800:	00000021 	move	zero,zero
   10804:	00000021 	move	zero,zero
   10808:	00000021 	move	zero,zero
   1080c:	00000021 	move	zero,zero
   10810:	24080000 	li	t0,0
   10814:	3c0915c9 	lui	t1,0x15c9
   10818:	35291782 	ori	t1,t1,0x1782
   1081c:	1509ffe8 	bne	t0,t1,107c0 <n30_bne_test+0x107c0>
   10820:	00000000 	nop
   10824:	1000000c 	b	10858 <n30_bne_test+0x10858>
   10828:	00000000 	nop
   1082c:	00000000 	nop
   10830:	00000021 	move	zero,zero
   10834:	00000021 	move	zero,zero
   10838:	00000021 	move	zero,zero
   1083c:	00000021 	move	zero,zero
   10840:	00000021 	move	zero,zero
   10844:	00000021 	move	zero,zero
   10848:	00000021 	move	zero,zero
   1084c:	00000021 	move	zero,zero
   10850:	3c12b672 	lui	s2,0xb672
   10854:	3652ede0 	ori	s2,s2,0xede0
   10858:	00000000 	nop
   1085c:	3c14b27b 	lui	s4,0xb27b
   10860:	3694d70c 	ori	s4,s4,0xd70c
   10864:	161400eb 	bne	s0,s4,10c14 <inst_error>
   10868:	00000000 	nop
   1086c:	00000000 	nop
   10870:	3c15b672 	lui	s5,0xb672
   10874:	36b5ede0 	ori	s5,s5,0xede0
   10878:	165500e6 	bne	s2,s5,10c14 <inst_error>
   1087c:	00000000 	nop
   10880:	00000000 	nop
   10884:	3c0cace0 	lui	t4,0xace0
   10888:	358c6e98 	ori	t4,t4,0x6e98
   1088c:	3c0df6c1 	lui	t5,0xf6c1
   10890:	35ad3268 	ori	t5,t5,0x3268
   10894:	24100000 	li	s0,0
   10898:	10000016 	b	108f4 <n30_bne_test+0x108f4>
   1089c:	24120000 	li	s2,0
   108a0:	00000000 	nop
   108a4:	3c10ace0 	lui	s0,0xace0
   108a8:	15280022 	bne	t1,t0,10934 <n30_bne_test+0x10934>
   108ac:	36106e98 	ori	s0,s0,0x6e98
   108b0:	10000022 	b	1093c <n30_bne_test+0x1093c>
   108b4:	00000000 	nop
   108b8:	00000000 	nop
   108bc:	00000021 	move	zero,zero
   108c0:	00000021 	move	zero,zero
   108c4:	00000021 	move	zero,zero
   108c8:	00000021 	move	zero,zero
   108cc:	00000021 	move	zero,zero
   108d0:	00000021 	move	zero,zero
   108d4:	00000021 	move	zero,zero
   108d8:	00000021 	move	zero,zero
   108dc:	00000021 	move	zero,zero
   108e0:	00000021 	move	zero,zero
   108e4:	00000021 	move	zero,zero
   108e8:	00000021 	move	zero,zero
   108ec:	00000021 	move	zero,zero
   108f0:	00000021 	move	zero,zero
   108f4:	24080000 	li	t0,0
   108f8:	3c09774a 	lui	t1,0x774a
   108fc:	3529b6a0 	ori	t1,t1,0xb6a0
   10900:	1509ffe8 	bne	t0,t1,108a4 <n30_bne_test+0x108a4>
   10904:	00000000 	nop
   10908:	1000000c 	b	1093c <n30_bne_test+0x1093c>
   1090c:	00000000 	nop
   10910:	00000000 	nop
   10914:	00000021 	move	zero,zero
   10918:	00000021 	move	zero,zero
   1091c:	00000021 	move	zero,zero
   10920:	00000021 	move	zero,zero
   10924:	00000021 	move	zero,zero
   10928:	00000021 	move	zero,zero
   1092c:	00000021 	move	zero,zero
   10930:	00000021 	move	zero,zero
   10934:	3c12f6c1 	lui	s2,0xf6c1
   10938:	36523268 	ori	s2,s2,0x3268
   1093c:	00000000 	nop
   10940:	3c14ace0 	lui	s4,0xace0
   10944:	36946e98 	ori	s4,s4,0x6e98
   10948:	161400b2 	bne	s0,s4,10c14 <inst_error>
   1094c:	00000000 	nop
   10950:	00000000 	nop
   10954:	3c15f6c1 	lui	s5,0xf6c1
   10958:	36b53268 	ori	s5,s5,0x3268
   1095c:	165500ad 	bne	s2,s5,10c14 <inst_error>
   10960:	00000000 	nop
   10964:	00000000 	nop
   10968:	3c0c6ea3 	lui	t4,0x6ea3
   1096c:	358c6e38 	ori	t4,t4,0x6e38
   10970:	3c0d6d81 	lui	t5,0x6d81
   10974:	35adb001 	ori	t5,t5,0xb001
   10978:	24100000 	li	s0,0
   1097c:	10000016 	b	109d8 <n30_bne_test+0x109d8>
   10980:	24120000 	li	s2,0
   10984:	00000000 	nop
   10988:	3c106ea3 	lui	s0,0x6ea3
   1098c:	15280022 	bne	t1,t0,10a18 <n30_bne_test+0x10a18>
   10990:	36106e38 	ori	s0,s0,0x6e38
   10994:	10000022 	b	10a20 <n30_bne_test+0x10a20>
   10998:	00000000 	nop
   1099c:	00000000 	nop
   109a0:	00000021 	move	zero,zero
   109a4:	00000021 	move	zero,zero
   109a8:	00000021 	move	zero,zero
   109ac:	00000021 	move	zero,zero
   109b0:	00000021 	move	zero,zero
   109b4:	00000021 	move	zero,zero
   109b8:	00000021 	move	zero,zero
   109bc:	00000021 	move	zero,zero
   109c0:	00000021 	move	zero,zero
   109c4:	00000021 	move	zero,zero
   109c8:	00000021 	move	zero,zero
   109cc:	00000021 	move	zero,zero
   109d0:	00000021 	move	zero,zero
   109d4:	00000021 	move	zero,zero
   109d8:	24080000 	li	t0,0
   109dc:	3c095dfc 	lui	t1,0x5dfc
   109e0:	35296230 	ori	t1,t1,0x6230
   109e4:	1509ffe8 	bne	t0,t1,10988 <n30_bne_test+0x10988>
   109e8:	00000000 	nop
   109ec:	1000000c 	b	10a20 <n30_bne_test+0x10a20>
   109f0:	00000000 	nop
   109f4:	00000000 	nop
   109f8:	00000021 	move	zero,zero
   109fc:	00000021 	move	zero,zero
   10a00:	00000021 	move	zero,zero
   10a04:	00000021 	move	zero,zero
   10a08:	00000021 	move	zero,zero
   10a0c:	00000021 	move	zero,zero
   10a10:	00000021 	move	zero,zero
   10a14:	00000021 	move	zero,zero
   10a18:	3c126d81 	lui	s2,0x6d81
   10a1c:	3652b001 	ori	s2,s2,0xb001
   10a20:	00000000 	nop
   10a24:	3c146ea3 	lui	s4,0x6ea3
   10a28:	36946e38 	ori	s4,s4,0x6e38
   10a2c:	16140079 	bne	s0,s4,10c14 <inst_error>
   10a30:	00000000 	nop
   10a34:	00000000 	nop
   10a38:	3c156d81 	lui	s5,0x6d81
   10a3c:	36b5b001 	ori	s5,s5,0xb001
   10a40:	16550074 	bne	s2,s5,10c14 <inst_error>
   10a44:	00000000 	nop
   10a48:	00000000 	nop
   10a4c:	3c0c931c 	lui	t4,0x931c
   10a50:	358c23ac 	ori	t4,t4,0x23ac
   10a54:	3c0df917 	lui	t5,0xf917
   10a58:	35ad267c 	ori	t5,t5,0x267c
   10a5c:	24100000 	li	s0,0
   10a60:	10000016 	b	10abc <n30_bne_test+0x10abc>
   10a64:	24120000 	li	s2,0
   10a68:	00000000 	nop
   10a6c:	3c10931c 	lui	s0,0x931c
   10a70:	15280022 	bne	t1,t0,10afc <n30_bne_test+0x10afc>
   10a74:	361023ac 	ori	s0,s0,0x23ac
   10a78:	10000022 	b	10b04 <n30_bne_test+0x10b04>
   10a7c:	00000000 	nop
   10a80:	00000000 	nop
   10a84:	00000021 	move	zero,zero
   10a88:	00000021 	move	zero,zero
   10a8c:	00000021 	move	zero,zero
   10a90:	00000021 	move	zero,zero
   10a94:	00000021 	move	zero,zero
   10a98:	00000021 	move	zero,zero
   10a9c:	00000021 	move	zero,zero
   10aa0:	00000021 	move	zero,zero
   10aa4:	00000021 	move	zero,zero
   10aa8:	00000021 	move	zero,zero
   10aac:	00000021 	move	zero,zero
   10ab0:	00000021 	move	zero,zero
   10ab4:	00000021 	move	zero,zero
   10ab8:	00000021 	move	zero,zero
   10abc:	24080000 	li	t0,0
   10ac0:	3c090edc 	lui	t1,0xedc
   10ac4:	3529b298 	ori	t1,t1,0xb298
   10ac8:	1509ffe8 	bne	t0,t1,10a6c <n30_bne_test+0x10a6c>
   10acc:	00000000 	nop
   10ad0:	1000000c 	b	10b04 <n30_bne_test+0x10b04>
   10ad4:	00000000 	nop
   10ad8:	00000000 	nop
   10adc:	00000021 	move	zero,zero
   10ae0:	00000021 	move	zero,zero
   10ae4:	00000021 	move	zero,zero
   10ae8:	00000021 	move	zero,zero
   10aec:	00000021 	move	zero,zero
   10af0:	00000021 	move	zero,zero
   10af4:	00000021 	move	zero,zero
   10af8:	00000021 	move	zero,zero
   10afc:	3c12f917 	lui	s2,0xf917
   10b00:	3652267c 	ori	s2,s2,0x267c
   10b04:	00000000 	nop
   10b08:	3c14931c 	lui	s4,0x931c
   10b0c:	369423ac 	ori	s4,s4,0x23ac
   10b10:	16140040 	bne	s0,s4,10c14 <inst_error>
   10b14:	00000000 	nop
   10b18:	00000000 	nop
   10b1c:	3c15f917 	lui	s5,0xf917
   10b20:	36b5267c 	ori	s5,s5,0x267c
   10b24:	1655003b 	bne	s2,s5,10c14 <inst_error>
   10b28:	00000000 	nop
   10b2c:	00000000 	nop
   10b30:	3c0c1744 	lui	t4,0x1744
   10b34:	358c192c 	ori	t4,t4,0x192c
   10b38:	3c0d0b48 	lui	t5,0xb48
   10b3c:	35adf1f0 	ori	t5,t5,0xf1f0
   10b40:	24100000 	li	s0,0
   10b44:	10000016 	b	10ba0 <n30_bne_test+0x10ba0>
   10b48:	24120000 	li	s2,0
   10b4c:	00000000 	nop
   10b50:	3c101744 	lui	s0,0x1744
   10b54:	15280021 	bne	t1,t0,10bdc <n30_bne_test+0x10bdc>
   10b58:	3610192c 	ori	s0,s0,0x192c
   10b5c:	10000021 	b	10be4 <n30_bne_test+0x10be4>
   10b60:	00000000 	nop
   10b64:	00000000 	nop
   10b68:	00000021 	move	zero,zero
   10b6c:	00000021 	move	zero,zero
   10b70:	00000021 	move	zero,zero
   10b74:	00000021 	move	zero,zero
   10b78:	00000021 	move	zero,zero
   10b7c:	00000021 	move	zero,zero
   10b80:	00000021 	move	zero,zero
   10b84:	00000021 	move	zero,zero
   10b88:	00000021 	move	zero,zero
   10b8c:	00000021 	move	zero,zero
   10b90:	00000021 	move	zero,zero
   10b94:	00000021 	move	zero,zero
   10b98:	00000021 	move	zero,zero
   10b9c:	00000021 	move	zero,zero
   10ba0:	24080000 	li	t0,0
   10ba4:	24090000 	li	t1,0
   10ba8:	1509ffe9 	bne	t0,t1,10b50 <n30_bne_test+0x10b50>
   10bac:	00000000 	nop
   10bb0:	1000000c 	b	10be4 <n30_bne_test+0x10be4>
   10bb4:	00000000 	nop
   10bb8:	00000000 	nop
   10bbc:	00000021 	move	zero,zero
   10bc0:	00000021 	move	zero,zero
   10bc4:	00000021 	move	zero,zero
   10bc8:	00000021 	move	zero,zero
   10bcc:	00000021 	move	zero,zero
   10bd0:	00000021 	move	zero,zero
   10bd4:	00000021 	move	zero,zero
   10bd8:	00000021 	move	zero,zero
   10bdc:	3c120b48 	lui	s2,0xb48
   10be0:	3652f1f0 	ori	s2,s2,0xf1f0
   10be4:	00000000 	nop
   10be8:	24140000 	li	s4,0
   10bec:	16140009 	bne	s0,s4,10c14 <inst_error>
   10bf0:	00000000 	nop
   10bf4:	00000000 	nop
   10bf8:	24150000 	li	s5,0
   10bfc:	16550005 	bne	s2,s5,10c14 <inst_error>
   10c00:	00000000 	nop
   10c04:	14400003 	bnez	v0,10c14 <inst_error>
   10c08:	00000000 	nop
   10c0c:	00000000 	nop
   10c10:	26730001 	addiu	s3,s3,1

00010c14 <inst_error>:
   10c14:	00934025 	or	t0,a0,s3
   10c18:	03e00008 	jr	ra
   10c1c:	ae280000 	sw	t0,0(s1)
