       0:	3c041f00 	lui	a0,0x1f00		a0 = 1f000000
       4:	24020000 	li	v0,0
       8:	3c0cbe6e 	lui	t4,0xbe6e
       c:	358c1670 	ori	t4,t4,0x1670		t4 = 167028b8
      10:	3c0d28b8 	lui	t5,0x28b8
      14:	35ad50c0 	ori	t5,t5,0x50c0		t5 = 28b850c0
      18:	24100000 	li	s0,0
      1c:	1000000e 	b	58 <n31_bgez_test+0x58>
      20:	24120000 	li	s2,0			s2 = 0
      24:	00000000 	nop
      28:	3c10be6e 	lui	s0,0xbe6e			
      2c:	05010012 	bgez	t0,78 <n31_bgez_test+0x78>	
      30:	36101670 	ori	s0,s0,0x1670			//s0 = be6e1670 第二次
      34:	10000012 	b	80 <n31_bgez_test+0x80>
      38:	00000000 	nop
      3c:	00000000 	nop
      40:	00000021 	move	zero,zero
      44:	00000021 	move	zero,zero
      48:	00000021 	move	zero,zero
      4c:	00000021 	move	zero,zero
      50:	00000021 	move	zero,zero
      54:	00000021 	move	zero,zero
      58:	3c08dd4f 	lui	t0,0xdd4f
      5c:	35081370 	ori	t0,t0,0x1370		t0 = dd4f1370   1101 1101 0100 1111 0001 0011 0111 0000
      60:	0501fff1 	bgez	t0,28 <n31_bgez_test+0x28>
      64:	00000000 	nop
      68:	10000005 	b	80 <n31_bgez_test+0x80>
      6c:	00000000 	nop
      70:	00000000 	nop
      74:	00000021 	move	zero,zero
      78:	3c1228b8 	lui	s2,0x28b8
      7c:	365250c0 	ori	s2,s2,0x50c0	s2 = 28b850c0
      80:	00000000 	nop
      84:	24140000 	li	s4,0
      88:	16141f3c 	bne	s0,s4,7d7c <inst_error>		跳到最后错误了
      8c:	00000000 	nop
      90:	00000000 	nop
      94:	24150000 	li	s5,0
      98:	16551f38 	bne	s2,s5,7d7c <inst_error>
      9c:	00000000 	nop
      a0:	00000000 	nop
      a4:	3c0cbcb4 	lui	t4,0xbcb4
      a8:	358cd170 	ori	t4,t4,0xd170
      ac:	3c0d913c 	lui	t5,0x913c
      b0:	35ad46ad 	ori	t5,t5,0x46ad
      b4:	24100000 	li	s0,0
      b8:	1000000e 	b	f4 <n31_bgez_test+0xf4>
      bc:	24120000 	li	s2,0
      c0:	00000000 	nop
      c4:	3c10bcb4 	lui	s0,0xbcb4
      c8:	05010012 	bgez	t0,114 <n31_bgez_test+0x114>
      cc:	3610d170 	ori	s0,s0,0xd170
      d0:	10000012 	b	11c <n31_bgez_test+0x11c>
      d4:	00000000 	nop
      d8:	00000000 	nop
      dc:	00000021 	move	zero,zero
      e0:	00000021 	move	zero,zero
      e4:	00000021 	move	zero,zero
      e8:	00000021 	move	zero,zero
      ec:	00000021 	move	zero,zero
      f0:	00000021 	move	zero,zero
      f4:	3c089bc5 	lui	t0,0x9bc5
      f8:	350852e0 	ori	t0,t0,0x52e0
      fc:	0501fff1 	bgez	t0,c4 <n31_bgez_test+0xc4>
     100:	00000000 	nop
     104:	10000005 	b	11c <n31_bgez_test+0x11c>
     108:	00000000 	nop
     10c:	00000000 	nop
     110:	00000021 	move	zero,zero
     114:	3c12913c 	lui	s2,0x913c
     118:	365246ad 	ori	s2,s2,0x46ad
     11c:	00000000 	nop
     120:	24140000 	li	s4,0
     124:	16141f15 	bne	s0,s4,7d7c <inst_error>
     128:	00000000 	nop
     12c:	00000000 	nop
     130:	24150000 	li	s5,0
     134:	16551f11 	bne	s2,s5,7d7c <inst_error>
     138:	00000000 	nop
     13c:	00000000 	nop
     140:	3c0c36ee 	lui	t4,0x36ee
     144:	358ce270 	ori	t4,t4,0xe270
     148:	3c0daacb 	lui	t5,0xaacb
     14c:	35adfa12 	ori	t5,t5,0xfa12
     150:	24100000 	li	s0,0
     154:	1000000e 	b	190 <n31_bgez_test+0x190>
     158:	24120000 	li	s2,0
     15c:	00000000 	nop
     160:	3c1036ee 	lui	s0,0x36ee
     164:	05010012 	bgez	t0,1b0 <n31_bgez_test+0x1b0>
     168:	3610e270 	ori	s0,s0,0xe270
     16c:	10000012 	b	1b8 <n31_bgez_test+0x1b8>
     170:	00000000 	nop
     174:	00000000 	nop
     178:	00000021 	move	zero,zero
     17c:	00000021 	move	zero,zero
     180:	00000021 	move	zero,zero
     184:	00000021 	move	zero,zero
     188:	00000021 	move	zero,zero
     18c:	00000021 	move	zero,zero
     190:	3c0892f2 	lui	t0,0x92f2
     194:	35088a6a 	ori	t0,t0,0x8a6a
     198:	0501fff1 	bgez	t0,160 <n31_bgez_test+0x160>
     19c:	00000000 	nop
     1a0:	10000005 	b	1b8 <n31_bgez_test+0x1b8>
     1a4:	00000000 	nop
     1a8:	00000000 	nop
     1ac:	00000021 	move	zero,zero
     1b0:	3c12aacb 	lui	s2,0xaacb
     1b4:	3652fa12 	ori	s2,s2,0xfa12
     1b8:	00000000 	nop
     1bc:	24140000 	li	s4,0
     1c0:	16141eee 	bne	s0,s4,7d7c <inst_error>
     1c4:	00000000 	nop
     1c8:	00000000 	nop
     1cc:	24150000 	li	s5,0
     1d0:	16551eea 	bne	s2,s5,7d7c <inst_error>
     1d4:	00000000 	nop
     1d8:	00000000 	nop
     1dc:	3c0c1b22 	lui	t4,0x1b22
     1e0:	358cd200 	ori	t4,t4,0xd200
     1e4:	3c0d19b3 	lui	t5,0x19b3
     1e8:	35adf80a 	ori	t5,t5,0xf80a
     1ec:	24100000 	li	s0,0
     1f0:	1000000e 	b	22c <n31_bgez_test+0x22c>
     1f4:	24120000 	li	s2,0
     1f8:	00000000 	nop
     1fc:	3c101b22 	lui	s0,0x1b22
     200:	05010012 	bgez	t0,24c <n31_bgez_test+0x24c>
     204:	3610d200 	ori	s0,s0,0xd200
     208:	10000012 	b	254 <n31_bgez_test+0x254>
     20c:	00000000 	nop
     210:	00000000 	nop
     214:	00000021 	move	zero,zero
     218:	00000021 	move	zero,zero
     21c:	00000021 	move	zero,zero
     220:	00000021 	move	zero,zero
     224:	00000021 	move	zero,zero
     228:	00000021 	move	zero,zero
     22c:	3c08d39a 	lui	t0,0xd39a
     230:	35086be2 	ori	t0,t0,0x6be2
     234:	0501fff1 	bgez	t0,1fc <n31_bgez_test+0x1fc>
     238:	00000000 	nop
     23c:	10000005 	b	254 <n31_bgez_test+0x254>
     240:	00000000 	nop
     244:	00000000 	nop
     248:	00000021 	move	zero,zero
     24c:	3c1219b3 	lui	s2,0x19b3
     250:	3652f80a 	ori	s2,s2,0xf80a
     254:	00000000 	nop
     258:	24140000 	li	s4,0
     25c:	16141ec7 	bne	s0,s4,7d7c <inst_error>
     260:	00000000 	nop
     264:	00000000 	nop
     268:	24150000 	li	s5,0
     26c:	16551ec3 	bne	s2,s5,7d7c <inst_error>
     270:	00000000 	nop
     274:	00000000 	nop
     278:	3c0c1b15 	lui	t4,0x1b15
     27c:	358c1f5e 	ori	t4,t4,0x1f5e
     280:	3c0d0e69 	lui	t5,0xe69
     284:	35ad29ba 	ori	t5,t5,0x29ba
     288:	24100000 	li	s0,0
     28c:	1000000e 	b	2c8 <n31_bgez_test+0x2c8>
     290:	24120000 	li	s2,0
     294:	00000000 	nop
     298:	3c101b15 	lui	s0,0x1b15
     29c:	05010012 	bgez	t0,2e8 <n31_bgez_test+0x2e8>
     2a0:	36101f5e 	ori	s0,s0,0x1f5e
     2a4:	10000012 	b	2f0 <n31_bgez_test+0x2f0>
     2a8:	00000000 	nop
     2ac:	00000000 	nop
     2b0:	00000021 	move	zero,zero
     2b4:	00000021 	move	zero,zero
     2b8:	00000021 	move	zero,zero
     2bc:	00000021 	move	zero,zero
     2c0:	00000021 	move	zero,zero
     2c4:	00000021 	move	zero,zero
     2c8:	3c08bb00 	lui	t0,0xbb00
     2cc:	3508130a 	ori	t0,t0,0x130a
     2d0:	0501fff1 	bgez	t0,298 <n31_bgez_test+0x298>
     2d4:	00000000 	nop
     2d8:	10000005 	b	2f0 <n31_bgez_test+0x2f0>
     2dc:	00000000 	nop
     2e0:	00000000 	nop
     2e4:	00000021 	move	zero,zero
     2e8:	3c120e69 	lui	s2,0xe69
     2ec:	365229ba 	ori	s2,s2,0x29ba
     2f0:	00000000 	nop
     2f4:	24140000 	li	s4,0
     2f8:	16141ea0 	bne	s0,s4,7d7c <inst_error>
     2fc:	00000000 	nop
     300:	00000000 	nop
     304:	24150000 	li	s5,0
     308:	16551e9c 	bne	s2,s5,7d7c <inst_error>
     30c:	00000000 	nop
     310:	00000000 	nop
     314:	3c0c4020 	lui	t4,0x4020
     318:	358cbf52 	ori	t4,t4,0xbf52
     31c:	3c0d4efb 	lui	t5,0x4efb
     320:	35ad06d3 	ori	t5,t5,0x6d3
     324:	24100000 	li	s0,0
     328:	1000000e 	b	364 <n31_bgez_test+0x364>
     32c:	24120000 	li	s2,0
     330:	00000000 	nop
     334:	3c104020 	lui	s0,0x4020
     338:	05010012 	bgez	t0,384 <n31_bgez_test+0x384>
     33c:	3610bf52 	ori	s0,s0,0xbf52
     340:	10000012 	b	38c <n31_bgez_test+0x38c>
     344:	00000000 	nop
     348:	00000000 	nop
     34c:	00000021 	move	zero,zero
     350:	00000021 	move	zero,zero
     354:	00000021 	move	zero,zero
     358:	00000021 	move	zero,zero
     35c:	00000021 	move	zero,zero
     360:	00000021 	move	zero,zero
     364:	3c0844f2 	lui	t0,0x44f2
     368:	3508bff4 	ori	t0,t0,0xbff4
     36c:	0501fff1 	bgez	t0,334 <n31_bgez_test+0x334>
     370:	00000000 	nop
     374:	10000005 	b	38c <n31_bgez_test+0x38c>
     378:	00000000 	nop
     37c:	00000000 	nop
     380:	00000021 	move	zero,zero
     384:	3c124efb 	lui	s2,0x4efb
     388:	365206d3 	ori	s2,s2,0x6d3
     38c:	00000000 	nop
     390:	3c144020 	lui	s4,0x4020		 
     394:	3694bf52 	ori	s4,s4,0xbf52			s4 = 4020bf52
     398:	16141e78 	bne	s0,s4,7d7c <inst_error>
     39c:	00000000 	nop
     3a0:	00000000 	nop
     3a4:	3c154efb 	lui	s5,0x4efb		
     3a8:	36b506d3 	ori	s5,s5,0x6d3			s5 = 4efb06d3
     3ac:	16551e73 	bne	s2,s5,7d7c <inst_error>
     3b0:	00000000 	nop
     3b4:	00000000 	nop
     3b8:	3c0c99b6 	lui	t4,0x99b6
     3bc:	358c73c4 	ori	t4,t4,0x73c4
     3c0:	3c0d8f4f 	lui	t5,0x8f4f
     3c4:	35ada720 	ori	t5,t5,0xa720
     3c8:	24100000 	li	s0,0
     3cc:	1000000e 	b	408 <n31_bgez_test+0x408>
     3d0:	24120000 	li	s2,0
     3d4:	00000000 	nop
     3d8:	3c1099b6 	lui	s0,0x99b6
     3dc:	05010012 	bgez	t0,428 <n31_bgez_test+0x428>
     3e0:	361073c4 	ori	s0,s0,0x73c4
     3e4:	10000012 	b	430 <n31_bgez_test+0x430>
     3e8:	00000000 	nop
     3ec:	00000000 	nop
     3f0:	00000021 	move	zero,zero
     3f4:	00000021 	move	zero,zero
     3f8:	00000021 	move	zero,zero
     3fc:	00000021 	move	zero,zero
     400:	00000021 	move	zero,zero
     404:	00000021 	move	zero,zero
     408:	3c086524 	lui	t0,0x6524
     40c:	35082740 	ori	t0,t0,0x2740
     410:	0501fff1 	bgez	t0,3d8 <n31_bgez_test+0x3d8>
     414:	00000000 	nop
     418:	10000005 	b	430 <n31_bgez_test+0x430>
     41c:	00000000 	nop
     420:	00000000 	nop
     424:	00000021 	move	zero,zero
     428:	3c128f4f 	lui	s2,0x8f4f
     42c:	3652a720 	ori	s2,s2,0xa720
     430:	00000000 	nop
     434:	3c1499b6 	lui	s4,0x99b6
     438:	369473c4 	ori	s4,s4,0x73c4
     43c:	16141e4f 	bne	s0,s4,7d7c <inst_error>
     440:	00000000 	nop
     444:	00000000 	nop
     448:	3c158f4f 	lui	s5,0x8f4f
     44c:	36b5a720 	ori	s5,s5,0xa720
     450:	16551e4a 	bne	s2,s5,7d7c <inst_error>
     454:	00000000 	nop
     458:	00000000 	nop
     45c:	3c0c920d 	lui	t4,0x920d
     460:	358cfadc 	ori	t4,t4,0xfadc
     464:	3c0d0604 	lui	t5,0x604
     468:	35ad3543 	ori	t5,t5,0x3543
     46c:	24100000 	li	s0,0
     470:	1000000e 	b	4ac <n31_bgez_test+0x4ac>
     474:	24120000 	li	s2,0
     478:	00000000 	nop
     47c:	3c10920d 	lui	s0,0x920d
     480:	05010012 	bgez	t0,4cc <n31_bgez_test+0x4cc>
     484:	3610fadc 	ori	s0,s0,0xfadc
     488:	10000012 	b	4d4 <n31_bgez_test+0x4d4>
     48c:	00000000 	nop
     490:	00000000 	nop
     494:	00000021 	move	zero,zero
     498:	00000021 	move	zero,zero
     49c:	00000021 	move	zero,zero
     4a0:	00000021 	move	zero,zero
     4a4:	00000021 	move	zero,zero
     4a8:	00000021 	move	zero,zero
     4ac:	3c08d039 	lui	t0,0xd039
     4b0:	35081fa3 	ori	t0,t0,0x1fa3
     4b4:	0501fff1 	bgez	t0,47c <n31_bgez_test+0x47c>
     4b8:	00000000 	nop
     4bc:	10000005 	b	4d4 <n31_bgez_test+0x4d4>
     4c0:	00000000 	nop
     4c4:	00000000 	nop
     4c8:	00000021 	move	zero,zero
     4cc:	3c120604 	lui	s2,0x604
     4d0:	36523543 	ori	s2,s2,0x3543
     4d4:	00000000 	nop
     4d8:	24140000 	li	s4,0
     4dc:	16141e27 	bne	s0,s4,7d7c <inst_error>
     4e0:	00000000 	nop
     4e4:	00000000 	nop
     4e8:	24150000 	li	s5,0
     4ec:	16551e23 	bne	s2,s5,7d7c <inst_error>
     4f0:	00000000 	nop
     4f4:	00000000 	nop
     4f8:	3c0c4382 	lui	t4,0x4382
     4fc:	358cd088 	ori	t4,t4,0xd088
     500:	3c0d7603 	lui	t5,0x7603
     504:	35ad36b0 	ori	t5,t5,0x36b0
     508:	24100000 	li	s0,0
     50c:	1000000e 	b	548 <n31_bgez_test+0x548>
     510:	24120000 	li	s2,0
     514:	00000000 	nop
     518:	3c104382 	lui	s0,0x4382
     51c:	05010012 	bgez	t0,568 <n31_bgez_test+0x568>
     520:	3610d088 	ori	s0,s0,0xd088
     524:	10000012 	b	570 <n31_bgez_test+0x570>
     528:	00000000 	nop
     52c:	00000000 	nop
     530:	00000021 	move	zero,zero
     534:	00000021 	move	zero,zero
     538:	00000021 	move	zero,zero
     53c:	00000021 	move	zero,zero
     540:	00000021 	move	zero,zero
     544:	00000021 	move	zero,zero
     548:	3c085e84 	lui	t0,0x5e84
     54c:	3508a770 	ori	t0,t0,0xa770
     550:	0501fff1 	bgez	t0,518 <n31_bgez_test+0x518>
     554:	00000000 	nop
     558:	10000005 	b	570 <n31_bgez_test+0x570>
     55c:	00000000 	nop
     560:	00000000 	nop
     564:	00000021 	move	zero,zero
     568:	3c127603 	lui	s2,0x7603
     56c:	365236b0 	ori	s2,s2,0x36b0
     570:	00000000 	nop
     574:	3c144382 	lui	s4,0x4382
     578:	3694d088 	ori	s4,s4,0xd088
     57c:	16141dff 	bne	s0,s4,7d7c <inst_error>
     580:	00000000 	nop
     584:	00000000 	nop
     588:	3c157603 	lui	s5,0x7603
     58c:	36b536b0 	ori	s5,s5,0x36b0
     590:	16551dfa 	bne	s2,s5,7d7c <inst_error>
     594:	00000000 	nop
     598:	00000000 	nop
     59c:	3c0c8d08 	lui	t4,0x8d08
     5a0:	358cc888 	ori	t4,t4,0xc888
     5a4:	3c0dc0af 	lui	t5,0xc0af
     5a8:	35ad38c7 	ori	t5,t5,0x38c7
     5ac:	24100000 	li	s0,0
     5b0:	1000000e 	b	5ec <n31_bgez_test+0x5ec>
     5b4:	24120000 	li	s2,0
     5b8:	00000000 	nop
     5bc:	3c108d08 	lui	s0,0x8d08
     5c0:	05010012 	bgez	t0,60c <n31_bgez_test+0x60c>
     5c4:	3610c888 	ori	s0,s0,0xc888
     5c8:	10000012 	b	614 <n31_bgez_test+0x614>
     5cc:	00000000 	nop
     5d0:	00000000 	nop
     5d4:	00000021 	move	zero,zero
     5d8:	00000021 	move	zero,zero
     5dc:	00000021 	move	zero,zero
     5e0:	00000021 	move	zero,zero
     5e4:	00000021 	move	zero,zero
     5e8:	00000021 	move	zero,zero
     5ec:	3c08a0f5 	lui	t0,0xa0f5
     5f0:	35086986 	ori	t0,t0,0x6986
     5f4:	0501fff1 	bgez	t0,5bc <n31_bgez_test+0x5bc>
     5f8:	00000000 	nop
     5fc:	10000005 	b	614 <n31_bgez_test+0x614>
     600:	00000000 	nop
     604:	00000000 	nop
     608:	00000021 	move	zero,zero
     60c:	3c12c0af 	lui	s2,0xc0af
     610:	365238c7 	ori	s2,s2,0x38c7
     614:	00000000 	nop
     618:	24140000 	li	s4,0
     61c:	16141dd7 	bne	s0,s4,7d7c <inst_error>
     620:	00000000 	nop
     624:	00000000 	nop
     628:	24150000 	li	s5,0
     62c:	16551dd3 	bne	s2,s5,7d7c <inst_error>
     630:	00000000 	nop
     634:	00000000 	nop
     638:	3c0c9cf8 	lui	t4,0x9cf8
     63c:	358c06ca 	ori	t4,t4,0x6ca
     640:	3c0ddd63 	lui	t5,0xdd63
     644:	35adddf6 	ori	t5,t5,0xddf6
     648:	24100000 	li	s0,0
     64c:	1000000e 	b	688 <n31_bgez_test+0x688>
     650:	24120000 	li	s2,0
     654:	00000000 	nop
     658:	3c109cf8 	lui	s0,0x9cf8
     65c:	05010012 	bgez	t0,6a8 <n31_bgez_test+0x6a8>
     660:	361006ca 	ori	s0,s0,0x6ca
     664:	10000012 	b	6b0 <n31_bgez_test+0x6b0>
     668:	00000000 	nop
     66c:	00000000 	nop
     670:	00000021 	move	zero,zero
     674:	00000021 	move	zero,zero
     678:	00000021 	move	zero,zero
     67c:	00000021 	move	zero,zero
     680:	00000021 	move	zero,zero
     684:	00000021 	move	zero,zero
     688:	3c085480 	lui	t0,0x5480
     68c:	350846c0 	ori	t0,t0,0x46c0
     690:	0501fff1 	bgez	t0,658 <n31_bgez_test+0x658>
     694:	00000000 	nop
     698:	10000005 	b	6b0 <n31_bgez_test+0x6b0>
     69c:	00000000 	nop
     6a0:	00000000 	nop
     6a4:	00000021 	move	zero,zero
     6a8:	3c12dd63 	lui	s2,0xdd63
     6ac:	3652ddf6 	ori	s2,s2,0xddf6
     6b0:	00000000 	nop
     6b4:	3c149cf8 	lui	s4,0x9cf8
     6b8:	369406ca 	ori	s4,s4,0x6ca
     6bc:	16141daf 	bne	s0,s4,7d7c <inst_error>
     6c0:	00000000 	nop
     6c4:	00000000 	nop
     6c8:	3c15dd63 	lui	s5,0xdd63
     6cc:	36b5ddf6 	ori	s5,s5,0xddf6
     6d0:	16551daa 	bne	s2,s5,7d7c <inst_error>
     6d4:	00000000 	nop
     6d8:	00000000 	nop
     6dc:	3c0cf5d9 	lui	t4,0xf5d9
     6e0:	358c6e44 	ori	t4,t4,0x6e44
     6e4:	3c0dfba9 	lui	t5,0xfba9
     6e8:	35ad62f4 	ori	t5,t5,0x62f4
     6ec:	24100000 	li	s0,0
     6f0:	1000000e 	b	72c <n31_bgez_test+0x72c>
     6f4:	24120000 	li	s2,0
     6f8:	00000000 	nop
     6fc:	3c10f5d9 	lui	s0,0xf5d9
     700:	05010012 	bgez	t0,74c <n31_bgez_test+0x74c>
     704:	36106e44 	ori	s0,s0,0x6e44
     708:	10000012 	b	754 <n31_bgez_test+0x754>
     70c:	00000000 	nop
     710:	00000000 	nop
     714:	00000021 	move	zero,zero
     718:	00000021 	move	zero,zero
     71c:	00000021 	move	zero,zero
     720:	00000021 	move	zero,zero
     724:	00000021 	move	zero,zero
     728:	00000021 	move	zero,zero
     72c:	3c0859c1 	lui	t0,0x59c1
     730:	35084180 	ori	t0,t0,0x4180
     734:	0501fff1 	bgez	t0,6fc <n31_bgez_test+0x6fc>
     738:	00000000 	nop
     73c:	10000005 	b	754 <n31_bgez_test+0x754>
     740:	00000000 	nop
     744:	00000000 	nop
     748:	00000021 	move	zero,zero
     74c:	3c12fba9 	lui	s2,0xfba9
     750:	365262f4 	ori	s2,s2,0x62f4
     754:	00000000 	nop
     758:	3c14f5d9 	lui	s4,0xf5d9
     75c:	36946e44 	ori	s4,s4,0x6e44
     760:	16141d86 	bne	s0,s4,7d7c <inst_error>
     764:	00000000 	nop
     768:	00000000 	nop
     76c:	3c15fba9 	lui	s5,0xfba9
     770:	36b562f4 	ori	s5,s5,0x62f4
     774:	16551d81 	bne	s2,s5,7d7c <inst_error>
     778:	00000000 	nop
     77c:	00000000 	nop
     780:	3c0cfadc 	lui	t4,0xfadc
     784:	358c604d 	ori	t4,t4,0x604d
     788:	3c0dd743 	lui	t5,0xd743
     78c:	35ad4d93 	ori	t5,t5,0x4d93
     790:	24100000 	li	s0,0
     794:	1000000e 	b	7d0 <n31_bgez_test+0x7d0>
     798:	24120000 	li	s2,0
     79c:	00000000 	nop
     7a0:	3c10fadc 	lui	s0,0xfadc
     7a4:	05010012 	bgez	t0,7f0 <n31_bgez_test+0x7f0>
     7a8:	3610604d 	ori	s0,s0,0x604d
     7ac:	10000012 	b	7f8 <n31_bgez_test+0x7f8>
     7b0:	00000000 	nop
     7b4:	00000000 	nop
     7b8:	00000021 	move	zero,zero
     7bc:	00000021 	move	zero,zero
     7c0:	00000021 	move	zero,zero
     7c4:	00000021 	move	zero,zero
     7c8:	00000021 	move	zero,zero
     7cc:	00000021 	move	zero,zero
     7d0:	3c08978d 	lui	t0,0x978d
     7d4:	3508eda0 	ori	t0,t0,0xeda0
     7d8:	0501fff1 	bgez	t0,7a0 <n31_bgez_test+0x7a0>
     7dc:	00000000 	nop
     7e0:	10000005 	b	7f8 <n31_bgez_test+0x7f8>
     7e4:	00000000 	nop
     7e8:	00000000 	nop
     7ec:	00000021 	move	zero,zero
     7f0:	3c12d743 	lui	s2,0xd743
     7f4:	36524d93 	ori	s2,s2,0x4d93
     7f8:	00000000 	nop
     7fc:	24140000 	li	s4,0
     800:	16141d5e 	bne	s0,s4,7d7c <inst_error>
     804:	00000000 	nop
     808:	00000000 	nop
     80c:	24150000 	li	s5,0
     810:	16551d5a 	bne	s2,s5,7d7c <inst_error>
     814:	00000000 	nop
     818:	00000000 	nop
     81c:	3c0c3fc4 	lui	t4,0x3fc4
     820:	358cf924 	ori	t4,t4,0xf924
     824:	3c0dadda 	lui	t5,0xadda
     828:	35adcf90 	ori	t5,t5,0xcf90
     82c:	24100000 	li	s0,0
     830:	1000000e 	b	86c <n31_bgez_test+0x86c>
     834:	24120000 	li	s2,0
     838:	00000000 	nop
     83c:	3c103fc4 	lui	s0,0x3fc4
     840:	05010012 	bgez	t0,88c <n31_bgez_test+0x88c>
     844:	3610f924 	ori	s0,s0,0xf924
     848:	10000012 	b	894 <n31_bgez_test+0x894>
     84c:	00000000 	nop
     850:	00000000 	nop
     854:	00000021 	move	zero,zero
     858:	00000021 	move	zero,zero
     85c:	00000021 	move	zero,zero
     860:	00000021 	move	zero,zero
     864:	00000021 	move	zero,zero
     868:	00000021 	move	zero,zero
     86c:	3c089408 	lui	t0,0x9408
     870:	3508bd4f 	ori	t0,t0,0xbd4f
     874:	0501fff1 	bgez	t0,83c <n31_bgez_test+0x83c>
     878:	00000000 	nop
     87c:	10000005 	b	894 <n31_bgez_test+0x894>
     880:	00000000 	nop
     884:	00000000 	nop
     888:	00000021 	move	zero,zero
     88c:	3c12adda 	lui	s2,0xadda
     890:	3652cf90 	ori	s2,s2,0xcf90
     894:	00000000 	nop
     898:	24140000 	li	s4,0
     89c:	16141d37 	bne	s0,s4,7d7c <inst_error>
     8a0:	00000000 	nop
     8a4:	00000000 	nop
     8a8:	24150000 	li	s5,0
     8ac:	16551d33 	bne	s2,s5,7d7c <inst_error>
     8b0:	00000000 	nop
     8b4:	00000000 	nop
     8b8:	3c0c716f 	lui	t4,0x716f
     8bc:	358ce028 	ori	t4,t4,0xe028
     8c0:	3c0dae52 	lui	t5,0xae52
     8c4:	35add592 	ori	t5,t5,0xd592
     8c8:	24100000 	li	s0,0
     8cc:	1000000e 	b	908 <n31_bgez_test+0x908>
     8d0:	24120000 	li	s2,0
     8d4:	00000000 	nop
     8d8:	3c10716f 	lui	s0,0x716f
     8dc:	05010012 	bgez	t0,928 <n31_bgez_test+0x928>
     8e0:	3610e028 	ori	s0,s0,0xe028
     8e4:	10000012 	b	930 <n31_bgez_test+0x930>
     8e8:	00000000 	nop
     8ec:	00000000 	nop
     8f0:	00000021 	move	zero,zero
     8f4:	00000021 	move	zero,zero
     8f8:	00000021 	move	zero,zero
     8fc:	00000021 	move	zero,zero
     900:	00000021 	move	zero,zero
     904:	00000021 	move	zero,zero
     908:	3c08583d 	lui	t0,0x583d
     90c:	35085220 	ori	t0,t0,0x5220
     910:	0501fff1 	bgez	t0,8d8 <n31_bgez_test+0x8d8>
     914:	00000000 	nop
     918:	10000005 	b	930 <n31_bgez_test+0x930>
     91c:	00000000 	nop
     920:	00000000 	nop
     924:	00000021 	move	zero,zero
     928:	3c12ae52 	lui	s2,0xae52
     92c:	3652d592 	ori	s2,s2,0xd592
     930:	00000000 	nop
     934:	3c14716f 	lui	s4,0x716f
     938:	3694e028 	ori	s4,s4,0xe028
     93c:	16141d0f 	bne	s0,s4,7d7c <inst_error>
     940:	00000000 	nop
     944:	00000000 	nop
     948:	3c15ae52 	lui	s5,0xae52
     94c:	36b5d592 	ori	s5,s5,0xd592
     950:	16551d0a 	bne	s2,s5,7d7c <inst_error>
     954:	00000000 	nop
     958:	00000000 	nop
     95c:	3c0c7b68 	lui	t4,0x7b68
     960:	358c4a50 	ori	t4,t4,0x4a50
     964:	3c0d98f0 	lui	t5,0x98f0
     968:	35ad413e 	ori	t5,t5,0x413e
     96c:	24100000 	li	s0,0
     970:	1000000e 	b	9ac <n31_bgez_test+0x9ac>
     974:	24120000 	li	s2,0
     978:	00000000 	nop
     97c:	3c107b68 	lui	s0,0x7b68
     980:	05010012 	bgez	t0,9cc <n31_bgez_test+0x9cc>
     984:	36104a50 	ori	s0,s0,0x4a50
     988:	10000012 	b	9d4 <n31_bgez_test+0x9d4>
     98c:	00000000 	nop
     990:	00000000 	nop
     994:	00000021 	move	zero,zero
     998:	00000021 	move	zero,zero
     99c:	00000021 	move	zero,zero
     9a0:	00000021 	move	zero,zero
     9a4:	00000021 	move	zero,zero
     9a8:	00000021 	move	zero,zero
     9ac:	3c08d4df 	lui	t0,0xd4df
     9b0:	3508993d 	ori	t0,t0,0x993d
     9b4:	0501fff1 	bgez	t0,97c <n31_bgez_test+0x97c>
     9b8:	00000000 	nop
     9bc:	10000005 	b	9d4 <n31_bgez_test+0x9d4>
     9c0:	00000000 	nop
     9c4:	00000000 	nop
     9c8:	00000021 	move	zero,zero
     9cc:	3c1298f0 	lui	s2,0x98f0
     9d0:	3652413e 	ori	s2,s2,0x413e
     9d4:	00000000 	nop
     9d8:	24140000 	li	s4,0
     9dc:	16141ce7 	bne	s0,s4,7d7c <inst_error>
     9e0:	00000000 	nop
     9e4:	00000000 	nop
     9e8:	24150000 	li	s5,0
     9ec:	16551ce3 	bne	s2,s5,7d7c <inst_error>
     9f0:	00000000 	nop
     9f4:	00000000 	nop
     9f8:	3c0cbf3b 	lui	t4,0xbf3b
     9fc:	358c3ff0 	ori	t4,t4,0x3ff0
     a00:	3c0d1be7 	lui	t5,0x1be7
     a04:	35ad0714 	ori	t5,t5,0x714
     a08:	24100000 	li	s0,0
     a0c:	1000000e 	b	a48 <n31_bgez_test+0xa48>
     a10:	24120000 	li	s2,0
     a14:	00000000 	nop
     a18:	3c10bf3b 	lui	s0,0xbf3b
     a1c:	05010012 	bgez	t0,a68 <n31_bgez_test+0xa68>
     a20:	36103ff0 	ori	s0,s0,0x3ff0
     a24:	10000012 	b	a70 <n31_bgez_test+0xa70>
     a28:	00000000 	nop
     a2c:	00000000 	nop
     a30:	00000021 	move	zero,zero
     a34:	00000021 	move	zero,zero
     a38:	00000021 	move	zero,zero
     a3c:	00000021 	move	zero,zero
     a40:	00000021 	move	zero,zero
     a44:	00000021 	move	zero,zero
     a48:	3c08bff0 	lui	t0,0xbff0
     a4c:	350833bc 	ori	t0,t0,0x33bc
     a50:	0501fff1 	bgez	t0,a18 <n31_bgez_test+0xa18>
     a54:	00000000 	nop
     a58:	10000005 	b	a70 <n31_bgez_test+0xa70>
     a5c:	00000000 	nop
     a60:	00000000 	nop
     a64:	00000021 	move	zero,zero
     a68:	3c121be7 	lui	s2,0x1be7
     a6c:	36520714 	ori	s2,s2,0x714
     a70:	00000000 	nop
     a74:	24140000 	li	s4,0
     a78:	16141cc0 	bne	s0,s4,7d7c <inst_error>
     a7c:	00000000 	nop
     a80:	00000000 	nop
     a84:	24150000 	li	s5,0
     a88:	16551cbc 	bne	s2,s5,7d7c <inst_error>
     a8c:	00000000 	nop
     a90:	00000000 	nop
     a94:	3c0c59f1 	lui	t4,0x59f1
     a98:	358cb680 	ori	t4,t4,0xb680
     a9c:	3c0dcf7d 	lui	t5,0xcf7d
     aa0:	35ad68e8 	ori	t5,t5,0x68e8
     aa4:	24100000 	li	s0,0
     aa8:	1000000e 	b	ae4 <n31_bgez_test+0xae4>
     aac:	24120000 	li	s2,0
     ab0:	00000000 	nop
     ab4:	3c1059f1 	lui	s0,0x59f1
     ab8:	05010012 	bgez	t0,b04 <n31_bgez_test+0xb04>
     abc:	3610b680 	ori	s0,s0,0xb680
     ac0:	10000012 	b	b0c <n31_bgez_test+0xb0c>
     ac4:	00000000 	nop
     ac8:	00000000 	nop
     acc:	00000021 	move	zero,zero
     ad0:	00000021 	move	zero,zero
     ad4:	00000021 	move	zero,zero
     ad8:	00000021 	move	zero,zero
     adc:	00000021 	move	zero,zero
     ae0:	00000021 	move	zero,zero
     ae4:	3c084897 	lui	t0,0x4897
     ae8:	350803a0 	ori	t0,t0,0x3a0
     aec:	0501fff1 	bgez	t0,ab4 <n31_bgez_test+0xab4>
     af0:	00000000 	nop
     af4:	10000005 	b	b0c <n31_bgez_test+0xb0c>
     af8:	00000000 	nop
     afc:	00000000 	nop
     b00:	00000021 	move	zero,zero
     b04:	3c12cf7d 	lui	s2,0xcf7d
     b08:	365268e8 	ori	s2,s2,0x68e8
     b0c:	00000000 	nop
     b10:	3c1459f1 	lui	s4,0x59f1
     b14:	3694b680 	ori	s4,s4,0xb680
     b18:	16141c98 	bne	s0,s4,7d7c <inst_error>
     b1c:	00000000 	nop
     b20:	00000000 	nop
     b24:	3c15cf7d 	lui	s5,0xcf7d
     b28:	36b568e8 	ori	s5,s5,0x68e8
     b2c:	16551c93 	bne	s2,s5,7d7c <inst_error>
     b30:	00000000 	nop
     b34:	00000000 	nop
     b38:	3c0cb271 	lui	t4,0xb271
     b3c:	358cc17b 	ori	t4,t4,0xc17b
     b40:	3c0d69da 	lui	t5,0x69da
     b44:	35ad8c8f 	ori	t5,t5,0x8c8f
     b48:	24100000 	li	s0,0
     b4c:	1000000e 	b	b88 <n31_bgez_test+0xb88>
     b50:	24120000 	li	s2,0
     b54:	00000000 	nop
     b58:	3c10b271 	lui	s0,0xb271
     b5c:	05010012 	bgez	t0,ba8 <n31_bgez_test+0xba8>
     b60:	3610c17b 	ori	s0,s0,0xc17b
     b64:	10000012 	b	bb0 <n31_bgez_test+0xbb0>
     b68:	00000000 	nop
     b6c:	00000000 	nop
     b70:	00000021 	move	zero,zero
     b74:	00000021 	move	zero,zero
     b78:	00000021 	move	zero,zero
     b7c:	00000021 	move	zero,zero
     b80:	00000021 	move	zero,zero
     b84:	00000021 	move	zero,zero
     b88:	3c080ccd 	lui	t0,0xccd
     b8c:	35088fca 	ori	t0,t0,0x8fca
     b90:	0501fff1 	bgez	t0,b58 <n31_bgez_test+0xb58>
     b94:	00000000 	nop
     b98:	10000005 	b	bb0 <n31_bgez_test+0xbb0>
     b9c:	00000000 	nop
     ba0:	00000000 	nop
     ba4:	00000021 	move	zero,zero
     ba8:	3c1269da 	lui	s2,0x69da
     bac:	36528c8f 	ori	s2,s2,0x8c8f
     bb0:	00000000 	nop
     bb4:	3c14b271 	lui	s4,0xb271
     bb8:	3694c17b 	ori	s4,s4,0xc17b
     bbc:	16141c6f 	bne	s0,s4,7d7c <inst_error>
     bc0:	00000000 	nop
     bc4:	00000000 	nop
     bc8:	3c1569da 	lui	s5,0x69da
     bcc:	36b58c8f 	ori	s5,s5,0x8c8f
     bd0:	16551c6a 	bne	s2,s5,7d7c <inst_error>
     bd4:	00000000 	nop
     bd8:	00000000 	nop
     bdc:	3c0ced7a 	lui	t4,0xed7a
     be0:	358c7f00 	ori	t4,t4,0x7f00
     be4:	3c0d2088 	lui	t5,0x2088
     be8:	35ada5bc 	ori	t5,t5,0xa5bc
     bec:	24100000 	li	s0,0
     bf0:	1000000e 	b	c2c <n31_bgez_test+0xc2c>
     bf4:	24120000 	li	s2,0
     bf8:	00000000 	nop
     bfc:	3c10ed7a 	lui	s0,0xed7a
     c00:	05010012 	bgez	t0,c4c <n31_bgez_test+0xc4c>
     c04:	36107f00 	ori	s0,s0,0x7f00
     c08:	10000012 	b	c54 <n31_bgez_test+0xc54>
     c0c:	00000000 	nop
     c10:	00000000 	nop
     c14:	00000021 	move	zero,zero
     c18:	00000021 	move	zero,zero
     c1c:	00000021 	move	zero,zero
     c20:	00000021 	move	zero,zero
     c24:	00000021 	move	zero,zero
     c28:	00000021 	move	zero,zero
     c2c:	3c086d83 	lui	t0,0x6d83
     c30:	350839c8 	ori	t0,t0,0x39c8
     c34:	0501fff1 	bgez	t0,bfc <n31_bgez_test+0xbfc>
     c38:	00000000 	nop
     c3c:	10000005 	b	c54 <n31_bgez_test+0xc54>
     c40:	00000000 	nop
     c44:	00000000 	nop
     c48:	00000021 	move	zero,zero
     c4c:	3c122088 	lui	s2,0x2088
     c50:	3652a5bc 	ori	s2,s2,0xa5bc
     c54:	00000000 	nop
     c58:	3c14ed7a 	lui	s4,0xed7a
     c5c:	36947f00 	ori	s4,s4,0x7f00
     c60:	16141c46 	bne	s0,s4,7d7c <inst_error>
     c64:	00000000 	nop
     c68:	00000000 	nop
     c6c:	3c152088 	lui	s5,0x2088
     c70:	36b5a5bc 	ori	s5,s5,0xa5bc
     c74:	16551c41 	bne	s2,s5,7d7c <inst_error>
     c78:	00000000 	nop
     c7c:	00000000 	nop
     c80:	3c0c57b5 	lui	t4,0x57b5
     c84:	358cba68 	ori	t4,t4,0xba68
     c88:	3c0d88d1 	lui	t5,0x88d1
     c8c:	35ad2540 	ori	t5,t5,0x2540
     c90:	24100000 	li	s0,0
     c94:	1000000e 	b	cd0 <n31_bgez_test+0xcd0>
     c98:	24120000 	li	s2,0
     c9c:	00000000 	nop
     ca0:	3c1057b5 	lui	s0,0x57b5
     ca4:	05010012 	bgez	t0,cf0 <n31_bgez_test+0xcf0>
     ca8:	3610ba68 	ori	s0,s0,0xba68
     cac:	10000012 	b	cf8 <n31_bgez_test+0xcf8>
     cb0:	00000000 	nop
     cb4:	00000000 	nop
     cb8:	00000021 	move	zero,zero
     cbc:	00000021 	move	zero,zero
     cc0:	00000021 	move	zero,zero
     cc4:	00000021 	move	zero,zero
     cc8:	00000021 	move	zero,zero
     ccc:	00000021 	move	zero,zero
     cd0:	3c080a38 	lui	t0,0xa38
     cd4:	3508c373 	ori	t0,t0,0xc373
     cd8:	0501fff1 	bgez	t0,ca0 <n31_bgez_test+0xca0>
     cdc:	00000000 	nop
     ce0:	10000005 	b	cf8 <n31_bgez_test+0xcf8>
     ce4:	00000000 	nop
     ce8:	00000000 	nop
     cec:	00000021 	move	zero,zero
     cf0:	3c1288d1 	lui	s2,0x88d1
     cf4:	36522540 	ori	s2,s2,0x2540
     cf8:	00000000 	nop
     cfc:	3c1457b5 	lui	s4,0x57b5
     d00:	3694ba68 	ori	s4,s4,0xba68
     d04:	16141c1d 	bne	s0,s4,7d7c <inst_error>
     d08:	00000000 	nop
     d0c:	00000000 	nop
     d10:	3c1588d1 	lui	s5,0x88d1
     d14:	36b52540 	ori	s5,s5,0x2540
     d18:	16551c18 	bne	s2,s5,7d7c <inst_error>
     d1c:	00000000 	nop
     d20:	00000000 	nop
     d24:	3c0c6891 	lui	t4,0x6891
     d28:	358ca730 	ori	t4,t4,0xa730
     d2c:	3c0d8c8f 	lui	t5,0x8c8f
     d30:	35add1d0 	ori	t5,t5,0xd1d0
     d34:	24100000 	li	s0,0
     d38:	1000000e 	b	d74 <n31_bgez_test+0xd74>
     d3c:	24120000 	li	s2,0
     d40:	00000000 	nop
     d44:	3c106891 	lui	s0,0x6891
     d48:	05010012 	bgez	t0,d94 <n31_bgez_test+0xd94>
     d4c:	3610a730 	ori	s0,s0,0xa730
     d50:	10000012 	b	d9c <n31_bgez_test+0xd9c>
     d54:	00000000 	nop
     d58:	00000000 	nop
     d5c:	00000021 	move	zero,zero
     d60:	00000021 	move	zero,zero
     d64:	00000021 	move	zero,zero
     d68:	00000021 	move	zero,zero
     d6c:	00000021 	move	zero,zero
     d70:	00000021 	move	zero,zero
     d74:	3c08c84c 	lui	t0,0xc84c
     d78:	35089b2e 	ori	t0,t0,0x9b2e
     d7c:	0501fff1 	bgez	t0,d44 <n31_bgez_test+0xd44>
     d80:	00000000 	nop
     d84:	10000005 	b	d9c <n31_bgez_test+0xd9c>
     d88:	00000000 	nop
     d8c:	00000000 	nop
     d90:	00000021 	move	zero,zero
     d94:	3c128c8f 	lui	s2,0x8c8f
     d98:	3652d1d0 	ori	s2,s2,0xd1d0
     d9c:	00000000 	nop
     da0:	24140000 	li	s4,0
     da4:	16141bf5 	bne	s0,s4,7d7c <inst_error>
     da8:	00000000 	nop
     dac:	00000000 	nop
     db0:	24150000 	li	s5,0
     db4:	16551bf1 	bne	s2,s5,7d7c <inst_error>
     db8:	00000000 	nop
     dbc:	00000000 	nop
     dc0:	3c0cdb52 	lui	t4,0xdb52
     dc4:	358c103b 	ori	t4,t4,0x103b
     dc8:	3c0deda6 	lui	t5,0xeda6
     dcc:	35ad1ae8 	ori	t5,t5,0x1ae8
     dd0:	24100000 	li	s0,0
     dd4:	1000000e 	b	e10 <n31_bgez_test+0xe10>
     dd8:	24120000 	li	s2,0
     ddc:	00000000 	nop
     de0:	3c10db52 	lui	s0,0xdb52
     de4:	05010012 	bgez	t0,e30 <n31_bgez_test+0xe30>
     de8:	3610103b 	ori	s0,s0,0x103b
     dec:	10000012 	b	e38 <n31_bgez_test+0xe38>
     df0:	00000000 	nop
     df4:	00000000 	nop
     df8:	00000021 	move	zero,zero
     dfc:	00000021 	move	zero,zero
     e00:	00000021 	move	zero,zero
     e04:	00000021 	move	zero,zero
     e08:	00000021 	move	zero,zero
     e0c:	00000021 	move	zero,zero
     e10:	3c088cf4 	lui	t0,0x8cf4
     e14:	35080c5c 	ori	t0,t0,0xc5c
     e18:	0501fff1 	bgez	t0,de0 <n31_bgez_test+0xde0>
     e1c:	00000000 	nop
     e20:	10000005 	b	e38 <n31_bgez_test+0xe38>
     e24:	00000000 	nop
     e28:	00000000 	nop
     e2c:	00000021 	move	zero,zero
     e30:	3c12eda6 	lui	s2,0xeda6
     e34:	36521ae8 	ori	s2,s2,0x1ae8
     e38:	00000000 	nop
     e3c:	24140000 	li	s4,0
     e40:	16141bce 	bne	s0,s4,7d7c <inst_error>
     e44:	00000000 	nop
     e48:	00000000 	nop
     e4c:	24150000 	li	s5,0
     e50:	16551bca 	bne	s2,s5,7d7c <inst_error>
     e54:	00000000 	nop
     e58:	00000000 	nop
     e5c:	3c0ceb53 	lui	t4,0xeb53
     e60:	358cad80 	ori	t4,t4,0xad80
     e64:	3c0daf8f 	lui	t5,0xaf8f
     e68:	35ad645c 	ori	t5,t5,0x645c
     e6c:	24100000 	li	s0,0
     e70:	1000000e 	b	eac <n31_bgez_test+0xeac>
     e74:	24120000 	li	s2,0
     e78:	00000000 	nop
     e7c:	3c10eb53 	lui	s0,0xeb53
     e80:	05010012 	bgez	t0,ecc <n31_bgez_test+0xecc>
     e84:	3610ad80 	ori	s0,s0,0xad80
     e88:	10000012 	b	ed4 <n31_bgez_test+0xed4>
     e8c:	00000000 	nop
     e90:	00000000 	nop
     e94:	00000021 	move	zero,zero
     e98:	00000021 	move	zero,zero
     e9c:	00000021 	move	zero,zero
     ea0:	00000021 	move	zero,zero
     ea4:	00000021 	move	zero,zero
     ea8:	00000021 	move	zero,zero
     eac:	3c08ba40 	lui	t0,0xba40
     eb0:	35083e48 	ori	t0,t0,0x3e48
     eb4:	0501fff1 	bgez	t0,e7c <n31_bgez_test+0xe7c>
     eb8:	00000000 	nop
     ebc:	10000005 	b	ed4 <n31_bgez_test+0xed4>
     ec0:	00000000 	nop
     ec4:	00000000 	nop
     ec8:	00000021 	move	zero,zero
     ecc:	3c12af8f 	lui	s2,0xaf8f
     ed0:	3652645c 	ori	s2,s2,0x645c
     ed4:	00000000 	nop
     ed8:	24140000 	li	s4,0
     edc:	16141ba7 	bne	s0,s4,7d7c <inst_error>
     ee0:	00000000 	nop
     ee4:	00000000 	nop
     ee8:	24150000 	li	s5,0
     eec:	16551ba3 	bne	s2,s5,7d7c <inst_error>
     ef0:	00000000 	nop
     ef4:	00000000 	nop
     ef8:	3c0c10dd 	lui	t4,0x10dd
     efc:	358c49c8 	ori	t4,t4,0x49c8
     f00:	3c0d3b10 	lui	t5,0x3b10
     f04:	35ad5830 	ori	t5,t5,0x5830
     f08:	24100000 	li	s0,0
     f0c:	1000000e 	b	f48 <n31_bgez_test+0xf48>
     f10:	24120000 	li	s2,0
     f14:	00000000 	nop
     f18:	3c1010dd 	lui	s0,0x10dd
     f1c:	05010012 	bgez	t0,f68 <n31_bgez_test+0xf68>
     f20:	361049c8 	ori	s0,s0,0x49c8
     f24:	10000012 	b	f70 <n31_bgez_test+0xf70>
     f28:	00000000 	nop
     f2c:	00000000 	nop
     f30:	00000021 	move	zero,zero
     f34:	00000021 	move	zero,zero
     f38:	00000021 	move	zero,zero
     f3c:	00000021 	move	zero,zero
     f40:	00000021 	move	zero,zero
     f44:	00000021 	move	zero,zero
     f48:	3c084470 	lui	t0,0x4470
     f4c:	3508f76a 	ori	t0,t0,0xf76a
     f50:	0501fff1 	bgez	t0,f18 <n31_bgez_test+0xf18>
     f54:	00000000 	nop
     f58:	10000005 	b	f70 <n31_bgez_test+0xf70>
     f5c:	00000000 	nop
     f60:	00000000 	nop
     f64:	00000021 	move	zero,zero
     f68:	3c123b10 	lui	s2,0x3b10
     f6c:	36525830 	ori	s2,s2,0x5830
     f70:	00000000 	nop
     f74:	3c1410dd 	lui	s4,0x10dd
     f78:	369449c8 	ori	s4,s4,0x49c8
     f7c:	16141b7f 	bne	s0,s4,7d7c <inst_error>
     f80:	00000000 	nop
     f84:	00000000 	nop
     f88:	3c153b10 	lui	s5,0x3b10
     f8c:	36b55830 	ori	s5,s5,0x5830
     f90:	16551b7a 	bne	s2,s5,7d7c <inst_error>
     f94:	00000000 	nop
     f98:	00000000 	nop
     f9c:	3c0c0264 	lui	t4,0x264
     fa0:	358c00de 	ori	t4,t4,0xde
     fa4:	3c0d9c0d 	lui	t5,0x9c0d
     fa8:	35ad203d 	ori	t5,t5,0x203d
     fac:	24100000 	li	s0,0
     fb0:	1000000e 	b	fec <n31_bgez_test+0xfec>
     fb4:	24120000 	li	s2,0
     fb8:	00000000 	nop
     fbc:	3c100264 	lui	s0,0x264
     fc0:	05010012 	bgez	t0,100c <n31_bgez_test+0x100c>
     fc4:	361000de 	ori	s0,s0,0xde
     fc8:	10000012 	b	1014 <n31_bgez_test+0x1014>
     fcc:	00000000 	nop
     fd0:	00000000 	nop
     fd4:	00000021 	move	zero,zero
     fd8:	00000021 	move	zero,zero
     fdc:	00000021 	move	zero,zero
     fe0:	00000021 	move	zero,zero
     fe4:	00000021 	move	zero,zero
     fe8:	00000021 	move	zero,zero
     fec:	3c080873 	lui	t0,0x873
     ff0:	35085f48 	ori	t0,t0,0x5f48
     ff4:	0501fff1 	bgez	t0,fbc <n31_bgez_test+0xfbc>
     ff8:	00000000 	nop
     ffc:	10000005 	b	1014 <n31_bgez_test+0x1014>
    1000:	00000000 	nop
    1004:	00000000 	nop
    1008:	00000021 	move	zero,zero
    100c:	3c129c0d 	lui	s2,0x9c0d
    1010:	3652203d 	ori	s2,s2,0x203d
    1014:	00000000 	nop
    1018:	3c140264 	lui	s4,0x264
    101c:	369400de 	ori	s4,s4,0xde
    1020:	16141b56 	bne	s0,s4,7d7c <inst_error>
    1024:	00000000 	nop
    1028:	00000000 	nop
    102c:	3c159c0d 	lui	s5,0x9c0d
    1030:	36b5203d 	ori	s5,s5,0x203d
    1034:	16551b51 	bne	s2,s5,7d7c <inst_error>
    1038:	00000000 	nop
    103c:	00000000 	nop
    1040:	3c0c2b64 	lui	t4,0x2b64
    1044:	358c453e 	ori	t4,t4,0x453e
    1048:	3c0d7769 	lui	t5,0x7769
    104c:	35ad1e00 	ori	t5,t5,0x1e00
    1050:	24100000 	li	s0,0
    1054:	1000000e 	b	1090 <n31_bgez_test+0x1090>
    1058:	24120000 	li	s2,0
    105c:	00000000 	nop
    1060:	3c102b64 	lui	s0,0x2b64
    1064:	05010012 	bgez	t0,10b0 <n31_bgez_test+0x10b0>
    1068:	3610453e 	ori	s0,s0,0x453e
    106c:	10000012 	b	10b8 <n31_bgez_test+0x10b8>
    1070:	00000000 	nop
    1074:	00000000 	nop
    1078:	00000021 	move	zero,zero
    107c:	00000021 	move	zero,zero
    1080:	00000021 	move	zero,zero
    1084:	00000021 	move	zero,zero
    1088:	00000021 	move	zero,zero
    108c:	00000021 	move	zero,zero
    1090:	3c08891e 	lui	t0,0x891e
    1094:	3508dab6 	ori	t0,t0,0xdab6
    1098:	0501fff1 	bgez	t0,1060 <n31_bgez_test+0x1060>
    109c:	00000000 	nop
    10a0:	10000005 	b	10b8 <n31_bgez_test+0x10b8>
    10a4:	00000000 	nop
    10a8:	00000000 	nop
    10ac:	00000021 	move	zero,zero
    10b0:	3c127769 	lui	s2,0x7769
    10b4:	36521e00 	ori	s2,s2,0x1e00
    10b8:	00000000 	nop
    10bc:	24140000 	li	s4,0
    10c0:	16141b2e 	bne	s0,s4,7d7c <inst_error>
    10c4:	00000000 	nop
    10c8:	00000000 	nop
    10cc:	24150000 	li	s5,0
    10d0:	16551b2a 	bne	s2,s5,7d7c <inst_error>
    10d4:	00000000 	nop
    10d8:	00000000 	nop
    10dc:	3c0cf91f 	lui	t4,0xf91f
    10e0:	358cf936 	ori	t4,t4,0xf936
    10e4:	3c0d75aa 	lui	t5,0x75aa
    10e8:	35ad4adc 	ori	t5,t5,0x4adc
    10ec:	24100000 	li	s0,0
    10f0:	1000000e 	b	112c <n31_bgez_test+0x112c>
    10f4:	24120000 	li	s2,0
    10f8:	00000000 	nop
    10fc:	3c10f91f 	lui	s0,0xf91f
    1100:	05010012 	bgez	t0,114c <n31_bgez_test+0x114c>
    1104:	3610f936 	ori	s0,s0,0xf936
    1108:	10000012 	b	1154 <n31_bgez_test+0x1154>
    110c:	00000000 	nop
    1110:	00000000 	nop
    1114:	00000021 	move	zero,zero
    1118:	00000021 	move	zero,zero
    111c:	00000021 	move	zero,zero
    1120:	00000021 	move	zero,zero
    1124:	00000021 	move	zero,zero
    1128:	00000021 	move	zero,zero
    112c:	3c08e553 	lui	t0,0xe553
    1130:	35088bea 	ori	t0,t0,0x8bea
    1134:	0501fff1 	bgez	t0,10fc <n31_bgez_test+0x10fc>
    1138:	00000000 	nop
    113c:	10000005 	b	1154 <n31_bgez_test+0x1154>
    1140:	00000000 	nop
    1144:	00000000 	nop
    1148:	00000021 	move	zero,zero
    114c:	3c1275aa 	lui	s2,0x75aa
    1150:	36524adc 	ori	s2,s2,0x4adc
    1154:	00000000 	nop
    1158:	24140000 	li	s4,0
    115c:	16141b07 	bne	s0,s4,7d7c <inst_error>
    1160:	00000000 	nop
    1164:	00000000 	nop
    1168:	24150000 	li	s5,0
    116c:	16551b03 	bne	s2,s5,7d7c <inst_error>
    1170:	00000000 	nop
    1174:	00000000 	nop
    1178:	3c0c49b9 	lui	t4,0x49b9
    117c:	358c7758 	ori	t4,t4,0x7758
    1180:	3c0da2c4 	lui	t5,0xa2c4
    1184:	35ad6df0 	ori	t5,t5,0x6df0
    1188:	24100000 	li	s0,0
    118c:	1000000e 	b	11c8 <n31_bgez_test+0x11c8>
    1190:	24120000 	li	s2,0
    1194:	00000000 	nop
    1198:	3c1049b9 	lui	s0,0x49b9
    119c:	05010012 	bgez	t0,11e8 <n31_bgez_test+0x11e8>
    11a0:	36107758 	ori	s0,s0,0x7758
    11a4:	10000012 	b	11f0 <n31_bgez_test+0x11f0>
    11a8:	00000000 	nop
    11ac:	00000000 	nop
    11b0:	00000021 	move	zero,zero
    11b4:	00000021 	move	zero,zero
    11b8:	00000021 	move	zero,zero
    11bc:	00000021 	move	zero,zero
    11c0:	00000021 	move	zero,zero
    11c4:	00000021 	move	zero,zero
    11c8:	3c08baea 	lui	t0,0xbaea
    11cc:	35088130 	ori	t0,t0,0x8130
    11d0:	0501fff1 	bgez	t0,1198 <n31_bgez_test+0x1198>
    11d4:	00000000 	nop
    11d8:	10000005 	b	11f0 <n31_bgez_test+0x11f0>
    11dc:	00000000 	nop
    11e0:	00000000 	nop
    11e4:	00000021 	move	zero,zero
    11e8:	3c12a2c4 	lui	s2,0xa2c4
    11ec:	36526df0 	ori	s2,s2,0x6df0
    11f0:	00000000 	nop
    11f4:	24140000 	li	s4,0
    11f8:	16141ae0 	bne	s0,s4,7d7c <inst_error>
    11fc:	00000000 	nop
    1200:	00000000 	nop
    1204:	24150000 	li	s5,0
    1208:	16551adc 	bne	s2,s5,7d7c <inst_error>
    120c:	00000000 	nop
    1210:	00000000 	nop
    1214:	3c0c6e66 	lui	t4,0x6e66
    1218:	358c45f7 	ori	t4,t4,0x45f7
    121c:	3c0d27d4 	lui	t5,0x27d4
    1220:	35ad3f6a 	ori	t5,t5,0x3f6a
    1224:	24100000 	li	s0,0
    1228:	1000000e 	b	1264 <n31_bgez_test+0x1264>
    122c:	24120000 	li	s2,0
    1230:	00000000 	nop
    1234:	3c106e66 	lui	s0,0x6e66
    1238:	05010012 	bgez	t0,1284 <n31_bgez_test+0x1284>
    123c:	361045f7 	ori	s0,s0,0x45f7
    1240:	10000012 	b	128c <n31_bgez_test+0x128c>
    1244:	00000000 	nop
    1248:	00000000 	nop
    124c:	00000021 	move	zero,zero
    1250:	00000021 	move	zero,zero
    1254:	00000021 	move	zero,zero
    1258:	00000021 	move	zero,zero
    125c:	00000021 	move	zero,zero
    1260:	00000021 	move	zero,zero
    1264:	3c089f2a 	lui	t0,0x9f2a
    1268:	3508fd80 	ori	t0,t0,0xfd80
    126c:	0501fff1 	bgez	t0,1234 <n31_bgez_test+0x1234>
    1270:	00000000 	nop
    1274:	10000005 	b	128c <n31_bgez_test+0x128c>
    1278:	00000000 	nop
    127c:	00000000 	nop
    1280:	00000021 	move	zero,zero
    1284:	3c1227d4 	lui	s2,0x27d4
    1288:	36523f6a 	ori	s2,s2,0x3f6a
    128c:	00000000 	nop
    1290:	24140000 	li	s4,0
    1294:	16141ab9 	bne	s0,s4,7d7c <inst_error>
    1298:	00000000 	nop
    129c:	00000000 	nop
    12a0:	24150000 	li	s5,0
    12a4:	16551ab5 	bne	s2,s5,7d7c <inst_error>
    12a8:	00000000 	nop
    12ac:	00000000 	nop
    12b0:	3c0c7edd 	lui	t4,0x7edd
    12b4:	358c5dac 	ori	t4,t4,0x5dac
    12b8:	3c0d2ecc 	lui	t5,0x2ecc
    12bc:	35ad8300 	ori	t5,t5,0x8300
    12c0:	24100000 	li	s0,0
    12c4:	1000000e 	b	1300 <n31_bgez_test+0x1300>
    12c8:	24120000 	li	s2,0
    12cc:	00000000 	nop
    12d0:	3c107edd 	lui	s0,0x7edd
    12d4:	05010012 	bgez	t0,1320 <n31_bgez_test+0x1320>
    12d8:	36105dac 	ori	s0,s0,0x5dac
    12dc:	10000012 	b	1328 <n31_bgez_test+0x1328>
    12e0:	00000000 	nop
    12e4:	00000000 	nop
    12e8:	00000021 	move	zero,zero
    12ec:	00000021 	move	zero,zero
    12f0:	00000021 	move	zero,zero
    12f4:	00000021 	move	zero,zero
    12f8:	00000021 	move	zero,zero
    12fc:	00000021 	move	zero,zero
    1300:	3c089554 	lui	t0,0x9554
    1304:	350836ec 	ori	t0,t0,0x36ec
    1308:	0501fff1 	bgez	t0,12d0 <n31_bgez_test+0x12d0>
    130c:	00000000 	nop
    1310:	10000005 	b	1328 <n31_bgez_test+0x1328>
    1314:	00000000 	nop
    1318:	00000000 	nop
    131c:	00000021 	move	zero,zero
    1320:	3c122ecc 	lui	s2,0x2ecc
    1324:	36528300 	ori	s2,s2,0x8300
    1328:	00000000 	nop
    132c:	24140000 	li	s4,0
    1330:	16141a92 	bne	s0,s4,7d7c <inst_error>
    1334:	00000000 	nop
    1338:	00000000 	nop
    133c:	24150000 	li	s5,0
    1340:	16551a8e 	bne	s2,s5,7d7c <inst_error>
    1344:	00000000 	nop
    1348:	00000000 	nop
    134c:	3c0c960e 	lui	t4,0x960e
    1350:	358ce830 	ori	t4,t4,0xe830
    1354:	3c0dcc41 	lui	t5,0xcc41
    1358:	35add6d0 	ori	t5,t5,0xd6d0
    135c:	24100000 	li	s0,0
    1360:	1000000e 	b	139c <n31_bgez_test+0x139c>
    1364:	24120000 	li	s2,0
    1368:	00000000 	nop
    136c:	3c10960e 	lui	s0,0x960e
    1370:	05010012 	bgez	t0,13bc <n31_bgez_test+0x13bc>
    1374:	3610e830 	ori	s0,s0,0xe830
    1378:	10000012 	b	13c4 <n31_bgez_test+0x13c4>
    137c:	00000000 	nop
    1380:	00000000 	nop
    1384:	00000021 	move	zero,zero
    1388:	00000021 	move	zero,zero
    138c:	00000021 	move	zero,zero
    1390:	00000021 	move	zero,zero
    1394:	00000021 	move	zero,zero
    1398:	00000021 	move	zero,zero
    139c:	3c0875e8 	lui	t0,0x75e8
    13a0:	35089323 	ori	t0,t0,0x9323
    13a4:	0501fff1 	bgez	t0,136c <n31_bgez_test+0x136c>
    13a8:	00000000 	nop
    13ac:	10000005 	b	13c4 <n31_bgez_test+0x13c4>
    13b0:	00000000 	nop
    13b4:	00000000 	nop
    13b8:	00000021 	move	zero,zero
    13bc:	3c12cc41 	lui	s2,0xcc41
    13c0:	3652d6d0 	ori	s2,s2,0xd6d0
    13c4:	00000000 	nop
    13c8:	3c14960e 	lui	s4,0x960e
    13cc:	3694e830 	ori	s4,s4,0xe830
    13d0:	16141a6a 	bne	s0,s4,7d7c <inst_error>
    13d4:	00000000 	nop
    13d8:	00000000 	nop
    13dc:	3c15cc41 	lui	s5,0xcc41
    13e0:	36b5d6d0 	ori	s5,s5,0xd6d0
    13e4:	16551a65 	bne	s2,s5,7d7c <inst_error>
    13e8:	00000000 	nop
    13ec:	00000000 	nop
    13f0:	3c0c6143 	lui	t4,0x6143
    13f4:	358cab78 	ori	t4,t4,0xab78
    13f8:	3c0da9b4 	lui	t5,0xa9b4
    13fc:	35ad1e82 	ori	t5,t5,0x1e82
    1400:	24100000 	li	s0,0
    1404:	1000000e 	b	1440 <n31_bgez_test+0x1440>
    1408:	24120000 	li	s2,0
    140c:	00000000 	nop
    1410:	3c106143 	lui	s0,0x6143
    1414:	05010012 	bgez	t0,1460 <n31_bgez_test+0x1460>
    1418:	3610ab78 	ori	s0,s0,0xab78
    141c:	10000012 	b	1468 <n31_bgez_test+0x1468>
    1420:	00000000 	nop
    1424:	00000000 	nop
    1428:	00000021 	move	zero,zero
    142c:	00000021 	move	zero,zero
    1430:	00000021 	move	zero,zero
    1434:	00000021 	move	zero,zero
    1438:	00000021 	move	zero,zero
    143c:	00000021 	move	zero,zero
    1440:	3c0833b3 	lui	t0,0x33b3
    1444:	3508996c 	ori	t0,t0,0x996c
    1448:	0501fff1 	bgez	t0,1410 <n31_bgez_test+0x1410>
    144c:	00000000 	nop
    1450:	10000005 	b	1468 <n31_bgez_test+0x1468>
    1454:	00000000 	nop
    1458:	00000000 	nop
    145c:	00000021 	move	zero,zero
    1460:	3c12a9b4 	lui	s2,0xa9b4
    1464:	36521e82 	ori	s2,s2,0x1e82
    1468:	00000000 	nop
    146c:	3c146143 	lui	s4,0x6143
    1470:	3694ab78 	ori	s4,s4,0xab78
    1474:	16141a41 	bne	s0,s4,7d7c <inst_error>
    1478:	00000000 	nop
    147c:	00000000 	nop
    1480:	3c15a9b4 	lui	s5,0xa9b4
    1484:	36b51e82 	ori	s5,s5,0x1e82
    1488:	16551a3c 	bne	s2,s5,7d7c <inst_error>
    148c:	00000000 	nop
    1490:	00000000 	nop
    1494:	3c0c4dd2 	lui	t4,0x4dd2
    1498:	358c8e40 	ori	t4,t4,0x8e40
    149c:	3c0d72d6 	lui	t5,0x72d6
    14a0:	35adeebc 	ori	t5,t5,0xeebc
    14a4:	24100000 	li	s0,0
    14a8:	1000000e 	b	14e4 <n31_bgez_test+0x14e4>
    14ac:	24120000 	li	s2,0
    14b0:	00000000 	nop
    14b4:	3c104dd2 	lui	s0,0x4dd2
    14b8:	05010012 	bgez	t0,1504 <n31_bgez_test+0x1504>
    14bc:	36108e40 	ori	s0,s0,0x8e40
    14c0:	10000012 	b	150c <n31_bgez_test+0x150c>
    14c4:	00000000 	nop
    14c8:	00000000 	nop
    14cc:	00000021 	move	zero,zero
    14d0:	00000021 	move	zero,zero
    14d4:	00000021 	move	zero,zero
    14d8:	00000021 	move	zero,zero
    14dc:	00000021 	move	zero,zero
    14e0:	00000021 	move	zero,zero
    14e4:	3c08a973 	lui	t0,0xa973
    14e8:	35088bf8 	ori	t0,t0,0x8bf8
    14ec:	0501fff1 	bgez	t0,14b4 <n31_bgez_test+0x14b4>
    14f0:	00000000 	nop
    14f4:	10000005 	b	150c <n31_bgez_test+0x150c>
    14f8:	00000000 	nop
    14fc:	00000000 	nop
    1500:	00000021 	move	zero,zero
    1504:	3c1272d6 	lui	s2,0x72d6
    1508:	3652eebc 	ori	s2,s2,0xeebc
    150c:	00000000 	nop
    1510:	24140000 	li	s4,0
    1514:	16141a19 	bne	s0,s4,7d7c <inst_error>
    1518:	00000000 	nop
    151c:	00000000 	nop
    1520:	24150000 	li	s5,0
    1524:	16551a15 	bne	s2,s5,7d7c <inst_error>
    1528:	00000000 	nop
    152c:	00000000 	nop
    1530:	3c0c7340 	lui	t4,0x7340
    1534:	358cd7a8 	ori	t4,t4,0xd7a8
    1538:	3c0d0f8c 	lui	t5,0xf8c
    153c:	35ad5ed0 	ori	t5,t5,0x5ed0
    1540:	24100000 	li	s0,0
    1544:	1000000e 	b	1580 <n31_bgez_test+0x1580>
    1548:	24120000 	li	s2,0
    154c:	00000000 	nop
    1550:	3c107340 	lui	s0,0x7340
    1554:	05010012 	bgez	t0,15a0 <n31_bgez_test+0x15a0>
    1558:	3610d7a8 	ori	s0,s0,0xd7a8
    155c:	10000012 	b	15a8 <n31_bgez_test+0x15a8>
    1560:	00000000 	nop
    1564:	00000000 	nop
    1568:	00000021 	move	zero,zero
    156c:	00000021 	move	zero,zero
    1570:	00000021 	move	zero,zero
    1574:	00000021 	move	zero,zero
    1578:	00000021 	move	zero,zero
    157c:	00000021 	move	zero,zero
    1580:	3c08a66a 	lui	t0,0xa66a
    1584:	35081140 	ori	t0,t0,0x1140
    1588:	0501fff1 	bgez	t0,1550 <n31_bgez_test+0x1550>
    158c:	00000000 	nop
    1590:	10000005 	b	15a8 <n31_bgez_test+0x15a8>
    1594:	00000000 	nop
    1598:	00000000 	nop
    159c:	00000021 	move	zero,zero
    15a0:	3c120f8c 	lui	s2,0xf8c
    15a4:	36525ed0 	ori	s2,s2,0x5ed0
    15a8:	00000000 	nop
    15ac:	24140000 	li	s4,0
    15b0:	161419f2 	bne	s0,s4,7d7c <inst_error>
    15b4:	00000000 	nop
    15b8:	00000000 	nop
    15bc:	24150000 	li	s5,0
    15c0:	165519ee 	bne	s2,s5,7d7c <inst_error>
    15c4:	00000000 	nop
    15c8:	00000000 	nop
    15cc:	3c0c180e 	lui	t4,0x180e
    15d0:	358c30b6 	ori	t4,t4,0x30b6
    15d4:	3c0dc7d2 	lui	t5,0xc7d2
    15d8:	35ad861f 	ori	t5,t5,0x861f
    15dc:	24100000 	li	s0,0
    15e0:	1000000e 	b	161c <n31_bgez_test+0x161c>
    15e4:	24120000 	li	s2,0
    15e8:	00000000 	nop
    15ec:	3c10180e 	lui	s0,0x180e
    15f0:	05010012 	bgez	t0,163c <n31_bgez_test+0x163c>
    15f4:	361030b6 	ori	s0,s0,0x30b6
    15f8:	10000012 	b	1644 <n31_bgez_test+0x1644>
    15fc:	00000000 	nop
    1600:	00000000 	nop
    1604:	00000021 	move	zero,zero
    1608:	00000021 	move	zero,zero
    160c:	00000021 	move	zero,zero
    1610:	00000021 	move	zero,zero
    1614:	00000021 	move	zero,zero
    1618:	00000021 	move	zero,zero
    161c:	3c08bbe1 	lui	t0,0xbbe1
    1620:	35087a62 	ori	t0,t0,0x7a62
    1624:	0501fff1 	bgez	t0,15ec <n31_bgez_test+0x15ec>
    1628:	00000000 	nop
    162c:	10000005 	b	1644 <n31_bgez_test+0x1644>
    1630:	00000000 	nop
    1634:	00000000 	nop
    1638:	00000021 	move	zero,zero
    163c:	3c12c7d2 	lui	s2,0xc7d2
    1640:	3652861f 	ori	s2,s2,0x861f
    1644:	00000000 	nop
    1648:	24140000 	li	s4,0
    164c:	161419cb 	bne	s0,s4,7d7c <inst_error>
    1650:	00000000 	nop
    1654:	00000000 	nop
    1658:	24150000 	li	s5,0
    165c:	165519c7 	bne	s2,s5,7d7c <inst_error>
    1660:	00000000 	nop
    1664:	00000000 	nop
    1668:	3c0c8e4f 	lui	t4,0x8e4f
    166c:	358c1780 	ori	t4,t4,0x1780
    1670:	3c0d6d81 	lui	t5,0x6d81
    1674:	35add6ce 	ori	t5,t5,0xd6ce
    1678:	24100000 	li	s0,0
    167c:	1000000e 	b	16b8 <n31_bgez_test+0x16b8>
    1680:	24120000 	li	s2,0
    1684:	00000000 	nop
    1688:	3c108e4f 	lui	s0,0x8e4f
    168c:	05010012 	bgez	t0,16d8 <n31_bgez_test+0x16d8>
    1690:	36101780 	ori	s0,s0,0x1780
    1694:	10000012 	b	16e0 <n31_bgez_test+0x16e0>
    1698:	00000000 	nop
    169c:	00000000 	nop
    16a0:	00000021 	move	zero,zero
    16a4:	00000021 	move	zero,zero
    16a8:	00000021 	move	zero,zero
    16ac:	00000021 	move	zero,zero
    16b0:	00000021 	move	zero,zero
    16b4:	00000021 	move	zero,zero
    16b8:	3c08cb3d 	lui	t0,0xcb3d
    16bc:	35080bf6 	ori	t0,t0,0xbf6
    16c0:	0501fff1 	bgez	t0,1688 <n31_bgez_test+0x1688>
    16c4:	00000000 	nop
    16c8:	10000005 	b	16e0 <n31_bgez_test+0x16e0>
    16cc:	00000000 	nop
    16d0:	00000000 	nop
    16d4:	00000021 	move	zero,zero
    16d8:	3c126d81 	lui	s2,0x6d81
    16dc:	3652d6ce 	ori	s2,s2,0xd6ce
    16e0:	00000000 	nop
    16e4:	24140000 	li	s4,0
    16e8:	161419a4 	bne	s0,s4,7d7c <inst_error>
    16ec:	00000000 	nop
    16f0:	00000000 	nop
    16f4:	24150000 	li	s5,0
    16f8:	165519a0 	bne	s2,s5,7d7c <inst_error>
    16fc:	00000000 	nop
    1700:	00000000 	nop
    1704:	3c0ce4b3 	lui	t4,0xe4b3
    1708:	358c4f14 	ori	t4,t4,0x4f14
    170c:	3c0d2907 	lui	t5,0x2907
    1710:	35adcb38 	ori	t5,t5,0xcb38
    1714:	24100000 	li	s0,0
    1718:	1000000e 	b	1754 <n31_bgez_test+0x1754>
    171c:	24120000 	li	s2,0
    1720:	00000000 	nop
    1724:	3c10e4b3 	lui	s0,0xe4b3
    1728:	05010012 	bgez	t0,1774 <n31_bgez_test+0x1774>
    172c:	36104f14 	ori	s0,s0,0x4f14
    1730:	10000012 	b	177c <n31_bgez_test+0x177c>
    1734:	00000000 	nop
    1738:	00000000 	nop
    173c:	00000021 	move	zero,zero
    1740:	00000021 	move	zero,zero
    1744:	00000021 	move	zero,zero
    1748:	00000021 	move	zero,zero
    174c:	00000021 	move	zero,zero
    1750:	00000021 	move	zero,zero
    1754:	3c08391e 	lui	t0,0x391e
    1758:	350865e0 	ori	t0,t0,0x65e0
    175c:	0501fff1 	bgez	t0,1724 <n31_bgez_test+0x1724>
    1760:	00000000 	nop
    1764:	10000005 	b	177c <n31_bgez_test+0x177c>
    1768:	00000000 	nop
    176c:	00000000 	nop
    1770:	00000021 	move	zero,zero
    1774:	3c122907 	lui	s2,0x2907
    1778:	3652cb38 	ori	s2,s2,0xcb38
    177c:	00000000 	nop
    1780:	3c14e4b3 	lui	s4,0xe4b3
    1784:	36944f14 	ori	s4,s4,0x4f14
    1788:	1614197c 	bne	s0,s4,7d7c <inst_error>
    178c:	00000000 	nop
    1790:	00000000 	nop
    1794:	3c152907 	lui	s5,0x2907
    1798:	36b5cb38 	ori	s5,s5,0xcb38
    179c:	16551977 	bne	s2,s5,7d7c <inst_error>
    17a0:	00000000 	nop
    17a4:	00000000 	nop
    17a8:	3c0ca222 	lui	t4,0xa222
    17ac:	358c93cc 	ori	t4,t4,0x93cc
    17b0:	3c0d1af2 	lui	t5,0x1af2
    17b4:	35add540 	ori	t5,t5,0xd540
    17b8:	24100000 	li	s0,0
    17bc:	1000000e 	b	17f8 <n31_bgez_test+0x17f8>
    17c0:	24120000 	li	s2,0
    17c4:	00000000 	nop
    17c8:	3c10a222 	lui	s0,0xa222
    17cc:	05010012 	bgez	t0,1818 <n31_bgez_test+0x1818>
    17d0:	361093cc 	ori	s0,s0,0x93cc
    17d4:	10000012 	b	1820 <n31_bgez_test+0x1820>
    17d8:	00000000 	nop
    17dc:	00000000 	nop
    17e0:	00000021 	move	zero,zero
    17e4:	00000021 	move	zero,zero
    17e8:	00000021 	move	zero,zero
    17ec:	00000021 	move	zero,zero
    17f0:	00000021 	move	zero,zero
    17f4:	00000021 	move	zero,zero
    17f8:	3c084355 	lui	t0,0x4355
    17fc:	3508833a 	ori	t0,t0,0x833a
    1800:	0501fff1 	bgez	t0,17c8 <n31_bgez_test+0x17c8>
    1804:	00000000 	nop
    1808:	10000005 	b	1820 <n31_bgez_test+0x1820>
    180c:	00000000 	nop
    1810:	00000000 	nop
    1814:	00000021 	move	zero,zero
    1818:	3c121af2 	lui	s2,0x1af2
    181c:	3652d540 	ori	s2,s2,0xd540
    1820:	00000000 	nop
    1824:	3c14a222 	lui	s4,0xa222
    1828:	369493cc 	ori	s4,s4,0x93cc
    182c:	16141953 	bne	s0,s4,7d7c <inst_error>
    1830:	00000000 	nop
    1834:	00000000 	nop
    1838:	3c151af2 	lui	s5,0x1af2
    183c:	36b5d540 	ori	s5,s5,0xd540
    1840:	1655194e 	bne	s2,s5,7d7c <inst_error>
    1844:	00000000 	nop
    1848:	00000000 	nop
    184c:	3c0c48d5 	lui	t4,0x48d5
    1850:	358c852a 	ori	t4,t4,0x852a
    1854:	3c0da0ab 	lui	t5,0xa0ab
    1858:	35ad0060 	ori	t5,t5,0x60
    185c:	24100000 	li	s0,0
    1860:	1000000e 	b	189c <n31_bgez_test+0x189c>
    1864:	24120000 	li	s2,0
    1868:	00000000 	nop
    186c:	3c1048d5 	lui	s0,0x48d5
    1870:	05010012 	bgez	t0,18bc <n31_bgez_test+0x18bc>
    1874:	3610852a 	ori	s0,s0,0x852a
    1878:	10000012 	b	18c4 <n31_bgez_test+0x18c4>
    187c:	00000000 	nop
    1880:	00000000 	nop
    1884:	00000021 	move	zero,zero
    1888:	00000021 	move	zero,zero
    188c:	00000021 	move	zero,zero
    1890:	00000021 	move	zero,zero
    1894:	00000021 	move	zero,zero
    1898:	00000021 	move	zero,zero
    189c:	3c08192b 	lui	t0,0x192b
    18a0:	3508cea0 	ori	t0,t0,0xcea0
    18a4:	0501fff1 	bgez	t0,186c <n31_bgez_test+0x186c>
    18a8:	00000000 	nop
    18ac:	10000005 	b	18c4 <n31_bgez_test+0x18c4>
    18b0:	00000000 	nop
    18b4:	00000000 	nop
    18b8:	00000021 	move	zero,zero
    18bc:	3c12a0ab 	lui	s2,0xa0ab
    18c0:	36520060 	ori	s2,s2,0x60
    18c4:	00000000 	nop
    18c8:	3c1448d5 	lui	s4,0x48d5
    18cc:	3694852a 	ori	s4,s4,0x852a
    18d0:	1614192a 	bne	s0,s4,7d7c <inst_error>
    18d4:	00000000 	nop
    18d8:	00000000 	nop
    18dc:	3c15a0ab 	lui	s5,0xa0ab
    18e0:	36b50060 	ori	s5,s5,0x60
    18e4:	16551925 	bne	s2,s5,7d7c <inst_error>
    18e8:	00000000 	nop
    18ec:	00000000 	nop
    18f0:	3c0ca469 	lui	t4,0xa469
    18f4:	358cde20 	ori	t4,t4,0xde20
    18f8:	3c0dcb19 	lui	t5,0xcb19
    18fc:	35add72e 	ori	t5,t5,0xd72e
    1900:	24100000 	li	s0,0
    1904:	1000000e 	b	1940 <n31_bgez_test+0x1940>
    1908:	24120000 	li	s2,0
    190c:	00000000 	nop
    1910:	3c10a469 	lui	s0,0xa469
    1914:	05010012 	bgez	t0,1960 <n31_bgez_test+0x1960>
    1918:	3610de20 	ori	s0,s0,0xde20
    191c:	10000012 	b	1968 <n31_bgez_test+0x1968>
    1920:	00000000 	nop
    1924:	00000000 	nop
    1928:	00000021 	move	zero,zero
    192c:	00000021 	move	zero,zero
    1930:	00000021 	move	zero,zero
    1934:	00000021 	move	zero,zero
    1938:	00000021 	move	zero,zero
    193c:	00000021 	move	zero,zero
    1940:	3c084a03 	lui	t0,0x4a03
    1944:	35087cd3 	ori	t0,t0,0x7cd3
    1948:	0501fff1 	bgez	t0,1910 <n31_bgez_test+0x1910>
    194c:	00000000 	nop
    1950:	10000005 	b	1968 <n31_bgez_test+0x1968>
    1954:	00000000 	nop
    1958:	00000000 	nop
    195c:	00000021 	move	zero,zero
    1960:	3c12cb19 	lui	s2,0xcb19
    1964:	3652d72e 	ori	s2,s2,0xd72e
    1968:	00000000 	nop
    196c:	3c14a469 	lui	s4,0xa469
    1970:	3694de20 	ori	s4,s4,0xde20
    1974:	16141901 	bne	s0,s4,7d7c <inst_error>
    1978:	00000000 	nop
    197c:	00000000 	nop
    1980:	3c15cb19 	lui	s5,0xcb19
    1984:	36b5d72e 	ori	s5,s5,0xd72e
    1988:	165518fc 	bne	s2,s5,7d7c <inst_error>
    198c:	00000000 	nop
    1990:	00000000 	nop
    1994:	3c0c17f8 	lui	t4,0x17f8
    1998:	358c9778 	ori	t4,t4,0x9778
    199c:	3c0d8293 	lui	t5,0x8293
    19a0:	35ad3648 	ori	t5,t5,0x3648
    19a4:	24100000 	li	s0,0
    19a8:	1000000e 	b	19e4 <n31_bgez_test+0x19e4>
    19ac:	24120000 	li	s2,0
    19b0:	00000000 	nop
    19b4:	3c1017f8 	lui	s0,0x17f8
    19b8:	05010012 	bgez	t0,1a04 <n31_bgez_test+0x1a04>
    19bc:	36109778 	ori	s0,s0,0x9778
    19c0:	10000012 	b	1a0c <n31_bgez_test+0x1a0c>
    19c4:	00000000 	nop
    19c8:	00000000 	nop
    19cc:	00000021 	move	zero,zero
    19d0:	00000021 	move	zero,zero
    19d4:	00000021 	move	zero,zero
    19d8:	00000021 	move	zero,zero
    19dc:	00000021 	move	zero,zero
    19e0:	00000021 	move	zero,zero
    19e4:	3c08f86c 	lui	t0,0xf86c
    19e8:	3508a928 	ori	t0,t0,0xa928
    19ec:	0501fff1 	bgez	t0,19b4 <n31_bgez_test+0x19b4>
    19f0:	00000000 	nop
    19f4:	10000005 	b	1a0c <n31_bgez_test+0x1a0c>
    19f8:	00000000 	nop
    19fc:	00000000 	nop
    1a00:	00000021 	move	zero,zero
    1a04:	3c128293 	lui	s2,0x8293
    1a08:	36523648 	ori	s2,s2,0x3648
    1a0c:	00000000 	nop
    1a10:	24140000 	li	s4,0
    1a14:	161418d9 	bne	s0,s4,7d7c <inst_error>
    1a18:	00000000 	nop
    1a1c:	00000000 	nop
    1a20:	24150000 	li	s5,0
    1a24:	165518d5 	bne	s2,s5,7d7c <inst_error>
    1a28:	00000000 	nop
    1a2c:	00000000 	nop
    1a30:	3c0cf824 	lui	t4,0xf824
    1a34:	358c2c48 	ori	t4,t4,0x2c48
    1a38:	3c0d56be 	lui	t5,0x56be
    1a3c:	35ad5170 	ori	t5,t5,0x5170
    1a40:	24100000 	li	s0,0
    1a44:	1000000e 	b	1a80 <n31_bgez_test+0x1a80>
    1a48:	24120000 	li	s2,0
    1a4c:	00000000 	nop
    1a50:	3c10f824 	lui	s0,0xf824
    1a54:	05010012 	bgez	t0,1aa0 <n31_bgez_test+0x1aa0>
    1a58:	36102c48 	ori	s0,s0,0x2c48
    1a5c:	10000012 	b	1aa8 <n31_bgez_test+0x1aa8>
    1a60:	00000000 	nop
    1a64:	00000000 	nop
    1a68:	00000021 	move	zero,zero
    1a6c:	00000021 	move	zero,zero
    1a70:	00000021 	move	zero,zero
    1a74:	00000021 	move	zero,zero
    1a78:	00000021 	move	zero,zero
    1a7c:	00000021 	move	zero,zero
    1a80:	3c085c1d 	lui	t0,0x5c1d
    1a84:	350809aa 	ori	t0,t0,0x9aa
    1a88:	0501fff1 	bgez	t0,1a50 <n31_bgez_test+0x1a50>
    1a8c:	00000000 	nop
    1a90:	10000005 	b	1aa8 <n31_bgez_test+0x1aa8>
    1a94:	00000000 	nop
    1a98:	00000000 	nop
    1a9c:	00000021 	move	zero,zero
    1aa0:	3c1256be 	lui	s2,0x56be
    1aa4:	36525170 	ori	s2,s2,0x5170
    1aa8:	00000000 	nop
    1aac:	3c14f824 	lui	s4,0xf824
    1ab0:	36942c48 	ori	s4,s4,0x2c48
    1ab4:	161418b1 	bne	s0,s4,7d7c <inst_error>
    1ab8:	00000000 	nop
    1abc:	00000000 	nop
    1ac0:	3c1556be 	lui	s5,0x56be
    1ac4:	36b55170 	ori	s5,s5,0x5170
    1ac8:	165518ac 	bne	s2,s5,7d7c <inst_error>
    1acc:	00000000 	nop
    1ad0:	00000000 	nop
    1ad4:	3c0c9382 	lui	t4,0x9382
    1ad8:	358c39a2 	ori	t4,t4,0x39a2
    1adc:	3c0dc158 	lui	t5,0xc158
    1ae0:	35ad8c00 	ori	t5,t5,0x8c00
    1ae4:	24100000 	li	s0,0
    1ae8:	1000000e 	b	1b24 <n31_bgez_test+0x1b24>
    1aec:	24120000 	li	s2,0
    1af0:	00000000 	nop
    1af4:	3c109382 	lui	s0,0x9382
    1af8:	05010012 	bgez	t0,1b44 <n31_bgez_test+0x1b44>
    1afc:	361039a2 	ori	s0,s0,0x39a2
    1b00:	10000012 	b	1b4c <n31_bgez_test+0x1b4c>
    1b04:	00000000 	nop
    1b08:	00000000 	nop
    1b0c:	00000021 	move	zero,zero
    1b10:	00000021 	move	zero,zero
    1b14:	00000021 	move	zero,zero
    1b18:	00000021 	move	zero,zero
    1b1c:	00000021 	move	zero,zero
    1b20:	00000021 	move	zero,zero
    1b24:	3c083b78 	lui	t0,0x3b78
    1b28:	35086004 	ori	t0,t0,0x6004
    1b2c:	0501fff1 	bgez	t0,1af4 <n31_bgez_test+0x1af4>
    1b30:	00000000 	nop
    1b34:	10000005 	b	1b4c <n31_bgez_test+0x1b4c>
    1b38:	00000000 	nop
    1b3c:	00000000 	nop
    1b40:	00000021 	move	zero,zero
    1b44:	3c12c158 	lui	s2,0xc158
    1b48:	36528c00 	ori	s2,s2,0x8c00
    1b4c:	00000000 	nop
    1b50:	3c149382 	lui	s4,0x9382
    1b54:	369439a2 	ori	s4,s4,0x39a2
    1b58:	16141888 	bne	s0,s4,7d7c <inst_error>
    1b5c:	00000000 	nop
    1b60:	00000000 	nop
    1b64:	3c15c158 	lui	s5,0xc158
    1b68:	36b58c00 	ori	s5,s5,0x8c00
    1b6c:	16551883 	bne	s2,s5,7d7c <inst_error>
    1b70:	00000000 	nop
    1b74:	00000000 	nop
    1b78:	3c0ce527 	lui	t4,0xe527
    1b7c:	358c0510 	ori	t4,t4,0x510
    1b80:	3c0d8137 	lui	t5,0x8137
    1b84:	35addb6a 	ori	t5,t5,0xdb6a
    1b88:	24100000 	li	s0,0
    1b8c:	1000000e 	b	1bc8 <n31_bgez_test+0x1bc8>
    1b90:	24120000 	li	s2,0
    1b94:	00000000 	nop
    1b98:	3c10e527 	lui	s0,0xe527
    1b9c:	05010012 	bgez	t0,1be8 <n31_bgez_test+0x1be8>
    1ba0:	36100510 	ori	s0,s0,0x510
    1ba4:	10000012 	b	1bf0 <n31_bgez_test+0x1bf0>
    1ba8:	00000000 	nop
    1bac:	00000000 	nop
    1bb0:	00000021 	move	zero,zero
    1bb4:	00000021 	move	zero,zero
    1bb8:	00000021 	move	zero,zero
    1bbc:	00000021 	move	zero,zero
    1bc0:	00000021 	move	zero,zero
    1bc4:	00000021 	move	zero,zero
    1bc8:	3c08ae3a 	lui	t0,0xae3a
    1bcc:	35085d26 	ori	t0,t0,0x5d26
    1bd0:	0501fff1 	bgez	t0,1b98 <n31_bgez_test+0x1b98>
    1bd4:	00000000 	nop
    1bd8:	10000005 	b	1bf0 <n31_bgez_test+0x1bf0>
    1bdc:	00000000 	nop
    1be0:	00000000 	nop
    1be4:	00000021 	move	zero,zero
    1be8:	3c128137 	lui	s2,0x8137
    1bec:	3652db6a 	ori	s2,s2,0xdb6a
    1bf0:	00000000 	nop
    1bf4:	24140000 	li	s4,0
    1bf8:	16141860 	bne	s0,s4,7d7c <inst_error>
    1bfc:	00000000 	nop
    1c00:	00000000 	nop
    1c04:	24150000 	li	s5,0
    1c08:	1655185c 	bne	s2,s5,7d7c <inst_error>
    1c0c:	00000000 	nop
    1c10:	00000000 	nop
    1c14:	3c0c41c4 	lui	t4,0x41c4
    1c18:	358cea22 	ori	t4,t4,0xea22
    1c1c:	3c0d5d13 	lui	t5,0x5d13
    1c20:	35add3e8 	ori	t5,t5,0xd3e8
    1c24:	24100000 	li	s0,0
    1c28:	1000000e 	b	1c64 <n31_bgez_test+0x1c64>
    1c2c:	24120000 	li	s2,0
    1c30:	00000000 	nop
    1c34:	3c1041c4 	lui	s0,0x41c4
    1c38:	05010012 	bgez	t0,1c84 <n31_bgez_test+0x1c84>
    1c3c:	3610ea22 	ori	s0,s0,0xea22
    1c40:	10000012 	b	1c8c <n31_bgez_test+0x1c8c>
    1c44:	00000000 	nop
    1c48:	00000000 	nop
    1c4c:	00000021 	move	zero,zero
    1c50:	00000021 	move	zero,zero
    1c54:	00000021 	move	zero,zero
    1c58:	00000021 	move	zero,zero
    1c5c:	00000021 	move	zero,zero
    1c60:	00000021 	move	zero,zero
    1c64:	3c087e24 	lui	t0,0x7e24
    1c68:	35084800 	ori	t0,t0,0x4800
    1c6c:	0501fff1 	bgez	t0,1c34 <n31_bgez_test+0x1c34>
    1c70:	00000000 	nop
    1c74:	10000005 	b	1c8c <n31_bgez_test+0x1c8c>
    1c78:	00000000 	nop
    1c7c:	00000000 	nop
    1c80:	00000021 	move	zero,zero
    1c84:	3c125d13 	lui	s2,0x5d13
    1c88:	3652d3e8 	ori	s2,s2,0xd3e8
    1c8c:	00000000 	nop
    1c90:	3c1441c4 	lui	s4,0x41c4
    1c94:	3694ea22 	ori	s4,s4,0xea22
    1c98:	16141838 	bne	s0,s4,7d7c <inst_error>
    1c9c:	00000000 	nop
    1ca0:	00000000 	nop
    1ca4:	3c155d13 	lui	s5,0x5d13
    1ca8:	36b5d3e8 	ori	s5,s5,0xd3e8
    1cac:	16551833 	bne	s2,s5,7d7c <inst_error>
    1cb0:	00000000 	nop
    1cb4:	00000000 	nop
    1cb8:	3c0c07d4 	lui	t4,0x7d4
    1cbc:	358cc39c 	ori	t4,t4,0xc39c
    1cc0:	3c0d0407 	lui	t5,0x407
    1cc4:	35ade570 	ori	t5,t5,0xe570
    1cc8:	24100000 	li	s0,0
    1ccc:	1000000e 	b	1d08 <n31_bgez_test+0x1d08>
    1cd0:	24120000 	li	s2,0
    1cd4:	00000000 	nop
    1cd8:	3c1007d4 	lui	s0,0x7d4
    1cdc:	05010012 	bgez	t0,1d28 <n31_bgez_test+0x1d28>
    1ce0:	3610c39c 	ori	s0,s0,0xc39c
    1ce4:	10000012 	b	1d30 <n31_bgez_test+0x1d30>
    1ce8:	00000000 	nop
    1cec:	00000000 	nop
    1cf0:	00000021 	move	zero,zero
    1cf4:	00000021 	move	zero,zero
    1cf8:	00000021 	move	zero,zero
    1cfc:	00000021 	move	zero,zero
    1d00:	00000021 	move	zero,zero
    1d04:	00000021 	move	zero,zero
    1d08:	3c083763 	lui	t0,0x3763
    1d0c:	3508deb0 	ori	t0,t0,0xdeb0
    1d10:	0501fff1 	bgez	t0,1cd8 <n31_bgez_test+0x1cd8>
    1d14:	00000000 	nop
    1d18:	10000005 	b	1d30 <n31_bgez_test+0x1d30>
    1d1c:	00000000 	nop
    1d20:	00000000 	nop
    1d24:	00000021 	move	zero,zero
    1d28:	3c120407 	lui	s2,0x407
    1d2c:	3652e570 	ori	s2,s2,0xe570
    1d30:	00000000 	nop
    1d34:	3c1407d4 	lui	s4,0x7d4
    1d38:	3694c39c 	ori	s4,s4,0xc39c
    1d3c:	1614180f 	bne	s0,s4,7d7c <inst_error>
    1d40:	00000000 	nop
    1d44:	00000000 	nop
    1d48:	3c150407 	lui	s5,0x407
    1d4c:	36b5e570 	ori	s5,s5,0xe570
    1d50:	1655180a 	bne	s2,s5,7d7c <inst_error>
    1d54:	00000000 	nop
    1d58:	00000000 	nop
    1d5c:	3c0c76e0 	lui	t4,0x76e0
    1d60:	358c8acc 	ori	t4,t4,0x8acc
    1d64:	3c0daca1 	lui	t5,0xaca1
    1d68:	35ad6844 	ori	t5,t5,0x6844
    1d6c:	24100000 	li	s0,0
    1d70:	1000000e 	b	1dac <n31_bgez_test+0x1dac>
    1d74:	24120000 	li	s2,0
    1d78:	00000000 	nop
    1d7c:	3c1076e0 	lui	s0,0x76e0
    1d80:	05010012 	bgez	t0,1dcc <n31_bgez_test+0x1dcc>
    1d84:	36108acc 	ori	s0,s0,0x8acc
    1d88:	10000012 	b	1dd4 <n31_bgez_test+0x1dd4>
    1d8c:	00000000 	nop
    1d90:	00000000 	nop
    1d94:	00000021 	move	zero,zero
    1d98:	00000021 	move	zero,zero
    1d9c:	00000021 	move	zero,zero
    1da0:	00000021 	move	zero,zero
    1da4:	00000021 	move	zero,zero
    1da8:	00000021 	move	zero,zero
    1dac:	3c08bc70 	lui	t0,0xbc70
    1db0:	3508cc00 	ori	t0,t0,0xcc00
    1db4:	0501fff1 	bgez	t0,1d7c <n31_bgez_test+0x1d7c>
    1db8:	00000000 	nop
    1dbc:	10000005 	b	1dd4 <n31_bgez_test+0x1dd4>
    1dc0:	00000000 	nop
    1dc4:	00000000 	nop
    1dc8:	00000021 	move	zero,zero
    1dcc:	3c12aca1 	lui	s2,0xaca1
    1dd0:	36526844 	ori	s2,s2,0x6844
    1dd4:	00000000 	nop
    1dd8:	24140000 	li	s4,0
    1ddc:	161417e7 	bne	s0,s4,7d7c <inst_error>
    1de0:	00000000 	nop
    1de4:	00000000 	nop
    1de8:	24150000 	li	s5,0
    1dec:	165517e3 	bne	s2,s5,7d7c <inst_error>
    1df0:	00000000 	nop
    1df4:	00000000 	nop
    1df8:	3c0c1ec2 	lui	t4,0x1ec2
    1dfc:	358cdf8b 	ori	t4,t4,0xdf8b
    1e00:	3c0ddfec 	lui	t5,0xdfec
    1e04:	35ad3dda 	ori	t5,t5,0x3dda
    1e08:	24100000 	li	s0,0
    1e0c:	1000000e 	b	1e48 <n31_bgez_test+0x1e48>
    1e10:	24120000 	li	s2,0
    1e14:	00000000 	nop
    1e18:	3c101ec2 	lui	s0,0x1ec2
    1e1c:	05010012 	bgez	t0,1e68 <n31_bgez_test+0x1e68>
    1e20:	3610df8b 	ori	s0,s0,0xdf8b
    1e24:	10000012 	b	1e70 <n31_bgez_test+0x1e70>
    1e28:	00000000 	nop
    1e2c:	00000000 	nop
    1e30:	00000021 	move	zero,zero
    1e34:	00000021 	move	zero,zero
    1e38:	00000021 	move	zero,zero
    1e3c:	00000021 	move	zero,zero
    1e40:	00000021 	move	zero,zero
    1e44:	00000021 	move	zero,zero
    1e48:	3c084da2 	lui	t0,0x4da2
    1e4c:	3508c15d 	ori	t0,t0,0xc15d
    1e50:	0501fff1 	bgez	t0,1e18 <n31_bgez_test+0x1e18>
    1e54:	00000000 	nop
    1e58:	10000005 	b	1e70 <n31_bgez_test+0x1e70>
    1e5c:	00000000 	nop
    1e60:	00000000 	nop
    1e64:	00000021 	move	zero,zero
    1e68:	3c12dfec 	lui	s2,0xdfec
    1e6c:	36523dda 	ori	s2,s2,0x3dda
    1e70:	00000000 	nop
    1e74:	3c141ec2 	lui	s4,0x1ec2
    1e78:	3694df8b 	ori	s4,s4,0xdf8b
    1e7c:	161417bf 	bne	s0,s4,7d7c <inst_error>
    1e80:	00000000 	nop
    1e84:	00000000 	nop
    1e88:	3c15dfec 	lui	s5,0xdfec
    1e8c:	36b53dda 	ori	s5,s5,0x3dda
    1e90:	165517ba 	bne	s2,s5,7d7c <inst_error>
    1e94:	00000000 	nop
    1e98:	00000000 	nop
    1e9c:	3c0cc8a4 	lui	t4,0xc8a4
    1ea0:	358c847f 	ori	t4,t4,0x847f
    1ea4:	3c0df9bf 	lui	t5,0xf9bf
    1ea8:	35ad4784 	ori	t5,t5,0x4784
    1eac:	24100000 	li	s0,0
    1eb0:	1000000e 	b	1eec <n31_bgez_test+0x1eec>
    1eb4:	24120000 	li	s2,0
    1eb8:	00000000 	nop
    1ebc:	3c10c8a4 	lui	s0,0xc8a4
    1ec0:	05010012 	bgez	t0,1f0c <n31_bgez_test+0x1f0c>
    1ec4:	3610847f 	ori	s0,s0,0x847f
    1ec8:	10000012 	b	1f14 <n31_bgez_test+0x1f14>
    1ecc:	00000000 	nop
    1ed0:	00000000 	nop
    1ed4:	00000021 	move	zero,zero
    1ed8:	00000021 	move	zero,zero
    1edc:	00000021 	move	zero,zero
    1ee0:	00000021 	move	zero,zero
    1ee4:	00000021 	move	zero,zero
    1ee8:	00000021 	move	zero,zero
    1eec:	3c082936 	lui	t0,0x2936
    1ef0:	3508ae28 	ori	t0,t0,0xae28
    1ef4:	0501fff1 	bgez	t0,1ebc <n31_bgez_test+0x1ebc>
    1ef8:	00000000 	nop
    1efc:	10000005 	b	1f14 <n31_bgez_test+0x1f14>
    1f00:	00000000 	nop
    1f04:	00000000 	nop
    1f08:	00000021 	move	zero,zero
    1f0c:	3c12f9bf 	lui	s2,0xf9bf
    1f10:	36524784 	ori	s2,s2,0x4784
    1f14:	00000000 	nop
    1f18:	3c14c8a4 	lui	s4,0xc8a4
    1f1c:	3694847f 	ori	s4,s4,0x847f
    1f20:	16141796 	bne	s0,s4,7d7c <inst_error>
    1f24:	00000000 	nop
    1f28:	00000000 	nop
    1f2c:	3c15f9bf 	lui	s5,0xf9bf
    1f30:	36b54784 	ori	s5,s5,0x4784
    1f34:	16551791 	bne	s2,s5,7d7c <inst_error>
    1f38:	00000000 	nop
    1f3c:	00000000 	nop
    1f40:	3c0c9fb4 	lui	t4,0x9fb4
    1f44:	358c2bd0 	ori	t4,t4,0x2bd0
    1f48:	3c0df358 	lui	t5,0xf358
    1f4c:	35ad35d0 	ori	t5,t5,0x35d0
    1f50:	24100000 	li	s0,0
    1f54:	1000000e 	b	1f90 <n31_bgez_test+0x1f90>
    1f58:	24120000 	li	s2,0
    1f5c:	00000000 	nop
    1f60:	3c109fb4 	lui	s0,0x9fb4
    1f64:	05010012 	bgez	t0,1fb0 <n31_bgez_test+0x1fb0>
    1f68:	36102bd0 	ori	s0,s0,0x2bd0
    1f6c:	10000012 	b	1fb8 <n31_bgez_test+0x1fb8>
    1f70:	00000000 	nop
    1f74:	00000000 	nop
    1f78:	00000021 	move	zero,zero
    1f7c:	00000021 	move	zero,zero
    1f80:	00000021 	move	zero,zero
    1f84:	00000021 	move	zero,zero
    1f88:	00000021 	move	zero,zero
    1f8c:	00000021 	move	zero,zero
    1f90:	3c0855b0 	lui	t0,0x55b0
    1f94:	350800e4 	ori	t0,t0,0xe4
    1f98:	0501fff1 	bgez	t0,1f60 <n31_bgez_test+0x1f60>
    1f9c:	00000000 	nop
    1fa0:	10000005 	b	1fb8 <n31_bgez_test+0x1fb8>
    1fa4:	00000000 	nop
    1fa8:	00000000 	nop
    1fac:	00000021 	move	zero,zero
    1fb0:	3c12f358 	lui	s2,0xf358
    1fb4:	365235d0 	ori	s2,s2,0x35d0
    1fb8:	00000000 	nop
    1fbc:	3c149fb4 	lui	s4,0x9fb4
    1fc0:	36942bd0 	ori	s4,s4,0x2bd0
    1fc4:	1614176d 	bne	s0,s4,7d7c <inst_error>
    1fc8:	00000000 	nop
    1fcc:	00000000 	nop
    1fd0:	3c15f358 	lui	s5,0xf358
    1fd4:	36b535d0 	ori	s5,s5,0x35d0
    1fd8:	16551768 	bne	s2,s5,7d7c <inst_error>
    1fdc:	00000000 	nop
    1fe0:	00000000 	nop
    1fe4:	3c0c5710 	lui	t4,0x5710
    1fe8:	358c959e 	ori	t4,t4,0x959e
    1fec:	3c0d52e7 	lui	t5,0x52e7
    1ff0:	35ad33e8 	ori	t5,t5,0x33e8
    1ff4:	24100000 	li	s0,0
    1ff8:	1000000e 	b	2034 <n31_bgez_test+0x2034>
    1ffc:	24120000 	li	s2,0
    2000:	00000000 	nop
    2004:	3c105710 	lui	s0,0x5710
    2008:	05010012 	bgez	t0,2054 <n31_bgez_test+0x2054>
    200c:	3610959e 	ori	s0,s0,0x959e
    2010:	10000012 	b	205c <n31_bgez_test+0x205c>
    2014:	00000000 	nop
    2018:	00000000 	nop
    201c:	00000021 	move	zero,zero
    2020:	00000021 	move	zero,zero
    2024:	00000021 	move	zero,zero
    2028:	00000021 	move	zero,zero
    202c:	00000021 	move	zero,zero
    2030:	00000021 	move	zero,zero
    2034:	3c083eca 	lui	t0,0x3eca
    2038:	35082bf3 	ori	t0,t0,0x2bf3
    203c:	0501fff1 	bgez	t0,2004 <n31_bgez_test+0x2004>
    2040:	00000000 	nop
    2044:	10000005 	b	205c <n31_bgez_test+0x205c>
    2048:	00000000 	nop
    204c:	00000000 	nop
    2050:	00000021 	move	zero,zero
    2054:	3c1252e7 	lui	s2,0x52e7
    2058:	365233e8 	ori	s2,s2,0x33e8
    205c:	00000000 	nop
    2060:	3c145710 	lui	s4,0x5710
    2064:	3694959e 	ori	s4,s4,0x959e
    2068:	16141744 	bne	s0,s4,7d7c <inst_error>
    206c:	00000000 	nop
    2070:	00000000 	nop
    2074:	3c1552e7 	lui	s5,0x52e7
    2078:	36b533e8 	ori	s5,s5,0x33e8
    207c:	1655173f 	bne	s2,s5,7d7c <inst_error>
    2080:	00000000 	nop
    2084:	00000000 	nop
    2088:	3c0c8cef 	lui	t4,0x8cef
    208c:	358c4f00 	ori	t4,t4,0x4f00
    2090:	3c0d9dd2 	lui	t5,0x9dd2
    2094:	35ad0974 	ori	t5,t5,0x974
    2098:	24100000 	li	s0,0
    209c:	1000000e 	b	20d8 <n31_bgez_test+0x20d8>
    20a0:	24120000 	li	s2,0
    20a4:	00000000 	nop
    20a8:	3c108cef 	lui	s0,0x8cef
    20ac:	05010012 	bgez	t0,20f8 <n31_bgez_test+0x20f8>
    20b0:	36104f00 	ori	s0,s0,0x4f00
    20b4:	10000012 	b	2100 <n31_bgez_test+0x2100>
    20b8:	00000000 	nop
    20bc:	00000000 	nop
    20c0:	00000021 	move	zero,zero
    20c4:	00000021 	move	zero,zero
    20c8:	00000021 	move	zero,zero
    20cc:	00000021 	move	zero,zero
    20d0:	00000021 	move	zero,zero
    20d4:	00000021 	move	zero,zero
    20d8:	3c08357a 	lui	t0,0x357a
    20dc:	35081918 	ori	t0,t0,0x1918
    20e0:	0501fff1 	bgez	t0,20a8 <n31_bgez_test+0x20a8>
    20e4:	00000000 	nop
    20e8:	10000005 	b	2100 <n31_bgez_test+0x2100>
    20ec:	00000000 	nop
    20f0:	00000000 	nop
    20f4:	00000021 	move	zero,zero
    20f8:	3c129dd2 	lui	s2,0x9dd2
    20fc:	36520974 	ori	s2,s2,0x974
    2100:	00000000 	nop
    2104:	3c148cef 	lui	s4,0x8cef
    2108:	36944f00 	ori	s4,s4,0x4f00
    210c:	1614171b 	bne	s0,s4,7d7c <inst_error>
    2110:	00000000 	nop
    2114:	00000000 	nop
    2118:	3c159dd2 	lui	s5,0x9dd2
    211c:	36b50974 	ori	s5,s5,0x974
    2120:	16551716 	bne	s2,s5,7d7c <inst_error>
    2124:	00000000 	nop
    2128:	00000000 	nop
    212c:	3c0c258f 	lui	t4,0x258f
    2130:	358c46be 	ori	t4,t4,0x46be
    2134:	3c0dadfb 	lui	t5,0xadfb
    2138:	35adf618 	ori	t5,t5,0xf618
    213c:	24100000 	li	s0,0
    2140:	1000000e 	b	217c <n31_bgez_test+0x217c>
    2144:	24120000 	li	s2,0
    2148:	00000000 	nop
    214c:	3c10258f 	lui	s0,0x258f
    2150:	05010012 	bgez	t0,219c <n31_bgez_test+0x219c>
    2154:	361046be 	ori	s0,s0,0x46be
    2158:	10000012 	b	21a4 <n31_bgez_test+0x21a4>
    215c:	00000000 	nop
    2160:	00000000 	nop
    2164:	00000021 	move	zero,zero
    2168:	00000021 	move	zero,zero
    216c:	00000021 	move	zero,zero
    2170:	00000021 	move	zero,zero
    2174:	00000021 	move	zero,zero
    2178:	00000021 	move	zero,zero
    217c:	3c089774 	lui	t0,0x9774
    2180:	35081780 	ori	t0,t0,0x1780
    2184:	0501fff1 	bgez	t0,214c <n31_bgez_test+0x214c>
    2188:	00000000 	nop
    218c:	10000005 	b	21a4 <n31_bgez_test+0x21a4>
    2190:	00000000 	nop
    2194:	00000000 	nop
    2198:	00000021 	move	zero,zero
    219c:	3c12adfb 	lui	s2,0xadfb
    21a0:	3652f618 	ori	s2,s2,0xf618
    21a4:	00000000 	nop
    21a8:	24140000 	li	s4,0
    21ac:	161416f3 	bne	s0,s4,7d7c <inst_error>
    21b0:	00000000 	nop
    21b4:	00000000 	nop
    21b8:	24150000 	li	s5,0
    21bc:	165516ef 	bne	s2,s5,7d7c <inst_error>
    21c0:	00000000 	nop
    21c4:	00000000 	nop
    21c8:	3c0c43b5 	lui	t4,0x43b5
    21cc:	358cb7c4 	ori	t4,t4,0xb7c4
    21d0:	3c0d9a68 	lui	t5,0x9a68
    21d4:	35ad0572 	ori	t5,t5,0x572
    21d8:	24100000 	li	s0,0
    21dc:	1000000e 	b	2218 <n31_bgez_test+0x2218>
    21e0:	24120000 	li	s2,0
    21e4:	00000000 	nop
    21e8:	3c1043b5 	lui	s0,0x43b5
    21ec:	05010012 	bgez	t0,2238 <n31_bgez_test+0x2238>
    21f0:	3610b7c4 	ori	s0,s0,0xb7c4
    21f4:	10000012 	b	2240 <n31_bgez_test+0x2240>
    21f8:	00000000 	nop
    21fc:	00000000 	nop
    2200:	00000021 	move	zero,zero
    2204:	00000021 	move	zero,zero
    2208:	00000021 	move	zero,zero
    220c:	00000021 	move	zero,zero
    2210:	00000021 	move	zero,zero
    2214:	00000021 	move	zero,zero
    2218:	3c080a50 	lui	t0,0xa50
    221c:	35086980 	ori	t0,t0,0x6980
    2220:	0501fff1 	bgez	t0,21e8 <n31_bgez_test+0x21e8>
    2224:	00000000 	nop
    2228:	10000005 	b	2240 <n31_bgez_test+0x2240>
    222c:	00000000 	nop
    2230:	00000000 	nop
    2234:	00000021 	move	zero,zero
    2238:	3c129a68 	lui	s2,0x9a68
    223c:	36520572 	ori	s2,s2,0x572
    2240:	00000000 	nop
    2244:	3c1443b5 	lui	s4,0x43b5
    2248:	3694b7c4 	ori	s4,s4,0xb7c4
    224c:	161416cb 	bne	s0,s4,7d7c <inst_error>
    2250:	00000000 	nop
    2254:	00000000 	nop
    2258:	3c159a68 	lui	s5,0x9a68
    225c:	36b50572 	ori	s5,s5,0x572
    2260:	165516c6 	bne	s2,s5,7d7c <inst_error>
    2264:	00000000 	nop
    2268:	00000000 	nop
    226c:	3c0c5817 	lui	t4,0x5817
    2270:	358cb258 	ori	t4,t4,0xb258
    2274:	3c0d5b02 	lui	t5,0x5b02
    2278:	35ad0520 	ori	t5,t5,0x520
    227c:	24100000 	li	s0,0
    2280:	1000000e 	b	22bc <n31_bgez_test+0x22bc>
    2284:	24120000 	li	s2,0
    2288:	00000000 	nop
    228c:	3c105817 	lui	s0,0x5817
    2290:	05010012 	bgez	t0,22dc <n31_bgez_test+0x22dc>
    2294:	3610b258 	ori	s0,s0,0xb258
    2298:	10000012 	b	22e4 <n31_bgez_test+0x22e4>
    229c:	00000000 	nop
    22a0:	00000000 	nop
    22a4:	00000021 	move	zero,zero
    22a8:	00000021 	move	zero,zero
    22ac:	00000021 	move	zero,zero
    22b0:	00000021 	move	zero,zero
    22b4:	00000021 	move	zero,zero
    22b8:	00000021 	move	zero,zero
    22bc:	3c088446 	lui	t0,0x8446
    22c0:	35085c90 	ori	t0,t0,0x5c90
    22c4:	0501fff1 	bgez	t0,228c <n31_bgez_test+0x228c>
    22c8:	00000000 	nop
    22cc:	10000005 	b	22e4 <n31_bgez_test+0x22e4>
    22d0:	00000000 	nop
    22d4:	00000000 	nop
    22d8:	00000021 	move	zero,zero
    22dc:	3c125b02 	lui	s2,0x5b02
    22e0:	36520520 	ori	s2,s2,0x520
    22e4:	00000000 	nop
    22e8:	24140000 	li	s4,0
    22ec:	161416a3 	bne	s0,s4,7d7c <inst_error>
    22f0:	00000000 	nop
    22f4:	00000000 	nop
    22f8:	24150000 	li	s5,0
    22fc:	1655169f 	bne	s2,s5,7d7c <inst_error>
    2300:	00000000 	nop
    2304:	00000000 	nop
    2308:	3c0c4343 	lui	t4,0x4343
    230c:	358c3ff0 	ori	t4,t4,0x3ff0
    2310:	3c0d67c1 	lui	t5,0x67c1
    2314:	35ad1d59 	ori	t5,t5,0x1d59
    2318:	24100000 	li	s0,0
    231c:	1000000e 	b	2358 <n31_bgez_test+0x2358>
    2320:	24120000 	li	s2,0
    2324:	00000000 	nop
    2328:	3c104343 	lui	s0,0x4343
    232c:	05010012 	bgez	t0,2378 <n31_bgez_test+0x2378>
    2330:	36103ff0 	ori	s0,s0,0x3ff0
    2334:	10000012 	b	2380 <n31_bgez_test+0x2380>
    2338:	00000000 	nop
    233c:	00000000 	nop
    2340:	00000021 	move	zero,zero
    2344:	00000021 	move	zero,zero
    2348:	00000021 	move	zero,zero
    234c:	00000021 	move	zero,zero
    2350:	00000021 	move	zero,zero
    2354:	00000021 	move	zero,zero
    2358:	3c082aff 	lui	t0,0x2aff
    235c:	35087bac 	ori	t0,t0,0x7bac
    2360:	0501fff1 	bgez	t0,2328 <n31_bgez_test+0x2328>
    2364:	00000000 	nop
    2368:	10000005 	b	2380 <n31_bgez_test+0x2380>
    236c:	00000000 	nop
    2370:	00000000 	nop
    2374:	00000021 	move	zero,zero
    2378:	3c1267c1 	lui	s2,0x67c1
    237c:	36521d59 	ori	s2,s2,0x1d59
    2380:	00000000 	nop
    2384:	3c144343 	lui	s4,0x4343
    2388:	36943ff0 	ori	s4,s4,0x3ff0
    238c:	1614167b 	bne	s0,s4,7d7c <inst_error>
    2390:	00000000 	nop
    2394:	00000000 	nop
    2398:	3c1567c1 	lui	s5,0x67c1
    239c:	36b51d59 	ori	s5,s5,0x1d59
    23a0:	16551676 	bne	s2,s5,7d7c <inst_error>
    23a4:	00000000 	nop
    23a8:	00000000 	nop
    23ac:	3c0c445a 	lui	t4,0x445a
    23b0:	358cb3c8 	ori	t4,t4,0xb3c8
    23b4:	3c0d1c80 	lui	t5,0x1c80
    23b8:	35adb925 	ori	t5,t5,0xb925
    23bc:	24100000 	li	s0,0
    23c0:	1000000e 	b	23fc <n31_bgez_test+0x23fc>
    23c4:	24120000 	li	s2,0
    23c8:	00000000 	nop
    23cc:	3c10445a 	lui	s0,0x445a
    23d0:	05010012 	bgez	t0,241c <n31_bgez_test+0x241c>
    23d4:	3610b3c8 	ori	s0,s0,0xb3c8
    23d8:	10000012 	b	2424 <n31_bgez_test+0x2424>
    23dc:	00000000 	nop
    23e0:	00000000 	nop
    23e4:	00000021 	move	zero,zero
    23e8:	00000021 	move	zero,zero
    23ec:	00000021 	move	zero,zero
    23f0:	00000021 	move	zero,zero
    23f4:	00000021 	move	zero,zero
    23f8:	00000021 	move	zero,zero
    23fc:	3c08ab80 	lui	t0,0xab80
    2400:	3508e9ef 	ori	t0,t0,0xe9ef
    2404:	0501fff1 	bgez	t0,23cc <n31_bgez_test+0x23cc>
    2408:	00000000 	nop
    240c:	10000005 	b	2424 <n31_bgez_test+0x2424>
    2410:	00000000 	nop
    2414:	00000000 	nop
    2418:	00000021 	move	zero,zero
    241c:	3c121c80 	lui	s2,0x1c80
    2420:	3652b925 	ori	s2,s2,0xb925
    2424:	00000000 	nop
    2428:	24140000 	li	s4,0
    242c:	16141653 	bne	s0,s4,7d7c <inst_error>
    2430:	00000000 	nop
    2434:	00000000 	nop
    2438:	24150000 	li	s5,0
    243c:	1655164f 	bne	s2,s5,7d7c <inst_error>
    2440:	00000000 	nop
    2444:	00000000 	nop
    2448:	3c0c66ed 	lui	t4,0x66ed
    244c:	358c5fe4 	ori	t4,t4,0x5fe4
    2450:	3c0dbef0 	lui	t5,0xbef0
    2454:	35ad01d4 	ori	t5,t5,0x1d4
    2458:	24100000 	li	s0,0
    245c:	1000000e 	b	2498 <n31_bgez_test+0x2498>
    2460:	24120000 	li	s2,0
    2464:	00000000 	nop
    2468:	3c1066ed 	lui	s0,0x66ed
    246c:	05010012 	bgez	t0,24b8 <n31_bgez_test+0x24b8>
    2470:	36105fe4 	ori	s0,s0,0x5fe4
    2474:	10000012 	b	24c0 <n31_bgez_test+0x24c0>
    2478:	00000000 	nop
    247c:	00000000 	nop
    2480:	00000021 	move	zero,zero
    2484:	00000021 	move	zero,zero
    2488:	00000021 	move	zero,zero
    248c:	00000021 	move	zero,zero
    2490:	00000021 	move	zero,zero
    2494:	00000021 	move	zero,zero
    2498:	3c087985 	lui	t0,0x7985
    249c:	3508d318 	ori	t0,t0,0xd318
    24a0:	0501fff1 	bgez	t0,2468 <n31_bgez_test+0x2468>
    24a4:	00000000 	nop
    24a8:	10000005 	b	24c0 <n31_bgez_test+0x24c0>
    24ac:	00000000 	nop
    24b0:	00000000 	nop
    24b4:	00000021 	move	zero,zero
    24b8:	3c12bef0 	lui	s2,0xbef0
    24bc:	365201d4 	ori	s2,s2,0x1d4
    24c0:	00000000 	nop
    24c4:	3c1466ed 	lui	s4,0x66ed
    24c8:	36945fe4 	ori	s4,s4,0x5fe4
    24cc:	1614162b 	bne	s0,s4,7d7c <inst_error>
    24d0:	00000000 	nop
    24d4:	00000000 	nop
    24d8:	3c15bef0 	lui	s5,0xbef0
    24dc:	36b501d4 	ori	s5,s5,0x1d4
    24e0:	16551626 	bne	s2,s5,7d7c <inst_error>
    24e4:	00000000 	nop
    24e8:	00000000 	nop
    24ec:	3c0ce3b6 	lui	t4,0xe3b6
    24f0:	358c95da 	ori	t4,t4,0x95da
    24f4:	3c0d0df2 	lui	t5,0xdf2
    24f8:	35ad7564 	ori	t5,t5,0x7564
    24fc:	24100000 	li	s0,0
    2500:	1000000e 	b	253c <n31_bgez_test+0x253c>
    2504:	24120000 	li	s2,0
    2508:	00000000 	nop
    250c:	3c10e3b6 	lui	s0,0xe3b6
    2510:	05010012 	bgez	t0,255c <n31_bgez_test+0x255c>
    2514:	361095da 	ori	s0,s0,0x95da
    2518:	10000012 	b	2564 <n31_bgez_test+0x2564>
    251c:	00000000 	nop
    2520:	00000000 	nop
    2524:	00000021 	move	zero,zero
    2528:	00000021 	move	zero,zero
    252c:	00000021 	move	zero,zero
    2530:	00000021 	move	zero,zero
    2534:	00000021 	move	zero,zero
    2538:	00000021 	move	zero,zero
    253c:	3c08ab5b 	lui	t0,0xab5b
    2540:	3508718d 	ori	t0,t0,0x718d
    2544:	0501fff1 	bgez	t0,250c <n31_bgez_test+0x250c>
    2548:	00000000 	nop
    254c:	10000005 	b	2564 <n31_bgez_test+0x2564>
    2550:	00000000 	nop
    2554:	00000000 	nop
    2558:	00000021 	move	zero,zero
    255c:	3c120df2 	lui	s2,0xdf2
    2560:	36527564 	ori	s2,s2,0x7564
    2564:	00000000 	nop
    2568:	24140000 	li	s4,0
    256c:	16141603 	bne	s0,s4,7d7c <inst_error>
    2570:	00000000 	nop
    2574:	00000000 	nop
    2578:	24150000 	li	s5,0
    257c:	165515ff 	bne	s2,s5,7d7c <inst_error>
    2580:	00000000 	nop
    2584:	00000000 	nop
    2588:	3c0c3c5e 	lui	t4,0x3c5e
    258c:	358c6aee 	ori	t4,t4,0x6aee
    2590:	3c0df830 	lui	t5,0xf830
    2594:	35ad0674 	ori	t5,t5,0x674
    2598:	24100000 	li	s0,0
    259c:	1000000e 	b	25d8 <n31_bgez_test+0x25d8>
    25a0:	24120000 	li	s2,0
    25a4:	00000000 	nop
    25a8:	3c103c5e 	lui	s0,0x3c5e
    25ac:	05010012 	bgez	t0,25f8 <n31_bgez_test+0x25f8>
    25b0:	36106aee 	ori	s0,s0,0x6aee
    25b4:	10000012 	b	2600 <n31_bgez_test+0x2600>
    25b8:	00000000 	nop
    25bc:	00000000 	nop
    25c0:	00000021 	move	zero,zero
    25c4:	00000021 	move	zero,zero
    25c8:	00000021 	move	zero,zero
    25cc:	00000021 	move	zero,zero
    25d0:	00000021 	move	zero,zero
    25d4:	00000021 	move	zero,zero
    25d8:	3c084102 	lui	t0,0x4102
    25dc:	35082200 	ori	t0,t0,0x2200
    25e0:	0501fff1 	bgez	t0,25a8 <n31_bgez_test+0x25a8>
    25e4:	00000000 	nop
    25e8:	10000005 	b	2600 <n31_bgez_test+0x2600>
    25ec:	00000000 	nop
    25f0:	00000000 	nop
    25f4:	00000021 	move	zero,zero
    25f8:	3c12f830 	lui	s2,0xf830
    25fc:	36520674 	ori	s2,s2,0x674
    2600:	00000000 	nop
    2604:	3c143c5e 	lui	s4,0x3c5e
    2608:	36946aee 	ori	s4,s4,0x6aee
    260c:	161415db 	bne	s0,s4,7d7c <inst_error>
    2610:	00000000 	nop
    2614:	00000000 	nop
    2618:	3c15f830 	lui	s5,0xf830
    261c:	36b50674 	ori	s5,s5,0x674
    2620:	165515d6 	bne	s2,s5,7d7c <inst_error>
    2624:	00000000 	nop
    2628:	00000000 	nop
    262c:	3c0cc3da 	lui	t4,0xc3da
    2630:	358c5df8 	ori	t4,t4,0x5df8
    2634:	3c0d2b6f 	lui	t5,0x2b6f
    2638:	35ad6b9d 	ori	t5,t5,0x6b9d
    263c:	24100000 	li	s0,0
    2640:	1000000e 	b	267c <n31_bgez_test+0x267c>
    2644:	24120000 	li	s2,0
    2648:	00000000 	nop
    264c:	3c10c3da 	lui	s0,0xc3da
    2650:	05010012 	bgez	t0,269c <n31_bgez_test+0x269c>
    2654:	36105df8 	ori	s0,s0,0x5df8
    2658:	10000012 	b	26a4 <n31_bgez_test+0x26a4>
    265c:	00000000 	nop
    2660:	00000000 	nop
    2664:	00000021 	move	zero,zero
    2668:	00000021 	move	zero,zero
    266c:	00000021 	move	zero,zero
    2670:	00000021 	move	zero,zero
    2674:	00000021 	move	zero,zero
    2678:	00000021 	move	zero,zero
    267c:	3c08d3a4 	lui	t0,0xd3a4
    2680:	35088078 	ori	t0,t0,0x8078
    2684:	0501fff1 	bgez	t0,264c <n31_bgez_test+0x264c>
    2688:	00000000 	nop
    268c:	10000005 	b	26a4 <n31_bgez_test+0x26a4>
    2690:	00000000 	nop
    2694:	00000000 	nop
    2698:	00000021 	move	zero,zero
    269c:	3c122b6f 	lui	s2,0x2b6f
    26a0:	36526b9d 	ori	s2,s2,0x6b9d
    26a4:	00000000 	nop
    26a8:	24140000 	li	s4,0
    26ac:	161415b3 	bne	s0,s4,7d7c <inst_error>
    26b0:	00000000 	nop
    26b4:	00000000 	nop
    26b8:	24150000 	li	s5,0
    26bc:	165515af 	bne	s2,s5,7d7c <inst_error>
    26c0:	00000000 	nop
    26c4:	00000000 	nop
    26c8:	3c0c68d8 	lui	t4,0x68d8
    26cc:	358cc134 	ori	t4,t4,0xc134
    26d0:	3c0dbf66 	lui	t5,0xbf66
    26d4:	35ad2dba 	ori	t5,t5,0x2dba
    26d8:	24100000 	li	s0,0
    26dc:	1000000e 	b	2718 <n31_bgez_test+0x2718>
    26e0:	24120000 	li	s2,0
    26e4:	00000000 	nop
    26e8:	3c1068d8 	lui	s0,0x68d8
    26ec:	05010012 	bgez	t0,2738 <n31_bgez_test+0x2738>
    26f0:	3610c134 	ori	s0,s0,0xc134
    26f4:	10000012 	b	2740 <n31_bgez_test+0x2740>
    26f8:	00000000 	nop
    26fc:	00000000 	nop
    2700:	00000021 	move	zero,zero
    2704:	00000021 	move	zero,zero
    2708:	00000021 	move	zero,zero
    270c:	00000021 	move	zero,zero
    2710:	00000021 	move	zero,zero
    2714:	00000021 	move	zero,zero
    2718:	3c084a81 	lui	t0,0x4a81
    271c:	350822d8 	ori	t0,t0,0x22d8
    2720:	0501fff1 	bgez	t0,26e8 <n31_bgez_test+0x26e8>
    2724:	00000000 	nop
    2728:	10000005 	b	2740 <n31_bgez_test+0x2740>
    272c:	00000000 	nop
    2730:	00000000 	nop
    2734:	00000021 	move	zero,zero
    2738:	3c12bf66 	lui	s2,0xbf66
    273c:	36522dba 	ori	s2,s2,0x2dba
    2740:	00000000 	nop
    2744:	3c1468d8 	lui	s4,0x68d8
    2748:	3694c134 	ori	s4,s4,0xc134
    274c:	1614158b 	bne	s0,s4,7d7c <inst_error>
    2750:	00000000 	nop
    2754:	00000000 	nop
    2758:	3c15bf66 	lui	s5,0xbf66
    275c:	36b52dba 	ori	s5,s5,0x2dba
    2760:	16551586 	bne	s2,s5,7d7c <inst_error>
    2764:	00000000 	nop
    2768:	00000000 	nop
    276c:	3c0c49c2 	lui	t4,0x49c2
    2770:	358c236c 	ori	t4,t4,0x236c
    2774:	3c0de9b0 	lui	t5,0xe9b0
    2778:	35ad4f03 	ori	t5,t5,0x4f03
    277c:	24100000 	li	s0,0
    2780:	1000000e 	b	27bc <n31_bgez_test+0x27bc>
    2784:	24120000 	li	s2,0
    2788:	00000000 	nop
    278c:	3c1049c2 	lui	s0,0x49c2
    2790:	05010012 	bgez	t0,27dc <n31_bgez_test+0x27dc>
    2794:	3610236c 	ori	s0,s0,0x236c
    2798:	10000012 	b	27e4 <n31_bgez_test+0x27e4>
    279c:	00000000 	nop
    27a0:	00000000 	nop
    27a4:	00000021 	move	zero,zero
    27a8:	00000021 	move	zero,zero
    27ac:	00000021 	move	zero,zero
    27b0:	00000021 	move	zero,zero
    27b4:	00000021 	move	zero,zero
    27b8:	00000021 	move	zero,zero
    27bc:	3c087073 	lui	t0,0x7073
    27c0:	3508e504 	ori	t0,t0,0xe504
    27c4:	0501fff1 	bgez	t0,278c <n31_bgez_test+0x278c>
    27c8:	00000000 	nop
    27cc:	10000005 	b	27e4 <n31_bgez_test+0x27e4>
    27d0:	00000000 	nop
    27d4:	00000000 	nop
    27d8:	00000021 	move	zero,zero
    27dc:	3c12e9b0 	lui	s2,0xe9b0
    27e0:	36524f03 	ori	s2,s2,0x4f03
    27e4:	00000000 	nop
    27e8:	3c1449c2 	lui	s4,0x49c2
    27ec:	3694236c 	ori	s4,s4,0x236c
    27f0:	16141562 	bne	s0,s4,7d7c <inst_error>
    27f4:	00000000 	nop
    27f8:	00000000 	nop
    27fc:	3c15e9b0 	lui	s5,0xe9b0
    2800:	36b54f03 	ori	s5,s5,0x4f03
    2804:	1655155d 	bne	s2,s5,7d7c <inst_error>
    2808:	00000000 	nop
    280c:	00000000 	nop
    2810:	3c0c79d5 	lui	t4,0x79d5
    2814:	358c2590 	ori	t4,t4,0x2590
    2818:	3c0d3ad2 	lui	t5,0x3ad2
    281c:	35ad48bd 	ori	t5,t5,0x48bd
    2820:	24100000 	li	s0,0
    2824:	1000000e 	b	2860 <n31_bgez_test+0x2860>
    2828:	24120000 	li	s2,0
    282c:	00000000 	nop
    2830:	3c1079d5 	lui	s0,0x79d5
    2834:	05010012 	bgez	t0,2880 <n31_bgez_test+0x2880>
    2838:	36102590 	ori	s0,s0,0x2590
    283c:	10000012 	b	2888 <n31_bgez_test+0x2888>
    2840:	00000000 	nop
    2844:	00000000 	nop
    2848:	00000021 	move	zero,zero
    284c:	00000021 	move	zero,zero
    2850:	00000021 	move	zero,zero
    2854:	00000021 	move	zero,zero
    2858:	00000021 	move	zero,zero
    285c:	00000021 	move	zero,zero
    2860:	3c08f76b 	lui	t0,0xf76b
    2864:	35081185 	ori	t0,t0,0x1185
    2868:	0501fff1 	bgez	t0,2830 <n31_bgez_test+0x2830>
    286c:	00000000 	nop
    2870:	10000005 	b	2888 <n31_bgez_test+0x2888>
    2874:	00000000 	nop
    2878:	00000000 	nop
    287c:	00000021 	move	zero,zero
    2880:	3c123ad2 	lui	s2,0x3ad2
    2884:	365248bd 	ori	s2,s2,0x48bd
    2888:	00000000 	nop
    288c:	24140000 	li	s4,0
    2890:	1614153a 	bne	s0,s4,7d7c <inst_error>
    2894:	00000000 	nop
    2898:	00000000 	nop
    289c:	24150000 	li	s5,0
    28a0:	16551536 	bne	s2,s5,7d7c <inst_error>
    28a4:	00000000 	nop
    28a8:	00000000 	nop
    28ac:	3c0c7603 	lui	t4,0x7603
    28b0:	358cbd5e 	ori	t4,t4,0xbd5e
    28b4:	3c0ddffa 	lui	t5,0xdffa
    28b8:	35adac7a 	ori	t5,t5,0xac7a
    28bc:	24100000 	li	s0,0
    28c0:	1000000e 	b	28fc <n31_bgez_test+0x28fc>
    28c4:	24120000 	li	s2,0
    28c8:	00000000 	nop
    28cc:	3c107603 	lui	s0,0x7603
    28d0:	05010012 	bgez	t0,291c <n31_bgez_test+0x291c>
    28d4:	3610bd5e 	ori	s0,s0,0xbd5e
    28d8:	10000012 	b	2924 <n31_bgez_test+0x2924>
    28dc:	00000000 	nop
    28e0:	00000000 	nop
    28e4:	00000021 	move	zero,zero
    28e8:	00000021 	move	zero,zero
    28ec:	00000021 	move	zero,zero
    28f0:	00000021 	move	zero,zero
    28f4:	00000021 	move	zero,zero
    28f8:	00000021 	move	zero,zero
    28fc:	3c086b02 	lui	t0,0x6b02
    2900:	35083600 	ori	t0,t0,0x3600
    2904:	0501fff1 	bgez	t0,28cc <n31_bgez_test+0x28cc>
    2908:	00000000 	nop
    290c:	10000005 	b	2924 <n31_bgez_test+0x2924>
    2910:	00000000 	nop
    2914:	00000000 	nop
    2918:	00000021 	move	zero,zero
    291c:	3c12dffa 	lui	s2,0xdffa
    2920:	3652ac7a 	ori	s2,s2,0xac7a
    2924:	00000000 	nop
    2928:	3c147603 	lui	s4,0x7603
    292c:	3694bd5e 	ori	s4,s4,0xbd5e
    2930:	16141512 	bne	s0,s4,7d7c <inst_error>
    2934:	00000000 	nop
    2938:	00000000 	nop
    293c:	3c15dffa 	lui	s5,0xdffa
    2940:	36b5ac7a 	ori	s5,s5,0xac7a
    2944:	1655150d 	bne	s2,s5,7d7c <inst_error>
    2948:	00000000 	nop
    294c:	00000000 	nop
    2950:	3c0cd313 	lui	t4,0xd313
    2954:	358cd427 	ori	t4,t4,0xd427
    2958:	3c0d2b4d 	lui	t5,0x2b4d
    295c:	35ada5a0 	ori	t5,t5,0xa5a0
    2960:	24100000 	li	s0,0
    2964:	1000000e 	b	29a0 <n31_bgez_test+0x29a0>
    2968:	24120000 	li	s2,0
    296c:	00000000 	nop
    2970:	3c10d313 	lui	s0,0xd313
    2974:	05010012 	bgez	t0,29c0 <n31_bgez_test+0x29c0>
    2978:	3610d427 	ori	s0,s0,0xd427
    297c:	10000012 	b	29c8 <n31_bgez_test+0x29c8>
    2980:	00000000 	nop
    2984:	00000000 	nop
    2988:	00000021 	move	zero,zero
    298c:	00000021 	move	zero,zero
    2990:	00000021 	move	zero,zero
    2994:	00000021 	move	zero,zero
    2998:	00000021 	move	zero,zero
    299c:	00000021 	move	zero,zero
    29a0:	3c0887d8 	lui	t0,0x87d8
    29a4:	35081be4 	ori	t0,t0,0x1be4
    29a8:	0501fff1 	bgez	t0,2970 <n31_bgez_test+0x2970>
    29ac:	00000000 	nop
    29b0:	10000005 	b	29c8 <n31_bgez_test+0x29c8>
    29b4:	00000000 	nop
    29b8:	00000000 	nop
    29bc:	00000021 	move	zero,zero
    29c0:	3c122b4d 	lui	s2,0x2b4d
    29c4:	3652a5a0 	ori	s2,s2,0xa5a0
    29c8:	00000000 	nop
    29cc:	24140000 	li	s4,0
    29d0:	161414ea 	bne	s0,s4,7d7c <inst_error>
    29d4:	00000000 	nop
    29d8:	00000000 	nop
    29dc:	24150000 	li	s5,0
    29e0:	165514e6 	bne	s2,s5,7d7c <inst_error>
    29e4:	00000000 	nop
    29e8:	00000000 	nop
    29ec:	3c0cdead 	lui	t4,0xdead
    29f0:	358c2f70 	ori	t4,t4,0x2f70
    29f4:	3c0dbfdf 	lui	t5,0xbfdf
    29f8:	35ad938e 	ori	t5,t5,0x938e
    29fc:	24100000 	li	s0,0
    2a00:	1000000e 	b	2a3c <n31_bgez_test+0x2a3c>
    2a04:	24120000 	li	s2,0
    2a08:	00000000 	nop
    2a0c:	3c10dead 	lui	s0,0xdead
    2a10:	05010012 	bgez	t0,2a5c <n31_bgez_test+0x2a5c>
    2a14:	36102f70 	ori	s0,s0,0x2f70
    2a18:	10000012 	b	2a64 <n31_bgez_test+0x2a64>
    2a1c:	00000000 	nop
    2a20:	00000000 	nop
    2a24:	00000021 	move	zero,zero
    2a28:	00000021 	move	zero,zero
    2a2c:	00000021 	move	zero,zero
    2a30:	00000021 	move	zero,zero
    2a34:	00000021 	move	zero,zero
    2a38:	00000021 	move	zero,zero
    2a3c:	3c082c6f 	lui	t0,0x2c6f
    2a40:	35082563 	ori	t0,t0,0x2563
    2a44:	0501fff1 	bgez	t0,2a0c <n31_bgez_test+0x2a0c>
    2a48:	00000000 	nop
    2a4c:	10000005 	b	2a64 <n31_bgez_test+0x2a64>
    2a50:	00000000 	nop
    2a54:	00000000 	nop
    2a58:	00000021 	move	zero,zero
    2a5c:	3c12bfdf 	lui	s2,0xbfdf
    2a60:	3652938e 	ori	s2,s2,0x938e
    2a64:	00000000 	nop
    2a68:	3c14dead 	lui	s4,0xdead
    2a6c:	36942f70 	ori	s4,s4,0x2f70
    2a70:	161414c2 	bne	s0,s4,7d7c <inst_error>
    2a74:	00000000 	nop
    2a78:	00000000 	nop
    2a7c:	3c15bfdf 	lui	s5,0xbfdf
    2a80:	36b5938e 	ori	s5,s5,0x938e
    2a84:	165514bd 	bne	s2,s5,7d7c <inst_error>
    2a88:	00000000 	nop
    2a8c:	00000000 	nop
    2a90:	3c0c2ecc 	lui	t4,0x2ecc
    2a94:	358ca870 	ori	t4,t4,0xa870
    2a98:	3c0d210f 	lui	t5,0x210f
    2a9c:	35ad878e 	ori	t5,t5,0x878e
    2aa0:	24100000 	li	s0,0
    2aa4:	1000000e 	b	2ae0 <n31_bgez_test+0x2ae0>
    2aa8:	24120000 	li	s2,0
    2aac:	00000000 	nop
    2ab0:	3c102ecc 	lui	s0,0x2ecc
    2ab4:	05010012 	bgez	t0,2b00 <n31_bgez_test+0x2b00>
    2ab8:	3610a870 	ori	s0,s0,0xa870
    2abc:	10000012 	b	2b08 <n31_bgez_test+0x2b08>
    2ac0:	00000000 	nop
    2ac4:	00000000 	nop
    2ac8:	00000021 	move	zero,zero
    2acc:	00000021 	move	zero,zero
    2ad0:	00000021 	move	zero,zero
    2ad4:	00000021 	move	zero,zero
    2ad8:	00000021 	move	zero,zero
    2adc:	00000021 	move	zero,zero
    2ae0:	3c08b562 	lui	t0,0xb562
    2ae4:	350883e0 	ori	t0,t0,0x83e0
    2ae8:	0501fff1 	bgez	t0,2ab0 <n31_bgez_test+0x2ab0>
    2aec:	00000000 	nop
    2af0:	10000005 	b	2b08 <n31_bgez_test+0x2b08>
    2af4:	00000000 	nop
    2af8:	00000000 	nop
    2afc:	00000021 	move	zero,zero
    2b00:	3c12210f 	lui	s2,0x210f
    2b04:	3652878e 	ori	s2,s2,0x878e
    2b08:	00000000 	nop
    2b0c:	24140000 	li	s4,0
    2b10:	1614149a 	bne	s0,s4,7d7c <inst_error>
    2b14:	00000000 	nop
    2b18:	00000000 	nop
    2b1c:	24150000 	li	s5,0
    2b20:	16551496 	bne	s2,s5,7d7c <inst_error>
    2b24:	00000000 	nop
    2b28:	00000000 	nop
    2b2c:	3c0c5cf3 	lui	t4,0x5cf3
    2b30:	358cc4c1 	ori	t4,t4,0xc4c1
    2b34:	3c0d56d7 	lui	t5,0x56d7
    2b38:	35ad39f8 	ori	t5,t5,0x39f8
    2b3c:	24100000 	li	s0,0
    2b40:	1000000e 	b	2b7c <n31_bgez_test+0x2b7c>
    2b44:	24120000 	li	s2,0
    2b48:	00000000 	nop
    2b4c:	3c105cf3 	lui	s0,0x5cf3
    2b50:	05010012 	bgez	t0,2b9c <n31_bgez_test+0x2b9c>
    2b54:	3610c4c1 	ori	s0,s0,0xc4c1
    2b58:	10000012 	b	2ba4 <n31_bgez_test+0x2ba4>
    2b5c:	00000000 	nop
    2b60:	00000000 	nop
    2b64:	00000021 	move	zero,zero
    2b68:	00000021 	move	zero,zero
    2b6c:	00000021 	move	zero,zero
    2b70:	00000021 	move	zero,zero
    2b74:	00000021 	move	zero,zero
    2b78:	00000021 	move	zero,zero
    2b7c:	3c08b3aa 	lui	t0,0xb3aa
    2b80:	3508e097 	ori	t0,t0,0xe097
    2b84:	0501fff1 	bgez	t0,2b4c <n31_bgez_test+0x2b4c>
    2b88:	00000000 	nop
    2b8c:	10000005 	b	2ba4 <n31_bgez_test+0x2ba4>
    2b90:	00000000 	nop
    2b94:	00000000 	nop
    2b98:	00000021 	move	zero,zero
    2b9c:	3c1256d7 	lui	s2,0x56d7
    2ba0:	365239f8 	ori	s2,s2,0x39f8
    2ba4:	00000000 	nop
    2ba8:	24140000 	li	s4,0
    2bac:	16141473 	bne	s0,s4,7d7c <inst_error>
    2bb0:	00000000 	nop
    2bb4:	00000000 	nop
    2bb8:	24150000 	li	s5,0
    2bbc:	1655146f 	bne	s2,s5,7d7c <inst_error>
    2bc0:	00000000 	nop
    2bc4:	00000000 	nop
    2bc8:	3c0c1e69 	lui	t4,0x1e69
    2bcc:	358c55c0 	ori	t4,t4,0x55c0
    2bd0:	3c0df7cc 	lui	t5,0xf7cc
    2bd4:	35ad5b74 	ori	t5,t5,0x5b74
    2bd8:	24100000 	li	s0,0
    2bdc:	1000000e 	b	2c18 <n31_bgez_test+0x2c18>
    2be0:	24120000 	li	s2,0
    2be4:	00000000 	nop
    2be8:	3c101e69 	lui	s0,0x1e69
    2bec:	05010012 	bgez	t0,2c38 <n31_bgez_test+0x2c38>
    2bf0:	361055c0 	ori	s0,s0,0x55c0
    2bf4:	10000012 	b	2c40 <n31_bgez_test+0x2c40>
    2bf8:	00000000 	nop
    2bfc:	00000000 	nop
    2c00:	00000021 	move	zero,zero
    2c04:	00000021 	move	zero,zero
    2c08:	00000021 	move	zero,zero
    2c0c:	00000021 	move	zero,zero
    2c10:	00000021 	move	zero,zero
    2c14:	00000021 	move	zero,zero
    2c18:	3c08de31 	lui	t0,0xde31
    2c1c:	35085a6a 	ori	t0,t0,0x5a6a
    2c20:	0501fff1 	bgez	t0,2be8 <n31_bgez_test+0x2be8>
    2c24:	00000000 	nop
    2c28:	10000005 	b	2c40 <n31_bgez_test+0x2c40>
    2c2c:	00000000 	nop
    2c30:	00000000 	nop
    2c34:	00000021 	move	zero,zero
    2c38:	3c12f7cc 	lui	s2,0xf7cc
    2c3c:	36525b74 	ori	s2,s2,0x5b74
    2c40:	00000000 	nop
    2c44:	24140000 	li	s4,0
    2c48:	1614144c 	bne	s0,s4,7d7c <inst_error>
    2c4c:	00000000 	nop
    2c50:	00000000 	nop
    2c54:	24150000 	li	s5,0
    2c58:	16551448 	bne	s2,s5,7d7c <inst_error>
    2c5c:	00000000 	nop
    2c60:	00000000 	nop
    2c64:	3c0c656c 	lui	t4,0x656c
    2c68:	358cebbc 	ori	t4,t4,0xebbc
    2c6c:	3c0d2cfe 	lui	t5,0x2cfe
    2c70:	35ada380 	ori	t5,t5,0xa380
    2c74:	24100000 	li	s0,0
    2c78:	1000000e 	b	2cb4 <n31_bgez_test+0x2cb4>
    2c7c:	24120000 	li	s2,0
    2c80:	00000000 	nop
    2c84:	3c10656c 	lui	s0,0x656c
    2c88:	05010012 	bgez	t0,2cd4 <n31_bgez_test+0x2cd4>
    2c8c:	3610ebbc 	ori	s0,s0,0xebbc
    2c90:	10000012 	b	2cdc <n31_bgez_test+0x2cdc>
    2c94:	00000000 	nop
    2c98:	00000000 	nop
    2c9c:	00000021 	move	zero,zero
    2ca0:	00000021 	move	zero,zero
    2ca4:	00000021 	move	zero,zero
    2ca8:	00000021 	move	zero,zero
    2cac:	00000021 	move	zero,zero
    2cb0:	00000021 	move	zero,zero
    2cb4:	3c086fa5 	lui	t0,0x6fa5
    2cb8:	3508168e 	ori	t0,t0,0x168e
    2cbc:	0501fff1 	bgez	t0,2c84 <n31_bgez_test+0x2c84>
    2cc0:	00000000 	nop
    2cc4:	10000005 	b	2cdc <n31_bgez_test+0x2cdc>
    2cc8:	00000000 	nop
    2ccc:	00000000 	nop
    2cd0:	00000021 	move	zero,zero
    2cd4:	3c122cfe 	lui	s2,0x2cfe
    2cd8:	3652a380 	ori	s2,s2,0xa380
    2cdc:	00000000 	nop
    2ce0:	3c14656c 	lui	s4,0x656c
    2ce4:	3694ebbc 	ori	s4,s4,0xebbc
    2ce8:	16141424 	bne	s0,s4,7d7c <inst_error>
    2cec:	00000000 	nop
    2cf0:	00000000 	nop
    2cf4:	3c152cfe 	lui	s5,0x2cfe
    2cf8:	36b5a380 	ori	s5,s5,0xa380
    2cfc:	1655141f 	bne	s2,s5,7d7c <inst_error>
    2d00:	00000000 	nop
    2d04:	00000000 	nop
    2d08:	3c0cb335 	lui	t4,0xb335
    2d0c:	358cd658 	ori	t4,t4,0xd658
    2d10:	3c0d5b0a 	lui	t5,0x5b0a
    2d14:	35adcf59 	ori	t5,t5,0xcf59
    2d18:	24100000 	li	s0,0
    2d1c:	1000000e 	b	2d58 <n31_bgez_test+0x2d58>
    2d20:	24120000 	li	s2,0
    2d24:	00000000 	nop
    2d28:	3c10b335 	lui	s0,0xb335
    2d2c:	05010012 	bgez	t0,2d78 <n31_bgez_test+0x2d78>
    2d30:	3610d658 	ori	s0,s0,0xd658
    2d34:	10000012 	b	2d80 <n31_bgez_test+0x2d80>
    2d38:	00000000 	nop
    2d3c:	00000000 	nop
    2d40:	00000021 	move	zero,zero
    2d44:	00000021 	move	zero,zero
    2d48:	00000021 	move	zero,zero
    2d4c:	00000021 	move	zero,zero
    2d50:	00000021 	move	zero,zero
    2d54:	00000021 	move	zero,zero
    2d58:	3c08cc6a 	lui	t0,0xcc6a
    2d5c:	350842ea 	ori	t0,t0,0x42ea
    2d60:	0501fff1 	bgez	t0,2d28 <n31_bgez_test+0x2d28>
    2d64:	00000000 	nop
    2d68:	10000005 	b	2d80 <n31_bgez_test+0x2d80>
    2d6c:	00000000 	nop
    2d70:	00000000 	nop
    2d74:	00000021 	move	zero,zero
    2d78:	3c125b0a 	lui	s2,0x5b0a
    2d7c:	3652cf59 	ori	s2,s2,0xcf59
    2d80:	00000000 	nop
    2d84:	24140000 	li	s4,0
    2d88:	161413fc 	bne	s0,s4,7d7c <inst_error>
    2d8c:	00000000 	nop
    2d90:	00000000 	nop
    2d94:	24150000 	li	s5,0
    2d98:	165513f8 	bne	s2,s5,7d7c <inst_error>
    2d9c:	00000000 	nop
    2da0:	00000000 	nop
    2da4:	3c0c551c 	lui	t4,0x551c
    2da8:	358ce904 	ori	t4,t4,0xe904
    2dac:	3c0dc379 	lui	t5,0xc379
    2db0:	35ad3342 	ori	t5,t5,0x3342
    2db4:	24100000 	li	s0,0
    2db8:	1000000e 	b	2df4 <n31_bgez_test+0x2df4>
    2dbc:	24120000 	li	s2,0
    2dc0:	00000000 	nop
    2dc4:	3c10551c 	lui	s0,0x551c
    2dc8:	05010012 	bgez	t0,2e14 <n31_bgez_test+0x2e14>
    2dcc:	3610e904 	ori	s0,s0,0xe904
    2dd0:	10000012 	b	2e1c <n31_bgez_test+0x2e1c>
    2dd4:	00000000 	nop
    2dd8:	00000000 	nop
    2ddc:	00000021 	move	zero,zero
    2de0:	00000021 	move	zero,zero
    2de4:	00000021 	move	zero,zero
    2de8:	00000021 	move	zero,zero
    2dec:	00000021 	move	zero,zero
    2df0:	00000021 	move	zero,zero
    2df4:	3c083bc1 	lui	t0,0x3bc1
    2df8:	35082228 	ori	t0,t0,0x2228
    2dfc:	0501fff1 	bgez	t0,2dc4 <n31_bgez_test+0x2dc4>
    2e00:	00000000 	nop
    2e04:	10000005 	b	2e1c <n31_bgez_test+0x2e1c>
    2e08:	00000000 	nop
    2e0c:	00000000 	nop
    2e10:	00000021 	move	zero,zero
    2e14:	3c12c379 	lui	s2,0xc379
    2e18:	36523342 	ori	s2,s2,0x3342
    2e1c:	00000000 	nop
    2e20:	3c14551c 	lui	s4,0x551c
    2e24:	3694e904 	ori	s4,s4,0xe904
    2e28:	161413d4 	bne	s0,s4,7d7c <inst_error>
    2e2c:	00000000 	nop
    2e30:	00000000 	nop
    2e34:	3c15c379 	lui	s5,0xc379
    2e38:	36b53342 	ori	s5,s5,0x3342
    2e3c:	165513cf 	bne	s2,s5,7d7c <inst_error>
    2e40:	00000000 	nop
    2e44:	00000000 	nop
    2e48:	3c0c14fb 	lui	t4,0x14fb
    2e4c:	358ca980 	ori	t4,t4,0xa980
    2e50:	3c0de5a2 	lui	t5,0xe5a2
    2e54:	35ad4a90 	ori	t5,t5,0x4a90
    2e58:	24100000 	li	s0,0
    2e5c:	1000000e 	b	2e98 <n31_bgez_test+0x2e98>
    2e60:	24120000 	li	s2,0
    2e64:	00000000 	nop
    2e68:	3c1014fb 	lui	s0,0x14fb
    2e6c:	05010012 	bgez	t0,2eb8 <n31_bgez_test+0x2eb8>
    2e70:	3610a980 	ori	s0,s0,0xa980
    2e74:	10000012 	b	2ec0 <n31_bgez_test+0x2ec0>
    2e78:	00000000 	nop
    2e7c:	00000000 	nop
    2e80:	00000021 	move	zero,zero
    2e84:	00000021 	move	zero,zero
    2e88:	00000021 	move	zero,zero
    2e8c:	00000021 	move	zero,zero
    2e90:	00000021 	move	zero,zero
    2e94:	00000021 	move	zero,zero
    2e98:	3c081483 	lui	t0,0x1483
    2e9c:	3508b780 	ori	t0,t0,0xb780
    2ea0:	0501fff1 	bgez	t0,2e68 <n31_bgez_test+0x2e68>
    2ea4:	00000000 	nop
    2ea8:	10000005 	b	2ec0 <n31_bgez_test+0x2ec0>
    2eac:	00000000 	nop
    2eb0:	00000000 	nop
    2eb4:	00000021 	move	zero,zero
    2eb8:	3c12e5a2 	lui	s2,0xe5a2
    2ebc:	36524a90 	ori	s2,s2,0x4a90
    2ec0:	00000000 	nop
    2ec4:	3c1414fb 	lui	s4,0x14fb
    2ec8:	3694a980 	ori	s4,s4,0xa980
    2ecc:	161413ab 	bne	s0,s4,7d7c <inst_error>
    2ed0:	00000000 	nop
    2ed4:	00000000 	nop
    2ed8:	3c15e5a2 	lui	s5,0xe5a2
    2edc:	36b54a90 	ori	s5,s5,0x4a90
    2ee0:	165513a6 	bne	s2,s5,7d7c <inst_error>
    2ee4:	00000000 	nop
    2ee8:	00000000 	nop
    2eec:	3c0c8ffc 	lui	t4,0x8ffc
    2ef0:	358ca172 	ori	t4,t4,0xa172
    2ef4:	3c0d4904 	lui	t5,0x4904
    2ef8:	35ad51f8 	ori	t5,t5,0x51f8
    2efc:	24100000 	li	s0,0
    2f00:	1000000e 	b	2f3c <n31_bgez_test+0x2f3c>
    2f04:	24120000 	li	s2,0
    2f08:	00000000 	nop
    2f0c:	3c108ffc 	lui	s0,0x8ffc
    2f10:	05010012 	bgez	t0,2f5c <n31_bgez_test+0x2f5c>
    2f14:	3610a172 	ori	s0,s0,0xa172
    2f18:	10000012 	b	2f64 <n31_bgez_test+0x2f64>
    2f1c:	00000000 	nop
    2f20:	00000000 	nop
    2f24:	00000021 	move	zero,zero
    2f28:	00000021 	move	zero,zero
    2f2c:	00000021 	move	zero,zero
    2f30:	00000021 	move	zero,zero
    2f34:	00000021 	move	zero,zero
    2f38:	00000021 	move	zero,zero
    2f3c:	3c081a31 	lui	t0,0x1a31
    2f40:	35080d05 	ori	t0,t0,0xd05
    2f44:	0501fff1 	bgez	t0,2f0c <n31_bgez_test+0x2f0c>
    2f48:	00000000 	nop
    2f4c:	10000005 	b	2f64 <n31_bgez_test+0x2f64>
    2f50:	00000000 	nop
    2f54:	00000000 	nop
    2f58:	00000021 	move	zero,zero
    2f5c:	3c124904 	lui	s2,0x4904
    2f60:	365251f8 	ori	s2,s2,0x51f8
    2f64:	00000000 	nop
    2f68:	3c148ffc 	lui	s4,0x8ffc
    2f6c:	3694a172 	ori	s4,s4,0xa172
    2f70:	16141382 	bne	s0,s4,7d7c <inst_error>
    2f74:	00000000 	nop
    2f78:	00000000 	nop
    2f7c:	3c154904 	lui	s5,0x4904
    2f80:	36b551f8 	ori	s5,s5,0x51f8
    2f84:	1655137d 	bne	s2,s5,7d7c <inst_error>
    2f88:	00000000 	nop
    2f8c:	00000000 	nop
    2f90:	3c0cdc53 	lui	t4,0xdc53
    2f94:	358c7222 	ori	t4,t4,0x7222
    2f98:	3c0ddc32 	lui	t5,0xdc32
    2f9c:	35ad6bf4 	ori	t5,t5,0x6bf4
    2fa0:	24100000 	li	s0,0
    2fa4:	1000000e 	b	2fe0 <n31_bgez_test+0x2fe0>
    2fa8:	24120000 	li	s2,0
    2fac:	00000000 	nop
    2fb0:	3c10dc53 	lui	s0,0xdc53
    2fb4:	05010012 	bgez	t0,3000 <n31_bgez_test+0x3000>
    2fb8:	36107222 	ori	s0,s0,0x7222
    2fbc:	10000012 	b	3008 <n31_bgez_test+0x3008>
    2fc0:	00000000 	nop
    2fc4:	00000000 	nop
    2fc8:	00000021 	move	zero,zero
    2fcc:	00000021 	move	zero,zero
    2fd0:	00000021 	move	zero,zero
    2fd4:	00000021 	move	zero,zero
    2fd8:	00000021 	move	zero,zero
    2fdc:	00000021 	move	zero,zero
    2fe0:	3c08242d 	lui	t0,0x242d
    2fe4:	35084478 	ori	t0,t0,0x4478
    2fe8:	0501fff1 	bgez	t0,2fb0 <n31_bgez_test+0x2fb0>
    2fec:	00000000 	nop
    2ff0:	10000005 	b	3008 <n31_bgez_test+0x3008>
    2ff4:	00000000 	nop
    2ff8:	00000000 	nop
    2ffc:	00000021 	move	zero,zero
    3000:	3c12dc32 	lui	s2,0xdc32
    3004:	36526bf4 	ori	s2,s2,0x6bf4
    3008:	00000000 	nop
    300c:	3c14dc53 	lui	s4,0xdc53
    3010:	36947222 	ori	s4,s4,0x7222
    3014:	16141359 	bne	s0,s4,7d7c <inst_error>
    3018:	00000000 	nop
    301c:	00000000 	nop
    3020:	3c15dc32 	lui	s5,0xdc32
    3024:	36b56bf4 	ori	s5,s5,0x6bf4
    3028:	16551354 	bne	s2,s5,7d7c <inst_error>
    302c:	00000000 	nop
    3030:	00000000 	nop
    3034:	3c0c4266 	lui	t4,0x4266
    3038:	358c6940 	ori	t4,t4,0x6940
    303c:	3c0d3378 	lui	t5,0x3378
    3040:	35ad59cc 	ori	t5,t5,0x59cc
    3044:	24100000 	li	s0,0
    3048:	1000000e 	b	3084 <n31_bgez_test+0x3084>
    304c:	24120000 	li	s2,0
    3050:	00000000 	nop
    3054:	3c104266 	lui	s0,0x4266
    3058:	05010012 	bgez	t0,30a4 <n31_bgez_test+0x30a4>
    305c:	36106940 	ori	s0,s0,0x6940
    3060:	10000012 	b	30ac <n31_bgez_test+0x30ac>
    3064:	00000000 	nop
    3068:	00000000 	nop
    306c:	00000021 	move	zero,zero
    3070:	00000021 	move	zero,zero
    3074:	00000021 	move	zero,zero
    3078:	00000021 	move	zero,zero
    307c:	00000021 	move	zero,zero
    3080:	00000021 	move	zero,zero
    3084:	3c08b19e 	lui	t0,0xb19e
    3088:	35085baa 	ori	t0,t0,0x5baa
    308c:	0501fff1 	bgez	t0,3054 <n31_bgez_test+0x3054>
    3090:	00000000 	nop
    3094:	10000005 	b	30ac <n31_bgez_test+0x30ac>
    3098:	00000000 	nop
    309c:	00000000 	nop
    30a0:	00000021 	move	zero,zero
    30a4:	3c123378 	lui	s2,0x3378
    30a8:	365259cc 	ori	s2,s2,0x59cc
    30ac:	00000000 	nop
    30b0:	24140000 	li	s4,0
    30b4:	16141331 	bne	s0,s4,7d7c <inst_error>
    30b8:	00000000 	nop
    30bc:	00000000 	nop
    30c0:	24150000 	li	s5,0
    30c4:	1655132d 	bne	s2,s5,7d7c <inst_error>
    30c8:	00000000 	nop
    30cc:	00000000 	nop
    30d0:	3c0c0468 	lui	t4,0x468
    30d4:	358cd78b 	ori	t4,t4,0xd78b
    30d8:	3c0db999 	lui	t5,0xb999
    30dc:	35adcef0 	ori	t5,t5,0xcef0
    30e0:	24100000 	li	s0,0
    30e4:	1000000e 	b	3120 <n31_bgez_test+0x3120>
    30e8:	24120000 	li	s2,0
    30ec:	00000000 	nop
    30f0:	3c100468 	lui	s0,0x468
    30f4:	05010012 	bgez	t0,3140 <n31_bgez_test+0x3140>
    30f8:	3610d78b 	ori	s0,s0,0xd78b
    30fc:	10000012 	b	3148 <n31_bgez_test+0x3148>
    3100:	00000000 	nop
    3104:	00000000 	nop
    3108:	00000021 	move	zero,zero
    310c:	00000021 	move	zero,zero
    3110:	00000021 	move	zero,zero
    3114:	00000021 	move	zero,zero
    3118:	00000021 	move	zero,zero
    311c:	00000021 	move	zero,zero
    3120:	3c08dcb0 	lui	t0,0xdcb0
    3124:	3508806d 	ori	t0,t0,0x806d
    3128:	0501fff1 	bgez	t0,30f0 <n31_bgez_test+0x30f0>
    312c:	00000000 	nop
    3130:	10000005 	b	3148 <n31_bgez_test+0x3148>
    3134:	00000000 	nop
    3138:	00000000 	nop
    313c:	00000021 	move	zero,zero
    3140:	3c12b999 	lui	s2,0xb999
    3144:	3652cef0 	ori	s2,s2,0xcef0
    3148:	00000000 	nop
    314c:	24140000 	li	s4,0
    3150:	1614130a 	bne	s0,s4,7d7c <inst_error>
    3154:	00000000 	nop
    3158:	00000000 	nop
    315c:	24150000 	li	s5,0
    3160:	16551306 	bne	s2,s5,7d7c <inst_error>
    3164:	00000000 	nop
    3168:	00000000 	nop
    316c:	3c0c9f45 	lui	t4,0x9f45
    3170:	358cb980 	ori	t4,t4,0xb980
    3174:	3c0ded93 	lui	t5,0xed93
    3178:	35ad22d0 	ori	t5,t5,0x22d0
    317c:	24100000 	li	s0,0
    3180:	1000000e 	b	31bc <n31_bgez_test+0x31bc>
    3184:	24120000 	li	s2,0
    3188:	00000000 	nop
    318c:	3c109f45 	lui	s0,0x9f45
    3190:	05010012 	bgez	t0,31dc <n31_bgez_test+0x31dc>
    3194:	3610b980 	ori	s0,s0,0xb980
    3198:	10000012 	b	31e4 <n31_bgez_test+0x31e4>
    319c:	00000000 	nop
    31a0:	00000000 	nop
    31a4:	00000021 	move	zero,zero
    31a8:	00000021 	move	zero,zero
    31ac:	00000021 	move	zero,zero
    31b0:	00000021 	move	zero,zero
    31b4:	00000021 	move	zero,zero
    31b8:	00000021 	move	zero,zero
    31bc:	3c08b756 	lui	t0,0xb756
    31c0:	3508b10c 	ori	t0,t0,0xb10c
    31c4:	0501fff1 	bgez	t0,318c <n31_bgez_test+0x318c>
    31c8:	00000000 	nop
    31cc:	10000005 	b	31e4 <n31_bgez_test+0x31e4>
    31d0:	00000000 	nop
    31d4:	00000000 	nop
    31d8:	00000021 	move	zero,zero
    31dc:	3c12ed93 	lui	s2,0xed93
    31e0:	365222d0 	ori	s2,s2,0x22d0
    31e4:	00000000 	nop
    31e8:	24140000 	li	s4,0
    31ec:	161412e3 	bne	s0,s4,7d7c <inst_error>
    31f0:	00000000 	nop
    31f4:	00000000 	nop
    31f8:	24150000 	li	s5,0
    31fc:	165512df 	bne	s2,s5,7d7c <inst_error>
    3200:	00000000 	nop
    3204:	00000000 	nop
    3208:	3c0ca634 	lui	t4,0xa634
    320c:	358cafe0 	ori	t4,t4,0xafe0
    3210:	3c0dd57c 	lui	t5,0xd57c
    3214:	35adf804 	ori	t5,t5,0xf804
    3218:	24100000 	li	s0,0
    321c:	1000000e 	b	3258 <n31_bgez_test+0x3258>
    3220:	24120000 	li	s2,0
    3224:	00000000 	nop
    3228:	3c10a634 	lui	s0,0xa634
    322c:	05010012 	bgez	t0,3278 <n31_bgez_test+0x3278>
    3230:	3610afe0 	ori	s0,s0,0xafe0
    3234:	10000012 	b	3280 <n31_bgez_test+0x3280>
    3238:	00000000 	nop
    323c:	00000000 	nop
    3240:	00000021 	move	zero,zero
    3244:	00000021 	move	zero,zero
    3248:	00000021 	move	zero,zero
    324c:	00000021 	move	zero,zero
    3250:	00000021 	move	zero,zero
    3254:	00000021 	move	zero,zero
    3258:	3c084ffd 	lui	t0,0x4ffd
    325c:	35080672 	ori	t0,t0,0x672
    3260:	0501fff1 	bgez	t0,3228 <n31_bgez_test+0x3228>
    3264:	00000000 	nop
    3268:	10000005 	b	3280 <n31_bgez_test+0x3280>
    326c:	00000000 	nop
    3270:	00000000 	nop
    3274:	00000021 	move	zero,zero
    3278:	3c12d57c 	lui	s2,0xd57c
    327c:	3652f804 	ori	s2,s2,0xf804
    3280:	00000000 	nop
    3284:	3c14a634 	lui	s4,0xa634
    3288:	3694afe0 	ori	s4,s4,0xafe0
    328c:	161412bb 	bne	s0,s4,7d7c <inst_error>
    3290:	00000000 	nop
    3294:	00000000 	nop
    3298:	3c15d57c 	lui	s5,0xd57c
    329c:	36b5f804 	ori	s5,s5,0xf804
    32a0:	165512b6 	bne	s2,s5,7d7c <inst_error>
    32a4:	00000000 	nop
    32a8:	00000000 	nop
    32ac:	3c0ca4ed 	lui	t4,0xa4ed
    32b0:	358c61b0 	ori	t4,t4,0x61b0
    32b4:	3c0db976 	lui	t5,0xb976
    32b8:	35ad24f0 	ori	t5,t5,0x24f0
    32bc:	24100000 	li	s0,0
    32c0:	1000000e 	b	32fc <n31_bgez_test+0x32fc>
    32c4:	24120000 	li	s2,0
    32c8:	00000000 	nop
    32cc:	3c10a4ed 	lui	s0,0xa4ed
    32d0:	05010012 	bgez	t0,331c <n31_bgez_test+0x331c>
    32d4:	361061b0 	ori	s0,s0,0x61b0
    32d8:	10000012 	b	3324 <n31_bgez_test+0x3324>
    32dc:	00000000 	nop
    32e0:	00000000 	nop
    32e4:	00000021 	move	zero,zero
    32e8:	00000021 	move	zero,zero
    32ec:	00000021 	move	zero,zero
    32f0:	00000021 	move	zero,zero
    32f4:	00000021 	move	zero,zero
    32f8:	00000021 	move	zero,zero
    32fc:	3c08fd09 	lui	t0,0xfd09
    3300:	3508b090 	ori	t0,t0,0xb090
    3304:	0501fff1 	bgez	t0,32cc <n31_bgez_test+0x32cc>
    3308:	00000000 	nop
    330c:	10000005 	b	3324 <n31_bgez_test+0x3324>
    3310:	00000000 	nop
    3314:	00000000 	nop
    3318:	00000021 	move	zero,zero
    331c:	3c12b976 	lui	s2,0xb976
    3320:	365224f0 	ori	s2,s2,0x24f0
    3324:	00000000 	nop
    3328:	24140000 	li	s4,0
    332c:	16141293 	bne	s0,s4,7d7c <inst_error>
    3330:	00000000 	nop
    3334:	00000000 	nop
    3338:	24150000 	li	s5,0
    333c:	1655128f 	bne	s2,s5,7d7c <inst_error>
    3340:	00000000 	nop
    3344:	00000000 	nop
    3348:	3c0c61a6 	lui	t4,0x61a6
    334c:	358c6ca0 	ori	t4,t4,0x6ca0
    3350:	3c0da914 	lui	t5,0xa914
    3354:	35ad1e80 	ori	t5,t5,0x1e80
    3358:	24100000 	li	s0,0
    335c:	1000000e 	b	3398 <n31_bgez_test+0x3398>
    3360:	24120000 	li	s2,0
    3364:	00000000 	nop
    3368:	3c1061a6 	lui	s0,0x61a6
    336c:	05010012 	bgez	t0,33b8 <n31_bgez_test+0x33b8>
    3370:	36106ca0 	ori	s0,s0,0x6ca0
    3374:	10000012 	b	33c0 <n31_bgez_test+0x33c0>
    3378:	00000000 	nop
    337c:	00000000 	nop
    3380:	00000021 	move	zero,zero
    3384:	00000021 	move	zero,zero
    3388:	00000021 	move	zero,zero
    338c:	00000021 	move	zero,zero
    3390:	00000021 	move	zero,zero
    3394:	00000021 	move	zero,zero
    3398:	3c08083e 	lui	t0,0x83e
    339c:	35085184 	ori	t0,t0,0x5184
    33a0:	0501fff1 	bgez	t0,3368 <n31_bgez_test+0x3368>
    33a4:	00000000 	nop
    33a8:	10000005 	b	33c0 <n31_bgez_test+0x33c0>
    33ac:	00000000 	nop
    33b0:	00000000 	nop
    33b4:	00000021 	move	zero,zero
    33b8:	3c12a914 	lui	s2,0xa914
    33bc:	36521e80 	ori	s2,s2,0x1e80
    33c0:	00000000 	nop
    33c4:	3c1461a6 	lui	s4,0x61a6
    33c8:	36946ca0 	ori	s4,s4,0x6ca0
    33cc:	1614126b 	bne	s0,s4,7d7c <inst_error>
    33d0:	00000000 	nop
    33d4:	00000000 	nop
    33d8:	3c15a914 	lui	s5,0xa914
    33dc:	36b51e80 	ori	s5,s5,0x1e80
    33e0:	16551266 	bne	s2,s5,7d7c <inst_error>
    33e4:	00000000 	nop
    33e8:	00000000 	nop
    33ec:	3c0c2264 	lui	t4,0x2264
    33f0:	358cb1c0 	ori	t4,t4,0xb1c0
    33f4:	3c0d3e1a 	lui	t5,0x3e1a
    33f8:	35adc7fc 	ori	t5,t5,0xc7fc
    33fc:	24100000 	li	s0,0
    3400:	1000000e 	b	343c <n31_bgez_test+0x343c>
    3404:	24120000 	li	s2,0
    3408:	00000000 	nop
    340c:	3c102264 	lui	s0,0x2264
    3410:	05010012 	bgez	t0,345c <n31_bgez_test+0x345c>
    3414:	3610b1c0 	ori	s0,s0,0xb1c0
    3418:	10000012 	b	3464 <n31_bgez_test+0x3464>
    341c:	00000000 	nop
    3420:	00000000 	nop
    3424:	00000021 	move	zero,zero
    3428:	00000021 	move	zero,zero
    342c:	00000021 	move	zero,zero
    3430:	00000021 	move	zero,zero
    3434:	00000021 	move	zero,zero
    3438:	00000021 	move	zero,zero
    343c:	3c08eac2 	lui	t0,0xeac2
    3440:	35080670 	ori	t0,t0,0x670
    3444:	0501fff1 	bgez	t0,340c <n31_bgez_test+0x340c>
    3448:	00000000 	nop
    344c:	10000005 	b	3464 <n31_bgez_test+0x3464>
    3450:	00000000 	nop
    3454:	00000000 	nop
    3458:	00000021 	move	zero,zero
    345c:	3c123e1a 	lui	s2,0x3e1a
    3460:	3652c7fc 	ori	s2,s2,0xc7fc
    3464:	00000000 	nop
    3468:	24140000 	li	s4,0
    346c:	16141243 	bne	s0,s4,7d7c <inst_error>
    3470:	00000000 	nop
    3474:	00000000 	nop
    3478:	24150000 	li	s5,0
    347c:	1655123f 	bne	s2,s5,7d7c <inst_error>
    3480:	00000000 	nop
    3484:	00000000 	nop
    3488:	3c0c206b 	lui	t4,0x206b
    348c:	358c2465 	ori	t4,t4,0x2465
    3490:	3c0dbed7 	lui	t5,0xbed7
    3494:	35ad8bf2 	ori	t5,t5,0x8bf2
    3498:	24100000 	li	s0,0
    349c:	1000000e 	b	34d8 <n31_bgez_test+0x34d8>
    34a0:	24120000 	li	s2,0
    34a4:	00000000 	nop
    34a8:	3c10206b 	lui	s0,0x206b
    34ac:	05010012 	bgez	t0,34f8 <n31_bgez_test+0x34f8>
    34b0:	36102465 	ori	s0,s0,0x2465
    34b4:	10000012 	b	3500 <n31_bgez_test+0x3500>
    34b8:	00000000 	nop
    34bc:	00000000 	nop
    34c0:	00000021 	move	zero,zero
    34c4:	00000021 	move	zero,zero
    34c8:	00000021 	move	zero,zero
    34cc:	00000021 	move	zero,zero
    34d0:	00000021 	move	zero,zero
    34d4:	00000021 	move	zero,zero
    34d8:	3c082256 	lui	t0,0x2256
    34dc:	35081740 	ori	t0,t0,0x1740
    34e0:	0501fff1 	bgez	t0,34a8 <n31_bgez_test+0x34a8>
    34e4:	00000000 	nop
    34e8:	10000005 	b	3500 <n31_bgez_test+0x3500>
    34ec:	00000000 	nop
    34f0:	00000000 	nop
    34f4:	00000021 	move	zero,zero
    34f8:	3c12bed7 	lui	s2,0xbed7
    34fc:	36528bf2 	ori	s2,s2,0x8bf2
    3500:	00000000 	nop
    3504:	3c14206b 	lui	s4,0x206b
    3508:	36942465 	ori	s4,s4,0x2465
    350c:	1614121b 	bne	s0,s4,7d7c <inst_error>
    3510:	00000000 	nop
    3514:	00000000 	nop
    3518:	3c15bed7 	lui	s5,0xbed7
    351c:	36b58bf2 	ori	s5,s5,0x8bf2
    3520:	16551216 	bne	s2,s5,7d7c <inst_error>
    3524:	00000000 	nop
    3528:	00000000 	nop
    352c:	3c0c6a2f 	lui	t4,0x6a2f
    3530:	358ca32b 	ori	t4,t4,0xa32b
    3534:	3c0d3a97 	lui	t5,0x3a97
    3538:	35ad620e 	ori	t5,t5,0x620e
    353c:	24100000 	li	s0,0
    3540:	1000000e 	b	357c <n31_bgez_test+0x357c>
    3544:	24120000 	li	s2,0
    3548:	00000000 	nop
    354c:	3c106a2f 	lui	s0,0x6a2f
    3550:	05010012 	bgez	t0,359c <n31_bgez_test+0x359c>
    3554:	3610a32b 	ori	s0,s0,0xa32b
    3558:	10000012 	b	35a4 <n31_bgez_test+0x35a4>
    355c:	00000000 	nop
    3560:	00000000 	nop
    3564:	00000021 	move	zero,zero
    3568:	00000021 	move	zero,zero
    356c:	00000021 	move	zero,zero
    3570:	00000021 	move	zero,zero
    3574:	00000021 	move	zero,zero
    3578:	00000021 	move	zero,zero
    357c:	3c08f686 	lui	t0,0xf686
    3580:	35085a84 	ori	t0,t0,0x5a84
    3584:	0501fff1 	bgez	t0,354c <n31_bgez_test+0x354c>
    3588:	00000000 	nop
    358c:	10000005 	b	35a4 <n31_bgez_test+0x35a4>
    3590:	00000000 	nop
    3594:	00000000 	nop
    3598:	00000021 	move	zero,zero
    359c:	3c123a97 	lui	s2,0x3a97
    35a0:	3652620e 	ori	s2,s2,0x620e
    35a4:	00000000 	nop
    35a8:	24140000 	li	s4,0
    35ac:	161411f3 	bne	s0,s4,7d7c <inst_error>
    35b0:	00000000 	nop
    35b4:	00000000 	nop
    35b8:	24150000 	li	s5,0
    35bc:	165511ef 	bne	s2,s5,7d7c <inst_error>
    35c0:	00000000 	nop
    35c4:	00000000 	nop
    35c8:	3c0ceee8 	lui	t4,0xeee8
    35cc:	358caf8b 	ori	t4,t4,0xaf8b
    35d0:	3c0d29a2 	lui	t5,0x29a2
    35d4:	35ad0800 	ori	t5,t5,0x800
    35d8:	24100000 	li	s0,0
    35dc:	1000000e 	b	3618 <n31_bgez_test+0x3618>
    35e0:	24120000 	li	s2,0
    35e4:	00000000 	nop
    35e8:	3c10eee8 	lui	s0,0xeee8
    35ec:	05010012 	bgez	t0,3638 <n31_bgez_test+0x3638>
    35f0:	3610af8b 	ori	s0,s0,0xaf8b
    35f4:	10000012 	b	3640 <n31_bgez_test+0x3640>
    35f8:	00000000 	nop
    35fc:	00000000 	nop
    3600:	00000021 	move	zero,zero
    3604:	00000021 	move	zero,zero
    3608:	00000021 	move	zero,zero
    360c:	00000021 	move	zero,zero
    3610:	00000021 	move	zero,zero
    3614:	00000021 	move	zero,zero
    3618:	3c0856f4 	lui	t0,0x56f4
    361c:	350849a8 	ori	t0,t0,0x49a8
    3620:	0501fff1 	bgez	t0,35e8 <n31_bgez_test+0x35e8>
    3624:	00000000 	nop
    3628:	10000005 	b	3640 <n31_bgez_test+0x3640>
    362c:	00000000 	nop
    3630:	00000000 	nop
    3634:	00000021 	move	zero,zero
    3638:	3c1229a2 	lui	s2,0x29a2
    363c:	36520800 	ori	s2,s2,0x800
    3640:	00000000 	nop
    3644:	3c14eee8 	lui	s4,0xeee8
    3648:	3694af8b 	ori	s4,s4,0xaf8b
    364c:	161411cb 	bne	s0,s4,7d7c <inst_error>
    3650:	00000000 	nop
    3654:	00000000 	nop
    3658:	3c1529a2 	lui	s5,0x29a2
    365c:	36b50800 	ori	s5,s5,0x800
    3660:	165511c6 	bne	s2,s5,7d7c <inst_error>
    3664:	00000000 	nop
    3668:	00000000 	nop
    366c:	3c0c3f1f 	lui	t4,0x3f1f
    3670:	358cb6c0 	ori	t4,t4,0xb6c0
    3674:	3c0ddfb1 	lui	t5,0xdfb1
    3678:	35ad49fa 	ori	t5,t5,0x49fa
    367c:	24100000 	li	s0,0
    3680:	1000000e 	b	36bc <n31_bgez_test+0x36bc>
    3684:	24120000 	li	s2,0
    3688:	00000000 	nop
    368c:	3c103f1f 	lui	s0,0x3f1f
    3690:	05010012 	bgez	t0,36dc <n31_bgez_test+0x36dc>
    3694:	3610b6c0 	ori	s0,s0,0xb6c0
    3698:	10000012 	b	36e4 <n31_bgez_test+0x36e4>
    369c:	00000000 	nop
    36a0:	00000000 	nop
    36a4:	00000021 	move	zero,zero
    36a8:	00000021 	move	zero,zero
    36ac:	00000021 	move	zero,zero
    36b0:	00000021 	move	zero,zero
    36b4:	00000021 	move	zero,zero
    36b8:	00000021 	move	zero,zero
    36bc:	3c088693 	lui	t0,0x8693
    36c0:	3508fbff 	ori	t0,t0,0xfbff
    36c4:	0501fff1 	bgez	t0,368c <n31_bgez_test+0x368c>
    36c8:	00000000 	nop
    36cc:	10000005 	b	36e4 <n31_bgez_test+0x36e4>
    36d0:	00000000 	nop
    36d4:	00000000 	nop
    36d8:	00000021 	move	zero,zero
    36dc:	3c12dfb1 	lui	s2,0xdfb1
    36e0:	365249fa 	ori	s2,s2,0x49fa
    36e4:	00000000 	nop
    36e8:	24140000 	li	s4,0
    36ec:	161411a3 	bne	s0,s4,7d7c <inst_error>
    36f0:	00000000 	nop
    36f4:	00000000 	nop
    36f8:	24150000 	li	s5,0
    36fc:	1655119f 	bne	s2,s5,7d7c <inst_error>
    3700:	00000000 	nop
    3704:	00000000 	nop
    3708:	3c0c73f1 	lui	t4,0x73f1
    370c:	358c1770 	ori	t4,t4,0x1770
    3710:	3c0d9061 	lui	t5,0x9061
    3714:	35ad1c30 	ori	t5,t5,0x1c30
    3718:	24100000 	li	s0,0
    371c:	1000000e 	b	3758 <n31_bgez_test+0x3758>
    3720:	24120000 	li	s2,0
    3724:	00000000 	nop
    3728:	3c1073f1 	lui	s0,0x73f1
    372c:	05010012 	bgez	t0,3778 <n31_bgez_test+0x3778>
    3730:	36101770 	ori	s0,s0,0x1770
    3734:	10000012 	b	3780 <n31_bgez_test+0x3780>
    3738:	00000000 	nop
    373c:	00000000 	nop
    3740:	00000021 	move	zero,zero
    3744:	00000021 	move	zero,zero
    3748:	00000021 	move	zero,zero
    374c:	00000021 	move	zero,zero
    3750:	00000021 	move	zero,zero
    3754:	00000021 	move	zero,zero
    3758:	3c08085c 	lui	t0,0x85c
    375c:	35086ee0 	ori	t0,t0,0x6ee0
    3760:	0501fff1 	bgez	t0,3728 <n31_bgez_test+0x3728>
    3764:	00000000 	nop
    3768:	10000005 	b	3780 <n31_bgez_test+0x3780>
    376c:	00000000 	nop
    3770:	00000000 	nop
    3774:	00000021 	move	zero,zero
    3778:	3c129061 	lui	s2,0x9061
    377c:	36521c30 	ori	s2,s2,0x1c30
    3780:	00000000 	nop
    3784:	3c1473f1 	lui	s4,0x73f1
    3788:	36941770 	ori	s4,s4,0x1770
    378c:	1614117b 	bne	s0,s4,7d7c <inst_error>
    3790:	00000000 	nop
    3794:	00000000 	nop
    3798:	3c159061 	lui	s5,0x9061
    379c:	36b51c30 	ori	s5,s5,0x1c30
    37a0:	16551176 	bne	s2,s5,7d7c <inst_error>
    37a4:	00000000 	nop
    37a8:	00000000 	nop
    37ac:	3c0cda75 	lui	t4,0xda75
    37b0:	358cb7fe 	ori	t4,t4,0xb7fe
    37b4:	3c0d877f 	lui	t5,0x877f
    37b8:	35ad9892 	ori	t5,t5,0x9892
    37bc:	24100000 	li	s0,0
    37c0:	1000000e 	b	37fc <n31_bgez_test+0x37fc>
    37c4:	24120000 	li	s2,0
    37c8:	00000000 	nop
    37cc:	3c10da75 	lui	s0,0xda75
    37d0:	05010012 	bgez	t0,381c <n31_bgez_test+0x381c>
    37d4:	3610b7fe 	ori	s0,s0,0xb7fe
    37d8:	10000012 	b	3824 <n31_bgez_test+0x3824>
    37dc:	00000000 	nop
    37e0:	00000000 	nop
    37e4:	00000021 	move	zero,zero
    37e8:	00000021 	move	zero,zero
    37ec:	00000021 	move	zero,zero
    37f0:	00000021 	move	zero,zero
    37f4:	00000021 	move	zero,zero
    37f8:	00000021 	move	zero,zero
    37fc:	3c0824f9 	lui	t0,0x24f9
    3800:	3508a320 	ori	t0,t0,0xa320
    3804:	0501fff1 	bgez	t0,37cc <n31_bgez_test+0x37cc>
    3808:	00000000 	nop
    380c:	10000005 	b	3824 <n31_bgez_test+0x3824>
    3810:	00000000 	nop
    3814:	00000000 	nop
    3818:	00000021 	move	zero,zero
    381c:	3c12877f 	lui	s2,0x877f
    3820:	36529892 	ori	s2,s2,0x9892
    3824:	00000000 	nop
    3828:	3c14da75 	lui	s4,0xda75
    382c:	3694b7fe 	ori	s4,s4,0xb7fe
    3830:	16141152 	bne	s0,s4,7d7c <inst_error>
    3834:	00000000 	nop
    3838:	00000000 	nop
    383c:	3c15877f 	lui	s5,0x877f
    3840:	36b59892 	ori	s5,s5,0x9892
    3844:	1655114d 	bne	s2,s5,7d7c <inst_error>
    3848:	00000000 	nop
    384c:	00000000 	nop
    3850:	3c0c7b58 	lui	t4,0x7b58
    3854:	358ca34e 	ori	t4,t4,0xa34e
    3858:	3c0d8fe1 	lui	t5,0x8fe1
    385c:	35ade8c6 	ori	t5,t5,0xe8c6
    3860:	24100000 	li	s0,0
    3864:	1000000e 	b	38a0 <n31_bgez_test+0x38a0>
    3868:	24120000 	li	s2,0
    386c:	00000000 	nop
    3870:	3c107b58 	lui	s0,0x7b58
    3874:	05010012 	bgez	t0,38c0 <n31_bgez_test+0x38c0>
    3878:	3610a34e 	ori	s0,s0,0xa34e
    387c:	10000012 	b	38c8 <n31_bgez_test+0x38c8>
    3880:	00000000 	nop
    3884:	00000000 	nop
    3888:	00000021 	move	zero,zero
    388c:	00000021 	move	zero,zero
    3890:	00000021 	move	zero,zero
    3894:	00000021 	move	zero,zero
    3898:	00000021 	move	zero,zero
    389c:	00000021 	move	zero,zero
    38a0:	3c083f42 	lui	t0,0x3f42
    38a4:	35087d90 	ori	t0,t0,0x7d90
    38a8:	0501fff1 	bgez	t0,3870 <n31_bgez_test+0x3870>
    38ac:	00000000 	nop
    38b0:	10000005 	b	38c8 <n31_bgez_test+0x38c8>
    38b4:	00000000 	nop
    38b8:	00000000 	nop
    38bc:	00000021 	move	zero,zero
    38c0:	3c128fe1 	lui	s2,0x8fe1
    38c4:	3652e8c6 	ori	s2,s2,0xe8c6
    38c8:	00000000 	nop
    38cc:	3c147b58 	lui	s4,0x7b58
    38d0:	3694a34e 	ori	s4,s4,0xa34e
    38d4:	16141129 	bne	s0,s4,7d7c <inst_error>
    38d8:	00000000 	nop
    38dc:	00000000 	nop
    38e0:	3c158fe1 	lui	s5,0x8fe1
    38e4:	36b5e8c6 	ori	s5,s5,0xe8c6
    38e8:	16551124 	bne	s2,s5,7d7c <inst_error>
    38ec:	00000000 	nop
    38f0:	00000000 	nop
    38f4:	3c0c6b6c 	lui	t4,0x6b6c
    38f8:	358c3194 	ori	t4,t4,0x3194
    38fc:	3c0dbfb7 	lui	t5,0xbfb7
    3900:	35ad0648 	ori	t5,t5,0x648
    3904:	24100000 	li	s0,0
    3908:	1000000e 	b	3944 <n31_bgez_test+0x3944>
    390c:	24120000 	li	s2,0
    3910:	00000000 	nop
    3914:	3c106b6c 	lui	s0,0x6b6c
    3918:	05010012 	bgez	t0,3964 <n31_bgez_test+0x3964>
    391c:	36103194 	ori	s0,s0,0x3194
    3920:	10000012 	b	396c <n31_bgez_test+0x396c>
    3924:	00000000 	nop
    3928:	00000000 	nop
    392c:	00000021 	move	zero,zero
    3930:	00000021 	move	zero,zero
    3934:	00000021 	move	zero,zero
    3938:	00000021 	move	zero,zero
    393c:	00000021 	move	zero,zero
    3940:	00000021 	move	zero,zero
    3944:	3c08f6b9 	lui	t0,0xf6b9
    3948:	350868e2 	ori	t0,t0,0x68e2
    394c:	0501fff1 	bgez	t0,3914 <n31_bgez_test+0x3914>
    3950:	00000000 	nop
    3954:	10000005 	b	396c <n31_bgez_test+0x396c>
    3958:	00000000 	nop
    395c:	00000000 	nop
    3960:	00000021 	move	zero,zero
    3964:	3c12bfb7 	lui	s2,0xbfb7
    3968:	36520648 	ori	s2,s2,0x648
    396c:	00000000 	nop
    3970:	24140000 	li	s4,0
    3974:	16141101 	bne	s0,s4,7d7c <inst_error>
    3978:	00000000 	nop
    397c:	00000000 	nop
    3980:	24150000 	li	s5,0
    3984:	165510fd 	bne	s2,s5,7d7c <inst_error>
    3988:	00000000 	nop
    398c:	00000000 	nop
    3990:	3c0cf746 	lui	t4,0xf746
    3994:	358ce09a 	ori	t4,t4,0xe09a
    3998:	3c0d1c2a 	lui	t5,0x1c2a
    399c:	35ad76b0 	ori	t5,t5,0x76b0
    39a0:	24100000 	li	s0,0
    39a4:	1000000e 	b	39e0 <n31_bgez_test+0x39e0>
    39a8:	24120000 	li	s2,0
    39ac:	00000000 	nop
    39b0:	3c10f746 	lui	s0,0xf746
    39b4:	05010012 	bgez	t0,3a00 <n31_bgez_test+0x3a00>
    39b8:	3610e09a 	ori	s0,s0,0xe09a
    39bc:	10000012 	b	3a08 <n31_bgez_test+0x3a08>
    39c0:	00000000 	nop
    39c4:	00000000 	nop
    39c8:	00000021 	move	zero,zero
    39cc:	00000021 	move	zero,zero
    39d0:	00000021 	move	zero,zero
    39d4:	00000021 	move	zero,zero
    39d8:	00000021 	move	zero,zero
    39dc:	00000021 	move	zero,zero
    39e0:	3c08aa04 	lui	t0,0xaa04
    39e4:	3508e800 	ori	t0,t0,0xe800
    39e8:	0501fff1 	bgez	t0,39b0 <n31_bgez_test+0x39b0>
    39ec:	00000000 	nop
    39f0:	10000005 	b	3a08 <n31_bgez_test+0x3a08>
    39f4:	00000000 	nop
    39f8:	00000000 	nop
    39fc:	00000021 	move	zero,zero
    3a00:	3c121c2a 	lui	s2,0x1c2a
    3a04:	365276b0 	ori	s2,s2,0x76b0
    3a08:	00000000 	nop
    3a0c:	24140000 	li	s4,0
    3a10:	161410da 	bne	s0,s4,7d7c <inst_error>
    3a14:	00000000 	nop
    3a18:	00000000 	nop
    3a1c:	24150000 	li	s5,0
    3a20:	165510d6 	bne	s2,s5,7d7c <inst_error>
    3a24:	00000000 	nop
    3a28:	00000000 	nop
    3a2c:	3c0c260a 	lui	t4,0x260a
    3a30:	358c2a00 	ori	t4,t4,0x2a00
    3a34:	3c0dc709 	lui	t5,0xc709
    3a38:	35adb674 	ori	t5,t5,0xb674
    3a3c:	24100000 	li	s0,0
    3a40:	1000000e 	b	3a7c <n31_bgez_test+0x3a7c>
    3a44:	24120000 	li	s2,0
    3a48:	00000000 	nop
    3a4c:	3c10260a 	lui	s0,0x260a
    3a50:	05010012 	bgez	t0,3a9c <n31_bgez_test+0x3a9c>
    3a54:	36102a00 	ori	s0,s0,0x2a00
    3a58:	10000012 	b	3aa4 <n31_bgez_test+0x3aa4>
    3a5c:	00000000 	nop
    3a60:	00000000 	nop
    3a64:	00000021 	move	zero,zero
    3a68:	00000021 	move	zero,zero
    3a6c:	00000021 	move	zero,zero
    3a70:	00000021 	move	zero,zero
    3a74:	00000021 	move	zero,zero
    3a78:	00000021 	move	zero,zero
    3a7c:	3c08f0f9 	lui	t0,0xf0f9
    3a80:	35081a54 	ori	t0,t0,0x1a54
    3a84:	0501fff1 	bgez	t0,3a4c <n31_bgez_test+0x3a4c>
    3a88:	00000000 	nop
    3a8c:	10000005 	b	3aa4 <n31_bgez_test+0x3aa4>
    3a90:	00000000 	nop
    3a94:	00000000 	nop
    3a98:	00000021 	move	zero,zero
    3a9c:	3c12c709 	lui	s2,0xc709
    3aa0:	3652b674 	ori	s2,s2,0xb674
    3aa4:	00000000 	nop
    3aa8:	24140000 	li	s4,0
    3aac:	161410b3 	bne	s0,s4,7d7c <inst_error>
    3ab0:	00000000 	nop
    3ab4:	00000000 	nop
    3ab8:	24150000 	li	s5,0
    3abc:	165510af 	bne	s2,s5,7d7c <inst_error>
    3ac0:	00000000 	nop
    3ac4:	00000000 	nop
    3ac8:	3c0c1df6 	lui	t4,0x1df6
    3acc:	358c5631 	ori	t4,t4,0x5631
    3ad0:	3c0d663c 	lui	t5,0x663c
    3ad4:	35adf833 	ori	t5,t5,0xf833
    3ad8:	24100000 	li	s0,0
    3adc:	1000000e 	b	3b18 <n31_bgez_test+0x3b18>
    3ae0:	24120000 	li	s2,0
    3ae4:	00000000 	nop
    3ae8:	3c101df6 	lui	s0,0x1df6
    3aec:	05010012 	bgez	t0,3b38 <n31_bgez_test+0x3b38>
    3af0:	36105631 	ori	s0,s0,0x5631
    3af4:	10000012 	b	3b40 <n31_bgez_test+0x3b40>
    3af8:	00000000 	nop
    3afc:	00000000 	nop
    3b00:	00000021 	move	zero,zero
    3b04:	00000021 	move	zero,zero
    3b08:	00000021 	move	zero,zero
    3b0c:	00000021 	move	zero,zero
    3b10:	00000021 	move	zero,zero
    3b14:	00000021 	move	zero,zero
    3b18:	3c08d7df 	lui	t0,0xd7df
    3b1c:	35089f90 	ori	t0,t0,0x9f90
    3b20:	0501fff1 	bgez	t0,3ae8 <n31_bgez_test+0x3ae8>
    3b24:	00000000 	nop
    3b28:	10000005 	b	3b40 <n31_bgez_test+0x3b40>
    3b2c:	00000000 	nop
    3b30:	00000000 	nop
    3b34:	00000021 	move	zero,zero
    3b38:	3c12663c 	lui	s2,0x663c
    3b3c:	3652f833 	ori	s2,s2,0xf833
    3b40:	00000000 	nop
    3b44:	24140000 	li	s4,0
    3b48:	1614108c 	bne	s0,s4,7d7c <inst_error>
    3b4c:	00000000 	nop
    3b50:	00000000 	nop
    3b54:	24150000 	li	s5,0
    3b58:	16551088 	bne	s2,s5,7d7c <inst_error>
    3b5c:	00000000 	nop
    3b60:	00000000 	nop
    3b64:	3c0cf138 	lui	t4,0xf138
    3b68:	358ca309 	ori	t4,t4,0xa309
    3b6c:	3c0d3088 	lui	t5,0x3088
    3b70:	35ad16f6 	ori	t5,t5,0x16f6
    3b74:	24100000 	li	s0,0
    3b78:	1000000e 	b	3bb4 <n31_bgez_test+0x3bb4>
    3b7c:	24120000 	li	s2,0
    3b80:	00000000 	nop
    3b84:	3c10f138 	lui	s0,0xf138
    3b88:	05010012 	bgez	t0,3bd4 <n31_bgez_test+0x3bd4>
    3b8c:	3610a309 	ori	s0,s0,0xa309
    3b90:	10000012 	b	3bdc <n31_bgez_test+0x3bdc>
    3b94:	00000000 	nop
    3b98:	00000000 	nop
    3b9c:	00000021 	move	zero,zero
    3ba0:	00000021 	move	zero,zero
    3ba4:	00000021 	move	zero,zero
    3ba8:	00000021 	move	zero,zero
    3bac:	00000021 	move	zero,zero
    3bb0:	00000021 	move	zero,zero
    3bb4:	3c08e3be 	lui	t0,0xe3be
    3bb8:	3508a2c6 	ori	t0,t0,0xa2c6
    3bbc:	0501fff1 	bgez	t0,3b84 <n31_bgez_test+0x3b84>
    3bc0:	00000000 	nop
    3bc4:	10000005 	b	3bdc <n31_bgez_test+0x3bdc>
    3bc8:	00000000 	nop
    3bcc:	00000000 	nop
    3bd0:	00000021 	move	zero,zero
    3bd4:	3c123088 	lui	s2,0x3088
    3bd8:	365216f6 	ori	s2,s2,0x16f6
    3bdc:	00000000 	nop
    3be0:	24140000 	li	s4,0
    3be4:	16141065 	bne	s0,s4,7d7c <inst_error>
    3be8:	00000000 	nop
    3bec:	00000000 	nop
    3bf0:	24150000 	li	s5,0
    3bf4:	16551061 	bne	s2,s5,7d7c <inst_error>
    3bf8:	00000000 	nop
    3bfc:	00000000 	nop
    3c00:	3c0c6af6 	lui	t4,0x6af6
    3c04:	358c6730 	ori	t4,t4,0x6730
    3c08:	3c0dc4c2 	lui	t5,0xc4c2
    3c0c:	35ad3015 	ori	t5,t5,0x3015
    3c10:	24100000 	li	s0,0
    3c14:	1000000e 	b	3c50 <n31_bgez_test+0x3c50>
    3c18:	24120000 	li	s2,0
    3c1c:	00000000 	nop
    3c20:	3c106af6 	lui	s0,0x6af6
    3c24:	05010012 	bgez	t0,3c70 <n31_bgez_test+0x3c70>
    3c28:	36106730 	ori	s0,s0,0x6730
    3c2c:	10000012 	b	3c78 <n31_bgez_test+0x3c78>
    3c30:	00000000 	nop
    3c34:	00000000 	nop
    3c38:	00000021 	move	zero,zero
    3c3c:	00000021 	move	zero,zero
    3c40:	00000021 	move	zero,zero
    3c44:	00000021 	move	zero,zero
    3c48:	00000021 	move	zero,zero
    3c4c:	00000021 	move	zero,zero
    3c50:	3c08bc55 	lui	t0,0xbc55
    3c54:	35087688 	ori	t0,t0,0x7688
    3c58:	0501fff1 	bgez	t0,3c20 <n31_bgez_test+0x3c20>
    3c5c:	00000000 	nop
    3c60:	10000005 	b	3c78 <n31_bgez_test+0x3c78>
    3c64:	00000000 	nop
    3c68:	00000000 	nop
    3c6c:	00000021 	move	zero,zero
    3c70:	3c12c4c2 	lui	s2,0xc4c2
    3c74:	36523015 	ori	s2,s2,0x3015
    3c78:	00000000 	nop
    3c7c:	24140000 	li	s4,0
    3c80:	1614103e 	bne	s0,s4,7d7c <inst_error>
    3c84:	00000000 	nop
    3c88:	00000000 	nop
    3c8c:	24150000 	li	s5,0
    3c90:	1655103a 	bne	s2,s5,7d7c <inst_error>
    3c94:	00000000 	nop
    3c98:	00000000 	nop
    3c9c:	3c0c88ea 	lui	t4,0x88ea
    3ca0:	358cfcc8 	ori	t4,t4,0xfcc8
    3ca4:	3c0d90cb 	lui	t5,0x90cb
    3ca8:	35adb290 	ori	t5,t5,0xb290
    3cac:	24100000 	li	s0,0
    3cb0:	1000000e 	b	3cec <n31_bgez_test+0x3cec>
    3cb4:	24120000 	li	s2,0
    3cb8:	00000000 	nop
    3cbc:	3c1088ea 	lui	s0,0x88ea
    3cc0:	05010012 	bgez	t0,3d0c <n31_bgez_test+0x3d0c>
    3cc4:	3610fcc8 	ori	s0,s0,0xfcc8
    3cc8:	10000012 	b	3d14 <n31_bgez_test+0x3d14>
    3ccc:	00000000 	nop
    3cd0:	00000000 	nop
    3cd4:	00000021 	move	zero,zero
    3cd8:	00000021 	move	zero,zero
    3cdc:	00000021 	move	zero,zero
    3ce0:	00000021 	move	zero,zero
    3ce4:	00000021 	move	zero,zero
    3ce8:	00000021 	move	zero,zero
    3cec:	3c08733a 	lui	t0,0x733a
    3cf0:	3508155f 	ori	t0,t0,0x155f
    3cf4:	0501fff1 	bgez	t0,3cbc <n31_bgez_test+0x3cbc>
    3cf8:	00000000 	nop
    3cfc:	10000005 	b	3d14 <n31_bgez_test+0x3d14>
    3d00:	00000000 	nop
    3d04:	00000000 	nop
    3d08:	00000021 	move	zero,zero
    3d0c:	3c1290cb 	lui	s2,0x90cb
    3d10:	3652b290 	ori	s2,s2,0xb290
    3d14:	00000000 	nop
    3d18:	3c1488ea 	lui	s4,0x88ea
    3d1c:	3694fcc8 	ori	s4,s4,0xfcc8
    3d20:	16141016 	bne	s0,s4,7d7c <inst_error>
    3d24:	00000000 	nop
    3d28:	00000000 	nop
    3d2c:	3c1590cb 	lui	s5,0x90cb
    3d30:	36b5b290 	ori	s5,s5,0xb290
    3d34:	16551011 	bne	s2,s5,7d7c <inst_error>
    3d38:	00000000 	nop
    3d3c:	00000000 	nop
    3d40:	3c0cdbdd 	lui	t4,0xdbdd
    3d44:	358c9a30 	ori	t4,t4,0x9a30
    3d48:	3c0d4096 	lui	t5,0x4096
    3d4c:	35ad4e90 	ori	t5,t5,0x4e90
    3d50:	24100000 	li	s0,0
    3d54:	1000000e 	b	3d90 <n31_bgez_test+0x3d90>
    3d58:	24120000 	li	s2,0
    3d5c:	00000000 	nop
    3d60:	3c10dbdd 	lui	s0,0xdbdd
    3d64:	05010012 	bgez	t0,3db0 <n31_bgez_test+0x3db0>
    3d68:	36109a30 	ori	s0,s0,0x9a30
    3d6c:	10000012 	b	3db8 <n31_bgez_test+0x3db8>
    3d70:	00000000 	nop
    3d74:	00000000 	nop
    3d78:	00000021 	move	zero,zero
    3d7c:	00000021 	move	zero,zero
    3d80:	00000021 	move	zero,zero
    3d84:	00000021 	move	zero,zero
    3d88:	00000021 	move	zero,zero
    3d8c:	00000021 	move	zero,zero
    3d90:	3c08c7a0 	lui	t0,0xc7a0
    3d94:	350802e0 	ori	t0,t0,0x2e0
    3d98:	0501fff1 	bgez	t0,3d60 <n31_bgez_test+0x3d60>
    3d9c:	00000000 	nop
    3da0:	10000005 	b	3db8 <n31_bgez_test+0x3db8>
    3da4:	00000000 	nop
    3da8:	00000000 	nop
    3dac:	00000021 	move	zero,zero
    3db0:	3c124096 	lui	s2,0x4096
    3db4:	36524e90 	ori	s2,s2,0x4e90
    3db8:	00000000 	nop
    3dbc:	24140000 	li	s4,0
    3dc0:	16140fee 	bne	s0,s4,7d7c <inst_error>
    3dc4:	00000000 	nop
    3dc8:	00000000 	nop
    3dcc:	24150000 	li	s5,0
    3dd0:	16550fea 	bne	s2,s5,7d7c <inst_error>
    3dd4:	00000000 	nop
    3dd8:	00000000 	nop
    3ddc:	3c0c3931 	lui	t4,0x3931
    3de0:	358c6664 	ori	t4,t4,0x6664
    3de4:	3c0de36f 	lui	t5,0xe36f
    3de8:	35adce90 	ori	t5,t5,0xce90
    3dec:	24100000 	li	s0,0
    3df0:	1000000e 	b	3e2c <n31_bgez_test+0x3e2c>
    3df4:	24120000 	li	s2,0
    3df8:	00000000 	nop
    3dfc:	3c103931 	lui	s0,0x3931
    3e00:	05010012 	bgez	t0,3e4c <n31_bgez_test+0x3e4c>
    3e04:	36106664 	ori	s0,s0,0x6664
    3e08:	10000012 	b	3e54 <n31_bgez_test+0x3e54>
    3e0c:	00000000 	nop
    3e10:	00000000 	nop
    3e14:	00000021 	move	zero,zero
    3e18:	00000021 	move	zero,zero
    3e1c:	00000021 	move	zero,zero
    3e20:	00000021 	move	zero,zero
    3e24:	00000021 	move	zero,zero
    3e28:	00000021 	move	zero,zero
    3e2c:	3c08f8a0 	lui	t0,0xf8a0
    3e30:	3508831f 	ori	t0,t0,0x831f
    3e34:	0501fff1 	bgez	t0,3dfc <n31_bgez_test+0x3dfc>
    3e38:	00000000 	nop
    3e3c:	10000005 	b	3e54 <n31_bgez_test+0x3e54>
    3e40:	00000000 	nop
    3e44:	00000000 	nop
    3e48:	00000021 	move	zero,zero
    3e4c:	3c12e36f 	lui	s2,0xe36f
    3e50:	3652ce90 	ori	s2,s2,0xce90
    3e54:	00000000 	nop
    3e58:	24140000 	li	s4,0
    3e5c:	16140fc7 	bne	s0,s4,7d7c <inst_error>
    3e60:	00000000 	nop
    3e64:	00000000 	nop
    3e68:	24150000 	li	s5,0
    3e6c:	16550fc3 	bne	s2,s5,7d7c <inst_error>
    3e70:	00000000 	nop
    3e74:	00000000 	nop
    3e78:	3c0c2ce1 	lui	t4,0x2ce1
    3e7c:	358cc350 	ori	t4,t4,0xc350
    3e80:	3c0d2145 	lui	t5,0x2145
    3e84:	35ad3eb2 	ori	t5,t5,0x3eb2
    3e88:	24100000 	li	s0,0
    3e8c:	1000000e 	b	3ec8 <n31_bgez_test+0x3ec8>
    3e90:	24120000 	li	s2,0
    3e94:	00000000 	nop
    3e98:	3c102ce1 	lui	s0,0x2ce1
    3e9c:	05010012 	bgez	t0,3ee8 <n31_bgez_test+0x3ee8>
    3ea0:	3610c350 	ori	s0,s0,0xc350
    3ea4:	10000012 	b	3ef0 <n31_bgez_test+0x3ef0>
    3ea8:	00000000 	nop
    3eac:	00000000 	nop
    3eb0:	00000021 	move	zero,zero
    3eb4:	00000021 	move	zero,zero
    3eb8:	00000021 	move	zero,zero
    3ebc:	00000021 	move	zero,zero
    3ec0:	00000021 	move	zero,zero
    3ec4:	00000021 	move	zero,zero
    3ec8:	3c08890e 	lui	t0,0x890e
    3ecc:	35080d55 	ori	t0,t0,0xd55
    3ed0:	0501fff1 	bgez	t0,3e98 <n31_bgez_test+0x3e98>
    3ed4:	00000000 	nop
    3ed8:	10000005 	b	3ef0 <n31_bgez_test+0x3ef0>
    3edc:	00000000 	nop
    3ee0:	00000000 	nop
    3ee4:	00000021 	move	zero,zero
    3ee8:	3c122145 	lui	s2,0x2145
    3eec:	36523eb2 	ori	s2,s2,0x3eb2
    3ef0:	00000000 	nop
    3ef4:	24140000 	li	s4,0
    3ef8:	16140fa0 	bne	s0,s4,7d7c <inst_error>
    3efc:	00000000 	nop
    3f00:	00000000 	nop
    3f04:	24150000 	li	s5,0
    3f08:	16550f9c 	bne	s2,s5,7d7c <inst_error>
    3f0c:	00000000 	nop
    3f10:	00000000 	nop
    3f14:	3c0c68cb 	lui	t4,0x68cb
    3f18:	358ca230 	ori	t4,t4,0xa230
    3f1c:	3c0d5de7 	lui	t5,0x5de7
    3f20:	35ad14e8 	ori	t5,t5,0x14e8
    3f24:	24100000 	li	s0,0
    3f28:	1000000e 	b	3f64 <n31_bgez_test+0x3f64>
    3f2c:	24120000 	li	s2,0
    3f30:	00000000 	nop
    3f34:	3c1068cb 	lui	s0,0x68cb
    3f38:	05010012 	bgez	t0,3f84 <n31_bgez_test+0x3f84>
    3f3c:	3610a230 	ori	s0,s0,0xa230
    3f40:	10000012 	b	3f8c <n31_bgez_test+0x3f8c>
    3f44:	00000000 	nop
    3f48:	00000000 	nop
    3f4c:	00000021 	move	zero,zero
    3f50:	00000021 	move	zero,zero
    3f54:	00000021 	move	zero,zero
    3f58:	00000021 	move	zero,zero
    3f5c:	00000021 	move	zero,zero
    3f60:	00000021 	move	zero,zero
    3f64:	3c082fdd 	lui	t0,0x2fdd
    3f68:	35083f70 	ori	t0,t0,0x3f70
    3f6c:	0501fff1 	bgez	t0,3f34 <n31_bgez_test+0x3f34>
    3f70:	00000000 	nop
    3f74:	10000005 	b	3f8c <n31_bgez_test+0x3f8c>
    3f78:	00000000 	nop
    3f7c:	00000000 	nop
    3f80:	00000021 	move	zero,zero
    3f84:	3c125de7 	lui	s2,0x5de7
    3f88:	365214e8 	ori	s2,s2,0x14e8
    3f8c:	00000000 	nop
    3f90:	3c1468cb 	lui	s4,0x68cb
    3f94:	3694a230 	ori	s4,s4,0xa230
    3f98:	16140f78 	bne	s0,s4,7d7c <inst_error>
    3f9c:	00000000 	nop
    3fa0:	00000000 	nop
    3fa4:	3c155de7 	lui	s5,0x5de7
    3fa8:	36b514e8 	ori	s5,s5,0x14e8
    3fac:	16550f73 	bne	s2,s5,7d7c <inst_error>
    3fb0:	00000000 	nop
    3fb4:	00000000 	nop
    3fb8:	3c0c11f7 	lui	t4,0x11f7
    3fbc:	358c9fe1 	ori	t4,t4,0x9fe1
    3fc0:	3c0d620b 	lui	t5,0x620b
    3fc4:	35ad7500 	ori	t5,t5,0x7500
    3fc8:	24100000 	li	s0,0
    3fcc:	1000000e 	b	4008 <n31_bgez_test+0x4008>
    3fd0:	24120000 	li	s2,0
    3fd4:	00000000 	nop
    3fd8:	3c1011f7 	lui	s0,0x11f7
    3fdc:	05010012 	bgez	t0,4028 <n31_bgez_test+0x4028>
    3fe0:	36109fe1 	ori	s0,s0,0x9fe1
    3fe4:	10000012 	b	4030 <n31_bgez_test+0x4030>
    3fe8:	00000000 	nop
    3fec:	00000000 	nop
    3ff0:	00000021 	move	zero,zero
    3ff4:	00000021 	move	zero,zero
    3ff8:	00000021 	move	zero,zero
    3ffc:	00000021 	move	zero,zero
    4000:	00000021 	move	zero,zero
    4004:	00000021 	move	zero,zero
    4008:	3c082ad5 	lui	t0,0x2ad5
    400c:	3508e9b4 	ori	t0,t0,0xe9b4
    4010:	0501fff1 	bgez	t0,3fd8 <n31_bgez_test+0x3fd8>
    4014:	00000000 	nop
    4018:	10000005 	b	4030 <n31_bgez_test+0x4030>
    401c:	00000000 	nop
    4020:	00000000 	nop
    4024:	00000021 	move	zero,zero
    4028:	3c12620b 	lui	s2,0x620b
    402c:	36527500 	ori	s2,s2,0x7500
    4030:	00000000 	nop
    4034:	3c1411f7 	lui	s4,0x11f7
    4038:	36949fe1 	ori	s4,s4,0x9fe1
    403c:	16140f4f 	bne	s0,s4,7d7c <inst_error>
    4040:	00000000 	nop
    4044:	00000000 	nop
    4048:	3c15620b 	lui	s5,0x620b
    404c:	36b57500 	ori	s5,s5,0x7500
    4050:	16550f4a 	bne	s2,s5,7d7c <inst_error>
    4054:	00000000 	nop
    4058:	00000000 	nop
    405c:	3c0c2c50 	lui	t4,0x2c50
    4060:	358cde20 	ori	t4,t4,0xde20
    4064:	3c0dbe0a 	lui	t5,0xbe0a
    4068:	35ad1860 	ori	t5,t5,0x1860
    406c:	24100000 	li	s0,0
    4070:	1000000e 	b	40ac <n31_bgez_test+0x40ac>
    4074:	24120000 	li	s2,0
    4078:	00000000 	nop
    407c:	3c102c50 	lui	s0,0x2c50
    4080:	05010012 	bgez	t0,40cc <n31_bgez_test+0x40cc>
    4084:	3610de20 	ori	s0,s0,0xde20
    4088:	10000012 	b	40d4 <n31_bgez_test+0x40d4>
    408c:	00000000 	nop
    4090:	00000000 	nop
    4094:	00000021 	move	zero,zero
    4098:	00000021 	move	zero,zero
    409c:	00000021 	move	zero,zero
    40a0:	00000021 	move	zero,zero
    40a4:	00000021 	move	zero,zero
    40a8:	00000021 	move	zero,zero
    40ac:	3c081947 	lui	t0,0x1947
    40b0:	3508e910 	ori	t0,t0,0xe910
    40b4:	0501fff1 	bgez	t0,407c <n31_bgez_test+0x407c>
    40b8:	00000000 	nop
    40bc:	10000005 	b	40d4 <n31_bgez_test+0x40d4>
    40c0:	00000000 	nop
    40c4:	00000000 	nop
    40c8:	00000021 	move	zero,zero
    40cc:	3c12be0a 	lui	s2,0xbe0a
    40d0:	36521860 	ori	s2,s2,0x1860
    40d4:	00000000 	nop
    40d8:	3c142c50 	lui	s4,0x2c50
    40dc:	3694de20 	ori	s4,s4,0xde20
    40e0:	16140f26 	bne	s0,s4,7d7c <inst_error>
    40e4:	00000000 	nop
    40e8:	00000000 	nop
    40ec:	3c15be0a 	lui	s5,0xbe0a
    40f0:	36b51860 	ori	s5,s5,0x1860
    40f4:	16550f21 	bne	s2,s5,7d7c <inst_error>
    40f8:	00000000 	nop
    40fc:	00000000 	nop
    4100:	3c0c2b6f 	lui	t4,0x2b6f
    4104:	358c2c2d 	ori	t4,t4,0x2c2d
    4108:	3c0df7a6 	lui	t5,0xf7a6
    410c:	35ad66c8 	ori	t5,t5,0x66c8
    4110:	24100000 	li	s0,0
    4114:	1000000e 	b	4150 <n31_bgez_test+0x4150>
    4118:	24120000 	li	s2,0
    411c:	00000000 	nop
    4120:	3c102b6f 	lui	s0,0x2b6f
    4124:	05010012 	bgez	t0,4170 <n31_bgez_test+0x4170>
    4128:	36102c2d 	ori	s0,s0,0x2c2d
    412c:	10000012 	b	4178 <n31_bgez_test+0x4178>
    4130:	00000000 	nop
    4134:	00000000 	nop
    4138:	00000021 	move	zero,zero
    413c:	00000021 	move	zero,zero
    4140:	00000021 	move	zero,zero
    4144:	00000021 	move	zero,zero
    4148:	00000021 	move	zero,zero
    414c:	00000021 	move	zero,zero
    4150:	3c082d92 	lui	t0,0x2d92
    4154:	350808b4 	ori	t0,t0,0x8b4
    4158:	0501fff1 	bgez	t0,4120 <n31_bgez_test+0x4120>
    415c:	00000000 	nop
    4160:	10000005 	b	4178 <n31_bgez_test+0x4178>
    4164:	00000000 	nop
    4168:	00000000 	nop
    416c:	00000021 	move	zero,zero
    4170:	3c12f7a6 	lui	s2,0xf7a6
    4174:	365266c8 	ori	s2,s2,0x66c8
    4178:	00000000 	nop
    417c:	3c142b6f 	lui	s4,0x2b6f
    4180:	36942c2d 	ori	s4,s4,0x2c2d
    4184:	16140efd 	bne	s0,s4,7d7c <inst_error>
    4188:	00000000 	nop
    418c:	00000000 	nop
    4190:	3c15f7a6 	lui	s5,0xf7a6
    4194:	36b566c8 	ori	s5,s5,0x66c8
    4198:	16550ef8 	bne	s2,s5,7d7c <inst_error>
    419c:	00000000 	nop
    41a0:	00000000 	nop
    41a4:	3c0c3c2f 	lui	t4,0x3c2f
    41a8:	358c5c00 	ori	t4,t4,0x5c00
    41ac:	3c0d5845 	lui	t5,0x5845
    41b0:	35adb7a6 	ori	t5,t5,0xb7a6
    41b4:	24100000 	li	s0,0
    41b8:	1000000e 	b	41f4 <n31_bgez_test+0x41f4>
    41bc:	24120000 	li	s2,0
    41c0:	00000000 	nop
    41c4:	3c103c2f 	lui	s0,0x3c2f
    41c8:	05010012 	bgez	t0,4214 <n31_bgez_test+0x4214>
    41cc:	36105c00 	ori	s0,s0,0x5c00
    41d0:	10000012 	b	421c <n31_bgez_test+0x421c>
    41d4:	00000000 	nop
    41d8:	00000000 	nop
    41dc:	00000021 	move	zero,zero
    41e0:	00000021 	move	zero,zero
    41e4:	00000021 	move	zero,zero
    41e8:	00000021 	move	zero,zero
    41ec:	00000021 	move	zero,zero
    41f0:	00000021 	move	zero,zero
    41f4:	3c085330 	lui	t0,0x5330
    41f8:	35085c40 	ori	t0,t0,0x5c40
    41fc:	0501fff1 	bgez	t0,41c4 <n31_bgez_test+0x41c4>
    4200:	00000000 	nop
    4204:	10000005 	b	421c <n31_bgez_test+0x421c>
    4208:	00000000 	nop
    420c:	00000000 	nop
    4210:	00000021 	move	zero,zero
    4214:	3c125845 	lui	s2,0x5845
    4218:	3652b7a6 	ori	s2,s2,0xb7a6
    421c:	00000000 	nop
    4220:	3c143c2f 	lui	s4,0x3c2f
    4224:	36945c00 	ori	s4,s4,0x5c00
    4228:	16140ed4 	bne	s0,s4,7d7c <inst_error>
    422c:	00000000 	nop
    4230:	00000000 	nop
    4234:	3c155845 	lui	s5,0x5845
    4238:	36b5b7a6 	ori	s5,s5,0xb7a6
    423c:	16550ecf 	bne	s2,s5,7d7c <inst_error>
    4240:	00000000 	nop
    4244:	00000000 	nop
    4248:	3c0c5bf5 	lui	t4,0x5bf5
    424c:	358c8b7e 	ori	t4,t4,0x8b7e
    4250:	3c0debad 	lui	t5,0xebad
    4254:	35adfa9b 	ori	t5,t5,0xfa9b
    4258:	24100000 	li	s0,0
    425c:	1000000e 	b	4298 <n31_bgez_test+0x4298>
    4260:	24120000 	li	s2,0
    4264:	00000000 	nop
    4268:	3c105bf5 	lui	s0,0x5bf5
    426c:	05010012 	bgez	t0,42b8 <n31_bgez_test+0x42b8>
    4270:	36108b7e 	ori	s0,s0,0x8b7e
    4274:	10000012 	b	42c0 <n31_bgez_test+0x42c0>
    4278:	00000000 	nop
    427c:	00000000 	nop
    4280:	00000021 	move	zero,zero
    4284:	00000021 	move	zero,zero
    4288:	00000021 	move	zero,zero
    428c:	00000021 	move	zero,zero
    4290:	00000021 	move	zero,zero
    4294:	00000021 	move	zero,zero
    4298:	3c082adf 	lui	t0,0x2adf
    429c:	3508ecc8 	ori	t0,t0,0xecc8
    42a0:	0501fff1 	bgez	t0,4268 <n31_bgez_test+0x4268>
    42a4:	00000000 	nop
    42a8:	10000005 	b	42c0 <n31_bgez_test+0x42c0>
    42ac:	00000000 	nop
    42b0:	00000000 	nop
    42b4:	00000021 	move	zero,zero
    42b8:	3c12ebad 	lui	s2,0xebad
    42bc:	3652fa9b 	ori	s2,s2,0xfa9b
    42c0:	00000000 	nop
    42c4:	3c145bf5 	lui	s4,0x5bf5
    42c8:	36948b7e 	ori	s4,s4,0x8b7e
    42cc:	16140eab 	bne	s0,s4,7d7c <inst_error>
    42d0:	00000000 	nop
    42d4:	00000000 	nop
    42d8:	3c15ebad 	lui	s5,0xebad
    42dc:	36b5fa9b 	ori	s5,s5,0xfa9b
    42e0:	16550ea6 	bne	s2,s5,7d7c <inst_error>
    42e4:	00000000 	nop
    42e8:	00000000 	nop
    42ec:	3c0ccbf0 	lui	t4,0xcbf0
    42f0:	358c0430 	ori	t4,t4,0x430
    42f4:	3c0da0b2 	lui	t5,0xa0b2
    42f8:	35ad9a1c 	ori	t5,t5,0x9a1c
    42fc:	24100000 	li	s0,0
    4300:	1000000e 	b	433c <n31_bgez_test+0x433c>
    4304:	24120000 	li	s2,0
    4308:	00000000 	nop
    430c:	3c10cbf0 	lui	s0,0xcbf0
    4310:	05010012 	bgez	t0,435c <n31_bgez_test+0x435c>
    4314:	36100430 	ori	s0,s0,0x430
    4318:	10000012 	b	4364 <n31_bgez_test+0x4364>
    431c:	00000000 	nop
    4320:	00000000 	nop
    4324:	00000021 	move	zero,zero
    4328:	00000021 	move	zero,zero
    432c:	00000021 	move	zero,zero
    4330:	00000021 	move	zero,zero
    4334:	00000021 	move	zero,zero
    4338:	00000021 	move	zero,zero
    433c:	3c083753 	lui	t0,0x3753
    4340:	3508c816 	ori	t0,t0,0xc816
    4344:	0501fff1 	bgez	t0,430c <n31_bgez_test+0x430c>
    4348:	00000000 	nop
    434c:	10000005 	b	4364 <n31_bgez_test+0x4364>
    4350:	00000000 	nop
    4354:	00000000 	nop
    4358:	00000021 	move	zero,zero
    435c:	3c12a0b2 	lui	s2,0xa0b2
    4360:	36529a1c 	ori	s2,s2,0x9a1c
    4364:	00000000 	nop
    4368:	3c14cbf0 	lui	s4,0xcbf0
    436c:	36940430 	ori	s4,s4,0x430
    4370:	16140e82 	bne	s0,s4,7d7c <inst_error>
    4374:	00000000 	nop
    4378:	00000000 	nop
    437c:	3c15a0b2 	lui	s5,0xa0b2
    4380:	36b59a1c 	ori	s5,s5,0x9a1c
    4384:	16550e7d 	bne	s2,s5,7d7c <inst_error>
    4388:	00000000 	nop
    438c:	00000000 	nop
    4390:	3c0c917b 	lui	t4,0x917b
    4394:	358cf4f1 	ori	t4,t4,0xf4f1
    4398:	3c0d44b0 	lui	t5,0x44b0
    439c:	35ad0fbc 	ori	t5,t5,0xfbc
    43a0:	24100000 	li	s0,0
    43a4:	1000000e 	b	43e0 <n31_bgez_test+0x43e0>
    43a8:	24120000 	li	s2,0
    43ac:	00000000 	nop
    43b0:	3c10917b 	lui	s0,0x917b
    43b4:	05010012 	bgez	t0,4400 <n31_bgez_test+0x4400>
    43b8:	3610f4f1 	ori	s0,s0,0xf4f1
    43bc:	10000012 	b	4408 <n31_bgez_test+0x4408>
    43c0:	00000000 	nop
    43c4:	00000000 	nop
    43c8:	00000021 	move	zero,zero
    43cc:	00000021 	move	zero,zero
    43d0:	00000021 	move	zero,zero
    43d4:	00000021 	move	zero,zero
    43d8:	00000021 	move	zero,zero
    43dc:	00000021 	move	zero,zero
    43e0:	3c0884cd 	lui	t0,0x84cd
    43e4:	3508ee20 	ori	t0,t0,0xee20
    43e8:	0501fff1 	bgez	t0,43b0 <n31_bgez_test+0x43b0>
    43ec:	00000000 	nop
    43f0:	10000005 	b	4408 <n31_bgez_test+0x4408>
    43f4:	00000000 	nop
    43f8:	00000000 	nop
    43fc:	00000021 	move	zero,zero
    4400:	3c1244b0 	lui	s2,0x44b0
    4404:	36520fbc 	ori	s2,s2,0xfbc
    4408:	00000000 	nop
    440c:	24140000 	li	s4,0
    4410:	16140e5a 	bne	s0,s4,7d7c <inst_error>
    4414:	00000000 	nop
    4418:	00000000 	nop
    441c:	24150000 	li	s5,0
    4420:	16550e56 	bne	s2,s5,7d7c <inst_error>
    4424:	00000000 	nop
    4428:	00000000 	nop
    442c:	3c0cf210 	lui	t4,0xf210
    4430:	358cdfae 	ori	t4,t4,0xdfae
    4434:	3c0dc2a0 	lui	t5,0xc2a0
    4438:	35ad72fe 	ori	t5,t5,0x72fe
    443c:	24100000 	li	s0,0
    4440:	1000000e 	b	447c <n31_bgez_test+0x447c>
    4444:	24120000 	li	s2,0
    4448:	00000000 	nop
    444c:	3c10f210 	lui	s0,0xf210
    4450:	05010012 	bgez	t0,449c <n31_bgez_test+0x449c>
    4454:	3610dfae 	ori	s0,s0,0xdfae
    4458:	10000012 	b	44a4 <n31_bgez_test+0x44a4>
    445c:	00000000 	nop
    4460:	00000000 	nop
    4464:	00000021 	move	zero,zero
    4468:	00000021 	move	zero,zero
    446c:	00000021 	move	zero,zero
    4470:	00000021 	move	zero,zero
    4474:	00000021 	move	zero,zero
    4478:	00000021 	move	zero,zero
    447c:	3c0806c7 	lui	t0,0x6c7
    4480:	35087478 	ori	t0,t0,0x7478
    4484:	0501fff1 	bgez	t0,444c <n31_bgez_test+0x444c>
    4488:	00000000 	nop
    448c:	10000005 	b	44a4 <n31_bgez_test+0x44a4>
    4490:	00000000 	nop
    4494:	00000000 	nop
    4498:	00000021 	move	zero,zero
    449c:	3c12c2a0 	lui	s2,0xc2a0
    44a0:	365272fe 	ori	s2,s2,0x72fe
    44a4:	00000000 	nop
    44a8:	3c14f210 	lui	s4,0xf210
    44ac:	3694dfae 	ori	s4,s4,0xdfae
    44b0:	16140e32 	bne	s0,s4,7d7c <inst_error>
    44b4:	00000000 	nop
    44b8:	00000000 	nop
    44bc:	3c15c2a0 	lui	s5,0xc2a0
    44c0:	36b572fe 	ori	s5,s5,0x72fe
    44c4:	16550e2d 	bne	s2,s5,7d7c <inst_error>
    44c8:	00000000 	nop
    44cc:	00000000 	nop
    44d0:	3c0c00a6 	lui	t4,0xa6
    44d4:	358c7800 	ori	t4,t4,0x7800
    44d8:	3c0d44bf 	lui	t5,0x44bf
    44dc:	35ad4a08 	ori	t5,t5,0x4a08
    44e0:	24100000 	li	s0,0
    44e4:	1000000e 	b	4520 <n31_bgez_test+0x4520>
    44e8:	24120000 	li	s2,0
    44ec:	00000000 	nop
    44f0:	3c1000a6 	lui	s0,0xa6
    44f4:	05010012 	bgez	t0,4540 <n31_bgez_test+0x4540>
    44f8:	36107800 	ori	s0,s0,0x7800
    44fc:	10000012 	b	4548 <n31_bgez_test+0x4548>
    4500:	00000000 	nop
    4504:	00000000 	nop
    4508:	00000021 	move	zero,zero
    450c:	00000021 	move	zero,zero
    4510:	00000021 	move	zero,zero
    4514:	00000021 	move	zero,zero
    4518:	00000021 	move	zero,zero
    451c:	00000021 	move	zero,zero
    4520:	3c086858 	lui	t0,0x6858
    4524:	35089474 	ori	t0,t0,0x9474
    4528:	0501fff1 	bgez	t0,44f0 <n31_bgez_test+0x44f0>
    452c:	00000000 	nop
    4530:	10000005 	b	4548 <n31_bgez_test+0x4548>
    4534:	00000000 	nop
    4538:	00000000 	nop
    453c:	00000021 	move	zero,zero
    4540:	3c1244bf 	lui	s2,0x44bf
    4544:	36524a08 	ori	s2,s2,0x4a08
    4548:	00000000 	nop
    454c:	3c1400a6 	lui	s4,0xa6
    4550:	36947800 	ori	s4,s4,0x7800
    4554:	16140e09 	bne	s0,s4,7d7c <inst_error>
    4558:	00000000 	nop
    455c:	00000000 	nop
    4560:	3c1544bf 	lui	s5,0x44bf
    4564:	36b54a08 	ori	s5,s5,0x4a08
    4568:	16550e04 	bne	s2,s5,7d7c <inst_error>
    456c:	00000000 	nop
    4570:	00000000 	nop
    4574:	3c0c4f49 	lui	t4,0x4f49
    4578:	358c0f1e 	ori	t4,t4,0xf1e
    457c:	3c0d0e1b 	lui	t5,0xe1b
    4580:	35ada31a 	ori	t5,t5,0xa31a
    4584:	24100000 	li	s0,0
    4588:	1000000e 	b	45c4 <n31_bgez_test+0x45c4>
    458c:	24120000 	li	s2,0
    4590:	00000000 	nop
    4594:	3c104f49 	lui	s0,0x4f49
    4598:	05010012 	bgez	t0,45e4 <n31_bgez_test+0x45e4>
    459c:	36100f1e 	ori	s0,s0,0xf1e
    45a0:	10000012 	b	45ec <n31_bgez_test+0x45ec>
    45a4:	00000000 	nop
    45a8:	00000000 	nop
    45ac:	00000021 	move	zero,zero
    45b0:	00000021 	move	zero,zero
    45b4:	00000021 	move	zero,zero
    45b8:	00000021 	move	zero,zero
    45bc:	00000021 	move	zero,zero
    45c0:	00000021 	move	zero,zero
    45c4:	3c086d1d 	lui	t0,0x6d1d
    45c8:	3508f1f8 	ori	t0,t0,0xf1f8
    45cc:	0501fff1 	bgez	t0,4594 <n31_bgez_test+0x4594>
    45d0:	00000000 	nop
    45d4:	10000005 	b	45ec <n31_bgez_test+0x45ec>
    45d8:	00000000 	nop
    45dc:	00000000 	nop
    45e0:	00000021 	move	zero,zero
    45e4:	3c120e1b 	lui	s2,0xe1b
    45e8:	3652a31a 	ori	s2,s2,0xa31a
    45ec:	00000000 	nop
    45f0:	3c144f49 	lui	s4,0x4f49
    45f4:	36940f1e 	ori	s4,s4,0xf1e
    45f8:	16140de0 	bne	s0,s4,7d7c <inst_error>
    45fc:	00000000 	nop
    4600:	00000000 	nop
    4604:	3c150e1b 	lui	s5,0xe1b
    4608:	36b5a31a 	ori	s5,s5,0xa31a
    460c:	16550ddb 	bne	s2,s5,7d7c <inst_error>
    4610:	00000000 	nop
    4614:	00000000 	nop
    4618:	3c0cb7d3 	lui	t4,0xb7d3
    461c:	3c0dbbaa 	lui	t5,0xbbaa
    4620:	35ad4970 	ori	t5,t5,0x4970
    4624:	24100000 	li	s0,0
    4628:	1000000d 	b	4660 <n31_bgez_test+0x4660>
    462c:	24120000 	li	s2,0
    4630:	00000000 	nop
    4634:	05010012 	bgez	t0,4680 <n31_bgez_test+0x4680>
    4638:	3c10b7d3 	lui	s0,0xb7d3
    463c:	10000012 	b	4688 <n31_bgez_test+0x4688>
    4640:	00000000 	nop
    4644:	00000000 	nop
    4648:	00000021 	move	zero,zero
    464c:	00000021 	move	zero,zero
    4650:	00000021 	move	zero,zero
    4654:	00000021 	move	zero,zero
    4658:	00000021 	move	zero,zero
    465c:	00000021 	move	zero,zero
    4660:	3c08ce0b 	lui	t0,0xce0b
    4664:	35083180 	ori	t0,t0,0x3180
    4668:	0501fff2 	bgez	t0,4634 <n31_bgez_test+0x4634>
    466c:	00000000 	nop
    4670:	10000005 	b	4688 <n31_bgez_test+0x4688>
    4674:	00000000 	nop
    4678:	00000000 	nop
    467c:	00000021 	move	zero,zero
    4680:	3c12bbaa 	lui	s2,0xbbaa
    4684:	36524970 	ori	s2,s2,0x4970
    4688:	00000000 	nop
    468c:	24140000 	li	s4,0
    4690:	16140dba 	bne	s0,s4,7d7c <inst_error>
    4694:	00000000 	nop
    4698:	00000000 	nop
    469c:	24150000 	li	s5,0
    46a0:	16550db6 	bne	s2,s5,7d7c <inst_error>
    46a4:	00000000 	nop
    46a8:	00000000 	nop
    46ac:	3c0cd6fb 	lui	t4,0xd6fb
    46b0:	358c7bb8 	ori	t4,t4,0x7bb8
    46b4:	3c0d910c 	lui	t5,0x910c
    46b8:	35ad3bf8 	ori	t5,t5,0x3bf8
    46bc:	24100000 	li	s0,0
    46c0:	1000000e 	b	46fc <n31_bgez_test+0x46fc>
    46c4:	24120000 	li	s2,0
    46c8:	00000000 	nop
    46cc:	3c10d6fb 	lui	s0,0xd6fb
    46d0:	05010012 	bgez	t0,471c <n31_bgez_test+0x471c>
    46d4:	36107bb8 	ori	s0,s0,0x7bb8
    46d8:	10000012 	b	4724 <n31_bgez_test+0x4724>
    46dc:	00000000 	nop
    46e0:	00000000 	nop
    46e4:	00000021 	move	zero,zero
    46e8:	00000021 	move	zero,zero
    46ec:	00000021 	move	zero,zero
    46f0:	00000021 	move	zero,zero
    46f4:	00000021 	move	zero,zero
    46f8:	00000021 	move	zero,zero
    46fc:	3c08a9e5 	lui	t0,0xa9e5
    4700:	350820ef 	ori	t0,t0,0x20ef
    4704:	0501fff1 	bgez	t0,46cc <n31_bgez_test+0x46cc>
    4708:	00000000 	nop
    470c:	10000005 	b	4724 <n31_bgez_test+0x4724>
    4710:	00000000 	nop
    4714:	00000000 	nop
    4718:	00000021 	move	zero,zero
    471c:	3c12910c 	lui	s2,0x910c
    4720:	36523bf8 	ori	s2,s2,0x3bf8
    4724:	00000000 	nop
    4728:	24140000 	li	s4,0
    472c:	16140d93 	bne	s0,s4,7d7c <inst_error>
    4730:	00000000 	nop
    4734:	00000000 	nop
    4738:	24150000 	li	s5,0
    473c:	16550d8f 	bne	s2,s5,7d7c <inst_error>
    4740:	00000000 	nop
    4744:	00000000 	nop
    4748:	3c0c86c9 	lui	t4,0x86c9
    474c:	358cd9b2 	ori	t4,t4,0xd9b2
    4750:	3c0d4c4b 	lui	t5,0x4c4b
    4754:	35adc560 	ori	t5,t5,0xc560
    4758:	24100000 	li	s0,0
    475c:	1000000e 	b	4798 <n31_bgez_test+0x4798>
    4760:	24120000 	li	s2,0
    4764:	00000000 	nop
    4768:	3c1086c9 	lui	s0,0x86c9
    476c:	05010012 	bgez	t0,47b8 <n31_bgez_test+0x47b8>
    4770:	3610d9b2 	ori	s0,s0,0xd9b2
    4774:	10000012 	b	47c0 <n31_bgez_test+0x47c0>
    4778:	00000000 	nop
    477c:	00000000 	nop
    4780:	00000021 	move	zero,zero
    4784:	00000021 	move	zero,zero
    4788:	00000021 	move	zero,zero
    478c:	00000021 	move	zero,zero
    4790:	00000021 	move	zero,zero
    4794:	00000021 	move	zero,zero
    4798:	3c089154 	lui	t0,0x9154
    479c:	35089820 	ori	t0,t0,0x9820
    47a0:	0501fff1 	bgez	t0,4768 <n31_bgez_test+0x4768>
    47a4:	00000000 	nop
    47a8:	10000005 	b	47c0 <n31_bgez_test+0x47c0>
    47ac:	00000000 	nop
    47b0:	00000000 	nop
    47b4:	00000021 	move	zero,zero
    47b8:	3c124c4b 	lui	s2,0x4c4b
    47bc:	3652c560 	ori	s2,s2,0xc560
    47c0:	00000000 	nop
    47c4:	24140000 	li	s4,0
    47c8:	16140d6c 	bne	s0,s4,7d7c <inst_error>
    47cc:	00000000 	nop
    47d0:	00000000 	nop
    47d4:	24150000 	li	s5,0
    47d8:	16550d68 	bne	s2,s5,7d7c <inst_error>
    47dc:	00000000 	nop
    47e0:	00000000 	nop
    47e4:	3c0c940a 	lui	t4,0x940a
    47e8:	358ccce4 	ori	t4,t4,0xcce4
    47ec:	3c0d6733 	lui	t5,0x6733
    47f0:	35ada46b 	ori	t5,t5,0xa46b
    47f4:	24100000 	li	s0,0
    47f8:	1000000e 	b	4834 <n31_bgez_test+0x4834>
    47fc:	24120000 	li	s2,0
    4800:	00000000 	nop
    4804:	3c10940a 	lui	s0,0x940a
    4808:	05010012 	bgez	t0,4854 <n31_bgez_test+0x4854>
    480c:	3610cce4 	ori	s0,s0,0xcce4
    4810:	10000012 	b	485c <n31_bgez_test+0x485c>
    4814:	00000000 	nop
    4818:	00000000 	nop
    481c:	00000021 	move	zero,zero
    4820:	00000021 	move	zero,zero
    4824:	00000021 	move	zero,zero
    4828:	00000021 	move	zero,zero
    482c:	00000021 	move	zero,zero
    4830:	00000021 	move	zero,zero
    4834:	3c08f5f9 	lui	t0,0xf5f9
    4838:	35086a90 	ori	t0,t0,0x6a90
    483c:	0501fff1 	bgez	t0,4804 <n31_bgez_test+0x4804>
    4840:	00000000 	nop
    4844:	10000005 	b	485c <n31_bgez_test+0x485c>
    4848:	00000000 	nop
    484c:	00000000 	nop
    4850:	00000021 	move	zero,zero
    4854:	3c126733 	lui	s2,0x6733
    4858:	3652a46b 	ori	s2,s2,0xa46b
    485c:	00000000 	nop
    4860:	24140000 	li	s4,0
    4864:	16140d45 	bne	s0,s4,7d7c <inst_error>
    4868:	00000000 	nop
    486c:	00000000 	nop
    4870:	24150000 	li	s5,0
    4874:	16550d41 	bne	s2,s5,7d7c <inst_error>
    4878:	00000000 	nop
    487c:	00000000 	nop
    4880:	3c0cfb93 	lui	t4,0xfb93
    4884:	358cfd70 	ori	t4,t4,0xfd70
    4888:	3c0de334 	lui	t5,0xe334
    488c:	35ad55f8 	ori	t5,t5,0x55f8
    4890:	24100000 	li	s0,0
    4894:	1000000e 	b	48d0 <n31_bgez_test+0x48d0>
    4898:	24120000 	li	s2,0
    489c:	00000000 	nop
    48a0:	3c10fb93 	lui	s0,0xfb93
    48a4:	05010012 	bgez	t0,48f0 <n31_bgez_test+0x48f0>
    48a8:	3610fd70 	ori	s0,s0,0xfd70
    48ac:	10000012 	b	48f8 <n31_bgez_test+0x48f8>
    48b0:	00000000 	nop
    48b4:	00000000 	nop
    48b8:	00000021 	move	zero,zero
    48bc:	00000021 	move	zero,zero
    48c0:	00000021 	move	zero,zero
    48c4:	00000021 	move	zero,zero
    48c8:	00000021 	move	zero,zero
    48cc:	00000021 	move	zero,zero
    48d0:	3c080725 	lui	t0,0x725
    48d4:	35087b68 	ori	t0,t0,0x7b68
    48d8:	0501fff1 	bgez	t0,48a0 <n31_bgez_test+0x48a0>
    48dc:	00000000 	nop
    48e0:	10000005 	b	48f8 <n31_bgez_test+0x48f8>
    48e4:	00000000 	nop
    48e8:	00000000 	nop
    48ec:	00000021 	move	zero,zero
    48f0:	3c12e334 	lui	s2,0xe334
    48f4:	365255f8 	ori	s2,s2,0x55f8
    48f8:	00000000 	nop
    48fc:	3c14fb93 	lui	s4,0xfb93
    4900:	3694fd70 	ori	s4,s4,0xfd70
    4904:	16140d1d 	bne	s0,s4,7d7c <inst_error>
    4908:	00000000 	nop
    490c:	00000000 	nop
    4910:	3c15e334 	lui	s5,0xe334
    4914:	36b555f8 	ori	s5,s5,0x55f8
    4918:	16550d18 	bne	s2,s5,7d7c <inst_error>
    491c:	00000000 	nop
    4920:	00000000 	nop
    4924:	3c0c065a 	lui	t4,0x65a
    4928:	358c1098 	ori	t4,t4,0x1098
    492c:	3c0dccd2 	lui	t5,0xccd2
    4930:	35adbfd0 	ori	t5,t5,0xbfd0
    4934:	24100000 	li	s0,0
    4938:	1000000e 	b	4974 <n31_bgez_test+0x4974>
    493c:	24120000 	li	s2,0
    4940:	00000000 	nop
    4944:	3c10065a 	lui	s0,0x65a
    4948:	05010012 	bgez	t0,4994 <n31_bgez_test+0x4994>
    494c:	36101098 	ori	s0,s0,0x1098
    4950:	10000012 	b	499c <n31_bgez_test+0x499c>
    4954:	00000000 	nop
    4958:	00000000 	nop
    495c:	00000021 	move	zero,zero
    4960:	00000021 	move	zero,zero
    4964:	00000021 	move	zero,zero
    4968:	00000021 	move	zero,zero
    496c:	00000021 	move	zero,zero
    4970:	00000021 	move	zero,zero
    4974:	3c088b1e 	lui	t0,0x8b1e
    4978:	35082400 	ori	t0,t0,0x2400
    497c:	0501fff1 	bgez	t0,4944 <n31_bgez_test+0x4944>
    4980:	00000000 	nop
    4984:	10000005 	b	499c <n31_bgez_test+0x499c>
    4988:	00000000 	nop
    498c:	00000000 	nop
    4990:	00000021 	move	zero,zero
    4994:	3c12ccd2 	lui	s2,0xccd2
    4998:	3652bfd0 	ori	s2,s2,0xbfd0
    499c:	00000000 	nop
    49a0:	24140000 	li	s4,0
    49a4:	16140cf5 	bne	s0,s4,7d7c <inst_error>
    49a8:	00000000 	nop
    49ac:	00000000 	nop
    49b0:	24150000 	li	s5,0
    49b4:	16550cf1 	bne	s2,s5,7d7c <inst_error>
    49b8:	00000000 	nop
    49bc:	00000000 	nop
    49c0:	3c0cdb7d 	lui	t4,0xdb7d
    49c4:	358cdfdc 	ori	t4,t4,0xdfdc
    49c8:	3c0d4dfc 	lui	t5,0x4dfc
    49cc:	35ad53ac 	ori	t5,t5,0x53ac
    49d0:	24100000 	li	s0,0
    49d4:	1000000e 	b	4a10 <n31_bgez_test+0x4a10>
    49d8:	24120000 	li	s2,0
    49dc:	00000000 	nop
    49e0:	3c10db7d 	lui	s0,0xdb7d
    49e4:	05010012 	bgez	t0,4a30 <n31_bgez_test+0x4a30>
    49e8:	3610dfdc 	ori	s0,s0,0xdfdc
    49ec:	10000012 	b	4a38 <n31_bgez_test+0x4a38>
    49f0:	00000000 	nop
    49f4:	00000000 	nop
    49f8:	00000021 	move	zero,zero
    49fc:	00000021 	move	zero,zero
    4a00:	00000021 	move	zero,zero
    4a04:	00000021 	move	zero,zero
    4a08:	00000021 	move	zero,zero
    4a0c:	00000021 	move	zero,zero
    4a10:	3c08a8ae 	lui	t0,0xa8ae
    4a14:	35089af0 	ori	t0,t0,0x9af0
    4a18:	0501fff1 	bgez	t0,49e0 <n31_bgez_test+0x49e0>
    4a1c:	00000000 	nop
    4a20:	10000005 	b	4a38 <n31_bgez_test+0x4a38>
    4a24:	00000000 	nop
    4a28:	00000000 	nop
    4a2c:	00000021 	move	zero,zero
    4a30:	3c124dfc 	lui	s2,0x4dfc
    4a34:	365253ac 	ori	s2,s2,0x53ac
    4a38:	00000000 	nop
    4a3c:	24140000 	li	s4,0
    4a40:	16140cce 	bne	s0,s4,7d7c <inst_error>
    4a44:	00000000 	nop
    4a48:	00000000 	nop
    4a4c:	24150000 	li	s5,0
    4a50:	16550cca 	bne	s2,s5,7d7c <inst_error>
    4a54:	00000000 	nop
    4a58:	00000000 	nop
    4a5c:	3c0c451e 	lui	t4,0x451e
    4a60:	358c5c8c 	ori	t4,t4,0x5c8c
    4a64:	3c0dff73 	lui	t5,0xff73
    4a68:	35ad19c0 	ori	t5,t5,0x19c0
    4a6c:	24100000 	li	s0,0
    4a70:	1000000e 	b	4aac <n31_bgez_test+0x4aac>
    4a74:	24120000 	li	s2,0
    4a78:	00000000 	nop
    4a7c:	3c10451e 	lui	s0,0x451e
    4a80:	05010012 	bgez	t0,4acc <n31_bgez_test+0x4acc>
    4a84:	36105c8c 	ori	s0,s0,0x5c8c
    4a88:	10000012 	b	4ad4 <n31_bgez_test+0x4ad4>
    4a8c:	00000000 	nop
    4a90:	00000000 	nop
    4a94:	00000021 	move	zero,zero
    4a98:	00000021 	move	zero,zero
    4a9c:	00000021 	move	zero,zero
    4aa0:	00000021 	move	zero,zero
    4aa4:	00000021 	move	zero,zero
    4aa8:	00000021 	move	zero,zero
    4aac:	3c08bc66 	lui	t0,0xbc66
    4ab0:	35082680 	ori	t0,t0,0x2680
    4ab4:	0501fff1 	bgez	t0,4a7c <n31_bgez_test+0x4a7c>
    4ab8:	00000000 	nop
    4abc:	10000005 	b	4ad4 <n31_bgez_test+0x4ad4>
    4ac0:	00000000 	nop
    4ac4:	00000000 	nop
    4ac8:	00000021 	move	zero,zero
    4acc:	3c12ff73 	lui	s2,0xff73
    4ad0:	365219c0 	ori	s2,s2,0x19c0
    4ad4:	00000000 	nop
    4ad8:	24140000 	li	s4,0
    4adc:	16140ca7 	bne	s0,s4,7d7c <inst_error>
    4ae0:	00000000 	nop
    4ae4:	00000000 	nop
    4ae8:	24150000 	li	s5,0
    4aec:	16550ca3 	bne	s2,s5,7d7c <inst_error>
    4af0:	00000000 	nop
    4af4:	00000000 	nop
    4af8:	3c0cf38c 	lui	t4,0xf38c
    4afc:	358cb340 	ori	t4,t4,0xb340
    4b00:	3c0db262 	lui	t5,0xb262
    4b04:	35ad22aa 	ori	t5,t5,0x22aa
    4b08:	24100000 	li	s0,0
    4b0c:	1000000e 	b	4b48 <n31_bgez_test+0x4b48>
    4b10:	24120000 	li	s2,0
    4b14:	00000000 	nop
    4b18:	3c10f38c 	lui	s0,0xf38c
    4b1c:	05010012 	bgez	t0,4b68 <n31_bgez_test+0x4b68>
    4b20:	3610b340 	ori	s0,s0,0xb340
    4b24:	10000012 	b	4b70 <n31_bgez_test+0x4b70>
    4b28:	00000000 	nop
    4b2c:	00000000 	nop
    4b30:	00000021 	move	zero,zero
    4b34:	00000021 	move	zero,zero
    4b38:	00000021 	move	zero,zero
    4b3c:	00000021 	move	zero,zero
    4b40:	00000021 	move	zero,zero
    4b44:	00000021 	move	zero,zero
    4b48:	3c08e9d0 	lui	t0,0xe9d0
    4b4c:	35088a10 	ori	t0,t0,0x8a10
    4b50:	0501fff1 	bgez	t0,4b18 <n31_bgez_test+0x4b18>
    4b54:	00000000 	nop
    4b58:	10000005 	b	4b70 <n31_bgez_test+0x4b70>
    4b5c:	00000000 	nop
    4b60:	00000000 	nop
    4b64:	00000021 	move	zero,zero
    4b68:	3c12b262 	lui	s2,0xb262
    4b6c:	365222aa 	ori	s2,s2,0x22aa
    4b70:	00000000 	nop
    4b74:	24140000 	li	s4,0
    4b78:	16140c80 	bne	s0,s4,7d7c <inst_error>
    4b7c:	00000000 	nop
    4b80:	00000000 	nop
    4b84:	24150000 	li	s5,0
    4b88:	16550c7c 	bne	s2,s5,7d7c <inst_error>
    4b8c:	00000000 	nop
    4b90:	00000000 	nop
    4b94:	3c0cd458 	lui	t4,0xd458
    4b98:	358cfad4 	ori	t4,t4,0xfad4
    4b9c:	3c0dd325 	lui	t5,0xd325
    4ba0:	35adbefc 	ori	t5,t5,0xbefc
    4ba4:	24100000 	li	s0,0
    4ba8:	1000000e 	b	4be4 <n31_bgez_test+0x4be4>
    4bac:	24120000 	li	s2,0
    4bb0:	00000000 	nop
    4bb4:	3c10d458 	lui	s0,0xd458
    4bb8:	05010012 	bgez	t0,4c04 <n31_bgez_test+0x4c04>
    4bbc:	3610fad4 	ori	s0,s0,0xfad4
    4bc0:	10000012 	b	4c0c <n31_bgez_test+0x4c0c>
    4bc4:	00000000 	nop
    4bc8:	00000000 	nop
    4bcc:	00000021 	move	zero,zero
    4bd0:	00000021 	move	zero,zero
    4bd4:	00000021 	move	zero,zero
    4bd8:	00000021 	move	zero,zero
    4bdc:	00000021 	move	zero,zero
    4be0:	00000021 	move	zero,zero
    4be4:	3c082dca 	lui	t0,0x2dca
    4be8:	3508c00c 	ori	t0,t0,0xc00c
    4bec:	0501fff1 	bgez	t0,4bb4 <n31_bgez_test+0x4bb4>
    4bf0:	00000000 	nop
    4bf4:	10000005 	b	4c0c <n31_bgez_test+0x4c0c>
    4bf8:	00000000 	nop
    4bfc:	00000000 	nop
    4c00:	00000021 	move	zero,zero
    4c04:	3c12d325 	lui	s2,0xd325
    4c08:	3652befc 	ori	s2,s2,0xbefc
    4c0c:	00000000 	nop
    4c10:	3c14d458 	lui	s4,0xd458
    4c14:	3694fad4 	ori	s4,s4,0xfad4
    4c18:	16140c58 	bne	s0,s4,7d7c <inst_error>
    4c1c:	00000000 	nop
    4c20:	00000000 	nop
    4c24:	3c15d325 	lui	s5,0xd325
    4c28:	36b5befc 	ori	s5,s5,0xbefc
    4c2c:	16550c53 	bne	s2,s5,7d7c <inst_error>
    4c30:	00000000 	nop
    4c34:	00000000 	nop
    4c38:	3c0c2575 	lui	t4,0x2575
    4c3c:	358c533e 	ori	t4,t4,0x533e
    4c40:	3c0d26c5 	lui	t5,0x26c5
    4c44:	35ad1385 	ori	t5,t5,0x1385
    4c48:	24100000 	li	s0,0
    4c4c:	1000000e 	b	4c88 <n31_bgez_test+0x4c88>
    4c50:	24120000 	li	s2,0
    4c54:	00000000 	nop
    4c58:	3c102575 	lui	s0,0x2575
    4c5c:	05010012 	bgez	t0,4ca8 <n31_bgez_test+0x4ca8>
    4c60:	3610533e 	ori	s0,s0,0x533e
    4c64:	10000012 	b	4cb0 <n31_bgez_test+0x4cb0>
    4c68:	00000000 	nop
    4c6c:	00000000 	nop
    4c70:	00000021 	move	zero,zero
    4c74:	00000021 	move	zero,zero
    4c78:	00000021 	move	zero,zero
    4c7c:	00000021 	move	zero,zero
    4c80:	00000021 	move	zero,zero
    4c84:	00000021 	move	zero,zero
    4c88:	3c08e034 	lui	t0,0xe034
    4c8c:	35081d80 	ori	t0,t0,0x1d80
    4c90:	0501fff1 	bgez	t0,4c58 <n31_bgez_test+0x4c58>
    4c94:	00000000 	nop
    4c98:	10000005 	b	4cb0 <n31_bgez_test+0x4cb0>
    4c9c:	00000000 	nop
    4ca0:	00000000 	nop
    4ca4:	00000021 	move	zero,zero
    4ca8:	3c1226c5 	lui	s2,0x26c5
    4cac:	36521385 	ori	s2,s2,0x1385
    4cb0:	00000000 	nop
    4cb4:	24140000 	li	s4,0
    4cb8:	16140c30 	bne	s0,s4,7d7c <inst_error>
    4cbc:	00000000 	nop
    4cc0:	00000000 	nop
    4cc4:	24150000 	li	s5,0
    4cc8:	16550c2c 	bne	s2,s5,7d7c <inst_error>
    4ccc:	00000000 	nop
    4cd0:	00000000 	nop
    4cd4:	3c0c56f3 	lui	t4,0x56f3
    4cd8:	358c6372 	ori	t4,t4,0x6372
    4cdc:	3c0da91c 	lui	t5,0xa91c
    4ce0:	35ad57f0 	ori	t5,t5,0x57f0
    4ce4:	24100000 	li	s0,0
    4ce8:	1000000e 	b	4d24 <n31_bgez_test+0x4d24>
    4cec:	24120000 	li	s2,0
    4cf0:	00000000 	nop
    4cf4:	3c1056f3 	lui	s0,0x56f3
    4cf8:	05010012 	bgez	t0,4d44 <n31_bgez_test+0x4d44>
    4cfc:	36106372 	ori	s0,s0,0x6372
    4d00:	10000012 	b	4d4c <n31_bgez_test+0x4d4c>
    4d04:	00000000 	nop
    4d08:	00000000 	nop
    4d0c:	00000021 	move	zero,zero
    4d10:	00000021 	move	zero,zero
    4d14:	00000021 	move	zero,zero
    4d18:	00000021 	move	zero,zero
    4d1c:	00000021 	move	zero,zero
    4d20:	00000021 	move	zero,zero
    4d24:	3c08aa4e 	lui	t0,0xaa4e
    4d28:	3508eae0 	ori	t0,t0,0xeae0
    4d2c:	0501fff1 	bgez	t0,4cf4 <n31_bgez_test+0x4cf4>
    4d30:	00000000 	nop
    4d34:	10000005 	b	4d4c <n31_bgez_test+0x4d4c>
    4d38:	00000000 	nop
    4d3c:	00000000 	nop
    4d40:	00000021 	move	zero,zero
    4d44:	3c12a91c 	lui	s2,0xa91c
    4d48:	365257f0 	ori	s2,s2,0x57f0
    4d4c:	00000000 	nop
    4d50:	24140000 	li	s4,0
    4d54:	16140c09 	bne	s0,s4,7d7c <inst_error>
    4d58:	00000000 	nop
    4d5c:	00000000 	nop
    4d60:	24150000 	li	s5,0
    4d64:	16550c05 	bne	s2,s5,7d7c <inst_error>
    4d68:	00000000 	nop
    4d6c:	00000000 	nop
    4d70:	3c0ce7c2 	lui	t4,0xe7c2
    4d74:	358c75e6 	ori	t4,t4,0x75e6
    4d78:	3c0d198a 	lui	t5,0x198a
    4d7c:	35ad1bba 	ori	t5,t5,0x1bba
    4d80:	24100000 	li	s0,0
    4d84:	1000000e 	b	4dc0 <n31_bgez_test+0x4dc0>
    4d88:	24120000 	li	s2,0
    4d8c:	00000000 	nop
    4d90:	3c10e7c2 	lui	s0,0xe7c2
    4d94:	05010012 	bgez	t0,4de0 <n31_bgez_test+0x4de0>
    4d98:	361075e6 	ori	s0,s0,0x75e6
    4d9c:	10000012 	b	4de8 <n31_bgez_test+0x4de8>
    4da0:	00000000 	nop
    4da4:	00000000 	nop
    4da8:	00000021 	move	zero,zero
    4dac:	00000021 	move	zero,zero
    4db0:	00000021 	move	zero,zero
    4db4:	00000021 	move	zero,zero
    4db8:	00000021 	move	zero,zero
    4dbc:	00000021 	move	zero,zero
    4dc0:	3c08a69c 	lui	t0,0xa69c
    4dc4:	3508a378 	ori	t0,t0,0xa378
    4dc8:	0501fff1 	bgez	t0,4d90 <n31_bgez_test+0x4d90>
    4dcc:	00000000 	nop
    4dd0:	10000005 	b	4de8 <n31_bgez_test+0x4de8>
    4dd4:	00000000 	nop
    4dd8:	00000000 	nop
    4ddc:	00000021 	move	zero,zero
    4de0:	3c12198a 	lui	s2,0x198a
    4de4:	36521bba 	ori	s2,s2,0x1bba
    4de8:	00000000 	nop
    4dec:	24140000 	li	s4,0
    4df0:	16140be2 	bne	s0,s4,7d7c <inst_error>
    4df4:	00000000 	nop
    4df8:	00000000 	nop
    4dfc:	24150000 	li	s5,0
    4e00:	16550bde 	bne	s2,s5,7d7c <inst_error>
    4e04:	00000000 	nop
    4e08:	00000000 	nop
    4e0c:	3c0ccc0d 	lui	t4,0xcc0d
    4e10:	358c0f8a 	ori	t4,t4,0xf8a
    4e14:	3c0d4df6 	lui	t5,0x4df6
    4e18:	35ada930 	ori	t5,t5,0xa930
    4e1c:	24100000 	li	s0,0
    4e20:	1000000e 	b	4e5c <n31_bgez_test+0x4e5c>
    4e24:	24120000 	li	s2,0
    4e28:	00000000 	nop
    4e2c:	3c10cc0d 	lui	s0,0xcc0d
    4e30:	05010012 	bgez	t0,4e7c <n31_bgez_test+0x4e7c>
    4e34:	36100f8a 	ori	s0,s0,0xf8a
    4e38:	10000012 	b	4e84 <n31_bgez_test+0x4e84>
    4e3c:	00000000 	nop
    4e40:	00000000 	nop
    4e44:	00000021 	move	zero,zero
    4e48:	00000021 	move	zero,zero
    4e4c:	00000021 	move	zero,zero
    4e50:	00000021 	move	zero,zero
    4e54:	00000021 	move	zero,zero
    4e58:	00000021 	move	zero,zero
    4e5c:	3c08166c 	lui	t0,0x166c
    4e60:	35084cc2 	ori	t0,t0,0x4cc2
    4e64:	0501fff1 	bgez	t0,4e2c <n31_bgez_test+0x4e2c>
    4e68:	00000000 	nop
    4e6c:	10000005 	b	4e84 <n31_bgez_test+0x4e84>
    4e70:	00000000 	nop
    4e74:	00000000 	nop
    4e78:	00000021 	move	zero,zero
    4e7c:	3c124df6 	lui	s2,0x4df6
    4e80:	3652a930 	ori	s2,s2,0xa930
    4e84:	00000000 	nop
    4e88:	3c14cc0d 	lui	s4,0xcc0d
    4e8c:	36940f8a 	ori	s4,s4,0xf8a
    4e90:	16140bba 	bne	s0,s4,7d7c <inst_error>
    4e94:	00000000 	nop
    4e98:	00000000 	nop
    4e9c:	3c154df6 	lui	s5,0x4df6
    4ea0:	36b5a930 	ori	s5,s5,0xa930
    4ea4:	16550bb5 	bne	s2,s5,7d7c <inst_error>
    4ea8:	00000000 	nop
    4eac:	00000000 	nop
    4eb0:	3c0c8364 	lui	t4,0x8364
    4eb4:	358c0d8d 	ori	t4,t4,0xd8d
    4eb8:	3c0db289 	lui	t5,0xb289
    4ebc:	35ad6d70 	ori	t5,t5,0x6d70
    4ec0:	24100000 	li	s0,0
    4ec4:	1000000e 	b	4f00 <n31_bgez_test+0x4f00>
    4ec8:	24120000 	li	s2,0
    4ecc:	00000000 	nop
    4ed0:	3c108364 	lui	s0,0x8364
    4ed4:	05010012 	bgez	t0,4f20 <n31_bgez_test+0x4f20>
    4ed8:	36100d8d 	ori	s0,s0,0xd8d
    4edc:	10000012 	b	4f28 <n31_bgez_test+0x4f28>
    4ee0:	00000000 	nop
    4ee4:	00000000 	nop
    4ee8:	00000021 	move	zero,zero
    4eec:	00000021 	move	zero,zero
    4ef0:	00000021 	move	zero,zero
    4ef4:	00000021 	move	zero,zero
    4ef8:	00000021 	move	zero,zero
    4efc:	00000021 	move	zero,zero
    4f00:	3c085b21 	lui	t0,0x5b21
    4f04:	3508b7ec 	ori	t0,t0,0xb7ec
    4f08:	0501fff1 	bgez	t0,4ed0 <n31_bgez_test+0x4ed0>
    4f0c:	00000000 	nop
    4f10:	10000005 	b	4f28 <n31_bgez_test+0x4f28>
    4f14:	00000000 	nop
    4f18:	00000000 	nop
    4f1c:	00000021 	move	zero,zero
    4f20:	3c12b289 	lui	s2,0xb289
    4f24:	36526d70 	ori	s2,s2,0x6d70
    4f28:	00000000 	nop
    4f2c:	3c148364 	lui	s4,0x8364
    4f30:	36940d8d 	ori	s4,s4,0xd8d
    4f34:	16140b91 	bne	s0,s4,7d7c <inst_error>
    4f38:	00000000 	nop
    4f3c:	00000000 	nop
    4f40:	3c15b289 	lui	s5,0xb289
    4f44:	36b56d70 	ori	s5,s5,0x6d70
    4f48:	16550b8c 	bne	s2,s5,7d7c <inst_error>
    4f4c:	00000000 	nop
    4f50:	00000000 	nop
    4f54:	3c0cee9a 	lui	t4,0xee9a
    4f58:	358c2ae6 	ori	t4,t4,0x2ae6
    4f5c:	3c0deaca 	lui	t5,0xeaca
    4f60:	35adbe60 	ori	t5,t5,0xbe60
    4f64:	24100000 	li	s0,0
    4f68:	1000000e 	b	4fa4 <n31_bgez_test+0x4fa4>
    4f6c:	24120000 	li	s2,0
    4f70:	00000000 	nop
    4f74:	3c10ee9a 	lui	s0,0xee9a
    4f78:	05010012 	bgez	t0,4fc4 <n31_bgez_test+0x4fc4>
    4f7c:	36102ae6 	ori	s0,s0,0x2ae6
    4f80:	10000012 	b	4fcc <n31_bgez_test+0x4fcc>
    4f84:	00000000 	nop
    4f88:	00000000 	nop
    4f8c:	00000021 	move	zero,zero
    4f90:	00000021 	move	zero,zero
    4f94:	00000021 	move	zero,zero
    4f98:	00000021 	move	zero,zero
    4f9c:	00000021 	move	zero,zero
    4fa0:	00000021 	move	zero,zero
    4fa4:	3c082b7c 	lui	t0,0x2b7c
    4fa8:	350846ef 	ori	t0,t0,0x46ef
    4fac:	0501fff1 	bgez	t0,4f74 <n31_bgez_test+0x4f74>
    4fb0:	00000000 	nop
    4fb4:	10000005 	b	4fcc <n31_bgez_test+0x4fcc>
    4fb8:	00000000 	nop
    4fbc:	00000000 	nop
    4fc0:	00000021 	move	zero,zero
    4fc4:	3c12eaca 	lui	s2,0xeaca
    4fc8:	3652be60 	ori	s2,s2,0xbe60
    4fcc:	00000000 	nop
    4fd0:	3c14ee9a 	lui	s4,0xee9a
    4fd4:	36942ae6 	ori	s4,s4,0x2ae6
    4fd8:	16140b68 	bne	s0,s4,7d7c <inst_error>
    4fdc:	00000000 	nop
    4fe0:	00000000 	nop
    4fe4:	3c15eaca 	lui	s5,0xeaca
    4fe8:	36b5be60 	ori	s5,s5,0xbe60
    4fec:	16550b63 	bne	s2,s5,7d7c <inst_error>
    4ff0:	00000000 	nop
    4ff4:	00000000 	nop
    4ff8:	3c0c3803 	lui	t4,0x3803
    4ffc:	358c3780 	ori	t4,t4,0x3780
    5000:	3c0d803b 	lui	t5,0x803b
    5004:	35ad6bc4 	ori	t5,t5,0x6bc4
    5008:	24100000 	li	s0,0
    500c:	1000000e 	b	5048 <n31_bgez_test+0x5048>
    5010:	24120000 	li	s2,0
    5014:	00000000 	nop
    5018:	3c103803 	lui	s0,0x3803
    501c:	05010012 	bgez	t0,5068 <n31_bgez_test+0x5068>
    5020:	36103780 	ori	s0,s0,0x3780
    5024:	10000012 	b	5070 <n31_bgez_test+0x5070>
    5028:	00000000 	nop
    502c:	00000000 	nop
    5030:	00000021 	move	zero,zero
    5034:	00000021 	move	zero,zero
    5038:	00000021 	move	zero,zero
    503c:	00000021 	move	zero,zero
    5040:	00000021 	move	zero,zero
    5044:	00000021 	move	zero,zero
    5048:	3c08a4c4 	lui	t0,0xa4c4
    504c:	3508d110 	ori	t0,t0,0xd110
    5050:	0501fff1 	bgez	t0,5018 <n31_bgez_test+0x5018>
    5054:	00000000 	nop
    5058:	10000005 	b	5070 <n31_bgez_test+0x5070>
    505c:	00000000 	nop
    5060:	00000000 	nop
    5064:	00000021 	move	zero,zero
    5068:	3c12803b 	lui	s2,0x803b
    506c:	36526bc4 	ori	s2,s2,0x6bc4
    5070:	00000000 	nop
    5074:	24140000 	li	s4,0
    5078:	16140b40 	bne	s0,s4,7d7c <inst_error>
    507c:	00000000 	nop
    5080:	00000000 	nop
    5084:	24150000 	li	s5,0
    5088:	16550b3c 	bne	s2,s5,7d7c <inst_error>
    508c:	00000000 	nop
    5090:	00000000 	nop
    5094:	3c0c34a8 	lui	t4,0x34a8
    5098:	358c84dc 	ori	t4,t4,0x84dc
    509c:	3c0dbf01 	lui	t5,0xbf01
    50a0:	35ad93a8 	ori	t5,t5,0x93a8
    50a4:	24100000 	li	s0,0
    50a8:	1000000e 	b	50e4 <n31_bgez_test+0x50e4>
    50ac:	24120000 	li	s2,0
    50b0:	00000000 	nop
    50b4:	3c1034a8 	lui	s0,0x34a8
    50b8:	05010012 	bgez	t0,5104 <n31_bgez_test+0x5104>
    50bc:	361084dc 	ori	s0,s0,0x84dc
    50c0:	10000012 	b	510c <n31_bgez_test+0x510c>
    50c4:	00000000 	nop
    50c8:	00000000 	nop
    50cc:	00000021 	move	zero,zero
    50d0:	00000021 	move	zero,zero
    50d4:	00000021 	move	zero,zero
    50d8:	00000021 	move	zero,zero
    50dc:	00000021 	move	zero,zero
    50e0:	00000021 	move	zero,zero
    50e4:	3c08e053 	lui	t0,0xe053
    50e8:	35087798 	ori	t0,t0,0x7798
    50ec:	0501fff1 	bgez	t0,50b4 <n31_bgez_test+0x50b4>
    50f0:	00000000 	nop
    50f4:	10000005 	b	510c <n31_bgez_test+0x510c>
    50f8:	00000000 	nop
    50fc:	00000000 	nop
    5100:	00000021 	move	zero,zero
    5104:	3c12bf01 	lui	s2,0xbf01
    5108:	365293a8 	ori	s2,s2,0x93a8
    510c:	00000000 	nop
    5110:	24140000 	li	s4,0
    5114:	16140b19 	bne	s0,s4,7d7c <inst_error>
    5118:	00000000 	nop
    511c:	00000000 	nop
    5120:	24150000 	li	s5,0
    5124:	16550b15 	bne	s2,s5,7d7c <inst_error>
    5128:	00000000 	nop
    512c:	00000000 	nop
    5130:	3c0c0a97 	lui	t4,0xa97
    5134:	358c6750 	ori	t4,t4,0x6750
    5138:	3c0dd1ab 	lui	t5,0xd1ab
    513c:	35ad784a 	ori	t5,t5,0x784a
    5140:	24100000 	li	s0,0
    5144:	1000000e 	b	5180 <n31_bgez_test+0x5180>
    5148:	24120000 	li	s2,0
    514c:	00000000 	nop
    5150:	3c100a97 	lui	s0,0xa97
    5154:	05010012 	bgez	t0,51a0 <n31_bgez_test+0x51a0>
    5158:	36106750 	ori	s0,s0,0x6750
    515c:	10000012 	b	51a8 <n31_bgez_test+0x51a8>
    5160:	00000000 	nop
    5164:	00000000 	nop
    5168:	00000021 	move	zero,zero
    516c:	00000021 	move	zero,zero
    5170:	00000021 	move	zero,zero
    5174:	00000021 	move	zero,zero
    5178:	00000021 	move	zero,zero
    517c:	00000021 	move	zero,zero
    5180:	3c08fc16 	lui	t0,0xfc16
    5184:	3508d018 	ori	t0,t0,0xd018
    5188:	0501fff1 	bgez	t0,5150 <n31_bgez_test+0x5150>
    518c:	00000000 	nop
    5190:	10000005 	b	51a8 <n31_bgez_test+0x51a8>
    5194:	00000000 	nop
    5198:	00000000 	nop
    519c:	00000021 	move	zero,zero
    51a0:	3c12d1ab 	lui	s2,0xd1ab
    51a4:	3652784a 	ori	s2,s2,0x784a
    51a8:	00000000 	nop
    51ac:	24140000 	li	s4,0
    51b0:	16140af2 	bne	s0,s4,7d7c <inst_error>
    51b4:	00000000 	nop
    51b8:	00000000 	nop
    51bc:	24150000 	li	s5,0
    51c0:	16550aee 	bne	s2,s5,7d7c <inst_error>
    51c4:	00000000 	nop
    51c8:	00000000 	nop
    51cc:	3c0cccf8 	lui	t4,0xccf8
    51d0:	358ca430 	ori	t4,t4,0xa430
    51d4:	3c0dd9f6 	lui	t5,0xd9f6
    51d8:	35ad054b 	ori	t5,t5,0x54b
    51dc:	24100000 	li	s0,0
    51e0:	1000000e 	b	521c <n31_bgez_test+0x521c>
    51e4:	24120000 	li	s2,0
    51e8:	00000000 	nop
    51ec:	3c10ccf8 	lui	s0,0xccf8
    51f0:	05010012 	bgez	t0,523c <n31_bgez_test+0x523c>
    51f4:	3610a430 	ori	s0,s0,0xa430
    51f8:	10000012 	b	5244 <n31_bgez_test+0x5244>
    51fc:	00000000 	nop
    5200:	00000000 	nop
    5204:	00000021 	move	zero,zero
    5208:	00000021 	move	zero,zero
    520c:	00000021 	move	zero,zero
    5210:	00000021 	move	zero,zero
    5214:	00000021 	move	zero,zero
    5218:	00000021 	move	zero,zero
    521c:	3c082775 	lui	t0,0x2775
    5220:	350824c8 	ori	t0,t0,0x24c8
    5224:	0501fff1 	bgez	t0,51ec <n31_bgez_test+0x51ec>
    5228:	00000000 	nop
    522c:	10000005 	b	5244 <n31_bgez_test+0x5244>
    5230:	00000000 	nop
    5234:	00000000 	nop
    5238:	00000021 	move	zero,zero
    523c:	3c12d9f6 	lui	s2,0xd9f6
    5240:	3652054b 	ori	s2,s2,0x54b
    5244:	00000000 	nop
    5248:	3c14ccf8 	lui	s4,0xccf8
    524c:	3694a430 	ori	s4,s4,0xa430
    5250:	16140aca 	bne	s0,s4,7d7c <inst_error>
    5254:	00000000 	nop
    5258:	00000000 	nop
    525c:	3c15d9f6 	lui	s5,0xd9f6
    5260:	36b5054b 	ori	s5,s5,0x54b
    5264:	16550ac5 	bne	s2,s5,7d7c <inst_error>
    5268:	00000000 	nop
    526c:	00000000 	nop
    5270:	3c0c19d7 	lui	t4,0x19d7
    5274:	358cb374 	ori	t4,t4,0xb374
    5278:	3c0dda24 	lui	t5,0xda24
    527c:	35ad1363 	ori	t5,t5,0x1363
    5280:	24100000 	li	s0,0
    5284:	1000000e 	b	52c0 <n31_bgez_test+0x52c0>
    5288:	24120000 	li	s2,0
    528c:	00000000 	nop
    5290:	3c1019d7 	lui	s0,0x19d7
    5294:	05010012 	bgez	t0,52e0 <n31_bgez_test+0x52e0>
    5298:	3610b374 	ori	s0,s0,0xb374
    529c:	10000012 	b	52e8 <n31_bgez_test+0x52e8>
    52a0:	00000000 	nop
    52a4:	00000000 	nop
    52a8:	00000021 	move	zero,zero
    52ac:	00000021 	move	zero,zero
    52b0:	00000021 	move	zero,zero
    52b4:	00000021 	move	zero,zero
    52b8:	00000021 	move	zero,zero
    52bc:	00000021 	move	zero,zero
    52c0:	3c085557 	lui	t0,0x5557
    52c4:	350811c8 	ori	t0,t0,0x11c8
    52c8:	0501fff1 	bgez	t0,5290 <n31_bgez_test+0x5290>
    52cc:	00000000 	nop
    52d0:	10000005 	b	52e8 <n31_bgez_test+0x52e8>
    52d4:	00000000 	nop
    52d8:	00000000 	nop
    52dc:	00000021 	move	zero,zero
    52e0:	3c12da24 	lui	s2,0xda24
    52e4:	36521363 	ori	s2,s2,0x1363
    52e8:	00000000 	nop
    52ec:	3c1419d7 	lui	s4,0x19d7
    52f0:	3694b374 	ori	s4,s4,0xb374
    52f4:	16140aa1 	bne	s0,s4,7d7c <inst_error>
    52f8:	00000000 	nop
    52fc:	00000000 	nop
    5300:	3c15da24 	lui	s5,0xda24
    5304:	36b51363 	ori	s5,s5,0x1363
    5308:	16550a9c 	bne	s2,s5,7d7c <inst_error>
    530c:	00000000 	nop
    5310:	00000000 	nop
    5314:	3c0cad9f 	lui	t4,0xad9f
    5318:	358cf4a0 	ori	t4,t4,0xf4a0
    531c:	3c0d5edb 	lui	t5,0x5edb
    5320:	35ad2fe0 	ori	t5,t5,0x2fe0
    5324:	24100000 	li	s0,0
    5328:	1000000e 	b	5364 <n31_bgez_test+0x5364>
    532c:	24120000 	li	s2,0
    5330:	00000000 	nop
    5334:	3c10ad9f 	lui	s0,0xad9f
    5338:	05010012 	bgez	t0,5384 <n31_bgez_test+0x5384>
    533c:	3610f4a0 	ori	s0,s0,0xf4a0
    5340:	10000012 	b	538c <n31_bgez_test+0x538c>
    5344:	00000000 	nop
    5348:	00000000 	nop
    534c:	00000021 	move	zero,zero
    5350:	00000021 	move	zero,zero
    5354:	00000021 	move	zero,zero
    5358:	00000021 	move	zero,zero
    535c:	00000021 	move	zero,zero
    5360:	00000021 	move	zero,zero
    5364:	3c0861c7 	lui	t0,0x61c7
    5368:	3508c800 	ori	t0,t0,0xc800
    536c:	0501fff1 	bgez	t0,5334 <n31_bgez_test+0x5334>
    5370:	00000000 	nop
    5374:	10000005 	b	538c <n31_bgez_test+0x538c>
    5378:	00000000 	nop
    537c:	00000000 	nop
    5380:	00000021 	move	zero,zero
    5384:	3c125edb 	lui	s2,0x5edb
    5388:	36522fe0 	ori	s2,s2,0x2fe0
    538c:	00000000 	nop
    5390:	3c14ad9f 	lui	s4,0xad9f
    5394:	3694f4a0 	ori	s4,s4,0xf4a0
    5398:	16140a78 	bne	s0,s4,7d7c <inst_error>
    539c:	00000000 	nop
    53a0:	00000000 	nop
    53a4:	3c155edb 	lui	s5,0x5edb
    53a8:	36b52fe0 	ori	s5,s5,0x2fe0
    53ac:	16550a73 	bne	s2,s5,7d7c <inst_error>
    53b0:	00000000 	nop
    53b4:	00000000 	nop
    53b8:	3c0ce5da 	lui	t4,0xe5da
    53bc:	358c5190 	ori	t4,t4,0x5190
    53c0:	3c0d36c7 	lui	t5,0x36c7
    53c4:	35adcb78 	ori	t5,t5,0xcb78
    53c8:	24100000 	li	s0,0
    53cc:	1000000e 	b	5408 <n31_bgez_test+0x5408>
    53d0:	24120000 	li	s2,0
    53d4:	00000000 	nop
    53d8:	3c10e5da 	lui	s0,0xe5da
    53dc:	05010012 	bgez	t0,5428 <n31_bgez_test+0x5428>
    53e0:	36105190 	ori	s0,s0,0x5190
    53e4:	10000012 	b	5430 <n31_bgez_test+0x5430>
    53e8:	00000000 	nop
    53ec:	00000000 	nop
    53f0:	00000021 	move	zero,zero
    53f4:	00000021 	move	zero,zero
    53f8:	00000021 	move	zero,zero
    53fc:	00000021 	move	zero,zero
    5400:	00000021 	move	zero,zero
    5404:	00000021 	move	zero,zero
    5408:	3c080913 	lui	t0,0x913
    540c:	35084c4a 	ori	t0,t0,0x4c4a
    5410:	0501fff1 	bgez	t0,53d8 <n31_bgez_test+0x53d8>
    5414:	00000000 	nop
    5418:	10000005 	b	5430 <n31_bgez_test+0x5430>
    541c:	00000000 	nop
    5420:	00000000 	nop
    5424:	00000021 	move	zero,zero
    5428:	3c1236c7 	lui	s2,0x36c7
    542c:	3652cb78 	ori	s2,s2,0xcb78
    5430:	00000000 	nop
    5434:	3c14e5da 	lui	s4,0xe5da
    5438:	36945190 	ori	s4,s4,0x5190
    543c:	16140a4f 	bne	s0,s4,7d7c <inst_error>
    5440:	00000000 	nop
    5444:	00000000 	nop
    5448:	3c1536c7 	lui	s5,0x36c7
    544c:	36b5cb78 	ori	s5,s5,0xcb78
    5450:	16550a4a 	bne	s2,s5,7d7c <inst_error>
    5454:	00000000 	nop
    5458:	00000000 	nop
    545c:	3c0c6470 	lui	t4,0x6470
    5460:	358c7615 	ori	t4,t4,0x7615
    5464:	3c0d773e 	lui	t5,0x773e
    5468:	35ada1d0 	ori	t5,t5,0xa1d0
    546c:	24100000 	li	s0,0
    5470:	1000000e 	b	54ac <n31_bgez_test+0x54ac>
    5474:	24120000 	li	s2,0
    5478:	00000000 	nop
    547c:	3c106470 	lui	s0,0x6470
    5480:	05010012 	bgez	t0,54cc <n31_bgez_test+0x54cc>
    5484:	36107615 	ori	s0,s0,0x7615
    5488:	10000012 	b	54d4 <n31_bgez_test+0x54d4>
    548c:	00000000 	nop
    5490:	00000000 	nop
    5494:	00000021 	move	zero,zero
    5498:	00000021 	move	zero,zero
    549c:	00000021 	move	zero,zero
    54a0:	00000021 	move	zero,zero
    54a4:	00000021 	move	zero,zero
    54a8:	00000021 	move	zero,zero
    54ac:	3c08c8e6 	lui	t0,0xc8e6
    54b0:	35086b94 	ori	t0,t0,0x6b94
    54b4:	0501fff1 	bgez	t0,547c <n31_bgez_test+0x547c>
    54b8:	00000000 	nop
    54bc:	10000005 	b	54d4 <n31_bgez_test+0x54d4>
    54c0:	00000000 	nop
    54c4:	00000000 	nop
    54c8:	00000021 	move	zero,zero
    54cc:	3c12773e 	lui	s2,0x773e
    54d0:	3652a1d0 	ori	s2,s2,0xa1d0
    54d4:	00000000 	nop
    54d8:	24140000 	li	s4,0
    54dc:	16140a27 	bne	s0,s4,7d7c <inst_error>
    54e0:	00000000 	nop
    54e4:	00000000 	nop
    54e8:	24150000 	li	s5,0
    54ec:	16550a23 	bne	s2,s5,7d7c <inst_error>
    54f0:	00000000 	nop
    54f4:	00000000 	nop
    54f8:	3c0c4ea0 	lui	t4,0x4ea0
    54fc:	358ce848 	ori	t4,t4,0xe848
    5500:	3c0d964a 	lui	t5,0x964a
    5504:	35ad2d9b 	ori	t5,t5,0x2d9b
    5508:	24100000 	li	s0,0
    550c:	1000000e 	b	5548 <n31_bgez_test+0x5548>
    5510:	24120000 	li	s2,0
    5514:	00000000 	nop
    5518:	3c104ea0 	lui	s0,0x4ea0
    551c:	05010012 	bgez	t0,5568 <n31_bgez_test+0x5568>
    5520:	3610e848 	ori	s0,s0,0xe848
    5524:	10000012 	b	5570 <n31_bgez_test+0x5570>
    5528:	00000000 	nop
    552c:	00000000 	nop
    5530:	00000021 	move	zero,zero
    5534:	00000021 	move	zero,zero
    5538:	00000021 	move	zero,zero
    553c:	00000021 	move	zero,zero
    5540:	00000021 	move	zero,zero
    5544:	00000021 	move	zero,zero
    5548:	3c087831 	lui	t0,0x7831
    554c:	350882d4 	ori	t0,t0,0x82d4
    5550:	0501fff1 	bgez	t0,5518 <n31_bgez_test+0x5518>
    5554:	00000000 	nop
    5558:	10000005 	b	5570 <n31_bgez_test+0x5570>
    555c:	00000000 	nop
    5560:	00000000 	nop
    5564:	00000021 	move	zero,zero
    5568:	3c12964a 	lui	s2,0x964a
    556c:	36522d9b 	ori	s2,s2,0x2d9b
    5570:	00000000 	nop
    5574:	3c144ea0 	lui	s4,0x4ea0
    5578:	3694e848 	ori	s4,s4,0xe848
    557c:	161409ff 	bne	s0,s4,7d7c <inst_error>
    5580:	00000000 	nop
    5584:	00000000 	nop
    5588:	3c15964a 	lui	s5,0x964a
    558c:	36b52d9b 	ori	s5,s5,0x2d9b
    5590:	165509fa 	bne	s2,s5,7d7c <inst_error>
    5594:	00000000 	nop
    5598:	00000000 	nop
    559c:	3c0c2414 	lui	t4,0x2414
    55a0:	358c68ff 	ori	t4,t4,0x68ff
    55a4:	3c0d20ea 	lui	t5,0x20ea
    55a8:	35adc928 	ori	t5,t5,0xc928
    55ac:	24100000 	li	s0,0
    55b0:	1000000e 	b	55ec <n31_bgez_test+0x55ec>
    55b4:	24120000 	li	s2,0
    55b8:	00000000 	nop
    55bc:	3c102414 	lui	s0,0x2414
    55c0:	05010012 	bgez	t0,560c <n31_bgez_test+0x560c>
    55c4:	361068ff 	ori	s0,s0,0x68ff
    55c8:	10000012 	b	5614 <n31_bgez_test+0x5614>
    55cc:	00000000 	nop
    55d0:	00000000 	nop
    55d4:	00000021 	move	zero,zero
    55d8:	00000021 	move	zero,zero
    55dc:	00000021 	move	zero,zero
    55e0:	00000021 	move	zero,zero
    55e4:	00000021 	move	zero,zero
    55e8:	00000021 	move	zero,zero
    55ec:	3c08d46a 	lui	t0,0xd46a
    55f0:	35083973 	ori	t0,t0,0x3973
    55f4:	0501fff1 	bgez	t0,55bc <n31_bgez_test+0x55bc>
    55f8:	00000000 	nop
    55fc:	10000005 	b	5614 <n31_bgez_test+0x5614>
    5600:	00000000 	nop
    5604:	00000000 	nop
    5608:	00000021 	move	zero,zero
    560c:	3c1220ea 	lui	s2,0x20ea
    5610:	3652c928 	ori	s2,s2,0xc928
    5614:	00000000 	nop
    5618:	24140000 	li	s4,0
    561c:	161409d7 	bne	s0,s4,7d7c <inst_error>
    5620:	00000000 	nop
    5624:	00000000 	nop
    5628:	24150000 	li	s5,0
    562c:	165509d3 	bne	s2,s5,7d7c <inst_error>
    5630:	00000000 	nop
    5634:	00000000 	nop
    5638:	3c0c41c5 	lui	t4,0x41c5
    563c:	358c8820 	ori	t4,t4,0x8820
    5640:	3c0d67be 	lui	t5,0x67be
    5644:	35ad9ed8 	ori	t5,t5,0x9ed8
    5648:	24100000 	li	s0,0
    564c:	1000000e 	b	5688 <n31_bgez_test+0x5688>
    5650:	24120000 	li	s2,0
    5654:	00000000 	nop
    5658:	3c1041c5 	lui	s0,0x41c5
    565c:	05010012 	bgez	t0,56a8 <n31_bgez_test+0x56a8>
    5660:	36108820 	ori	s0,s0,0x8820
    5664:	10000012 	b	56b0 <n31_bgez_test+0x56b0>
    5668:	00000000 	nop
    566c:	00000000 	nop
    5670:	00000021 	move	zero,zero
    5674:	00000021 	move	zero,zero
    5678:	00000021 	move	zero,zero
    567c:	00000021 	move	zero,zero
    5680:	00000021 	move	zero,zero
    5684:	00000021 	move	zero,zero
    5688:	3c0808b4 	lui	t0,0x8b4
    568c:	3508c9f4 	ori	t0,t0,0xc9f4
    5690:	0501fff1 	bgez	t0,5658 <n31_bgez_test+0x5658>
    5694:	00000000 	nop
    5698:	10000005 	b	56b0 <n31_bgez_test+0x56b0>
    569c:	00000000 	nop
    56a0:	00000000 	nop
    56a4:	00000021 	move	zero,zero
    56a8:	3c1267be 	lui	s2,0x67be
    56ac:	36529ed8 	ori	s2,s2,0x9ed8
    56b0:	00000000 	nop
    56b4:	3c1441c5 	lui	s4,0x41c5
    56b8:	36948820 	ori	s4,s4,0x8820
    56bc:	161409af 	bne	s0,s4,7d7c <inst_error>
    56c0:	00000000 	nop
    56c4:	00000000 	nop
    56c8:	3c1567be 	lui	s5,0x67be
    56cc:	36b59ed8 	ori	s5,s5,0x9ed8
    56d0:	165509aa 	bne	s2,s5,7d7c <inst_error>
    56d4:	00000000 	nop
    56d8:	00000000 	nop
    56dc:	3c0c5c1e 	lui	t4,0x5c1e
    56e0:	358cc0d7 	ori	t4,t4,0xc0d7
    56e4:	3c0daf55 	lui	t5,0xaf55
    56e8:	35adc61a 	ori	t5,t5,0xc61a
    56ec:	24100000 	li	s0,0
    56f0:	1000000e 	b	572c <n31_bgez_test+0x572c>
    56f4:	24120000 	li	s2,0
    56f8:	00000000 	nop
    56fc:	3c105c1e 	lui	s0,0x5c1e
    5700:	05010012 	bgez	t0,574c <n31_bgez_test+0x574c>
    5704:	3610c0d7 	ori	s0,s0,0xc0d7
    5708:	10000012 	b	5754 <n31_bgez_test+0x5754>
    570c:	00000000 	nop
    5710:	00000000 	nop
    5714:	00000021 	move	zero,zero
    5718:	00000021 	move	zero,zero
    571c:	00000021 	move	zero,zero
    5720:	00000021 	move	zero,zero
    5724:	00000021 	move	zero,zero
    5728:	00000021 	move	zero,zero
    572c:	3c08a433 	lui	t0,0xa433
    5730:	35086dcb 	ori	t0,t0,0x6dcb
    5734:	0501fff1 	bgez	t0,56fc <n31_bgez_test+0x56fc>
    5738:	00000000 	nop
    573c:	10000005 	b	5754 <n31_bgez_test+0x5754>
    5740:	00000000 	nop
    5744:	00000000 	nop
    5748:	00000021 	move	zero,zero
    574c:	3c12af55 	lui	s2,0xaf55
    5750:	3652c61a 	ori	s2,s2,0xc61a
    5754:	00000000 	nop
    5758:	24140000 	li	s4,0
    575c:	16140987 	bne	s0,s4,7d7c <inst_error>
    5760:	00000000 	nop
    5764:	00000000 	nop
    5768:	24150000 	li	s5,0
    576c:	16550983 	bne	s2,s5,7d7c <inst_error>
    5770:	00000000 	nop
    5774:	00000000 	nop
    5778:	3c0c9304 	lui	t4,0x9304
    577c:	358cb798 	ori	t4,t4,0xb798
    5780:	3c0d593f 	lui	t5,0x593f
    5784:	35adb4e0 	ori	t5,t5,0xb4e0
    5788:	24100000 	li	s0,0
    578c:	1000000e 	b	57c8 <n31_bgez_test+0x57c8>
    5790:	24120000 	li	s2,0
    5794:	00000000 	nop
    5798:	3c109304 	lui	s0,0x9304
    579c:	05010012 	bgez	t0,57e8 <n31_bgez_test+0x57e8>
    57a0:	3610b798 	ori	s0,s0,0xb798
    57a4:	10000012 	b	57f0 <n31_bgez_test+0x57f0>
    57a8:	00000000 	nop
    57ac:	00000000 	nop
    57b0:	00000021 	move	zero,zero
    57b4:	00000021 	move	zero,zero
    57b8:	00000021 	move	zero,zero
    57bc:	00000021 	move	zero,zero
    57c0:	00000021 	move	zero,zero
    57c4:	00000021 	move	zero,zero
    57c8:	3c08dce8 	lui	t0,0xdce8
    57cc:	350825d7 	ori	t0,t0,0x25d7
    57d0:	0501fff1 	bgez	t0,5798 <n31_bgez_test+0x5798>
    57d4:	00000000 	nop
    57d8:	10000005 	b	57f0 <n31_bgez_test+0x57f0>
    57dc:	00000000 	nop
    57e0:	00000000 	nop
    57e4:	00000021 	move	zero,zero
    57e8:	3c12593f 	lui	s2,0x593f
    57ec:	3652b4e0 	ori	s2,s2,0xb4e0
    57f0:	00000000 	nop
    57f4:	24140000 	li	s4,0
    57f8:	16140960 	bne	s0,s4,7d7c <inst_error>
    57fc:	00000000 	nop
    5800:	00000000 	nop
    5804:	24150000 	li	s5,0
    5808:	1655095c 	bne	s2,s5,7d7c <inst_error>
    580c:	00000000 	nop
    5810:	00000000 	nop
    5814:	3c0c97f9 	lui	t4,0x97f9
    5818:	358c0edf 	ori	t4,t4,0xedf
    581c:	3c0dd96d 	lui	t5,0xd96d
    5820:	35ad052c 	ori	t5,t5,0x52c
    5824:	24100000 	li	s0,0
    5828:	1000000e 	b	5864 <n31_bgez_test+0x5864>
    582c:	24120000 	li	s2,0
    5830:	00000000 	nop
    5834:	3c1097f9 	lui	s0,0x97f9
    5838:	05010012 	bgez	t0,5884 <n31_bgez_test+0x5884>
    583c:	36100edf 	ori	s0,s0,0xedf
    5840:	10000012 	b	588c <n31_bgez_test+0x588c>
    5844:	00000000 	nop
    5848:	00000000 	nop
    584c:	00000021 	move	zero,zero
    5850:	00000021 	move	zero,zero
    5854:	00000021 	move	zero,zero
    5858:	00000021 	move	zero,zero
    585c:	00000021 	move	zero,zero
    5860:	00000021 	move	zero,zero
    5864:	3c08fd3e 	lui	t0,0xfd3e
    5868:	35084638 	ori	t0,t0,0x4638
    586c:	0501fff1 	bgez	t0,5834 <n31_bgez_test+0x5834>
    5870:	00000000 	nop
    5874:	10000005 	b	588c <n31_bgez_test+0x588c>
    5878:	00000000 	nop
    587c:	00000000 	nop
    5880:	00000021 	move	zero,zero
    5884:	3c12d96d 	lui	s2,0xd96d
    5888:	3652052c 	ori	s2,s2,0x52c
    588c:	00000000 	nop
    5890:	24140000 	li	s4,0
    5894:	16140939 	bne	s0,s4,7d7c <inst_error>
    5898:	00000000 	nop
    589c:	00000000 	nop
    58a0:	24150000 	li	s5,0
    58a4:	16550935 	bne	s2,s5,7d7c <inst_error>
    58a8:	00000000 	nop
    58ac:	00000000 	nop
    58b0:	3c0c4b03 	lui	t4,0x4b03
    58b4:	358c5134 	ori	t4,t4,0x5134
    58b8:	3c0dc05d 	lui	t5,0xc05d
    58bc:	35ad3bb8 	ori	t5,t5,0x3bb8
    58c0:	24100000 	li	s0,0
    58c4:	1000000e 	b	5900 <n31_bgez_test+0x5900>
    58c8:	24120000 	li	s2,0
    58cc:	00000000 	nop
    58d0:	3c104b03 	lui	s0,0x4b03
    58d4:	05010012 	bgez	t0,5920 <n31_bgez_test+0x5920>
    58d8:	36105134 	ori	s0,s0,0x5134
    58dc:	10000012 	b	5928 <n31_bgez_test+0x5928>
    58e0:	00000000 	nop
    58e4:	00000000 	nop
    58e8:	00000021 	move	zero,zero
    58ec:	00000021 	move	zero,zero
    58f0:	00000021 	move	zero,zero
    58f4:	00000021 	move	zero,zero
    58f8:	00000021 	move	zero,zero
    58fc:	00000021 	move	zero,zero
    5900:	3c086e35 	lui	t0,0x6e35
    5904:	35080ae8 	ori	t0,t0,0xae8
    5908:	0501fff1 	bgez	t0,58d0 <n31_bgez_test+0x58d0>
    590c:	00000000 	nop
    5910:	10000005 	b	5928 <n31_bgez_test+0x5928>
    5914:	00000000 	nop
    5918:	00000000 	nop
    591c:	00000021 	move	zero,zero
    5920:	3c12c05d 	lui	s2,0xc05d
    5924:	36523bb8 	ori	s2,s2,0x3bb8
    5928:	00000000 	nop
    592c:	3c144b03 	lui	s4,0x4b03
    5930:	36945134 	ori	s4,s4,0x5134
    5934:	16140911 	bne	s0,s4,7d7c <inst_error>
    5938:	00000000 	nop
    593c:	00000000 	nop
    5940:	3c15c05d 	lui	s5,0xc05d
    5944:	36b53bb8 	ori	s5,s5,0x3bb8
    5948:	1655090c 	bne	s2,s5,7d7c <inst_error>
    594c:	00000000 	nop
    5950:	00000000 	nop
    5954:	3c0cf2fe 	lui	t4,0xf2fe
    5958:	358cacfa 	ori	t4,t4,0xacfa
    595c:	3c0dec80 	lui	t5,0xec80
    5960:	35ad8938 	ori	t5,t5,0x8938
    5964:	24100000 	li	s0,0
    5968:	1000000e 	b	59a4 <n31_bgez_test+0x59a4>
    596c:	24120000 	li	s2,0
    5970:	00000000 	nop
    5974:	3c10f2fe 	lui	s0,0xf2fe
    5978:	05010012 	bgez	t0,59c4 <n31_bgez_test+0x59c4>
    597c:	3610acfa 	ori	s0,s0,0xacfa
    5980:	10000012 	b	59cc <n31_bgez_test+0x59cc>
    5984:	00000000 	nop
    5988:	00000000 	nop
    598c:	00000021 	move	zero,zero
    5990:	00000021 	move	zero,zero
    5994:	00000021 	move	zero,zero
    5998:	00000021 	move	zero,zero
    599c:	00000021 	move	zero,zero
    59a0:	00000021 	move	zero,zero
    59a4:	3c083c05 	lui	t0,0x3c05
    59a8:	35088100 	ori	t0,t0,0x8100
    59ac:	0501fff1 	bgez	t0,5974 <n31_bgez_test+0x5974>
    59b0:	00000000 	nop
    59b4:	10000005 	b	59cc <n31_bgez_test+0x59cc>
    59b8:	00000000 	nop
    59bc:	00000000 	nop
    59c0:	00000021 	move	zero,zero
    59c4:	3c12ec80 	lui	s2,0xec80
    59c8:	36528938 	ori	s2,s2,0x8938
    59cc:	00000000 	nop
    59d0:	3c14f2fe 	lui	s4,0xf2fe
    59d4:	3694acfa 	ori	s4,s4,0xacfa
    59d8:	161408e8 	bne	s0,s4,7d7c <inst_error>
    59dc:	00000000 	nop
    59e0:	00000000 	nop
    59e4:	3c15ec80 	lui	s5,0xec80
    59e8:	36b58938 	ori	s5,s5,0x8938
    59ec:	165508e3 	bne	s2,s5,7d7c <inst_error>
    59f0:	00000000 	nop
    59f4:	00000000 	nop
    59f8:	3c0cb617 	lui	t4,0xb617
    59fc:	358c8480 	ori	t4,t4,0x8480
    5a00:	3c0d06c5 	lui	t5,0x6c5
    5a04:	35ad9558 	ori	t5,t5,0x9558
    5a08:	24100000 	li	s0,0
    5a0c:	1000000e 	b	5a48 <n31_bgez_test+0x5a48>
    5a10:	24120000 	li	s2,0
    5a14:	00000000 	nop
    5a18:	3c10b617 	lui	s0,0xb617
    5a1c:	05010012 	bgez	t0,5a68 <n31_bgez_test+0x5a68>
    5a20:	36108480 	ori	s0,s0,0x8480
    5a24:	10000012 	b	5a70 <n31_bgez_test+0x5a70>
    5a28:	00000000 	nop
    5a2c:	00000000 	nop
    5a30:	00000021 	move	zero,zero
    5a34:	00000021 	move	zero,zero
    5a38:	00000021 	move	zero,zero
    5a3c:	00000021 	move	zero,zero
    5a40:	00000021 	move	zero,zero
    5a44:	00000021 	move	zero,zero
    5a48:	3c08fe8f 	lui	t0,0xfe8f
    5a4c:	35087a50 	ori	t0,t0,0x7a50
    5a50:	0501fff1 	bgez	t0,5a18 <n31_bgez_test+0x5a18>
    5a54:	00000000 	nop
    5a58:	10000005 	b	5a70 <n31_bgez_test+0x5a70>
    5a5c:	00000000 	nop
    5a60:	00000000 	nop
    5a64:	00000021 	move	zero,zero
    5a68:	3c1206c5 	lui	s2,0x6c5
    5a6c:	36529558 	ori	s2,s2,0x9558
    5a70:	00000000 	nop
    5a74:	24140000 	li	s4,0
    5a78:	161408c0 	bne	s0,s4,7d7c <inst_error>
    5a7c:	00000000 	nop
    5a80:	00000000 	nop
    5a84:	24150000 	li	s5,0
    5a88:	165508bc 	bne	s2,s5,7d7c <inst_error>
    5a8c:	00000000 	nop
    5a90:	00000000 	nop
    5a94:	3c0c2df0 	lui	t4,0x2df0
    5a98:	358cf564 	ori	t4,t4,0xf564
    5a9c:	3c0d427a 	lui	t5,0x427a
    5aa0:	35add190 	ori	t5,t5,0xd190
    5aa4:	24100000 	li	s0,0
    5aa8:	1000000e 	b	5ae4 <n31_bgez_test+0x5ae4>
    5aac:	24120000 	li	s2,0
    5ab0:	00000000 	nop
    5ab4:	3c102df0 	lui	s0,0x2df0
    5ab8:	05010012 	bgez	t0,5b04 <n31_bgez_test+0x5b04>
    5abc:	3610f564 	ori	s0,s0,0xf564
    5ac0:	10000012 	b	5b0c <n31_bgez_test+0x5b0c>
    5ac4:	00000000 	nop
    5ac8:	00000000 	nop
    5acc:	00000021 	move	zero,zero
    5ad0:	00000021 	move	zero,zero
    5ad4:	00000021 	move	zero,zero
    5ad8:	00000021 	move	zero,zero
    5adc:	00000021 	move	zero,zero
    5ae0:	00000021 	move	zero,zero
    5ae4:	3c08ab34 	lui	t0,0xab34
    5ae8:	35087d30 	ori	t0,t0,0x7d30
    5aec:	0501fff1 	bgez	t0,5ab4 <n31_bgez_test+0x5ab4>
    5af0:	00000000 	nop
    5af4:	10000005 	b	5b0c <n31_bgez_test+0x5b0c>
    5af8:	00000000 	nop
    5afc:	00000000 	nop
    5b00:	00000021 	move	zero,zero
    5b04:	3c12427a 	lui	s2,0x427a
    5b08:	3652d190 	ori	s2,s2,0xd190
    5b0c:	00000000 	nop
    5b10:	24140000 	li	s4,0
    5b14:	16140899 	bne	s0,s4,7d7c <inst_error>
    5b18:	00000000 	nop
    5b1c:	00000000 	nop
    5b20:	24150000 	li	s5,0
    5b24:	16550895 	bne	s2,s5,7d7c <inst_error>
    5b28:	00000000 	nop
    5b2c:	00000000 	nop
    5b30:	3c0c6c9d 	lui	t4,0x6c9d
    5b34:	358cb2e0 	ori	t4,t4,0xb2e0
    5b38:	3c0d5bab 	lui	t5,0x5bab
    5b3c:	35ad0db7 	ori	t5,t5,0xdb7
    5b40:	24100000 	li	s0,0
    5b44:	1000000e 	b	5b80 <n31_bgez_test+0x5b80>
    5b48:	24120000 	li	s2,0
    5b4c:	00000000 	nop
    5b50:	3c106c9d 	lui	s0,0x6c9d
    5b54:	05010012 	bgez	t0,5ba0 <n31_bgez_test+0x5ba0>
    5b58:	3610b2e0 	ori	s0,s0,0xb2e0
    5b5c:	10000012 	b	5ba8 <n31_bgez_test+0x5ba8>
    5b60:	00000000 	nop
    5b64:	00000000 	nop
    5b68:	00000021 	move	zero,zero
    5b6c:	00000021 	move	zero,zero
    5b70:	00000021 	move	zero,zero
    5b74:	00000021 	move	zero,zero
    5b78:	00000021 	move	zero,zero
    5b7c:	00000021 	move	zero,zero
    5b80:	3c08cf82 	lui	t0,0xcf82
    5b84:	3508f3a6 	ori	t0,t0,0xf3a6
    5b88:	0501fff1 	bgez	t0,5b50 <n31_bgez_test+0x5b50>
    5b8c:	00000000 	nop
    5b90:	10000005 	b	5ba8 <n31_bgez_test+0x5ba8>
    5b94:	00000000 	nop
    5b98:	00000000 	nop
    5b9c:	00000021 	move	zero,zero
    5ba0:	3c125bab 	lui	s2,0x5bab
    5ba4:	36520db7 	ori	s2,s2,0xdb7
    5ba8:	00000000 	nop
    5bac:	24140000 	li	s4,0
    5bb0:	16140872 	bne	s0,s4,7d7c <inst_error>
    5bb4:	00000000 	nop
    5bb8:	00000000 	nop
    5bbc:	24150000 	li	s5,0
    5bc0:	1655086e 	bne	s2,s5,7d7c <inst_error>
    5bc4:	00000000 	nop
    5bc8:	00000000 	nop
    5bcc:	3c0cfd8d 	lui	t4,0xfd8d
    5bd0:	358c90e3 	ori	t4,t4,0x90e3
    5bd4:	3c0d4a09 	lui	t5,0x4a09
    5bd8:	35adff6f 	ori	t5,t5,0xff6f
    5bdc:	24100000 	li	s0,0
    5be0:	1000000e 	b	5c1c <n31_bgez_test+0x5c1c>
    5be4:	24120000 	li	s2,0
    5be8:	00000000 	nop
    5bec:	3c10fd8d 	lui	s0,0xfd8d
    5bf0:	05010012 	bgez	t0,5c3c <n31_bgez_test+0x5c3c>
    5bf4:	361090e3 	ori	s0,s0,0x90e3
    5bf8:	10000012 	b	5c44 <n31_bgez_test+0x5c44>
    5bfc:	00000000 	nop
    5c00:	00000000 	nop
    5c04:	00000021 	move	zero,zero
    5c08:	00000021 	move	zero,zero
    5c0c:	00000021 	move	zero,zero
    5c10:	00000021 	move	zero,zero
    5c14:	00000021 	move	zero,zero
    5c18:	00000021 	move	zero,zero
    5c1c:	3c081045 	lui	t0,0x1045
    5c20:	35084360 	ori	t0,t0,0x4360
    5c24:	0501fff1 	bgez	t0,5bec <n31_bgez_test+0x5bec>
    5c28:	00000000 	nop
    5c2c:	10000005 	b	5c44 <n31_bgez_test+0x5c44>
    5c30:	00000000 	nop
    5c34:	00000000 	nop
    5c38:	00000021 	move	zero,zero
    5c3c:	3c124a09 	lui	s2,0x4a09
    5c40:	3652ff6f 	ori	s2,s2,0xff6f
    5c44:	00000000 	nop
    5c48:	3c14fd8d 	lui	s4,0xfd8d
    5c4c:	369490e3 	ori	s4,s4,0x90e3
    5c50:	1614084a 	bne	s0,s4,7d7c <inst_error>
    5c54:	00000000 	nop
    5c58:	00000000 	nop
    5c5c:	3c154a09 	lui	s5,0x4a09
    5c60:	36b5ff6f 	ori	s5,s5,0xff6f
    5c64:	16550845 	bne	s2,s5,7d7c <inst_error>
    5c68:	00000000 	nop
    5c6c:	00000000 	nop
    5c70:	3c0c3440 	lui	t4,0x3440
    5c74:	358c40f8 	ori	t4,t4,0x40f8
    5c78:	3c0d1e6e 	lui	t5,0x1e6e
    5c7c:	35ad0140 	ori	t5,t5,0x140
    5c80:	24100000 	li	s0,0
    5c84:	1000000e 	b	5cc0 <n31_bgez_test+0x5cc0>
    5c88:	24120000 	li	s2,0
    5c8c:	00000000 	nop
    5c90:	3c103440 	lui	s0,0x3440
    5c94:	05010012 	bgez	t0,5ce0 <n31_bgez_test+0x5ce0>
    5c98:	361040f8 	ori	s0,s0,0x40f8
    5c9c:	10000012 	b	5ce8 <n31_bgez_test+0x5ce8>
    5ca0:	00000000 	nop
    5ca4:	00000000 	nop
    5ca8:	00000021 	move	zero,zero
    5cac:	00000021 	move	zero,zero
    5cb0:	00000021 	move	zero,zero
    5cb4:	00000021 	move	zero,zero
    5cb8:	00000021 	move	zero,zero
    5cbc:	00000021 	move	zero,zero
    5cc0:	3c08ea72 	lui	t0,0xea72
    5cc4:	35084300 	ori	t0,t0,0x4300
    5cc8:	0501fff1 	bgez	t0,5c90 <n31_bgez_test+0x5c90>
    5ccc:	00000000 	nop
    5cd0:	10000005 	b	5ce8 <n31_bgez_test+0x5ce8>
    5cd4:	00000000 	nop
    5cd8:	00000000 	nop
    5cdc:	00000021 	move	zero,zero
    5ce0:	3c121e6e 	lui	s2,0x1e6e
    5ce4:	36520140 	ori	s2,s2,0x140
    5ce8:	00000000 	nop
    5cec:	24140000 	li	s4,0
    5cf0:	16140822 	bne	s0,s4,7d7c <inst_error>
    5cf4:	00000000 	nop
    5cf8:	00000000 	nop
    5cfc:	24150000 	li	s5,0
    5d00:	1655081e 	bne	s2,s5,7d7c <inst_error>
    5d04:	00000000 	nop
    5d08:	00000000 	nop
    5d0c:	3c0caf35 	lui	t4,0xaf35
    5d10:	358ccfd8 	ori	t4,t4,0xcfd8
    5d14:	3c0df704 	lui	t5,0xf704
    5d18:	35ad803f 	ori	t5,t5,0x803f
    5d1c:	24100000 	li	s0,0
    5d20:	1000000e 	b	5d5c <n31_bgez_test+0x5d5c>
    5d24:	24120000 	li	s2,0
    5d28:	00000000 	nop
    5d2c:	3c10af35 	lui	s0,0xaf35
    5d30:	05010012 	bgez	t0,5d7c <n31_bgez_test+0x5d7c>
    5d34:	3610cfd8 	ori	s0,s0,0xcfd8
    5d38:	10000012 	b	5d84 <n31_bgez_test+0x5d84>
    5d3c:	00000000 	nop
    5d40:	00000000 	nop
    5d44:	00000021 	move	zero,zero
    5d48:	00000021 	move	zero,zero
    5d4c:	00000021 	move	zero,zero
    5d50:	00000021 	move	zero,zero
    5d54:	00000021 	move	zero,zero
    5d58:	00000021 	move	zero,zero
    5d5c:	3c08e4e2 	lui	t0,0xe4e2
    5d60:	35080012 	ori	t0,t0,0x12
    5d64:	0501fff1 	bgez	t0,5d2c <n31_bgez_test+0x5d2c>
    5d68:	00000000 	nop
    5d6c:	10000005 	b	5d84 <n31_bgez_test+0x5d84>
    5d70:	00000000 	nop
    5d74:	00000000 	nop
    5d78:	00000021 	move	zero,zero
    5d7c:	3c12f704 	lui	s2,0xf704
    5d80:	3652803f 	ori	s2,s2,0x803f
    5d84:	00000000 	nop
    5d88:	24140000 	li	s4,0
    5d8c:	161407fb 	bne	s0,s4,7d7c <inst_error>
    5d90:	00000000 	nop
    5d94:	00000000 	nop
    5d98:	24150000 	li	s5,0
    5d9c:	165507f7 	bne	s2,s5,7d7c <inst_error>
    5da0:	00000000 	nop
    5da4:	00000000 	nop
    5da8:	3c0c78ef 	lui	t4,0x78ef
    5dac:	358c1c5c 	ori	t4,t4,0x1c5c
    5db0:	3c0d97fb 	lui	t5,0x97fb
    5db4:	35ada6e8 	ori	t5,t5,0xa6e8
    5db8:	24100000 	li	s0,0
    5dbc:	1000000e 	b	5df8 <n31_bgez_test+0x5df8>
    5dc0:	24120000 	li	s2,0
    5dc4:	00000000 	nop
    5dc8:	3c1078ef 	lui	s0,0x78ef
    5dcc:	05010012 	bgez	t0,5e18 <n31_bgez_test+0x5e18>
    5dd0:	36101c5c 	ori	s0,s0,0x1c5c
    5dd4:	10000012 	b	5e20 <n31_bgez_test+0x5e20>
    5dd8:	00000000 	nop
    5ddc:	00000000 	nop
    5de0:	00000021 	move	zero,zero
    5de4:	00000021 	move	zero,zero
    5de8:	00000021 	move	zero,zero
    5dec:	00000021 	move	zero,zero
    5df0:	00000021 	move	zero,zero
    5df4:	00000021 	move	zero,zero
    5df8:	3c088fd7 	lui	t0,0x8fd7
    5dfc:	3508495c 	ori	t0,t0,0x495c
    5e00:	0501fff1 	bgez	t0,5dc8 <n31_bgez_test+0x5dc8>
    5e04:	00000000 	nop
    5e08:	10000005 	b	5e20 <n31_bgez_test+0x5e20>
    5e0c:	00000000 	nop
    5e10:	00000000 	nop
    5e14:	00000021 	move	zero,zero
    5e18:	3c1297fb 	lui	s2,0x97fb
    5e1c:	3652a6e8 	ori	s2,s2,0xa6e8
    5e20:	00000000 	nop
    5e24:	24140000 	li	s4,0
    5e28:	161407d4 	bne	s0,s4,7d7c <inst_error>
    5e2c:	00000000 	nop
    5e30:	00000000 	nop
    5e34:	24150000 	li	s5,0
    5e38:	165507d0 	bne	s2,s5,7d7c <inst_error>
    5e3c:	00000000 	nop
    5e40:	00000000 	nop
    5e44:	3c0c5f66 	lui	t4,0x5f66
    5e48:	358c63a6 	ori	t4,t4,0x63a6
    5e4c:	3c0d87f6 	lui	t5,0x87f6
    5e50:	35adf094 	ori	t5,t5,0xf094
    5e54:	24100000 	li	s0,0
    5e58:	1000000e 	b	5e94 <n31_bgez_test+0x5e94>
    5e5c:	24120000 	li	s2,0
    5e60:	00000000 	nop
    5e64:	3c105f66 	lui	s0,0x5f66
    5e68:	05010012 	bgez	t0,5eb4 <n31_bgez_test+0x5eb4>
    5e6c:	361063a6 	ori	s0,s0,0x63a6
    5e70:	10000012 	b	5ebc <n31_bgez_test+0x5ebc>
    5e74:	00000000 	nop
    5e78:	00000000 	nop
    5e7c:	00000021 	move	zero,zero
    5e80:	00000021 	move	zero,zero
    5e84:	00000021 	move	zero,zero
    5e88:	00000021 	move	zero,zero
    5e8c:	00000021 	move	zero,zero
    5e90:	00000021 	move	zero,zero
    5e94:	3c083149 	lui	t0,0x3149
    5e98:	3508131c 	ori	t0,t0,0x131c
    5e9c:	0501fff1 	bgez	t0,5e64 <n31_bgez_test+0x5e64>
    5ea0:	00000000 	nop
    5ea4:	10000005 	b	5ebc <n31_bgez_test+0x5ebc>
    5ea8:	00000000 	nop
    5eac:	00000000 	nop
    5eb0:	00000021 	move	zero,zero
    5eb4:	3c1287f6 	lui	s2,0x87f6
    5eb8:	3652f094 	ori	s2,s2,0xf094
    5ebc:	00000000 	nop
    5ec0:	3c145f66 	lui	s4,0x5f66
    5ec4:	369463a6 	ori	s4,s4,0x63a6
    5ec8:	161407ac 	bne	s0,s4,7d7c <inst_error>
    5ecc:	00000000 	nop
    5ed0:	00000000 	nop
    5ed4:	3c1587f6 	lui	s5,0x87f6
    5ed8:	36b5f094 	ori	s5,s5,0xf094
    5edc:	165507a7 	bne	s2,s5,7d7c <inst_error>
    5ee0:	00000000 	nop
    5ee4:	00000000 	nop
    5ee8:	3c0cb1a0 	lui	t4,0xb1a0
    5eec:	358cd130 	ori	t4,t4,0xd130
    5ef0:	3c0d45d2 	lui	t5,0x45d2
    5ef4:	35ad9338 	ori	t5,t5,0x9338
    5ef8:	24100000 	li	s0,0
    5efc:	1000000e 	b	5f38 <n31_bgez_test+0x5f38>
    5f00:	24120000 	li	s2,0
    5f04:	00000000 	nop
    5f08:	3c10b1a0 	lui	s0,0xb1a0
    5f0c:	05010012 	bgez	t0,5f58 <n31_bgez_test+0x5f58>
    5f10:	3610d130 	ori	s0,s0,0xd130
    5f14:	10000012 	b	5f60 <n31_bgez_test+0x5f60>
    5f18:	00000000 	nop
    5f1c:	00000000 	nop
    5f20:	00000021 	move	zero,zero
    5f24:	00000021 	move	zero,zero
    5f28:	00000021 	move	zero,zero
    5f2c:	00000021 	move	zero,zero
    5f30:	00000021 	move	zero,zero
    5f34:	00000021 	move	zero,zero
    5f38:	3c0829ec 	lui	t0,0x29ec
    5f3c:	3508535f 	ori	t0,t0,0x535f
    5f40:	0501fff1 	bgez	t0,5f08 <n31_bgez_test+0x5f08>
    5f44:	00000000 	nop
    5f48:	10000005 	b	5f60 <n31_bgez_test+0x5f60>
    5f4c:	00000000 	nop
    5f50:	00000000 	nop
    5f54:	00000021 	move	zero,zero
    5f58:	3c1245d2 	lui	s2,0x45d2
    5f5c:	36529338 	ori	s2,s2,0x9338
    5f60:	00000000 	nop
    5f64:	3c14b1a0 	lui	s4,0xb1a0
    5f68:	3694d130 	ori	s4,s4,0xd130
    5f6c:	16140783 	bne	s0,s4,7d7c <inst_error>
    5f70:	00000000 	nop
    5f74:	00000000 	nop
    5f78:	3c1545d2 	lui	s5,0x45d2
    5f7c:	36b59338 	ori	s5,s5,0x9338
    5f80:	1655077e 	bne	s2,s5,7d7c <inst_error>
    5f84:	00000000 	nop
    5f88:	00000000 	nop
    5f8c:	3c0cf76a 	lui	t4,0xf76a
    5f90:	358cc7c8 	ori	t4,t4,0xc7c8
    5f94:	3c0dab0e 	lui	t5,0xab0e
    5f98:	35ad48bc 	ori	t5,t5,0x48bc
    5f9c:	24100000 	li	s0,0
    5fa0:	1000000e 	b	5fdc <n31_bgez_test+0x5fdc>
    5fa4:	24120000 	li	s2,0
    5fa8:	00000000 	nop
    5fac:	3c10f76a 	lui	s0,0xf76a
    5fb0:	05010012 	bgez	t0,5ffc <n31_bgez_test+0x5ffc>
    5fb4:	3610c7c8 	ori	s0,s0,0xc7c8
    5fb8:	10000012 	b	6004 <n31_bgez_test+0x6004>
    5fbc:	00000000 	nop
    5fc0:	00000000 	nop
    5fc4:	00000021 	move	zero,zero
    5fc8:	00000021 	move	zero,zero
    5fcc:	00000021 	move	zero,zero
    5fd0:	00000021 	move	zero,zero
    5fd4:	00000021 	move	zero,zero
    5fd8:	00000021 	move	zero,zero
    5fdc:	3c08c403 	lui	t0,0xc403
    5fe0:	35084f18 	ori	t0,t0,0x4f18
    5fe4:	0501fff1 	bgez	t0,5fac <n31_bgez_test+0x5fac>
    5fe8:	00000000 	nop
    5fec:	10000005 	b	6004 <n31_bgez_test+0x6004>
    5ff0:	00000000 	nop
    5ff4:	00000000 	nop
    5ff8:	00000021 	move	zero,zero
    5ffc:	3c12ab0e 	lui	s2,0xab0e
    6000:	365248bc 	ori	s2,s2,0x48bc
    6004:	00000000 	nop
    6008:	24140000 	li	s4,0
    600c:	1614075b 	bne	s0,s4,7d7c <inst_error>
    6010:	00000000 	nop
    6014:	00000000 	nop
    6018:	24150000 	li	s5,0
    601c:	16550757 	bne	s2,s5,7d7c <inst_error>
    6020:	00000000 	nop
    6024:	00000000 	nop
    6028:	3c0c8280 	lui	t4,0x8280
    602c:	358c0d40 	ori	t4,t4,0xd40
    6030:	3c0d8c95 	lui	t5,0x8c95
    6034:	35ad8d01 	ori	t5,t5,0x8d01
    6038:	24100000 	li	s0,0
    603c:	1000000e 	b	6078 <n31_bgez_test+0x6078>
    6040:	24120000 	li	s2,0
    6044:	00000000 	nop
    6048:	3c108280 	lui	s0,0x8280
    604c:	05010012 	bgez	t0,6098 <n31_bgez_test+0x6098>
    6050:	36100d40 	ori	s0,s0,0xd40
    6054:	10000012 	b	60a0 <n31_bgez_test+0x60a0>
    6058:	00000000 	nop
    605c:	00000000 	nop
    6060:	00000021 	move	zero,zero
    6064:	00000021 	move	zero,zero
    6068:	00000021 	move	zero,zero
    606c:	00000021 	move	zero,zero
    6070:	00000021 	move	zero,zero
    6074:	00000021 	move	zero,zero
    6078:	3c081764 	lui	t0,0x1764
    607c:	3508ab00 	ori	t0,t0,0xab00
    6080:	0501fff1 	bgez	t0,6048 <n31_bgez_test+0x6048>
    6084:	00000000 	nop
    6088:	10000005 	b	60a0 <n31_bgez_test+0x60a0>
    608c:	00000000 	nop
    6090:	00000000 	nop
    6094:	00000021 	move	zero,zero
    6098:	3c128c95 	lui	s2,0x8c95
    609c:	36528d01 	ori	s2,s2,0x8d01
    60a0:	00000000 	nop
    60a4:	3c148280 	lui	s4,0x8280
    60a8:	36940d40 	ori	s4,s4,0xd40
    60ac:	16140733 	bne	s0,s4,7d7c <inst_error>
    60b0:	00000000 	nop
    60b4:	00000000 	nop
    60b8:	3c158c95 	lui	s5,0x8c95
    60bc:	36b58d01 	ori	s5,s5,0x8d01
    60c0:	1655072e 	bne	s2,s5,7d7c <inst_error>
    60c4:	00000000 	nop
    60c8:	00000000 	nop
    60cc:	3c0c9359 	lui	t4,0x9359
    60d0:	358cc254 	ori	t4,t4,0xc254
    60d4:	3c0d0ea1 	lui	t5,0xea1
    60d8:	35ad1ad4 	ori	t5,t5,0x1ad4
    60dc:	24100000 	li	s0,0
    60e0:	1000000e 	b	611c <n31_bgez_test+0x611c>
    60e4:	24120000 	li	s2,0
    60e8:	00000000 	nop
    60ec:	3c109359 	lui	s0,0x9359
    60f0:	05010012 	bgez	t0,613c <n31_bgez_test+0x613c>
    60f4:	3610c254 	ori	s0,s0,0xc254
    60f8:	10000012 	b	6144 <n31_bgez_test+0x6144>
    60fc:	00000000 	nop
    6100:	00000000 	nop
    6104:	00000021 	move	zero,zero
    6108:	00000021 	move	zero,zero
    610c:	00000021 	move	zero,zero
    6110:	00000021 	move	zero,zero
    6114:	00000021 	move	zero,zero
    6118:	00000021 	move	zero,zero
    611c:	3c088da1 	lui	t0,0x8da1
    6120:	3508b4ca 	ori	t0,t0,0xb4ca
    6124:	0501fff1 	bgez	t0,60ec <n31_bgez_test+0x60ec>
    6128:	00000000 	nop
    612c:	10000005 	b	6144 <n31_bgez_test+0x6144>
    6130:	00000000 	nop
    6134:	00000000 	nop
    6138:	00000021 	move	zero,zero
    613c:	3c120ea1 	lui	s2,0xea1
    6140:	36521ad4 	ori	s2,s2,0x1ad4
    6144:	00000000 	nop
    6148:	24140000 	li	s4,0
    614c:	1614070b 	bne	s0,s4,7d7c <inst_error>
    6150:	00000000 	nop
    6154:	00000000 	nop
    6158:	24150000 	li	s5,0
    615c:	16550707 	bne	s2,s5,7d7c <inst_error>
    6160:	00000000 	nop
    6164:	00000000 	nop
    6168:	3c0cce7f 	lui	t4,0xce7f
    616c:	358cabfc 	ori	t4,t4,0xabfc
    6170:	3c0d6797 	lui	t5,0x6797
    6174:	35ad3548 	ori	t5,t5,0x3548
    6178:	24100000 	li	s0,0
    617c:	1000000e 	b	61b8 <n31_bgez_test+0x61b8>
    6180:	24120000 	li	s2,0
    6184:	00000000 	nop
    6188:	3c10ce7f 	lui	s0,0xce7f
    618c:	05010012 	bgez	t0,61d8 <n31_bgez_test+0x61d8>
    6190:	3610abfc 	ori	s0,s0,0xabfc
    6194:	10000012 	b	61e0 <n31_bgez_test+0x61e0>
    6198:	00000000 	nop
    619c:	00000000 	nop
    61a0:	00000021 	move	zero,zero
    61a4:	00000021 	move	zero,zero
    61a8:	00000021 	move	zero,zero
    61ac:	00000021 	move	zero,zero
    61b0:	00000021 	move	zero,zero
    61b4:	00000021 	move	zero,zero
    61b8:	3c087a7c 	lui	t0,0x7a7c
    61bc:	35089be0 	ori	t0,t0,0x9be0
    61c0:	0501fff1 	bgez	t0,6188 <n31_bgez_test+0x6188>
    61c4:	00000000 	nop
    61c8:	10000005 	b	61e0 <n31_bgez_test+0x61e0>
    61cc:	00000000 	nop
    61d0:	00000000 	nop
    61d4:	00000021 	move	zero,zero
    61d8:	3c126797 	lui	s2,0x6797
    61dc:	36523548 	ori	s2,s2,0x3548
    61e0:	00000000 	nop
    61e4:	3c14ce7f 	lui	s4,0xce7f
    61e8:	3694abfc 	ori	s4,s4,0xabfc
    61ec:	161406e3 	bne	s0,s4,7d7c <inst_error>
    61f0:	00000000 	nop
    61f4:	00000000 	nop
    61f8:	3c156797 	lui	s5,0x6797
    61fc:	36b53548 	ori	s5,s5,0x3548
    6200:	165506de 	bne	s2,s5,7d7c <inst_error>
    6204:	00000000 	nop
    6208:	00000000 	nop
    620c:	3c0cca11 	lui	t4,0xca11
    6210:	358c0558 	ori	t4,t4,0x558
    6214:	3c0dc341 	lui	t5,0xc341
    6218:	35adbca0 	ori	t5,t5,0xbca0
    621c:	24100000 	li	s0,0
    6220:	1000000e 	b	625c <n31_bgez_test+0x625c>
    6224:	24120000 	li	s2,0
    6228:	00000000 	nop
    622c:	3c10ca11 	lui	s0,0xca11
    6230:	05010012 	bgez	t0,627c <n31_bgez_test+0x627c>
    6234:	36100558 	ori	s0,s0,0x558
    6238:	10000012 	b	6284 <n31_bgez_test+0x6284>
    623c:	00000000 	nop
    6240:	00000000 	nop
    6244:	00000021 	move	zero,zero
    6248:	00000021 	move	zero,zero
    624c:	00000021 	move	zero,zero
    6250:	00000021 	move	zero,zero
    6254:	00000021 	move	zero,zero
    6258:	00000021 	move	zero,zero
    625c:	3c08aca8 	lui	t0,0xaca8
    6260:	3508ece4 	ori	t0,t0,0xece4
    6264:	0501fff1 	bgez	t0,622c <n31_bgez_test+0x622c>
    6268:	00000000 	nop
    626c:	10000005 	b	6284 <n31_bgez_test+0x6284>
    6270:	00000000 	nop
    6274:	00000000 	nop
    6278:	00000021 	move	zero,zero
    627c:	3c12c341 	lui	s2,0xc341
    6280:	3652bca0 	ori	s2,s2,0xbca0
    6284:	00000000 	nop
    6288:	24140000 	li	s4,0
    628c:	161406bb 	bne	s0,s4,7d7c <inst_error>
    6290:	00000000 	nop
    6294:	00000000 	nop
    6298:	24150000 	li	s5,0
    629c:	165506b7 	bne	s2,s5,7d7c <inst_error>
    62a0:	00000000 	nop
    62a4:	00000000 	nop
    62a8:	3c0cf0b9 	lui	t4,0xf0b9
    62ac:	358cfa40 	ori	t4,t4,0xfa40
    62b0:	3c0d9aad 	lui	t5,0x9aad
    62b4:	35ad94c0 	ori	t5,t5,0x94c0
    62b8:	24100000 	li	s0,0
    62bc:	1000000e 	b	62f8 <n31_bgez_test+0x62f8>
    62c0:	24120000 	li	s2,0
    62c4:	00000000 	nop
    62c8:	3c10f0b9 	lui	s0,0xf0b9
    62cc:	05010012 	bgez	t0,6318 <n31_bgez_test+0x6318>
    62d0:	3610fa40 	ori	s0,s0,0xfa40
    62d4:	10000012 	b	6320 <n31_bgez_test+0x6320>
    62d8:	00000000 	nop
    62dc:	00000000 	nop
    62e0:	00000021 	move	zero,zero
    62e4:	00000021 	move	zero,zero
    62e8:	00000021 	move	zero,zero
    62ec:	00000021 	move	zero,zero
    62f0:	00000021 	move	zero,zero
    62f4:	00000021 	move	zero,zero
    62f8:	3c0879d6 	lui	t0,0x79d6
    62fc:	350870b4 	ori	t0,t0,0x70b4
    6300:	0501fff1 	bgez	t0,62c8 <n31_bgez_test+0x62c8>
    6304:	00000000 	nop
    6308:	10000005 	b	6320 <n31_bgez_test+0x6320>
    630c:	00000000 	nop
    6310:	00000000 	nop
    6314:	00000021 	move	zero,zero
    6318:	3c129aad 	lui	s2,0x9aad
    631c:	365294c0 	ori	s2,s2,0x94c0
    6320:	00000000 	nop
    6324:	3c14f0b9 	lui	s4,0xf0b9
    6328:	3694fa40 	ori	s4,s4,0xfa40
    632c:	16140693 	bne	s0,s4,7d7c <inst_error>
    6330:	00000000 	nop
    6334:	00000000 	nop
    6338:	3c159aad 	lui	s5,0x9aad
    633c:	36b594c0 	ori	s5,s5,0x94c0
    6340:	1655068e 	bne	s2,s5,7d7c <inst_error>
    6344:	00000000 	nop
    6348:	00000000 	nop
    634c:	3c0c6819 	lui	t4,0x6819
    6350:	358c7198 	ori	t4,t4,0x7198
    6354:	3c0dcb1d 	lui	t5,0xcb1d
    6358:	35ad82d6 	ori	t5,t5,0x82d6
    635c:	24100000 	li	s0,0
    6360:	1000000e 	b	639c <n31_bgez_test+0x639c>
    6364:	24120000 	li	s2,0
    6368:	00000000 	nop
    636c:	3c106819 	lui	s0,0x6819
    6370:	05010012 	bgez	t0,63bc <n31_bgez_test+0x63bc>
    6374:	36107198 	ori	s0,s0,0x7198
    6378:	10000012 	b	63c4 <n31_bgez_test+0x63c4>
    637c:	00000000 	nop
    6380:	00000000 	nop
    6384:	00000021 	move	zero,zero
    6388:	00000021 	move	zero,zero
    638c:	00000021 	move	zero,zero
    6390:	00000021 	move	zero,zero
    6394:	00000021 	move	zero,zero
    6398:	00000021 	move	zero,zero
    639c:	3c0896d8 	lui	t0,0x96d8
    63a0:	35089aca 	ori	t0,t0,0x9aca
    63a4:	0501fff1 	bgez	t0,636c <n31_bgez_test+0x636c>
    63a8:	00000000 	nop
    63ac:	10000005 	b	63c4 <n31_bgez_test+0x63c4>
    63b0:	00000000 	nop
    63b4:	00000000 	nop
    63b8:	00000021 	move	zero,zero
    63bc:	3c12cb1d 	lui	s2,0xcb1d
    63c0:	365282d6 	ori	s2,s2,0x82d6
    63c4:	00000000 	nop
    63c8:	24140000 	li	s4,0
    63cc:	1614066b 	bne	s0,s4,7d7c <inst_error>
    63d0:	00000000 	nop
    63d4:	00000000 	nop
    63d8:	24150000 	li	s5,0
    63dc:	16550667 	bne	s2,s5,7d7c <inst_error>
    63e0:	00000000 	nop
    63e4:	00000000 	nop
    63e8:	3c0cd420 	lui	t4,0xd420
    63ec:	358c8e50 	ori	t4,t4,0x8e50
    63f0:	3c0d54be 	lui	t5,0x54be
    63f4:	35ad4180 	ori	t5,t5,0x4180
    63f8:	24100000 	li	s0,0
    63fc:	1000000e 	b	6438 <n31_bgez_test+0x6438>
    6400:	24120000 	li	s2,0
    6404:	00000000 	nop
    6408:	3c10d420 	lui	s0,0xd420
    640c:	05010012 	bgez	t0,6458 <n31_bgez_test+0x6458>
    6410:	36108e50 	ori	s0,s0,0x8e50
    6414:	10000012 	b	6460 <n31_bgez_test+0x6460>
    6418:	00000000 	nop
    641c:	00000000 	nop
    6420:	00000021 	move	zero,zero
    6424:	00000021 	move	zero,zero
    6428:	00000021 	move	zero,zero
    642c:	00000021 	move	zero,zero
    6430:	00000021 	move	zero,zero
    6434:	00000021 	move	zero,zero
    6438:	3c08b8f4 	lui	t0,0xb8f4
    643c:	3508850a 	ori	t0,t0,0x850a
    6440:	0501fff1 	bgez	t0,6408 <n31_bgez_test+0x6408>
    6444:	00000000 	nop
    6448:	10000005 	b	6460 <n31_bgez_test+0x6460>
    644c:	00000000 	nop
    6450:	00000000 	nop
    6454:	00000021 	move	zero,zero
    6458:	3c1254be 	lui	s2,0x54be
    645c:	36524180 	ori	s2,s2,0x4180
    6460:	00000000 	nop
    6464:	24140000 	li	s4,0
    6468:	16140644 	bne	s0,s4,7d7c <inst_error>
    646c:	00000000 	nop
    6470:	00000000 	nop
    6474:	24150000 	li	s5,0
    6478:	16550640 	bne	s2,s5,7d7c <inst_error>
    647c:	00000000 	nop
    6480:	00000000 	nop
    6484:	3c0c5f20 	lui	t4,0x5f20
    6488:	358c4345 	ori	t4,t4,0x4345
    648c:	3c0d4ede 	lui	t5,0x4ede
    6490:	35ad2a20 	ori	t5,t5,0x2a20
    6494:	24100000 	li	s0,0
    6498:	1000000e 	b	64d4 <n31_bgez_test+0x64d4>
    649c:	24120000 	li	s2,0
    64a0:	00000000 	nop
    64a4:	3c105f20 	lui	s0,0x5f20
    64a8:	05010012 	bgez	t0,64f4 <n31_bgez_test+0x64f4>
    64ac:	36104345 	ori	s0,s0,0x4345
    64b0:	10000012 	b	64fc <n31_bgez_test+0x64fc>
    64b4:	00000000 	nop
    64b8:	00000000 	nop
    64bc:	00000021 	move	zero,zero
    64c0:	00000021 	move	zero,zero
    64c4:	00000021 	move	zero,zero
    64c8:	00000021 	move	zero,zero
    64cc:	00000021 	move	zero,zero
    64d0:	00000021 	move	zero,zero
    64d4:	3c08477b 	lui	t0,0x477b
    64d8:	35083924 	ori	t0,t0,0x3924
    64dc:	0501fff1 	bgez	t0,64a4 <n31_bgez_test+0x64a4>
    64e0:	00000000 	nop
    64e4:	10000005 	b	64fc <n31_bgez_test+0x64fc>
    64e8:	00000000 	nop
    64ec:	00000000 	nop
    64f0:	00000021 	move	zero,zero
    64f4:	3c124ede 	lui	s2,0x4ede
    64f8:	36522a20 	ori	s2,s2,0x2a20
    64fc:	00000000 	nop
    6500:	3c145f20 	lui	s4,0x5f20
    6504:	36944345 	ori	s4,s4,0x4345
    6508:	1614061c 	bne	s0,s4,7d7c <inst_error>
    650c:	00000000 	nop
    6510:	00000000 	nop
    6514:	3c154ede 	lui	s5,0x4ede
    6518:	36b52a20 	ori	s5,s5,0x2a20
    651c:	16550617 	bne	s2,s5,7d7c <inst_error>
    6520:	00000000 	nop
    6524:	00000000 	nop
    6528:	3c0c49b8 	lui	t4,0x49b8
    652c:	358c4ca8 	ori	t4,t4,0x4ca8
    6530:	3c0d1683 	lui	t5,0x1683
    6534:	35ad5880 	ori	t5,t5,0x5880
    6538:	24100000 	li	s0,0
    653c:	1000000e 	b	6578 <n31_bgez_test+0x6578>
    6540:	24120000 	li	s2,0
    6544:	00000000 	nop
    6548:	3c1049b8 	lui	s0,0x49b8
    654c:	05010012 	bgez	t0,6598 <n31_bgez_test+0x6598>
    6550:	36104ca8 	ori	s0,s0,0x4ca8
    6554:	10000012 	b	65a0 <n31_bgez_test+0x65a0>
    6558:	00000000 	nop
    655c:	00000000 	nop
    6560:	00000021 	move	zero,zero
    6564:	00000021 	move	zero,zero
    6568:	00000021 	move	zero,zero
    656c:	00000021 	move	zero,zero
    6570:	00000021 	move	zero,zero
    6574:	00000021 	move	zero,zero
    6578:	3c08f79a 	lui	t0,0xf79a
    657c:	3508e83a 	ori	t0,t0,0xe83a
    6580:	0501fff1 	bgez	t0,6548 <n31_bgez_test+0x6548>
    6584:	00000000 	nop
    6588:	10000005 	b	65a0 <n31_bgez_test+0x65a0>
    658c:	00000000 	nop
    6590:	00000000 	nop
    6594:	00000021 	move	zero,zero
    6598:	3c121683 	lui	s2,0x1683
    659c:	36525880 	ori	s2,s2,0x5880
    65a0:	00000000 	nop
    65a4:	24140000 	li	s4,0
    65a8:	161405f4 	bne	s0,s4,7d7c <inst_error>
    65ac:	00000000 	nop
    65b0:	00000000 	nop
    65b4:	24150000 	li	s5,0
    65b8:	165505f0 	bne	s2,s5,7d7c <inst_error>
    65bc:	00000000 	nop
    65c0:	00000000 	nop
    65c4:	3c0cff88 	lui	t4,0xff88
    65c8:	358c3700 	ori	t4,t4,0x3700
    65cc:	3c0dd81c 	lui	t5,0xd81c
    65d0:	35ad90b8 	ori	t5,t5,0x90b8
    65d4:	24100000 	li	s0,0
    65d8:	1000000e 	b	6614 <n31_bgez_test+0x6614>
    65dc:	24120000 	li	s2,0
    65e0:	00000000 	nop
    65e4:	3c10ff88 	lui	s0,0xff88
    65e8:	05010012 	bgez	t0,6634 <n31_bgez_test+0x6634>
    65ec:	36103700 	ori	s0,s0,0x3700
    65f0:	10000012 	b	663c <n31_bgez_test+0x663c>
    65f4:	00000000 	nop
    65f8:	00000000 	nop
    65fc:	00000021 	move	zero,zero
    6600:	00000021 	move	zero,zero
    6604:	00000021 	move	zero,zero
    6608:	00000021 	move	zero,zero
    660c:	00000021 	move	zero,zero
    6610:	00000021 	move	zero,zero
    6614:	3c085081 	lui	t0,0x5081
    6618:	35084720 	ori	t0,t0,0x4720
    661c:	0501fff1 	bgez	t0,65e4 <n31_bgez_test+0x65e4>
    6620:	00000000 	nop
    6624:	10000005 	b	663c <n31_bgez_test+0x663c>
    6628:	00000000 	nop
    662c:	00000000 	nop
    6630:	00000021 	move	zero,zero
    6634:	3c12d81c 	lui	s2,0xd81c
    6638:	365290b8 	ori	s2,s2,0x90b8
    663c:	00000000 	nop
    6640:	3c14ff88 	lui	s4,0xff88
    6644:	36943700 	ori	s4,s4,0x3700
    6648:	161405cc 	bne	s0,s4,7d7c <inst_error>
    664c:	00000000 	nop
    6650:	00000000 	nop
    6654:	3c15d81c 	lui	s5,0xd81c
    6658:	36b590b8 	ori	s5,s5,0x90b8
    665c:	165505c7 	bne	s2,s5,7d7c <inst_error>
    6660:	00000000 	nop
    6664:	00000000 	nop
    6668:	3c0c7798 	lui	t4,0x7798
    666c:	358ca988 	ori	t4,t4,0xa988
    6670:	3c0d9f53 	lui	t5,0x9f53
    6674:	35ad9410 	ori	t5,t5,0x9410
    6678:	24100000 	li	s0,0
    667c:	1000000e 	b	66b8 <n31_bgez_test+0x66b8>
    6680:	24120000 	li	s2,0
    6684:	00000000 	nop
    6688:	3c107798 	lui	s0,0x7798
    668c:	05010012 	bgez	t0,66d8 <n31_bgez_test+0x66d8>
    6690:	3610a988 	ori	s0,s0,0xa988
    6694:	10000012 	b	66e0 <n31_bgez_test+0x66e0>
    6698:	00000000 	nop
    669c:	00000000 	nop
    66a0:	00000021 	move	zero,zero
    66a4:	00000021 	move	zero,zero
    66a8:	00000021 	move	zero,zero
    66ac:	00000021 	move	zero,zero
    66b0:	00000021 	move	zero,zero
    66b4:	00000021 	move	zero,zero
    66b8:	3c080a7c 	lui	t0,0xa7c
    66bc:	35083d2c 	ori	t0,t0,0x3d2c
    66c0:	0501fff1 	bgez	t0,6688 <n31_bgez_test+0x6688>
    66c4:	00000000 	nop
    66c8:	10000005 	b	66e0 <n31_bgez_test+0x66e0>
    66cc:	00000000 	nop
    66d0:	00000000 	nop
    66d4:	00000021 	move	zero,zero
    66d8:	3c129f53 	lui	s2,0x9f53
    66dc:	36529410 	ori	s2,s2,0x9410
    66e0:	00000000 	nop
    66e4:	3c147798 	lui	s4,0x7798
    66e8:	3694a988 	ori	s4,s4,0xa988
    66ec:	161405a3 	bne	s0,s4,7d7c <inst_error>
    66f0:	00000000 	nop
    66f4:	00000000 	nop
    66f8:	3c159f53 	lui	s5,0x9f53
    66fc:	36b59410 	ori	s5,s5,0x9410
    6700:	1655059e 	bne	s2,s5,7d7c <inst_error>
    6704:	00000000 	nop
    6708:	00000000 	nop
    670c:	3c0c5fd7 	lui	t4,0x5fd7
    6710:	358c5600 	ori	t4,t4,0x5600
    6714:	3c0d9bd0 	lui	t5,0x9bd0
    6718:	35ad7040 	ori	t5,t5,0x7040
    671c:	24100000 	li	s0,0
    6720:	1000000e 	b	675c <n31_bgez_test+0x675c>
    6724:	24120000 	li	s2,0
    6728:	00000000 	nop
    672c:	3c105fd7 	lui	s0,0x5fd7
    6730:	05010012 	bgez	t0,677c <n31_bgez_test+0x677c>
    6734:	36105600 	ori	s0,s0,0x5600
    6738:	10000012 	b	6784 <n31_bgez_test+0x6784>
    673c:	00000000 	nop
    6740:	00000000 	nop
    6744:	00000021 	move	zero,zero
    6748:	00000021 	move	zero,zero
    674c:	00000021 	move	zero,zero
    6750:	00000021 	move	zero,zero
    6754:	00000021 	move	zero,zero
    6758:	00000021 	move	zero,zero
    675c:	3c08596d 	lui	t0,0x596d
    6760:	350818a4 	ori	t0,t0,0x18a4
    6764:	0501fff1 	bgez	t0,672c <n31_bgez_test+0x672c>
    6768:	00000000 	nop
    676c:	10000005 	b	6784 <n31_bgez_test+0x6784>
    6770:	00000000 	nop
    6774:	00000000 	nop
    6778:	00000021 	move	zero,zero
    677c:	3c129bd0 	lui	s2,0x9bd0
    6780:	36527040 	ori	s2,s2,0x7040
    6784:	00000000 	nop
    6788:	3c145fd7 	lui	s4,0x5fd7
    678c:	36945600 	ori	s4,s4,0x5600
    6790:	1614057a 	bne	s0,s4,7d7c <inst_error>
    6794:	00000000 	nop
    6798:	00000000 	nop
    679c:	3c159bd0 	lui	s5,0x9bd0
    67a0:	36b57040 	ori	s5,s5,0x7040
    67a4:	16550575 	bne	s2,s5,7d7c <inst_error>
    67a8:	00000000 	nop
    67ac:	00000000 	nop
    67b0:	3c0cc4f2 	lui	t4,0xc4f2
    67b4:	358c19c4 	ori	t4,t4,0x19c4
    67b8:	3c0d4f44 	lui	t5,0x4f44
    67bc:	35add54a 	ori	t5,t5,0xd54a
    67c0:	24100000 	li	s0,0
    67c4:	1000000e 	b	6800 <n31_bgez_test+0x6800>
    67c8:	24120000 	li	s2,0
    67cc:	00000000 	nop
    67d0:	3c10c4f2 	lui	s0,0xc4f2
    67d4:	05010012 	bgez	t0,6820 <n31_bgez_test+0x6820>
    67d8:	361019c4 	ori	s0,s0,0x19c4
    67dc:	10000012 	b	6828 <n31_bgez_test+0x6828>
    67e0:	00000000 	nop
    67e4:	00000000 	nop
    67e8:	00000021 	move	zero,zero
    67ec:	00000021 	move	zero,zero
    67f0:	00000021 	move	zero,zero
    67f4:	00000021 	move	zero,zero
    67f8:	00000021 	move	zero,zero
    67fc:	00000021 	move	zero,zero
    6800:	3c08416f 	lui	t0,0x416f
    6804:	35083e38 	ori	t0,t0,0x3e38
    6808:	0501fff1 	bgez	t0,67d0 <n31_bgez_test+0x67d0>
    680c:	00000000 	nop
    6810:	10000005 	b	6828 <n31_bgez_test+0x6828>
    6814:	00000000 	nop
    6818:	00000000 	nop
    681c:	00000021 	move	zero,zero
    6820:	3c124f44 	lui	s2,0x4f44
    6824:	3652d54a 	ori	s2,s2,0xd54a
    6828:	00000000 	nop
    682c:	3c14c4f2 	lui	s4,0xc4f2
    6830:	369419c4 	ori	s4,s4,0x19c4
    6834:	16140551 	bne	s0,s4,7d7c <inst_error>
    6838:	00000000 	nop
    683c:	00000000 	nop
    6840:	3c154f44 	lui	s5,0x4f44
    6844:	36b5d54a 	ori	s5,s5,0xd54a
    6848:	1655054c 	bne	s2,s5,7d7c <inst_error>
    684c:	00000000 	nop
    6850:	00000000 	nop
    6854:	3c0c71ff 	lui	t4,0x71ff
    6858:	358c3402 	ori	t4,t4,0x3402
    685c:	3c0d9b57 	lui	t5,0x9b57
    6860:	35ad83a6 	ori	t5,t5,0x83a6
    6864:	24100000 	li	s0,0
    6868:	1000000e 	b	68a4 <n31_bgez_test+0x68a4>
    686c:	24120000 	li	s2,0
    6870:	00000000 	nop
    6874:	3c1071ff 	lui	s0,0x71ff
    6878:	05010012 	bgez	t0,68c4 <n31_bgez_test+0x68c4>
    687c:	36103402 	ori	s0,s0,0x3402
    6880:	10000012 	b	68cc <n31_bgez_test+0x68cc>
    6884:	00000000 	nop
    6888:	00000000 	nop
    688c:	00000021 	move	zero,zero
    6890:	00000021 	move	zero,zero
    6894:	00000021 	move	zero,zero
    6898:	00000021 	move	zero,zero
    689c:	00000021 	move	zero,zero
    68a0:	00000021 	move	zero,zero
    68a4:	3c085209 	lui	t0,0x5209
    68a8:	35083896 	ori	t0,t0,0x3896
    68ac:	0501fff1 	bgez	t0,6874 <n31_bgez_test+0x6874>
    68b0:	00000000 	nop
    68b4:	10000005 	b	68cc <n31_bgez_test+0x68cc>
    68b8:	00000000 	nop
    68bc:	00000000 	nop
    68c0:	00000021 	move	zero,zero
    68c4:	3c129b57 	lui	s2,0x9b57
    68c8:	365283a6 	ori	s2,s2,0x83a6
    68cc:	00000000 	nop
    68d0:	3c1471ff 	lui	s4,0x71ff
    68d4:	36943402 	ori	s4,s4,0x3402
    68d8:	16140528 	bne	s0,s4,7d7c <inst_error>
    68dc:	00000000 	nop
    68e0:	00000000 	nop
    68e4:	3c159b57 	lui	s5,0x9b57
    68e8:	36b583a6 	ori	s5,s5,0x83a6
    68ec:	16550523 	bne	s2,s5,7d7c <inst_error>
    68f0:	00000000 	nop
    68f4:	00000000 	nop
    68f8:	3c0c4f2b 	lui	t4,0x4f2b
    68fc:	358c1ff8 	ori	t4,t4,0x1ff8
    6900:	3c0d3606 	lui	t5,0x3606
    6904:	35ad8648 	ori	t5,t5,0x8648
    6908:	24100000 	li	s0,0
    690c:	1000000e 	b	6948 <n31_bgez_test+0x6948>
    6910:	24120000 	li	s2,0
    6914:	00000000 	nop
    6918:	3c104f2b 	lui	s0,0x4f2b
    691c:	05010012 	bgez	t0,6968 <n31_bgez_test+0x6968>
    6920:	36101ff8 	ori	s0,s0,0x1ff8
    6924:	10000012 	b	6970 <n31_bgez_test+0x6970>
    6928:	00000000 	nop
    692c:	00000000 	nop
    6930:	00000021 	move	zero,zero
    6934:	00000021 	move	zero,zero
    6938:	00000021 	move	zero,zero
    693c:	00000021 	move	zero,zero
    6940:	00000021 	move	zero,zero
    6944:	00000021 	move	zero,zero
    6948:	3c08ba2d 	lui	t0,0xba2d
    694c:	35084a08 	ori	t0,t0,0x4a08
    6950:	0501fff1 	bgez	t0,6918 <n31_bgez_test+0x6918>
    6954:	00000000 	nop
    6958:	10000005 	b	6970 <n31_bgez_test+0x6970>
    695c:	00000000 	nop
    6960:	00000000 	nop
    6964:	00000021 	move	zero,zero
    6968:	3c123606 	lui	s2,0x3606
    696c:	36528648 	ori	s2,s2,0x8648
    6970:	00000000 	nop
    6974:	24140000 	li	s4,0
    6978:	16140500 	bne	s0,s4,7d7c <inst_error>
    697c:	00000000 	nop
    6980:	00000000 	nop
    6984:	24150000 	li	s5,0
    6988:	165504fc 	bne	s2,s5,7d7c <inst_error>
    698c:	00000000 	nop
    6990:	00000000 	nop
    6994:	3c0c49b2 	lui	t4,0x49b2
    6998:	358ce160 	ori	t4,t4,0xe160
    699c:	3c0d0576 	lui	t5,0x576
    69a0:	35adeba0 	ori	t5,t5,0xeba0
    69a4:	24100000 	li	s0,0
    69a8:	1000000e 	b	69e4 <n31_bgez_test+0x69e4>
    69ac:	24120000 	li	s2,0
    69b0:	00000000 	nop
    69b4:	3c1049b2 	lui	s0,0x49b2
    69b8:	05010012 	bgez	t0,6a04 <n31_bgez_test+0x6a04>
    69bc:	3610e160 	ori	s0,s0,0xe160
    69c0:	10000012 	b	6a0c <n31_bgez_test+0x6a0c>
    69c4:	00000000 	nop
    69c8:	00000000 	nop
    69cc:	00000021 	move	zero,zero
    69d0:	00000021 	move	zero,zero
    69d4:	00000021 	move	zero,zero
    69d8:	00000021 	move	zero,zero
    69dc:	00000021 	move	zero,zero
    69e0:	00000021 	move	zero,zero
    69e4:	3c08e025 	lui	t0,0xe025
    69e8:	3508f06e 	ori	t0,t0,0xf06e
    69ec:	0501fff1 	bgez	t0,69b4 <n31_bgez_test+0x69b4>
    69f0:	00000000 	nop
    69f4:	10000005 	b	6a0c <n31_bgez_test+0x6a0c>
    69f8:	00000000 	nop
    69fc:	00000000 	nop
    6a00:	00000021 	move	zero,zero
    6a04:	3c120576 	lui	s2,0x576
    6a08:	3652eba0 	ori	s2,s2,0xeba0
    6a0c:	00000000 	nop
    6a10:	24140000 	li	s4,0
    6a14:	161404d9 	bne	s0,s4,7d7c <inst_error>
    6a18:	00000000 	nop
    6a1c:	00000000 	nop
    6a20:	24150000 	li	s5,0
    6a24:	165504d5 	bne	s2,s5,7d7c <inst_error>
    6a28:	00000000 	nop
    6a2c:	00000000 	nop
    6a30:	3c0c135f 	lui	t4,0x135f
    6a34:	358cd774 	ori	t4,t4,0xd774
    6a38:	3c0d4003 	lui	t5,0x4003
    6a3c:	35ada3c0 	ori	t5,t5,0xa3c0
    6a40:	24100000 	li	s0,0
    6a44:	1000000e 	b	6a80 <n31_bgez_test+0x6a80>
    6a48:	24120000 	li	s2,0
    6a4c:	00000000 	nop
    6a50:	3c10135f 	lui	s0,0x135f
    6a54:	05010012 	bgez	t0,6aa0 <n31_bgez_test+0x6aa0>
    6a58:	3610d774 	ori	s0,s0,0xd774
    6a5c:	10000012 	b	6aa8 <n31_bgez_test+0x6aa8>
    6a60:	00000000 	nop
    6a64:	00000000 	nop
    6a68:	00000021 	move	zero,zero
    6a6c:	00000021 	move	zero,zero
    6a70:	00000021 	move	zero,zero
    6a74:	00000021 	move	zero,zero
    6a78:	00000021 	move	zero,zero
    6a7c:	00000021 	move	zero,zero
    6a80:	3c08c68a 	lui	t0,0xc68a
    6a84:	3508a800 	ori	t0,t0,0xa800
    6a88:	0501fff1 	bgez	t0,6a50 <n31_bgez_test+0x6a50>
    6a8c:	00000000 	nop
    6a90:	10000005 	b	6aa8 <n31_bgez_test+0x6aa8>
    6a94:	00000000 	nop
    6a98:	00000000 	nop
    6a9c:	00000021 	move	zero,zero
    6aa0:	3c124003 	lui	s2,0x4003
    6aa4:	3652a3c0 	ori	s2,s2,0xa3c0
    6aa8:	00000000 	nop
    6aac:	24140000 	li	s4,0
    6ab0:	161404b2 	bne	s0,s4,7d7c <inst_error>
    6ab4:	00000000 	nop
    6ab8:	00000000 	nop
    6abc:	24150000 	li	s5,0
    6ac0:	165504ae 	bne	s2,s5,7d7c <inst_error>
    6ac4:	00000000 	nop
    6ac8:	00000000 	nop
    6acc:	3c0c2d6b 	lui	t4,0x2d6b
    6ad0:	358c3398 	ori	t4,t4,0x3398
    6ad4:	3c0d8e9a 	lui	t5,0x8e9a
    6ad8:	35adbe00 	ori	t5,t5,0xbe00
    6adc:	24100000 	li	s0,0
    6ae0:	1000000e 	b	6b1c <n31_bgez_test+0x6b1c>
    6ae4:	24120000 	li	s2,0
    6ae8:	00000000 	nop
    6aec:	3c102d6b 	lui	s0,0x2d6b
    6af0:	05010012 	bgez	t0,6b3c <n31_bgez_test+0x6b3c>
    6af4:	36103398 	ori	s0,s0,0x3398
    6af8:	10000012 	b	6b44 <n31_bgez_test+0x6b44>
    6afc:	00000000 	nop
    6b00:	00000000 	nop
    6b04:	00000021 	move	zero,zero
    6b08:	00000021 	move	zero,zero
    6b0c:	00000021 	move	zero,zero
    6b10:	00000021 	move	zero,zero
    6b14:	00000021 	move	zero,zero
    6b18:	00000021 	move	zero,zero
    6b1c:	3c08a8b8 	lui	t0,0xa8b8
    6b20:	350825e4 	ori	t0,t0,0x25e4
    6b24:	0501fff1 	bgez	t0,6aec <n31_bgez_test+0x6aec>
    6b28:	00000000 	nop
    6b2c:	10000005 	b	6b44 <n31_bgez_test+0x6b44>
    6b30:	00000000 	nop
    6b34:	00000000 	nop
    6b38:	00000021 	move	zero,zero
    6b3c:	3c128e9a 	lui	s2,0x8e9a
    6b40:	3652be00 	ori	s2,s2,0xbe00
    6b44:	00000000 	nop
    6b48:	24140000 	li	s4,0
    6b4c:	1614048b 	bne	s0,s4,7d7c <inst_error>
    6b50:	00000000 	nop
    6b54:	00000000 	nop
    6b58:	24150000 	li	s5,0
    6b5c:	16550487 	bne	s2,s5,7d7c <inst_error>
    6b60:	00000000 	nop
    6b64:	00000000 	nop
    6b68:	3c0cc27c 	lui	t4,0xc27c
    6b6c:	358c028e 	ori	t4,t4,0x28e
    6b70:	3c0d7973 	lui	t5,0x7973
    6b74:	35adcb00 	ori	t5,t5,0xcb00
    6b78:	24100000 	li	s0,0
    6b7c:	1000000e 	b	6bb8 <n31_bgez_test+0x6bb8>
    6b80:	24120000 	li	s2,0
    6b84:	00000000 	nop
    6b88:	3c10c27c 	lui	s0,0xc27c
    6b8c:	05010012 	bgez	t0,6bd8 <n31_bgez_test+0x6bd8>
    6b90:	3610028e 	ori	s0,s0,0x28e
    6b94:	10000012 	b	6be0 <n31_bgez_test+0x6be0>
    6b98:	00000000 	nop
    6b9c:	00000000 	nop
    6ba0:	00000021 	move	zero,zero
    6ba4:	00000021 	move	zero,zero
    6ba8:	00000021 	move	zero,zero
    6bac:	00000021 	move	zero,zero
    6bb0:	00000021 	move	zero,zero
    6bb4:	00000021 	move	zero,zero
    6bb8:	3c08e31b 	lui	t0,0xe31b
    6bbc:	3508e250 	ori	t0,t0,0xe250
    6bc0:	0501fff1 	bgez	t0,6b88 <n31_bgez_test+0x6b88>
    6bc4:	00000000 	nop
    6bc8:	10000005 	b	6be0 <n31_bgez_test+0x6be0>
    6bcc:	00000000 	nop
    6bd0:	00000000 	nop
    6bd4:	00000021 	move	zero,zero
    6bd8:	3c127973 	lui	s2,0x7973
    6bdc:	3652cb00 	ori	s2,s2,0xcb00
    6be0:	00000000 	nop
    6be4:	24140000 	li	s4,0
    6be8:	16140464 	bne	s0,s4,7d7c <inst_error>
    6bec:	00000000 	nop
    6bf0:	00000000 	nop
    6bf4:	24150000 	li	s5,0
    6bf8:	16550460 	bne	s2,s5,7d7c <inst_error>
    6bfc:	00000000 	nop
    6c00:	00000000 	nop
    6c04:	3c0cc961 	lui	t4,0xc961
    6c08:	358c71c0 	ori	t4,t4,0x71c0
    6c0c:	3c0d497c 	lui	t5,0x497c
    6c10:	35ad7380 	ori	t5,t5,0x7380
    6c14:	24100000 	li	s0,0
    6c18:	1000000e 	b	6c54 <n31_bgez_test+0x6c54>
    6c1c:	24120000 	li	s2,0
    6c20:	00000000 	nop
    6c24:	3c10c961 	lui	s0,0xc961
    6c28:	05010012 	bgez	t0,6c74 <n31_bgez_test+0x6c74>
    6c2c:	361071c0 	ori	s0,s0,0x71c0
    6c30:	10000012 	b	6c7c <n31_bgez_test+0x6c7c>
    6c34:	00000000 	nop
    6c38:	00000000 	nop
    6c3c:	00000021 	move	zero,zero
    6c40:	00000021 	move	zero,zero
    6c44:	00000021 	move	zero,zero
    6c48:	00000021 	move	zero,zero
    6c4c:	00000021 	move	zero,zero
    6c50:	00000021 	move	zero,zero
    6c54:	3c0872c9 	lui	t0,0x72c9
    6c58:	3508ad73 	ori	t0,t0,0xad73
    6c5c:	0501fff1 	bgez	t0,6c24 <n31_bgez_test+0x6c24>
    6c60:	00000000 	nop
    6c64:	10000005 	b	6c7c <n31_bgez_test+0x6c7c>
    6c68:	00000000 	nop
    6c6c:	00000000 	nop
    6c70:	00000021 	move	zero,zero
    6c74:	3c12497c 	lui	s2,0x497c
    6c78:	36527380 	ori	s2,s2,0x7380
    6c7c:	00000000 	nop
    6c80:	3c14c961 	lui	s4,0xc961
    6c84:	369471c0 	ori	s4,s4,0x71c0
    6c88:	1614043c 	bne	s0,s4,7d7c <inst_error>
    6c8c:	00000000 	nop
    6c90:	00000000 	nop
    6c94:	3c15497c 	lui	s5,0x497c
    6c98:	36b57380 	ori	s5,s5,0x7380
    6c9c:	16550437 	bne	s2,s5,7d7c <inst_error>
    6ca0:	00000000 	nop
    6ca4:	00000000 	nop
    6ca8:	3c0c27d4 	lui	t4,0x27d4
    6cac:	358caa2e 	ori	t4,t4,0xaa2e
    6cb0:	3c0dd221 	lui	t5,0xd221
    6cb4:	35ade630 	ori	t5,t5,0xe630
    6cb8:	24100000 	li	s0,0
    6cbc:	1000000e 	b	6cf8 <n31_bgez_test+0x6cf8>
    6cc0:	24120000 	li	s2,0
    6cc4:	00000000 	nop
    6cc8:	3c1027d4 	lui	s0,0x27d4
    6ccc:	05010012 	bgez	t0,6d18 <n31_bgez_test+0x6d18>
    6cd0:	3610aa2e 	ori	s0,s0,0xaa2e
    6cd4:	10000012 	b	6d20 <n31_bgez_test+0x6d20>
    6cd8:	00000000 	nop
    6cdc:	00000000 	nop
    6ce0:	00000021 	move	zero,zero
    6ce4:	00000021 	move	zero,zero
    6ce8:	00000021 	move	zero,zero
    6cec:	00000021 	move	zero,zero
    6cf0:	00000021 	move	zero,zero
    6cf4:	00000021 	move	zero,zero
    6cf8:	3c08a26e 	lui	t0,0xa26e
    6cfc:	3508f663 	ori	t0,t0,0xf663
    6d00:	0501fff1 	bgez	t0,6cc8 <n31_bgez_test+0x6cc8>
    6d04:	00000000 	nop
    6d08:	10000005 	b	6d20 <n31_bgez_test+0x6d20>
    6d0c:	00000000 	nop
    6d10:	00000000 	nop
    6d14:	00000021 	move	zero,zero
    6d18:	3c12d221 	lui	s2,0xd221
    6d1c:	3652e630 	ori	s2,s2,0xe630
    6d20:	00000000 	nop
    6d24:	24140000 	li	s4,0
    6d28:	16140414 	bne	s0,s4,7d7c <inst_error>
    6d2c:	00000000 	nop
    6d30:	00000000 	nop
    6d34:	24150000 	li	s5,0
    6d38:	16550410 	bne	s2,s5,7d7c <inst_error>
    6d3c:	00000000 	nop
    6d40:	00000000 	nop
    6d44:	3c0ca3cf 	lui	t4,0xa3cf
    6d48:	358cacc0 	ori	t4,t4,0xacc0
    6d4c:	3c0d75ce 	lui	t5,0x75ce
    6d50:	35ad5e41 	ori	t5,t5,0x5e41
    6d54:	24100000 	li	s0,0
    6d58:	1000000e 	b	6d94 <n31_bgez_test+0x6d94>
    6d5c:	24120000 	li	s2,0
    6d60:	00000000 	nop
    6d64:	3c10a3cf 	lui	s0,0xa3cf
    6d68:	05010012 	bgez	t0,6db4 <n31_bgez_test+0x6db4>
    6d6c:	3610acc0 	ori	s0,s0,0xacc0
    6d70:	10000012 	b	6dbc <n31_bgez_test+0x6dbc>
    6d74:	00000000 	nop
    6d78:	00000000 	nop
    6d7c:	00000021 	move	zero,zero
    6d80:	00000021 	move	zero,zero
    6d84:	00000021 	move	zero,zero
    6d88:	00000021 	move	zero,zero
    6d8c:	00000021 	move	zero,zero
    6d90:	00000021 	move	zero,zero
    6d94:	3c08d8b6 	lui	t0,0xd8b6
    6d98:	35087f38 	ori	t0,t0,0x7f38
    6d9c:	0501fff1 	bgez	t0,6d64 <n31_bgez_test+0x6d64>
    6da0:	00000000 	nop
    6da4:	10000005 	b	6dbc <n31_bgez_test+0x6dbc>
    6da8:	00000000 	nop
    6dac:	00000000 	nop
    6db0:	00000021 	move	zero,zero
    6db4:	3c1275ce 	lui	s2,0x75ce
    6db8:	36525e41 	ori	s2,s2,0x5e41
    6dbc:	00000000 	nop
    6dc0:	24140000 	li	s4,0
    6dc4:	161403ed 	bne	s0,s4,7d7c <inst_error>
    6dc8:	00000000 	nop
    6dcc:	00000000 	nop
    6dd0:	24150000 	li	s5,0
    6dd4:	165503e9 	bne	s2,s5,7d7c <inst_error>
    6dd8:	00000000 	nop
    6ddc:	00000000 	nop
    6de0:	3c0c62a4 	lui	t4,0x62a4
    6de4:	358cd9d7 	ori	t4,t4,0xd9d7
    6de8:	3c0d99c7 	lui	t5,0x99c7
    6dec:	35ad51d9 	ori	t5,t5,0x51d9
    6df0:	24100000 	li	s0,0
    6df4:	1000000e 	b	6e30 <n31_bgez_test+0x6e30>
    6df8:	24120000 	li	s2,0
    6dfc:	00000000 	nop
    6e00:	3c1062a4 	lui	s0,0x62a4
    6e04:	05010012 	bgez	t0,6e50 <n31_bgez_test+0x6e50>
    6e08:	3610d9d7 	ori	s0,s0,0xd9d7
    6e0c:	10000012 	b	6e58 <n31_bgez_test+0x6e58>
    6e10:	00000000 	nop
    6e14:	00000000 	nop
    6e18:	00000021 	move	zero,zero
    6e1c:	00000021 	move	zero,zero
    6e20:	00000021 	move	zero,zero
    6e24:	00000021 	move	zero,zero
    6e28:	00000021 	move	zero,zero
    6e2c:	00000021 	move	zero,zero
    6e30:	3c080286 	lui	t0,0x286
    6e34:	35089c68 	ori	t0,t0,0x9c68
    6e38:	0501fff1 	bgez	t0,6e00 <n31_bgez_test+0x6e00>
    6e3c:	00000000 	nop
    6e40:	10000005 	b	6e58 <n31_bgez_test+0x6e58>
    6e44:	00000000 	nop
    6e48:	00000000 	nop
    6e4c:	00000021 	move	zero,zero
    6e50:	3c1299c7 	lui	s2,0x99c7
    6e54:	365251d9 	ori	s2,s2,0x51d9
    6e58:	00000000 	nop
    6e5c:	3c1462a4 	lui	s4,0x62a4
    6e60:	3694d9d7 	ori	s4,s4,0xd9d7
    6e64:	161403c5 	bne	s0,s4,7d7c <inst_error>
    6e68:	00000000 	nop
    6e6c:	00000000 	nop
    6e70:	3c1599c7 	lui	s5,0x99c7
    6e74:	36b551d9 	ori	s5,s5,0x51d9
    6e78:	165503c0 	bne	s2,s5,7d7c <inst_error>
    6e7c:	00000000 	nop
    6e80:	00000000 	nop
    6e84:	3c0c854e 	lui	t4,0x854e
    6e88:	358cabc9 	ori	t4,t4,0xabc9
    6e8c:	3c0db28d 	lui	t5,0xb28d
    6e90:	35ad0504 	ori	t5,t5,0x504
    6e94:	24100000 	li	s0,0
    6e98:	1000000e 	b	6ed4 <n31_bgez_test+0x6ed4>
    6e9c:	24120000 	li	s2,0
    6ea0:	00000000 	nop
    6ea4:	3c10854e 	lui	s0,0x854e
    6ea8:	05010012 	bgez	t0,6ef4 <n31_bgez_test+0x6ef4>
    6eac:	3610abc9 	ori	s0,s0,0xabc9
    6eb0:	10000012 	b	6efc <n31_bgez_test+0x6efc>
    6eb4:	00000000 	nop
    6eb8:	00000000 	nop
    6ebc:	00000021 	move	zero,zero
    6ec0:	00000021 	move	zero,zero
    6ec4:	00000021 	move	zero,zero
    6ec8:	00000021 	move	zero,zero
    6ecc:	00000021 	move	zero,zero
    6ed0:	00000021 	move	zero,zero
    6ed4:	3c087e28 	lui	t0,0x7e28
    6ed8:	3508bb58 	ori	t0,t0,0xbb58
    6edc:	0501fff1 	bgez	t0,6ea4 <n31_bgez_test+0x6ea4>
    6ee0:	00000000 	nop
    6ee4:	10000005 	b	6efc <n31_bgez_test+0x6efc>
    6ee8:	00000000 	nop
    6eec:	00000000 	nop
    6ef0:	00000021 	move	zero,zero
    6ef4:	3c12b28d 	lui	s2,0xb28d
    6ef8:	36520504 	ori	s2,s2,0x504
    6efc:	00000000 	nop
    6f00:	3c14854e 	lui	s4,0x854e
    6f04:	3694abc9 	ori	s4,s4,0xabc9
    6f08:	1614039c 	bne	s0,s4,7d7c <inst_error>
    6f0c:	00000000 	nop
    6f10:	00000000 	nop
    6f14:	3c15b28d 	lui	s5,0xb28d
    6f18:	36b50504 	ori	s5,s5,0x504
    6f1c:	16550397 	bne	s2,s5,7d7c <inst_error>
    6f20:	00000000 	nop
    6f24:	00000000 	nop
    6f28:	3c0cc7cc 	lui	t4,0xc7cc
    6f2c:	358c29c0 	ori	t4,t4,0x29c0
    6f30:	3c0dced6 	lui	t5,0xced6
    6f34:	35ad202f 	ori	t5,t5,0x202f
    6f38:	24100000 	li	s0,0
    6f3c:	1000000e 	b	6f78 <n31_bgez_test+0x6f78>
    6f40:	24120000 	li	s2,0
    6f44:	00000000 	nop
    6f48:	3c10c7cc 	lui	s0,0xc7cc
    6f4c:	05010012 	bgez	t0,6f98 <n31_bgez_test+0x6f98>
    6f50:	361029c0 	ori	s0,s0,0x29c0
    6f54:	10000012 	b	6fa0 <n31_bgez_test+0x6fa0>
    6f58:	00000000 	nop
    6f5c:	00000000 	nop
    6f60:	00000021 	move	zero,zero
    6f64:	00000021 	move	zero,zero
    6f68:	00000021 	move	zero,zero
    6f6c:	00000021 	move	zero,zero
    6f70:	00000021 	move	zero,zero
    6f74:	00000021 	move	zero,zero
    6f78:	3c08d7ee 	lui	t0,0xd7ee
    6f7c:	35087e05 	ori	t0,t0,0x7e05
    6f80:	0501fff1 	bgez	t0,6f48 <n31_bgez_test+0x6f48>
    6f84:	00000000 	nop
    6f88:	10000005 	b	6fa0 <n31_bgez_test+0x6fa0>
    6f8c:	00000000 	nop
    6f90:	00000000 	nop
    6f94:	00000021 	move	zero,zero
    6f98:	3c12ced6 	lui	s2,0xced6
    6f9c:	3652202f 	ori	s2,s2,0x202f
    6fa0:	00000000 	nop
    6fa4:	24140000 	li	s4,0
    6fa8:	16140374 	bne	s0,s4,7d7c <inst_error>
    6fac:	00000000 	nop
    6fb0:	00000000 	nop
    6fb4:	24150000 	li	s5,0
    6fb8:	16550370 	bne	s2,s5,7d7c <inst_error>
    6fbc:	00000000 	nop
    6fc0:	00000000 	nop
    6fc4:	3c0c0bd4 	lui	t4,0xbd4
    6fc8:	358c6608 	ori	t4,t4,0x6608
    6fcc:	3c0d8944 	lui	t5,0x8944
    6fd0:	35ad5180 	ori	t5,t5,0x5180
    6fd4:	24100000 	li	s0,0
    6fd8:	1000000e 	b	7014 <n31_bgez_test+0x7014>
    6fdc:	24120000 	li	s2,0
    6fe0:	00000000 	nop
    6fe4:	3c100bd4 	lui	s0,0xbd4
    6fe8:	05010012 	bgez	t0,7034 <n31_bgez_test+0x7034>
    6fec:	36106608 	ori	s0,s0,0x6608
    6ff0:	10000012 	b	703c <n31_bgez_test+0x703c>
    6ff4:	00000000 	nop
    6ff8:	00000000 	nop
    6ffc:	00000021 	move	zero,zero
    7000:	00000021 	move	zero,zero
    7004:	00000021 	move	zero,zero
    7008:	00000021 	move	zero,zero
    700c:	00000021 	move	zero,zero
    7010:	00000021 	move	zero,zero
    7014:	3c0856cb 	lui	t0,0x56cb
    7018:	350827f0 	ori	t0,t0,0x27f0
    701c:	0501fff1 	bgez	t0,6fe4 <n31_bgez_test+0x6fe4>
    7020:	00000000 	nop
    7024:	10000005 	b	703c <n31_bgez_test+0x703c>
    7028:	00000000 	nop
    702c:	00000000 	nop
    7030:	00000021 	move	zero,zero
    7034:	3c128944 	lui	s2,0x8944
    7038:	36525180 	ori	s2,s2,0x5180
    703c:	00000000 	nop
    7040:	3c140bd4 	lui	s4,0xbd4
    7044:	36946608 	ori	s4,s4,0x6608
    7048:	1614034c 	bne	s0,s4,7d7c <inst_error>
    704c:	00000000 	nop
    7050:	00000000 	nop
    7054:	3c158944 	lui	s5,0x8944
    7058:	36b55180 	ori	s5,s5,0x5180
    705c:	16550347 	bne	s2,s5,7d7c <inst_error>
    7060:	00000000 	nop
    7064:	00000000 	nop
    7068:	3c0c0522 	lui	t4,0x522
    706c:	358c4b76 	ori	t4,t4,0x4b76
    7070:	3c0de048 	lui	t5,0xe048
    7074:	35ad6aba 	ori	t5,t5,0x6aba
    7078:	24100000 	li	s0,0
    707c:	1000000e 	b	70b8 <n31_bgez_test+0x70b8>
    7080:	24120000 	li	s2,0
    7084:	00000000 	nop
    7088:	3c100522 	lui	s0,0x522
    708c:	05010012 	bgez	t0,70d8 <n31_bgez_test+0x70d8>
    7090:	36104b76 	ori	s0,s0,0x4b76
    7094:	10000012 	b	70e0 <n31_bgez_test+0x70e0>
    7098:	00000000 	nop
    709c:	00000000 	nop
    70a0:	00000021 	move	zero,zero
    70a4:	00000021 	move	zero,zero
    70a8:	00000021 	move	zero,zero
    70ac:	00000021 	move	zero,zero
    70b0:	00000021 	move	zero,zero
    70b4:	00000021 	move	zero,zero
    70b8:	3c08292f 	lui	t0,0x292f
    70bc:	3508a940 	ori	t0,t0,0xa940
    70c0:	0501fff1 	bgez	t0,7088 <n31_bgez_test+0x7088>
    70c4:	00000000 	nop
    70c8:	10000005 	b	70e0 <n31_bgez_test+0x70e0>
    70cc:	00000000 	nop
    70d0:	00000000 	nop
    70d4:	00000021 	move	zero,zero
    70d8:	3c12e048 	lui	s2,0xe048
    70dc:	36526aba 	ori	s2,s2,0x6aba
    70e0:	00000000 	nop
    70e4:	3c140522 	lui	s4,0x522
    70e8:	36944b76 	ori	s4,s4,0x4b76
    70ec:	16140323 	bne	s0,s4,7d7c <inst_error>
    70f0:	00000000 	nop
    70f4:	00000000 	nop
    70f8:	3c15e048 	lui	s5,0xe048
    70fc:	36b56aba 	ori	s5,s5,0x6aba
    7100:	1655031e 	bne	s2,s5,7d7c <inst_error>
    7104:	00000000 	nop
    7108:	00000000 	nop
    710c:	3c0c8287 	lui	t4,0x8287
    7110:	358c2a29 	ori	t4,t4,0x2a29
    7114:	3c0ddf60 	lui	t5,0xdf60
    7118:	35adc05c 	ori	t5,t5,0xc05c
    711c:	24100000 	li	s0,0
    7120:	1000000e 	b	715c <n31_bgez_test+0x715c>
    7124:	24120000 	li	s2,0
    7128:	00000000 	nop
    712c:	3c108287 	lui	s0,0x8287
    7130:	05010012 	bgez	t0,717c <n31_bgez_test+0x717c>
    7134:	36102a29 	ori	s0,s0,0x2a29
    7138:	10000012 	b	7184 <n31_bgez_test+0x7184>
    713c:	00000000 	nop
    7140:	00000000 	nop
    7144:	00000021 	move	zero,zero
    7148:	00000021 	move	zero,zero
    714c:	00000021 	move	zero,zero
    7150:	00000021 	move	zero,zero
    7154:	00000021 	move	zero,zero
    7158:	00000021 	move	zero,zero
    715c:	3c08e7d7 	lui	t0,0xe7d7
    7160:	3508d44c 	ori	t0,t0,0xd44c
    7164:	0501fff1 	bgez	t0,712c <n31_bgez_test+0x712c>
    7168:	00000000 	nop
    716c:	10000005 	b	7184 <n31_bgez_test+0x7184>
    7170:	00000000 	nop
    7174:	00000000 	nop
    7178:	00000021 	move	zero,zero
    717c:	3c12df60 	lui	s2,0xdf60
    7180:	3652c05c 	ori	s2,s2,0xc05c
    7184:	00000000 	nop
    7188:	24140000 	li	s4,0
    718c:	161402fb 	bne	s0,s4,7d7c <inst_error>
    7190:	00000000 	nop
    7194:	00000000 	nop
    7198:	24150000 	li	s5,0
    719c:	165502f7 	bne	s2,s5,7d7c <inst_error>
    71a0:	00000000 	nop
    71a4:	00000000 	nop
    71a8:	3c0c21ef 	lui	t4,0x21ef
    71ac:	358c1500 	ori	t4,t4,0x1500
    71b0:	3c0d9b58 	lui	t5,0x9b58
    71b4:	35ad0e36 	ori	t5,t5,0xe36
    71b8:	24100000 	li	s0,0
    71bc:	1000000e 	b	71f8 <n31_bgez_test+0x71f8>
    71c0:	24120000 	li	s2,0
    71c4:	00000000 	nop
    71c8:	3c1021ef 	lui	s0,0x21ef
    71cc:	05010012 	bgez	t0,7218 <n31_bgez_test+0x7218>
    71d0:	36101500 	ori	s0,s0,0x1500
    71d4:	10000012 	b	7220 <n31_bgez_test+0x7220>
    71d8:	00000000 	nop
    71dc:	00000000 	nop
    71e0:	00000021 	move	zero,zero
    71e4:	00000021 	move	zero,zero
    71e8:	00000021 	move	zero,zero
    71ec:	00000021 	move	zero,zero
    71f0:	00000021 	move	zero,zero
    71f4:	00000021 	move	zero,zero
    71f8:	3c08c8c1 	lui	t0,0xc8c1
    71fc:	35082c8b 	ori	t0,t0,0x2c8b
    7200:	0501fff1 	bgez	t0,71c8 <n31_bgez_test+0x71c8>
    7204:	00000000 	nop
    7208:	10000005 	b	7220 <n31_bgez_test+0x7220>
    720c:	00000000 	nop
    7210:	00000000 	nop
    7214:	00000021 	move	zero,zero
    7218:	3c129b58 	lui	s2,0x9b58
    721c:	36520e36 	ori	s2,s2,0xe36
    7220:	00000000 	nop
    7224:	24140000 	li	s4,0
    7228:	161402d4 	bne	s0,s4,7d7c <inst_error>
    722c:	00000000 	nop
    7230:	00000000 	nop
    7234:	24150000 	li	s5,0
    7238:	165502d0 	bne	s2,s5,7d7c <inst_error>
    723c:	00000000 	nop
    7240:	00000000 	nop
    7244:	3c0c2b14 	lui	t4,0x2b14
    7248:	358cef47 	ori	t4,t4,0xef47
    724c:	3c0d8472 	lui	t5,0x8472
    7250:	35ad8a02 	ori	t5,t5,0x8a02
    7254:	24100000 	li	s0,0
    7258:	1000000e 	b	7294 <n31_bgez_test+0x7294>
    725c:	24120000 	li	s2,0
    7260:	00000000 	nop
    7264:	3c102b14 	lui	s0,0x2b14
    7268:	05010012 	bgez	t0,72b4 <n31_bgez_test+0x72b4>
    726c:	3610ef47 	ori	s0,s0,0xef47
    7270:	10000012 	b	72bc <n31_bgez_test+0x72bc>
    7274:	00000000 	nop
    7278:	00000000 	nop
    727c:	00000021 	move	zero,zero
    7280:	00000021 	move	zero,zero
    7284:	00000021 	move	zero,zero
    7288:	00000021 	move	zero,zero
    728c:	00000021 	move	zero,zero
    7290:	00000021 	move	zero,zero
    7294:	3c08e4cd 	lui	t0,0xe4cd
    7298:	35087cd0 	ori	t0,t0,0x7cd0
    729c:	0501fff1 	bgez	t0,7264 <n31_bgez_test+0x7264>
    72a0:	00000000 	nop
    72a4:	10000005 	b	72bc <n31_bgez_test+0x72bc>
    72a8:	00000000 	nop
    72ac:	00000000 	nop
    72b0:	00000021 	move	zero,zero
    72b4:	3c128472 	lui	s2,0x8472
    72b8:	36528a02 	ori	s2,s2,0x8a02
    72bc:	00000000 	nop
    72c0:	24140000 	li	s4,0
    72c4:	161402ad 	bne	s0,s4,7d7c <inst_error>
    72c8:	00000000 	nop
    72cc:	00000000 	nop
    72d0:	24150000 	li	s5,0
    72d4:	165502a9 	bne	s2,s5,7d7c <inst_error>
    72d8:	00000000 	nop
    72dc:	00000000 	nop
    72e0:	3c0c8f36 	lui	t4,0x8f36
    72e4:	358cd4fc 	ori	t4,t4,0xd4fc
    72e8:	3c0d2547 	lui	t5,0x2547
    72ec:	35ada412 	ori	t5,t5,0xa412
    72f0:	24100000 	li	s0,0
    72f4:	1000000e 	b	7330 <n31_bgez_test+0x7330>
    72f8:	24120000 	li	s2,0
    72fc:	00000000 	nop
    7300:	3c108f36 	lui	s0,0x8f36
    7304:	05010012 	bgez	t0,7350 <n31_bgez_test+0x7350>
    7308:	3610d4fc 	ori	s0,s0,0xd4fc
    730c:	10000012 	b	7358 <n31_bgez_test+0x7358>
    7310:	00000000 	nop
    7314:	00000000 	nop
    7318:	00000021 	move	zero,zero
    731c:	00000021 	move	zero,zero
    7320:	00000021 	move	zero,zero
    7324:	00000021 	move	zero,zero
    7328:	00000021 	move	zero,zero
    732c:	00000021 	move	zero,zero
    7330:	3c08c985 	lui	t0,0xc985
    7334:	35082ea8 	ori	t0,t0,0x2ea8
    7338:	0501fff1 	bgez	t0,7300 <n31_bgez_test+0x7300>
    733c:	00000000 	nop
    7340:	10000005 	b	7358 <n31_bgez_test+0x7358>
    7344:	00000000 	nop
    7348:	00000000 	nop
    734c:	00000021 	move	zero,zero
    7350:	3c122547 	lui	s2,0x2547
    7354:	3652a412 	ori	s2,s2,0xa412
    7358:	00000000 	nop
    735c:	24140000 	li	s4,0
    7360:	16140286 	bne	s0,s4,7d7c <inst_error>
    7364:	00000000 	nop
    7368:	00000000 	nop
    736c:	24150000 	li	s5,0
    7370:	16550282 	bne	s2,s5,7d7c <inst_error>
    7374:	00000000 	nop
    7378:	00000000 	nop
    737c:	3c0ce8ad 	lui	t4,0xe8ad
    7380:	358c5bf8 	ori	t4,t4,0x5bf8
    7384:	3c0dff10 	lui	t5,0xff10
    7388:	35ad8780 	ori	t5,t5,0x8780
    738c:	24100000 	li	s0,0
    7390:	1000000e 	b	73cc <n31_bgez_test+0x73cc>
    7394:	24120000 	li	s2,0
    7398:	00000000 	nop
    739c:	3c10e8ad 	lui	s0,0xe8ad
    73a0:	05010012 	bgez	t0,73ec <n31_bgez_test+0x73ec>
    73a4:	36105bf8 	ori	s0,s0,0x5bf8
    73a8:	10000012 	b	73f4 <n31_bgez_test+0x73f4>
    73ac:	00000000 	nop
    73b0:	00000000 	nop
    73b4:	00000021 	move	zero,zero
    73b8:	00000021 	move	zero,zero
    73bc:	00000021 	move	zero,zero
    73c0:	00000021 	move	zero,zero
    73c4:	00000021 	move	zero,zero
    73c8:	00000021 	move	zero,zero
    73cc:	3c08bb3e 	lui	t0,0xbb3e
    73d0:	35085b00 	ori	t0,t0,0x5b00
    73d4:	0501fff1 	bgez	t0,739c <n31_bgez_test+0x739c>
    73d8:	00000000 	nop
    73dc:	10000005 	b	73f4 <n31_bgez_test+0x73f4>
    73e0:	00000000 	nop
    73e4:	00000000 	nop
    73e8:	00000021 	move	zero,zero
    73ec:	3c12ff10 	lui	s2,0xff10
    73f0:	36528780 	ori	s2,s2,0x8780
    73f4:	00000000 	nop
    73f8:	24140000 	li	s4,0
    73fc:	1614025f 	bne	s0,s4,7d7c <inst_error>
    7400:	00000000 	nop
    7404:	00000000 	nop
    7408:	24150000 	li	s5,0
    740c:	1655025b 	bne	s2,s5,7d7c <inst_error>
    7410:	00000000 	nop
    7414:	00000000 	nop
    7418:	3c0cf8b5 	lui	t4,0xf8b5
    741c:	358c9594 	ori	t4,t4,0x9594
    7420:	3c0dfa6c 	lui	t5,0xfa6c
    7424:	35ad60a4 	ori	t5,t5,0x60a4
    7428:	24100000 	li	s0,0
    742c:	1000000e 	b	7468 <n31_bgez_test+0x7468>
    7430:	24120000 	li	s2,0
    7434:	00000000 	nop
    7438:	3c10f8b5 	lui	s0,0xf8b5
    743c:	05010012 	bgez	t0,7488 <n31_bgez_test+0x7488>
    7440:	36109594 	ori	s0,s0,0x9594
    7444:	10000012 	b	7490 <n31_bgez_test+0x7490>
    7448:	00000000 	nop
    744c:	00000000 	nop
    7450:	00000021 	move	zero,zero
    7454:	00000021 	move	zero,zero
    7458:	00000021 	move	zero,zero
    745c:	00000021 	move	zero,zero
    7460:	00000021 	move	zero,zero
    7464:	00000021 	move	zero,zero
    7468:	3c082863 	lui	t0,0x2863
    746c:	3508be00 	ori	t0,t0,0xbe00
    7470:	0501fff1 	bgez	t0,7438 <n31_bgez_test+0x7438>
    7474:	00000000 	nop
    7478:	10000005 	b	7490 <n31_bgez_test+0x7490>
    747c:	00000000 	nop
    7480:	00000000 	nop
    7484:	00000021 	move	zero,zero
    7488:	3c12fa6c 	lui	s2,0xfa6c
    748c:	365260a4 	ori	s2,s2,0x60a4
    7490:	00000000 	nop
    7494:	3c14f8b5 	lui	s4,0xf8b5
    7498:	36949594 	ori	s4,s4,0x9594
    749c:	16140237 	bne	s0,s4,7d7c <inst_error>
    74a0:	00000000 	nop
    74a4:	00000000 	nop
    74a8:	3c15fa6c 	lui	s5,0xfa6c
    74ac:	36b560a4 	ori	s5,s5,0x60a4
    74b0:	16550232 	bne	s2,s5,7d7c <inst_error>
    74b4:	00000000 	nop
    74b8:	00000000 	nop
    74bc:	3c0c2c3f 	lui	t4,0x2c3f
    74c0:	358c28b4 	ori	t4,t4,0x28b4
    74c4:	3c0dc896 	lui	t5,0xc896
    74c8:	35ad5894 	ori	t5,t5,0x5894
    74cc:	24100000 	li	s0,0
    74d0:	1000000e 	b	750c <n31_bgez_test+0x750c>
    74d4:	24120000 	li	s2,0
    74d8:	00000000 	nop
    74dc:	3c102c3f 	lui	s0,0x2c3f
    74e0:	05010012 	bgez	t0,752c <n31_bgez_test+0x752c>
    74e4:	361028b4 	ori	s0,s0,0x28b4
    74e8:	10000012 	b	7534 <n31_bgez_test+0x7534>
    74ec:	00000000 	nop
    74f0:	00000000 	nop
    74f4:	00000021 	move	zero,zero
    74f8:	00000021 	move	zero,zero
    74fc:	00000021 	move	zero,zero
    7500:	00000021 	move	zero,zero
    7504:	00000021 	move	zero,zero
    7508:	00000021 	move	zero,zero
    750c:	3c08b51e 	lui	t0,0xb51e
    7510:	35081a40 	ori	t0,t0,0x1a40
    7514:	0501fff1 	bgez	t0,74dc <n31_bgez_test+0x74dc>
    7518:	00000000 	nop
    751c:	10000005 	b	7534 <n31_bgez_test+0x7534>
    7520:	00000000 	nop
    7524:	00000000 	nop
    7528:	00000021 	move	zero,zero
    752c:	3c12c896 	lui	s2,0xc896
    7530:	36525894 	ori	s2,s2,0x5894
    7534:	00000000 	nop
    7538:	24140000 	li	s4,0
    753c:	1614020f 	bne	s0,s4,7d7c <inst_error>
    7540:	00000000 	nop
    7544:	00000000 	nop
    7548:	24150000 	li	s5,0
    754c:	1655020b 	bne	s2,s5,7d7c <inst_error>
    7550:	00000000 	nop
    7554:	00000000 	nop
    7558:	3c0c8dda 	lui	t4,0x8dda
    755c:	358c4160 	ori	t4,t4,0x4160
    7560:	3c0de924 	lui	t5,0xe924
    7564:	35ad07c0 	ori	t5,t5,0x7c0
    7568:	24100000 	li	s0,0
    756c:	1000000e 	b	75a8 <n31_bgez_test+0x75a8>
    7570:	24120000 	li	s2,0
    7574:	00000000 	nop
    7578:	3c108dda 	lui	s0,0x8dda
    757c:	05010012 	bgez	t0,75c8 <n31_bgez_test+0x75c8>
    7580:	36104160 	ori	s0,s0,0x4160
    7584:	10000012 	b	75d0 <n31_bgez_test+0x75d0>
    7588:	00000000 	nop
    758c:	00000000 	nop
    7590:	00000021 	move	zero,zero
    7594:	00000021 	move	zero,zero
    7598:	00000021 	move	zero,zero
    759c:	00000021 	move	zero,zero
    75a0:	00000021 	move	zero,zero
    75a4:	00000021 	move	zero,zero
    75a8:	3c081ad9 	lui	t0,0x1ad9
    75ac:	3508c17f 	ori	t0,t0,0xc17f
    75b0:	0501fff1 	bgez	t0,7578 <n31_bgez_test+0x7578>
    75b4:	00000000 	nop
    75b8:	10000005 	b	75d0 <n31_bgez_test+0x75d0>
    75bc:	00000000 	nop
    75c0:	00000000 	nop
    75c4:	00000021 	move	zero,zero
    75c8:	3c12e924 	lui	s2,0xe924
    75cc:	365207c0 	ori	s2,s2,0x7c0
    75d0:	00000000 	nop
    75d4:	3c148dda 	lui	s4,0x8dda
    75d8:	36944160 	ori	s4,s4,0x4160
    75dc:	161401e7 	bne	s0,s4,7d7c <inst_error>
    75e0:	00000000 	nop
    75e4:	00000000 	nop
    75e8:	3c15e924 	lui	s5,0xe924
    75ec:	36b507c0 	ori	s5,s5,0x7c0
    75f0:	165501e2 	bne	s2,s5,7d7c <inst_error>
    75f4:	00000000 	nop
    75f8:	00000000 	nop
    75fc:	3c0cdd2a 	lui	t4,0xdd2a
    7600:	358c820c 	ori	t4,t4,0x820c
    7604:	3c0d366f 	lui	t5,0x366f
    7608:	35adf070 	ori	t5,t5,0xf070
    760c:	24100000 	li	s0,0
    7610:	1000000e 	b	764c <n31_bgez_test+0x764c>
    7614:	24120000 	li	s2,0
    7618:	00000000 	nop
    761c:	3c10dd2a 	lui	s0,0xdd2a
    7620:	05010012 	bgez	t0,766c <n31_bgez_test+0x766c>
    7624:	3610820c 	ori	s0,s0,0x820c
    7628:	10000012 	b	7674 <n31_bgez_test+0x7674>
    762c:	00000000 	nop
    7630:	00000000 	nop
    7634:	00000021 	move	zero,zero
    7638:	00000021 	move	zero,zero
    763c:	00000021 	move	zero,zero
    7640:	00000021 	move	zero,zero
    7644:	00000021 	move	zero,zero
    7648:	00000021 	move	zero,zero
    764c:	3c08e12b 	lui	t0,0xe12b
    7650:	350897d4 	ori	t0,t0,0x97d4
    7654:	0501fff1 	bgez	t0,761c <n31_bgez_test+0x761c>
    7658:	00000000 	nop
    765c:	10000005 	b	7674 <n31_bgez_test+0x7674>
    7660:	00000000 	nop
    7664:	00000000 	nop
    7668:	00000021 	move	zero,zero
    766c:	3c12366f 	lui	s2,0x366f
    7670:	3652f070 	ori	s2,s2,0xf070
    7674:	00000000 	nop
    7678:	24140000 	li	s4,0
    767c:	161401bf 	bne	s0,s4,7d7c <inst_error>
    7680:	00000000 	nop
    7684:	00000000 	nop
    7688:	24150000 	li	s5,0
    768c:	165501bb 	bne	s2,s5,7d7c <inst_error>
    7690:	00000000 	nop
    7694:	00000000 	nop
    7698:	3c0cfd01 	lui	t4,0xfd01
    769c:	358cf540 	ori	t4,t4,0xf540
    76a0:	3c0dc1cd 	lui	t5,0xc1cd
    76a4:	35ad20b0 	ori	t5,t5,0x20b0
    76a8:	24100000 	li	s0,0
    76ac:	1000000e 	b	76e8 <n31_bgez_test+0x76e8>
    76b0:	24120000 	li	s2,0
    76b4:	00000000 	nop
    76b8:	3c10fd01 	lui	s0,0xfd01
    76bc:	05010012 	bgez	t0,7708 <n31_bgez_test+0x7708>
    76c0:	3610f540 	ori	s0,s0,0xf540
    76c4:	10000012 	b	7710 <n31_bgez_test+0x7710>
    76c8:	00000000 	nop
    76cc:	00000000 	nop
    76d0:	00000021 	move	zero,zero
    76d4:	00000021 	move	zero,zero
    76d8:	00000021 	move	zero,zero
    76dc:	00000021 	move	zero,zero
    76e0:	00000021 	move	zero,zero
    76e4:	00000021 	move	zero,zero
    76e8:	3c08f021 	lui	t0,0xf021
    76ec:	35082db8 	ori	t0,t0,0x2db8
    76f0:	0501fff1 	bgez	t0,76b8 <n31_bgez_test+0x76b8>
    76f4:	00000000 	nop
    76f8:	10000005 	b	7710 <n31_bgez_test+0x7710>
    76fc:	00000000 	nop
    7700:	00000000 	nop
    7704:	00000021 	move	zero,zero
    7708:	3c12c1cd 	lui	s2,0xc1cd
    770c:	365220b0 	ori	s2,s2,0x20b0
    7710:	00000000 	nop
    7714:	24140000 	li	s4,0
    7718:	16140198 	bne	s0,s4,7d7c <inst_error>
    771c:	00000000 	nop
    7720:	00000000 	nop
    7724:	24150000 	li	s5,0
    7728:	16550194 	bne	s2,s5,7d7c <inst_error>
    772c:	00000000 	nop
    7730:	00000000 	nop
    7734:	3c0ce741 	lui	t4,0xe741
    7738:	358c5406 	ori	t4,t4,0x5406
    773c:	3c0d741a 	lui	t5,0x741a
    7740:	35aded50 	ori	t5,t5,0xed50
    7744:	24100000 	li	s0,0
    7748:	1000000e 	b	7784 <n31_bgez_test+0x7784>
    774c:	24120000 	li	s2,0
    7750:	00000000 	nop
    7754:	3c10e741 	lui	s0,0xe741
    7758:	05010012 	bgez	t0,77a4 <n31_bgez_test+0x77a4>
    775c:	36105406 	ori	s0,s0,0x5406
    7760:	10000012 	b	77ac <n31_bgez_test+0x77ac>
    7764:	00000000 	nop
    7768:	00000000 	nop
    776c:	00000021 	move	zero,zero
    7770:	00000021 	move	zero,zero
    7774:	00000021 	move	zero,zero
    7778:	00000021 	move	zero,zero
    777c:	00000021 	move	zero,zero
    7780:	00000021 	move	zero,zero
    7784:	3c08cbba 	lui	t0,0xcbba
    7788:	350881ec 	ori	t0,t0,0x81ec
    778c:	0501fff1 	bgez	t0,7754 <n31_bgez_test+0x7754>
    7790:	00000000 	nop
    7794:	10000005 	b	77ac <n31_bgez_test+0x77ac>
    7798:	00000000 	nop
    779c:	00000000 	nop
    77a0:	00000021 	move	zero,zero
    77a4:	3c12741a 	lui	s2,0x741a
    77a8:	3652ed50 	ori	s2,s2,0xed50
    77ac:	00000000 	nop
    77b0:	24140000 	li	s4,0
    77b4:	16140171 	bne	s0,s4,7d7c <inst_error>
    77b8:	00000000 	nop
    77bc:	00000000 	nop
    77c0:	24150000 	li	s5,0
    77c4:	1655016d 	bne	s2,s5,7d7c <inst_error>
    77c8:	00000000 	nop
    77cc:	00000000 	nop
    77d0:	3c0cb5ec 	lui	t4,0xb5ec
    77d4:	358c1927 	ori	t4,t4,0x1927
    77d8:	3c0d468e 	lui	t5,0x468e
    77dc:	35add6a0 	ori	t5,t5,0xd6a0
    77e0:	24100000 	li	s0,0
    77e4:	1000000e 	b	7820 <n31_bgez_test+0x7820>
    77e8:	24120000 	li	s2,0
    77ec:	00000000 	nop
    77f0:	3c10b5ec 	lui	s0,0xb5ec
    77f4:	05010012 	bgez	t0,7840 <n31_bgez_test+0x7840>
    77f8:	36101927 	ori	s0,s0,0x1927
    77fc:	10000012 	b	7848 <n31_bgez_test+0x7848>
    7800:	00000000 	nop
    7804:	00000000 	nop
    7808:	00000021 	move	zero,zero
    780c:	00000021 	move	zero,zero
    7810:	00000021 	move	zero,zero
    7814:	00000021 	move	zero,zero
    7818:	00000021 	move	zero,zero
    781c:	00000021 	move	zero,zero
    7820:	3c0802c3 	lui	t0,0x2c3
    7824:	3508315c 	ori	t0,t0,0x315c
    7828:	0501fff1 	bgez	t0,77f0 <n31_bgez_test+0x77f0>
    782c:	00000000 	nop
    7830:	10000005 	b	7848 <n31_bgez_test+0x7848>
    7834:	00000000 	nop
    7838:	00000000 	nop
    783c:	00000021 	move	zero,zero
    7840:	3c12468e 	lui	s2,0x468e
    7844:	3652d6a0 	ori	s2,s2,0xd6a0
    7848:	00000000 	nop
    784c:	3c14b5ec 	lui	s4,0xb5ec
    7850:	36941927 	ori	s4,s4,0x1927
    7854:	16140149 	bne	s0,s4,7d7c <inst_error>
    7858:	00000000 	nop
    785c:	00000000 	nop
    7860:	3c15468e 	lui	s5,0x468e
    7864:	36b5d6a0 	ori	s5,s5,0xd6a0
    7868:	16550144 	bne	s2,s5,7d7c <inst_error>
    786c:	00000000 	nop
    7870:	00000000 	nop
    7874:	3c0c5c59 	lui	t4,0x5c59
    7878:	358c0ce0 	ori	t4,t4,0xce0
    787c:	3c0d5420 	lui	t5,0x5420
    7880:	35ad028c 	ori	t5,t5,0x28c
    7884:	24100000 	li	s0,0
    7888:	1000000e 	b	78c4 <n31_bgez_test+0x78c4>
    788c:	24120000 	li	s2,0
    7890:	00000000 	nop
    7894:	3c105c59 	lui	s0,0x5c59
    7898:	05010012 	bgez	t0,78e4 <n31_bgez_test+0x78e4>
    789c:	36100ce0 	ori	s0,s0,0xce0
    78a0:	10000012 	b	78ec <n31_bgez_test+0x78ec>
    78a4:	00000000 	nop
    78a8:	00000000 	nop
    78ac:	00000021 	move	zero,zero
    78b0:	00000021 	move	zero,zero
    78b4:	00000021 	move	zero,zero
    78b8:	00000021 	move	zero,zero
    78bc:	00000021 	move	zero,zero
    78c0:	00000021 	move	zero,zero
    78c4:	3c087288 	lui	t0,0x7288
    78c8:	3508e670 	ori	t0,t0,0xe670
    78cc:	0501fff1 	bgez	t0,7894 <n31_bgez_test+0x7894>
    78d0:	00000000 	nop
    78d4:	10000005 	b	78ec <n31_bgez_test+0x78ec>
    78d8:	00000000 	nop
    78dc:	00000000 	nop
    78e0:	00000021 	move	zero,zero
    78e4:	3c125420 	lui	s2,0x5420
    78e8:	3652028c 	ori	s2,s2,0x28c
    78ec:	00000000 	nop
    78f0:	3c145c59 	lui	s4,0x5c59
    78f4:	36940ce0 	ori	s4,s4,0xce0
    78f8:	16140120 	bne	s0,s4,7d7c <inst_error>
    78fc:	00000000 	nop
    7900:	00000000 	nop
    7904:	3c155420 	lui	s5,0x5420
    7908:	36b5028c 	ori	s5,s5,0x28c
    790c:	1655011b 	bne	s2,s5,7d7c <inst_error>
    7910:	00000000 	nop
    7914:	00000000 	nop
    7918:	3c0c75ec 	lui	t4,0x75ec
    791c:	358c78f4 	ori	t4,t4,0x78f4
    7920:	3c0d2eff 	lui	t5,0x2eff
    7924:	35ada6ac 	ori	t5,t5,0xa6ac
    7928:	24100000 	li	s0,0
    792c:	1000000e 	b	7968 <n31_bgez_test+0x7968>
    7930:	24120000 	li	s2,0
    7934:	00000000 	nop
    7938:	3c1075ec 	lui	s0,0x75ec
    793c:	05010012 	bgez	t0,7988 <n31_bgez_test+0x7988>
    7940:	361078f4 	ori	s0,s0,0x78f4
    7944:	10000012 	b	7990 <n31_bgez_test+0x7990>
    7948:	00000000 	nop
    794c:	00000000 	nop
    7950:	00000021 	move	zero,zero
    7954:	00000021 	move	zero,zero
    7958:	00000021 	move	zero,zero
    795c:	00000021 	move	zero,zero
    7960:	00000021 	move	zero,zero
    7964:	00000021 	move	zero,zero
    7968:	3c08d544 	lui	t0,0xd544
    796c:	350895e0 	ori	t0,t0,0x95e0
    7970:	0501fff1 	bgez	t0,7938 <n31_bgez_test+0x7938>
    7974:	00000000 	nop
    7978:	10000005 	b	7990 <n31_bgez_test+0x7990>
    797c:	00000000 	nop
    7980:	00000000 	nop
    7984:	00000021 	move	zero,zero
    7988:	3c122eff 	lui	s2,0x2eff
    798c:	3652a6ac 	ori	s2,s2,0xa6ac
    7990:	00000000 	nop
    7994:	24140000 	li	s4,0
    7998:	161400f8 	bne	s0,s4,7d7c <inst_error>
    799c:	00000000 	nop
    79a0:	00000000 	nop
    79a4:	24150000 	li	s5,0
    79a8:	165500f4 	bne	s2,s5,7d7c <inst_error>
    79ac:	00000000 	nop
    79b0:	00000000 	nop
    79b4:	3c0c1d4a 	lui	t4,0x1d4a
    79b8:	358c55c9 	ori	t4,t4,0x55c9
    79bc:	3c0d720f 	lui	t5,0x720f
    79c0:	35add55e 	ori	t5,t5,0xd55e
    79c4:	24100000 	li	s0,0
    79c8:	1000000e 	b	7a04 <n31_bgez_test+0x7a04>
    79cc:	24120000 	li	s2,0
    79d0:	00000000 	nop
    79d4:	3c101d4a 	lui	s0,0x1d4a
    79d8:	05010012 	bgez	t0,7a24 <n31_bgez_test+0x7a24>
    79dc:	361055c9 	ori	s0,s0,0x55c9
    79e0:	10000012 	b	7a2c <n31_bgez_test+0x7a2c>
    79e4:	00000000 	nop
    79e8:	00000000 	nop
    79ec:	00000021 	move	zero,zero
    79f0:	00000021 	move	zero,zero
    79f4:	00000021 	move	zero,zero
    79f8:	00000021 	move	zero,zero
    79fc:	00000021 	move	zero,zero
    7a00:	00000021 	move	zero,zero
    7a04:	3c089426 	lui	t0,0x9426
    7a08:	350821af 	ori	t0,t0,0x21af
    7a0c:	0501fff1 	bgez	t0,79d4 <n31_bgez_test+0x79d4>
    7a10:	00000000 	nop
    7a14:	10000005 	b	7a2c <n31_bgez_test+0x7a2c>
    7a18:	00000000 	nop
    7a1c:	00000000 	nop
    7a20:	00000021 	move	zero,zero
    7a24:	3c12720f 	lui	s2,0x720f
    7a28:	3652d55e 	ori	s2,s2,0xd55e
    7a2c:	00000000 	nop
    7a30:	24140000 	li	s4,0
    7a34:	161400d1 	bne	s0,s4,7d7c <inst_error>
    7a38:	00000000 	nop
    7a3c:	00000000 	nop
    7a40:	24150000 	li	s5,0
    7a44:	165500cd 	bne	s2,s5,7d7c <inst_error>
    7a48:	00000000 	nop
    7a4c:	00000000 	nop
    7a50:	3c0cc4bc 	lui	t4,0xc4bc
    7a54:	358c9b80 	ori	t4,t4,0x9b80
    7a58:	3c0dc2a1 	lui	t5,0xc2a1
    7a5c:	35ad0b38 	ori	t5,t5,0xb38
    7a60:	24100000 	li	s0,0
    7a64:	1000000e 	b	7aa0 <n31_bgez_test+0x7aa0>
    7a68:	24120000 	li	s2,0
    7a6c:	00000000 	nop
    7a70:	3c10c4bc 	lui	s0,0xc4bc
    7a74:	05010012 	bgez	t0,7ac0 <n31_bgez_test+0x7ac0>
    7a78:	36109b80 	ori	s0,s0,0x9b80
    7a7c:	10000012 	b	7ac8 <n31_bgez_test+0x7ac8>
    7a80:	00000000 	nop
    7a84:	00000000 	nop
    7a88:	00000021 	move	zero,zero
    7a8c:	00000021 	move	zero,zero
    7a90:	00000021 	move	zero,zero
    7a94:	00000021 	move	zero,zero
    7a98:	00000021 	move	zero,zero
    7a9c:	00000021 	move	zero,zero
    7aa0:	3c08a795 	lui	t0,0xa795
    7aa4:	3508e898 	ori	t0,t0,0xe898
    7aa8:	0501fff1 	bgez	t0,7a70 <n31_bgez_test+0x7a70>
    7aac:	00000000 	nop
    7ab0:	10000005 	b	7ac8 <n31_bgez_test+0x7ac8>
    7ab4:	00000000 	nop
    7ab8:	00000000 	nop
    7abc:	00000021 	move	zero,zero
    7ac0:	3c12c2a1 	lui	s2,0xc2a1
    7ac4:	36520b38 	ori	s2,s2,0xb38
    7ac8:	00000000 	nop
    7acc:	24140000 	li	s4,0
    7ad0:	161400aa 	bne	s0,s4,7d7c <inst_error>
    7ad4:	00000000 	nop
    7ad8:	00000000 	nop
    7adc:	24150000 	li	s5,0
    7ae0:	165500a6 	bne	s2,s5,7d7c <inst_error>
    7ae4:	00000000 	nop
    7ae8:	00000000 	nop
    7aec:	3c0ce00f 	lui	t4,0xe00f
    7af0:	358cf5e8 	ori	t4,t4,0xf5e8
    7af4:	3c0dd694 	lui	t5,0xd694
    7af8:	35adbe06 	ori	t5,t5,0xbe06
    7afc:	24100000 	li	s0,0
    7b00:	1000000e 	b	7b3c <n31_bgez_test+0x7b3c>
    7b04:	24120000 	li	s2,0
    7b08:	00000000 	nop
    7b0c:	3c10e00f 	lui	s0,0xe00f
    7b10:	05010012 	bgez	t0,7b5c <n31_bgez_test+0x7b5c>
    7b14:	3610f5e8 	ori	s0,s0,0xf5e8
    7b18:	10000012 	b	7b64 <n31_bgez_test+0x7b64>
    7b1c:	00000000 	nop
    7b20:	00000000 	nop
    7b24:	00000021 	move	zero,zero
    7b28:	00000021 	move	zero,zero
    7b2c:	00000021 	move	zero,zero
    7b30:	00000021 	move	zero,zero
    7b34:	00000021 	move	zero,zero
    7b38:	00000021 	move	zero,zero
    7b3c:	3c084bfb 	lui	t0,0x4bfb
    7b40:	3508adb0 	ori	t0,t0,0xadb0
    7b44:	0501fff1 	bgez	t0,7b0c <n31_bgez_test+0x7b0c>
    7b48:	00000000 	nop
    7b4c:	10000005 	b	7b64 <n31_bgez_test+0x7b64>
    7b50:	00000000 	nop
    7b54:	00000000 	nop
    7b58:	00000021 	move	zero,zero
    7b5c:	3c12d694 	lui	s2,0xd694
    7b60:	3652be06 	ori	s2,s2,0xbe06
    7b64:	00000000 	nop
    7b68:	3c14e00f 	lui	s4,0xe00f
    7b6c:	3694f5e8 	ori	s4,s4,0xf5e8
    7b70:	16140082 	bne	s0,s4,7d7c <inst_error>
    7b74:	00000000 	nop
    7b78:	00000000 	nop
    7b7c:	3c15d694 	lui	s5,0xd694
    7b80:	36b5be06 	ori	s5,s5,0xbe06
    7b84:	1655007d 	bne	s2,s5,7d7c <inst_error>
    7b88:	00000000 	nop
    7b8c:	00000000 	nop
    7b90:	3c0cab21 	lui	t4,0xab21
    7b94:	358c5888 	ori	t4,t4,0x5888
    7b98:	3c0d55ac 	lui	t5,0x55ac
    7b9c:	35ada678 	ori	t5,t5,0xa678
    7ba0:	24100000 	li	s0,0
    7ba4:	1000000e 	b	7be0 <n31_bgez_test+0x7be0>
    7ba8:	24120000 	li	s2,0
    7bac:	00000000 	nop
    7bb0:	3c10ab21 	lui	s0,0xab21
    7bb4:	05010012 	bgez	t0,7c00 <n31_bgez_test+0x7c00>
    7bb8:	36105888 	ori	s0,s0,0x5888
    7bbc:	10000012 	b	7c08 <n31_bgez_test+0x7c08>
    7bc0:	00000000 	nop
    7bc4:	00000000 	nop
    7bc8:	00000021 	move	zero,zero
    7bcc:	00000021 	move	zero,zero
    7bd0:	00000021 	move	zero,zero
    7bd4:	00000021 	move	zero,zero
    7bd8:	00000021 	move	zero,zero
    7bdc:	00000021 	move	zero,zero
    7be0:	3c0812bd 	lui	t0,0x12bd
    7be4:	35088028 	ori	t0,t0,0x8028
    7be8:	0501fff1 	bgez	t0,7bb0 <n31_bgez_test+0x7bb0>
    7bec:	00000000 	nop
    7bf0:	10000005 	b	7c08 <n31_bgez_test+0x7c08>
    7bf4:	00000000 	nop
    7bf8:	00000000 	nop
    7bfc:	00000021 	move	zero,zero
    7c00:	3c1255ac 	lui	s2,0x55ac
    7c04:	3652a678 	ori	s2,s2,0xa678
    7c08:	00000000 	nop
    7c0c:	3c14ab21 	lui	s4,0xab21
    7c10:	36945888 	ori	s4,s4,0x5888
    7c14:	16140059 	bne	s0,s4,7d7c <inst_error>
    7c18:	00000000 	nop
    7c1c:	00000000 	nop
    7c20:	3c1555ac 	lui	s5,0x55ac
    7c24:	36b5a678 	ori	s5,s5,0xa678
    7c28:	16550054 	bne	s2,s5,7d7c <inst_error>
    7c2c:	00000000 	nop
    7c30:	00000000 	nop
    7c34:	3c0c21cc 	lui	t4,0x21cc
    7c38:	358cb408 	ori	t4,t4,0xb408
    7c3c:	3c0d990d 	lui	t5,0x990d
    7c40:	35adea52 	ori	t5,t5,0xea52
    7c44:	24100000 	li	s0,0
    7c48:	1000000e 	b	7c84 <n31_bgez_test+0x7c84>
    7c4c:	24120000 	li	s2,0
    7c50:	00000000 	nop
    7c54:	3c1021cc 	lui	s0,0x21cc
    7c58:	05010012 	bgez	t0,7ca4 <n31_bgez_test+0x7ca4>
    7c5c:	3610b408 	ori	s0,s0,0xb408
    7c60:	10000012 	b	7cac <n31_bgez_test+0x7cac>
    7c64:	00000000 	nop
    7c68:	00000000 	nop
    7c6c:	00000021 	move	zero,zero
    7c70:	00000021 	move	zero,zero
    7c74:	00000021 	move	zero,zero
    7c78:	00000021 	move	zero,zero
    7c7c:	00000021 	move	zero,zero
    7c80:	00000021 	move	zero,zero
    7c84:	3c08f88b 	lui	t0,0xf88b
    7c88:	3508cdf6 	ori	t0,t0,0xcdf6
    7c8c:	0501fff1 	bgez	t0,7c54 <n31_bgez_test+0x7c54>
    7c90:	00000000 	nop
    7c94:	10000005 	b	7cac <n31_bgez_test+0x7cac>
    7c98:	00000000 	nop
    7c9c:	00000000 	nop
    7ca0:	00000021 	move	zero,zero
    7ca4:	3c12990d 	lui	s2,0x990d
    7ca8:	3652ea52 	ori	s2,s2,0xea52
    7cac:	00000000 	nop
    7cb0:	24140000 	li	s4,0
    7cb4:	16140031 	bne	s0,s4,7d7c <inst_error>
    7cb8:	00000000 	nop
    7cbc:	00000000 	nop
    7cc0:	24150000 	li	s5,0
    7cc4:	1655002d 	bne	s2,s5,7d7c <inst_error>
    7cc8:	00000000 	nop
    7ccc:	00000000 	nop
    7cd0:	3c0c1f13 	lui	t4,0x1f13
    7cd4:	358c9900 	ori	t4,t4,0x9900
    7cd8:	3c0daf65 	lui	t5,0xaf65
    7cdc:	35ad31c4 	ori	t5,t5,0x31c4
    7ce0:	24100000 	li	s0,0
    7ce4:	1000000e 	b	7d20 <n31_bgez_test+0x7d20>
    7ce8:	24120000 	li	s2,0
    7cec:	00000000 	nop
    7cf0:	3c101f13 	lui	s0,0x1f13
    7cf4:	05010011 	bgez	t0,7d3c <n31_bgez_test+0x7d3c>
    7cf8:	36109900 	ori	s0,s0,0x9900
    7cfc:	10000011 	b	7d44 <n31_bgez_test+0x7d44>
    7d00:	00000000 	nop
    7d04:	00000000 	nop
    7d08:	00000021 	move	zero,zero
    7d0c:	00000021 	move	zero,zero
    7d10:	00000021 	move	zero,zero
    7d14:	00000021 	move	zero,zero
    7d18:	00000021 	move	zero,zero
    7d1c:	00000021 	move	zero,zero
    7d20:	24080000 	li	t0,0
    7d24:	0501fff2 	bgez	t0,7cf0 <n31_bgez_test+0x7cf0>
    7d28:	00000000 	nop
    7d2c:	10000005 	b	7d44 <n31_bgez_test+0x7d44>
    7d30:	00000000 	nop
    7d34:	00000000 	nop
    7d38:	00000021 	move	zero,zero
    7d3c:	3c12af65 	lui	s2,0xaf65
    7d40:	365231c4 	ori	s2,s2,0x31c4
    7d44:	00000000 	nop
    7d48:	3c141f13 	lui	s4,0x1f13
    7d4c:	36949900 	ori	s4,s4,0x9900
    7d50:	1614000a 	bne	s0,s4,7d7c <inst_error>
    7d54:	00000000 	nop
    7d58:	00000000 	nop
    7d5c:	3c15af65 	lui	s5,0xaf65
    7d60:	36b531c4 	ori	s5,s5,0x31c4
    7d64:	16550005 	bne	s2,s5,7d7c <inst_error>
    7d68:	00000000 	nop
    7d6c:	14400003 	bnez	v0,7d7c <inst_error>
    7d70:	00000000 	nop
    7d74:	00000000 	nop
    7d78:	26730001 	addiu	s3,s3,1

00007d7c <inst_error>:
    7d7c:	00934025 	or	t0,a0,s3
    7d80:	03e00008 	jr	ra
    7d84:	ae280000 	sw	t0,0(s1)

