       0:	3c042000 	lui	a0,0x2000
       4:	24020000 	li	v0,0
       8:	3c0c40b4 	lui	t4,0x40b4
       c:	358c0d40 	ori	t4,t4,0xd40
      10:	3c0d45eb 	lui	t5,0x45eb
      14:	35ad9450 	ori	t5,t5,0x9450
      18:	24100000 	li	s0,0
      1c:	10000016 	b	78 <n32_bgtz_test+0x78>
      20:	24120000 	li	s2,0
      24:	00000000 	nop
      28:	3c1040b4 	lui	s0,0x40b4
      2c:	1d00001e 	bgtz	t0,a8 <n32_bgtz_test+0xa8>
      30:	36100d40 	ori	s0,s0,0xd40
      34:	1000001e 	b	b0 <n32_bgtz_test+0xb0>
      38:	00000000 	nop
      3c:	00000000 	nop
      40:	00000021 	move	zero,zero
      44:	00000021 	move	zero,zero
      48:	00000021 	move	zero,zero
      4c:	00000021 	move	zero,zero
      50:	00000021 	move	zero,zero
      54:	00000021 	move	zero,zero
      58:	00000021 	move	zero,zero
      5c:	00000021 	move	zero,zero
      60:	00000021 	move	zero,zero
      64:	00000021 	move	zero,zero
      68:	00000021 	move	zero,zero
      6c:	00000021 	move	zero,zero
      70:	00000021 	move	zero,zero
      74:	00000021 	move	zero,zero
      78:	3c08cc73 	lui	t0,0xcc73
      7c:	35088190 	ori	t0,t0,0x8190
      80:	1d00ffe9 	bgtz	t0,28 <n32_bgtz_test+0x28>
      84:	00000000 	nop
      88:	10000009 	b	b0 <n32_bgtz_test+0xb0>
      8c:	00000000 	nop
      90:	00000000 	nop
      94:	00000021 	move	zero,zero
      98:	00000021 	move	zero,zero
      9c:	00000021 	move	zero,zero
      a0:	00000021 	move	zero,zero
      a4:	00000021 	move	zero,zero
      a8:	3c1245eb 	lui	s2,0x45eb
      ac:	36529450 	ori	s2,s2,0x9450
      b0:	00000000 	nop
      b4:	24140000 	li	s4,0
      b8:	16142896 	bne	s0,s4,a314 <inst_error>
      bc:	00000000 	nop
      c0:	00000000 	nop
      c4:	24150000 	li	s5,0
      c8:	16552892 	bne	s2,s5,a314 <inst_error>
      cc:	00000000 	nop
      d0:	00000000 	nop
      d4:	3c0c3e30 	lui	t4,0x3e30
      d8:	358c26e7 	ori	t4,t4,0x26e7
      dc:	3c0d485f 	lui	t5,0x485f
      e0:	35ad2d18 	ori	t5,t5,0x2d18
      e4:	24100000 	li	s0,0
      e8:	10000016 	b	144 <n32_bgtz_test+0x144>
      ec:	24120000 	li	s2,0
      f0:	00000000 	nop
      f4:	3c103e30 	lui	s0,0x3e30
      f8:	1d00001e 	bgtz	t0,174 <n32_bgtz_test+0x174>
      fc:	361026e7 	ori	s0,s0,0x26e7
     100:	1000001e 	b	17c <n32_bgtz_test+0x17c>
     104:	00000000 	nop
     108:	00000000 	nop
     10c:	00000021 	move	zero,zero
     110:	00000021 	move	zero,zero
     114:	00000021 	move	zero,zero
     118:	00000021 	move	zero,zero
     11c:	00000021 	move	zero,zero
     120:	00000021 	move	zero,zero
     124:	00000021 	move	zero,zero
     128:	00000021 	move	zero,zero
     12c:	00000021 	move	zero,zero
     130:	00000021 	move	zero,zero
     134:	00000021 	move	zero,zero
     138:	00000021 	move	zero,zero
     13c:	00000021 	move	zero,zero
     140:	00000021 	move	zero,zero
     144:	3c088b97 	lui	t0,0x8b97
     148:	35080e60 	ori	t0,t0,0xe60
     14c:	1d00ffe9 	bgtz	t0,f4 <n32_bgtz_test+0xf4>
     150:	00000000 	nop
     154:	10000009 	b	17c <n32_bgtz_test+0x17c>
     158:	00000000 	nop
     15c:	00000000 	nop
     160:	00000021 	move	zero,zero
     164:	00000021 	move	zero,zero
     168:	00000021 	move	zero,zero
     16c:	00000021 	move	zero,zero
     170:	00000021 	move	zero,zero
     174:	3c12485f 	lui	s2,0x485f
     178:	36522d18 	ori	s2,s2,0x2d18
     17c:	00000000 	nop
     180:	24140000 	li	s4,0
     184:	16142863 	bne	s0,s4,a314 <inst_error>
     188:	00000000 	nop
     18c:	00000000 	nop
     190:	24150000 	li	s5,0
     194:	1655285f 	bne	s2,s5,a314 <inst_error>
     198:	00000000 	nop
     19c:	00000000 	nop
     1a0:	3c0c983f 	lui	t4,0x983f
     1a4:	358cea90 	ori	t4,t4,0xea90
     1a8:	3c0d9bf0 	lui	t5,0x9bf0
     1ac:	35adc7cc 	ori	t5,t5,0xc7cc
     1b0:	24100000 	li	s0,0
     1b4:	10000016 	b	210 <n32_bgtz_test+0x210>
     1b8:	24120000 	li	s2,0
     1bc:	00000000 	nop
     1c0:	3c10983f 	lui	s0,0x983f
     1c4:	1d00001e 	bgtz	t0,240 <n32_bgtz_test+0x240>
     1c8:	3610ea90 	ori	s0,s0,0xea90
     1cc:	1000001e 	b	248 <n32_bgtz_test+0x248>
     1d0:	00000000 	nop
     1d4:	00000000 	nop
     1d8:	00000021 	move	zero,zero
     1dc:	00000021 	move	zero,zero
     1e0:	00000021 	move	zero,zero
     1e4:	00000021 	move	zero,zero
     1e8:	00000021 	move	zero,zero
     1ec:	00000021 	move	zero,zero
     1f0:	00000021 	move	zero,zero
     1f4:	00000021 	move	zero,zero
     1f8:	00000021 	move	zero,zero
     1fc:	00000021 	move	zero,zero
     200:	00000021 	move	zero,zero
     204:	00000021 	move	zero,zero
     208:	00000021 	move	zero,zero
     20c:	00000021 	move	zero,zero
     210:	3c087b48 	lui	t0,0x7b48
     214:	350858f8 	ori	t0,t0,0x58f8
     218:	1d00ffe9 	bgtz	t0,1c0 <n32_bgtz_test+0x1c0>
     21c:	00000000 	nop
     220:	10000009 	b	248 <n32_bgtz_test+0x248>
     224:	00000000 	nop
     228:	00000000 	nop
     22c:	00000021 	move	zero,zero
     230:	00000021 	move	zero,zero
     234:	00000021 	move	zero,zero
     238:	00000021 	move	zero,zero
     23c:	00000021 	move	zero,zero
     240:	3c129bf0 	lui	s2,0x9bf0
     244:	3652c7cc 	ori	s2,s2,0xc7cc
     248:	00000000 	nop
     24c:	3c14983f 	lui	s4,0x983f
     250:	3694ea90 	ori	s4,s4,0xea90
     254:	1614282f 	bne	s0,s4,a314 <inst_error>
     258:	00000000 	nop
     25c:	00000000 	nop
     260:	3c159bf0 	lui	s5,0x9bf0
     264:	36b5c7cc 	ori	s5,s5,0xc7cc
     268:	1655282a 	bne	s2,s5,a314 <inst_error>
     26c:	00000000 	nop
     270:	00000000 	nop
     274:	3c0c76d2 	lui	t4,0x76d2
     278:	358c102e 	ori	t4,t4,0x102e
     27c:	3c0da5de 	lui	t5,0xa5de
     280:	35add158 	ori	t5,t5,0xd158
     284:	24100000 	li	s0,0
     288:	10000016 	b	2e4 <n32_bgtz_test+0x2e4>
     28c:	24120000 	li	s2,0
     290:	00000000 	nop
     294:	3c1076d2 	lui	s0,0x76d2
     298:	1d00001e 	bgtz	t0,314 <n32_bgtz_test+0x314>
     29c:	3610102e 	ori	s0,s0,0x102e
     2a0:	1000001e 	b	31c <n32_bgtz_test+0x31c>
     2a4:	00000000 	nop
     2a8:	00000000 	nop
     2ac:	00000021 	move	zero,zero
     2b0:	00000021 	move	zero,zero
     2b4:	00000021 	move	zero,zero
     2b8:	00000021 	move	zero,zero
     2bc:	00000021 	move	zero,zero
     2c0:	00000021 	move	zero,zero
     2c4:	00000021 	move	zero,zero
     2c8:	00000021 	move	zero,zero
     2cc:	00000021 	move	zero,zero
     2d0:	00000021 	move	zero,zero
     2d4:	00000021 	move	zero,zero
     2d8:	00000021 	move	zero,zero
     2dc:	00000021 	move	zero,zero
     2e0:	00000021 	move	zero,zero
     2e4:	3c0865fb 	lui	t0,0x65fb
     2e8:	3508d242 	ori	t0,t0,0xd242
     2ec:	1d00ffe9 	bgtz	t0,294 <n32_bgtz_test+0x294>
     2f0:	00000000 	nop
     2f4:	10000009 	b	31c <n32_bgtz_test+0x31c>
     2f8:	00000000 	nop
     2fc:	00000000 	nop
     300:	00000021 	move	zero,zero
     304:	00000021 	move	zero,zero
     308:	00000021 	move	zero,zero
     30c:	00000021 	move	zero,zero
     310:	00000021 	move	zero,zero
     314:	3c12a5de 	lui	s2,0xa5de
     318:	3652d158 	ori	s2,s2,0xd158
     31c:	00000000 	nop
     320:	3c1476d2 	lui	s4,0x76d2
     324:	3694102e 	ori	s4,s4,0x102e
     328:	161427fa 	bne	s0,s4,a314 <inst_error>
     32c:	00000000 	nop
     330:	00000000 	nop
     334:	3c15a5de 	lui	s5,0xa5de
     338:	36b5d158 	ori	s5,s5,0xd158
     33c:	165527f5 	bne	s2,s5,a314 <inst_error>
     340:	00000000 	nop
     344:	00000000 	nop
     348:	3c0cd3a9 	lui	t4,0xd3a9
     34c:	358ced2a 	ori	t4,t4,0xed2a
     350:	3c0ddb0f 	lui	t5,0xdb0f
     354:	35adf880 	ori	t5,t5,0xf880
     358:	24100000 	li	s0,0
     35c:	10000016 	b	3b8 <n32_bgtz_test+0x3b8>
     360:	24120000 	li	s2,0
     364:	00000000 	nop
     368:	3c10d3a9 	lui	s0,0xd3a9
     36c:	1d00001e 	bgtz	t0,3e8 <n32_bgtz_test+0x3e8>
     370:	3610ed2a 	ori	s0,s0,0xed2a
     374:	1000001e 	b	3f0 <n32_bgtz_test+0x3f0>
     378:	00000000 	nop
     37c:	00000000 	nop
     380:	00000021 	move	zero,zero
     384:	00000021 	move	zero,zero
     388:	00000021 	move	zero,zero
     38c:	00000021 	move	zero,zero
     390:	00000021 	move	zero,zero
     394:	00000021 	move	zero,zero
     398:	00000021 	move	zero,zero
     39c:	00000021 	move	zero,zero
     3a0:	00000021 	move	zero,zero
     3a4:	00000021 	move	zero,zero
     3a8:	00000021 	move	zero,zero
     3ac:	00000021 	move	zero,zero
     3b0:	00000021 	move	zero,zero
     3b4:	00000021 	move	zero,zero
     3b8:	3c08033a 	lui	t0,0x33a
     3bc:	350861c6 	ori	t0,t0,0x61c6
     3c0:	1d00ffe9 	bgtz	t0,368 <n32_bgtz_test+0x368>
     3c4:	00000000 	nop
     3c8:	10000009 	b	3f0 <n32_bgtz_test+0x3f0>
     3cc:	00000000 	nop
     3d0:	00000000 	nop
     3d4:	00000021 	move	zero,zero
     3d8:	00000021 	move	zero,zero
     3dc:	00000021 	move	zero,zero
     3e0:	00000021 	move	zero,zero
     3e4:	00000021 	move	zero,zero
     3e8:	3c12db0f 	lui	s2,0xdb0f
     3ec:	3652f880 	ori	s2,s2,0xf880
     3f0:	00000000 	nop
     3f4:	3c14d3a9 	lui	s4,0xd3a9
     3f8:	3694ed2a 	ori	s4,s4,0xed2a
     3fc:	161427c5 	bne	s0,s4,a314 <inst_error>
     400:	00000000 	nop
     404:	00000000 	nop
     408:	3c15db0f 	lui	s5,0xdb0f
     40c:	36b5f880 	ori	s5,s5,0xf880
     410:	165527c0 	bne	s2,s5,a314 <inst_error>
     414:	00000000 	nop
     418:	00000000 	nop
     41c:	3c0c43df 	lui	t4,0x43df
     420:	358c9d30 	ori	t4,t4,0x9d30
     424:	3c0dd325 	lui	t5,0xd325
     428:	35add5c0 	ori	t5,t5,0xd5c0
     42c:	24100000 	li	s0,0
     430:	10000016 	b	48c <n32_bgtz_test+0x48c>
     434:	24120000 	li	s2,0
     438:	00000000 	nop
     43c:	3c1043df 	lui	s0,0x43df
     440:	1d00001e 	bgtz	t0,4bc <n32_bgtz_test+0x4bc>
     444:	36109d30 	ori	s0,s0,0x9d30
     448:	1000001e 	b	4c4 <n32_bgtz_test+0x4c4>
     44c:	00000000 	nop
     450:	00000000 	nop
     454:	00000021 	move	zero,zero
     458:	00000021 	move	zero,zero
     45c:	00000021 	move	zero,zero
     460:	00000021 	move	zero,zero
     464:	00000021 	move	zero,zero
     468:	00000021 	move	zero,zero
     46c:	00000021 	move	zero,zero
     470:	00000021 	move	zero,zero
     474:	00000021 	move	zero,zero
     478:	00000021 	move	zero,zero
     47c:	00000021 	move	zero,zero
     480:	00000021 	move	zero,zero
     484:	00000021 	move	zero,zero
     488:	00000021 	move	zero,zero
     48c:	3c08c737 	lui	t0,0xc737
     490:	350819a0 	ori	t0,t0,0x19a0
     494:	1d00ffe9 	bgtz	t0,43c <n32_bgtz_test+0x43c>
     498:	00000000 	nop
     49c:	10000009 	b	4c4 <n32_bgtz_test+0x4c4>
     4a0:	00000000 	nop
     4a4:	00000000 	nop
     4a8:	00000021 	move	zero,zero
     4ac:	00000021 	move	zero,zero
     4b0:	00000021 	move	zero,zero
     4b4:	00000021 	move	zero,zero
     4b8:	00000021 	move	zero,zero
     4bc:	3c12d325 	lui	s2,0xd325
     4c0:	3652d5c0 	ori	s2,s2,0xd5c0
     4c4:	00000000 	nop
     4c8:	24140000 	li	s4,0
     4cc:	16142791 	bne	s0,s4,a314 <inst_error>
     4d0:	00000000 	nop
     4d4:	00000000 	nop
     4d8:	24150000 	li	s5,0
     4dc:	1655278d 	bne	s2,s5,a314 <inst_error>
     4e0:	00000000 	nop
     4e4:	00000000 	nop
     4e8:	3c0c487a 	lui	t4,0x487a
     4ec:	358ca5f8 	ori	t4,t4,0xa5f8
     4f0:	3c0d0cac 	lui	t5,0xcac
     4f4:	35ad5c42 	ori	t5,t5,0x5c42
     4f8:	24100000 	li	s0,0
     4fc:	10000016 	b	558 <n32_bgtz_test+0x558>
     500:	24120000 	li	s2,0
     504:	00000000 	nop
     508:	3c10487a 	lui	s0,0x487a
     50c:	1d00001e 	bgtz	t0,588 <n32_bgtz_test+0x588>
     510:	3610a5f8 	ori	s0,s0,0xa5f8
     514:	1000001e 	b	590 <n32_bgtz_test+0x590>
     518:	00000000 	nop
     51c:	00000000 	nop
     520:	00000021 	move	zero,zero
     524:	00000021 	move	zero,zero
     528:	00000021 	move	zero,zero
     52c:	00000021 	move	zero,zero
     530:	00000021 	move	zero,zero
     534:	00000021 	move	zero,zero
     538:	00000021 	move	zero,zero
     53c:	00000021 	move	zero,zero
     540:	00000021 	move	zero,zero
     544:	00000021 	move	zero,zero
     548:	00000021 	move	zero,zero
     54c:	00000021 	move	zero,zero
     550:	00000021 	move	zero,zero
     554:	00000021 	move	zero,zero
     558:	3c0829fe 	lui	t0,0x29fe
     55c:	35085c70 	ori	t0,t0,0x5c70
     560:	1d00ffe9 	bgtz	t0,508 <n32_bgtz_test+0x508>
     564:	00000000 	nop
     568:	10000009 	b	590 <n32_bgtz_test+0x590>
     56c:	00000000 	nop
     570:	00000000 	nop
     574:	00000021 	move	zero,zero
     578:	00000021 	move	zero,zero
     57c:	00000021 	move	zero,zero
     580:	00000021 	move	zero,zero
     584:	00000021 	move	zero,zero
     588:	3c120cac 	lui	s2,0xcac
     58c:	36525c42 	ori	s2,s2,0x5c42
     590:	00000000 	nop
     594:	3c14487a 	lui	s4,0x487a
     598:	3694a5f8 	ori	s4,s4,0xa5f8
     59c:	1614275d 	bne	s0,s4,a314 <inst_error>
     5a0:	00000000 	nop
     5a4:	00000000 	nop
     5a8:	3c150cac 	lui	s5,0xcac
     5ac:	36b55c42 	ori	s5,s5,0x5c42
     5b0:	16552758 	bne	s2,s5,a314 <inst_error>
     5b4:	00000000 	nop
     5b8:	00000000 	nop
     5bc:	3c0cc9a2 	lui	t4,0xc9a2
     5c0:	358c683f 	ori	t4,t4,0x683f
     5c4:	3c0deabb 	lui	t5,0xeabb
     5c8:	35adf460 	ori	t5,t5,0xf460
     5cc:	24100000 	li	s0,0
     5d0:	10000016 	b	62c <n32_bgtz_test+0x62c>
     5d4:	24120000 	li	s2,0
     5d8:	00000000 	nop
     5dc:	3c10c9a2 	lui	s0,0xc9a2
     5e0:	1d00001e 	bgtz	t0,65c <n32_bgtz_test+0x65c>
     5e4:	3610683f 	ori	s0,s0,0x683f
     5e8:	1000001e 	b	664 <n32_bgtz_test+0x664>
     5ec:	00000000 	nop
     5f0:	00000000 	nop
     5f4:	00000021 	move	zero,zero
     5f8:	00000021 	move	zero,zero
     5fc:	00000021 	move	zero,zero
     600:	00000021 	move	zero,zero
     604:	00000021 	move	zero,zero
     608:	00000021 	move	zero,zero
     60c:	00000021 	move	zero,zero
     610:	00000021 	move	zero,zero
     614:	00000021 	move	zero,zero
     618:	00000021 	move	zero,zero
     61c:	00000021 	move	zero,zero
     620:	00000021 	move	zero,zero
     624:	00000021 	move	zero,zero
     628:	00000021 	move	zero,zero
     62c:	3c081433 	lui	t0,0x1433
     630:	3508f468 	ori	t0,t0,0xf468
     634:	1d00ffe9 	bgtz	t0,5dc <n32_bgtz_test+0x5dc>
     638:	00000000 	nop
     63c:	10000009 	b	664 <n32_bgtz_test+0x664>
     640:	00000000 	nop
     644:	00000000 	nop
     648:	00000021 	move	zero,zero
     64c:	00000021 	move	zero,zero
     650:	00000021 	move	zero,zero
     654:	00000021 	move	zero,zero
     658:	00000021 	move	zero,zero
     65c:	3c12eabb 	lui	s2,0xeabb
     660:	3652f460 	ori	s2,s2,0xf460
     664:	00000000 	nop
     668:	3c14c9a2 	lui	s4,0xc9a2
     66c:	3694683f 	ori	s4,s4,0x683f
     670:	16142728 	bne	s0,s4,a314 <inst_error>
     674:	00000000 	nop
     678:	00000000 	nop
     67c:	3c15eabb 	lui	s5,0xeabb
     680:	36b5f460 	ori	s5,s5,0xf460
     684:	16552723 	bne	s2,s5,a314 <inst_error>
     688:	00000000 	nop
     68c:	00000000 	nop
     690:	3c0c7c4d 	lui	t4,0x7c4d
     694:	358c2cf9 	ori	t4,t4,0x2cf9
     698:	3c0d7899 	lui	t5,0x7899
     69c:	35add420 	ori	t5,t5,0xd420
     6a0:	24100000 	li	s0,0
     6a4:	10000016 	b	700 <n32_bgtz_test+0x700>
     6a8:	24120000 	li	s2,0
     6ac:	00000000 	nop
     6b0:	3c107c4d 	lui	s0,0x7c4d
     6b4:	1d00001e 	bgtz	t0,730 <n32_bgtz_test+0x730>
     6b8:	36102cf9 	ori	s0,s0,0x2cf9
     6bc:	1000001e 	b	738 <n32_bgtz_test+0x738>
     6c0:	00000000 	nop
     6c4:	00000000 	nop
     6c8:	00000021 	move	zero,zero
     6cc:	00000021 	move	zero,zero
     6d0:	00000021 	move	zero,zero
     6d4:	00000021 	move	zero,zero
     6d8:	00000021 	move	zero,zero
     6dc:	00000021 	move	zero,zero
     6e0:	00000021 	move	zero,zero
     6e4:	00000021 	move	zero,zero
     6e8:	00000021 	move	zero,zero
     6ec:	00000021 	move	zero,zero
     6f0:	00000021 	move	zero,zero
     6f4:	00000021 	move	zero,zero
     6f8:	00000021 	move	zero,zero
     6fc:	00000021 	move	zero,zero
     700:	3c0824de 	lui	t0,0x24de
     704:	35085ef2 	ori	t0,t0,0x5ef2
     708:	1d00ffe9 	bgtz	t0,6b0 <n32_bgtz_test+0x6b0>
     70c:	00000000 	nop
     710:	10000009 	b	738 <n32_bgtz_test+0x738>
     714:	00000000 	nop
     718:	00000000 	nop
     71c:	00000021 	move	zero,zero
     720:	00000021 	move	zero,zero
     724:	00000021 	move	zero,zero
     728:	00000021 	move	zero,zero
     72c:	00000021 	move	zero,zero
     730:	3c127899 	lui	s2,0x7899
     734:	3652d420 	ori	s2,s2,0xd420
     738:	00000000 	nop
     73c:	3c147c4d 	lui	s4,0x7c4d
     740:	36942cf9 	ori	s4,s4,0x2cf9
     744:	161426f3 	bne	s0,s4,a314 <inst_error>
     748:	00000000 	nop
     74c:	00000000 	nop
     750:	3c157899 	lui	s5,0x7899
     754:	36b5d420 	ori	s5,s5,0xd420
     758:	165526ee 	bne	s2,s5,a314 <inst_error>
     75c:	00000000 	nop
     760:	00000000 	nop
     764:	3c0cb671 	lui	t4,0xb671
     768:	358c05f0 	ori	t4,t4,0x5f0
     76c:	3c0d265c 	lui	t5,0x265c
     770:	35ad5984 	ori	t5,t5,0x5984
     774:	24100000 	li	s0,0
     778:	10000016 	b	7d4 <n32_bgtz_test+0x7d4>
     77c:	24120000 	li	s2,0
     780:	00000000 	nop
     784:	3c10b671 	lui	s0,0xb671
     788:	1d00001e 	bgtz	t0,804 <n32_bgtz_test+0x804>
     78c:	361005f0 	ori	s0,s0,0x5f0
     790:	1000001e 	b	80c <n32_bgtz_test+0x80c>
     794:	00000000 	nop
     798:	00000000 	nop
     79c:	00000021 	move	zero,zero
     7a0:	00000021 	move	zero,zero
     7a4:	00000021 	move	zero,zero
     7a8:	00000021 	move	zero,zero
     7ac:	00000021 	move	zero,zero
     7b0:	00000021 	move	zero,zero
     7b4:	00000021 	move	zero,zero
     7b8:	00000021 	move	zero,zero
     7bc:	00000021 	move	zero,zero
     7c0:	00000021 	move	zero,zero
     7c4:	00000021 	move	zero,zero
     7c8:	00000021 	move	zero,zero
     7cc:	00000021 	move	zero,zero
     7d0:	00000021 	move	zero,zero
     7d4:	3c0860a7 	lui	t0,0x60a7
     7d8:	35089438 	ori	t0,t0,0x9438
     7dc:	1d00ffe9 	bgtz	t0,784 <n32_bgtz_test+0x784>
     7e0:	00000000 	nop
     7e4:	10000009 	b	80c <n32_bgtz_test+0x80c>
     7e8:	00000000 	nop
     7ec:	00000000 	nop
     7f0:	00000021 	move	zero,zero
     7f4:	00000021 	move	zero,zero
     7f8:	00000021 	move	zero,zero
     7fc:	00000021 	move	zero,zero
     800:	00000021 	move	zero,zero
     804:	3c12265c 	lui	s2,0x265c
     808:	36525984 	ori	s2,s2,0x5984
     80c:	00000000 	nop
     810:	3c14b671 	lui	s4,0xb671
     814:	369405f0 	ori	s4,s4,0x5f0
     818:	161426be 	bne	s0,s4,a314 <inst_error>
     81c:	00000000 	nop
     820:	00000000 	nop
     824:	3c15265c 	lui	s5,0x265c
     828:	36b55984 	ori	s5,s5,0x5984
     82c:	165526b9 	bne	s2,s5,a314 <inst_error>
     830:	00000000 	nop
     834:	00000000 	nop
     838:	3c0c0474 	lui	t4,0x474
     83c:	358cd400 	ori	t4,t4,0xd400
     840:	3c0d33c2 	lui	t5,0x33c2
     844:	35ad383c 	ori	t5,t5,0x383c
     848:	24100000 	li	s0,0
     84c:	10000016 	b	8a8 <n32_bgtz_test+0x8a8>
     850:	24120000 	li	s2,0
     854:	00000000 	nop
     858:	3c100474 	lui	s0,0x474
     85c:	1d00001e 	bgtz	t0,8d8 <n32_bgtz_test+0x8d8>
     860:	3610d400 	ori	s0,s0,0xd400
     864:	1000001e 	b	8e0 <n32_bgtz_test+0x8e0>
     868:	00000000 	nop
     86c:	00000000 	nop
     870:	00000021 	move	zero,zero
     874:	00000021 	move	zero,zero
     878:	00000021 	move	zero,zero
     87c:	00000021 	move	zero,zero
     880:	00000021 	move	zero,zero
     884:	00000021 	move	zero,zero
     888:	00000021 	move	zero,zero
     88c:	00000021 	move	zero,zero
     890:	00000021 	move	zero,zero
     894:	00000021 	move	zero,zero
     898:	00000021 	move	zero,zero
     89c:	00000021 	move	zero,zero
     8a0:	00000021 	move	zero,zero
     8a4:	00000021 	move	zero,zero
     8a8:	3c088618 	lui	t0,0x8618
     8ac:	35087dac 	ori	t0,t0,0x7dac
     8b0:	1d00ffe9 	bgtz	t0,858 <n32_bgtz_test+0x858>
     8b4:	00000000 	nop
     8b8:	10000009 	b	8e0 <n32_bgtz_test+0x8e0>
     8bc:	00000000 	nop
     8c0:	00000000 	nop
     8c4:	00000021 	move	zero,zero
     8c8:	00000021 	move	zero,zero
     8cc:	00000021 	move	zero,zero
     8d0:	00000021 	move	zero,zero
     8d4:	00000021 	move	zero,zero
     8d8:	3c1233c2 	lui	s2,0x33c2
     8dc:	3652383c 	ori	s2,s2,0x383c
     8e0:	00000000 	nop
     8e4:	24140000 	li	s4,0
     8e8:	1614268a 	bne	s0,s4,a314 <inst_error>
     8ec:	00000000 	nop
     8f0:	00000000 	nop
     8f4:	24150000 	li	s5,0
     8f8:	16552686 	bne	s2,s5,a314 <inst_error>
     8fc:	00000000 	nop
     900:	00000000 	nop
     904:	3c0ced85 	lui	t4,0xed85
     908:	358ca554 	ori	t4,t4,0xa554
     90c:	3c0d8285 	lui	t5,0x8285
     910:	35adf2a0 	ori	t5,t5,0xf2a0
     914:	24100000 	li	s0,0
     918:	10000016 	b	974 <n32_bgtz_test+0x974>
     91c:	24120000 	li	s2,0
     920:	00000000 	nop
     924:	3c10ed85 	lui	s0,0xed85
     928:	1d00001e 	bgtz	t0,9a4 <n32_bgtz_test+0x9a4>
     92c:	3610a554 	ori	s0,s0,0xa554
     930:	1000001e 	b	9ac <n32_bgtz_test+0x9ac>
     934:	00000000 	nop
     938:	00000000 	nop
     93c:	00000021 	move	zero,zero
     940:	00000021 	move	zero,zero
     944:	00000021 	move	zero,zero
     948:	00000021 	move	zero,zero
     94c:	00000021 	move	zero,zero
     950:	00000021 	move	zero,zero
     954:	00000021 	move	zero,zero
     958:	00000021 	move	zero,zero
     95c:	00000021 	move	zero,zero
     960:	00000021 	move	zero,zero
     964:	00000021 	move	zero,zero
     968:	00000021 	move	zero,zero
     96c:	00000021 	move	zero,zero
     970:	00000021 	move	zero,zero
     974:	3c08a558 	lui	t0,0xa558
     978:	35087200 	ori	t0,t0,0x7200
     97c:	1d00ffe9 	bgtz	t0,924 <n32_bgtz_test+0x924>
     980:	00000000 	nop
     984:	10000009 	b	9ac <n32_bgtz_test+0x9ac>
     988:	00000000 	nop
     98c:	00000000 	nop
     990:	00000021 	move	zero,zero
     994:	00000021 	move	zero,zero
     998:	00000021 	move	zero,zero
     99c:	00000021 	move	zero,zero
     9a0:	00000021 	move	zero,zero
     9a4:	3c128285 	lui	s2,0x8285
     9a8:	3652f2a0 	ori	s2,s2,0xf2a0
     9ac:	00000000 	nop
     9b0:	24140000 	li	s4,0
     9b4:	16142657 	bne	s0,s4,a314 <inst_error>
     9b8:	00000000 	nop
     9bc:	00000000 	nop
     9c0:	24150000 	li	s5,0
     9c4:	16552653 	bne	s2,s5,a314 <inst_error>
     9c8:	00000000 	nop
     9cc:	00000000 	nop
     9d0:	3c0cc0b3 	lui	t4,0xc0b3
     9d4:	358c7148 	ori	t4,t4,0x7148
     9d8:	3c0d3ea0 	lui	t5,0x3ea0
     9dc:	35ad6fbf 	ori	t5,t5,0x6fbf
     9e0:	24100000 	li	s0,0
     9e4:	10000016 	b	a40 <n32_bgtz_test+0xa40>
     9e8:	24120000 	li	s2,0
     9ec:	00000000 	nop
     9f0:	3c10c0b3 	lui	s0,0xc0b3
     9f4:	1d00001e 	bgtz	t0,a70 <n32_bgtz_test+0xa70>
     9f8:	36107148 	ori	s0,s0,0x7148
     9fc:	1000001e 	b	a78 <n32_bgtz_test+0xa78>
     a00:	00000000 	nop
     a04:	00000000 	nop
     a08:	00000021 	move	zero,zero
     a0c:	00000021 	move	zero,zero
     a10:	00000021 	move	zero,zero
     a14:	00000021 	move	zero,zero
     a18:	00000021 	move	zero,zero
     a1c:	00000021 	move	zero,zero
     a20:	00000021 	move	zero,zero
     a24:	00000021 	move	zero,zero
     a28:	00000021 	move	zero,zero
     a2c:	00000021 	move	zero,zero
     a30:	00000021 	move	zero,zero
     a34:	00000021 	move	zero,zero
     a38:	00000021 	move	zero,zero
     a3c:	00000021 	move	zero,zero
     a40:	3c0842c0 	lui	t0,0x42c0
     a44:	35085c68 	ori	t0,t0,0x5c68
     a48:	1d00ffe9 	bgtz	t0,9f0 <n32_bgtz_test+0x9f0>
     a4c:	00000000 	nop
     a50:	10000009 	b	a78 <n32_bgtz_test+0xa78>
     a54:	00000000 	nop
     a58:	00000000 	nop
     a5c:	00000021 	move	zero,zero
     a60:	00000021 	move	zero,zero
     a64:	00000021 	move	zero,zero
     a68:	00000021 	move	zero,zero
     a6c:	00000021 	move	zero,zero
     a70:	3c123ea0 	lui	s2,0x3ea0
     a74:	36526fbf 	ori	s2,s2,0x6fbf
     a78:	00000000 	nop
     a7c:	3c14c0b3 	lui	s4,0xc0b3
     a80:	36947148 	ori	s4,s4,0x7148
     a84:	16142623 	bne	s0,s4,a314 <inst_error>
     a88:	00000000 	nop
     a8c:	00000000 	nop
     a90:	3c153ea0 	lui	s5,0x3ea0
     a94:	36b56fbf 	ori	s5,s5,0x6fbf
     a98:	1655261e 	bne	s2,s5,a314 <inst_error>
     a9c:	00000000 	nop
     aa0:	00000000 	nop
     aa4:	3c0c9aa6 	lui	t4,0x9aa6
     aa8:	358cc78e 	ori	t4,t4,0xc78e
     aac:	3c0dab29 	lui	t5,0xab29
     ab0:	35ad5f0c 	ori	t5,t5,0x5f0c
     ab4:	24100000 	li	s0,0
     ab8:	10000016 	b	b14 <n32_bgtz_test+0xb14>
     abc:	24120000 	li	s2,0
     ac0:	00000000 	nop
     ac4:	3c109aa6 	lui	s0,0x9aa6
     ac8:	1d00001e 	bgtz	t0,b44 <n32_bgtz_test+0xb44>
     acc:	3610c78e 	ori	s0,s0,0xc78e
     ad0:	1000001e 	b	b4c <n32_bgtz_test+0xb4c>
     ad4:	00000000 	nop
     ad8:	00000000 	nop
     adc:	00000021 	move	zero,zero
     ae0:	00000021 	move	zero,zero
     ae4:	00000021 	move	zero,zero
     ae8:	00000021 	move	zero,zero
     aec:	00000021 	move	zero,zero
     af0:	00000021 	move	zero,zero
     af4:	00000021 	move	zero,zero
     af8:	00000021 	move	zero,zero
     afc:	00000021 	move	zero,zero
     b00:	00000021 	move	zero,zero
     b04:	00000021 	move	zero,zero
     b08:	00000021 	move	zero,zero
     b0c:	00000021 	move	zero,zero
     b10:	00000021 	move	zero,zero
     b14:	3c082334 	lui	t0,0x2334
     b18:	35080320 	ori	t0,t0,0x320
     b1c:	1d00ffe9 	bgtz	t0,ac4 <n32_bgtz_test+0xac4>
     b20:	00000000 	nop
     b24:	10000009 	b	b4c <n32_bgtz_test+0xb4c>
     b28:	00000000 	nop
     b2c:	00000000 	nop
     b30:	00000021 	move	zero,zero
     b34:	00000021 	move	zero,zero
     b38:	00000021 	move	zero,zero
     b3c:	00000021 	move	zero,zero
     b40:	00000021 	move	zero,zero
     b44:	3c12ab29 	lui	s2,0xab29
     b48:	36525f0c 	ori	s2,s2,0x5f0c
     b4c:	00000000 	nop
     b50:	3c149aa6 	lui	s4,0x9aa6
     b54:	3694c78e 	ori	s4,s4,0xc78e
     b58:	161425ee 	bne	s0,s4,a314 <inst_error>
     b5c:	00000000 	nop
     b60:	00000000 	nop
     b64:	3c15ab29 	lui	s5,0xab29
     b68:	36b55f0c 	ori	s5,s5,0x5f0c
     b6c:	165525e9 	bne	s2,s5,a314 <inst_error>
     b70:	00000000 	nop
     b74:	00000000 	nop
     b78:	3c0cd977 	lui	t4,0xd977
     b7c:	358cd03c 	ori	t4,t4,0xd03c
     b80:	3c0d40de 	lui	t5,0x40de
     b84:	35ad3026 	ori	t5,t5,0x3026
     b88:	24100000 	li	s0,0
     b8c:	10000016 	b	be8 <n32_bgtz_test+0xbe8>
     b90:	24120000 	li	s2,0
     b94:	00000000 	nop
     b98:	3c10d977 	lui	s0,0xd977
     b9c:	1d00001e 	bgtz	t0,c18 <n32_bgtz_test+0xc18>
     ba0:	3610d03c 	ori	s0,s0,0xd03c
     ba4:	1000001e 	b	c20 <n32_bgtz_test+0xc20>
     ba8:	00000000 	nop
     bac:	00000000 	nop
     bb0:	00000021 	move	zero,zero
     bb4:	00000021 	move	zero,zero
     bb8:	00000021 	move	zero,zero
     bbc:	00000021 	move	zero,zero
     bc0:	00000021 	move	zero,zero
     bc4:	00000021 	move	zero,zero
     bc8:	00000021 	move	zero,zero
     bcc:	00000021 	move	zero,zero
     bd0:	00000021 	move	zero,zero
     bd4:	00000021 	move	zero,zero
     bd8:	00000021 	move	zero,zero
     bdc:	00000021 	move	zero,zero
     be0:	00000021 	move	zero,zero
     be4:	00000021 	move	zero,zero
     be8:	3c08b892 	lui	t0,0xb892
     bec:	3508e3a2 	ori	t0,t0,0xe3a2
     bf0:	1d00ffe9 	bgtz	t0,b98 <n32_bgtz_test+0xb98>
     bf4:	00000000 	nop
     bf8:	10000009 	b	c20 <n32_bgtz_test+0xc20>
     bfc:	00000000 	nop
     c00:	00000000 	nop
     c04:	00000021 	move	zero,zero
     c08:	00000021 	move	zero,zero
     c0c:	00000021 	move	zero,zero
     c10:	00000021 	move	zero,zero
     c14:	00000021 	move	zero,zero
     c18:	3c1240de 	lui	s2,0x40de
     c1c:	36523026 	ori	s2,s2,0x3026
     c20:	00000000 	nop
     c24:	24140000 	li	s4,0
     c28:	161425ba 	bne	s0,s4,a314 <inst_error>
     c2c:	00000000 	nop
     c30:	00000000 	nop
     c34:	24150000 	li	s5,0
     c38:	165525b6 	bne	s2,s5,a314 <inst_error>
     c3c:	00000000 	nop
     c40:	00000000 	nop
     c44:	3c0c40cb 	lui	t4,0x40cb
     c48:	358cac60 	ori	t4,t4,0xac60
     c4c:	3c0dec87 	lui	t5,0xec87
     c50:	35add399 	ori	t5,t5,0xd399
     c54:	24100000 	li	s0,0
     c58:	10000016 	b	cb4 <n32_bgtz_test+0xcb4>
     c5c:	24120000 	li	s2,0
     c60:	00000000 	nop
     c64:	3c1040cb 	lui	s0,0x40cb
     c68:	1d00001e 	bgtz	t0,ce4 <n32_bgtz_test+0xce4>
     c6c:	3610ac60 	ori	s0,s0,0xac60
     c70:	1000001e 	b	cec <n32_bgtz_test+0xcec>
     c74:	00000000 	nop
     c78:	00000000 	nop
     c7c:	00000021 	move	zero,zero
     c80:	00000021 	move	zero,zero
     c84:	00000021 	move	zero,zero
     c88:	00000021 	move	zero,zero
     c8c:	00000021 	move	zero,zero
     c90:	00000021 	move	zero,zero
     c94:	00000021 	move	zero,zero
     c98:	00000021 	move	zero,zero
     c9c:	00000021 	move	zero,zero
     ca0:	00000021 	move	zero,zero
     ca4:	00000021 	move	zero,zero
     ca8:	00000021 	move	zero,zero
     cac:	00000021 	move	zero,zero
     cb0:	00000021 	move	zero,zero
     cb4:	3c0851af 	lui	t0,0x51af
     cb8:	3508e044 	ori	t0,t0,0xe044
     cbc:	1d00ffe9 	bgtz	t0,c64 <n32_bgtz_test+0xc64>
     cc0:	00000000 	nop
     cc4:	10000009 	b	cec <n32_bgtz_test+0xcec>
     cc8:	00000000 	nop
     ccc:	00000000 	nop
     cd0:	00000021 	move	zero,zero
     cd4:	00000021 	move	zero,zero
     cd8:	00000021 	move	zero,zero
     cdc:	00000021 	move	zero,zero
     ce0:	00000021 	move	zero,zero
     ce4:	3c12ec87 	lui	s2,0xec87
     ce8:	3652d399 	ori	s2,s2,0xd399
     cec:	00000000 	nop
     cf0:	3c1440cb 	lui	s4,0x40cb
     cf4:	3694ac60 	ori	s4,s4,0xac60
     cf8:	16142586 	bne	s0,s4,a314 <inst_error>
     cfc:	00000000 	nop
     d00:	00000000 	nop
     d04:	3c15ec87 	lui	s5,0xec87
     d08:	36b5d399 	ori	s5,s5,0xd399
     d0c:	16552581 	bne	s2,s5,a314 <inst_error>
     d10:	00000000 	nop
     d14:	00000000 	nop
     d18:	3c0c04cf 	lui	t4,0x4cf
     d1c:	358c009c 	ori	t4,t4,0x9c
     d20:	3c0d29fc 	lui	t5,0x29fc
     d24:	35adf850 	ori	t5,t5,0xf850
     d28:	24100000 	li	s0,0
     d2c:	10000016 	b	d88 <n32_bgtz_test+0xd88>
     d30:	24120000 	li	s2,0
     d34:	00000000 	nop
     d38:	3c1004cf 	lui	s0,0x4cf
     d3c:	1d00001e 	bgtz	t0,db8 <n32_bgtz_test+0xdb8>
     d40:	3610009c 	ori	s0,s0,0x9c
     d44:	1000001e 	b	dc0 <n32_bgtz_test+0xdc0>
     d48:	00000000 	nop
     d4c:	00000000 	nop
     d50:	00000021 	move	zero,zero
     d54:	00000021 	move	zero,zero
     d58:	00000021 	move	zero,zero
     d5c:	00000021 	move	zero,zero
     d60:	00000021 	move	zero,zero
     d64:	00000021 	move	zero,zero
     d68:	00000021 	move	zero,zero
     d6c:	00000021 	move	zero,zero
     d70:	00000021 	move	zero,zero
     d74:	00000021 	move	zero,zero
     d78:	00000021 	move	zero,zero
     d7c:	00000021 	move	zero,zero
     d80:	00000021 	move	zero,zero
     d84:	00000021 	move	zero,zero
     d88:	3c089123 	lui	t0,0x9123
     d8c:	35085cf0 	ori	t0,t0,0x5cf0
     d90:	1d00ffe9 	bgtz	t0,d38 <n32_bgtz_test+0xd38>
     d94:	00000000 	nop
     d98:	10000009 	b	dc0 <n32_bgtz_test+0xdc0>
     d9c:	00000000 	nop
     da0:	00000000 	nop
     da4:	00000021 	move	zero,zero
     da8:	00000021 	move	zero,zero
     dac:	00000021 	move	zero,zero
     db0:	00000021 	move	zero,zero
     db4:	00000021 	move	zero,zero
     db8:	3c1229fc 	lui	s2,0x29fc
     dbc:	3652f850 	ori	s2,s2,0xf850
     dc0:	00000000 	nop
     dc4:	24140000 	li	s4,0
     dc8:	16142552 	bne	s0,s4,a314 <inst_error>
     dcc:	00000000 	nop
     dd0:	00000000 	nop
     dd4:	24150000 	li	s5,0
     dd8:	1655254e 	bne	s2,s5,a314 <inst_error>
     ddc:	00000000 	nop
     de0:	00000000 	nop
     de4:	3c0c019b 	lui	t4,0x19b
     de8:	358c8fb1 	ori	t4,t4,0x8fb1
     dec:	3c0d6804 	lui	t5,0x6804
     df0:	35ad74d1 	ori	t5,t5,0x74d1
     df4:	24100000 	li	s0,0
     df8:	10000016 	b	e54 <n32_bgtz_test+0xe54>
     dfc:	24120000 	li	s2,0
     e00:	00000000 	nop
     e04:	3c10019b 	lui	s0,0x19b
     e08:	1d00001e 	bgtz	t0,e84 <n32_bgtz_test+0xe84>
     e0c:	36108fb1 	ori	s0,s0,0x8fb1
     e10:	1000001e 	b	e8c <n32_bgtz_test+0xe8c>
     e14:	00000000 	nop
     e18:	00000000 	nop
     e1c:	00000021 	move	zero,zero
     e20:	00000021 	move	zero,zero
     e24:	00000021 	move	zero,zero
     e28:	00000021 	move	zero,zero
     e2c:	00000021 	move	zero,zero
     e30:	00000021 	move	zero,zero
     e34:	00000021 	move	zero,zero
     e38:	00000021 	move	zero,zero
     e3c:	00000021 	move	zero,zero
     e40:	00000021 	move	zero,zero
     e44:	00000021 	move	zero,zero
     e48:	00000021 	move	zero,zero
     e4c:	00000021 	move	zero,zero
     e50:	00000021 	move	zero,zero
     e54:	3c081dab 	lui	t0,0x1dab
     e58:	3508852d 	ori	t0,t0,0x852d
     e5c:	1d00ffe9 	bgtz	t0,e04 <n32_bgtz_test+0xe04>
     e60:	00000000 	nop
     e64:	10000009 	b	e8c <n32_bgtz_test+0xe8c>
     e68:	00000000 	nop
     e6c:	00000000 	nop
     e70:	00000021 	move	zero,zero
     e74:	00000021 	move	zero,zero
     e78:	00000021 	move	zero,zero
     e7c:	00000021 	move	zero,zero
     e80:	00000021 	move	zero,zero
     e84:	3c126804 	lui	s2,0x6804
     e88:	365274d1 	ori	s2,s2,0x74d1
     e8c:	00000000 	nop
     e90:	3c14019b 	lui	s4,0x19b
     e94:	36948fb1 	ori	s4,s4,0x8fb1
     e98:	1614251e 	bne	s0,s4,a314 <inst_error>
     e9c:	00000000 	nop
     ea0:	00000000 	nop
     ea4:	3c156804 	lui	s5,0x6804
     ea8:	36b574d1 	ori	s5,s5,0x74d1
     eac:	16552519 	bne	s2,s5,a314 <inst_error>
     eb0:	00000000 	nop
     eb4:	00000000 	nop
     eb8:	3c0ce73c 	lui	t4,0xe73c
     ebc:	358ca9c0 	ori	t4,t4,0xa9c0
     ec0:	3c0d8a57 	lui	t5,0x8a57
     ec4:	35ad4ef0 	ori	t5,t5,0x4ef0
     ec8:	24100000 	li	s0,0
     ecc:	10000016 	b	f28 <n32_bgtz_test+0xf28>
     ed0:	24120000 	li	s2,0
     ed4:	00000000 	nop
     ed8:	3c10e73c 	lui	s0,0xe73c
     edc:	1d00001e 	bgtz	t0,f58 <n32_bgtz_test+0xf58>
     ee0:	3610a9c0 	ori	s0,s0,0xa9c0
     ee4:	1000001e 	b	f60 <n32_bgtz_test+0xf60>
     ee8:	00000000 	nop
     eec:	00000000 	nop
     ef0:	00000021 	move	zero,zero
     ef4:	00000021 	move	zero,zero
     ef8:	00000021 	move	zero,zero
     efc:	00000021 	move	zero,zero
     f00:	00000021 	move	zero,zero
     f04:	00000021 	move	zero,zero
     f08:	00000021 	move	zero,zero
     f0c:	00000021 	move	zero,zero
     f10:	00000021 	move	zero,zero
     f14:	00000021 	move	zero,zero
     f18:	00000021 	move	zero,zero
     f1c:	00000021 	move	zero,zero
     f20:	00000021 	move	zero,zero
     f24:	00000021 	move	zero,zero
     f28:	3c08d565 	lui	t0,0xd565
     f2c:	350887e1 	ori	t0,t0,0x87e1
     f30:	1d00ffe9 	bgtz	t0,ed8 <n32_bgtz_test+0xed8>
     f34:	00000000 	nop
     f38:	10000009 	b	f60 <n32_bgtz_test+0xf60>
     f3c:	00000000 	nop
     f40:	00000000 	nop
     f44:	00000021 	move	zero,zero
     f48:	00000021 	move	zero,zero
     f4c:	00000021 	move	zero,zero
     f50:	00000021 	move	zero,zero
     f54:	00000021 	move	zero,zero
     f58:	3c128a57 	lui	s2,0x8a57
     f5c:	36524ef0 	ori	s2,s2,0x4ef0
     f60:	00000000 	nop
     f64:	24140000 	li	s4,0
     f68:	161424ea 	bne	s0,s4,a314 <inst_error>
     f6c:	00000000 	nop
     f70:	00000000 	nop
     f74:	24150000 	li	s5,0
     f78:	165524e6 	bne	s2,s5,a314 <inst_error>
     f7c:	00000000 	nop
     f80:	00000000 	nop
     f84:	3c0c7e51 	lui	t4,0x7e51
     f88:	358c854f 	ori	t4,t4,0x854f
     f8c:	3c0dbc02 	lui	t5,0xbc02
     f90:	35ad95c0 	ori	t5,t5,0x95c0
     f94:	24100000 	li	s0,0
     f98:	10000016 	b	ff4 <n32_bgtz_test+0xff4>
     f9c:	24120000 	li	s2,0
     fa0:	00000000 	nop
     fa4:	3c107e51 	lui	s0,0x7e51
     fa8:	1d00001e 	bgtz	t0,1024 <n32_bgtz_test+0x1024>
     fac:	3610854f 	ori	s0,s0,0x854f
     fb0:	1000001e 	b	102c <n32_bgtz_test+0x102c>
     fb4:	00000000 	nop
     fb8:	00000000 	nop
     fbc:	00000021 	move	zero,zero
     fc0:	00000021 	move	zero,zero
     fc4:	00000021 	move	zero,zero
     fc8:	00000021 	move	zero,zero
     fcc:	00000021 	move	zero,zero
     fd0:	00000021 	move	zero,zero
     fd4:	00000021 	move	zero,zero
     fd8:	00000021 	move	zero,zero
     fdc:	00000021 	move	zero,zero
     fe0:	00000021 	move	zero,zero
     fe4:	00000021 	move	zero,zero
     fe8:	00000021 	move	zero,zero
     fec:	00000021 	move	zero,zero
     ff0:	00000021 	move	zero,zero
     ff4:	3c08afc1 	lui	t0,0xafc1
     ff8:	35087ba2 	ori	t0,t0,0x7ba2
     ffc:	1d00ffe9 	bgtz	t0,fa4 <n32_bgtz_test+0xfa4>
    1000:	00000000 	nop
    1004:	10000009 	b	102c <n32_bgtz_test+0x102c>
    1008:	00000000 	nop
    100c:	00000000 	nop
    1010:	00000021 	move	zero,zero
    1014:	00000021 	move	zero,zero
    1018:	00000021 	move	zero,zero
    101c:	00000021 	move	zero,zero
    1020:	00000021 	move	zero,zero
    1024:	3c12bc02 	lui	s2,0xbc02
    1028:	365295c0 	ori	s2,s2,0x95c0
    102c:	00000000 	nop
    1030:	24140000 	li	s4,0
    1034:	161424b7 	bne	s0,s4,a314 <inst_error>
    1038:	00000000 	nop
    103c:	00000000 	nop
    1040:	24150000 	li	s5,0
    1044:	165524b3 	bne	s2,s5,a314 <inst_error>
    1048:	00000000 	nop
    104c:	00000000 	nop
    1050:	3c0c38fc 	lui	t4,0x38fc
    1054:	358cc6c0 	ori	t4,t4,0xc6c0
    1058:	3c0d58f2 	lui	t5,0x58f2
    105c:	35adfb68 	ori	t5,t5,0xfb68
    1060:	24100000 	li	s0,0
    1064:	10000016 	b	10c0 <n32_bgtz_test+0x10c0>
    1068:	24120000 	li	s2,0
    106c:	00000000 	nop
    1070:	3c1038fc 	lui	s0,0x38fc
    1074:	1d00001e 	bgtz	t0,10f0 <n32_bgtz_test+0x10f0>
    1078:	3610c6c0 	ori	s0,s0,0xc6c0
    107c:	1000001e 	b	10f8 <n32_bgtz_test+0x10f8>
    1080:	00000000 	nop
    1084:	00000000 	nop
    1088:	00000021 	move	zero,zero
    108c:	00000021 	move	zero,zero
    1090:	00000021 	move	zero,zero
    1094:	00000021 	move	zero,zero
    1098:	00000021 	move	zero,zero
    109c:	00000021 	move	zero,zero
    10a0:	00000021 	move	zero,zero
    10a4:	00000021 	move	zero,zero
    10a8:	00000021 	move	zero,zero
    10ac:	00000021 	move	zero,zero
    10b0:	00000021 	move	zero,zero
    10b4:	00000021 	move	zero,zero
    10b8:	00000021 	move	zero,zero
    10bc:	00000021 	move	zero,zero
    10c0:	3c088b42 	lui	t0,0x8b42
    10c4:	35082e64 	ori	t0,t0,0x2e64
    10c8:	1d00ffe9 	bgtz	t0,1070 <n32_bgtz_test+0x1070>
    10cc:	00000000 	nop
    10d0:	10000009 	b	10f8 <n32_bgtz_test+0x10f8>
    10d4:	00000000 	nop
    10d8:	00000000 	nop
    10dc:	00000021 	move	zero,zero
    10e0:	00000021 	move	zero,zero
    10e4:	00000021 	move	zero,zero
    10e8:	00000021 	move	zero,zero
    10ec:	00000021 	move	zero,zero
    10f0:	3c1258f2 	lui	s2,0x58f2
    10f4:	3652fb68 	ori	s2,s2,0xfb68
    10f8:	00000000 	nop
    10fc:	24140000 	li	s4,0
    1100:	16142484 	bne	s0,s4,a314 <inst_error>
    1104:	00000000 	nop
    1108:	00000000 	nop
    110c:	24150000 	li	s5,0
    1110:	16552480 	bne	s2,s5,a314 <inst_error>
    1114:	00000000 	nop
    1118:	00000000 	nop
    111c:	3c0c96e1 	lui	t4,0x96e1
    1120:	358cc737 	ori	t4,t4,0xc737
    1124:	3c0d5258 	lui	t5,0x5258
    1128:	35ade894 	ori	t5,t5,0xe894
    112c:	24100000 	li	s0,0
    1130:	10000016 	b	118c <n32_bgtz_test+0x118c>
    1134:	24120000 	li	s2,0
    1138:	00000000 	nop
    113c:	3c1096e1 	lui	s0,0x96e1
    1140:	1d00001e 	bgtz	t0,11bc <n32_bgtz_test+0x11bc>
    1144:	3610c737 	ori	s0,s0,0xc737
    1148:	1000001e 	b	11c4 <n32_bgtz_test+0x11c4>
    114c:	00000000 	nop
    1150:	00000000 	nop
    1154:	00000021 	move	zero,zero
    1158:	00000021 	move	zero,zero
    115c:	00000021 	move	zero,zero
    1160:	00000021 	move	zero,zero
    1164:	00000021 	move	zero,zero
    1168:	00000021 	move	zero,zero
    116c:	00000021 	move	zero,zero
    1170:	00000021 	move	zero,zero
    1174:	00000021 	move	zero,zero
    1178:	00000021 	move	zero,zero
    117c:	00000021 	move	zero,zero
    1180:	00000021 	move	zero,zero
    1184:	00000021 	move	zero,zero
    1188:	00000021 	move	zero,zero
    118c:	3c082ce3 	lui	t0,0x2ce3
    1190:	35084fa4 	ori	t0,t0,0x4fa4
    1194:	1d00ffe9 	bgtz	t0,113c <n32_bgtz_test+0x113c>
    1198:	00000000 	nop
    119c:	10000009 	b	11c4 <n32_bgtz_test+0x11c4>
    11a0:	00000000 	nop
    11a4:	00000000 	nop
    11a8:	00000021 	move	zero,zero
    11ac:	00000021 	move	zero,zero
    11b0:	00000021 	move	zero,zero
    11b4:	00000021 	move	zero,zero
    11b8:	00000021 	move	zero,zero
    11bc:	3c125258 	lui	s2,0x5258
    11c0:	3652e894 	ori	s2,s2,0xe894
    11c4:	00000000 	nop
    11c8:	3c1496e1 	lui	s4,0x96e1
    11cc:	3694c737 	ori	s4,s4,0xc737
    11d0:	16142450 	bne	s0,s4,a314 <inst_error>
    11d4:	00000000 	nop
    11d8:	00000000 	nop
    11dc:	3c155258 	lui	s5,0x5258
    11e0:	36b5e894 	ori	s5,s5,0xe894
    11e4:	1655244b 	bne	s2,s5,a314 <inst_error>
    11e8:	00000000 	nop
    11ec:	00000000 	nop
    11f0:	3c0cf32a 	lui	t4,0xf32a
    11f4:	358ca000 	ori	t4,t4,0xa000
    11f8:	3c0de416 	lui	t5,0xe416
    11fc:	35ad8ba0 	ori	t5,t5,0x8ba0
    1200:	24100000 	li	s0,0
    1204:	10000016 	b	1260 <n32_bgtz_test+0x1260>
    1208:	24120000 	li	s2,0
    120c:	00000000 	nop
    1210:	3c10f32a 	lui	s0,0xf32a
    1214:	1d00001e 	bgtz	t0,1290 <n32_bgtz_test+0x1290>
    1218:	3610a000 	ori	s0,s0,0xa000
    121c:	1000001e 	b	1298 <n32_bgtz_test+0x1298>
    1220:	00000000 	nop
    1224:	00000000 	nop
    1228:	00000021 	move	zero,zero
    122c:	00000021 	move	zero,zero
    1230:	00000021 	move	zero,zero
    1234:	00000021 	move	zero,zero
    1238:	00000021 	move	zero,zero
    123c:	00000021 	move	zero,zero
    1240:	00000021 	move	zero,zero
    1244:	00000021 	move	zero,zero
    1248:	00000021 	move	zero,zero
    124c:	00000021 	move	zero,zero
    1250:	00000021 	move	zero,zero
    1254:	00000021 	move	zero,zero
    1258:	00000021 	move	zero,zero
    125c:	00000021 	move	zero,zero
    1260:	3c08ff12 	lui	t0,0xff12
    1264:	35089164 	ori	t0,t0,0x9164
    1268:	1d00ffe9 	bgtz	t0,1210 <n32_bgtz_test+0x1210>
    126c:	00000000 	nop
    1270:	10000009 	b	1298 <n32_bgtz_test+0x1298>
    1274:	00000000 	nop
    1278:	00000000 	nop
    127c:	00000021 	move	zero,zero
    1280:	00000021 	move	zero,zero
    1284:	00000021 	move	zero,zero
    1288:	00000021 	move	zero,zero
    128c:	00000021 	move	zero,zero
    1290:	3c12e416 	lui	s2,0xe416
    1294:	36528ba0 	ori	s2,s2,0x8ba0
    1298:	00000000 	nop
    129c:	24140000 	li	s4,0
    12a0:	1614241c 	bne	s0,s4,a314 <inst_error>
    12a4:	00000000 	nop
    12a8:	00000000 	nop
    12ac:	24150000 	li	s5,0
    12b0:	16552418 	bne	s2,s5,a314 <inst_error>
    12b4:	00000000 	nop
    12b8:	00000000 	nop
    12bc:	3c0c8b7f 	lui	t4,0x8b7f
    12c0:	358c374a 	ori	t4,t4,0x374a
    12c4:	3c0d2e91 	lui	t5,0x2e91
    12c8:	35ad99db 	ori	t5,t5,0x99db
    12cc:	24100000 	li	s0,0
    12d0:	10000016 	b	132c <n32_bgtz_test+0x132c>
    12d4:	24120000 	li	s2,0
    12d8:	00000000 	nop
    12dc:	3c108b7f 	lui	s0,0x8b7f
    12e0:	1d00001e 	bgtz	t0,135c <n32_bgtz_test+0x135c>
    12e4:	3610374a 	ori	s0,s0,0x374a
    12e8:	1000001e 	b	1364 <n32_bgtz_test+0x1364>
    12ec:	00000000 	nop
    12f0:	00000000 	nop
    12f4:	00000021 	move	zero,zero
    12f8:	00000021 	move	zero,zero
    12fc:	00000021 	move	zero,zero
    1300:	00000021 	move	zero,zero
    1304:	00000021 	move	zero,zero
    1308:	00000021 	move	zero,zero
    130c:	00000021 	move	zero,zero
    1310:	00000021 	move	zero,zero
    1314:	00000021 	move	zero,zero
    1318:	00000021 	move	zero,zero
    131c:	00000021 	move	zero,zero
    1320:	00000021 	move	zero,zero
    1324:	00000021 	move	zero,zero
    1328:	00000021 	move	zero,zero
    132c:	3c08668b 	lui	t0,0x668b
    1330:	3508cf90 	ori	t0,t0,0xcf90
    1334:	1d00ffe9 	bgtz	t0,12dc <n32_bgtz_test+0x12dc>
    1338:	00000000 	nop
    133c:	10000009 	b	1364 <n32_bgtz_test+0x1364>
    1340:	00000000 	nop
    1344:	00000000 	nop
    1348:	00000021 	move	zero,zero
    134c:	00000021 	move	zero,zero
    1350:	00000021 	move	zero,zero
    1354:	00000021 	move	zero,zero
    1358:	00000021 	move	zero,zero
    135c:	3c122e91 	lui	s2,0x2e91
    1360:	365299db 	ori	s2,s2,0x99db
    1364:	00000000 	nop
    1368:	3c148b7f 	lui	s4,0x8b7f
    136c:	3694374a 	ori	s4,s4,0x374a
    1370:	161423e8 	bne	s0,s4,a314 <inst_error>
    1374:	00000000 	nop
    1378:	00000000 	nop
    137c:	3c152e91 	lui	s5,0x2e91
    1380:	36b599db 	ori	s5,s5,0x99db
    1384:	165523e3 	bne	s2,s5,a314 <inst_error>
    1388:	00000000 	nop
    138c:	00000000 	nop
    1390:	3c0c8cd6 	lui	t4,0x8cd6
    1394:	358c36af 	ori	t4,t4,0x36af
    1398:	3c0d8c1b 	lui	t5,0x8c1b
    139c:	35ad69fc 	ori	t5,t5,0x69fc
    13a0:	24100000 	li	s0,0
    13a4:	10000016 	b	1400 <n32_bgtz_test+0x1400>
    13a8:	24120000 	li	s2,0
    13ac:	00000000 	nop
    13b0:	3c108cd6 	lui	s0,0x8cd6
    13b4:	1d00001e 	bgtz	t0,1430 <n32_bgtz_test+0x1430>
    13b8:	361036af 	ori	s0,s0,0x36af
    13bc:	1000001e 	b	1438 <n32_bgtz_test+0x1438>
    13c0:	00000000 	nop
    13c4:	00000000 	nop
    13c8:	00000021 	move	zero,zero
    13cc:	00000021 	move	zero,zero
    13d0:	00000021 	move	zero,zero
    13d4:	00000021 	move	zero,zero
    13d8:	00000021 	move	zero,zero
    13dc:	00000021 	move	zero,zero
    13e0:	00000021 	move	zero,zero
    13e4:	00000021 	move	zero,zero
    13e8:	00000021 	move	zero,zero
    13ec:	00000021 	move	zero,zero
    13f0:	00000021 	move	zero,zero
    13f4:	00000021 	move	zero,zero
    13f8:	00000021 	move	zero,zero
    13fc:	00000021 	move	zero,zero
    1400:	3c085508 	lui	t0,0x5508
    1404:	3508e680 	ori	t0,t0,0xe680
    1408:	1d00ffe9 	bgtz	t0,13b0 <n32_bgtz_test+0x13b0>
    140c:	00000000 	nop
    1410:	10000009 	b	1438 <n32_bgtz_test+0x1438>
    1414:	00000000 	nop
    1418:	00000000 	nop
    141c:	00000021 	move	zero,zero
    1420:	00000021 	move	zero,zero
    1424:	00000021 	move	zero,zero
    1428:	00000021 	move	zero,zero
    142c:	00000021 	move	zero,zero
    1430:	3c128c1b 	lui	s2,0x8c1b
    1434:	365269fc 	ori	s2,s2,0x69fc
    1438:	00000000 	nop
    143c:	3c148cd6 	lui	s4,0x8cd6
    1440:	369436af 	ori	s4,s4,0x36af
    1444:	161423b3 	bne	s0,s4,a314 <inst_error>
    1448:	00000000 	nop
    144c:	00000000 	nop
    1450:	3c158c1b 	lui	s5,0x8c1b
    1454:	36b569fc 	ori	s5,s5,0x69fc
    1458:	165523ae 	bne	s2,s5,a314 <inst_error>
    145c:	00000000 	nop
    1460:	00000000 	nop
    1464:	3c0c0a6b 	lui	t4,0xa6b
    1468:	358c4964 	ori	t4,t4,0x4964
    146c:	3c0d27bd 	lui	t5,0x27bd
    1470:	35ad35e2 	ori	t5,t5,0x35e2
    1474:	24100000 	li	s0,0
    1478:	10000016 	b	14d4 <n32_bgtz_test+0x14d4>
    147c:	24120000 	li	s2,0
    1480:	00000000 	nop
    1484:	3c100a6b 	lui	s0,0xa6b
    1488:	1d00001e 	bgtz	t0,1504 <n32_bgtz_test+0x1504>
    148c:	36104964 	ori	s0,s0,0x4964
    1490:	1000001e 	b	150c <n32_bgtz_test+0x150c>
    1494:	00000000 	nop
    1498:	00000000 	nop
    149c:	00000021 	move	zero,zero
    14a0:	00000021 	move	zero,zero
    14a4:	00000021 	move	zero,zero
    14a8:	00000021 	move	zero,zero
    14ac:	00000021 	move	zero,zero
    14b0:	00000021 	move	zero,zero
    14b4:	00000021 	move	zero,zero
    14b8:	00000021 	move	zero,zero
    14bc:	00000021 	move	zero,zero
    14c0:	00000021 	move	zero,zero
    14c4:	00000021 	move	zero,zero
    14c8:	00000021 	move	zero,zero
    14cc:	00000021 	move	zero,zero
    14d0:	00000021 	move	zero,zero
    14d4:	3c0879e4 	lui	t0,0x79e4
    14d8:	3508938c 	ori	t0,t0,0x938c
    14dc:	1d00ffe9 	bgtz	t0,1484 <n32_bgtz_test+0x1484>
    14e0:	00000000 	nop
    14e4:	10000009 	b	150c <n32_bgtz_test+0x150c>
    14e8:	00000000 	nop
    14ec:	00000000 	nop
    14f0:	00000021 	move	zero,zero
    14f4:	00000021 	move	zero,zero
    14f8:	00000021 	move	zero,zero
    14fc:	00000021 	move	zero,zero
    1500:	00000021 	move	zero,zero
    1504:	3c1227bd 	lui	s2,0x27bd
    1508:	365235e2 	ori	s2,s2,0x35e2
    150c:	00000000 	nop
    1510:	3c140a6b 	lui	s4,0xa6b
    1514:	36944964 	ori	s4,s4,0x4964
    1518:	1614237e 	bne	s0,s4,a314 <inst_error>
    151c:	00000000 	nop
    1520:	00000000 	nop
    1524:	3c1527bd 	lui	s5,0x27bd
    1528:	36b535e2 	ori	s5,s5,0x35e2
    152c:	16552379 	bne	s2,s5,a314 <inst_error>
    1530:	00000000 	nop
    1534:	00000000 	nop
    1538:	3c0cf876 	lui	t4,0xf876
    153c:	358cf27c 	ori	t4,t4,0xf27c
    1540:	3c0ddebe 	lui	t5,0xdebe
    1544:	35ad3030 	ori	t5,t5,0x3030
    1548:	24100000 	li	s0,0
    154c:	10000016 	b	15a8 <n32_bgtz_test+0x15a8>
    1550:	24120000 	li	s2,0
    1554:	00000000 	nop
    1558:	3c10f876 	lui	s0,0xf876
    155c:	1d00001e 	bgtz	t0,15d8 <n32_bgtz_test+0x15d8>
    1560:	3610f27c 	ori	s0,s0,0xf27c
    1564:	1000001e 	b	15e0 <n32_bgtz_test+0x15e0>
    1568:	00000000 	nop
    156c:	00000000 	nop
    1570:	00000021 	move	zero,zero
    1574:	00000021 	move	zero,zero
    1578:	00000021 	move	zero,zero
    157c:	00000021 	move	zero,zero
    1580:	00000021 	move	zero,zero
    1584:	00000021 	move	zero,zero
    1588:	00000021 	move	zero,zero
    158c:	00000021 	move	zero,zero
    1590:	00000021 	move	zero,zero
    1594:	00000021 	move	zero,zero
    1598:	00000021 	move	zero,zero
    159c:	00000021 	move	zero,zero
    15a0:	00000021 	move	zero,zero
    15a4:	00000021 	move	zero,zero
    15a8:	3c08ed2b 	lui	t0,0xed2b
    15ac:	3508de39 	ori	t0,t0,0xde39
    15b0:	1d00ffe9 	bgtz	t0,1558 <n32_bgtz_test+0x1558>
    15b4:	00000000 	nop
    15b8:	10000009 	b	15e0 <n32_bgtz_test+0x15e0>
    15bc:	00000000 	nop
    15c0:	00000000 	nop
    15c4:	00000021 	move	zero,zero
    15c8:	00000021 	move	zero,zero
    15cc:	00000021 	move	zero,zero
    15d0:	00000021 	move	zero,zero
    15d4:	00000021 	move	zero,zero
    15d8:	3c12debe 	lui	s2,0xdebe
    15dc:	36523030 	ori	s2,s2,0x3030
    15e0:	00000000 	nop
    15e4:	24140000 	li	s4,0
    15e8:	1614234a 	bne	s0,s4,a314 <inst_error>
    15ec:	00000000 	nop
    15f0:	00000000 	nop
    15f4:	24150000 	li	s5,0
    15f8:	16552346 	bne	s2,s5,a314 <inst_error>
    15fc:	00000000 	nop
    1600:	00000000 	nop
    1604:	3c0c75ea 	lui	t4,0x75ea
    1608:	358c4b84 	ori	t4,t4,0x4b84
    160c:	3c0d33a1 	lui	t5,0x33a1
    1610:	35ad8880 	ori	t5,t5,0x8880
    1614:	24100000 	li	s0,0
    1618:	10000016 	b	1674 <n32_bgtz_test+0x1674>
    161c:	24120000 	li	s2,0
    1620:	00000000 	nop
    1624:	3c1075ea 	lui	s0,0x75ea
    1628:	1d00001e 	bgtz	t0,16a4 <n32_bgtz_test+0x16a4>
    162c:	36104b84 	ori	s0,s0,0x4b84
    1630:	1000001e 	b	16ac <n32_bgtz_test+0x16ac>
    1634:	00000000 	nop
    1638:	00000000 	nop
    163c:	00000021 	move	zero,zero
    1640:	00000021 	move	zero,zero
    1644:	00000021 	move	zero,zero
    1648:	00000021 	move	zero,zero
    164c:	00000021 	move	zero,zero
    1650:	00000021 	move	zero,zero
    1654:	00000021 	move	zero,zero
    1658:	00000021 	move	zero,zero
    165c:	00000021 	move	zero,zero
    1660:	00000021 	move	zero,zero
    1664:	00000021 	move	zero,zero
    1668:	00000021 	move	zero,zero
    166c:	00000021 	move	zero,zero
    1670:	00000021 	move	zero,zero
    1674:	3c0894c9 	lui	t0,0x94c9
    1678:	35085e80 	ori	t0,t0,0x5e80
    167c:	1d00ffe9 	bgtz	t0,1624 <n32_bgtz_test+0x1624>
    1680:	00000000 	nop
    1684:	10000009 	b	16ac <n32_bgtz_test+0x16ac>
    1688:	00000000 	nop
    168c:	00000000 	nop
    1690:	00000021 	move	zero,zero
    1694:	00000021 	move	zero,zero
    1698:	00000021 	move	zero,zero
    169c:	00000021 	move	zero,zero
    16a0:	00000021 	move	zero,zero
    16a4:	3c1233a1 	lui	s2,0x33a1
    16a8:	36528880 	ori	s2,s2,0x8880
    16ac:	00000000 	nop
    16b0:	24140000 	li	s4,0
    16b4:	16142317 	bne	s0,s4,a314 <inst_error>
    16b8:	00000000 	nop
    16bc:	00000000 	nop
    16c0:	24150000 	li	s5,0
    16c4:	16552313 	bne	s2,s5,a314 <inst_error>
    16c8:	00000000 	nop
    16cc:	00000000 	nop
    16d0:	3c0cf753 	lui	t4,0xf753
    16d4:	358c984a 	ori	t4,t4,0x984a
    16d8:	3c0daf05 	lui	t5,0xaf05
    16dc:	35ad32c8 	ori	t5,t5,0x32c8
    16e0:	24100000 	li	s0,0
    16e4:	10000016 	b	1740 <n32_bgtz_test+0x1740>
    16e8:	24120000 	li	s2,0
    16ec:	00000000 	nop
    16f0:	3c10f753 	lui	s0,0xf753
    16f4:	1d00001e 	bgtz	t0,1770 <n32_bgtz_test+0x1770>
    16f8:	3610984a 	ori	s0,s0,0x984a
    16fc:	1000001e 	b	1778 <n32_bgtz_test+0x1778>
    1700:	00000000 	nop
    1704:	00000000 	nop
    1708:	00000021 	move	zero,zero
    170c:	00000021 	move	zero,zero
    1710:	00000021 	move	zero,zero
    1714:	00000021 	move	zero,zero
    1718:	00000021 	move	zero,zero
    171c:	00000021 	move	zero,zero
    1720:	00000021 	move	zero,zero
    1724:	00000021 	move	zero,zero
    1728:	00000021 	move	zero,zero
    172c:	00000021 	move	zero,zero
    1730:	00000021 	move	zero,zero
    1734:	00000021 	move	zero,zero
    1738:	00000021 	move	zero,zero
    173c:	00000021 	move	zero,zero
    1740:	3c087dfd 	lui	t0,0x7dfd
    1744:	35089ab0 	ori	t0,t0,0x9ab0
    1748:	1d00ffe9 	bgtz	t0,16f0 <n32_bgtz_test+0x16f0>
    174c:	00000000 	nop
    1750:	10000009 	b	1778 <n32_bgtz_test+0x1778>
    1754:	00000000 	nop
    1758:	00000000 	nop
    175c:	00000021 	move	zero,zero
    1760:	00000021 	move	zero,zero
    1764:	00000021 	move	zero,zero
    1768:	00000021 	move	zero,zero
    176c:	00000021 	move	zero,zero
    1770:	3c12af05 	lui	s2,0xaf05
    1774:	365232c8 	ori	s2,s2,0x32c8
    1778:	00000000 	nop
    177c:	3c14f753 	lui	s4,0xf753
    1780:	3694984a 	ori	s4,s4,0x984a
    1784:	161422e3 	bne	s0,s4,a314 <inst_error>
    1788:	00000000 	nop
    178c:	00000000 	nop
    1790:	3c15af05 	lui	s5,0xaf05
    1794:	36b532c8 	ori	s5,s5,0x32c8
    1798:	165522de 	bne	s2,s5,a314 <inst_error>
    179c:	00000000 	nop
    17a0:	00000000 	nop
    17a4:	3c0c6a4c 	lui	t4,0x6a4c
    17a8:	358ced20 	ori	t4,t4,0xed20
    17ac:	3c0d1460 	lui	t5,0x1460
    17b0:	35ad740b 	ori	t5,t5,0x740b
    17b4:	24100000 	li	s0,0
    17b8:	10000016 	b	1814 <n32_bgtz_test+0x1814>
    17bc:	24120000 	li	s2,0
    17c0:	00000000 	nop
    17c4:	3c106a4c 	lui	s0,0x6a4c
    17c8:	1d00001e 	bgtz	t0,1844 <n32_bgtz_test+0x1844>
    17cc:	3610ed20 	ori	s0,s0,0xed20
    17d0:	1000001e 	b	184c <n32_bgtz_test+0x184c>
    17d4:	00000000 	nop
    17d8:	00000000 	nop
    17dc:	00000021 	move	zero,zero
    17e0:	00000021 	move	zero,zero
    17e4:	00000021 	move	zero,zero
    17e8:	00000021 	move	zero,zero
    17ec:	00000021 	move	zero,zero
    17f0:	00000021 	move	zero,zero
    17f4:	00000021 	move	zero,zero
    17f8:	00000021 	move	zero,zero
    17fc:	00000021 	move	zero,zero
    1800:	00000021 	move	zero,zero
    1804:	00000021 	move	zero,zero
    1808:	00000021 	move	zero,zero
    180c:	00000021 	move	zero,zero
    1810:	00000021 	move	zero,zero
    1814:	3c08185f 	lui	t0,0x185f
    1818:	3508dee0 	ori	t0,t0,0xdee0
    181c:	1d00ffe9 	bgtz	t0,17c4 <n32_bgtz_test+0x17c4>
    1820:	00000000 	nop
    1824:	10000009 	b	184c <n32_bgtz_test+0x184c>
    1828:	00000000 	nop
    182c:	00000000 	nop
    1830:	00000021 	move	zero,zero
    1834:	00000021 	move	zero,zero
    1838:	00000021 	move	zero,zero
    183c:	00000021 	move	zero,zero
    1840:	00000021 	move	zero,zero
    1844:	3c121460 	lui	s2,0x1460
    1848:	3652740b 	ori	s2,s2,0x740b
    184c:	00000000 	nop
    1850:	3c146a4c 	lui	s4,0x6a4c
    1854:	3694ed20 	ori	s4,s4,0xed20
    1858:	161422ae 	bne	s0,s4,a314 <inst_error>
    185c:	00000000 	nop
    1860:	00000000 	nop
    1864:	3c151460 	lui	s5,0x1460
    1868:	36b5740b 	ori	s5,s5,0x740b
    186c:	165522a9 	bne	s2,s5,a314 <inst_error>
    1870:	00000000 	nop
    1874:	00000000 	nop
    1878:	3c0cb124 	lui	t4,0xb124
    187c:	358c40c8 	ori	t4,t4,0x40c8
    1880:	3c0df22a 	lui	t5,0xf22a
    1884:	35adc2c0 	ori	t5,t5,0xc2c0
    1888:	24100000 	li	s0,0
    188c:	10000016 	b	18e8 <n32_bgtz_test+0x18e8>
    1890:	24120000 	li	s2,0
    1894:	00000000 	nop
    1898:	3c10b124 	lui	s0,0xb124
    189c:	1d00001e 	bgtz	t0,1918 <n32_bgtz_test+0x1918>
    18a0:	361040c8 	ori	s0,s0,0x40c8
    18a4:	1000001e 	b	1920 <n32_bgtz_test+0x1920>
    18a8:	00000000 	nop
    18ac:	00000000 	nop
    18b0:	00000021 	move	zero,zero
    18b4:	00000021 	move	zero,zero
    18b8:	00000021 	move	zero,zero
    18bc:	00000021 	move	zero,zero
    18c0:	00000021 	move	zero,zero
    18c4:	00000021 	move	zero,zero
    18c8:	00000021 	move	zero,zero
    18cc:	00000021 	move	zero,zero
    18d0:	00000021 	move	zero,zero
    18d4:	00000021 	move	zero,zero
    18d8:	00000021 	move	zero,zero
    18dc:	00000021 	move	zero,zero
    18e0:	00000021 	move	zero,zero
    18e4:	00000021 	move	zero,zero
    18e8:	3c08ca89 	lui	t0,0xca89
    18ec:	350866ac 	ori	t0,t0,0x66ac
    18f0:	1d00ffe9 	bgtz	t0,1898 <n32_bgtz_test+0x1898>
    18f4:	00000000 	nop
    18f8:	10000009 	b	1920 <n32_bgtz_test+0x1920>
    18fc:	00000000 	nop
    1900:	00000000 	nop
    1904:	00000021 	move	zero,zero
    1908:	00000021 	move	zero,zero
    190c:	00000021 	move	zero,zero
    1910:	00000021 	move	zero,zero
    1914:	00000021 	move	zero,zero
    1918:	3c12f22a 	lui	s2,0xf22a
    191c:	3652c2c0 	ori	s2,s2,0xc2c0
    1920:	00000000 	nop
    1924:	24140000 	li	s4,0
    1928:	1614227a 	bne	s0,s4,a314 <inst_error>
    192c:	00000000 	nop
    1930:	00000000 	nop
    1934:	24150000 	li	s5,0
    1938:	16552276 	bne	s2,s5,a314 <inst_error>
    193c:	00000000 	nop
    1940:	00000000 	nop
    1944:	3c0cccbc 	lui	t4,0xccbc
    1948:	358c9630 	ori	t4,t4,0x9630
    194c:	3c0d08e0 	lui	t5,0x8e0
    1950:	35adf060 	ori	t5,t5,0xf060
    1954:	24100000 	li	s0,0
    1958:	10000016 	b	19b4 <n32_bgtz_test+0x19b4>
    195c:	24120000 	li	s2,0
    1960:	00000000 	nop
    1964:	3c10ccbc 	lui	s0,0xccbc
    1968:	1d00001e 	bgtz	t0,19e4 <n32_bgtz_test+0x19e4>
    196c:	36109630 	ori	s0,s0,0x9630
    1970:	1000001e 	b	19ec <n32_bgtz_test+0x19ec>
    1974:	00000000 	nop
    1978:	00000000 	nop
    197c:	00000021 	move	zero,zero
    1980:	00000021 	move	zero,zero
    1984:	00000021 	move	zero,zero
    1988:	00000021 	move	zero,zero
    198c:	00000021 	move	zero,zero
    1990:	00000021 	move	zero,zero
    1994:	00000021 	move	zero,zero
    1998:	00000021 	move	zero,zero
    199c:	00000021 	move	zero,zero
    19a0:	00000021 	move	zero,zero
    19a4:	00000021 	move	zero,zero
    19a8:	00000021 	move	zero,zero
    19ac:	00000021 	move	zero,zero
    19b0:	00000021 	move	zero,zero
    19b4:	3c08f353 	lui	t0,0xf353
    19b8:	3508df1c 	ori	t0,t0,0xdf1c
    19bc:	1d00ffe9 	bgtz	t0,1964 <n32_bgtz_test+0x1964>
    19c0:	00000000 	nop
    19c4:	10000009 	b	19ec <n32_bgtz_test+0x19ec>
    19c8:	00000000 	nop
    19cc:	00000000 	nop
    19d0:	00000021 	move	zero,zero
    19d4:	00000021 	move	zero,zero
    19d8:	00000021 	move	zero,zero
    19dc:	00000021 	move	zero,zero
    19e0:	00000021 	move	zero,zero
    19e4:	3c1208e0 	lui	s2,0x8e0
    19e8:	3652f060 	ori	s2,s2,0xf060
    19ec:	00000000 	nop
    19f0:	24140000 	li	s4,0
    19f4:	16142247 	bne	s0,s4,a314 <inst_error>
    19f8:	00000000 	nop
    19fc:	00000000 	nop
    1a00:	24150000 	li	s5,0
    1a04:	16552243 	bne	s2,s5,a314 <inst_error>
    1a08:	00000000 	nop
    1a0c:	00000000 	nop
    1a10:	3c0cf70e 	lui	t4,0xf70e
    1a14:	358c1920 	ori	t4,t4,0x1920
    1a18:	3c0d6c0c 	lui	t5,0x6c0c
    1a1c:	35adebbf 	ori	t5,t5,0xebbf
    1a20:	24100000 	li	s0,0
    1a24:	10000016 	b	1a80 <n32_bgtz_test+0x1a80>
    1a28:	24120000 	li	s2,0
    1a2c:	00000000 	nop
    1a30:	3c10f70e 	lui	s0,0xf70e
    1a34:	1d00001e 	bgtz	t0,1ab0 <n32_bgtz_test+0x1ab0>
    1a38:	36101920 	ori	s0,s0,0x1920
    1a3c:	1000001e 	b	1ab8 <n32_bgtz_test+0x1ab8>
    1a40:	00000000 	nop
    1a44:	00000000 	nop
    1a48:	00000021 	move	zero,zero
    1a4c:	00000021 	move	zero,zero
    1a50:	00000021 	move	zero,zero
    1a54:	00000021 	move	zero,zero
    1a58:	00000021 	move	zero,zero
    1a5c:	00000021 	move	zero,zero
    1a60:	00000021 	move	zero,zero
    1a64:	00000021 	move	zero,zero
    1a68:	00000021 	move	zero,zero
    1a6c:	00000021 	move	zero,zero
    1a70:	00000021 	move	zero,zero
    1a74:	00000021 	move	zero,zero
    1a78:	00000021 	move	zero,zero
    1a7c:	00000021 	move	zero,zero
    1a80:	3c08d397 	lui	t0,0xd397
    1a84:	350883ec 	ori	t0,t0,0x83ec
    1a88:	1d00ffe9 	bgtz	t0,1a30 <n32_bgtz_test+0x1a30>
    1a8c:	00000000 	nop
    1a90:	10000009 	b	1ab8 <n32_bgtz_test+0x1ab8>
    1a94:	00000000 	nop
    1a98:	00000000 	nop
    1a9c:	00000021 	move	zero,zero
    1aa0:	00000021 	move	zero,zero
    1aa4:	00000021 	move	zero,zero
    1aa8:	00000021 	move	zero,zero
    1aac:	00000021 	move	zero,zero
    1ab0:	3c126c0c 	lui	s2,0x6c0c
    1ab4:	3652ebbf 	ori	s2,s2,0xebbf
    1ab8:	00000000 	nop
    1abc:	24140000 	li	s4,0
    1ac0:	16142214 	bne	s0,s4,a314 <inst_error>
    1ac4:	00000000 	nop
    1ac8:	00000000 	nop
    1acc:	24150000 	li	s5,0
    1ad0:	16552210 	bne	s2,s5,a314 <inst_error>
    1ad4:	00000000 	nop
    1ad8:	00000000 	nop
    1adc:	3c0cc06d 	lui	t4,0xc06d
    1ae0:	358c42e0 	ori	t4,t4,0x42e0
    1ae4:	3c0df7e6 	lui	t5,0xf7e6
    1ae8:	35ad5ae0 	ori	t5,t5,0x5ae0
    1aec:	24100000 	li	s0,0
    1af0:	10000016 	b	1b4c <n32_bgtz_test+0x1b4c>
    1af4:	24120000 	li	s2,0
    1af8:	00000000 	nop
    1afc:	3c10c06d 	lui	s0,0xc06d
    1b00:	1d00001e 	bgtz	t0,1b7c <n32_bgtz_test+0x1b7c>
    1b04:	361042e0 	ori	s0,s0,0x42e0
    1b08:	1000001e 	b	1b84 <n32_bgtz_test+0x1b84>
    1b0c:	00000000 	nop
    1b10:	00000000 	nop
    1b14:	00000021 	move	zero,zero
    1b18:	00000021 	move	zero,zero
    1b1c:	00000021 	move	zero,zero
    1b20:	00000021 	move	zero,zero
    1b24:	00000021 	move	zero,zero
    1b28:	00000021 	move	zero,zero
    1b2c:	00000021 	move	zero,zero
    1b30:	00000021 	move	zero,zero
    1b34:	00000021 	move	zero,zero
    1b38:	00000021 	move	zero,zero
    1b3c:	00000021 	move	zero,zero
    1b40:	00000021 	move	zero,zero
    1b44:	00000021 	move	zero,zero
    1b48:	00000021 	move	zero,zero
    1b4c:	3c08d221 	lui	t0,0xd221
    1b50:	3508b0b6 	ori	t0,t0,0xb0b6
    1b54:	1d00ffe9 	bgtz	t0,1afc <n32_bgtz_test+0x1afc>
    1b58:	00000000 	nop
    1b5c:	10000009 	b	1b84 <n32_bgtz_test+0x1b84>
    1b60:	00000000 	nop
    1b64:	00000000 	nop
    1b68:	00000021 	move	zero,zero
    1b6c:	00000021 	move	zero,zero
    1b70:	00000021 	move	zero,zero
    1b74:	00000021 	move	zero,zero
    1b78:	00000021 	move	zero,zero
    1b7c:	3c12f7e6 	lui	s2,0xf7e6
    1b80:	36525ae0 	ori	s2,s2,0x5ae0
    1b84:	00000000 	nop
    1b88:	24140000 	li	s4,0
    1b8c:	161421e1 	bne	s0,s4,a314 <inst_error>
    1b90:	00000000 	nop
    1b94:	00000000 	nop
    1b98:	24150000 	li	s5,0
    1b9c:	165521dd 	bne	s2,s5,a314 <inst_error>
    1ba0:	00000000 	nop
    1ba4:	00000000 	nop
    1ba8:	3c0c1ca0 	lui	t4,0x1ca0
    1bac:	358ce834 	ori	t4,t4,0xe834
    1bb0:	3c0d6452 	lui	t5,0x6452
    1bb4:	35ada3d0 	ori	t5,t5,0xa3d0
    1bb8:	24100000 	li	s0,0
    1bbc:	10000016 	b	1c18 <n32_bgtz_test+0x1c18>
    1bc0:	24120000 	li	s2,0
    1bc4:	00000000 	nop
    1bc8:	3c101ca0 	lui	s0,0x1ca0
    1bcc:	1d00001e 	bgtz	t0,1c48 <n32_bgtz_test+0x1c48>
    1bd0:	3610e834 	ori	s0,s0,0xe834
    1bd4:	1000001e 	b	1c50 <n32_bgtz_test+0x1c50>
    1bd8:	00000000 	nop
    1bdc:	00000000 	nop
    1be0:	00000021 	move	zero,zero
    1be4:	00000021 	move	zero,zero
    1be8:	00000021 	move	zero,zero
    1bec:	00000021 	move	zero,zero
    1bf0:	00000021 	move	zero,zero
    1bf4:	00000021 	move	zero,zero
    1bf8:	00000021 	move	zero,zero
    1bfc:	00000021 	move	zero,zero
    1c00:	00000021 	move	zero,zero
    1c04:	00000021 	move	zero,zero
    1c08:	00000021 	move	zero,zero
    1c0c:	00000021 	move	zero,zero
    1c10:	00000021 	move	zero,zero
    1c14:	00000021 	move	zero,zero
    1c18:	3c0896c0 	lui	t0,0x96c0
    1c1c:	3508e2e6 	ori	t0,t0,0xe2e6
    1c20:	1d00ffe9 	bgtz	t0,1bc8 <n32_bgtz_test+0x1bc8>
    1c24:	00000000 	nop
    1c28:	10000009 	b	1c50 <n32_bgtz_test+0x1c50>
    1c2c:	00000000 	nop
    1c30:	00000000 	nop
    1c34:	00000021 	move	zero,zero
    1c38:	00000021 	move	zero,zero
    1c3c:	00000021 	move	zero,zero
    1c40:	00000021 	move	zero,zero
    1c44:	00000021 	move	zero,zero
    1c48:	3c126452 	lui	s2,0x6452
    1c4c:	3652a3d0 	ori	s2,s2,0xa3d0
    1c50:	00000000 	nop
    1c54:	24140000 	li	s4,0
    1c58:	161421ae 	bne	s0,s4,a314 <inst_error>
    1c5c:	00000000 	nop
    1c60:	00000000 	nop
    1c64:	24150000 	li	s5,0
    1c68:	165521aa 	bne	s2,s5,a314 <inst_error>
    1c6c:	00000000 	nop
    1c70:	00000000 	nop
    1c74:	3c0c5173 	lui	t4,0x5173
    1c78:	358c28e8 	ori	t4,t4,0x28e8
    1c7c:	3c0d14eb 	lui	t5,0x14eb
    1c80:	35ad2a70 	ori	t5,t5,0x2a70
    1c84:	24100000 	li	s0,0
    1c88:	10000016 	b	1ce4 <n32_bgtz_test+0x1ce4>
    1c8c:	24120000 	li	s2,0
    1c90:	00000000 	nop
    1c94:	3c105173 	lui	s0,0x5173
    1c98:	1d00001e 	bgtz	t0,1d14 <n32_bgtz_test+0x1d14>
    1c9c:	361028e8 	ori	s0,s0,0x28e8
    1ca0:	1000001e 	b	1d1c <n32_bgtz_test+0x1d1c>
    1ca4:	00000000 	nop
    1ca8:	00000000 	nop
    1cac:	00000021 	move	zero,zero
    1cb0:	00000021 	move	zero,zero
    1cb4:	00000021 	move	zero,zero
    1cb8:	00000021 	move	zero,zero
    1cbc:	00000021 	move	zero,zero
    1cc0:	00000021 	move	zero,zero
    1cc4:	00000021 	move	zero,zero
    1cc8:	00000021 	move	zero,zero
    1ccc:	00000021 	move	zero,zero
    1cd0:	00000021 	move	zero,zero
    1cd4:	00000021 	move	zero,zero
    1cd8:	00000021 	move	zero,zero
    1cdc:	00000021 	move	zero,zero
    1ce0:	00000021 	move	zero,zero
    1ce4:	3c080df3 	lui	t0,0xdf3
    1ce8:	35082d52 	ori	t0,t0,0x2d52
    1cec:	1d00ffe9 	bgtz	t0,1c94 <n32_bgtz_test+0x1c94>
    1cf0:	00000000 	nop
    1cf4:	10000009 	b	1d1c <n32_bgtz_test+0x1d1c>
    1cf8:	00000000 	nop
    1cfc:	00000000 	nop
    1d00:	00000021 	move	zero,zero
    1d04:	00000021 	move	zero,zero
    1d08:	00000021 	move	zero,zero
    1d0c:	00000021 	move	zero,zero
    1d10:	00000021 	move	zero,zero
    1d14:	3c1214eb 	lui	s2,0x14eb
    1d18:	36522a70 	ori	s2,s2,0x2a70
    1d1c:	00000000 	nop
    1d20:	3c145173 	lui	s4,0x5173
    1d24:	369428e8 	ori	s4,s4,0x28e8
    1d28:	1614217a 	bne	s0,s4,a314 <inst_error>
    1d2c:	00000000 	nop
    1d30:	00000000 	nop
    1d34:	3c1514eb 	lui	s5,0x14eb
    1d38:	36b52a70 	ori	s5,s5,0x2a70
    1d3c:	16552175 	bne	s2,s5,a314 <inst_error>
    1d40:	00000000 	nop
    1d44:	00000000 	nop
    1d48:	3c0c1e74 	lui	t4,0x1e74
    1d4c:	358cd980 	ori	t4,t4,0xd980
    1d50:	3c0d8f0b 	lui	t5,0x8f0b
    1d54:	35ad2328 	ori	t5,t5,0x2328
    1d58:	24100000 	li	s0,0
    1d5c:	10000016 	b	1db8 <n32_bgtz_test+0x1db8>
    1d60:	24120000 	li	s2,0
    1d64:	00000000 	nop
    1d68:	3c101e74 	lui	s0,0x1e74
    1d6c:	1d00001e 	bgtz	t0,1de8 <n32_bgtz_test+0x1de8>
    1d70:	3610d980 	ori	s0,s0,0xd980
    1d74:	1000001e 	b	1df0 <n32_bgtz_test+0x1df0>
    1d78:	00000000 	nop
    1d7c:	00000000 	nop
    1d80:	00000021 	move	zero,zero
    1d84:	00000021 	move	zero,zero
    1d88:	00000021 	move	zero,zero
    1d8c:	00000021 	move	zero,zero
    1d90:	00000021 	move	zero,zero
    1d94:	00000021 	move	zero,zero
    1d98:	00000021 	move	zero,zero
    1d9c:	00000021 	move	zero,zero
    1da0:	00000021 	move	zero,zero
    1da4:	00000021 	move	zero,zero
    1da8:	00000021 	move	zero,zero
    1dac:	00000021 	move	zero,zero
    1db0:	00000021 	move	zero,zero
    1db4:	00000021 	move	zero,zero
    1db8:	3c084e20 	lui	t0,0x4e20
    1dbc:	350818d5 	ori	t0,t0,0x18d5
    1dc0:	1d00ffe9 	bgtz	t0,1d68 <n32_bgtz_test+0x1d68>
    1dc4:	00000000 	nop
    1dc8:	10000009 	b	1df0 <n32_bgtz_test+0x1df0>
    1dcc:	00000000 	nop
    1dd0:	00000000 	nop
    1dd4:	00000021 	move	zero,zero
    1dd8:	00000021 	move	zero,zero
    1ddc:	00000021 	move	zero,zero
    1de0:	00000021 	move	zero,zero
    1de4:	00000021 	move	zero,zero
    1de8:	3c128f0b 	lui	s2,0x8f0b
    1dec:	36522328 	ori	s2,s2,0x2328
    1df0:	00000000 	nop
    1df4:	3c141e74 	lui	s4,0x1e74
    1df8:	3694d980 	ori	s4,s4,0xd980
    1dfc:	16142145 	bne	s0,s4,a314 <inst_error>
    1e00:	00000000 	nop
    1e04:	00000000 	nop
    1e08:	3c158f0b 	lui	s5,0x8f0b
    1e0c:	36b52328 	ori	s5,s5,0x2328
    1e10:	16552140 	bne	s2,s5,a314 <inst_error>
    1e14:	00000000 	nop
    1e18:	00000000 	nop
    1e1c:	3c0c50bd 	lui	t4,0x50bd
    1e20:	358cb2bc 	ori	t4,t4,0xb2bc
    1e24:	3c0d9d55 	lui	t5,0x9d55
    1e28:	35adde4b 	ori	t5,t5,0xde4b
    1e2c:	24100000 	li	s0,0
    1e30:	10000016 	b	1e8c <n32_bgtz_test+0x1e8c>
    1e34:	24120000 	li	s2,0
    1e38:	00000000 	nop
    1e3c:	3c1050bd 	lui	s0,0x50bd
    1e40:	1d00001e 	bgtz	t0,1ebc <n32_bgtz_test+0x1ebc>
    1e44:	3610b2bc 	ori	s0,s0,0xb2bc
    1e48:	1000001e 	b	1ec4 <n32_bgtz_test+0x1ec4>
    1e4c:	00000000 	nop
    1e50:	00000000 	nop
    1e54:	00000021 	move	zero,zero
    1e58:	00000021 	move	zero,zero
    1e5c:	00000021 	move	zero,zero
    1e60:	00000021 	move	zero,zero
    1e64:	00000021 	move	zero,zero
    1e68:	00000021 	move	zero,zero
    1e6c:	00000021 	move	zero,zero
    1e70:	00000021 	move	zero,zero
    1e74:	00000021 	move	zero,zero
    1e78:	00000021 	move	zero,zero
    1e7c:	00000021 	move	zero,zero
    1e80:	00000021 	move	zero,zero
    1e84:	00000021 	move	zero,zero
    1e88:	00000021 	move	zero,zero
    1e8c:	3c0836fe 	lui	t0,0x36fe
    1e90:	35089020 	ori	t0,t0,0x9020
    1e94:	1d00ffe9 	bgtz	t0,1e3c <n32_bgtz_test+0x1e3c>
    1e98:	00000000 	nop
    1e9c:	10000009 	b	1ec4 <n32_bgtz_test+0x1ec4>
    1ea0:	00000000 	nop
    1ea4:	00000000 	nop
    1ea8:	00000021 	move	zero,zero
    1eac:	00000021 	move	zero,zero
    1eb0:	00000021 	move	zero,zero
    1eb4:	00000021 	move	zero,zero
    1eb8:	00000021 	move	zero,zero
    1ebc:	3c129d55 	lui	s2,0x9d55
    1ec0:	3652de4b 	ori	s2,s2,0xde4b
    1ec4:	00000000 	nop
    1ec8:	3c1450bd 	lui	s4,0x50bd
    1ecc:	3694b2bc 	ori	s4,s4,0xb2bc
    1ed0:	16142110 	bne	s0,s4,a314 <inst_error>
    1ed4:	00000000 	nop
    1ed8:	00000000 	nop
    1edc:	3c159d55 	lui	s5,0x9d55
    1ee0:	36b5de4b 	ori	s5,s5,0xde4b
    1ee4:	1655210b 	bne	s2,s5,a314 <inst_error>
    1ee8:	00000000 	nop
    1eec:	00000000 	nop
    1ef0:	3c0cdccd 	lui	t4,0xdccd
    1ef4:	358c986a 	ori	t4,t4,0x986a
    1ef8:	3c0de0dd 	lui	t5,0xe0dd
    1efc:	35ad29a8 	ori	t5,t5,0x29a8
    1f00:	24100000 	li	s0,0
    1f04:	10000016 	b	1f60 <n32_bgtz_test+0x1f60>
    1f08:	24120000 	li	s2,0
    1f0c:	00000000 	nop
    1f10:	3c10dccd 	lui	s0,0xdccd
    1f14:	1d00001e 	bgtz	t0,1f90 <n32_bgtz_test+0x1f90>
    1f18:	3610986a 	ori	s0,s0,0x986a
    1f1c:	1000001e 	b	1f98 <n32_bgtz_test+0x1f98>
    1f20:	00000000 	nop
    1f24:	00000000 	nop
    1f28:	00000021 	move	zero,zero
    1f2c:	00000021 	move	zero,zero
    1f30:	00000021 	move	zero,zero
    1f34:	00000021 	move	zero,zero
    1f38:	00000021 	move	zero,zero
    1f3c:	00000021 	move	zero,zero
    1f40:	00000021 	move	zero,zero
    1f44:	00000021 	move	zero,zero
    1f48:	00000021 	move	zero,zero
    1f4c:	00000021 	move	zero,zero
    1f50:	00000021 	move	zero,zero
    1f54:	00000021 	move	zero,zero
    1f58:	00000021 	move	zero,zero
    1f5c:	00000021 	move	zero,zero
    1f60:	3c08d5ca 	lui	t0,0xd5ca
    1f64:	35087000 	ori	t0,t0,0x7000
    1f68:	1d00ffe9 	bgtz	t0,1f10 <n32_bgtz_test+0x1f10>
    1f6c:	00000000 	nop
    1f70:	10000009 	b	1f98 <n32_bgtz_test+0x1f98>
    1f74:	00000000 	nop
    1f78:	00000000 	nop
    1f7c:	00000021 	move	zero,zero
    1f80:	00000021 	move	zero,zero
    1f84:	00000021 	move	zero,zero
    1f88:	00000021 	move	zero,zero
    1f8c:	00000021 	move	zero,zero
    1f90:	3c12e0dd 	lui	s2,0xe0dd
    1f94:	365229a8 	ori	s2,s2,0x29a8
    1f98:	00000000 	nop
    1f9c:	24140000 	li	s4,0
    1fa0:	161420dc 	bne	s0,s4,a314 <inst_error>
    1fa4:	00000000 	nop
    1fa8:	00000000 	nop
    1fac:	24150000 	li	s5,0
    1fb0:	165520d8 	bne	s2,s5,a314 <inst_error>
    1fb4:	00000000 	nop
    1fb8:	00000000 	nop
    1fbc:	3c0c7db0 	lui	t4,0x7db0
    1fc0:	358cb3fe 	ori	t4,t4,0xb3fe
    1fc4:	3c0d62d5 	lui	t5,0x62d5
    1fc8:	35ad3342 	ori	t5,t5,0x3342
    1fcc:	24100000 	li	s0,0
    1fd0:	10000016 	b	202c <n32_bgtz_test+0x202c>
    1fd4:	24120000 	li	s2,0
    1fd8:	00000000 	nop
    1fdc:	3c107db0 	lui	s0,0x7db0
    1fe0:	1d00001e 	bgtz	t0,205c <n32_bgtz_test+0x205c>
    1fe4:	3610b3fe 	ori	s0,s0,0xb3fe
    1fe8:	1000001e 	b	2064 <n32_bgtz_test+0x2064>
    1fec:	00000000 	nop
    1ff0:	00000000 	nop
    1ff4:	00000021 	move	zero,zero
    1ff8:	00000021 	move	zero,zero
    1ffc:	00000021 	move	zero,zero
    2000:	00000021 	move	zero,zero
    2004:	00000021 	move	zero,zero
    2008:	00000021 	move	zero,zero
    200c:	00000021 	move	zero,zero
    2010:	00000021 	move	zero,zero
    2014:	00000021 	move	zero,zero
    2018:	00000021 	move	zero,zero
    201c:	00000021 	move	zero,zero
    2020:	00000021 	move	zero,zero
    2024:	00000021 	move	zero,zero
    2028:	00000021 	move	zero,zero
    202c:	3c0840a2 	lui	t0,0x40a2
    2030:	35089d20 	ori	t0,t0,0x9d20
    2034:	1d00ffe9 	bgtz	t0,1fdc <n32_bgtz_test+0x1fdc>
    2038:	00000000 	nop
    203c:	10000009 	b	2064 <n32_bgtz_test+0x2064>
    2040:	00000000 	nop
    2044:	00000000 	nop
    2048:	00000021 	move	zero,zero
    204c:	00000021 	move	zero,zero
    2050:	00000021 	move	zero,zero
    2054:	00000021 	move	zero,zero
    2058:	00000021 	move	zero,zero
    205c:	3c1262d5 	lui	s2,0x62d5
    2060:	36523342 	ori	s2,s2,0x3342
    2064:	00000000 	nop
    2068:	3c147db0 	lui	s4,0x7db0
    206c:	3694b3fe 	ori	s4,s4,0xb3fe
    2070:	161420a8 	bne	s0,s4,a314 <inst_error>
    2074:	00000000 	nop
    2078:	00000000 	nop
    207c:	3c1562d5 	lui	s5,0x62d5
    2080:	36b53342 	ori	s5,s5,0x3342
    2084:	165520a3 	bne	s2,s5,a314 <inst_error>
    2088:	00000000 	nop
    208c:	00000000 	nop
    2090:	3c0c39c7 	lui	t4,0x39c7
    2094:	358c44c8 	ori	t4,t4,0x44c8
    2098:	3c0d7ea3 	lui	t5,0x7ea3
    209c:	35ade155 	ori	t5,t5,0xe155
    20a0:	24100000 	li	s0,0
    20a4:	10000016 	b	2100 <n32_bgtz_test+0x2100>
    20a8:	24120000 	li	s2,0
    20ac:	00000000 	nop
    20b0:	3c1039c7 	lui	s0,0x39c7
    20b4:	1d00001e 	bgtz	t0,2130 <n32_bgtz_test+0x2130>
    20b8:	361044c8 	ori	s0,s0,0x44c8
    20bc:	1000001e 	b	2138 <n32_bgtz_test+0x2138>
    20c0:	00000000 	nop
    20c4:	00000000 	nop
    20c8:	00000021 	move	zero,zero
    20cc:	00000021 	move	zero,zero
    20d0:	00000021 	move	zero,zero
    20d4:	00000021 	move	zero,zero
    20d8:	00000021 	move	zero,zero
    20dc:	00000021 	move	zero,zero
    20e0:	00000021 	move	zero,zero
    20e4:	00000021 	move	zero,zero
    20e8:	00000021 	move	zero,zero
    20ec:	00000021 	move	zero,zero
    20f0:	00000021 	move	zero,zero
    20f4:	00000021 	move	zero,zero
    20f8:	00000021 	move	zero,zero
    20fc:	00000021 	move	zero,zero
    2100:	3c081b7a 	lui	t0,0x1b7a
    2104:	350835f1 	ori	t0,t0,0x35f1
    2108:	1d00ffe9 	bgtz	t0,20b0 <n32_bgtz_test+0x20b0>
    210c:	00000000 	nop
    2110:	10000009 	b	2138 <n32_bgtz_test+0x2138>
    2114:	00000000 	nop
    2118:	00000000 	nop
    211c:	00000021 	move	zero,zero
    2120:	00000021 	move	zero,zero
    2124:	00000021 	move	zero,zero
    2128:	00000021 	move	zero,zero
    212c:	00000021 	move	zero,zero
    2130:	3c127ea3 	lui	s2,0x7ea3
    2134:	3652e155 	ori	s2,s2,0xe155
    2138:	00000000 	nop
    213c:	3c1439c7 	lui	s4,0x39c7
    2140:	369444c8 	ori	s4,s4,0x44c8
    2144:	16142073 	bne	s0,s4,a314 <inst_error>
    2148:	00000000 	nop
    214c:	00000000 	nop
    2150:	3c157ea3 	lui	s5,0x7ea3
    2154:	36b5e155 	ori	s5,s5,0xe155
    2158:	1655206e 	bne	s2,s5,a314 <inst_error>
    215c:	00000000 	nop
    2160:	00000000 	nop
    2164:	3c0c11a6 	lui	t4,0x11a6
    2168:	358ccbdf 	ori	t4,t4,0xcbdf
    216c:	3c0dc84b 	lui	t5,0xc84b
    2170:	35ad874c 	ori	t5,t5,0x874c
    2174:	24100000 	li	s0,0
    2178:	10000016 	b	21d4 <n32_bgtz_test+0x21d4>
    217c:	24120000 	li	s2,0
    2180:	00000000 	nop
    2184:	3c1011a6 	lui	s0,0x11a6
    2188:	1d00001e 	bgtz	t0,2204 <n32_bgtz_test+0x2204>
    218c:	3610cbdf 	ori	s0,s0,0xcbdf
    2190:	1000001e 	b	220c <n32_bgtz_test+0x220c>
    2194:	00000000 	nop
    2198:	00000000 	nop
    219c:	00000021 	move	zero,zero
    21a0:	00000021 	move	zero,zero
    21a4:	00000021 	move	zero,zero
    21a8:	00000021 	move	zero,zero
    21ac:	00000021 	move	zero,zero
    21b0:	00000021 	move	zero,zero
    21b4:	00000021 	move	zero,zero
    21b8:	00000021 	move	zero,zero
    21bc:	00000021 	move	zero,zero
    21c0:	00000021 	move	zero,zero
    21c4:	00000021 	move	zero,zero
    21c8:	00000021 	move	zero,zero
    21cc:	00000021 	move	zero,zero
    21d0:	00000021 	move	zero,zero
    21d4:	3c08df9b 	lui	t0,0xdf9b
    21d8:	3508794d 	ori	t0,t0,0x794d
    21dc:	1d00ffe9 	bgtz	t0,2184 <n32_bgtz_test+0x2184>
    21e0:	00000000 	nop
    21e4:	10000009 	b	220c <n32_bgtz_test+0x220c>
    21e8:	00000000 	nop
    21ec:	00000000 	nop
    21f0:	00000021 	move	zero,zero
    21f4:	00000021 	move	zero,zero
    21f8:	00000021 	move	zero,zero
    21fc:	00000021 	move	zero,zero
    2200:	00000021 	move	zero,zero
    2204:	3c12c84b 	lui	s2,0xc84b
    2208:	3652874c 	ori	s2,s2,0x874c
    220c:	00000000 	nop
    2210:	24140000 	li	s4,0
    2214:	1614203f 	bne	s0,s4,a314 <inst_error>
    2218:	00000000 	nop
    221c:	00000000 	nop
    2220:	24150000 	li	s5,0
    2224:	1655203b 	bne	s2,s5,a314 <inst_error>
    2228:	00000000 	nop
    222c:	00000000 	nop
    2230:	3c0c1a1c 	lui	t4,0x1a1c
    2234:	358c9040 	ori	t4,t4,0x9040
    2238:	3c0dc08e 	lui	t5,0xc08e
    223c:	35addc80 	ori	t5,t5,0xdc80
    2240:	24100000 	li	s0,0
    2244:	10000016 	b	22a0 <n32_bgtz_test+0x22a0>
    2248:	24120000 	li	s2,0
    224c:	00000000 	nop
    2250:	3c101a1c 	lui	s0,0x1a1c
    2254:	1d00001e 	bgtz	t0,22d0 <n32_bgtz_test+0x22d0>
    2258:	36109040 	ori	s0,s0,0x9040
    225c:	1000001e 	b	22d8 <n32_bgtz_test+0x22d8>
    2260:	00000000 	nop
    2264:	00000000 	nop
    2268:	00000021 	move	zero,zero
    226c:	00000021 	move	zero,zero
    2270:	00000021 	move	zero,zero
    2274:	00000021 	move	zero,zero
    2278:	00000021 	move	zero,zero
    227c:	00000021 	move	zero,zero
    2280:	00000021 	move	zero,zero
    2284:	00000021 	move	zero,zero
    2288:	00000021 	move	zero,zero
    228c:	00000021 	move	zero,zero
    2290:	00000021 	move	zero,zero
    2294:	00000021 	move	zero,zero
    2298:	00000021 	move	zero,zero
    229c:	00000021 	move	zero,zero
    22a0:	3c08b46f 	lui	t0,0xb46f
    22a4:	35087300 	ori	t0,t0,0x7300
    22a8:	1d00ffe9 	bgtz	t0,2250 <n32_bgtz_test+0x2250>
    22ac:	00000000 	nop
    22b0:	10000009 	b	22d8 <n32_bgtz_test+0x22d8>
    22b4:	00000000 	nop
    22b8:	00000000 	nop
    22bc:	00000021 	move	zero,zero
    22c0:	00000021 	move	zero,zero
    22c4:	00000021 	move	zero,zero
    22c8:	00000021 	move	zero,zero
    22cc:	00000021 	move	zero,zero
    22d0:	3c12c08e 	lui	s2,0xc08e
    22d4:	3652dc80 	ori	s2,s2,0xdc80
    22d8:	00000000 	nop
    22dc:	24140000 	li	s4,0
    22e0:	1614200c 	bne	s0,s4,a314 <inst_error>
    22e4:	00000000 	nop
    22e8:	00000000 	nop
    22ec:	24150000 	li	s5,0
    22f0:	16552008 	bne	s2,s5,a314 <inst_error>
    22f4:	00000000 	nop
    22f8:	00000000 	nop
    22fc:	3c0ca9a4 	lui	t4,0xa9a4
    2300:	358c791c 	ori	t4,t4,0x791c
    2304:	3c0df55e 	lui	t5,0xf55e
    2308:	35ad8b40 	ori	t5,t5,0x8b40
    230c:	24100000 	li	s0,0
    2310:	10000016 	b	236c <n32_bgtz_test+0x236c>
    2314:	24120000 	li	s2,0
    2318:	00000000 	nop
    231c:	3c10a9a4 	lui	s0,0xa9a4
    2320:	1d00001e 	bgtz	t0,239c <n32_bgtz_test+0x239c>
    2324:	3610791c 	ori	s0,s0,0x791c
    2328:	1000001e 	b	23a4 <n32_bgtz_test+0x23a4>
    232c:	00000000 	nop
    2330:	00000000 	nop
    2334:	00000021 	move	zero,zero
    2338:	00000021 	move	zero,zero
    233c:	00000021 	move	zero,zero
    2340:	00000021 	move	zero,zero
    2344:	00000021 	move	zero,zero
    2348:	00000021 	move	zero,zero
    234c:	00000021 	move	zero,zero
    2350:	00000021 	move	zero,zero
    2354:	00000021 	move	zero,zero
    2358:	00000021 	move	zero,zero
    235c:	00000021 	move	zero,zero
    2360:	00000021 	move	zero,zero
    2364:	00000021 	move	zero,zero
    2368:	00000021 	move	zero,zero
    236c:	3c083dba 	lui	t0,0x3dba
    2370:	35086948 	ori	t0,t0,0x6948
    2374:	1d00ffe9 	bgtz	t0,231c <n32_bgtz_test+0x231c>
    2378:	00000000 	nop
    237c:	10000009 	b	23a4 <n32_bgtz_test+0x23a4>
    2380:	00000000 	nop
    2384:	00000000 	nop
    2388:	00000021 	move	zero,zero
    238c:	00000021 	move	zero,zero
    2390:	00000021 	move	zero,zero
    2394:	00000021 	move	zero,zero
    2398:	00000021 	move	zero,zero
    239c:	3c12f55e 	lui	s2,0xf55e
    23a0:	36528b40 	ori	s2,s2,0x8b40
    23a4:	00000000 	nop
    23a8:	3c14a9a4 	lui	s4,0xa9a4
    23ac:	3694791c 	ori	s4,s4,0x791c
    23b0:	16141fd8 	bne	s0,s4,a314 <inst_error>
    23b4:	00000000 	nop
    23b8:	00000000 	nop
    23bc:	3c15f55e 	lui	s5,0xf55e
    23c0:	36b58b40 	ori	s5,s5,0x8b40
    23c4:	16551fd3 	bne	s2,s5,a314 <inst_error>
    23c8:	00000000 	nop
    23cc:	00000000 	nop
    23d0:	3c0c6b15 	lui	t4,0x6b15
    23d4:	358c4e98 	ori	t4,t4,0x4e98
    23d8:	3c0dcb5a 	lui	t5,0xcb5a
    23dc:	35ad0248 	ori	t5,t5,0x248
    23e0:	24100000 	li	s0,0
    23e4:	10000016 	b	2440 <n32_bgtz_test+0x2440>
    23e8:	24120000 	li	s2,0
    23ec:	00000000 	nop
    23f0:	3c106b15 	lui	s0,0x6b15
    23f4:	1d00001e 	bgtz	t0,2470 <n32_bgtz_test+0x2470>
    23f8:	36104e98 	ori	s0,s0,0x4e98
    23fc:	1000001e 	b	2478 <n32_bgtz_test+0x2478>
    2400:	00000000 	nop
    2404:	00000000 	nop
    2408:	00000021 	move	zero,zero
    240c:	00000021 	move	zero,zero
    2410:	00000021 	move	zero,zero
    2414:	00000021 	move	zero,zero
    2418:	00000021 	move	zero,zero
    241c:	00000021 	move	zero,zero
    2420:	00000021 	move	zero,zero
    2424:	00000021 	move	zero,zero
    2428:	00000021 	move	zero,zero
    242c:	00000021 	move	zero,zero
    2430:	00000021 	move	zero,zero
    2434:	00000021 	move	zero,zero
    2438:	00000021 	move	zero,zero
    243c:	00000021 	move	zero,zero
    2440:	3c08f2a0 	lui	t0,0xf2a0
    2444:	35086610 	ori	t0,t0,0x6610
    2448:	1d00ffe9 	bgtz	t0,23f0 <n32_bgtz_test+0x23f0>
    244c:	00000000 	nop
    2450:	10000009 	b	2478 <n32_bgtz_test+0x2478>
    2454:	00000000 	nop
    2458:	00000000 	nop
    245c:	00000021 	move	zero,zero
    2460:	00000021 	move	zero,zero
    2464:	00000021 	move	zero,zero
    2468:	00000021 	move	zero,zero
    246c:	00000021 	move	zero,zero
    2470:	3c12cb5a 	lui	s2,0xcb5a
    2474:	36520248 	ori	s2,s2,0x248
    2478:	00000000 	nop
    247c:	24140000 	li	s4,0
    2480:	16141fa4 	bne	s0,s4,a314 <inst_error>
    2484:	00000000 	nop
    2488:	00000000 	nop
    248c:	24150000 	li	s5,0
    2490:	16551fa0 	bne	s2,s5,a314 <inst_error>
    2494:	00000000 	nop
    2498:	00000000 	nop
    249c:	3c0cd07e 	lui	t4,0xd07e
    24a0:	358c2886 	ori	t4,t4,0x2886
    24a4:	3c0de1a5 	lui	t5,0xe1a5
    24a8:	35ad97d8 	ori	t5,t5,0x97d8
    24ac:	24100000 	li	s0,0
    24b0:	10000016 	b	250c <n32_bgtz_test+0x250c>
    24b4:	24120000 	li	s2,0
    24b8:	00000000 	nop
    24bc:	3c10d07e 	lui	s0,0xd07e
    24c0:	1d00001e 	bgtz	t0,253c <n32_bgtz_test+0x253c>
    24c4:	36102886 	ori	s0,s0,0x2886
    24c8:	1000001e 	b	2544 <n32_bgtz_test+0x2544>
    24cc:	00000000 	nop
    24d0:	00000000 	nop
    24d4:	00000021 	move	zero,zero
    24d8:	00000021 	move	zero,zero
    24dc:	00000021 	move	zero,zero
    24e0:	00000021 	move	zero,zero
    24e4:	00000021 	move	zero,zero
    24e8:	00000021 	move	zero,zero
    24ec:	00000021 	move	zero,zero
    24f0:	00000021 	move	zero,zero
    24f4:	00000021 	move	zero,zero
    24f8:	00000021 	move	zero,zero
    24fc:	00000021 	move	zero,zero
    2500:	00000021 	move	zero,zero
    2504:	00000021 	move	zero,zero
    2508:	00000021 	move	zero,zero
    250c:	3c08d2d2 	lui	t0,0xd2d2
    2510:	35089ff0 	ori	t0,t0,0x9ff0
    2514:	1d00ffe9 	bgtz	t0,24bc <n32_bgtz_test+0x24bc>
    2518:	00000000 	nop
    251c:	10000009 	b	2544 <n32_bgtz_test+0x2544>
    2520:	00000000 	nop
    2524:	00000000 	nop
    2528:	00000021 	move	zero,zero
    252c:	00000021 	move	zero,zero
    2530:	00000021 	move	zero,zero
    2534:	00000021 	move	zero,zero
    2538:	00000021 	move	zero,zero
    253c:	3c12e1a5 	lui	s2,0xe1a5
    2540:	365297d8 	ori	s2,s2,0x97d8
    2544:	00000000 	nop
    2548:	24140000 	li	s4,0
    254c:	16141f71 	bne	s0,s4,a314 <inst_error>
    2550:	00000000 	nop
    2554:	00000000 	nop
    2558:	24150000 	li	s5,0
    255c:	16551f6d 	bne	s2,s5,a314 <inst_error>
    2560:	00000000 	nop
    2564:	00000000 	nop
    2568:	3c0c779f 	lui	t4,0x779f
    256c:	358c28d4 	ori	t4,t4,0x28d4
    2570:	3c0df829 	lui	t5,0xf829
    2574:	35ad327e 	ori	t5,t5,0x327e
    2578:	24100000 	li	s0,0
    257c:	10000016 	b	25d8 <n32_bgtz_test+0x25d8>
    2580:	24120000 	li	s2,0
    2584:	00000000 	nop
    2588:	3c10779f 	lui	s0,0x779f
    258c:	1d00001e 	bgtz	t0,2608 <n32_bgtz_test+0x2608>
    2590:	361028d4 	ori	s0,s0,0x28d4
    2594:	1000001e 	b	2610 <n32_bgtz_test+0x2610>
    2598:	00000000 	nop
    259c:	00000000 	nop
    25a0:	00000021 	move	zero,zero
    25a4:	00000021 	move	zero,zero
    25a8:	00000021 	move	zero,zero
    25ac:	00000021 	move	zero,zero
    25b0:	00000021 	move	zero,zero
    25b4:	00000021 	move	zero,zero
    25b8:	00000021 	move	zero,zero
    25bc:	00000021 	move	zero,zero
    25c0:	00000021 	move	zero,zero
    25c4:	00000021 	move	zero,zero
    25c8:	00000021 	move	zero,zero
    25cc:	00000021 	move	zero,zero
    25d0:	00000021 	move	zero,zero
    25d4:	00000021 	move	zero,zero
    25d8:	3c08a737 	lui	t0,0xa737
    25dc:	35082748 	ori	t0,t0,0x2748
    25e0:	1d00ffe9 	bgtz	t0,2588 <n32_bgtz_test+0x2588>
    25e4:	00000000 	nop
    25e8:	10000009 	b	2610 <n32_bgtz_test+0x2610>
    25ec:	00000000 	nop
    25f0:	00000000 	nop
    25f4:	00000021 	move	zero,zero
    25f8:	00000021 	move	zero,zero
    25fc:	00000021 	move	zero,zero
    2600:	00000021 	move	zero,zero
    2604:	00000021 	move	zero,zero
    2608:	3c12f829 	lui	s2,0xf829
    260c:	3652327e 	ori	s2,s2,0x327e
    2610:	00000000 	nop
    2614:	24140000 	li	s4,0
    2618:	16141f3e 	bne	s0,s4,a314 <inst_error>
    261c:	00000000 	nop
    2620:	00000000 	nop
    2624:	24150000 	li	s5,0
    2628:	16551f3a 	bne	s2,s5,a314 <inst_error>
    262c:	00000000 	nop
    2630:	00000000 	nop
    2634:	3c0caf5b 	lui	t4,0xaf5b
    2638:	358c01d8 	ori	t4,t4,0x1d8
    263c:	3c0d6280 	lui	t5,0x6280
    2640:	35ad6d80 	ori	t5,t5,0x6d80
    2644:	24100000 	li	s0,0
    2648:	10000016 	b	26a4 <n32_bgtz_test+0x26a4>
    264c:	24120000 	li	s2,0
    2650:	00000000 	nop
    2654:	3c10af5b 	lui	s0,0xaf5b
    2658:	1d00001e 	bgtz	t0,26d4 <n32_bgtz_test+0x26d4>
    265c:	361001d8 	ori	s0,s0,0x1d8
    2660:	1000001e 	b	26dc <n32_bgtz_test+0x26dc>
    2664:	00000000 	nop
    2668:	00000000 	nop
    266c:	00000021 	move	zero,zero
    2670:	00000021 	move	zero,zero
    2674:	00000021 	move	zero,zero
    2678:	00000021 	move	zero,zero
    267c:	00000021 	move	zero,zero
    2680:	00000021 	move	zero,zero
    2684:	00000021 	move	zero,zero
    2688:	00000021 	move	zero,zero
    268c:	00000021 	move	zero,zero
    2690:	00000021 	move	zero,zero
    2694:	00000021 	move	zero,zero
    2698:	00000021 	move	zero,zero
    269c:	00000021 	move	zero,zero
    26a0:	00000021 	move	zero,zero
    26a4:	3c08d13a 	lui	t0,0xd13a
    26a8:	3508d050 	ori	t0,t0,0xd050
    26ac:	1d00ffe9 	bgtz	t0,2654 <n32_bgtz_test+0x2654>
    26b0:	00000000 	nop
    26b4:	10000009 	b	26dc <n32_bgtz_test+0x26dc>
    26b8:	00000000 	nop
    26bc:	00000000 	nop
    26c0:	00000021 	move	zero,zero
    26c4:	00000021 	move	zero,zero
    26c8:	00000021 	move	zero,zero
    26cc:	00000021 	move	zero,zero
    26d0:	00000021 	move	zero,zero
    26d4:	3c126280 	lui	s2,0x6280
    26d8:	36526d80 	ori	s2,s2,0x6d80
    26dc:	00000000 	nop
    26e0:	24140000 	li	s4,0
    26e4:	16141f0b 	bne	s0,s4,a314 <inst_error>
    26e8:	00000000 	nop
    26ec:	00000000 	nop
    26f0:	24150000 	li	s5,0
    26f4:	16551f07 	bne	s2,s5,a314 <inst_error>
    26f8:	00000000 	nop
    26fc:	00000000 	nop
    2700:	3c0c2651 	lui	t4,0x2651
    2704:	358c2e00 	ori	t4,t4,0x2e00
    2708:	3c0d1f2b 	lui	t5,0x1f2b
    270c:	35ad9abc 	ori	t5,t5,0x9abc
    2710:	24100000 	li	s0,0
    2714:	10000016 	b	2770 <n32_bgtz_test+0x2770>
    2718:	24120000 	li	s2,0
    271c:	00000000 	nop
    2720:	3c102651 	lui	s0,0x2651
    2724:	1d00001e 	bgtz	t0,27a0 <n32_bgtz_test+0x27a0>
    2728:	36102e00 	ori	s0,s0,0x2e00
    272c:	1000001e 	b	27a8 <n32_bgtz_test+0x27a8>
    2730:	00000000 	nop
    2734:	00000000 	nop
    2738:	00000021 	move	zero,zero
    273c:	00000021 	move	zero,zero
    2740:	00000021 	move	zero,zero
    2744:	00000021 	move	zero,zero
    2748:	00000021 	move	zero,zero
    274c:	00000021 	move	zero,zero
    2750:	00000021 	move	zero,zero
    2754:	00000021 	move	zero,zero
    2758:	00000021 	move	zero,zero
    275c:	00000021 	move	zero,zero
    2760:	00000021 	move	zero,zero
    2764:	00000021 	move	zero,zero
    2768:	00000021 	move	zero,zero
    276c:	00000021 	move	zero,zero
    2770:	3c08942c 	lui	t0,0x942c
    2774:	3508b34c 	ori	t0,t0,0xb34c
    2778:	1d00ffe9 	bgtz	t0,2720 <n32_bgtz_test+0x2720>
    277c:	00000000 	nop
    2780:	10000009 	b	27a8 <n32_bgtz_test+0x27a8>
    2784:	00000000 	nop
    2788:	00000000 	nop
    278c:	00000021 	move	zero,zero
    2790:	00000021 	move	zero,zero
    2794:	00000021 	move	zero,zero
    2798:	00000021 	move	zero,zero
    279c:	00000021 	move	zero,zero
    27a0:	3c121f2b 	lui	s2,0x1f2b
    27a4:	36529abc 	ori	s2,s2,0x9abc
    27a8:	00000000 	nop
    27ac:	24140000 	li	s4,0
    27b0:	16141ed8 	bne	s0,s4,a314 <inst_error>
    27b4:	00000000 	nop
    27b8:	00000000 	nop
    27bc:	24150000 	li	s5,0
    27c0:	16551ed4 	bne	s2,s5,a314 <inst_error>
    27c4:	00000000 	nop
    27c8:	00000000 	nop
    27cc:	3c0cf93c 	lui	t4,0xf93c
    27d0:	358cddd0 	ori	t4,t4,0xddd0
    27d4:	3c0dd87e 	lui	t5,0xd87e
    27d8:	35ade5e8 	ori	t5,t5,0xe5e8
    27dc:	24100000 	li	s0,0
    27e0:	10000016 	b	283c <n32_bgtz_test+0x283c>
    27e4:	24120000 	li	s2,0
    27e8:	00000000 	nop
    27ec:	3c10f93c 	lui	s0,0xf93c
    27f0:	1d00001e 	bgtz	t0,286c <n32_bgtz_test+0x286c>
    27f4:	3610ddd0 	ori	s0,s0,0xddd0
    27f8:	1000001e 	b	2874 <n32_bgtz_test+0x2874>
    27fc:	00000000 	nop
    2800:	00000000 	nop
    2804:	00000021 	move	zero,zero
    2808:	00000021 	move	zero,zero
    280c:	00000021 	move	zero,zero
    2810:	00000021 	move	zero,zero
    2814:	00000021 	move	zero,zero
    2818:	00000021 	move	zero,zero
    281c:	00000021 	move	zero,zero
    2820:	00000021 	move	zero,zero
    2824:	00000021 	move	zero,zero
    2828:	00000021 	move	zero,zero
    282c:	00000021 	move	zero,zero
    2830:	00000021 	move	zero,zero
    2834:	00000021 	move	zero,zero
    2838:	00000021 	move	zero,zero
    283c:	3c086664 	lui	t0,0x6664
    2840:	3508a816 	ori	t0,t0,0xa816
    2844:	1d00ffe9 	bgtz	t0,27ec <n32_bgtz_test+0x27ec>
    2848:	00000000 	nop
    284c:	10000009 	b	2874 <n32_bgtz_test+0x2874>
    2850:	00000000 	nop
    2854:	00000000 	nop
    2858:	00000021 	move	zero,zero
    285c:	00000021 	move	zero,zero
    2860:	00000021 	move	zero,zero
    2864:	00000021 	move	zero,zero
    2868:	00000021 	move	zero,zero
    286c:	3c12d87e 	lui	s2,0xd87e
    2870:	3652e5e8 	ori	s2,s2,0xe5e8
    2874:	00000000 	nop
    2878:	3c14f93c 	lui	s4,0xf93c
    287c:	3694ddd0 	ori	s4,s4,0xddd0
    2880:	16141ea4 	bne	s0,s4,a314 <inst_error>
    2884:	00000000 	nop
    2888:	00000000 	nop
    288c:	3c15d87e 	lui	s5,0xd87e
    2890:	36b5e5e8 	ori	s5,s5,0xe5e8
    2894:	16551e9f 	bne	s2,s5,a314 <inst_error>
    2898:	00000000 	nop
    289c:	00000000 	nop
    28a0:	3c0cddaa 	lui	t4,0xddaa
    28a4:	358cbf0c 	ori	t4,t4,0xbf0c
    28a8:	3c0d26c6 	lui	t5,0x26c6
    28ac:	35ad077c 	ori	t5,t5,0x77c
    28b0:	24100000 	li	s0,0
    28b4:	10000016 	b	2910 <n32_bgtz_test+0x2910>
    28b8:	24120000 	li	s2,0
    28bc:	00000000 	nop
    28c0:	3c10ddaa 	lui	s0,0xddaa
    28c4:	1d00001e 	bgtz	t0,2940 <n32_bgtz_test+0x2940>
    28c8:	3610bf0c 	ori	s0,s0,0xbf0c
    28cc:	1000001e 	b	2948 <n32_bgtz_test+0x2948>
    28d0:	00000000 	nop
    28d4:	00000000 	nop
    28d8:	00000021 	move	zero,zero
    28dc:	00000021 	move	zero,zero
    28e0:	00000021 	move	zero,zero
    28e4:	00000021 	move	zero,zero
    28e8:	00000021 	move	zero,zero
    28ec:	00000021 	move	zero,zero
    28f0:	00000021 	move	zero,zero
    28f4:	00000021 	move	zero,zero
    28f8:	00000021 	move	zero,zero
    28fc:	00000021 	move	zero,zero
    2900:	00000021 	move	zero,zero
    2904:	00000021 	move	zero,zero
    2908:	00000021 	move	zero,zero
    290c:	00000021 	move	zero,zero
    2910:	3c08c18e 	lui	t0,0xc18e
    2914:	3508f206 	ori	t0,t0,0xf206
    2918:	1d00ffe9 	bgtz	t0,28c0 <n32_bgtz_test+0x28c0>
    291c:	00000000 	nop
    2920:	10000009 	b	2948 <n32_bgtz_test+0x2948>
    2924:	00000000 	nop
    2928:	00000000 	nop
    292c:	00000021 	move	zero,zero
    2930:	00000021 	move	zero,zero
    2934:	00000021 	move	zero,zero
    2938:	00000021 	move	zero,zero
    293c:	00000021 	move	zero,zero
    2940:	3c1226c6 	lui	s2,0x26c6
    2944:	3652077c 	ori	s2,s2,0x77c
    2948:	00000000 	nop
    294c:	24140000 	li	s4,0
    2950:	16141e70 	bne	s0,s4,a314 <inst_error>
    2954:	00000000 	nop
    2958:	00000000 	nop
    295c:	24150000 	li	s5,0
    2960:	16551e6c 	bne	s2,s5,a314 <inst_error>
    2964:	00000000 	nop
    2968:	00000000 	nop
    296c:	3c0c656a 	lui	t4,0x656a
    2970:	358c11e8 	ori	t4,t4,0x11e8
    2974:	3c0ddde3 	lui	t5,0xdde3
    2978:	35ad51c7 	ori	t5,t5,0x51c7
    297c:	24100000 	li	s0,0
    2980:	10000016 	b	29dc <n32_bgtz_test+0x29dc>
    2984:	24120000 	li	s2,0
    2988:	00000000 	nop
    298c:	3c10656a 	lui	s0,0x656a
    2990:	1d00001e 	bgtz	t0,2a0c <n32_bgtz_test+0x2a0c>
    2994:	361011e8 	ori	s0,s0,0x11e8
    2998:	1000001e 	b	2a14 <n32_bgtz_test+0x2a14>
    299c:	00000000 	nop
    29a0:	00000000 	nop
    29a4:	00000021 	move	zero,zero
    29a8:	00000021 	move	zero,zero
    29ac:	00000021 	move	zero,zero
    29b0:	00000021 	move	zero,zero
    29b4:	00000021 	move	zero,zero
    29b8:	00000021 	move	zero,zero
    29bc:	00000021 	move	zero,zero
    29c0:	00000021 	move	zero,zero
    29c4:	00000021 	move	zero,zero
    29c8:	00000021 	move	zero,zero
    29cc:	00000021 	move	zero,zero
    29d0:	00000021 	move	zero,zero
    29d4:	00000021 	move	zero,zero
    29d8:	00000021 	move	zero,zero
    29dc:	3c08f4e2 	lui	t0,0xf4e2
    29e0:	3508acf6 	ori	t0,t0,0xacf6
    29e4:	1d00ffe9 	bgtz	t0,298c <n32_bgtz_test+0x298c>
    29e8:	00000000 	nop
    29ec:	10000009 	b	2a14 <n32_bgtz_test+0x2a14>
    29f0:	00000000 	nop
    29f4:	00000000 	nop
    29f8:	00000021 	move	zero,zero
    29fc:	00000021 	move	zero,zero
    2a00:	00000021 	move	zero,zero
    2a04:	00000021 	move	zero,zero
    2a08:	00000021 	move	zero,zero
    2a0c:	3c12dde3 	lui	s2,0xdde3
    2a10:	365251c7 	ori	s2,s2,0x51c7
    2a14:	00000000 	nop
    2a18:	24140000 	li	s4,0
    2a1c:	16141e3d 	bne	s0,s4,a314 <inst_error>
    2a20:	00000000 	nop
    2a24:	00000000 	nop
    2a28:	24150000 	li	s5,0
    2a2c:	16551e39 	bne	s2,s5,a314 <inst_error>
    2a30:	00000000 	nop
    2a34:	00000000 	nop
    2a38:	3c0ca579 	lui	t4,0xa579
    2a3c:	358c66d2 	ori	t4,t4,0x66d2
    2a40:	3c0dc4ca 	lui	t5,0xc4ca
    2a44:	35ad3f4c 	ori	t5,t5,0x3f4c
    2a48:	24100000 	li	s0,0
    2a4c:	10000016 	b	2aa8 <n32_bgtz_test+0x2aa8>
    2a50:	24120000 	li	s2,0
    2a54:	00000000 	nop
    2a58:	3c10a579 	lui	s0,0xa579
    2a5c:	1d00001e 	bgtz	t0,2ad8 <n32_bgtz_test+0x2ad8>
    2a60:	361066d2 	ori	s0,s0,0x66d2
    2a64:	1000001e 	b	2ae0 <n32_bgtz_test+0x2ae0>
    2a68:	00000000 	nop
    2a6c:	00000000 	nop
    2a70:	00000021 	move	zero,zero
    2a74:	00000021 	move	zero,zero
    2a78:	00000021 	move	zero,zero
    2a7c:	00000021 	move	zero,zero
    2a80:	00000021 	move	zero,zero
    2a84:	00000021 	move	zero,zero
    2a88:	00000021 	move	zero,zero
    2a8c:	00000021 	move	zero,zero
    2a90:	00000021 	move	zero,zero
    2a94:	00000021 	move	zero,zero
    2a98:	00000021 	move	zero,zero
    2a9c:	00000021 	move	zero,zero
    2aa0:	00000021 	move	zero,zero
    2aa4:	00000021 	move	zero,zero
    2aa8:	3c08cfba 	lui	t0,0xcfba
    2aac:	35081c40 	ori	t0,t0,0x1c40
    2ab0:	1d00ffe9 	bgtz	t0,2a58 <n32_bgtz_test+0x2a58>
    2ab4:	00000000 	nop
    2ab8:	10000009 	b	2ae0 <n32_bgtz_test+0x2ae0>
    2abc:	00000000 	nop
    2ac0:	00000000 	nop
    2ac4:	00000021 	move	zero,zero
    2ac8:	00000021 	move	zero,zero
    2acc:	00000021 	move	zero,zero
    2ad0:	00000021 	move	zero,zero
    2ad4:	00000021 	move	zero,zero
    2ad8:	3c12c4ca 	lui	s2,0xc4ca
    2adc:	36523f4c 	ori	s2,s2,0x3f4c
    2ae0:	00000000 	nop
    2ae4:	24140000 	li	s4,0
    2ae8:	16141e0a 	bne	s0,s4,a314 <inst_error>
    2aec:	00000000 	nop
    2af0:	00000000 	nop
    2af4:	24150000 	li	s5,0
    2af8:	16551e06 	bne	s2,s5,a314 <inst_error>
    2afc:	00000000 	nop
    2b00:	00000000 	nop
    2b04:	3c0c398f 	lui	t4,0x398f
    2b08:	358cf448 	ori	t4,t4,0xf448
    2b0c:	3c0dacc6 	lui	t5,0xacc6
    2b10:	35ad5800 	ori	t5,t5,0x5800
    2b14:	24100000 	li	s0,0
    2b18:	10000016 	b	2b74 <n32_bgtz_test+0x2b74>
    2b1c:	24120000 	li	s2,0
    2b20:	00000000 	nop
    2b24:	3c10398f 	lui	s0,0x398f
    2b28:	1d00001e 	bgtz	t0,2ba4 <n32_bgtz_test+0x2ba4>
    2b2c:	3610f448 	ori	s0,s0,0xf448
    2b30:	1000001e 	b	2bac <n32_bgtz_test+0x2bac>
    2b34:	00000000 	nop
    2b38:	00000000 	nop
    2b3c:	00000021 	move	zero,zero
    2b40:	00000021 	move	zero,zero
    2b44:	00000021 	move	zero,zero
    2b48:	00000021 	move	zero,zero
    2b4c:	00000021 	move	zero,zero
    2b50:	00000021 	move	zero,zero
    2b54:	00000021 	move	zero,zero
    2b58:	00000021 	move	zero,zero
    2b5c:	00000021 	move	zero,zero
    2b60:	00000021 	move	zero,zero
    2b64:	00000021 	move	zero,zero
    2b68:	00000021 	move	zero,zero
    2b6c:	00000021 	move	zero,zero
    2b70:	00000021 	move	zero,zero
    2b74:	3c082881 	lui	t0,0x2881
    2b78:	35084420 	ori	t0,t0,0x4420
    2b7c:	1d00ffe9 	bgtz	t0,2b24 <n32_bgtz_test+0x2b24>
    2b80:	00000000 	nop
    2b84:	10000009 	b	2bac <n32_bgtz_test+0x2bac>
    2b88:	00000000 	nop
    2b8c:	00000000 	nop
    2b90:	00000021 	move	zero,zero
    2b94:	00000021 	move	zero,zero
    2b98:	00000021 	move	zero,zero
    2b9c:	00000021 	move	zero,zero
    2ba0:	00000021 	move	zero,zero
    2ba4:	3c12acc6 	lui	s2,0xacc6
    2ba8:	36525800 	ori	s2,s2,0x5800
    2bac:	00000000 	nop
    2bb0:	3c14398f 	lui	s4,0x398f
    2bb4:	3694f448 	ori	s4,s4,0xf448
    2bb8:	16141dd6 	bne	s0,s4,a314 <inst_error>
    2bbc:	00000000 	nop
    2bc0:	00000000 	nop
    2bc4:	3c15acc6 	lui	s5,0xacc6
    2bc8:	36b55800 	ori	s5,s5,0x5800
    2bcc:	16551dd1 	bne	s2,s5,a314 <inst_error>
    2bd0:	00000000 	nop
    2bd4:	00000000 	nop
    2bd8:	3c0ce228 	lui	t4,0xe228
    2bdc:	358cddb6 	ori	t4,t4,0xddb6
    2be0:	3c0ddd97 	lui	t5,0xdd97
    2be4:	35addf05 	ori	t5,t5,0xdf05
    2be8:	24100000 	li	s0,0
    2bec:	10000016 	b	2c48 <n32_bgtz_test+0x2c48>
    2bf0:	24120000 	li	s2,0
    2bf4:	00000000 	nop
    2bf8:	3c10e228 	lui	s0,0xe228
    2bfc:	1d00001e 	bgtz	t0,2c78 <n32_bgtz_test+0x2c78>
    2c00:	3610ddb6 	ori	s0,s0,0xddb6
    2c04:	1000001e 	b	2c80 <n32_bgtz_test+0x2c80>
    2c08:	00000000 	nop
    2c0c:	00000000 	nop
    2c10:	00000021 	move	zero,zero
    2c14:	00000021 	move	zero,zero
    2c18:	00000021 	move	zero,zero
    2c1c:	00000021 	move	zero,zero
    2c20:	00000021 	move	zero,zero
    2c24:	00000021 	move	zero,zero
    2c28:	00000021 	move	zero,zero
    2c2c:	00000021 	move	zero,zero
    2c30:	00000021 	move	zero,zero
    2c34:	00000021 	move	zero,zero
    2c38:	00000021 	move	zero,zero
    2c3c:	00000021 	move	zero,zero
    2c40:	00000021 	move	zero,zero
    2c44:	00000021 	move	zero,zero
    2c48:	3c0868d8 	lui	t0,0x68d8
    2c4c:	35089f80 	ori	t0,t0,0x9f80
    2c50:	1d00ffe9 	bgtz	t0,2bf8 <n32_bgtz_test+0x2bf8>
    2c54:	00000000 	nop
    2c58:	10000009 	b	2c80 <n32_bgtz_test+0x2c80>
    2c5c:	00000000 	nop
    2c60:	00000000 	nop
    2c64:	00000021 	move	zero,zero
    2c68:	00000021 	move	zero,zero
    2c6c:	00000021 	move	zero,zero
    2c70:	00000021 	move	zero,zero
    2c74:	00000021 	move	zero,zero
    2c78:	3c12dd97 	lui	s2,0xdd97
    2c7c:	3652df05 	ori	s2,s2,0xdf05
    2c80:	00000000 	nop
    2c84:	3c14e228 	lui	s4,0xe228
    2c88:	3694ddb6 	ori	s4,s4,0xddb6
    2c8c:	16141da1 	bne	s0,s4,a314 <inst_error>
    2c90:	00000000 	nop
    2c94:	00000000 	nop
    2c98:	3c15dd97 	lui	s5,0xdd97
    2c9c:	36b5df05 	ori	s5,s5,0xdf05
    2ca0:	16551d9c 	bne	s2,s5,a314 <inst_error>
    2ca4:	00000000 	nop
    2ca8:	00000000 	nop
    2cac:	3c0ce32f 	lui	t4,0xe32f
    2cb0:	358c4cf4 	ori	t4,t4,0x4cf4
    2cb4:	3c0d6439 	lui	t5,0x6439
    2cb8:	35ad43a0 	ori	t5,t5,0x43a0
    2cbc:	24100000 	li	s0,0
    2cc0:	10000016 	b	2d1c <n32_bgtz_test+0x2d1c>
    2cc4:	24120000 	li	s2,0
    2cc8:	00000000 	nop
    2ccc:	3c10e32f 	lui	s0,0xe32f
    2cd0:	1d00001e 	bgtz	t0,2d4c <n32_bgtz_test+0x2d4c>
    2cd4:	36104cf4 	ori	s0,s0,0x4cf4
    2cd8:	1000001e 	b	2d54 <n32_bgtz_test+0x2d54>
    2cdc:	00000000 	nop
    2ce0:	00000000 	nop
    2ce4:	00000021 	move	zero,zero
    2ce8:	00000021 	move	zero,zero
    2cec:	00000021 	move	zero,zero
    2cf0:	00000021 	move	zero,zero
    2cf4:	00000021 	move	zero,zero
    2cf8:	00000021 	move	zero,zero
    2cfc:	00000021 	move	zero,zero
    2d00:	00000021 	move	zero,zero
    2d04:	00000021 	move	zero,zero
    2d08:	00000021 	move	zero,zero
    2d0c:	00000021 	move	zero,zero
    2d10:	00000021 	move	zero,zero
    2d14:	00000021 	move	zero,zero
    2d18:	00000021 	move	zero,zero
    2d1c:	3c08e3d8 	lui	t0,0xe3d8
    2d20:	35086394 	ori	t0,t0,0x6394
    2d24:	1d00ffe9 	bgtz	t0,2ccc <n32_bgtz_test+0x2ccc>
    2d28:	00000000 	nop
    2d2c:	10000009 	b	2d54 <n32_bgtz_test+0x2d54>
    2d30:	00000000 	nop
    2d34:	00000000 	nop
    2d38:	00000021 	move	zero,zero
    2d3c:	00000021 	move	zero,zero
    2d40:	00000021 	move	zero,zero
    2d44:	00000021 	move	zero,zero
    2d48:	00000021 	move	zero,zero
    2d4c:	3c126439 	lui	s2,0x6439
    2d50:	365243a0 	ori	s2,s2,0x43a0
    2d54:	00000000 	nop
    2d58:	24140000 	li	s4,0
    2d5c:	16141d6d 	bne	s0,s4,a314 <inst_error>
    2d60:	00000000 	nop
    2d64:	00000000 	nop
    2d68:	24150000 	li	s5,0
    2d6c:	16551d69 	bne	s2,s5,a314 <inst_error>
    2d70:	00000000 	nop
    2d74:	00000000 	nop
    2d78:	3c0c572a 	lui	t4,0x572a
    2d7c:	358cbb70 	ori	t4,t4,0xbb70
    2d80:	3c0d0175 	lui	t5,0x175
    2d84:	35ad10ae 	ori	t5,t5,0x10ae
    2d88:	24100000 	li	s0,0
    2d8c:	10000016 	b	2de8 <n32_bgtz_test+0x2de8>
    2d90:	24120000 	li	s2,0
    2d94:	00000000 	nop
    2d98:	3c10572a 	lui	s0,0x572a
    2d9c:	1d00001e 	bgtz	t0,2e18 <n32_bgtz_test+0x2e18>
    2da0:	3610bb70 	ori	s0,s0,0xbb70
    2da4:	1000001e 	b	2e20 <n32_bgtz_test+0x2e20>
    2da8:	00000000 	nop
    2dac:	00000000 	nop
    2db0:	00000021 	move	zero,zero
    2db4:	00000021 	move	zero,zero
    2db8:	00000021 	move	zero,zero
    2dbc:	00000021 	move	zero,zero
    2dc0:	00000021 	move	zero,zero
    2dc4:	00000021 	move	zero,zero
    2dc8:	00000021 	move	zero,zero
    2dcc:	00000021 	move	zero,zero
    2dd0:	00000021 	move	zero,zero
    2dd4:	00000021 	move	zero,zero
    2dd8:	00000021 	move	zero,zero
    2ddc:	00000021 	move	zero,zero
    2de0:	00000021 	move	zero,zero
    2de4:	00000021 	move	zero,zero
    2de8:	3c08daea 	lui	t0,0xdaea
    2dec:	35084ae0 	ori	t0,t0,0x4ae0
    2df0:	1d00ffe9 	bgtz	t0,2d98 <n32_bgtz_test+0x2d98>
    2df4:	00000000 	nop
    2df8:	10000009 	b	2e20 <n32_bgtz_test+0x2e20>
    2dfc:	00000000 	nop
    2e00:	00000000 	nop
    2e04:	00000021 	move	zero,zero
    2e08:	00000021 	move	zero,zero
    2e0c:	00000021 	move	zero,zero
    2e10:	00000021 	move	zero,zero
    2e14:	00000021 	move	zero,zero
    2e18:	3c120175 	lui	s2,0x175
    2e1c:	365210ae 	ori	s2,s2,0x10ae
    2e20:	00000000 	nop
    2e24:	24140000 	li	s4,0
    2e28:	16141d3a 	bne	s0,s4,a314 <inst_error>
    2e2c:	00000000 	nop
    2e30:	00000000 	nop
    2e34:	24150000 	li	s5,0
    2e38:	16551d36 	bne	s2,s5,a314 <inst_error>
    2e3c:	00000000 	nop
    2e40:	00000000 	nop
    2e44:	3c0ca747 	lui	t4,0xa747
    2e48:	358cbbb0 	ori	t4,t4,0xbbb0
    2e4c:	3c0dddf0 	lui	t5,0xddf0
    2e50:	35ad5900 	ori	t5,t5,0x5900
    2e54:	24100000 	li	s0,0
    2e58:	10000016 	b	2eb4 <n32_bgtz_test+0x2eb4>
    2e5c:	24120000 	li	s2,0
    2e60:	00000000 	nop
    2e64:	3c10a747 	lui	s0,0xa747
    2e68:	1d00001e 	bgtz	t0,2ee4 <n32_bgtz_test+0x2ee4>
    2e6c:	3610bbb0 	ori	s0,s0,0xbbb0
    2e70:	1000001e 	b	2eec <n32_bgtz_test+0x2eec>
    2e74:	00000000 	nop
    2e78:	00000000 	nop
    2e7c:	00000021 	move	zero,zero
    2e80:	00000021 	move	zero,zero
    2e84:	00000021 	move	zero,zero
    2e88:	00000021 	move	zero,zero
    2e8c:	00000021 	move	zero,zero
    2e90:	00000021 	move	zero,zero
    2e94:	00000021 	move	zero,zero
    2e98:	00000021 	move	zero,zero
    2e9c:	00000021 	move	zero,zero
    2ea0:	00000021 	move	zero,zero
    2ea4:	00000021 	move	zero,zero
    2ea8:	00000021 	move	zero,zero
    2eac:	00000021 	move	zero,zero
    2eb0:	00000021 	move	zero,zero
    2eb4:	3c087afd 	lui	t0,0x7afd
    2eb8:	350834e0 	ori	t0,t0,0x34e0
    2ebc:	1d00ffe9 	bgtz	t0,2e64 <n32_bgtz_test+0x2e64>
    2ec0:	00000000 	nop
    2ec4:	10000009 	b	2eec <n32_bgtz_test+0x2eec>
    2ec8:	00000000 	nop
    2ecc:	00000000 	nop
    2ed0:	00000021 	move	zero,zero
    2ed4:	00000021 	move	zero,zero
    2ed8:	00000021 	move	zero,zero
    2edc:	00000021 	move	zero,zero
    2ee0:	00000021 	move	zero,zero
    2ee4:	3c12ddf0 	lui	s2,0xddf0
    2ee8:	36525900 	ori	s2,s2,0x5900
    2eec:	00000000 	nop
    2ef0:	3c14a747 	lui	s4,0xa747
    2ef4:	3694bbb0 	ori	s4,s4,0xbbb0
    2ef8:	16141d06 	bne	s0,s4,a314 <inst_error>
    2efc:	00000000 	nop
    2f00:	00000000 	nop
    2f04:	3c15ddf0 	lui	s5,0xddf0
    2f08:	36b55900 	ori	s5,s5,0x5900
    2f0c:	16551d01 	bne	s2,s5,a314 <inst_error>
    2f10:	00000000 	nop
    2f14:	00000000 	nop
    2f18:	3c0cce5a 	lui	t4,0xce5a
    2f1c:	358cfb08 	ori	t4,t4,0xfb08
    2f20:	3c0d97e2 	lui	t5,0x97e2
    2f24:	35ad4bac 	ori	t5,t5,0x4bac
    2f28:	24100000 	li	s0,0
    2f2c:	10000016 	b	2f88 <n32_bgtz_test+0x2f88>
    2f30:	24120000 	li	s2,0
    2f34:	00000000 	nop
    2f38:	3c10ce5a 	lui	s0,0xce5a
    2f3c:	1d00001e 	bgtz	t0,2fb8 <n32_bgtz_test+0x2fb8>
    2f40:	3610fb08 	ori	s0,s0,0xfb08
    2f44:	1000001e 	b	2fc0 <n32_bgtz_test+0x2fc0>
    2f48:	00000000 	nop
    2f4c:	00000000 	nop
    2f50:	00000021 	move	zero,zero
    2f54:	00000021 	move	zero,zero
    2f58:	00000021 	move	zero,zero
    2f5c:	00000021 	move	zero,zero
    2f60:	00000021 	move	zero,zero
    2f64:	00000021 	move	zero,zero
    2f68:	00000021 	move	zero,zero
    2f6c:	00000021 	move	zero,zero
    2f70:	00000021 	move	zero,zero
    2f74:	00000021 	move	zero,zero
    2f78:	00000021 	move	zero,zero
    2f7c:	00000021 	move	zero,zero
    2f80:	00000021 	move	zero,zero
    2f84:	00000021 	move	zero,zero
    2f88:	3c085278 	lui	t0,0x5278
    2f8c:	3508e3d0 	ori	t0,t0,0xe3d0
    2f90:	1d00ffe9 	bgtz	t0,2f38 <n32_bgtz_test+0x2f38>
    2f94:	00000000 	nop
    2f98:	10000009 	b	2fc0 <n32_bgtz_test+0x2fc0>
    2f9c:	00000000 	nop
    2fa0:	00000000 	nop
    2fa4:	00000021 	move	zero,zero
    2fa8:	00000021 	move	zero,zero
    2fac:	00000021 	move	zero,zero
    2fb0:	00000021 	move	zero,zero
    2fb4:	00000021 	move	zero,zero
    2fb8:	3c1297e2 	lui	s2,0x97e2
    2fbc:	36524bac 	ori	s2,s2,0x4bac
    2fc0:	00000000 	nop
    2fc4:	3c14ce5a 	lui	s4,0xce5a
    2fc8:	3694fb08 	ori	s4,s4,0xfb08
    2fcc:	16141cd1 	bne	s0,s4,a314 <inst_error>
    2fd0:	00000000 	nop
    2fd4:	00000000 	nop
    2fd8:	3c1597e2 	lui	s5,0x97e2
    2fdc:	36b54bac 	ori	s5,s5,0x4bac
    2fe0:	16551ccc 	bne	s2,s5,a314 <inst_error>
    2fe4:	00000000 	nop
    2fe8:	00000000 	nop
    2fec:	3c0cceb1 	lui	t4,0xceb1
    2ff0:	358cb900 	ori	t4,t4,0xb900
    2ff4:	3c0d487e 	lui	t5,0x487e
    2ff8:	35ad9c3c 	ori	t5,t5,0x9c3c
    2ffc:	24100000 	li	s0,0
    3000:	10000016 	b	305c <n32_bgtz_test+0x305c>
    3004:	24120000 	li	s2,0
    3008:	00000000 	nop
    300c:	3c10ceb1 	lui	s0,0xceb1
    3010:	1d00001e 	bgtz	t0,308c <n32_bgtz_test+0x308c>
    3014:	3610b900 	ori	s0,s0,0xb900
    3018:	1000001e 	b	3094 <n32_bgtz_test+0x3094>
    301c:	00000000 	nop
    3020:	00000000 	nop
    3024:	00000021 	move	zero,zero
    3028:	00000021 	move	zero,zero
    302c:	00000021 	move	zero,zero
    3030:	00000021 	move	zero,zero
    3034:	00000021 	move	zero,zero
    3038:	00000021 	move	zero,zero
    303c:	00000021 	move	zero,zero
    3040:	00000021 	move	zero,zero
    3044:	00000021 	move	zero,zero
    3048:	00000021 	move	zero,zero
    304c:	00000021 	move	zero,zero
    3050:	00000021 	move	zero,zero
    3054:	00000021 	move	zero,zero
    3058:	00000021 	move	zero,zero
    305c:	3c087d05 	lui	t0,0x7d05
    3060:	3508f388 	ori	t0,t0,0xf388
    3064:	1d00ffe9 	bgtz	t0,300c <n32_bgtz_test+0x300c>
    3068:	00000000 	nop
    306c:	10000009 	b	3094 <n32_bgtz_test+0x3094>
    3070:	00000000 	nop
    3074:	00000000 	nop
    3078:	00000021 	move	zero,zero
    307c:	00000021 	move	zero,zero
    3080:	00000021 	move	zero,zero
    3084:	00000021 	move	zero,zero
    3088:	00000021 	move	zero,zero
    308c:	3c12487e 	lui	s2,0x487e
    3090:	36529c3c 	ori	s2,s2,0x9c3c
    3094:	00000000 	nop
    3098:	3c14ceb1 	lui	s4,0xceb1
    309c:	3694b900 	ori	s4,s4,0xb900
    30a0:	16141c9c 	bne	s0,s4,a314 <inst_error>
    30a4:	00000000 	nop
    30a8:	00000000 	nop
    30ac:	3c15487e 	lui	s5,0x487e
    30b0:	36b59c3c 	ori	s5,s5,0x9c3c
    30b4:	16551c97 	bne	s2,s5,a314 <inst_error>
    30b8:	00000000 	nop
    30bc:	00000000 	nop
    30c0:	3c0c5489 	lui	t4,0x5489
    30c4:	358ce40a 	ori	t4,t4,0xe40a
    30c8:	3c0ddbec 	lui	t5,0xdbec
    30cc:	35ad76e4 	ori	t5,t5,0x76e4
    30d0:	24100000 	li	s0,0
    30d4:	10000016 	b	3130 <n32_bgtz_test+0x3130>
    30d8:	24120000 	li	s2,0
    30dc:	00000000 	nop
    30e0:	3c105489 	lui	s0,0x5489
    30e4:	1d00001e 	bgtz	t0,3160 <n32_bgtz_test+0x3160>
    30e8:	3610e40a 	ori	s0,s0,0xe40a
    30ec:	1000001e 	b	3168 <n32_bgtz_test+0x3168>
    30f0:	00000000 	nop
    30f4:	00000000 	nop
    30f8:	00000021 	move	zero,zero
    30fc:	00000021 	move	zero,zero
    3100:	00000021 	move	zero,zero
    3104:	00000021 	move	zero,zero
    3108:	00000021 	move	zero,zero
    310c:	00000021 	move	zero,zero
    3110:	00000021 	move	zero,zero
    3114:	00000021 	move	zero,zero
    3118:	00000021 	move	zero,zero
    311c:	00000021 	move	zero,zero
    3120:	00000021 	move	zero,zero
    3124:	00000021 	move	zero,zero
    3128:	00000021 	move	zero,zero
    312c:	00000021 	move	zero,zero
    3130:	3c0888be 	lui	t0,0x88be
    3134:	350824c8 	ori	t0,t0,0x24c8
    3138:	1d00ffe9 	bgtz	t0,30e0 <n32_bgtz_test+0x30e0>
    313c:	00000000 	nop
    3140:	10000009 	b	3168 <n32_bgtz_test+0x3168>
    3144:	00000000 	nop
    3148:	00000000 	nop
    314c:	00000021 	move	zero,zero
    3150:	00000021 	move	zero,zero
    3154:	00000021 	move	zero,zero
    3158:	00000021 	move	zero,zero
    315c:	00000021 	move	zero,zero
    3160:	3c12dbec 	lui	s2,0xdbec
    3164:	365276e4 	ori	s2,s2,0x76e4
    3168:	00000000 	nop
    316c:	24140000 	li	s4,0
    3170:	16141c68 	bne	s0,s4,a314 <inst_error>
    3174:	00000000 	nop
    3178:	00000000 	nop
    317c:	24150000 	li	s5,0
    3180:	16551c64 	bne	s2,s5,a314 <inst_error>
    3184:	00000000 	nop
    3188:	00000000 	nop
    318c:	3c0ce570 	lui	t4,0xe570
    3190:	358cb32c 	ori	t4,t4,0xb32c
    3194:	3c0d5290 	lui	t5,0x5290
    3198:	35ad6034 	ori	t5,t5,0x6034
    319c:	24100000 	li	s0,0
    31a0:	10000016 	b	31fc <n32_bgtz_test+0x31fc>
    31a4:	24120000 	li	s2,0
    31a8:	00000000 	nop
    31ac:	3c10e570 	lui	s0,0xe570
    31b0:	1d00001e 	bgtz	t0,322c <n32_bgtz_test+0x322c>
    31b4:	3610b32c 	ori	s0,s0,0xb32c
    31b8:	1000001e 	b	3234 <n32_bgtz_test+0x3234>
    31bc:	00000000 	nop
    31c0:	00000000 	nop
    31c4:	00000021 	move	zero,zero
    31c8:	00000021 	move	zero,zero
    31cc:	00000021 	move	zero,zero
    31d0:	00000021 	move	zero,zero
    31d4:	00000021 	move	zero,zero
    31d8:	00000021 	move	zero,zero
    31dc:	00000021 	move	zero,zero
    31e0:	00000021 	move	zero,zero
    31e4:	00000021 	move	zero,zero
    31e8:	00000021 	move	zero,zero
    31ec:	00000021 	move	zero,zero
    31f0:	00000021 	move	zero,zero
    31f4:	00000021 	move	zero,zero
    31f8:	00000021 	move	zero,zero
    31fc:	3c084ffc 	lui	t0,0x4ffc
    3200:	35088b80 	ori	t0,t0,0x8b80
    3204:	1d00ffe9 	bgtz	t0,31ac <n32_bgtz_test+0x31ac>
    3208:	00000000 	nop
    320c:	10000009 	b	3234 <n32_bgtz_test+0x3234>
    3210:	00000000 	nop
    3214:	00000000 	nop
    3218:	00000021 	move	zero,zero
    321c:	00000021 	move	zero,zero
    3220:	00000021 	move	zero,zero
    3224:	00000021 	move	zero,zero
    3228:	00000021 	move	zero,zero
    322c:	3c125290 	lui	s2,0x5290
    3230:	36526034 	ori	s2,s2,0x6034
    3234:	00000000 	nop
    3238:	3c14e570 	lui	s4,0xe570
    323c:	3694b32c 	ori	s4,s4,0xb32c
    3240:	16141c34 	bne	s0,s4,a314 <inst_error>
    3244:	00000000 	nop
    3248:	00000000 	nop
    324c:	3c155290 	lui	s5,0x5290
    3250:	36b56034 	ori	s5,s5,0x6034
    3254:	16551c2f 	bne	s2,s5,a314 <inst_error>
    3258:	00000000 	nop
    325c:	00000000 	nop
    3260:	3c0c60a0 	lui	t4,0x60a0
    3264:	358c0828 	ori	t4,t4,0x828
    3268:	3c0deea9 	lui	t5,0xeea9
    326c:	35ad74f0 	ori	t5,t5,0x74f0
    3270:	24100000 	li	s0,0
    3274:	10000016 	b	32d0 <n32_bgtz_test+0x32d0>
    3278:	24120000 	li	s2,0
    327c:	00000000 	nop
    3280:	3c1060a0 	lui	s0,0x60a0
    3284:	1d00001e 	bgtz	t0,3300 <n32_bgtz_test+0x3300>
    3288:	36100828 	ori	s0,s0,0x828
    328c:	1000001e 	b	3308 <n32_bgtz_test+0x3308>
    3290:	00000000 	nop
    3294:	00000000 	nop
    3298:	00000021 	move	zero,zero
    329c:	00000021 	move	zero,zero
    32a0:	00000021 	move	zero,zero
    32a4:	00000021 	move	zero,zero
    32a8:	00000021 	move	zero,zero
    32ac:	00000021 	move	zero,zero
    32b0:	00000021 	move	zero,zero
    32b4:	00000021 	move	zero,zero
    32b8:	00000021 	move	zero,zero
    32bc:	00000021 	move	zero,zero
    32c0:	00000021 	move	zero,zero
    32c4:	00000021 	move	zero,zero
    32c8:	00000021 	move	zero,zero
    32cc:	00000021 	move	zero,zero
    32d0:	3c08db38 	lui	t0,0xdb38
    32d4:	35081e30 	ori	t0,t0,0x1e30
    32d8:	1d00ffe9 	bgtz	t0,3280 <n32_bgtz_test+0x3280>
    32dc:	00000000 	nop
    32e0:	10000009 	b	3308 <n32_bgtz_test+0x3308>
    32e4:	00000000 	nop
    32e8:	00000000 	nop
    32ec:	00000021 	move	zero,zero
    32f0:	00000021 	move	zero,zero
    32f4:	00000021 	move	zero,zero
    32f8:	00000021 	move	zero,zero
    32fc:	00000021 	move	zero,zero
    3300:	3c12eea9 	lui	s2,0xeea9
    3304:	365274f0 	ori	s2,s2,0x74f0
    3308:	00000000 	nop
    330c:	24140000 	li	s4,0
    3310:	16141c00 	bne	s0,s4,a314 <inst_error>
    3314:	00000000 	nop
    3318:	00000000 	nop
    331c:	24150000 	li	s5,0
    3320:	16551bfc 	bne	s2,s5,a314 <inst_error>
    3324:	00000000 	nop
    3328:	00000000 	nop
    332c:	3c0c264e 	lui	t4,0x264e
    3330:	358ce3be 	ori	t4,t4,0xe3be
    3334:	3c0d7b21 	lui	t5,0x7b21
    3338:	35ad8b6c 	ori	t5,t5,0x8b6c
    333c:	24100000 	li	s0,0
    3340:	10000016 	b	339c <n32_bgtz_test+0x339c>
    3344:	24120000 	li	s2,0
    3348:	00000000 	nop
    334c:	3c10264e 	lui	s0,0x264e
    3350:	1d00001e 	bgtz	t0,33cc <n32_bgtz_test+0x33cc>
    3354:	3610e3be 	ori	s0,s0,0xe3be
    3358:	1000001e 	b	33d4 <n32_bgtz_test+0x33d4>
    335c:	00000000 	nop
    3360:	00000000 	nop
    3364:	00000021 	move	zero,zero
    3368:	00000021 	move	zero,zero
    336c:	00000021 	move	zero,zero
    3370:	00000021 	move	zero,zero
    3374:	00000021 	move	zero,zero
    3378:	00000021 	move	zero,zero
    337c:	00000021 	move	zero,zero
    3380:	00000021 	move	zero,zero
    3384:	00000021 	move	zero,zero
    3388:	00000021 	move	zero,zero
    338c:	00000021 	move	zero,zero
    3390:	00000021 	move	zero,zero
    3394:	00000021 	move	zero,zero
    3398:	00000021 	move	zero,zero
    339c:	3c0838f3 	lui	t0,0x38f3
    33a0:	35082dce 	ori	t0,t0,0x2dce
    33a4:	1d00ffe9 	bgtz	t0,334c <n32_bgtz_test+0x334c>
    33a8:	00000000 	nop
    33ac:	10000009 	b	33d4 <n32_bgtz_test+0x33d4>
    33b0:	00000000 	nop
    33b4:	00000000 	nop
    33b8:	00000021 	move	zero,zero
    33bc:	00000021 	move	zero,zero
    33c0:	00000021 	move	zero,zero
    33c4:	00000021 	move	zero,zero
    33c8:	00000021 	move	zero,zero
    33cc:	3c127b21 	lui	s2,0x7b21
    33d0:	36528b6c 	ori	s2,s2,0x8b6c
    33d4:	00000000 	nop
    33d8:	3c14264e 	lui	s4,0x264e
    33dc:	3694e3be 	ori	s4,s4,0xe3be
    33e0:	16141bcc 	bne	s0,s4,a314 <inst_error>
    33e4:	00000000 	nop
    33e8:	00000000 	nop
    33ec:	3c157b21 	lui	s5,0x7b21
    33f0:	36b58b6c 	ori	s5,s5,0x8b6c
    33f4:	16551bc7 	bne	s2,s5,a314 <inst_error>
    33f8:	00000000 	nop
    33fc:	00000000 	nop
    3400:	3c0c6fc2 	lui	t4,0x6fc2
    3404:	358c10a0 	ori	t4,t4,0x10a0
    3408:	3c0ddd3e 	lui	t5,0xdd3e
    340c:	35addfd0 	ori	t5,t5,0xdfd0
    3410:	24100000 	li	s0,0
    3414:	10000016 	b	3470 <n32_bgtz_test+0x3470>
    3418:	24120000 	li	s2,0
    341c:	00000000 	nop
    3420:	3c106fc2 	lui	s0,0x6fc2
    3424:	1d00001e 	bgtz	t0,34a0 <n32_bgtz_test+0x34a0>
    3428:	361010a0 	ori	s0,s0,0x10a0
    342c:	1000001e 	b	34a8 <n32_bgtz_test+0x34a8>
    3430:	00000000 	nop
    3434:	00000000 	nop
    3438:	00000021 	move	zero,zero
    343c:	00000021 	move	zero,zero
    3440:	00000021 	move	zero,zero
    3444:	00000021 	move	zero,zero
    3448:	00000021 	move	zero,zero
    344c:	00000021 	move	zero,zero
    3450:	00000021 	move	zero,zero
    3454:	00000021 	move	zero,zero
    3458:	00000021 	move	zero,zero
    345c:	00000021 	move	zero,zero
    3460:	00000021 	move	zero,zero
    3464:	00000021 	move	zero,zero
    3468:	00000021 	move	zero,zero
    346c:	00000021 	move	zero,zero
    3470:	3c08de07 	lui	t0,0xde07
    3474:	350843d8 	ori	t0,t0,0x43d8
    3478:	1d00ffe9 	bgtz	t0,3420 <n32_bgtz_test+0x3420>
    347c:	00000000 	nop
    3480:	10000009 	b	34a8 <n32_bgtz_test+0x34a8>
    3484:	00000000 	nop
    3488:	00000000 	nop
    348c:	00000021 	move	zero,zero
    3490:	00000021 	move	zero,zero
    3494:	00000021 	move	zero,zero
    3498:	00000021 	move	zero,zero
    349c:	00000021 	move	zero,zero
    34a0:	3c12dd3e 	lui	s2,0xdd3e
    34a4:	3652dfd0 	ori	s2,s2,0xdfd0
    34a8:	00000000 	nop
    34ac:	24140000 	li	s4,0
    34b0:	16141b98 	bne	s0,s4,a314 <inst_error>
    34b4:	00000000 	nop
    34b8:	00000000 	nop
    34bc:	24150000 	li	s5,0
    34c0:	16551b94 	bne	s2,s5,a314 <inst_error>
    34c4:	00000000 	nop
    34c8:	00000000 	nop
    34cc:	3c0c30d9 	lui	t4,0x30d9
    34d0:	358c8512 	ori	t4,t4,0x8512
    34d4:	3c0db849 	lui	t5,0xb849
    34d8:	35aded6c 	ori	t5,t5,0xed6c
    34dc:	24100000 	li	s0,0
    34e0:	10000016 	b	353c <n32_bgtz_test+0x353c>
    34e4:	24120000 	li	s2,0
    34e8:	00000000 	nop
    34ec:	3c1030d9 	lui	s0,0x30d9
    34f0:	1d00001e 	bgtz	t0,356c <n32_bgtz_test+0x356c>
    34f4:	36108512 	ori	s0,s0,0x8512
    34f8:	1000001e 	b	3574 <n32_bgtz_test+0x3574>
    34fc:	00000000 	nop
    3500:	00000000 	nop
    3504:	00000021 	move	zero,zero
    3508:	00000021 	move	zero,zero
    350c:	00000021 	move	zero,zero
    3510:	00000021 	move	zero,zero
    3514:	00000021 	move	zero,zero
    3518:	00000021 	move	zero,zero
    351c:	00000021 	move	zero,zero
    3520:	00000021 	move	zero,zero
    3524:	00000021 	move	zero,zero
    3528:	00000021 	move	zero,zero
    352c:	00000021 	move	zero,zero
    3530:	00000021 	move	zero,zero
    3534:	00000021 	move	zero,zero
    3538:	00000021 	move	zero,zero
    353c:	3c08aad6 	lui	t0,0xaad6
    3540:	350861d8 	ori	t0,t0,0x61d8
    3544:	1d00ffe9 	bgtz	t0,34ec <n32_bgtz_test+0x34ec>
    3548:	00000000 	nop
    354c:	10000009 	b	3574 <n32_bgtz_test+0x3574>
    3550:	00000000 	nop
    3554:	00000000 	nop
    3558:	00000021 	move	zero,zero
    355c:	00000021 	move	zero,zero
    3560:	00000021 	move	zero,zero
    3564:	00000021 	move	zero,zero
    3568:	00000021 	move	zero,zero
    356c:	3c12b849 	lui	s2,0xb849
    3570:	3652ed6c 	ori	s2,s2,0xed6c
    3574:	00000000 	nop
    3578:	24140000 	li	s4,0
    357c:	16141b65 	bne	s0,s4,a314 <inst_error>
    3580:	00000000 	nop
    3584:	00000000 	nop
    3588:	24150000 	li	s5,0
    358c:	16551b61 	bne	s2,s5,a314 <inst_error>
    3590:	00000000 	nop
    3594:	00000000 	nop
    3598:	3c0c044e 	lui	t4,0x44e
    359c:	358c3aeb 	ori	t4,t4,0x3aeb
    35a0:	3c0deeea 	lui	t5,0xeeea
    35a4:	35ad49d0 	ori	t5,t5,0x49d0
    35a8:	24100000 	li	s0,0
    35ac:	10000016 	b	3608 <n32_bgtz_test+0x3608>
    35b0:	24120000 	li	s2,0
    35b4:	00000000 	nop
    35b8:	3c10044e 	lui	s0,0x44e
    35bc:	1d00001e 	bgtz	t0,3638 <n32_bgtz_test+0x3638>
    35c0:	36103aeb 	ori	s0,s0,0x3aeb
    35c4:	1000001e 	b	3640 <n32_bgtz_test+0x3640>
    35c8:	00000000 	nop
    35cc:	00000000 	nop
    35d0:	00000021 	move	zero,zero
    35d4:	00000021 	move	zero,zero
    35d8:	00000021 	move	zero,zero
    35dc:	00000021 	move	zero,zero
    35e0:	00000021 	move	zero,zero
    35e4:	00000021 	move	zero,zero
    35e8:	00000021 	move	zero,zero
    35ec:	00000021 	move	zero,zero
    35f0:	00000021 	move	zero,zero
    35f4:	00000021 	move	zero,zero
    35f8:	00000021 	move	zero,zero
    35fc:	00000021 	move	zero,zero
    3600:	00000021 	move	zero,zero
    3604:	00000021 	move	zero,zero
    3608:	3c08db14 	lui	t0,0xdb14
    360c:	35089a64 	ori	t0,t0,0x9a64
    3610:	1d00ffe9 	bgtz	t0,35b8 <n32_bgtz_test+0x35b8>
    3614:	00000000 	nop
    3618:	10000009 	b	3640 <n32_bgtz_test+0x3640>
    361c:	00000000 	nop
    3620:	00000000 	nop
    3624:	00000021 	move	zero,zero
    3628:	00000021 	move	zero,zero
    362c:	00000021 	move	zero,zero
    3630:	00000021 	move	zero,zero
    3634:	00000021 	move	zero,zero
    3638:	3c12eeea 	lui	s2,0xeeea
    363c:	365249d0 	ori	s2,s2,0x49d0
    3640:	00000000 	nop
    3644:	24140000 	li	s4,0
    3648:	16141b32 	bne	s0,s4,a314 <inst_error>
    364c:	00000000 	nop
    3650:	00000000 	nop
    3654:	24150000 	li	s5,0
    3658:	16551b2e 	bne	s2,s5,a314 <inst_error>
    365c:	00000000 	nop
    3660:	00000000 	nop
    3664:	3c0c1e24 	lui	t4,0x1e24
    3668:	358ca00c 	ori	t4,t4,0xa00c
    366c:	3c0d9f89 	lui	t5,0x9f89
    3670:	35adc3cf 	ori	t5,t5,0xc3cf
    3674:	24100000 	li	s0,0
    3678:	10000016 	b	36d4 <n32_bgtz_test+0x36d4>
    367c:	24120000 	li	s2,0
    3680:	00000000 	nop
    3684:	3c101e24 	lui	s0,0x1e24
    3688:	1d00001e 	bgtz	t0,3704 <n32_bgtz_test+0x3704>
    368c:	3610a00c 	ori	s0,s0,0xa00c
    3690:	1000001e 	b	370c <n32_bgtz_test+0x370c>
    3694:	00000000 	nop
    3698:	00000000 	nop
    369c:	00000021 	move	zero,zero
    36a0:	00000021 	move	zero,zero
    36a4:	00000021 	move	zero,zero
    36a8:	00000021 	move	zero,zero
    36ac:	00000021 	move	zero,zero
    36b0:	00000021 	move	zero,zero
    36b4:	00000021 	move	zero,zero
    36b8:	00000021 	move	zero,zero
    36bc:	00000021 	move	zero,zero
    36c0:	00000021 	move	zero,zero
    36c4:	00000021 	move	zero,zero
    36c8:	00000021 	move	zero,zero
    36cc:	00000021 	move	zero,zero
    36d0:	00000021 	move	zero,zero
    36d4:	3c086318 	lui	t0,0x6318
    36d8:	3508abe8 	ori	t0,t0,0xabe8
    36dc:	1d00ffe9 	bgtz	t0,3684 <n32_bgtz_test+0x3684>
    36e0:	00000000 	nop
    36e4:	10000009 	b	370c <n32_bgtz_test+0x370c>
    36e8:	00000000 	nop
    36ec:	00000000 	nop
    36f0:	00000021 	move	zero,zero
    36f4:	00000021 	move	zero,zero
    36f8:	00000021 	move	zero,zero
    36fc:	00000021 	move	zero,zero
    3700:	00000021 	move	zero,zero
    3704:	3c129f89 	lui	s2,0x9f89
    3708:	3652c3cf 	ori	s2,s2,0xc3cf
    370c:	00000000 	nop
    3710:	3c141e24 	lui	s4,0x1e24
    3714:	3694a00c 	ori	s4,s4,0xa00c
    3718:	16141afe 	bne	s0,s4,a314 <inst_error>
    371c:	00000000 	nop
    3720:	00000000 	nop
    3724:	3c159f89 	lui	s5,0x9f89
    3728:	36b5c3cf 	ori	s5,s5,0xc3cf
    372c:	16551af9 	bne	s2,s5,a314 <inst_error>
    3730:	00000000 	nop
    3734:	00000000 	nop
    3738:	3c0c96f8 	lui	t4,0x96f8
    373c:	358cc39d 	ori	t4,t4,0xc39d
    3740:	3c0dcff9 	lui	t5,0xcff9
    3744:	35ad6799 	ori	t5,t5,0x6799
    3748:	24100000 	li	s0,0
    374c:	10000016 	b	37a8 <n32_bgtz_test+0x37a8>
    3750:	24120000 	li	s2,0
    3754:	00000000 	nop
    3758:	3c1096f8 	lui	s0,0x96f8
    375c:	1d00001e 	bgtz	t0,37d8 <n32_bgtz_test+0x37d8>
    3760:	3610c39d 	ori	s0,s0,0xc39d
    3764:	1000001e 	b	37e0 <n32_bgtz_test+0x37e0>
    3768:	00000000 	nop
    376c:	00000000 	nop
    3770:	00000021 	move	zero,zero
    3774:	00000021 	move	zero,zero
    3778:	00000021 	move	zero,zero
    377c:	00000021 	move	zero,zero
    3780:	00000021 	move	zero,zero
    3784:	00000021 	move	zero,zero
    3788:	00000021 	move	zero,zero
    378c:	00000021 	move	zero,zero
    3790:	00000021 	move	zero,zero
    3794:	00000021 	move	zero,zero
    3798:	00000021 	move	zero,zero
    379c:	00000021 	move	zero,zero
    37a0:	00000021 	move	zero,zero
    37a4:	00000021 	move	zero,zero
    37a8:	3c08d8c4 	lui	t0,0xd8c4
    37ac:	3508ace3 	ori	t0,t0,0xace3
    37b0:	1d00ffe9 	bgtz	t0,3758 <n32_bgtz_test+0x3758>
    37b4:	00000000 	nop
    37b8:	10000009 	b	37e0 <n32_bgtz_test+0x37e0>
    37bc:	00000000 	nop
    37c0:	00000000 	nop
    37c4:	00000021 	move	zero,zero
    37c8:	00000021 	move	zero,zero
    37cc:	00000021 	move	zero,zero
    37d0:	00000021 	move	zero,zero
    37d4:	00000021 	move	zero,zero
    37d8:	3c12cff9 	lui	s2,0xcff9
    37dc:	36526799 	ori	s2,s2,0x6799
    37e0:	00000000 	nop
    37e4:	24140000 	li	s4,0
    37e8:	16141aca 	bne	s0,s4,a314 <inst_error>
    37ec:	00000000 	nop
    37f0:	00000000 	nop
    37f4:	24150000 	li	s5,0
    37f8:	16551ac6 	bne	s2,s5,a314 <inst_error>
    37fc:	00000000 	nop
    3800:	00000000 	nop
    3804:	3c0c6430 	lui	t4,0x6430
    3808:	358c0f10 	ori	t4,t4,0xf10
    380c:	3c0db152 	lui	t5,0xb152
    3810:	35ad50e5 	ori	t5,t5,0x50e5
    3814:	24100000 	li	s0,0
    3818:	10000016 	b	3874 <n32_bgtz_test+0x3874>
    381c:	24120000 	li	s2,0
    3820:	00000000 	nop
    3824:	3c106430 	lui	s0,0x6430
    3828:	1d00001e 	bgtz	t0,38a4 <n32_bgtz_test+0x38a4>
    382c:	36100f10 	ori	s0,s0,0xf10
    3830:	1000001e 	b	38ac <n32_bgtz_test+0x38ac>
    3834:	00000000 	nop
    3838:	00000000 	nop
    383c:	00000021 	move	zero,zero
    3840:	00000021 	move	zero,zero
    3844:	00000021 	move	zero,zero
    3848:	00000021 	move	zero,zero
    384c:	00000021 	move	zero,zero
    3850:	00000021 	move	zero,zero
    3854:	00000021 	move	zero,zero
    3858:	00000021 	move	zero,zero
    385c:	00000021 	move	zero,zero
    3860:	00000021 	move	zero,zero
    3864:	00000021 	move	zero,zero
    3868:	00000021 	move	zero,zero
    386c:	00000021 	move	zero,zero
    3870:	00000021 	move	zero,zero
    3874:	3c083d5c 	lui	t0,0x3d5c
    3878:	350843ac 	ori	t0,t0,0x43ac
    387c:	1d00ffe9 	bgtz	t0,3824 <n32_bgtz_test+0x3824>
    3880:	00000000 	nop
    3884:	10000009 	b	38ac <n32_bgtz_test+0x38ac>
    3888:	00000000 	nop
    388c:	00000000 	nop
    3890:	00000021 	move	zero,zero
    3894:	00000021 	move	zero,zero
    3898:	00000021 	move	zero,zero
    389c:	00000021 	move	zero,zero
    38a0:	00000021 	move	zero,zero
    38a4:	3c12b152 	lui	s2,0xb152
    38a8:	365250e5 	ori	s2,s2,0x50e5
    38ac:	00000000 	nop
    38b0:	3c146430 	lui	s4,0x6430
    38b4:	36940f10 	ori	s4,s4,0xf10
    38b8:	16141a96 	bne	s0,s4,a314 <inst_error>
    38bc:	00000000 	nop
    38c0:	00000000 	nop
    38c4:	3c15b152 	lui	s5,0xb152
    38c8:	36b550e5 	ori	s5,s5,0x50e5
    38cc:	16551a91 	bne	s2,s5,a314 <inst_error>
    38d0:	00000000 	nop
    38d4:	00000000 	nop
    38d8:	3c0c6339 	lui	t4,0x6339
    38dc:	358c2fb8 	ori	t4,t4,0x2fb8
    38e0:	3c0dc785 	lui	t5,0xc785
    38e4:	35ad1378 	ori	t5,t5,0x1378
    38e8:	24100000 	li	s0,0
    38ec:	10000016 	b	3948 <n32_bgtz_test+0x3948>
    38f0:	24120000 	li	s2,0
    38f4:	00000000 	nop
    38f8:	3c106339 	lui	s0,0x6339
    38fc:	1d00001e 	bgtz	t0,3978 <n32_bgtz_test+0x3978>
    3900:	36102fb8 	ori	s0,s0,0x2fb8
    3904:	1000001e 	b	3980 <n32_bgtz_test+0x3980>
    3908:	00000000 	nop
    390c:	00000000 	nop
    3910:	00000021 	move	zero,zero
    3914:	00000021 	move	zero,zero
    3918:	00000021 	move	zero,zero
    391c:	00000021 	move	zero,zero
    3920:	00000021 	move	zero,zero
    3924:	00000021 	move	zero,zero
    3928:	00000021 	move	zero,zero
    392c:	00000021 	move	zero,zero
    3930:	00000021 	move	zero,zero
    3934:	00000021 	move	zero,zero
    3938:	00000021 	move	zero,zero
    393c:	00000021 	move	zero,zero
    3940:	00000021 	move	zero,zero
    3944:	00000021 	move	zero,zero
    3948:	3c08376d 	lui	t0,0x376d
    394c:	35086900 	ori	t0,t0,0x6900
    3950:	1d00ffe9 	bgtz	t0,38f8 <n32_bgtz_test+0x38f8>
    3954:	00000000 	nop
    3958:	10000009 	b	3980 <n32_bgtz_test+0x3980>
    395c:	00000000 	nop
    3960:	00000000 	nop
    3964:	00000021 	move	zero,zero
    3968:	00000021 	move	zero,zero
    396c:	00000021 	move	zero,zero
    3970:	00000021 	move	zero,zero
    3974:	00000021 	move	zero,zero
    3978:	3c12c785 	lui	s2,0xc785
    397c:	36521378 	ori	s2,s2,0x1378
    3980:	00000000 	nop
    3984:	3c146339 	lui	s4,0x6339
    3988:	36942fb8 	ori	s4,s4,0x2fb8
    398c:	16141a61 	bne	s0,s4,a314 <inst_error>
    3990:	00000000 	nop
    3994:	00000000 	nop
    3998:	3c15c785 	lui	s5,0xc785
    399c:	36b51378 	ori	s5,s5,0x1378
    39a0:	16551a5c 	bne	s2,s5,a314 <inst_error>
    39a4:	00000000 	nop
    39a8:	00000000 	nop
    39ac:	3c0c630b 	lui	t4,0x630b
    39b0:	358cc8f2 	ori	t4,t4,0xc8f2
    39b4:	3c0d9464 	lui	t5,0x9464
    39b8:	35ad06d4 	ori	t5,t5,0x6d4
    39bc:	24100000 	li	s0,0
    39c0:	10000016 	b	3a1c <n32_bgtz_test+0x3a1c>
    39c4:	24120000 	li	s2,0
    39c8:	00000000 	nop
    39cc:	3c10630b 	lui	s0,0x630b
    39d0:	1d00001e 	bgtz	t0,3a4c <n32_bgtz_test+0x3a4c>
    39d4:	3610c8f2 	ori	s0,s0,0xc8f2
    39d8:	1000001e 	b	3a54 <n32_bgtz_test+0x3a54>
    39dc:	00000000 	nop
    39e0:	00000000 	nop
    39e4:	00000021 	move	zero,zero
    39e8:	00000021 	move	zero,zero
    39ec:	00000021 	move	zero,zero
    39f0:	00000021 	move	zero,zero
    39f4:	00000021 	move	zero,zero
    39f8:	00000021 	move	zero,zero
    39fc:	00000021 	move	zero,zero
    3a00:	00000021 	move	zero,zero
    3a04:	00000021 	move	zero,zero
    3a08:	00000021 	move	zero,zero
    3a0c:	00000021 	move	zero,zero
    3a10:	00000021 	move	zero,zero
    3a14:	00000021 	move	zero,zero
    3a18:	00000021 	move	zero,zero
    3a1c:	3c08a150 	lui	t0,0xa150
    3a20:	3508437e 	ori	t0,t0,0x437e
    3a24:	1d00ffe9 	bgtz	t0,39cc <n32_bgtz_test+0x39cc>
    3a28:	00000000 	nop
    3a2c:	10000009 	b	3a54 <n32_bgtz_test+0x3a54>
    3a30:	00000000 	nop
    3a34:	00000000 	nop
    3a38:	00000021 	move	zero,zero
    3a3c:	00000021 	move	zero,zero
    3a40:	00000021 	move	zero,zero
    3a44:	00000021 	move	zero,zero
    3a48:	00000021 	move	zero,zero
    3a4c:	3c129464 	lui	s2,0x9464
    3a50:	365206d4 	ori	s2,s2,0x6d4
    3a54:	00000000 	nop
    3a58:	24140000 	li	s4,0
    3a5c:	16141a2d 	bne	s0,s4,a314 <inst_error>
    3a60:	00000000 	nop
    3a64:	00000000 	nop
    3a68:	24150000 	li	s5,0
    3a6c:	16551a29 	bne	s2,s5,a314 <inst_error>
    3a70:	00000000 	nop
    3a74:	00000000 	nop
    3a78:	3c0c6588 	lui	t4,0x6588
    3a7c:	358c9a8c 	ori	t4,t4,0x9a8c
    3a80:	3c0df83c 	lui	t5,0xf83c
    3a84:	35ade74e 	ori	t5,t5,0xe74e
    3a88:	24100000 	li	s0,0
    3a8c:	10000016 	b	3ae8 <n32_bgtz_test+0x3ae8>
    3a90:	24120000 	li	s2,0
    3a94:	00000000 	nop
    3a98:	3c106588 	lui	s0,0x6588
    3a9c:	1d00001e 	bgtz	t0,3b18 <n32_bgtz_test+0x3b18>
    3aa0:	36109a8c 	ori	s0,s0,0x9a8c
    3aa4:	1000001e 	b	3b20 <n32_bgtz_test+0x3b20>
    3aa8:	00000000 	nop
    3aac:	00000000 	nop
    3ab0:	00000021 	move	zero,zero
    3ab4:	00000021 	move	zero,zero
    3ab8:	00000021 	move	zero,zero
    3abc:	00000021 	move	zero,zero
    3ac0:	00000021 	move	zero,zero
    3ac4:	00000021 	move	zero,zero
    3ac8:	00000021 	move	zero,zero
    3acc:	00000021 	move	zero,zero
    3ad0:	00000021 	move	zero,zero
    3ad4:	00000021 	move	zero,zero
    3ad8:	00000021 	move	zero,zero
    3adc:	00000021 	move	zero,zero
    3ae0:	00000021 	move	zero,zero
    3ae4:	00000021 	move	zero,zero
    3ae8:	3c08dbe6 	lui	t0,0xdbe6
    3aec:	3508f779 	ori	t0,t0,0xf779
    3af0:	1d00ffe9 	bgtz	t0,3a98 <n32_bgtz_test+0x3a98>
    3af4:	00000000 	nop
    3af8:	10000009 	b	3b20 <n32_bgtz_test+0x3b20>
    3afc:	00000000 	nop
    3b00:	00000000 	nop
    3b04:	00000021 	move	zero,zero
    3b08:	00000021 	move	zero,zero
    3b0c:	00000021 	move	zero,zero
    3b10:	00000021 	move	zero,zero
    3b14:	00000021 	move	zero,zero
    3b18:	3c12f83c 	lui	s2,0xf83c
    3b1c:	3652e74e 	ori	s2,s2,0xe74e
    3b20:	00000000 	nop
    3b24:	24140000 	li	s4,0
    3b28:	161419fa 	bne	s0,s4,a314 <inst_error>
    3b2c:	00000000 	nop
    3b30:	00000000 	nop
    3b34:	24150000 	li	s5,0
    3b38:	165519f6 	bne	s2,s5,a314 <inst_error>
    3b3c:	00000000 	nop
    3b40:	00000000 	nop
    3b44:	3c0ccc86 	lui	t4,0xcc86
    3b48:	358c5e48 	ori	t4,t4,0x5e48
    3b4c:	3c0d7d22 	lui	t5,0x7d22
    3b50:	35add970 	ori	t5,t5,0xd970
    3b54:	24100000 	li	s0,0
    3b58:	10000016 	b	3bb4 <n32_bgtz_test+0x3bb4>
    3b5c:	24120000 	li	s2,0
    3b60:	00000000 	nop
    3b64:	3c10cc86 	lui	s0,0xcc86
    3b68:	1d00001e 	bgtz	t0,3be4 <n32_bgtz_test+0x3be4>
    3b6c:	36105e48 	ori	s0,s0,0x5e48
    3b70:	1000001e 	b	3bec <n32_bgtz_test+0x3bec>
    3b74:	00000000 	nop
    3b78:	00000000 	nop
    3b7c:	00000021 	move	zero,zero
    3b80:	00000021 	move	zero,zero
    3b84:	00000021 	move	zero,zero
    3b88:	00000021 	move	zero,zero
    3b8c:	00000021 	move	zero,zero
    3b90:	00000021 	move	zero,zero
    3b94:	00000021 	move	zero,zero
    3b98:	00000021 	move	zero,zero
    3b9c:	00000021 	move	zero,zero
    3ba0:	00000021 	move	zero,zero
    3ba4:	00000021 	move	zero,zero
    3ba8:	00000021 	move	zero,zero
    3bac:	00000021 	move	zero,zero
    3bb0:	00000021 	move	zero,zero
    3bb4:	3c082d56 	lui	t0,0x2d56
    3bb8:	35082b40 	ori	t0,t0,0x2b40
    3bbc:	1d00ffe9 	bgtz	t0,3b64 <n32_bgtz_test+0x3b64>
    3bc0:	00000000 	nop
    3bc4:	10000009 	b	3bec <n32_bgtz_test+0x3bec>
    3bc8:	00000000 	nop
    3bcc:	00000000 	nop
    3bd0:	00000021 	move	zero,zero
    3bd4:	00000021 	move	zero,zero
    3bd8:	00000021 	move	zero,zero
    3bdc:	00000021 	move	zero,zero
    3be0:	00000021 	move	zero,zero
    3be4:	3c127d22 	lui	s2,0x7d22
    3be8:	3652d970 	ori	s2,s2,0xd970
    3bec:	00000000 	nop
    3bf0:	3c14cc86 	lui	s4,0xcc86
    3bf4:	36945e48 	ori	s4,s4,0x5e48
    3bf8:	161419c6 	bne	s0,s4,a314 <inst_error>
    3bfc:	00000000 	nop
    3c00:	00000000 	nop
    3c04:	3c157d22 	lui	s5,0x7d22
    3c08:	36b5d970 	ori	s5,s5,0xd970
    3c0c:	165519c1 	bne	s2,s5,a314 <inst_error>
    3c10:	00000000 	nop
    3c14:	00000000 	nop
    3c18:	3c0c26c8 	lui	t4,0x26c8
    3c1c:	358c811c 	ori	t4,t4,0x811c
    3c20:	3c0d512d 	lui	t5,0x512d
    3c24:	35ada934 	ori	t5,t5,0xa934
    3c28:	24100000 	li	s0,0
    3c2c:	10000016 	b	3c88 <n32_bgtz_test+0x3c88>
    3c30:	24120000 	li	s2,0
    3c34:	00000000 	nop
    3c38:	3c1026c8 	lui	s0,0x26c8
    3c3c:	1d00001e 	bgtz	t0,3cb8 <n32_bgtz_test+0x3cb8>
    3c40:	3610811c 	ori	s0,s0,0x811c
    3c44:	1000001e 	b	3cc0 <n32_bgtz_test+0x3cc0>
    3c48:	00000000 	nop
    3c4c:	00000000 	nop
    3c50:	00000021 	move	zero,zero
    3c54:	00000021 	move	zero,zero
    3c58:	00000021 	move	zero,zero
    3c5c:	00000021 	move	zero,zero
    3c60:	00000021 	move	zero,zero
    3c64:	00000021 	move	zero,zero
    3c68:	00000021 	move	zero,zero
    3c6c:	00000021 	move	zero,zero
    3c70:	00000021 	move	zero,zero
    3c74:	00000021 	move	zero,zero
    3c78:	00000021 	move	zero,zero
    3c7c:	00000021 	move	zero,zero
    3c80:	00000021 	move	zero,zero
    3c84:	00000021 	move	zero,zero
    3c88:	3c0898ff 	lui	t0,0x98ff
    3c8c:	35088f1c 	ori	t0,t0,0x8f1c
    3c90:	1d00ffe9 	bgtz	t0,3c38 <n32_bgtz_test+0x3c38>
    3c94:	00000000 	nop
    3c98:	10000009 	b	3cc0 <n32_bgtz_test+0x3cc0>
    3c9c:	00000000 	nop
    3ca0:	00000000 	nop
    3ca4:	00000021 	move	zero,zero
    3ca8:	00000021 	move	zero,zero
    3cac:	00000021 	move	zero,zero
    3cb0:	00000021 	move	zero,zero
    3cb4:	00000021 	move	zero,zero
    3cb8:	3c12512d 	lui	s2,0x512d
    3cbc:	3652a934 	ori	s2,s2,0xa934
    3cc0:	00000000 	nop
    3cc4:	24140000 	li	s4,0
    3cc8:	16141992 	bne	s0,s4,a314 <inst_error>
    3ccc:	00000000 	nop
    3cd0:	00000000 	nop
    3cd4:	24150000 	li	s5,0
    3cd8:	1655198e 	bne	s2,s5,a314 <inst_error>
    3cdc:	00000000 	nop
    3ce0:	00000000 	nop
    3ce4:	3c0c2e0b 	lui	t4,0x2e0b
    3ce8:	358c8ce0 	ori	t4,t4,0x8ce0
    3cec:	3c0d433e 	lui	t5,0x433e
    3cf0:	35ad4cd7 	ori	t5,t5,0x4cd7
    3cf4:	24100000 	li	s0,0
    3cf8:	10000016 	b	3d54 <n32_bgtz_test+0x3d54>
    3cfc:	24120000 	li	s2,0
    3d00:	00000000 	nop
    3d04:	3c102e0b 	lui	s0,0x2e0b
    3d08:	1d00001e 	bgtz	t0,3d84 <n32_bgtz_test+0x3d84>
    3d0c:	36108ce0 	ori	s0,s0,0x8ce0
    3d10:	1000001e 	b	3d8c <n32_bgtz_test+0x3d8c>
    3d14:	00000000 	nop
    3d18:	00000000 	nop
    3d1c:	00000021 	move	zero,zero
    3d20:	00000021 	move	zero,zero
    3d24:	00000021 	move	zero,zero
    3d28:	00000021 	move	zero,zero
    3d2c:	00000021 	move	zero,zero
    3d30:	00000021 	move	zero,zero
    3d34:	00000021 	move	zero,zero
    3d38:	00000021 	move	zero,zero
    3d3c:	00000021 	move	zero,zero
    3d40:	00000021 	move	zero,zero
    3d44:	00000021 	move	zero,zero
    3d48:	00000021 	move	zero,zero
    3d4c:	00000021 	move	zero,zero
    3d50:	00000021 	move	zero,zero
    3d54:	3c087747 	lui	t0,0x7747
    3d58:	35081b9c 	ori	t0,t0,0x1b9c
    3d5c:	1d00ffe9 	bgtz	t0,3d04 <n32_bgtz_test+0x3d04>
    3d60:	00000000 	nop
    3d64:	10000009 	b	3d8c <n32_bgtz_test+0x3d8c>
    3d68:	00000000 	nop
    3d6c:	00000000 	nop
    3d70:	00000021 	move	zero,zero
    3d74:	00000021 	move	zero,zero
    3d78:	00000021 	move	zero,zero
    3d7c:	00000021 	move	zero,zero
    3d80:	00000021 	move	zero,zero
    3d84:	3c12433e 	lui	s2,0x433e
    3d88:	36524cd7 	ori	s2,s2,0x4cd7
    3d8c:	00000000 	nop
    3d90:	3c142e0b 	lui	s4,0x2e0b
    3d94:	36948ce0 	ori	s4,s4,0x8ce0
    3d98:	1614195e 	bne	s0,s4,a314 <inst_error>
    3d9c:	00000000 	nop
    3da0:	00000000 	nop
    3da4:	3c15433e 	lui	s5,0x433e
    3da8:	36b54cd7 	ori	s5,s5,0x4cd7
    3dac:	16551959 	bne	s2,s5,a314 <inst_error>
    3db0:	00000000 	nop
    3db4:	00000000 	nop
    3db8:	3c0cd185 	lui	t4,0xd185
    3dbc:	358c4e7c 	ori	t4,t4,0x4e7c
    3dc0:	3c0dce91 	lui	t5,0xce91
    3dc4:	35ad7c1c 	ori	t5,t5,0x7c1c
    3dc8:	24100000 	li	s0,0
    3dcc:	10000016 	b	3e28 <n32_bgtz_test+0x3e28>
    3dd0:	24120000 	li	s2,0
    3dd4:	00000000 	nop
    3dd8:	3c10d185 	lui	s0,0xd185
    3ddc:	1d00001e 	bgtz	t0,3e58 <n32_bgtz_test+0x3e58>
    3de0:	36104e7c 	ori	s0,s0,0x4e7c
    3de4:	1000001e 	b	3e60 <n32_bgtz_test+0x3e60>
    3de8:	00000000 	nop
    3dec:	00000000 	nop
    3df0:	00000021 	move	zero,zero
    3df4:	00000021 	move	zero,zero
    3df8:	00000021 	move	zero,zero
    3dfc:	00000021 	move	zero,zero
    3e00:	00000021 	move	zero,zero
    3e04:	00000021 	move	zero,zero
    3e08:	00000021 	move	zero,zero
    3e0c:	00000021 	move	zero,zero
    3e10:	00000021 	move	zero,zero
    3e14:	00000021 	move	zero,zero
    3e18:	00000021 	move	zero,zero
    3e1c:	00000021 	move	zero,zero
    3e20:	00000021 	move	zero,zero
    3e24:	00000021 	move	zero,zero
    3e28:	3c080737 	lui	t0,0x737
    3e2c:	3508bf48 	ori	t0,t0,0xbf48
    3e30:	1d00ffe9 	bgtz	t0,3dd8 <n32_bgtz_test+0x3dd8>
    3e34:	00000000 	nop
    3e38:	10000009 	b	3e60 <n32_bgtz_test+0x3e60>
    3e3c:	00000000 	nop
    3e40:	00000000 	nop
    3e44:	00000021 	move	zero,zero
    3e48:	00000021 	move	zero,zero
    3e4c:	00000021 	move	zero,zero
    3e50:	00000021 	move	zero,zero
    3e54:	00000021 	move	zero,zero
    3e58:	3c12ce91 	lui	s2,0xce91
    3e5c:	36527c1c 	ori	s2,s2,0x7c1c
    3e60:	00000000 	nop
    3e64:	3c14d185 	lui	s4,0xd185
    3e68:	36944e7c 	ori	s4,s4,0x4e7c
    3e6c:	16141929 	bne	s0,s4,a314 <inst_error>
    3e70:	00000000 	nop
    3e74:	00000000 	nop
    3e78:	3c15ce91 	lui	s5,0xce91
    3e7c:	36b57c1c 	ori	s5,s5,0x7c1c
    3e80:	16551924 	bne	s2,s5,a314 <inst_error>
    3e84:	00000000 	nop
    3e88:	00000000 	nop
    3e8c:	3c0cef11 	lui	t4,0xef11
    3e90:	358c23f7 	ori	t4,t4,0x23f7
    3e94:	3c0d43d1 	lui	t5,0x43d1
    3e98:	35ad9608 	ori	t5,t5,0x9608
    3e9c:	24100000 	li	s0,0
    3ea0:	10000016 	b	3efc <n32_bgtz_test+0x3efc>
    3ea4:	24120000 	li	s2,0
    3ea8:	00000000 	nop
    3eac:	3c10ef11 	lui	s0,0xef11
    3eb0:	1d00001e 	bgtz	t0,3f2c <n32_bgtz_test+0x3f2c>
    3eb4:	361023f7 	ori	s0,s0,0x23f7
    3eb8:	1000001e 	b	3f34 <n32_bgtz_test+0x3f34>
    3ebc:	00000000 	nop
    3ec0:	00000000 	nop
    3ec4:	00000021 	move	zero,zero
    3ec8:	00000021 	move	zero,zero
    3ecc:	00000021 	move	zero,zero
    3ed0:	00000021 	move	zero,zero
    3ed4:	00000021 	move	zero,zero
    3ed8:	00000021 	move	zero,zero
    3edc:	00000021 	move	zero,zero
    3ee0:	00000021 	move	zero,zero
    3ee4:	00000021 	move	zero,zero
    3ee8:	00000021 	move	zero,zero
    3eec:	00000021 	move	zero,zero
    3ef0:	00000021 	move	zero,zero
    3ef4:	00000021 	move	zero,zero
    3ef8:	00000021 	move	zero,zero
    3efc:	3c086326 	lui	t0,0x6326
    3f00:	35080240 	ori	t0,t0,0x240
    3f04:	1d00ffe9 	bgtz	t0,3eac <n32_bgtz_test+0x3eac>
    3f08:	00000000 	nop
    3f0c:	10000009 	b	3f34 <n32_bgtz_test+0x3f34>
    3f10:	00000000 	nop
    3f14:	00000000 	nop
    3f18:	00000021 	move	zero,zero
    3f1c:	00000021 	move	zero,zero
    3f20:	00000021 	move	zero,zero
    3f24:	00000021 	move	zero,zero
    3f28:	00000021 	move	zero,zero
    3f2c:	3c1243d1 	lui	s2,0x43d1
    3f30:	36529608 	ori	s2,s2,0x9608
    3f34:	00000000 	nop
    3f38:	3c14ef11 	lui	s4,0xef11
    3f3c:	369423f7 	ori	s4,s4,0x23f7
    3f40:	161418f4 	bne	s0,s4,a314 <inst_error>
    3f44:	00000000 	nop
    3f48:	00000000 	nop
    3f4c:	3c1543d1 	lui	s5,0x43d1
    3f50:	36b59608 	ori	s5,s5,0x9608
    3f54:	165518ef 	bne	s2,s5,a314 <inst_error>
    3f58:	00000000 	nop
    3f5c:	00000000 	nop
    3f60:	3c0c4943 	lui	t4,0x4943
    3f64:	358c2ca8 	ori	t4,t4,0x2ca8
    3f68:	3c0d299d 	lui	t5,0x299d
    3f6c:	35ad7670 	ori	t5,t5,0x7670
    3f70:	24100000 	li	s0,0
    3f74:	10000016 	b	3fd0 <n32_bgtz_test+0x3fd0>
    3f78:	24120000 	li	s2,0
    3f7c:	00000000 	nop
    3f80:	3c104943 	lui	s0,0x4943
    3f84:	1d00001e 	bgtz	t0,4000 <n32_bgtz_test+0x4000>
    3f88:	36102ca8 	ori	s0,s0,0x2ca8
    3f8c:	1000001e 	b	4008 <n32_bgtz_test+0x4008>
    3f90:	00000000 	nop
    3f94:	00000000 	nop
    3f98:	00000021 	move	zero,zero
    3f9c:	00000021 	move	zero,zero
    3fa0:	00000021 	move	zero,zero
    3fa4:	00000021 	move	zero,zero
    3fa8:	00000021 	move	zero,zero
    3fac:	00000021 	move	zero,zero
    3fb0:	00000021 	move	zero,zero
    3fb4:	00000021 	move	zero,zero
    3fb8:	00000021 	move	zero,zero
    3fbc:	00000021 	move	zero,zero
    3fc0:	00000021 	move	zero,zero
    3fc4:	00000021 	move	zero,zero
    3fc8:	00000021 	move	zero,zero
    3fcc:	00000021 	move	zero,zero
    3fd0:	3c0837ee 	lui	t0,0x37ee
    3fd4:	35087320 	ori	t0,t0,0x7320
    3fd8:	1d00ffe9 	bgtz	t0,3f80 <n32_bgtz_test+0x3f80>
    3fdc:	00000000 	nop
    3fe0:	10000009 	b	4008 <n32_bgtz_test+0x4008>
    3fe4:	00000000 	nop
    3fe8:	00000000 	nop
    3fec:	00000021 	move	zero,zero
    3ff0:	00000021 	move	zero,zero
    3ff4:	00000021 	move	zero,zero
    3ff8:	00000021 	move	zero,zero
    3ffc:	00000021 	move	zero,zero
    4000:	3c12299d 	lui	s2,0x299d
    4004:	36527670 	ori	s2,s2,0x7670
    4008:	00000000 	nop
    400c:	3c144943 	lui	s4,0x4943
    4010:	36942ca8 	ori	s4,s4,0x2ca8
    4014:	161418bf 	bne	s0,s4,a314 <inst_error>
    4018:	00000000 	nop
    401c:	00000000 	nop
    4020:	3c15299d 	lui	s5,0x299d
    4024:	36b57670 	ori	s5,s5,0x7670
    4028:	165518ba 	bne	s2,s5,a314 <inst_error>
    402c:	00000000 	nop
    4030:	00000000 	nop
    4034:	3c0c45a8 	lui	t4,0x45a8
    4038:	358c5e00 	ori	t4,t4,0x5e00
    403c:	3c0d4a3f 	lui	t5,0x4a3f
    4040:	35ad2644 	ori	t5,t5,0x2644
    4044:	24100000 	li	s0,0
    4048:	10000016 	b	40a4 <n32_bgtz_test+0x40a4>
    404c:	24120000 	li	s2,0
    4050:	00000000 	nop
    4054:	3c1045a8 	lui	s0,0x45a8
    4058:	1d00001e 	bgtz	t0,40d4 <n32_bgtz_test+0x40d4>
    405c:	36105e00 	ori	s0,s0,0x5e00
    4060:	1000001e 	b	40dc <n32_bgtz_test+0x40dc>
    4064:	00000000 	nop
    4068:	00000000 	nop
    406c:	00000021 	move	zero,zero
    4070:	00000021 	move	zero,zero
    4074:	00000021 	move	zero,zero
    4078:	00000021 	move	zero,zero
    407c:	00000021 	move	zero,zero
    4080:	00000021 	move	zero,zero
    4084:	00000021 	move	zero,zero
    4088:	00000021 	move	zero,zero
    408c:	00000021 	move	zero,zero
    4090:	00000021 	move	zero,zero
    4094:	00000021 	move	zero,zero
    4098:	00000021 	move	zero,zero
    409c:	00000021 	move	zero,zero
    40a0:	00000021 	move	zero,zero
    40a4:	3c088609 	lui	t0,0x8609
    40a8:	3508edb0 	ori	t0,t0,0xedb0
    40ac:	1d00ffe9 	bgtz	t0,4054 <n32_bgtz_test+0x4054>
    40b0:	00000000 	nop
    40b4:	10000009 	b	40dc <n32_bgtz_test+0x40dc>
    40b8:	00000000 	nop
    40bc:	00000000 	nop
    40c0:	00000021 	move	zero,zero
    40c4:	00000021 	move	zero,zero
    40c8:	00000021 	move	zero,zero
    40cc:	00000021 	move	zero,zero
    40d0:	00000021 	move	zero,zero
    40d4:	3c124a3f 	lui	s2,0x4a3f
    40d8:	36522644 	ori	s2,s2,0x2644
    40dc:	00000000 	nop
    40e0:	24140000 	li	s4,0
    40e4:	1614188b 	bne	s0,s4,a314 <inst_error>
    40e8:	00000000 	nop
    40ec:	00000000 	nop
    40f0:	24150000 	li	s5,0
    40f4:	16551887 	bne	s2,s5,a314 <inst_error>
    40f8:	00000000 	nop
    40fc:	00000000 	nop
    4100:	3c0cabd8 	lui	t4,0xabd8
    4104:	358cade8 	ori	t4,t4,0xade8
    4108:	3c0d6dd1 	lui	t5,0x6dd1
    410c:	35adabe4 	ori	t5,t5,0xabe4
    4110:	24100000 	li	s0,0
    4114:	10000016 	b	4170 <n32_bgtz_test+0x4170>
    4118:	24120000 	li	s2,0
    411c:	00000000 	nop
    4120:	3c10abd8 	lui	s0,0xabd8
    4124:	1d00001e 	bgtz	t0,41a0 <n32_bgtz_test+0x41a0>
    4128:	3610ade8 	ori	s0,s0,0xade8
    412c:	1000001e 	b	41a8 <n32_bgtz_test+0x41a8>
    4130:	00000000 	nop
    4134:	00000000 	nop
    4138:	00000021 	move	zero,zero
    413c:	00000021 	move	zero,zero
    4140:	00000021 	move	zero,zero
    4144:	00000021 	move	zero,zero
    4148:	00000021 	move	zero,zero
    414c:	00000021 	move	zero,zero
    4150:	00000021 	move	zero,zero
    4154:	00000021 	move	zero,zero
    4158:	00000021 	move	zero,zero
    415c:	00000021 	move	zero,zero
    4160:	00000021 	move	zero,zero
    4164:	00000021 	move	zero,zero
    4168:	00000021 	move	zero,zero
    416c:	00000021 	move	zero,zero
    4170:	3c08ed4c 	lui	t0,0xed4c
    4174:	3508cd00 	ori	t0,t0,0xcd00
    4178:	1d00ffe9 	bgtz	t0,4120 <n32_bgtz_test+0x4120>
    417c:	00000000 	nop
    4180:	10000009 	b	41a8 <n32_bgtz_test+0x41a8>
    4184:	00000000 	nop
    4188:	00000000 	nop
    418c:	00000021 	move	zero,zero
    4190:	00000021 	move	zero,zero
    4194:	00000021 	move	zero,zero
    4198:	00000021 	move	zero,zero
    419c:	00000021 	move	zero,zero
    41a0:	3c126dd1 	lui	s2,0x6dd1
    41a4:	3652abe4 	ori	s2,s2,0xabe4
    41a8:	00000000 	nop
    41ac:	24140000 	li	s4,0
    41b0:	16141858 	bne	s0,s4,a314 <inst_error>
    41b4:	00000000 	nop
    41b8:	00000000 	nop
    41bc:	24150000 	li	s5,0
    41c0:	16551854 	bne	s2,s5,a314 <inst_error>
    41c4:	00000000 	nop
    41c8:	00000000 	nop
    41cc:	3c0ccb76 	lui	t4,0xcb76
    41d0:	358ca116 	ori	t4,t4,0xa116
    41d4:	3c0d2f02 	lui	t5,0x2f02
    41d8:	35ad2af8 	ori	t5,t5,0x2af8
    41dc:	24100000 	li	s0,0
    41e0:	10000016 	b	423c <n32_bgtz_test+0x423c>
    41e4:	24120000 	li	s2,0
    41e8:	00000000 	nop
    41ec:	3c10cb76 	lui	s0,0xcb76
    41f0:	1d00001e 	bgtz	t0,426c <n32_bgtz_test+0x426c>
    41f4:	3610a116 	ori	s0,s0,0xa116
    41f8:	1000001e 	b	4274 <n32_bgtz_test+0x4274>
    41fc:	00000000 	nop
    4200:	00000000 	nop
    4204:	00000021 	move	zero,zero
    4208:	00000021 	move	zero,zero
    420c:	00000021 	move	zero,zero
    4210:	00000021 	move	zero,zero
    4214:	00000021 	move	zero,zero
    4218:	00000021 	move	zero,zero
    421c:	00000021 	move	zero,zero
    4220:	00000021 	move	zero,zero
    4224:	00000021 	move	zero,zero
    4228:	00000021 	move	zero,zero
    422c:	00000021 	move	zero,zero
    4230:	00000021 	move	zero,zero
    4234:	00000021 	move	zero,zero
    4238:	00000021 	move	zero,zero
    423c:	3c089541 	lui	t0,0x9541
    4240:	3508754c 	ori	t0,t0,0x754c
    4244:	1d00ffe9 	bgtz	t0,41ec <n32_bgtz_test+0x41ec>
    4248:	00000000 	nop
    424c:	10000009 	b	4274 <n32_bgtz_test+0x4274>
    4250:	00000000 	nop
    4254:	00000000 	nop
    4258:	00000021 	move	zero,zero
    425c:	00000021 	move	zero,zero
    4260:	00000021 	move	zero,zero
    4264:	00000021 	move	zero,zero
    4268:	00000021 	move	zero,zero
    426c:	3c122f02 	lui	s2,0x2f02
    4270:	36522af8 	ori	s2,s2,0x2af8
    4274:	00000000 	nop
    4278:	24140000 	li	s4,0
    427c:	16141825 	bne	s0,s4,a314 <inst_error>
    4280:	00000000 	nop
    4284:	00000000 	nop
    4288:	24150000 	li	s5,0
    428c:	16551821 	bne	s2,s5,a314 <inst_error>
    4290:	00000000 	nop
    4294:	00000000 	nop
    4298:	3c0c7343 	lui	t4,0x7343
    429c:	358c65ba 	ori	t4,t4,0x65ba
    42a0:	3c0d30dc 	lui	t5,0x30dc
    42a4:	35ad3dc0 	ori	t5,t5,0x3dc0
    42a8:	24100000 	li	s0,0
    42ac:	10000016 	b	4308 <n32_bgtz_test+0x4308>
    42b0:	24120000 	li	s2,0
    42b4:	00000000 	nop
    42b8:	3c107343 	lui	s0,0x7343
    42bc:	1d00001e 	bgtz	t0,4338 <n32_bgtz_test+0x4338>
    42c0:	361065ba 	ori	s0,s0,0x65ba
    42c4:	1000001e 	b	4340 <n32_bgtz_test+0x4340>
    42c8:	00000000 	nop
    42cc:	00000000 	nop
    42d0:	00000021 	move	zero,zero
    42d4:	00000021 	move	zero,zero
    42d8:	00000021 	move	zero,zero
    42dc:	00000021 	move	zero,zero
    42e0:	00000021 	move	zero,zero
    42e4:	00000021 	move	zero,zero
    42e8:	00000021 	move	zero,zero
    42ec:	00000021 	move	zero,zero
    42f0:	00000021 	move	zero,zero
    42f4:	00000021 	move	zero,zero
    42f8:	00000021 	move	zero,zero
    42fc:	00000021 	move	zero,zero
    4300:	00000021 	move	zero,zero
    4304:	00000021 	move	zero,zero
    4308:	3c08c2c0 	lui	t0,0xc2c0
    430c:	350819d0 	ori	t0,t0,0x19d0
    4310:	1d00ffe9 	bgtz	t0,42b8 <n32_bgtz_test+0x42b8>
    4314:	00000000 	nop
    4318:	10000009 	b	4340 <n32_bgtz_test+0x4340>
    431c:	00000000 	nop
    4320:	00000000 	nop
    4324:	00000021 	move	zero,zero
    4328:	00000021 	move	zero,zero
    432c:	00000021 	move	zero,zero
    4330:	00000021 	move	zero,zero
    4334:	00000021 	move	zero,zero
    4338:	3c1230dc 	lui	s2,0x30dc
    433c:	36523dc0 	ori	s2,s2,0x3dc0
    4340:	00000000 	nop
    4344:	24140000 	li	s4,0
    4348:	161417f2 	bne	s0,s4,a314 <inst_error>
    434c:	00000000 	nop
    4350:	00000000 	nop
    4354:	24150000 	li	s5,0
    4358:	165517ee 	bne	s2,s5,a314 <inst_error>
    435c:	00000000 	nop
    4360:	00000000 	nop
    4364:	3c0c2892 	lui	t4,0x2892
    4368:	358cc01f 	ori	t4,t4,0xc01f
    436c:	3c0dcf87 	lui	t5,0xcf87
    4370:	35adddfc 	ori	t5,t5,0xddfc
    4374:	24100000 	li	s0,0
    4378:	10000016 	b	43d4 <n32_bgtz_test+0x43d4>
    437c:	24120000 	li	s2,0
    4380:	00000000 	nop
    4384:	3c102892 	lui	s0,0x2892
    4388:	1d00001e 	bgtz	t0,4404 <n32_bgtz_test+0x4404>
    438c:	3610c01f 	ori	s0,s0,0xc01f
    4390:	1000001e 	b	440c <n32_bgtz_test+0x440c>
    4394:	00000000 	nop
    4398:	00000000 	nop
    439c:	00000021 	move	zero,zero
    43a0:	00000021 	move	zero,zero
    43a4:	00000021 	move	zero,zero
    43a8:	00000021 	move	zero,zero
    43ac:	00000021 	move	zero,zero
    43b0:	00000021 	move	zero,zero
    43b4:	00000021 	move	zero,zero
    43b8:	00000021 	move	zero,zero
    43bc:	00000021 	move	zero,zero
    43c0:	00000021 	move	zero,zero
    43c4:	00000021 	move	zero,zero
    43c8:	00000021 	move	zero,zero
    43cc:	00000021 	move	zero,zero
    43d0:	00000021 	move	zero,zero
    43d4:	3c08bac7 	lui	t0,0xbac7
    43d8:	35082ec2 	ori	t0,t0,0x2ec2
    43dc:	1d00ffe9 	bgtz	t0,4384 <n32_bgtz_test+0x4384>
    43e0:	00000000 	nop
    43e4:	10000009 	b	440c <n32_bgtz_test+0x440c>
    43e8:	00000000 	nop
    43ec:	00000000 	nop
    43f0:	00000021 	move	zero,zero
    43f4:	00000021 	move	zero,zero
    43f8:	00000021 	move	zero,zero
    43fc:	00000021 	move	zero,zero
    4400:	00000021 	move	zero,zero
    4404:	3c12cf87 	lui	s2,0xcf87
    4408:	3652ddfc 	ori	s2,s2,0xddfc
    440c:	00000000 	nop
    4410:	24140000 	li	s4,0
    4414:	161417bf 	bne	s0,s4,a314 <inst_error>
    4418:	00000000 	nop
    441c:	00000000 	nop
    4420:	24150000 	li	s5,0
    4424:	165517bb 	bne	s2,s5,a314 <inst_error>
    4428:	00000000 	nop
    442c:	00000000 	nop
    4430:	3c0cc43f 	lui	t4,0xc43f
    4434:	358cd5fc 	ori	t4,t4,0xd5fc
    4438:	3c0dbdb5 	lui	t5,0xbdb5
    443c:	35ade3a5 	ori	t5,t5,0xe3a5
    4440:	24100000 	li	s0,0
    4444:	10000016 	b	44a0 <n32_bgtz_test+0x44a0>
    4448:	24120000 	li	s2,0
    444c:	00000000 	nop
    4450:	3c10c43f 	lui	s0,0xc43f
    4454:	1d00001e 	bgtz	t0,44d0 <n32_bgtz_test+0x44d0>
    4458:	3610d5fc 	ori	s0,s0,0xd5fc
    445c:	1000001e 	b	44d8 <n32_bgtz_test+0x44d8>
    4460:	00000000 	nop
    4464:	00000000 	nop
    4468:	00000021 	move	zero,zero
    446c:	00000021 	move	zero,zero
    4470:	00000021 	move	zero,zero
    4474:	00000021 	move	zero,zero
    4478:	00000021 	move	zero,zero
    447c:	00000021 	move	zero,zero
    4480:	00000021 	move	zero,zero
    4484:	00000021 	move	zero,zero
    4488:	00000021 	move	zero,zero
    448c:	00000021 	move	zero,zero
    4490:	00000021 	move	zero,zero
    4494:	00000021 	move	zero,zero
    4498:	00000021 	move	zero,zero
    449c:	00000021 	move	zero,zero
    44a0:	3c085f8b 	lui	t0,0x5f8b
    44a4:	3508db24 	ori	t0,t0,0xdb24
    44a8:	1d00ffe9 	bgtz	t0,4450 <n32_bgtz_test+0x4450>
    44ac:	00000000 	nop
    44b0:	10000009 	b	44d8 <n32_bgtz_test+0x44d8>
    44b4:	00000000 	nop
    44b8:	00000000 	nop
    44bc:	00000021 	move	zero,zero
    44c0:	00000021 	move	zero,zero
    44c4:	00000021 	move	zero,zero
    44c8:	00000021 	move	zero,zero
    44cc:	00000021 	move	zero,zero
    44d0:	3c12bdb5 	lui	s2,0xbdb5
    44d4:	3652e3a5 	ori	s2,s2,0xe3a5
    44d8:	00000000 	nop
    44dc:	3c14c43f 	lui	s4,0xc43f
    44e0:	3694d5fc 	ori	s4,s4,0xd5fc
    44e4:	1614178b 	bne	s0,s4,a314 <inst_error>
    44e8:	00000000 	nop
    44ec:	00000000 	nop
    44f0:	3c15bdb5 	lui	s5,0xbdb5
    44f4:	36b5e3a5 	ori	s5,s5,0xe3a5
    44f8:	16551786 	bne	s2,s5,a314 <inst_error>
    44fc:	00000000 	nop
    4500:	00000000 	nop
    4504:	3c0ca00a 	lui	t4,0xa00a
    4508:	358cbad5 	ori	t4,t4,0xbad5
    450c:	3c0d10ea 	lui	t5,0x10ea
    4510:	35ada1ac 	ori	t5,t5,0xa1ac
    4514:	24100000 	li	s0,0
    4518:	10000016 	b	4574 <n32_bgtz_test+0x4574>
    451c:	24120000 	li	s2,0
    4520:	00000000 	nop
    4524:	3c10a00a 	lui	s0,0xa00a
    4528:	1d00001e 	bgtz	t0,45a4 <n32_bgtz_test+0x45a4>
    452c:	3610bad5 	ori	s0,s0,0xbad5
    4530:	1000001e 	b	45ac <n32_bgtz_test+0x45ac>
    4534:	00000000 	nop
    4538:	00000000 	nop
    453c:	00000021 	move	zero,zero
    4540:	00000021 	move	zero,zero
    4544:	00000021 	move	zero,zero
    4548:	00000021 	move	zero,zero
    454c:	00000021 	move	zero,zero
    4550:	00000021 	move	zero,zero
    4554:	00000021 	move	zero,zero
    4558:	00000021 	move	zero,zero
    455c:	00000021 	move	zero,zero
    4560:	00000021 	move	zero,zero
    4564:	00000021 	move	zero,zero
    4568:	00000021 	move	zero,zero
    456c:	00000021 	move	zero,zero
    4570:	00000021 	move	zero,zero
    4574:	3c082349 	lui	t0,0x2349
    4578:	350803fe 	ori	t0,t0,0x3fe
    457c:	1d00ffe9 	bgtz	t0,4524 <n32_bgtz_test+0x4524>
    4580:	00000000 	nop
    4584:	10000009 	b	45ac <n32_bgtz_test+0x45ac>
    4588:	00000000 	nop
    458c:	00000000 	nop
    4590:	00000021 	move	zero,zero
    4594:	00000021 	move	zero,zero
    4598:	00000021 	move	zero,zero
    459c:	00000021 	move	zero,zero
    45a0:	00000021 	move	zero,zero
    45a4:	3c1210ea 	lui	s2,0x10ea
    45a8:	3652a1ac 	ori	s2,s2,0xa1ac
    45ac:	00000000 	nop
    45b0:	3c14a00a 	lui	s4,0xa00a
    45b4:	3694bad5 	ori	s4,s4,0xbad5
    45b8:	16141756 	bne	s0,s4,a314 <inst_error>
    45bc:	00000000 	nop
    45c0:	00000000 	nop
    45c4:	3c1510ea 	lui	s5,0x10ea
    45c8:	36b5a1ac 	ori	s5,s5,0xa1ac
    45cc:	16551751 	bne	s2,s5,a314 <inst_error>
    45d0:	00000000 	nop
    45d4:	00000000 	nop
    45d8:	3c0cc415 	lui	t4,0xc415
    45dc:	358c4232 	ori	t4,t4,0x4232
    45e0:	3c0dbf06 	lui	t5,0xbf06
    45e4:	35adcf13 	ori	t5,t5,0xcf13
    45e8:	24100000 	li	s0,0
    45ec:	10000016 	b	4648 <n32_bgtz_test+0x4648>
    45f0:	24120000 	li	s2,0
    45f4:	00000000 	nop
    45f8:	3c10c415 	lui	s0,0xc415
    45fc:	1d00001e 	bgtz	t0,4678 <n32_bgtz_test+0x4678>
    4600:	36104232 	ori	s0,s0,0x4232
    4604:	1000001e 	b	4680 <n32_bgtz_test+0x4680>
    4608:	00000000 	nop
    460c:	00000000 	nop
    4610:	00000021 	move	zero,zero
    4614:	00000021 	move	zero,zero
    4618:	00000021 	move	zero,zero
    461c:	00000021 	move	zero,zero
    4620:	00000021 	move	zero,zero
    4624:	00000021 	move	zero,zero
    4628:	00000021 	move	zero,zero
    462c:	00000021 	move	zero,zero
    4630:	00000021 	move	zero,zero
    4634:	00000021 	move	zero,zero
    4638:	00000021 	move	zero,zero
    463c:	00000021 	move	zero,zero
    4640:	00000021 	move	zero,zero
    4644:	00000021 	move	zero,zero
    4648:	3c08641f 	lui	t0,0x641f
    464c:	35081aa8 	ori	t0,t0,0x1aa8
    4650:	1d00ffe9 	bgtz	t0,45f8 <n32_bgtz_test+0x45f8>
    4654:	00000000 	nop
    4658:	10000009 	b	4680 <n32_bgtz_test+0x4680>
    465c:	00000000 	nop
    4660:	00000000 	nop
    4664:	00000021 	move	zero,zero
    4668:	00000021 	move	zero,zero
    466c:	00000021 	move	zero,zero
    4670:	00000021 	move	zero,zero
    4674:	00000021 	move	zero,zero
    4678:	3c12bf06 	lui	s2,0xbf06
    467c:	3652cf13 	ori	s2,s2,0xcf13
    4680:	00000000 	nop
    4684:	3c14c415 	lui	s4,0xc415
    4688:	36944232 	ori	s4,s4,0x4232
    468c:	16141721 	bne	s0,s4,a314 <inst_error>
    4690:	00000000 	nop
    4694:	00000000 	nop
    4698:	3c15bf06 	lui	s5,0xbf06
    469c:	36b5cf13 	ori	s5,s5,0xcf13
    46a0:	1655171c 	bne	s2,s5,a314 <inst_error>
    46a4:	00000000 	nop
    46a8:	00000000 	nop
    46ac:	3c0c2475 	lui	t4,0x2475
    46b0:	358ce71e 	ori	t4,t4,0xe71e
    46b4:	3c0d138f 	lui	t5,0x138f
    46b8:	35ad991a 	ori	t5,t5,0x991a
    46bc:	24100000 	li	s0,0
    46c0:	10000016 	b	471c <n32_bgtz_test+0x471c>
    46c4:	24120000 	li	s2,0
    46c8:	00000000 	nop
    46cc:	3c102475 	lui	s0,0x2475
    46d0:	1d00001e 	bgtz	t0,474c <n32_bgtz_test+0x474c>
    46d4:	3610e71e 	ori	s0,s0,0xe71e
    46d8:	1000001e 	b	4754 <n32_bgtz_test+0x4754>
    46dc:	00000000 	nop
    46e0:	00000000 	nop
    46e4:	00000021 	move	zero,zero
    46e8:	00000021 	move	zero,zero
    46ec:	00000021 	move	zero,zero
    46f0:	00000021 	move	zero,zero
    46f4:	00000021 	move	zero,zero
    46f8:	00000021 	move	zero,zero
    46fc:	00000021 	move	zero,zero
    4700:	00000021 	move	zero,zero
    4704:	00000021 	move	zero,zero
    4708:	00000021 	move	zero,zero
    470c:	00000021 	move	zero,zero
    4710:	00000021 	move	zero,zero
    4714:	00000021 	move	zero,zero
    4718:	00000021 	move	zero,zero
    471c:	3c08bc19 	lui	t0,0xbc19
    4720:	35086de8 	ori	t0,t0,0x6de8
    4724:	1d00ffe9 	bgtz	t0,46cc <n32_bgtz_test+0x46cc>
    4728:	00000000 	nop
    472c:	10000009 	b	4754 <n32_bgtz_test+0x4754>
    4730:	00000000 	nop
    4734:	00000000 	nop
    4738:	00000021 	move	zero,zero
    473c:	00000021 	move	zero,zero
    4740:	00000021 	move	zero,zero
    4744:	00000021 	move	zero,zero
    4748:	00000021 	move	zero,zero
    474c:	3c12138f 	lui	s2,0x138f
    4750:	3652991a 	ori	s2,s2,0x991a
    4754:	00000000 	nop
    4758:	24140000 	li	s4,0
    475c:	161416ed 	bne	s0,s4,a314 <inst_error>
    4760:	00000000 	nop
    4764:	00000000 	nop
    4768:	24150000 	li	s5,0
    476c:	165516e9 	bne	s2,s5,a314 <inst_error>
    4770:	00000000 	nop
    4774:	00000000 	nop
    4778:	3c0cf048 	lui	t4,0xf048
    477c:	358c4b7a 	ori	t4,t4,0x4b7a
    4780:	3c0d6c36 	lui	t5,0x6c36
    4784:	35ad6cf1 	ori	t5,t5,0x6cf1
    4788:	24100000 	li	s0,0
    478c:	10000016 	b	47e8 <n32_bgtz_test+0x47e8>
    4790:	24120000 	li	s2,0
    4794:	00000000 	nop
    4798:	3c10f048 	lui	s0,0xf048
    479c:	1d00001e 	bgtz	t0,4818 <n32_bgtz_test+0x4818>
    47a0:	36104b7a 	ori	s0,s0,0x4b7a
    47a4:	1000001e 	b	4820 <n32_bgtz_test+0x4820>
    47a8:	00000000 	nop
    47ac:	00000000 	nop
    47b0:	00000021 	move	zero,zero
    47b4:	00000021 	move	zero,zero
    47b8:	00000021 	move	zero,zero
    47bc:	00000021 	move	zero,zero
    47c0:	00000021 	move	zero,zero
    47c4:	00000021 	move	zero,zero
    47c8:	00000021 	move	zero,zero
    47cc:	00000021 	move	zero,zero
    47d0:	00000021 	move	zero,zero
    47d4:	00000021 	move	zero,zero
    47d8:	00000021 	move	zero,zero
    47dc:	00000021 	move	zero,zero
    47e0:	00000021 	move	zero,zero
    47e4:	00000021 	move	zero,zero
    47e8:	3c08bd6b 	lui	t0,0xbd6b
    47ec:	350808f2 	ori	t0,t0,0x8f2
    47f0:	1d00ffe9 	bgtz	t0,4798 <n32_bgtz_test+0x4798>
    47f4:	00000000 	nop
    47f8:	10000009 	b	4820 <n32_bgtz_test+0x4820>
    47fc:	00000000 	nop
    4800:	00000000 	nop
    4804:	00000021 	move	zero,zero
    4808:	00000021 	move	zero,zero
    480c:	00000021 	move	zero,zero
    4810:	00000021 	move	zero,zero
    4814:	00000021 	move	zero,zero
    4818:	3c126c36 	lui	s2,0x6c36
    481c:	36526cf1 	ori	s2,s2,0x6cf1
    4820:	00000000 	nop
    4824:	24140000 	li	s4,0
    4828:	161416ba 	bne	s0,s4,a314 <inst_error>
    482c:	00000000 	nop
    4830:	00000000 	nop
    4834:	24150000 	li	s5,0
    4838:	165516b6 	bne	s2,s5,a314 <inst_error>
    483c:	00000000 	nop
    4840:	00000000 	nop
    4844:	3c0ce794 	lui	t4,0xe794
    4848:	358c2457 	ori	t4,t4,0x2457
    484c:	3c0d08a4 	lui	t5,0x8a4
    4850:	35adfbd8 	ori	t5,t5,0xfbd8
    4854:	24100000 	li	s0,0
    4858:	10000016 	b	48b4 <n32_bgtz_test+0x48b4>
    485c:	24120000 	li	s2,0
    4860:	00000000 	nop
    4864:	3c10e794 	lui	s0,0xe794
    4868:	1d00001e 	bgtz	t0,48e4 <n32_bgtz_test+0x48e4>
    486c:	36102457 	ori	s0,s0,0x2457
    4870:	1000001e 	b	48ec <n32_bgtz_test+0x48ec>
    4874:	00000000 	nop
    4878:	00000000 	nop
    487c:	00000021 	move	zero,zero
    4880:	00000021 	move	zero,zero
    4884:	00000021 	move	zero,zero
    4888:	00000021 	move	zero,zero
    488c:	00000021 	move	zero,zero
    4890:	00000021 	move	zero,zero
    4894:	00000021 	move	zero,zero
    4898:	00000021 	move	zero,zero
    489c:	00000021 	move	zero,zero
    48a0:	00000021 	move	zero,zero
    48a4:	00000021 	move	zero,zero
    48a8:	00000021 	move	zero,zero
    48ac:	00000021 	move	zero,zero
    48b0:	00000021 	move	zero,zero
    48b4:	3c08c96e 	lui	t0,0xc96e
    48b8:	35088ec0 	ori	t0,t0,0x8ec0
    48bc:	1d00ffe9 	bgtz	t0,4864 <n32_bgtz_test+0x4864>
    48c0:	00000000 	nop
    48c4:	10000009 	b	48ec <n32_bgtz_test+0x48ec>
    48c8:	00000000 	nop
    48cc:	00000000 	nop
    48d0:	00000021 	move	zero,zero
    48d4:	00000021 	move	zero,zero
    48d8:	00000021 	move	zero,zero
    48dc:	00000021 	move	zero,zero
    48e0:	00000021 	move	zero,zero
    48e4:	3c1208a4 	lui	s2,0x8a4
    48e8:	3652fbd8 	ori	s2,s2,0xfbd8
    48ec:	00000000 	nop
    48f0:	24140000 	li	s4,0
    48f4:	16141687 	bne	s0,s4,a314 <inst_error>
    48f8:	00000000 	nop
    48fc:	00000000 	nop
    4900:	24150000 	li	s5,0
    4904:	16551683 	bne	s2,s5,a314 <inst_error>
    4908:	00000000 	nop
    490c:	00000000 	nop
    4910:	3c0c9b7e 	lui	t4,0x9b7e
    4914:	358cf83e 	ori	t4,t4,0xf83e
    4918:	3c0deae7 	lui	t5,0xeae7
    491c:	35ad6b1c 	ori	t5,t5,0x6b1c
    4920:	24100000 	li	s0,0
    4924:	10000016 	b	4980 <n32_bgtz_test+0x4980>
    4928:	24120000 	li	s2,0
    492c:	00000000 	nop
    4930:	3c109b7e 	lui	s0,0x9b7e
    4934:	1d00001e 	bgtz	t0,49b0 <n32_bgtz_test+0x49b0>
    4938:	3610f83e 	ori	s0,s0,0xf83e
    493c:	1000001e 	b	49b8 <n32_bgtz_test+0x49b8>
    4940:	00000000 	nop
    4944:	00000000 	nop
    4948:	00000021 	move	zero,zero
    494c:	00000021 	move	zero,zero
    4950:	00000021 	move	zero,zero
    4954:	00000021 	move	zero,zero
    4958:	00000021 	move	zero,zero
    495c:	00000021 	move	zero,zero
    4960:	00000021 	move	zero,zero
    4964:	00000021 	move	zero,zero
    4968:	00000021 	move	zero,zero
    496c:	00000021 	move	zero,zero
    4970:	00000021 	move	zero,zero
    4974:	00000021 	move	zero,zero
    4978:	00000021 	move	zero,zero
    497c:	00000021 	move	zero,zero
    4980:	3c083fa8 	lui	t0,0x3fa8
    4984:	3508a554 	ori	t0,t0,0xa554
    4988:	1d00ffe9 	bgtz	t0,4930 <n32_bgtz_test+0x4930>
    498c:	00000000 	nop
    4990:	10000009 	b	49b8 <n32_bgtz_test+0x49b8>
    4994:	00000000 	nop
    4998:	00000000 	nop
    499c:	00000021 	move	zero,zero
    49a0:	00000021 	move	zero,zero
    49a4:	00000021 	move	zero,zero
    49a8:	00000021 	move	zero,zero
    49ac:	00000021 	move	zero,zero
    49b0:	3c12eae7 	lui	s2,0xeae7
    49b4:	36526b1c 	ori	s2,s2,0x6b1c
    49b8:	00000000 	nop
    49bc:	3c149b7e 	lui	s4,0x9b7e
    49c0:	3694f83e 	ori	s4,s4,0xf83e
    49c4:	16141653 	bne	s0,s4,a314 <inst_error>
    49c8:	00000000 	nop
    49cc:	00000000 	nop
    49d0:	3c15eae7 	lui	s5,0xeae7
    49d4:	36b56b1c 	ori	s5,s5,0x6b1c
    49d8:	1655164e 	bne	s2,s5,a314 <inst_error>
    49dc:	00000000 	nop
    49e0:	00000000 	nop
    49e4:	3c0c4e25 	lui	t4,0x4e25
    49e8:	358c1780 	ori	t4,t4,0x1780
    49ec:	3c0d1902 	lui	t5,0x1902
    49f0:	35adf458 	ori	t5,t5,0xf458
    49f4:	24100000 	li	s0,0
    49f8:	10000016 	b	4a54 <n32_bgtz_test+0x4a54>
    49fc:	24120000 	li	s2,0
    4a00:	00000000 	nop
    4a04:	3c104e25 	lui	s0,0x4e25
    4a08:	1d00001e 	bgtz	t0,4a84 <n32_bgtz_test+0x4a84>
    4a0c:	36101780 	ori	s0,s0,0x1780
    4a10:	1000001e 	b	4a8c <n32_bgtz_test+0x4a8c>
    4a14:	00000000 	nop
    4a18:	00000000 	nop
    4a1c:	00000021 	move	zero,zero
    4a20:	00000021 	move	zero,zero
    4a24:	00000021 	move	zero,zero
    4a28:	00000021 	move	zero,zero
    4a2c:	00000021 	move	zero,zero
    4a30:	00000021 	move	zero,zero
    4a34:	00000021 	move	zero,zero
    4a38:	00000021 	move	zero,zero
    4a3c:	00000021 	move	zero,zero
    4a40:	00000021 	move	zero,zero
    4a44:	00000021 	move	zero,zero
    4a48:	00000021 	move	zero,zero
    4a4c:	00000021 	move	zero,zero
    4a50:	00000021 	move	zero,zero
    4a54:	3c08d14f 	lui	t0,0xd14f
    4a58:	35084d82 	ori	t0,t0,0x4d82
    4a5c:	1d00ffe9 	bgtz	t0,4a04 <n32_bgtz_test+0x4a04>
    4a60:	00000000 	nop
    4a64:	10000009 	b	4a8c <n32_bgtz_test+0x4a8c>
    4a68:	00000000 	nop
    4a6c:	00000000 	nop
    4a70:	00000021 	move	zero,zero
    4a74:	00000021 	move	zero,zero
    4a78:	00000021 	move	zero,zero
    4a7c:	00000021 	move	zero,zero
    4a80:	00000021 	move	zero,zero
    4a84:	3c121902 	lui	s2,0x1902
    4a88:	3652f458 	ori	s2,s2,0xf458
    4a8c:	00000000 	nop
    4a90:	24140000 	li	s4,0
    4a94:	1614161f 	bne	s0,s4,a314 <inst_error>
    4a98:	00000000 	nop
    4a9c:	00000000 	nop
    4aa0:	24150000 	li	s5,0
    4aa4:	1655161b 	bne	s2,s5,a314 <inst_error>
    4aa8:	00000000 	nop
    4aac:	00000000 	nop
    4ab0:	3c0c39e8 	lui	t4,0x39e8
    4ab4:	358c04e8 	ori	t4,t4,0x4e8
    4ab8:	3c0d2a76 	lui	t5,0x2a76
    4abc:	35ad4a40 	ori	t5,t5,0x4a40
    4ac0:	24100000 	li	s0,0
    4ac4:	10000016 	b	4b20 <n32_bgtz_test+0x4b20>
    4ac8:	24120000 	li	s2,0
    4acc:	00000000 	nop
    4ad0:	3c1039e8 	lui	s0,0x39e8
    4ad4:	1d00001e 	bgtz	t0,4b50 <n32_bgtz_test+0x4b50>
    4ad8:	361004e8 	ori	s0,s0,0x4e8
    4adc:	1000001e 	b	4b58 <n32_bgtz_test+0x4b58>
    4ae0:	00000000 	nop
    4ae4:	00000000 	nop
    4ae8:	00000021 	move	zero,zero
    4aec:	00000021 	move	zero,zero
    4af0:	00000021 	move	zero,zero
    4af4:	00000021 	move	zero,zero
    4af8:	00000021 	move	zero,zero
    4afc:	00000021 	move	zero,zero
    4b00:	00000021 	move	zero,zero
    4b04:	00000021 	move	zero,zero
    4b08:	00000021 	move	zero,zero
    4b0c:	00000021 	move	zero,zero
    4b10:	00000021 	move	zero,zero
    4b14:	00000021 	move	zero,zero
    4b18:	00000021 	move	zero,zero
    4b1c:	00000021 	move	zero,zero
    4b20:	3c0887bd 	lui	t0,0x87bd
    4b24:	35084f22 	ori	t0,t0,0x4f22
    4b28:	1d00ffe9 	bgtz	t0,4ad0 <n32_bgtz_test+0x4ad0>
    4b2c:	00000000 	nop
    4b30:	10000009 	b	4b58 <n32_bgtz_test+0x4b58>
    4b34:	00000000 	nop
    4b38:	00000000 	nop
    4b3c:	00000021 	move	zero,zero
    4b40:	00000021 	move	zero,zero
    4b44:	00000021 	move	zero,zero
    4b48:	00000021 	move	zero,zero
    4b4c:	00000021 	move	zero,zero
    4b50:	3c122a76 	lui	s2,0x2a76
    4b54:	36524a40 	ori	s2,s2,0x4a40
    4b58:	00000000 	nop
    4b5c:	24140000 	li	s4,0
    4b60:	161415ec 	bne	s0,s4,a314 <inst_error>
    4b64:	00000000 	nop
    4b68:	00000000 	nop
    4b6c:	24150000 	li	s5,0
    4b70:	165515e8 	bne	s2,s5,a314 <inst_error>
    4b74:	00000000 	nop
    4b78:	00000000 	nop
    4b7c:	3c0cde3b 	lui	t4,0xde3b
    4b80:	358ce87a 	ori	t4,t4,0xe87a
    4b84:	3c0d36c0 	lui	t5,0x36c0
    4b88:	35ad9318 	ori	t5,t5,0x9318
    4b8c:	24100000 	li	s0,0
    4b90:	10000016 	b	4bec <n32_bgtz_test+0x4bec>
    4b94:	24120000 	li	s2,0
    4b98:	00000000 	nop
    4b9c:	3c10de3b 	lui	s0,0xde3b
    4ba0:	1d00001e 	bgtz	t0,4c1c <n32_bgtz_test+0x4c1c>
    4ba4:	3610e87a 	ori	s0,s0,0xe87a
    4ba8:	1000001e 	b	4c24 <n32_bgtz_test+0x4c24>
    4bac:	00000000 	nop
    4bb0:	00000000 	nop
    4bb4:	00000021 	move	zero,zero
    4bb8:	00000021 	move	zero,zero
    4bbc:	00000021 	move	zero,zero
    4bc0:	00000021 	move	zero,zero
    4bc4:	00000021 	move	zero,zero
    4bc8:	00000021 	move	zero,zero
    4bcc:	00000021 	move	zero,zero
    4bd0:	00000021 	move	zero,zero
    4bd4:	00000021 	move	zero,zero
    4bd8:	00000021 	move	zero,zero
    4bdc:	00000021 	move	zero,zero
    4be0:	00000021 	move	zero,zero
    4be4:	00000021 	move	zero,zero
    4be8:	00000021 	move	zero,zero
    4bec:	3c08799f 	lui	t0,0x799f
    4bf0:	3508117e 	ori	t0,t0,0x117e
    4bf4:	1d00ffe9 	bgtz	t0,4b9c <n32_bgtz_test+0x4b9c>
    4bf8:	00000000 	nop
    4bfc:	10000009 	b	4c24 <n32_bgtz_test+0x4c24>
    4c00:	00000000 	nop
    4c04:	00000000 	nop
    4c08:	00000021 	move	zero,zero
    4c0c:	00000021 	move	zero,zero
    4c10:	00000021 	move	zero,zero
    4c14:	00000021 	move	zero,zero
    4c18:	00000021 	move	zero,zero
    4c1c:	3c1236c0 	lui	s2,0x36c0
    4c20:	36529318 	ori	s2,s2,0x9318
    4c24:	00000000 	nop
    4c28:	3c14de3b 	lui	s4,0xde3b
    4c2c:	3694e87a 	ori	s4,s4,0xe87a
    4c30:	161415b8 	bne	s0,s4,a314 <inst_error>
    4c34:	00000000 	nop
    4c38:	00000000 	nop
    4c3c:	3c1536c0 	lui	s5,0x36c0
    4c40:	36b59318 	ori	s5,s5,0x9318
    4c44:	165515b3 	bne	s2,s5,a314 <inst_error>
    4c48:	00000000 	nop
    4c4c:	00000000 	nop
    4c50:	3c0cefa4 	lui	t4,0xefa4
    4c54:	358c54dc 	ori	t4,t4,0x54dc
    4c58:	3c0d3177 	lui	t5,0x3177
    4c5c:	35ad9bbc 	ori	t5,t5,0x9bbc
    4c60:	24100000 	li	s0,0
    4c64:	10000016 	b	4cc0 <n32_bgtz_test+0x4cc0>
    4c68:	24120000 	li	s2,0
    4c6c:	00000000 	nop
    4c70:	3c10efa4 	lui	s0,0xefa4
    4c74:	1d00001e 	bgtz	t0,4cf0 <n32_bgtz_test+0x4cf0>
    4c78:	361054dc 	ori	s0,s0,0x54dc
    4c7c:	1000001e 	b	4cf8 <n32_bgtz_test+0x4cf8>
    4c80:	00000000 	nop
    4c84:	00000000 	nop
    4c88:	00000021 	move	zero,zero
    4c8c:	00000021 	move	zero,zero
    4c90:	00000021 	move	zero,zero
    4c94:	00000021 	move	zero,zero
    4c98:	00000021 	move	zero,zero
    4c9c:	00000021 	move	zero,zero
    4ca0:	00000021 	move	zero,zero
    4ca4:	00000021 	move	zero,zero
    4ca8:	00000021 	move	zero,zero
    4cac:	00000021 	move	zero,zero
    4cb0:	00000021 	move	zero,zero
    4cb4:	00000021 	move	zero,zero
    4cb8:	00000021 	move	zero,zero
    4cbc:	00000021 	move	zero,zero
    4cc0:	3c08128a 	lui	t0,0x128a
    4cc4:	35086080 	ori	t0,t0,0x6080
    4cc8:	1d00ffe9 	bgtz	t0,4c70 <n32_bgtz_test+0x4c70>
    4ccc:	00000000 	nop
    4cd0:	10000009 	b	4cf8 <n32_bgtz_test+0x4cf8>
    4cd4:	00000000 	nop
    4cd8:	00000000 	nop
    4cdc:	00000021 	move	zero,zero
    4ce0:	00000021 	move	zero,zero
    4ce4:	00000021 	move	zero,zero
    4ce8:	00000021 	move	zero,zero
    4cec:	00000021 	move	zero,zero
    4cf0:	3c123177 	lui	s2,0x3177
    4cf4:	36529bbc 	ori	s2,s2,0x9bbc
    4cf8:	00000000 	nop
    4cfc:	3c14efa4 	lui	s4,0xefa4
    4d00:	369454dc 	ori	s4,s4,0x54dc
    4d04:	16141583 	bne	s0,s4,a314 <inst_error>
    4d08:	00000000 	nop
    4d0c:	00000000 	nop
    4d10:	3c153177 	lui	s5,0x3177
    4d14:	36b59bbc 	ori	s5,s5,0x9bbc
    4d18:	1655157e 	bne	s2,s5,a314 <inst_error>
    4d1c:	00000000 	nop
    4d20:	00000000 	nop
    4d24:	3c0cf8a7 	lui	t4,0xf8a7
    4d28:	358cca38 	ori	t4,t4,0xca38
    4d2c:	3c0d9a99 	lui	t5,0x9a99
    4d30:	35ad5300 	ori	t5,t5,0x5300
    4d34:	24100000 	li	s0,0
    4d38:	10000016 	b	4d94 <n32_bgtz_test+0x4d94>
    4d3c:	24120000 	li	s2,0
    4d40:	00000000 	nop
    4d44:	3c10f8a7 	lui	s0,0xf8a7
    4d48:	1d00001e 	bgtz	t0,4dc4 <n32_bgtz_test+0x4dc4>
    4d4c:	3610ca38 	ori	s0,s0,0xca38
    4d50:	1000001e 	b	4dcc <n32_bgtz_test+0x4dcc>
    4d54:	00000000 	nop
    4d58:	00000000 	nop
    4d5c:	00000021 	move	zero,zero
    4d60:	00000021 	move	zero,zero
    4d64:	00000021 	move	zero,zero
    4d68:	00000021 	move	zero,zero
    4d6c:	00000021 	move	zero,zero
    4d70:	00000021 	move	zero,zero
    4d74:	00000021 	move	zero,zero
    4d78:	00000021 	move	zero,zero
    4d7c:	00000021 	move	zero,zero
    4d80:	00000021 	move	zero,zero
    4d84:	00000021 	move	zero,zero
    4d88:	00000021 	move	zero,zero
    4d8c:	00000021 	move	zero,zero
    4d90:	00000021 	move	zero,zero
    4d94:	3c08eb65 	lui	t0,0xeb65
    4d98:	3508913f 	ori	t0,t0,0x913f
    4d9c:	1d00ffe9 	bgtz	t0,4d44 <n32_bgtz_test+0x4d44>
    4da0:	00000000 	nop
    4da4:	10000009 	b	4dcc <n32_bgtz_test+0x4dcc>
    4da8:	00000000 	nop
    4dac:	00000000 	nop
    4db0:	00000021 	move	zero,zero
    4db4:	00000021 	move	zero,zero
    4db8:	00000021 	move	zero,zero
    4dbc:	00000021 	move	zero,zero
    4dc0:	00000021 	move	zero,zero
    4dc4:	3c129a99 	lui	s2,0x9a99
    4dc8:	36525300 	ori	s2,s2,0x5300
    4dcc:	00000000 	nop
    4dd0:	24140000 	li	s4,0
    4dd4:	1614154f 	bne	s0,s4,a314 <inst_error>
    4dd8:	00000000 	nop
    4ddc:	00000000 	nop
    4de0:	24150000 	li	s5,0
    4de4:	1655154b 	bne	s2,s5,a314 <inst_error>
    4de8:	00000000 	nop
    4dec:	00000000 	nop
    4df0:	3c0c08d0 	lui	t4,0x8d0
    4df4:	358c8d1e 	ori	t4,t4,0x8d1e
    4df8:	3c0d0ac5 	lui	t5,0xac5
    4dfc:	35ad5a20 	ori	t5,t5,0x5a20
    4e00:	24100000 	li	s0,0
    4e04:	10000016 	b	4e60 <n32_bgtz_test+0x4e60>
    4e08:	24120000 	li	s2,0
    4e0c:	00000000 	nop
    4e10:	3c1008d0 	lui	s0,0x8d0
    4e14:	1d00001e 	bgtz	t0,4e90 <n32_bgtz_test+0x4e90>
    4e18:	36108d1e 	ori	s0,s0,0x8d1e
    4e1c:	1000001e 	b	4e98 <n32_bgtz_test+0x4e98>
    4e20:	00000000 	nop
    4e24:	00000000 	nop
    4e28:	00000021 	move	zero,zero
    4e2c:	00000021 	move	zero,zero
    4e30:	00000021 	move	zero,zero
    4e34:	00000021 	move	zero,zero
    4e38:	00000021 	move	zero,zero
    4e3c:	00000021 	move	zero,zero
    4e40:	00000021 	move	zero,zero
    4e44:	00000021 	move	zero,zero
    4e48:	00000021 	move	zero,zero
    4e4c:	00000021 	move	zero,zero
    4e50:	00000021 	move	zero,zero
    4e54:	00000021 	move	zero,zero
    4e58:	00000021 	move	zero,zero
    4e5c:	00000021 	move	zero,zero
    4e60:	3c08855b 	lui	t0,0x855b
    4e64:	35084ff0 	ori	t0,t0,0x4ff0
    4e68:	1d00ffe9 	bgtz	t0,4e10 <n32_bgtz_test+0x4e10>
    4e6c:	00000000 	nop
    4e70:	10000009 	b	4e98 <n32_bgtz_test+0x4e98>
    4e74:	00000000 	nop
    4e78:	00000000 	nop
    4e7c:	00000021 	move	zero,zero
    4e80:	00000021 	move	zero,zero
    4e84:	00000021 	move	zero,zero
    4e88:	00000021 	move	zero,zero
    4e8c:	00000021 	move	zero,zero
    4e90:	3c120ac5 	lui	s2,0xac5
    4e94:	36525a20 	ori	s2,s2,0x5a20
    4e98:	00000000 	nop
    4e9c:	24140000 	li	s4,0
    4ea0:	1614151c 	bne	s0,s4,a314 <inst_error>
    4ea4:	00000000 	nop
    4ea8:	00000000 	nop
    4eac:	24150000 	li	s5,0
    4eb0:	16551518 	bne	s2,s5,a314 <inst_error>
    4eb4:	00000000 	nop
    4eb8:	00000000 	nop
    4ebc:	3c0c79b2 	lui	t4,0x79b2
    4ec0:	358c4244 	ori	t4,t4,0x4244
    4ec4:	3c0d73de 	lui	t5,0x73de
    4ec8:	35adbe17 	ori	t5,t5,0xbe17
    4ecc:	24100000 	li	s0,0
    4ed0:	10000016 	b	4f2c <n32_bgtz_test+0x4f2c>
    4ed4:	24120000 	li	s2,0
    4ed8:	00000000 	nop
    4edc:	3c1079b2 	lui	s0,0x79b2
    4ee0:	1d00001e 	bgtz	t0,4f5c <n32_bgtz_test+0x4f5c>
    4ee4:	36104244 	ori	s0,s0,0x4244
    4ee8:	1000001e 	b	4f64 <n32_bgtz_test+0x4f64>
    4eec:	00000000 	nop
    4ef0:	00000000 	nop
    4ef4:	00000021 	move	zero,zero
    4ef8:	00000021 	move	zero,zero
    4efc:	00000021 	move	zero,zero
    4f00:	00000021 	move	zero,zero
    4f04:	00000021 	move	zero,zero
    4f08:	00000021 	move	zero,zero
    4f0c:	00000021 	move	zero,zero
    4f10:	00000021 	move	zero,zero
    4f14:	00000021 	move	zero,zero
    4f18:	00000021 	move	zero,zero
    4f1c:	00000021 	move	zero,zero
    4f20:	00000021 	move	zero,zero
    4f24:	00000021 	move	zero,zero
    4f28:	00000021 	move	zero,zero
    4f2c:	3c089ae2 	lui	t0,0x9ae2
    4f30:	35084448 	ori	t0,t0,0x4448
    4f34:	1d00ffe9 	bgtz	t0,4edc <n32_bgtz_test+0x4edc>
    4f38:	00000000 	nop
    4f3c:	10000009 	b	4f64 <n32_bgtz_test+0x4f64>
    4f40:	00000000 	nop
    4f44:	00000000 	nop
    4f48:	00000021 	move	zero,zero
    4f4c:	00000021 	move	zero,zero
    4f50:	00000021 	move	zero,zero
    4f54:	00000021 	move	zero,zero
    4f58:	00000021 	move	zero,zero
    4f5c:	3c1273de 	lui	s2,0x73de
    4f60:	3652be17 	ori	s2,s2,0xbe17
    4f64:	00000000 	nop
    4f68:	24140000 	li	s4,0
    4f6c:	161414e9 	bne	s0,s4,a314 <inst_error>
    4f70:	00000000 	nop
    4f74:	00000000 	nop
    4f78:	24150000 	li	s5,0
    4f7c:	165514e5 	bne	s2,s5,a314 <inst_error>
    4f80:	00000000 	nop
    4f84:	00000000 	nop
    4f88:	3c0cb86e 	lui	t4,0xb86e
    4f8c:	358c8f40 	ori	t4,t4,0x8f40
    4f90:	3c0d59a9 	lui	t5,0x59a9
    4f94:	35ad4d38 	ori	t5,t5,0x4d38
    4f98:	24100000 	li	s0,0
    4f9c:	10000016 	b	4ff8 <n32_bgtz_test+0x4ff8>
    4fa0:	24120000 	li	s2,0
    4fa4:	00000000 	nop
    4fa8:	3c10b86e 	lui	s0,0xb86e
    4fac:	1d00001e 	bgtz	t0,5028 <n32_bgtz_test+0x5028>
    4fb0:	36108f40 	ori	s0,s0,0x8f40
    4fb4:	1000001e 	b	5030 <n32_bgtz_test+0x5030>
    4fb8:	00000000 	nop
    4fbc:	00000000 	nop
    4fc0:	00000021 	move	zero,zero
    4fc4:	00000021 	move	zero,zero
    4fc8:	00000021 	move	zero,zero
    4fcc:	00000021 	move	zero,zero
    4fd0:	00000021 	move	zero,zero
    4fd4:	00000021 	move	zero,zero
    4fd8:	00000021 	move	zero,zero
    4fdc:	00000021 	move	zero,zero
    4fe0:	00000021 	move	zero,zero
    4fe4:	00000021 	move	zero,zero
    4fe8:	00000021 	move	zero,zero
    4fec:	00000021 	move	zero,zero
    4ff0:	00000021 	move	zero,zero
    4ff4:	00000021 	move	zero,zero
    4ff8:	3c086159 	lui	t0,0x6159
    4ffc:	3508b180 	ori	t0,t0,0xb180
    5000:	1d00ffe9 	bgtz	t0,4fa8 <n32_bgtz_test+0x4fa8>
    5004:	00000000 	nop
    5008:	10000009 	b	5030 <n32_bgtz_test+0x5030>
    500c:	00000000 	nop
    5010:	00000000 	nop
    5014:	00000021 	move	zero,zero
    5018:	00000021 	move	zero,zero
    501c:	00000021 	move	zero,zero
    5020:	00000021 	move	zero,zero
    5024:	00000021 	move	zero,zero
    5028:	3c1259a9 	lui	s2,0x59a9
    502c:	36524d38 	ori	s2,s2,0x4d38
    5030:	00000000 	nop
    5034:	3c14b86e 	lui	s4,0xb86e
    5038:	36948f40 	ori	s4,s4,0x8f40
    503c:	161414b5 	bne	s0,s4,a314 <inst_error>
    5040:	00000000 	nop
    5044:	00000000 	nop
    5048:	3c1559a9 	lui	s5,0x59a9
    504c:	36b54d38 	ori	s5,s5,0x4d38
    5050:	165514b0 	bne	s2,s5,a314 <inst_error>
    5054:	00000000 	nop
    5058:	00000000 	nop
    505c:	3c0cfdc4 	lui	t4,0xfdc4
    5060:	358c855e 	ori	t4,t4,0x855e
    5064:	3c0d286b 	lui	t5,0x286b
    5068:	35ad8c7c 	ori	t5,t5,0x8c7c
    506c:	24100000 	li	s0,0
    5070:	10000016 	b	50cc <n32_bgtz_test+0x50cc>
    5074:	24120000 	li	s2,0
    5078:	00000000 	nop
    507c:	3c10fdc4 	lui	s0,0xfdc4
    5080:	1d00001e 	bgtz	t0,50fc <n32_bgtz_test+0x50fc>
    5084:	3610855e 	ori	s0,s0,0x855e
    5088:	1000001e 	b	5104 <n32_bgtz_test+0x5104>
    508c:	00000000 	nop
    5090:	00000000 	nop
    5094:	00000021 	move	zero,zero
    5098:	00000021 	move	zero,zero
    509c:	00000021 	move	zero,zero
    50a0:	00000021 	move	zero,zero
    50a4:	00000021 	move	zero,zero
    50a8:	00000021 	move	zero,zero
    50ac:	00000021 	move	zero,zero
    50b0:	00000021 	move	zero,zero
    50b4:	00000021 	move	zero,zero
    50b8:	00000021 	move	zero,zero
    50bc:	00000021 	move	zero,zero
    50c0:	00000021 	move	zero,zero
    50c4:	00000021 	move	zero,zero
    50c8:	00000021 	move	zero,zero
    50cc:	3c08209e 	lui	t0,0x209e
    50d0:	350805c0 	ori	t0,t0,0x5c0
    50d4:	1d00ffe9 	bgtz	t0,507c <n32_bgtz_test+0x507c>
    50d8:	00000000 	nop
    50dc:	10000009 	b	5104 <n32_bgtz_test+0x5104>
    50e0:	00000000 	nop
    50e4:	00000000 	nop
    50e8:	00000021 	move	zero,zero
    50ec:	00000021 	move	zero,zero
    50f0:	00000021 	move	zero,zero
    50f4:	00000021 	move	zero,zero
    50f8:	00000021 	move	zero,zero
    50fc:	3c12286b 	lui	s2,0x286b
    5100:	36528c7c 	ori	s2,s2,0x8c7c
    5104:	00000000 	nop
    5108:	3c14fdc4 	lui	s4,0xfdc4
    510c:	3694855e 	ori	s4,s4,0x855e
    5110:	16141480 	bne	s0,s4,a314 <inst_error>
    5114:	00000000 	nop
    5118:	00000000 	nop
    511c:	3c15286b 	lui	s5,0x286b
    5120:	36b58c7c 	ori	s5,s5,0x8c7c
    5124:	1655147b 	bne	s2,s5,a314 <inst_error>
    5128:	00000000 	nop
    512c:	00000000 	nop
    5130:	3c0c07b0 	lui	t4,0x7b0
    5134:	358c125c 	ori	t4,t4,0x125c
    5138:	3c0d12b1 	lui	t5,0x12b1
    513c:	35adadf8 	ori	t5,t5,0xadf8
    5140:	24100000 	li	s0,0
    5144:	10000016 	b	51a0 <n32_bgtz_test+0x51a0>
    5148:	24120000 	li	s2,0
    514c:	00000000 	nop
    5150:	3c1007b0 	lui	s0,0x7b0
    5154:	1d00001e 	bgtz	t0,51d0 <n32_bgtz_test+0x51d0>
    5158:	3610125c 	ori	s0,s0,0x125c
    515c:	1000001e 	b	51d8 <n32_bgtz_test+0x51d8>
    5160:	00000000 	nop
    5164:	00000000 	nop
    5168:	00000021 	move	zero,zero
    516c:	00000021 	move	zero,zero
    5170:	00000021 	move	zero,zero
    5174:	00000021 	move	zero,zero
    5178:	00000021 	move	zero,zero
    517c:	00000021 	move	zero,zero
    5180:	00000021 	move	zero,zero
    5184:	00000021 	move	zero,zero
    5188:	00000021 	move	zero,zero
    518c:	00000021 	move	zero,zero
    5190:	00000021 	move	zero,zero
    5194:	00000021 	move	zero,zero
    5198:	00000021 	move	zero,zero
    519c:	00000021 	move	zero,zero
    51a0:	3c08ab3e 	lui	t0,0xab3e
    51a4:	35081fc0 	ori	t0,t0,0x1fc0
    51a8:	1d00ffe9 	bgtz	t0,5150 <n32_bgtz_test+0x5150>
    51ac:	00000000 	nop
    51b0:	10000009 	b	51d8 <n32_bgtz_test+0x51d8>
    51b4:	00000000 	nop
    51b8:	00000000 	nop
    51bc:	00000021 	move	zero,zero
    51c0:	00000021 	move	zero,zero
    51c4:	00000021 	move	zero,zero
    51c8:	00000021 	move	zero,zero
    51cc:	00000021 	move	zero,zero
    51d0:	3c1212b1 	lui	s2,0x12b1
    51d4:	3652adf8 	ori	s2,s2,0xadf8
    51d8:	00000000 	nop
    51dc:	24140000 	li	s4,0
    51e0:	1614144c 	bne	s0,s4,a314 <inst_error>
    51e4:	00000000 	nop
    51e8:	00000000 	nop
    51ec:	24150000 	li	s5,0
    51f0:	16551448 	bne	s2,s5,a314 <inst_error>
    51f4:	00000000 	nop
    51f8:	00000000 	nop
    51fc:	3c0c0b57 	lui	t4,0xb57
    5200:	358ca528 	ori	t4,t4,0xa528
    5204:	3c0d3dfb 	lui	t5,0x3dfb
    5208:	35ad88bc 	ori	t5,t5,0x88bc
    520c:	24100000 	li	s0,0
    5210:	10000016 	b	526c <n32_bgtz_test+0x526c>
    5214:	24120000 	li	s2,0
    5218:	00000000 	nop
    521c:	3c100b57 	lui	s0,0xb57
    5220:	1d00001e 	bgtz	t0,529c <n32_bgtz_test+0x529c>
    5224:	3610a528 	ori	s0,s0,0xa528
    5228:	1000001e 	b	52a4 <n32_bgtz_test+0x52a4>
    522c:	00000000 	nop
    5230:	00000000 	nop
    5234:	00000021 	move	zero,zero
    5238:	00000021 	move	zero,zero
    523c:	00000021 	move	zero,zero
    5240:	00000021 	move	zero,zero
    5244:	00000021 	move	zero,zero
    5248:	00000021 	move	zero,zero
    524c:	00000021 	move	zero,zero
    5250:	00000021 	move	zero,zero
    5254:	00000021 	move	zero,zero
    5258:	00000021 	move	zero,zero
    525c:	00000021 	move	zero,zero
    5260:	00000021 	move	zero,zero
    5264:	00000021 	move	zero,zero
    5268:	00000021 	move	zero,zero
    526c:	3c086a12 	lui	t0,0x6a12
    5270:	35081cc8 	ori	t0,t0,0x1cc8
    5274:	1d00ffe9 	bgtz	t0,521c <n32_bgtz_test+0x521c>
    5278:	00000000 	nop
    527c:	10000009 	b	52a4 <n32_bgtz_test+0x52a4>
    5280:	00000000 	nop
    5284:	00000000 	nop
    5288:	00000021 	move	zero,zero
    528c:	00000021 	move	zero,zero
    5290:	00000021 	move	zero,zero
    5294:	00000021 	move	zero,zero
    5298:	00000021 	move	zero,zero
    529c:	3c123dfb 	lui	s2,0x3dfb
    52a0:	365288bc 	ori	s2,s2,0x88bc
    52a4:	00000000 	nop
    52a8:	3c140b57 	lui	s4,0xb57
    52ac:	3694a528 	ori	s4,s4,0xa528
    52b0:	16141418 	bne	s0,s4,a314 <inst_error>
    52b4:	00000000 	nop
    52b8:	00000000 	nop
    52bc:	3c153dfb 	lui	s5,0x3dfb
    52c0:	36b588bc 	ori	s5,s5,0x88bc
    52c4:	16551413 	bne	s2,s5,a314 <inst_error>
    52c8:	00000000 	nop
    52cc:	00000000 	nop
    52d0:	3c0cb146 	lui	t4,0xb146
    52d4:	358c2638 	ori	t4,t4,0x2638
    52d8:	3c0dc2c3 	lui	t5,0xc2c3
    52dc:	35add768 	ori	t5,t5,0xd768
    52e0:	24100000 	li	s0,0
    52e4:	10000016 	b	5340 <n32_bgtz_test+0x5340>
    52e8:	24120000 	li	s2,0
    52ec:	00000000 	nop
    52f0:	3c10b146 	lui	s0,0xb146
    52f4:	1d00001e 	bgtz	t0,5370 <n32_bgtz_test+0x5370>
    52f8:	36102638 	ori	s0,s0,0x2638
    52fc:	1000001e 	b	5378 <n32_bgtz_test+0x5378>
    5300:	00000000 	nop
    5304:	00000000 	nop
    5308:	00000021 	move	zero,zero
    530c:	00000021 	move	zero,zero
    5310:	00000021 	move	zero,zero
    5314:	00000021 	move	zero,zero
    5318:	00000021 	move	zero,zero
    531c:	00000021 	move	zero,zero
    5320:	00000021 	move	zero,zero
    5324:	00000021 	move	zero,zero
    5328:	00000021 	move	zero,zero
    532c:	00000021 	move	zero,zero
    5330:	00000021 	move	zero,zero
    5334:	00000021 	move	zero,zero
    5338:	00000021 	move	zero,zero
    533c:	00000021 	move	zero,zero
    5340:	3c08c14c 	lui	t0,0xc14c
    5344:	3508cbc4 	ori	t0,t0,0xcbc4
    5348:	1d00ffe9 	bgtz	t0,52f0 <n32_bgtz_test+0x52f0>
    534c:	00000000 	nop
    5350:	10000009 	b	5378 <n32_bgtz_test+0x5378>
    5354:	00000000 	nop
    5358:	00000000 	nop
    535c:	00000021 	move	zero,zero
    5360:	00000021 	move	zero,zero
    5364:	00000021 	move	zero,zero
    5368:	00000021 	move	zero,zero
    536c:	00000021 	move	zero,zero
    5370:	3c12c2c3 	lui	s2,0xc2c3
    5374:	3652d768 	ori	s2,s2,0xd768
    5378:	00000000 	nop
    537c:	24140000 	li	s4,0
    5380:	161413e4 	bne	s0,s4,a314 <inst_error>
    5384:	00000000 	nop
    5388:	00000000 	nop
    538c:	24150000 	li	s5,0
    5390:	165513e0 	bne	s2,s5,a314 <inst_error>
    5394:	00000000 	nop
    5398:	00000000 	nop
    539c:	3c0c237e 	lui	t4,0x237e
    53a0:	358c7128 	ori	t4,t4,0x7128
    53a4:	3c0dd8b9 	lui	t5,0xd8b9
    53a8:	35ad6790 	ori	t5,t5,0x6790
    53ac:	24100000 	li	s0,0
    53b0:	10000016 	b	540c <n32_bgtz_test+0x540c>
    53b4:	24120000 	li	s2,0
    53b8:	00000000 	nop
    53bc:	3c10237e 	lui	s0,0x237e
    53c0:	1d00001e 	bgtz	t0,543c <n32_bgtz_test+0x543c>
    53c4:	36107128 	ori	s0,s0,0x7128
    53c8:	1000001e 	b	5444 <n32_bgtz_test+0x5444>
    53cc:	00000000 	nop
    53d0:	00000000 	nop
    53d4:	00000021 	move	zero,zero
    53d8:	00000021 	move	zero,zero
    53dc:	00000021 	move	zero,zero
    53e0:	00000021 	move	zero,zero
    53e4:	00000021 	move	zero,zero
    53e8:	00000021 	move	zero,zero
    53ec:	00000021 	move	zero,zero
    53f0:	00000021 	move	zero,zero
    53f4:	00000021 	move	zero,zero
    53f8:	00000021 	move	zero,zero
    53fc:	00000021 	move	zero,zero
    5400:	00000021 	move	zero,zero
    5404:	00000021 	move	zero,zero
    5408:	00000021 	move	zero,zero
    540c:	3c085f78 	lui	t0,0x5f78
    5410:	350848b2 	ori	t0,t0,0x48b2
    5414:	1d00ffe9 	bgtz	t0,53bc <n32_bgtz_test+0x53bc>
    5418:	00000000 	nop
    541c:	10000009 	b	5444 <n32_bgtz_test+0x5444>
    5420:	00000000 	nop
    5424:	00000000 	nop
    5428:	00000021 	move	zero,zero
    542c:	00000021 	move	zero,zero
    5430:	00000021 	move	zero,zero
    5434:	00000021 	move	zero,zero
    5438:	00000021 	move	zero,zero
    543c:	3c12d8b9 	lui	s2,0xd8b9
    5440:	36526790 	ori	s2,s2,0x6790
    5444:	00000000 	nop
    5448:	3c14237e 	lui	s4,0x237e
    544c:	36947128 	ori	s4,s4,0x7128
    5450:	161413b0 	bne	s0,s4,a314 <inst_error>
    5454:	00000000 	nop
    5458:	00000000 	nop
    545c:	3c15d8b9 	lui	s5,0xd8b9
    5460:	36b56790 	ori	s5,s5,0x6790
    5464:	165513ab 	bne	s2,s5,a314 <inst_error>
    5468:	00000000 	nop
    546c:	00000000 	nop
    5470:	3c0c605f 	lui	t4,0x605f
    5474:	358ce450 	ori	t4,t4,0xe450
    5478:	3c0d87cb 	lui	t5,0x87cb
    547c:	35adc48a 	ori	t5,t5,0xc48a
    5480:	24100000 	li	s0,0
    5484:	10000016 	b	54e0 <n32_bgtz_test+0x54e0>
    5488:	24120000 	li	s2,0
    548c:	00000000 	nop
    5490:	3c10605f 	lui	s0,0x605f
    5494:	1d00001e 	bgtz	t0,5510 <n32_bgtz_test+0x5510>
    5498:	3610e450 	ori	s0,s0,0xe450
    549c:	1000001e 	b	5518 <n32_bgtz_test+0x5518>
    54a0:	00000000 	nop
    54a4:	00000000 	nop
    54a8:	00000021 	move	zero,zero
    54ac:	00000021 	move	zero,zero
    54b0:	00000021 	move	zero,zero
    54b4:	00000021 	move	zero,zero
    54b8:	00000021 	move	zero,zero
    54bc:	00000021 	move	zero,zero
    54c0:	00000021 	move	zero,zero
    54c4:	00000021 	move	zero,zero
    54c8:	00000021 	move	zero,zero
    54cc:	00000021 	move	zero,zero
    54d0:	00000021 	move	zero,zero
    54d4:	00000021 	move	zero,zero
    54d8:	00000021 	move	zero,zero
    54dc:	00000021 	move	zero,zero
    54e0:	3c080c5f 	lui	t0,0xc5f
    54e4:	35083890 	ori	t0,t0,0x3890
    54e8:	1d00ffe9 	bgtz	t0,5490 <n32_bgtz_test+0x5490>
    54ec:	00000000 	nop
    54f0:	10000009 	b	5518 <n32_bgtz_test+0x5518>
    54f4:	00000000 	nop
    54f8:	00000000 	nop
    54fc:	00000021 	move	zero,zero
    5500:	00000021 	move	zero,zero
    5504:	00000021 	move	zero,zero
    5508:	00000021 	move	zero,zero
    550c:	00000021 	move	zero,zero
    5510:	3c1287cb 	lui	s2,0x87cb
    5514:	3652c48a 	ori	s2,s2,0xc48a
    5518:	00000000 	nop
    551c:	3c14605f 	lui	s4,0x605f
    5520:	3694e450 	ori	s4,s4,0xe450
    5524:	1614137b 	bne	s0,s4,a314 <inst_error>
    5528:	00000000 	nop
    552c:	00000000 	nop
    5530:	3c1587cb 	lui	s5,0x87cb
    5534:	36b5c48a 	ori	s5,s5,0xc48a
    5538:	16551376 	bne	s2,s5,a314 <inst_error>
    553c:	00000000 	nop
    5540:	00000000 	nop
    5544:	3c0c8878 	lui	t4,0x8878
    5548:	358cecf1 	ori	t4,t4,0xecf1
    554c:	3c0d1f40 	lui	t5,0x1f40
    5550:	35ad734c 	ori	t5,t5,0x734c
    5554:	24100000 	li	s0,0
    5558:	10000016 	b	55b4 <n32_bgtz_test+0x55b4>
    555c:	24120000 	li	s2,0
    5560:	00000000 	nop
    5564:	3c108878 	lui	s0,0x8878
    5568:	1d00001e 	bgtz	t0,55e4 <n32_bgtz_test+0x55e4>
    556c:	3610ecf1 	ori	s0,s0,0xecf1
    5570:	1000001e 	b	55ec <n32_bgtz_test+0x55ec>
    5574:	00000000 	nop
    5578:	00000000 	nop
    557c:	00000021 	move	zero,zero
    5580:	00000021 	move	zero,zero
    5584:	00000021 	move	zero,zero
    5588:	00000021 	move	zero,zero
    558c:	00000021 	move	zero,zero
    5590:	00000021 	move	zero,zero
    5594:	00000021 	move	zero,zero
    5598:	00000021 	move	zero,zero
    559c:	00000021 	move	zero,zero
    55a0:	00000021 	move	zero,zero
    55a4:	00000021 	move	zero,zero
    55a8:	00000021 	move	zero,zero
    55ac:	00000021 	move	zero,zero
    55b0:	00000021 	move	zero,zero
    55b4:	3c082a7b 	lui	t0,0x2a7b
    55b8:	3508ae80 	ori	t0,t0,0xae80
    55bc:	1d00ffe9 	bgtz	t0,5564 <n32_bgtz_test+0x5564>
    55c0:	00000000 	nop
    55c4:	10000009 	b	55ec <n32_bgtz_test+0x55ec>
    55c8:	00000000 	nop
    55cc:	00000000 	nop
    55d0:	00000021 	move	zero,zero
    55d4:	00000021 	move	zero,zero
    55d8:	00000021 	move	zero,zero
    55dc:	00000021 	move	zero,zero
    55e0:	00000021 	move	zero,zero
    55e4:	3c121f40 	lui	s2,0x1f40
    55e8:	3652734c 	ori	s2,s2,0x734c
    55ec:	00000000 	nop
    55f0:	3c148878 	lui	s4,0x8878
    55f4:	3694ecf1 	ori	s4,s4,0xecf1
    55f8:	16141346 	bne	s0,s4,a314 <inst_error>
    55fc:	00000000 	nop
    5600:	00000000 	nop
    5604:	3c151f40 	lui	s5,0x1f40
    5608:	36b5734c 	ori	s5,s5,0x734c
    560c:	16551341 	bne	s2,s5,a314 <inst_error>
    5610:	00000000 	nop
    5614:	00000000 	nop
    5618:	3c0cc9d6 	lui	t4,0xc9d6
    561c:	358c40ba 	ori	t4,t4,0x40ba
    5620:	3c0d1a53 	lui	t5,0x1a53
    5624:	35ad9010 	ori	t5,t5,0x9010
    5628:	24100000 	li	s0,0
    562c:	10000016 	b	5688 <n32_bgtz_test+0x5688>
    5630:	24120000 	li	s2,0
    5634:	00000000 	nop
    5638:	3c10c9d6 	lui	s0,0xc9d6
    563c:	1d00001e 	bgtz	t0,56b8 <n32_bgtz_test+0x56b8>
    5640:	361040ba 	ori	s0,s0,0x40ba
    5644:	1000001e 	b	56c0 <n32_bgtz_test+0x56c0>
    5648:	00000000 	nop
    564c:	00000000 	nop
    5650:	00000021 	move	zero,zero
    5654:	00000021 	move	zero,zero
    5658:	00000021 	move	zero,zero
    565c:	00000021 	move	zero,zero
    5660:	00000021 	move	zero,zero
    5664:	00000021 	move	zero,zero
    5668:	00000021 	move	zero,zero
    566c:	00000021 	move	zero,zero
    5670:	00000021 	move	zero,zero
    5674:	00000021 	move	zero,zero
    5678:	00000021 	move	zero,zero
    567c:	00000021 	move	zero,zero
    5680:	00000021 	move	zero,zero
    5684:	00000021 	move	zero,zero
    5688:	3c08799d 	lui	t0,0x799d
    568c:	3508f247 	ori	t0,t0,0xf247
    5690:	1d00ffe9 	bgtz	t0,5638 <n32_bgtz_test+0x5638>
    5694:	00000000 	nop
    5698:	10000009 	b	56c0 <n32_bgtz_test+0x56c0>
    569c:	00000000 	nop
    56a0:	00000000 	nop
    56a4:	00000021 	move	zero,zero
    56a8:	00000021 	move	zero,zero
    56ac:	00000021 	move	zero,zero
    56b0:	00000021 	move	zero,zero
    56b4:	00000021 	move	zero,zero
    56b8:	3c121a53 	lui	s2,0x1a53
    56bc:	36529010 	ori	s2,s2,0x9010
    56c0:	00000000 	nop
    56c4:	3c14c9d6 	lui	s4,0xc9d6
    56c8:	369440ba 	ori	s4,s4,0x40ba
    56cc:	16141311 	bne	s0,s4,a314 <inst_error>
    56d0:	00000000 	nop
    56d4:	00000000 	nop
    56d8:	3c151a53 	lui	s5,0x1a53
    56dc:	36b59010 	ori	s5,s5,0x9010
    56e0:	1655130c 	bne	s2,s5,a314 <inst_error>
    56e4:	00000000 	nop
    56e8:	00000000 	nop
    56ec:	3c0c2e48 	lui	t4,0x2e48
    56f0:	358cd4b0 	ori	t4,t4,0xd4b0
    56f4:	3c0dff05 	lui	t5,0xff05
    56f8:	35ad7d44 	ori	t5,t5,0x7d44
    56fc:	24100000 	li	s0,0
    5700:	10000016 	b	575c <n32_bgtz_test+0x575c>
    5704:	24120000 	li	s2,0
    5708:	00000000 	nop
    570c:	3c102e48 	lui	s0,0x2e48
    5710:	1d00001e 	bgtz	t0,578c <n32_bgtz_test+0x578c>
    5714:	3610d4b0 	ori	s0,s0,0xd4b0
    5718:	1000001e 	b	5794 <n32_bgtz_test+0x5794>
    571c:	00000000 	nop
    5720:	00000000 	nop
    5724:	00000021 	move	zero,zero
    5728:	00000021 	move	zero,zero
    572c:	00000021 	move	zero,zero
    5730:	00000021 	move	zero,zero
    5734:	00000021 	move	zero,zero
    5738:	00000021 	move	zero,zero
    573c:	00000021 	move	zero,zero
    5740:	00000021 	move	zero,zero
    5744:	00000021 	move	zero,zero
    5748:	00000021 	move	zero,zero
    574c:	00000021 	move	zero,zero
    5750:	00000021 	move	zero,zero
    5754:	00000021 	move	zero,zero
    5758:	00000021 	move	zero,zero
    575c:	3c082df6 	lui	t0,0x2df6
    5760:	350861dc 	ori	t0,t0,0x61dc
    5764:	1d00ffe9 	bgtz	t0,570c <n32_bgtz_test+0x570c>
    5768:	00000000 	nop
    576c:	10000009 	b	5794 <n32_bgtz_test+0x5794>
    5770:	00000000 	nop
    5774:	00000000 	nop
    5778:	00000021 	move	zero,zero
    577c:	00000021 	move	zero,zero
    5780:	00000021 	move	zero,zero
    5784:	00000021 	move	zero,zero
    5788:	00000021 	move	zero,zero
    578c:	3c12ff05 	lui	s2,0xff05
    5790:	36527d44 	ori	s2,s2,0x7d44
    5794:	00000000 	nop
    5798:	3c142e48 	lui	s4,0x2e48
    579c:	3694d4b0 	ori	s4,s4,0xd4b0
    57a0:	161412dc 	bne	s0,s4,a314 <inst_error>
    57a4:	00000000 	nop
    57a8:	00000000 	nop
    57ac:	3c15ff05 	lui	s5,0xff05
    57b0:	36b57d44 	ori	s5,s5,0x7d44
    57b4:	165512d7 	bne	s2,s5,a314 <inst_error>
    57b8:	00000000 	nop
    57bc:	00000000 	nop
    57c0:	3c0c87d7 	lui	t4,0x87d7
    57c4:	358c95c0 	ori	t4,t4,0x95c0
    57c8:	3c0d5b18 	lui	t5,0x5b18
    57cc:	35adb8f6 	ori	t5,t5,0xb8f6
    57d0:	24100000 	li	s0,0
    57d4:	10000016 	b	5830 <n32_bgtz_test+0x5830>
    57d8:	24120000 	li	s2,0
    57dc:	00000000 	nop
    57e0:	3c1087d7 	lui	s0,0x87d7
    57e4:	1d00001e 	bgtz	t0,5860 <n32_bgtz_test+0x5860>
    57e8:	361095c0 	ori	s0,s0,0x95c0
    57ec:	1000001e 	b	5868 <n32_bgtz_test+0x5868>
    57f0:	00000000 	nop
    57f4:	00000000 	nop
    57f8:	00000021 	move	zero,zero
    57fc:	00000021 	move	zero,zero
    5800:	00000021 	move	zero,zero
    5804:	00000021 	move	zero,zero
    5808:	00000021 	move	zero,zero
    580c:	00000021 	move	zero,zero
    5810:	00000021 	move	zero,zero
    5814:	00000021 	move	zero,zero
    5818:	00000021 	move	zero,zero
    581c:	00000021 	move	zero,zero
    5820:	00000021 	move	zero,zero
    5824:	00000021 	move	zero,zero
    5828:	00000021 	move	zero,zero
    582c:	00000021 	move	zero,zero
    5830:	3c08914a 	lui	t0,0x914a
    5834:	3508b9d4 	ori	t0,t0,0xb9d4
    5838:	1d00ffe9 	bgtz	t0,57e0 <n32_bgtz_test+0x57e0>
    583c:	00000000 	nop
    5840:	10000009 	b	5868 <n32_bgtz_test+0x5868>
    5844:	00000000 	nop
    5848:	00000000 	nop
    584c:	00000021 	move	zero,zero
    5850:	00000021 	move	zero,zero
    5854:	00000021 	move	zero,zero
    5858:	00000021 	move	zero,zero
    585c:	00000021 	move	zero,zero
    5860:	3c125b18 	lui	s2,0x5b18
    5864:	3652b8f6 	ori	s2,s2,0xb8f6
    5868:	00000000 	nop
    586c:	24140000 	li	s4,0
    5870:	161412a8 	bne	s0,s4,a314 <inst_error>
    5874:	00000000 	nop
    5878:	00000000 	nop
    587c:	24150000 	li	s5,0
    5880:	165512a4 	bne	s2,s5,a314 <inst_error>
    5884:	00000000 	nop
    5888:	00000000 	nop
    588c:	3c0c71ba 	lui	t4,0x71ba
    5890:	358c03fc 	ori	t4,t4,0x3fc
    5894:	3c0d7869 	lui	t5,0x7869
    5898:	35ad9699 	ori	t5,t5,0x9699
    589c:	24100000 	li	s0,0
    58a0:	10000016 	b	58fc <n32_bgtz_test+0x58fc>
    58a4:	24120000 	li	s2,0
    58a8:	00000000 	nop
    58ac:	3c1071ba 	lui	s0,0x71ba
    58b0:	1d00001e 	bgtz	t0,592c <n32_bgtz_test+0x592c>
    58b4:	361003fc 	ori	s0,s0,0x3fc
    58b8:	1000001e 	b	5934 <n32_bgtz_test+0x5934>
    58bc:	00000000 	nop
    58c0:	00000000 	nop
    58c4:	00000021 	move	zero,zero
    58c8:	00000021 	move	zero,zero
    58cc:	00000021 	move	zero,zero
    58d0:	00000021 	move	zero,zero
    58d4:	00000021 	move	zero,zero
    58d8:	00000021 	move	zero,zero
    58dc:	00000021 	move	zero,zero
    58e0:	00000021 	move	zero,zero
    58e4:	00000021 	move	zero,zero
    58e8:	00000021 	move	zero,zero
    58ec:	00000021 	move	zero,zero
    58f0:	00000021 	move	zero,zero
    58f4:	00000021 	move	zero,zero
    58f8:	00000021 	move	zero,zero
    58fc:	3c085654 	lui	t0,0x5654
    5900:	3508cff2 	ori	t0,t0,0xcff2
    5904:	1d00ffe9 	bgtz	t0,58ac <n32_bgtz_test+0x58ac>
    5908:	00000000 	nop
    590c:	10000009 	b	5934 <n32_bgtz_test+0x5934>
    5910:	00000000 	nop
    5914:	00000000 	nop
    5918:	00000021 	move	zero,zero
    591c:	00000021 	move	zero,zero
    5920:	00000021 	move	zero,zero
    5924:	00000021 	move	zero,zero
    5928:	00000021 	move	zero,zero
    592c:	3c127869 	lui	s2,0x7869
    5930:	36529699 	ori	s2,s2,0x9699
    5934:	00000000 	nop
    5938:	3c1471ba 	lui	s4,0x71ba
    593c:	369403fc 	ori	s4,s4,0x3fc
    5940:	16141274 	bne	s0,s4,a314 <inst_error>
    5944:	00000000 	nop
    5948:	00000000 	nop
    594c:	3c157869 	lui	s5,0x7869
    5950:	36b59699 	ori	s5,s5,0x9699
    5954:	1655126f 	bne	s2,s5,a314 <inst_error>
    5958:	00000000 	nop
    595c:	00000000 	nop
    5960:	3c0cdcd9 	lui	t4,0xdcd9
    5964:	358c1100 	ori	t4,t4,0x1100
    5968:	3c0d5181 	lui	t5,0x5181
    596c:	35ad6f11 	ori	t5,t5,0x6f11
    5970:	24100000 	li	s0,0
    5974:	10000016 	b	59d0 <n32_bgtz_test+0x59d0>
    5978:	24120000 	li	s2,0
    597c:	00000000 	nop
    5980:	3c10dcd9 	lui	s0,0xdcd9
    5984:	1d00001e 	bgtz	t0,5a00 <n32_bgtz_test+0x5a00>
    5988:	36101100 	ori	s0,s0,0x1100
    598c:	1000001e 	b	5a08 <n32_bgtz_test+0x5a08>
    5990:	00000000 	nop
    5994:	00000000 	nop
    5998:	00000021 	move	zero,zero
    599c:	00000021 	move	zero,zero
    59a0:	00000021 	move	zero,zero
    59a4:	00000021 	move	zero,zero
    59a8:	00000021 	move	zero,zero
    59ac:	00000021 	move	zero,zero
    59b0:	00000021 	move	zero,zero
    59b4:	00000021 	move	zero,zero
    59b8:	00000021 	move	zero,zero
    59bc:	00000021 	move	zero,zero
    59c0:	00000021 	move	zero,zero
    59c4:	00000021 	move	zero,zero
    59c8:	00000021 	move	zero,zero
    59cc:	00000021 	move	zero,zero
    59d0:	3c0884b4 	lui	t0,0x84b4
    59d4:	35081c9c 	ori	t0,t0,0x1c9c
    59d8:	1d00ffe9 	bgtz	t0,5980 <n32_bgtz_test+0x5980>
    59dc:	00000000 	nop
    59e0:	10000009 	b	5a08 <n32_bgtz_test+0x5a08>
    59e4:	00000000 	nop
    59e8:	00000000 	nop
    59ec:	00000021 	move	zero,zero
    59f0:	00000021 	move	zero,zero
    59f4:	00000021 	move	zero,zero
    59f8:	00000021 	move	zero,zero
    59fc:	00000021 	move	zero,zero
    5a00:	3c125181 	lui	s2,0x5181
    5a04:	36526f11 	ori	s2,s2,0x6f11
    5a08:	00000000 	nop
    5a0c:	24140000 	li	s4,0
    5a10:	16141240 	bne	s0,s4,a314 <inst_error>
    5a14:	00000000 	nop
    5a18:	00000000 	nop
    5a1c:	24150000 	li	s5,0
    5a20:	1655123c 	bne	s2,s5,a314 <inst_error>
    5a24:	00000000 	nop
    5a28:	00000000 	nop
    5a2c:	3c0c7cb0 	lui	t4,0x7cb0
    5a30:	358c4970 	ori	t4,t4,0x4970
    5a34:	3c0d3af3 	lui	t5,0x3af3
    5a38:	35add86c 	ori	t5,t5,0xd86c
    5a3c:	24100000 	li	s0,0
    5a40:	10000016 	b	5a9c <n32_bgtz_test+0x5a9c>
    5a44:	24120000 	li	s2,0
    5a48:	00000000 	nop
    5a4c:	3c107cb0 	lui	s0,0x7cb0
    5a50:	1d00001e 	bgtz	t0,5acc <n32_bgtz_test+0x5acc>
    5a54:	36104970 	ori	s0,s0,0x4970
    5a58:	1000001e 	b	5ad4 <n32_bgtz_test+0x5ad4>
    5a5c:	00000000 	nop
    5a60:	00000000 	nop
    5a64:	00000021 	move	zero,zero
    5a68:	00000021 	move	zero,zero
    5a6c:	00000021 	move	zero,zero
    5a70:	00000021 	move	zero,zero
    5a74:	00000021 	move	zero,zero
    5a78:	00000021 	move	zero,zero
    5a7c:	00000021 	move	zero,zero
    5a80:	00000021 	move	zero,zero
    5a84:	00000021 	move	zero,zero
    5a88:	00000021 	move	zero,zero
    5a8c:	00000021 	move	zero,zero
    5a90:	00000021 	move	zero,zero
    5a94:	00000021 	move	zero,zero
    5a98:	00000021 	move	zero,zero
    5a9c:	3c08d231 	lui	t0,0xd231
    5aa0:	3508ae34 	ori	t0,t0,0xae34
    5aa4:	1d00ffe9 	bgtz	t0,5a4c <n32_bgtz_test+0x5a4c>
    5aa8:	00000000 	nop
    5aac:	10000009 	b	5ad4 <n32_bgtz_test+0x5ad4>
    5ab0:	00000000 	nop
    5ab4:	00000000 	nop
    5ab8:	00000021 	move	zero,zero
    5abc:	00000021 	move	zero,zero
    5ac0:	00000021 	move	zero,zero
    5ac4:	00000021 	move	zero,zero
    5ac8:	00000021 	move	zero,zero
    5acc:	3c123af3 	lui	s2,0x3af3
    5ad0:	3652d86c 	ori	s2,s2,0xd86c
    5ad4:	00000000 	nop
    5ad8:	24140000 	li	s4,0
    5adc:	1614120d 	bne	s0,s4,a314 <inst_error>
    5ae0:	00000000 	nop
    5ae4:	00000000 	nop
    5ae8:	24150000 	li	s5,0
    5aec:	16551209 	bne	s2,s5,a314 <inst_error>
    5af0:	00000000 	nop
    5af4:	00000000 	nop
    5af8:	3c0c1d09 	lui	t4,0x1d09
    5afc:	358c2948 	ori	t4,t4,0x2948
    5b00:	3c0da21d 	lui	t5,0xa21d
    5b04:	35adb6b2 	ori	t5,t5,0xb6b2
    5b08:	24100000 	li	s0,0
    5b0c:	10000016 	b	5b68 <n32_bgtz_test+0x5b68>
    5b10:	24120000 	li	s2,0
    5b14:	00000000 	nop
    5b18:	3c101d09 	lui	s0,0x1d09
    5b1c:	1d00001e 	bgtz	t0,5b98 <n32_bgtz_test+0x5b98>
    5b20:	36102948 	ori	s0,s0,0x2948
    5b24:	1000001e 	b	5ba0 <n32_bgtz_test+0x5ba0>
    5b28:	00000000 	nop
    5b2c:	00000000 	nop
    5b30:	00000021 	move	zero,zero
    5b34:	00000021 	move	zero,zero
    5b38:	00000021 	move	zero,zero
    5b3c:	00000021 	move	zero,zero
    5b40:	00000021 	move	zero,zero
    5b44:	00000021 	move	zero,zero
    5b48:	00000021 	move	zero,zero
    5b4c:	00000021 	move	zero,zero
    5b50:	00000021 	move	zero,zero
    5b54:	00000021 	move	zero,zero
    5b58:	00000021 	move	zero,zero
    5b5c:	00000021 	move	zero,zero
    5b60:	00000021 	move	zero,zero
    5b64:	00000021 	move	zero,zero
    5b68:	3c085a83 	lui	t0,0x5a83
    5b6c:	3508f8e0 	ori	t0,t0,0xf8e0
    5b70:	1d00ffe9 	bgtz	t0,5b18 <n32_bgtz_test+0x5b18>
    5b74:	00000000 	nop
    5b78:	10000009 	b	5ba0 <n32_bgtz_test+0x5ba0>
    5b7c:	00000000 	nop
    5b80:	00000000 	nop
    5b84:	00000021 	move	zero,zero
    5b88:	00000021 	move	zero,zero
    5b8c:	00000021 	move	zero,zero
    5b90:	00000021 	move	zero,zero
    5b94:	00000021 	move	zero,zero
    5b98:	3c12a21d 	lui	s2,0xa21d
    5b9c:	3652b6b2 	ori	s2,s2,0xb6b2
    5ba0:	00000000 	nop
    5ba4:	3c141d09 	lui	s4,0x1d09
    5ba8:	36942948 	ori	s4,s4,0x2948
    5bac:	161411d9 	bne	s0,s4,a314 <inst_error>
    5bb0:	00000000 	nop
    5bb4:	00000000 	nop
    5bb8:	3c15a21d 	lui	s5,0xa21d
    5bbc:	36b5b6b2 	ori	s5,s5,0xb6b2
    5bc0:	165511d4 	bne	s2,s5,a314 <inst_error>
    5bc4:	00000000 	nop
    5bc8:	00000000 	nop
    5bcc:	3c0ce041 	lui	t4,0xe041
    5bd0:	358c47a0 	ori	t4,t4,0x47a0
    5bd4:	3c0d20dd 	lui	t5,0x20dd
    5bd8:	35addda4 	ori	t5,t5,0xdda4
    5bdc:	24100000 	li	s0,0
    5be0:	10000016 	b	5c3c <n32_bgtz_test+0x5c3c>
    5be4:	24120000 	li	s2,0
    5be8:	00000000 	nop
    5bec:	3c10e041 	lui	s0,0xe041
    5bf0:	1d00001e 	bgtz	t0,5c6c <n32_bgtz_test+0x5c6c>
    5bf4:	361047a0 	ori	s0,s0,0x47a0
    5bf8:	1000001e 	b	5c74 <n32_bgtz_test+0x5c74>
    5bfc:	00000000 	nop
    5c00:	00000000 	nop
    5c04:	00000021 	move	zero,zero
    5c08:	00000021 	move	zero,zero
    5c0c:	00000021 	move	zero,zero
    5c10:	00000021 	move	zero,zero
    5c14:	00000021 	move	zero,zero
    5c18:	00000021 	move	zero,zero
    5c1c:	00000021 	move	zero,zero
    5c20:	00000021 	move	zero,zero
    5c24:	00000021 	move	zero,zero
    5c28:	00000021 	move	zero,zero
    5c2c:	00000021 	move	zero,zero
    5c30:	00000021 	move	zero,zero
    5c34:	00000021 	move	zero,zero
    5c38:	00000021 	move	zero,zero
    5c3c:	3c08054c 	lui	t0,0x54c
    5c40:	3508f3a8 	ori	t0,t0,0xf3a8
    5c44:	1d00ffe9 	bgtz	t0,5bec <n32_bgtz_test+0x5bec>
    5c48:	00000000 	nop
    5c4c:	10000009 	b	5c74 <n32_bgtz_test+0x5c74>
    5c50:	00000000 	nop
    5c54:	00000000 	nop
    5c58:	00000021 	move	zero,zero
    5c5c:	00000021 	move	zero,zero
    5c60:	00000021 	move	zero,zero
    5c64:	00000021 	move	zero,zero
    5c68:	00000021 	move	zero,zero
    5c6c:	3c1220dd 	lui	s2,0x20dd
    5c70:	3652dda4 	ori	s2,s2,0xdda4
    5c74:	00000000 	nop
    5c78:	3c14e041 	lui	s4,0xe041
    5c7c:	369447a0 	ori	s4,s4,0x47a0
    5c80:	161411a4 	bne	s0,s4,a314 <inst_error>
    5c84:	00000000 	nop
    5c88:	00000000 	nop
    5c8c:	3c1520dd 	lui	s5,0x20dd
    5c90:	36b5dda4 	ori	s5,s5,0xdda4
    5c94:	1655119f 	bne	s2,s5,a314 <inst_error>
    5c98:	00000000 	nop
    5c9c:	00000000 	nop
    5ca0:	3c0cacc0 	lui	t4,0xacc0
    5ca4:	358cb5c0 	ori	t4,t4,0xb5c0
    5ca8:	3c0d3b68 	lui	t5,0x3b68
    5cac:	35ad4b32 	ori	t5,t5,0x4b32
    5cb0:	24100000 	li	s0,0
    5cb4:	10000016 	b	5d10 <n32_bgtz_test+0x5d10>
    5cb8:	24120000 	li	s2,0
    5cbc:	00000000 	nop
    5cc0:	3c10acc0 	lui	s0,0xacc0
    5cc4:	1d00001e 	bgtz	t0,5d40 <n32_bgtz_test+0x5d40>
    5cc8:	3610b5c0 	ori	s0,s0,0xb5c0
    5ccc:	1000001e 	b	5d48 <n32_bgtz_test+0x5d48>
    5cd0:	00000000 	nop
    5cd4:	00000000 	nop
    5cd8:	00000021 	move	zero,zero
    5cdc:	00000021 	move	zero,zero
    5ce0:	00000021 	move	zero,zero
    5ce4:	00000021 	move	zero,zero
    5ce8:	00000021 	move	zero,zero
    5cec:	00000021 	move	zero,zero
    5cf0:	00000021 	move	zero,zero
    5cf4:	00000021 	move	zero,zero
    5cf8:	00000021 	move	zero,zero
    5cfc:	00000021 	move	zero,zero
    5d00:	00000021 	move	zero,zero
    5d04:	00000021 	move	zero,zero
    5d08:	00000021 	move	zero,zero
    5d0c:	00000021 	move	zero,zero
    5d10:	3c08041f 	lui	t0,0x41f
    5d14:	35083e20 	ori	t0,t0,0x3e20
    5d18:	1d00ffe9 	bgtz	t0,5cc0 <n32_bgtz_test+0x5cc0>
    5d1c:	00000000 	nop
    5d20:	10000009 	b	5d48 <n32_bgtz_test+0x5d48>
    5d24:	00000000 	nop
    5d28:	00000000 	nop
    5d2c:	00000021 	move	zero,zero
    5d30:	00000021 	move	zero,zero
    5d34:	00000021 	move	zero,zero
    5d38:	00000021 	move	zero,zero
    5d3c:	00000021 	move	zero,zero
    5d40:	3c123b68 	lui	s2,0x3b68
    5d44:	36524b32 	ori	s2,s2,0x4b32
    5d48:	00000000 	nop
    5d4c:	3c14acc0 	lui	s4,0xacc0
    5d50:	3694b5c0 	ori	s4,s4,0xb5c0
    5d54:	1614116f 	bne	s0,s4,a314 <inst_error>
    5d58:	00000000 	nop
    5d5c:	00000000 	nop
    5d60:	3c153b68 	lui	s5,0x3b68
    5d64:	36b54b32 	ori	s5,s5,0x4b32
    5d68:	1655116a 	bne	s2,s5,a314 <inst_error>
    5d6c:	00000000 	nop
    5d70:	00000000 	nop
    5d74:	3c0c989b 	lui	t4,0x989b
    5d78:	358c5a0e 	ori	t4,t4,0x5a0e
    5d7c:	3c0df5c4 	lui	t5,0xf5c4
    5d80:	35ad67c0 	ori	t5,t5,0x67c0
    5d84:	24100000 	li	s0,0
    5d88:	10000016 	b	5de4 <n32_bgtz_test+0x5de4>
    5d8c:	24120000 	li	s2,0
    5d90:	00000000 	nop
    5d94:	3c10989b 	lui	s0,0x989b
    5d98:	1d00001e 	bgtz	t0,5e14 <n32_bgtz_test+0x5e14>
    5d9c:	36105a0e 	ori	s0,s0,0x5a0e
    5da0:	1000001e 	b	5e1c <n32_bgtz_test+0x5e1c>
    5da4:	00000000 	nop
    5da8:	00000000 	nop
    5dac:	00000021 	move	zero,zero
    5db0:	00000021 	move	zero,zero
    5db4:	00000021 	move	zero,zero
    5db8:	00000021 	move	zero,zero
    5dbc:	00000021 	move	zero,zero
    5dc0:	00000021 	move	zero,zero
    5dc4:	00000021 	move	zero,zero
    5dc8:	00000021 	move	zero,zero
    5dcc:	00000021 	move	zero,zero
    5dd0:	00000021 	move	zero,zero
    5dd4:	00000021 	move	zero,zero
    5dd8:	00000021 	move	zero,zero
    5ddc:	00000021 	move	zero,zero
    5de0:	00000021 	move	zero,zero
    5de4:	3c08fea3 	lui	t0,0xfea3
    5de8:	35087fac 	ori	t0,t0,0x7fac
    5dec:	1d00ffe9 	bgtz	t0,5d94 <n32_bgtz_test+0x5d94>
    5df0:	00000000 	nop
    5df4:	10000009 	b	5e1c <n32_bgtz_test+0x5e1c>
    5df8:	00000000 	nop
    5dfc:	00000000 	nop
    5e00:	00000021 	move	zero,zero
    5e04:	00000021 	move	zero,zero
    5e08:	00000021 	move	zero,zero
    5e0c:	00000021 	move	zero,zero
    5e10:	00000021 	move	zero,zero
    5e14:	3c12f5c4 	lui	s2,0xf5c4
    5e18:	365267c0 	ori	s2,s2,0x67c0
    5e1c:	00000000 	nop
    5e20:	24140000 	li	s4,0
    5e24:	1614113b 	bne	s0,s4,a314 <inst_error>
    5e28:	00000000 	nop
    5e2c:	00000000 	nop
    5e30:	24150000 	li	s5,0
    5e34:	16551137 	bne	s2,s5,a314 <inst_error>
    5e38:	00000000 	nop
    5e3c:	00000000 	nop
    5e40:	3c0c4a1e 	lui	t4,0x4a1e
    5e44:	358c90dd 	ori	t4,t4,0x90dd
    5e48:	3c0df74c 	lui	t5,0xf74c
    5e4c:	35ad5221 	ori	t5,t5,0x5221
    5e50:	24100000 	li	s0,0
    5e54:	10000016 	b	5eb0 <n32_bgtz_test+0x5eb0>
    5e58:	24120000 	li	s2,0
    5e5c:	00000000 	nop
    5e60:	3c104a1e 	lui	s0,0x4a1e
    5e64:	1d00001e 	bgtz	t0,5ee0 <n32_bgtz_test+0x5ee0>
    5e68:	361090dd 	ori	s0,s0,0x90dd
    5e6c:	1000001e 	b	5ee8 <n32_bgtz_test+0x5ee8>
    5e70:	00000000 	nop
    5e74:	00000000 	nop
    5e78:	00000021 	move	zero,zero
    5e7c:	00000021 	move	zero,zero
    5e80:	00000021 	move	zero,zero
    5e84:	00000021 	move	zero,zero
    5e88:	00000021 	move	zero,zero
    5e8c:	00000021 	move	zero,zero
    5e90:	00000021 	move	zero,zero
    5e94:	00000021 	move	zero,zero
    5e98:	00000021 	move	zero,zero
    5e9c:	00000021 	move	zero,zero
    5ea0:	00000021 	move	zero,zero
    5ea4:	00000021 	move	zero,zero
    5ea8:	00000021 	move	zero,zero
    5eac:	00000021 	move	zero,zero
    5eb0:	3c08f925 	lui	t0,0xf925
    5eb4:	3508c490 	ori	t0,t0,0xc490
    5eb8:	1d00ffe9 	bgtz	t0,5e60 <n32_bgtz_test+0x5e60>
    5ebc:	00000000 	nop
    5ec0:	10000009 	b	5ee8 <n32_bgtz_test+0x5ee8>
    5ec4:	00000000 	nop
    5ec8:	00000000 	nop
    5ecc:	00000021 	move	zero,zero
    5ed0:	00000021 	move	zero,zero
    5ed4:	00000021 	move	zero,zero
    5ed8:	00000021 	move	zero,zero
    5edc:	00000021 	move	zero,zero
    5ee0:	3c12f74c 	lui	s2,0xf74c
    5ee4:	36525221 	ori	s2,s2,0x5221
    5ee8:	00000000 	nop
    5eec:	24140000 	li	s4,0
    5ef0:	16141108 	bne	s0,s4,a314 <inst_error>
    5ef4:	00000000 	nop
    5ef8:	00000000 	nop
    5efc:	24150000 	li	s5,0
    5f00:	16551104 	bne	s2,s5,a314 <inst_error>
    5f04:	00000000 	nop
    5f08:	00000000 	nop
    5f0c:	3c0c0dcb 	lui	t4,0xdcb
    5f10:	358cf674 	ori	t4,t4,0xf674
    5f14:	3c0dd081 	lui	t5,0xd081
    5f18:	35ad5e7c 	ori	t5,t5,0x5e7c
    5f1c:	24100000 	li	s0,0
    5f20:	10000016 	b	5f7c <n32_bgtz_test+0x5f7c>
    5f24:	24120000 	li	s2,0
    5f28:	00000000 	nop
    5f2c:	3c100dcb 	lui	s0,0xdcb
    5f30:	1d00001e 	bgtz	t0,5fac <n32_bgtz_test+0x5fac>
    5f34:	3610f674 	ori	s0,s0,0xf674
    5f38:	1000001e 	b	5fb4 <n32_bgtz_test+0x5fb4>
    5f3c:	00000000 	nop
    5f40:	00000000 	nop
    5f44:	00000021 	move	zero,zero
    5f48:	00000021 	move	zero,zero
    5f4c:	00000021 	move	zero,zero
    5f50:	00000021 	move	zero,zero
    5f54:	00000021 	move	zero,zero
    5f58:	00000021 	move	zero,zero
    5f5c:	00000021 	move	zero,zero
    5f60:	00000021 	move	zero,zero
    5f64:	00000021 	move	zero,zero
    5f68:	00000021 	move	zero,zero
    5f6c:	00000021 	move	zero,zero
    5f70:	00000021 	move	zero,zero
    5f74:	00000021 	move	zero,zero
    5f78:	00000021 	move	zero,zero
    5f7c:	3c08c9bb 	lui	t0,0xc9bb
    5f80:	35084e70 	ori	t0,t0,0x4e70
    5f84:	1d00ffe9 	bgtz	t0,5f2c <n32_bgtz_test+0x5f2c>
    5f88:	00000000 	nop
    5f8c:	10000009 	b	5fb4 <n32_bgtz_test+0x5fb4>
    5f90:	00000000 	nop
    5f94:	00000000 	nop
    5f98:	00000021 	move	zero,zero
    5f9c:	00000021 	move	zero,zero
    5fa0:	00000021 	move	zero,zero
    5fa4:	00000021 	move	zero,zero
    5fa8:	00000021 	move	zero,zero
    5fac:	3c12d081 	lui	s2,0xd081
    5fb0:	36525e7c 	ori	s2,s2,0x5e7c
    5fb4:	00000000 	nop
    5fb8:	24140000 	li	s4,0
    5fbc:	161410d5 	bne	s0,s4,a314 <inst_error>
    5fc0:	00000000 	nop
    5fc4:	00000000 	nop
    5fc8:	24150000 	li	s5,0
    5fcc:	165510d1 	bne	s2,s5,a314 <inst_error>
    5fd0:	00000000 	nop
    5fd4:	00000000 	nop
    5fd8:	3c0c370a 	lui	t4,0x370a
    5fdc:	358c1bc8 	ori	t4,t4,0x1bc8
    5fe0:	3c0db7ba 	lui	t5,0xb7ba
    5fe4:	35ad75b6 	ori	t5,t5,0x75b6
    5fe8:	24100000 	li	s0,0
    5fec:	10000016 	b	6048 <n32_bgtz_test+0x6048>
    5ff0:	24120000 	li	s2,0
    5ff4:	00000000 	nop
    5ff8:	3c10370a 	lui	s0,0x370a
    5ffc:	1d00001e 	bgtz	t0,6078 <n32_bgtz_test+0x6078>
    6000:	36101bc8 	ori	s0,s0,0x1bc8
    6004:	1000001e 	b	6080 <n32_bgtz_test+0x6080>
    6008:	00000000 	nop
    600c:	00000000 	nop
    6010:	00000021 	move	zero,zero
    6014:	00000021 	move	zero,zero
    6018:	00000021 	move	zero,zero
    601c:	00000021 	move	zero,zero
    6020:	00000021 	move	zero,zero
    6024:	00000021 	move	zero,zero
    6028:	00000021 	move	zero,zero
    602c:	00000021 	move	zero,zero
    6030:	00000021 	move	zero,zero
    6034:	00000021 	move	zero,zero
    6038:	00000021 	move	zero,zero
    603c:	00000021 	move	zero,zero
    6040:	00000021 	move	zero,zero
    6044:	00000021 	move	zero,zero
    6048:	3c08dfbe 	lui	t0,0xdfbe
    604c:	3508eef0 	ori	t0,t0,0xeef0
    6050:	1d00ffe9 	bgtz	t0,5ff8 <n32_bgtz_test+0x5ff8>
    6054:	00000000 	nop
    6058:	10000009 	b	6080 <n32_bgtz_test+0x6080>
    605c:	00000000 	nop
    6060:	00000000 	nop
    6064:	00000021 	move	zero,zero
    6068:	00000021 	move	zero,zero
    606c:	00000021 	move	zero,zero
    6070:	00000021 	move	zero,zero
    6074:	00000021 	move	zero,zero
    6078:	3c12b7ba 	lui	s2,0xb7ba
    607c:	365275b6 	ori	s2,s2,0x75b6
    6080:	00000000 	nop
    6084:	24140000 	li	s4,0
    6088:	161410a2 	bne	s0,s4,a314 <inst_error>
    608c:	00000000 	nop
    6090:	00000000 	nop
    6094:	24150000 	li	s5,0
    6098:	1655109e 	bne	s2,s5,a314 <inst_error>
    609c:	00000000 	nop
    60a0:	00000000 	nop
    60a4:	3c0c3a9d 	lui	t4,0x3a9d
    60a8:	358c7a3e 	ori	t4,t4,0x7a3e
    60ac:	3c0d38eb 	lui	t5,0x38eb
    60b0:	35adcae0 	ori	t5,t5,0xcae0
    60b4:	24100000 	li	s0,0
    60b8:	10000016 	b	6114 <n32_bgtz_test+0x6114>
    60bc:	24120000 	li	s2,0
    60c0:	00000000 	nop
    60c4:	3c103a9d 	lui	s0,0x3a9d
    60c8:	1d00001e 	bgtz	t0,6144 <n32_bgtz_test+0x6144>
    60cc:	36107a3e 	ori	s0,s0,0x7a3e
    60d0:	1000001e 	b	614c <n32_bgtz_test+0x614c>
    60d4:	00000000 	nop
    60d8:	00000000 	nop
    60dc:	00000021 	move	zero,zero
    60e0:	00000021 	move	zero,zero
    60e4:	00000021 	move	zero,zero
    60e8:	00000021 	move	zero,zero
    60ec:	00000021 	move	zero,zero
    60f0:	00000021 	move	zero,zero
    60f4:	00000021 	move	zero,zero
    60f8:	00000021 	move	zero,zero
    60fc:	00000021 	move	zero,zero
    6100:	00000021 	move	zero,zero
    6104:	00000021 	move	zero,zero
    6108:	00000021 	move	zero,zero
    610c:	00000021 	move	zero,zero
    6110:	00000021 	move	zero,zero
    6114:	3c08425d 	lui	t0,0x425d
    6118:	3508f030 	ori	t0,t0,0xf030
    611c:	1d00ffe9 	bgtz	t0,60c4 <n32_bgtz_test+0x60c4>
    6120:	00000000 	nop
    6124:	10000009 	b	614c <n32_bgtz_test+0x614c>
    6128:	00000000 	nop
    612c:	00000000 	nop
    6130:	00000021 	move	zero,zero
    6134:	00000021 	move	zero,zero
    6138:	00000021 	move	zero,zero
    613c:	00000021 	move	zero,zero
    6140:	00000021 	move	zero,zero
    6144:	3c1238eb 	lui	s2,0x38eb
    6148:	3652cae0 	ori	s2,s2,0xcae0
    614c:	00000000 	nop
    6150:	3c143a9d 	lui	s4,0x3a9d
    6154:	36947a3e 	ori	s4,s4,0x7a3e
    6158:	1614106e 	bne	s0,s4,a314 <inst_error>
    615c:	00000000 	nop
    6160:	00000000 	nop
    6164:	3c1538eb 	lui	s5,0x38eb
    6168:	36b5cae0 	ori	s5,s5,0xcae0
    616c:	16551069 	bne	s2,s5,a314 <inst_error>
    6170:	00000000 	nop
    6174:	00000000 	nop
    6178:	3c0c25bf 	lui	t4,0x25bf
    617c:	358c5494 	ori	t4,t4,0x5494
    6180:	3c0d7a65 	lui	t5,0x7a65
    6184:	35ad07a4 	ori	t5,t5,0x7a4
    6188:	24100000 	li	s0,0
    618c:	10000016 	b	61e8 <n32_bgtz_test+0x61e8>
    6190:	24120000 	li	s2,0
    6194:	00000000 	nop
    6198:	3c1025bf 	lui	s0,0x25bf
    619c:	1d00001e 	bgtz	t0,6218 <n32_bgtz_test+0x6218>
    61a0:	36105494 	ori	s0,s0,0x5494
    61a4:	1000001e 	b	6220 <n32_bgtz_test+0x6220>
    61a8:	00000000 	nop
    61ac:	00000000 	nop
    61b0:	00000021 	move	zero,zero
    61b4:	00000021 	move	zero,zero
    61b8:	00000021 	move	zero,zero
    61bc:	00000021 	move	zero,zero
    61c0:	00000021 	move	zero,zero
    61c4:	00000021 	move	zero,zero
    61c8:	00000021 	move	zero,zero
    61cc:	00000021 	move	zero,zero
    61d0:	00000021 	move	zero,zero
    61d4:	00000021 	move	zero,zero
    61d8:	00000021 	move	zero,zero
    61dc:	00000021 	move	zero,zero
    61e0:	00000021 	move	zero,zero
    61e4:	00000021 	move	zero,zero
    61e8:	3c08c10f 	lui	t0,0xc10f
    61ec:	35085858 	ori	t0,t0,0x5858
    61f0:	1d00ffe9 	bgtz	t0,6198 <n32_bgtz_test+0x6198>
    61f4:	00000000 	nop
    61f8:	10000009 	b	6220 <n32_bgtz_test+0x6220>
    61fc:	00000000 	nop
    6200:	00000000 	nop
    6204:	00000021 	move	zero,zero
    6208:	00000021 	move	zero,zero
    620c:	00000021 	move	zero,zero
    6210:	00000021 	move	zero,zero
    6214:	00000021 	move	zero,zero
    6218:	3c127a65 	lui	s2,0x7a65
    621c:	365207a4 	ori	s2,s2,0x7a4
    6220:	00000000 	nop
    6224:	24140000 	li	s4,0
    6228:	1614103a 	bne	s0,s4,a314 <inst_error>
    622c:	00000000 	nop
    6230:	00000000 	nop
    6234:	24150000 	li	s5,0
    6238:	16551036 	bne	s2,s5,a314 <inst_error>
    623c:	00000000 	nop
    6240:	00000000 	nop
    6244:	3c0cb1d2 	lui	t4,0xb1d2
    6248:	358cc299 	ori	t4,t4,0xc299
    624c:	3c0db42f 	lui	t5,0xb42f
    6250:	35ad8e16 	ori	t5,t5,0x8e16
    6254:	24100000 	li	s0,0
    6258:	10000016 	b	62b4 <n32_bgtz_test+0x62b4>
    625c:	24120000 	li	s2,0
    6260:	00000000 	nop
    6264:	3c10b1d2 	lui	s0,0xb1d2
    6268:	1d00001e 	bgtz	t0,62e4 <n32_bgtz_test+0x62e4>
    626c:	3610c299 	ori	s0,s0,0xc299
    6270:	1000001e 	b	62ec <n32_bgtz_test+0x62ec>
    6274:	00000000 	nop
    6278:	00000000 	nop
    627c:	00000021 	move	zero,zero
    6280:	00000021 	move	zero,zero
    6284:	00000021 	move	zero,zero
    6288:	00000021 	move	zero,zero
    628c:	00000021 	move	zero,zero
    6290:	00000021 	move	zero,zero
    6294:	00000021 	move	zero,zero
    6298:	00000021 	move	zero,zero
    629c:	00000021 	move	zero,zero
    62a0:	00000021 	move	zero,zero
    62a4:	00000021 	move	zero,zero
    62a8:	00000021 	move	zero,zero
    62ac:	00000021 	move	zero,zero
    62b0:	00000021 	move	zero,zero
    62b4:	3c087029 	lui	t0,0x7029
    62b8:	35082a83 	ori	t0,t0,0x2a83
    62bc:	1d00ffe9 	bgtz	t0,6264 <n32_bgtz_test+0x6264>
    62c0:	00000000 	nop
    62c4:	10000009 	b	62ec <n32_bgtz_test+0x62ec>
    62c8:	00000000 	nop
    62cc:	00000000 	nop
    62d0:	00000021 	move	zero,zero
    62d4:	00000021 	move	zero,zero
    62d8:	00000021 	move	zero,zero
    62dc:	00000021 	move	zero,zero
    62e0:	00000021 	move	zero,zero
    62e4:	3c12b42f 	lui	s2,0xb42f
    62e8:	36528e16 	ori	s2,s2,0x8e16
    62ec:	00000000 	nop
    62f0:	3c14b1d2 	lui	s4,0xb1d2
    62f4:	3694c299 	ori	s4,s4,0xc299
    62f8:	16141006 	bne	s0,s4,a314 <inst_error>
    62fc:	00000000 	nop
    6300:	00000000 	nop
    6304:	3c15b42f 	lui	s5,0xb42f
    6308:	36b58e16 	ori	s5,s5,0x8e16
    630c:	16551001 	bne	s2,s5,a314 <inst_error>
    6310:	00000000 	nop
    6314:	00000000 	nop
    6318:	3c0cb433 	lui	t4,0xb433
    631c:	358ce137 	ori	t4,t4,0xe137
    6320:	3c0dced0 	lui	t5,0xced0
    6324:	35ad0be0 	ori	t5,t5,0xbe0
    6328:	24100000 	li	s0,0
    632c:	10000016 	b	6388 <n32_bgtz_test+0x6388>
    6330:	24120000 	li	s2,0
    6334:	00000000 	nop
    6338:	3c10b433 	lui	s0,0xb433
    633c:	1d00001e 	bgtz	t0,63b8 <n32_bgtz_test+0x63b8>
    6340:	3610e137 	ori	s0,s0,0xe137
    6344:	1000001e 	b	63c0 <n32_bgtz_test+0x63c0>
    6348:	00000000 	nop
    634c:	00000000 	nop
    6350:	00000021 	move	zero,zero
    6354:	00000021 	move	zero,zero
    6358:	00000021 	move	zero,zero
    635c:	00000021 	move	zero,zero
    6360:	00000021 	move	zero,zero
    6364:	00000021 	move	zero,zero
    6368:	00000021 	move	zero,zero
    636c:	00000021 	move	zero,zero
    6370:	00000021 	move	zero,zero
    6374:	00000021 	move	zero,zero
    6378:	00000021 	move	zero,zero
    637c:	00000021 	move	zero,zero
    6380:	00000021 	move	zero,zero
    6384:	00000021 	move	zero,zero
    6388:	3c08a8fd 	lui	t0,0xa8fd
    638c:	3508ea40 	ori	t0,t0,0xea40
    6390:	1d00ffe9 	bgtz	t0,6338 <n32_bgtz_test+0x6338>
    6394:	00000000 	nop
    6398:	10000009 	b	63c0 <n32_bgtz_test+0x63c0>
    639c:	00000000 	nop
    63a0:	00000000 	nop
    63a4:	00000021 	move	zero,zero
    63a8:	00000021 	move	zero,zero
    63ac:	00000021 	move	zero,zero
    63b0:	00000021 	move	zero,zero
    63b4:	00000021 	move	zero,zero
    63b8:	3c12ced0 	lui	s2,0xced0
    63bc:	36520be0 	ori	s2,s2,0xbe0
    63c0:	00000000 	nop
    63c4:	24140000 	li	s4,0
    63c8:	16140fd2 	bne	s0,s4,a314 <inst_error>
    63cc:	00000000 	nop
    63d0:	00000000 	nop
    63d4:	24150000 	li	s5,0
    63d8:	16550fce 	bne	s2,s5,a314 <inst_error>
    63dc:	00000000 	nop
    63e0:	00000000 	nop
    63e4:	3c0c8255 	lui	t4,0x8255
    63e8:	358c6134 	ori	t4,t4,0x6134
    63ec:	3c0d55f0 	lui	t5,0x55f0
    63f0:	35ad9ef0 	ori	t5,t5,0x9ef0
    63f4:	24100000 	li	s0,0
    63f8:	10000016 	b	6454 <n32_bgtz_test+0x6454>
    63fc:	24120000 	li	s2,0
    6400:	00000000 	nop
    6404:	3c108255 	lui	s0,0x8255
    6408:	1d00001e 	bgtz	t0,6484 <n32_bgtz_test+0x6484>
    640c:	36106134 	ori	s0,s0,0x6134
    6410:	1000001e 	b	648c <n32_bgtz_test+0x648c>
    6414:	00000000 	nop
    6418:	00000000 	nop
    641c:	00000021 	move	zero,zero
    6420:	00000021 	move	zero,zero
    6424:	00000021 	move	zero,zero
    6428:	00000021 	move	zero,zero
    642c:	00000021 	move	zero,zero
    6430:	00000021 	move	zero,zero
    6434:	00000021 	move	zero,zero
    6438:	00000021 	move	zero,zero
    643c:	00000021 	move	zero,zero
    6440:	00000021 	move	zero,zero
    6444:	00000021 	move	zero,zero
    6448:	00000021 	move	zero,zero
    644c:	00000021 	move	zero,zero
    6450:	00000021 	move	zero,zero
    6454:	3c0803e4 	lui	t0,0x3e4
    6458:	3508c675 	ori	t0,t0,0xc675
    645c:	1d00ffe9 	bgtz	t0,6404 <n32_bgtz_test+0x6404>
    6460:	00000000 	nop
    6464:	10000009 	b	648c <n32_bgtz_test+0x648c>
    6468:	00000000 	nop
    646c:	00000000 	nop
    6470:	00000021 	move	zero,zero
    6474:	00000021 	move	zero,zero
    6478:	00000021 	move	zero,zero
    647c:	00000021 	move	zero,zero
    6480:	00000021 	move	zero,zero
    6484:	3c1255f0 	lui	s2,0x55f0
    6488:	36529ef0 	ori	s2,s2,0x9ef0
    648c:	00000000 	nop
    6490:	3c148255 	lui	s4,0x8255
    6494:	36946134 	ori	s4,s4,0x6134
    6498:	16140f9e 	bne	s0,s4,a314 <inst_error>
    649c:	00000000 	nop
    64a0:	00000000 	nop
    64a4:	3c1555f0 	lui	s5,0x55f0
    64a8:	36b59ef0 	ori	s5,s5,0x9ef0
    64ac:	16550f99 	bne	s2,s5,a314 <inst_error>
    64b0:	00000000 	nop
    64b4:	00000000 	nop
    64b8:	3c0cbb8b 	lui	t4,0xbb8b
    64bc:	358c96d0 	ori	t4,t4,0x96d0
    64c0:	3c0dcaac 	lui	t5,0xcaac
    64c4:	35ad9dfe 	ori	t5,t5,0x9dfe
    64c8:	24100000 	li	s0,0
    64cc:	10000016 	b	6528 <n32_bgtz_test+0x6528>
    64d0:	24120000 	li	s2,0
    64d4:	00000000 	nop
    64d8:	3c10bb8b 	lui	s0,0xbb8b
    64dc:	1d00001e 	bgtz	t0,6558 <n32_bgtz_test+0x6558>
    64e0:	361096d0 	ori	s0,s0,0x96d0
    64e4:	1000001e 	b	6560 <n32_bgtz_test+0x6560>
    64e8:	00000000 	nop
    64ec:	00000000 	nop
    64f0:	00000021 	move	zero,zero
    64f4:	00000021 	move	zero,zero
    64f8:	00000021 	move	zero,zero
    64fc:	00000021 	move	zero,zero
    6500:	00000021 	move	zero,zero
    6504:	00000021 	move	zero,zero
    6508:	00000021 	move	zero,zero
    650c:	00000021 	move	zero,zero
    6510:	00000021 	move	zero,zero
    6514:	00000021 	move	zero,zero
    6518:	00000021 	move	zero,zero
    651c:	00000021 	move	zero,zero
    6520:	00000021 	move	zero,zero
    6524:	00000021 	move	zero,zero
    6528:	3c08f43e 	lui	t0,0xf43e
    652c:	3508b720 	ori	t0,t0,0xb720
    6530:	1d00ffe9 	bgtz	t0,64d8 <n32_bgtz_test+0x64d8>
    6534:	00000000 	nop
    6538:	10000009 	b	6560 <n32_bgtz_test+0x6560>
    653c:	00000000 	nop
    6540:	00000000 	nop
    6544:	00000021 	move	zero,zero
    6548:	00000021 	move	zero,zero
    654c:	00000021 	move	zero,zero
    6550:	00000021 	move	zero,zero
    6554:	00000021 	move	zero,zero
    6558:	3c12caac 	lui	s2,0xcaac
    655c:	36529dfe 	ori	s2,s2,0x9dfe
    6560:	00000000 	nop
    6564:	24140000 	li	s4,0
    6568:	16140f6a 	bne	s0,s4,a314 <inst_error>
    656c:	00000000 	nop
    6570:	00000000 	nop
    6574:	24150000 	li	s5,0
    6578:	16550f66 	bne	s2,s5,a314 <inst_error>
    657c:	00000000 	nop
    6580:	00000000 	nop
    6584:	3c0c226b 	lui	t4,0x226b
    6588:	358ca480 	ori	t4,t4,0xa480
    658c:	3c0dd0e3 	lui	t5,0xd0e3
    6590:	35ad3de0 	ori	t5,t5,0x3de0
    6594:	24100000 	li	s0,0
    6598:	10000016 	b	65f4 <n32_bgtz_test+0x65f4>
    659c:	24120000 	li	s2,0
    65a0:	00000000 	nop
    65a4:	3c10226b 	lui	s0,0x226b
    65a8:	1d00001e 	bgtz	t0,6624 <n32_bgtz_test+0x6624>
    65ac:	3610a480 	ori	s0,s0,0xa480
    65b0:	1000001e 	b	662c <n32_bgtz_test+0x662c>
    65b4:	00000000 	nop
    65b8:	00000000 	nop
    65bc:	00000021 	move	zero,zero
    65c0:	00000021 	move	zero,zero
    65c4:	00000021 	move	zero,zero
    65c8:	00000021 	move	zero,zero
    65cc:	00000021 	move	zero,zero
    65d0:	00000021 	move	zero,zero
    65d4:	00000021 	move	zero,zero
    65d8:	00000021 	move	zero,zero
    65dc:	00000021 	move	zero,zero
    65e0:	00000021 	move	zero,zero
    65e4:	00000021 	move	zero,zero
    65e8:	00000021 	move	zero,zero
    65ec:	00000021 	move	zero,zero
    65f0:	00000021 	move	zero,zero
    65f4:	3c085ddd 	lui	t0,0x5ddd
    65f8:	3508da80 	ori	t0,t0,0xda80
    65fc:	1d00ffe9 	bgtz	t0,65a4 <n32_bgtz_test+0x65a4>
    6600:	00000000 	nop
    6604:	10000009 	b	662c <n32_bgtz_test+0x662c>
    6608:	00000000 	nop
    660c:	00000000 	nop
    6610:	00000021 	move	zero,zero
    6614:	00000021 	move	zero,zero
    6618:	00000021 	move	zero,zero
    661c:	00000021 	move	zero,zero
    6620:	00000021 	move	zero,zero
    6624:	3c12d0e3 	lui	s2,0xd0e3
    6628:	36523de0 	ori	s2,s2,0x3de0
    662c:	00000000 	nop
    6630:	3c14226b 	lui	s4,0x226b
    6634:	3694a480 	ori	s4,s4,0xa480
    6638:	16140f36 	bne	s0,s4,a314 <inst_error>
    663c:	00000000 	nop
    6640:	00000000 	nop
    6644:	3c15d0e3 	lui	s5,0xd0e3
    6648:	36b53de0 	ori	s5,s5,0x3de0
    664c:	16550f31 	bne	s2,s5,a314 <inst_error>
    6650:	00000000 	nop
    6654:	00000000 	nop
    6658:	3c0cdc03 	lui	t4,0xdc03
    665c:	358cc5bc 	ori	t4,t4,0xc5bc
    6660:	3c0d2ef0 	lui	t5,0x2ef0
    6664:	35adca10 	ori	t5,t5,0xca10
    6668:	24100000 	li	s0,0
    666c:	10000016 	b	66c8 <n32_bgtz_test+0x66c8>
    6670:	24120000 	li	s2,0
    6674:	00000000 	nop
    6678:	3c10dc03 	lui	s0,0xdc03
    667c:	1d00001e 	bgtz	t0,66f8 <n32_bgtz_test+0x66f8>
    6680:	3610c5bc 	ori	s0,s0,0xc5bc
    6684:	1000001e 	b	6700 <n32_bgtz_test+0x6700>
    6688:	00000000 	nop
    668c:	00000000 	nop
    6690:	00000021 	move	zero,zero
    6694:	00000021 	move	zero,zero
    6698:	00000021 	move	zero,zero
    669c:	00000021 	move	zero,zero
    66a0:	00000021 	move	zero,zero
    66a4:	00000021 	move	zero,zero
    66a8:	00000021 	move	zero,zero
    66ac:	00000021 	move	zero,zero
    66b0:	00000021 	move	zero,zero
    66b4:	00000021 	move	zero,zero
    66b8:	00000021 	move	zero,zero
    66bc:	00000021 	move	zero,zero
    66c0:	00000021 	move	zero,zero
    66c4:	00000021 	move	zero,zero
    66c8:	3c081f3b 	lui	t0,0x1f3b
    66cc:	3508dfe4 	ori	t0,t0,0xdfe4
    66d0:	1d00ffe9 	bgtz	t0,6678 <n32_bgtz_test+0x6678>
    66d4:	00000000 	nop
    66d8:	10000009 	b	6700 <n32_bgtz_test+0x6700>
    66dc:	00000000 	nop
    66e0:	00000000 	nop
    66e4:	00000021 	move	zero,zero
    66e8:	00000021 	move	zero,zero
    66ec:	00000021 	move	zero,zero
    66f0:	00000021 	move	zero,zero
    66f4:	00000021 	move	zero,zero
    66f8:	3c122ef0 	lui	s2,0x2ef0
    66fc:	3652ca10 	ori	s2,s2,0xca10
    6700:	00000000 	nop
    6704:	3c14dc03 	lui	s4,0xdc03
    6708:	3694c5bc 	ori	s4,s4,0xc5bc
    670c:	16140f01 	bne	s0,s4,a314 <inst_error>
    6710:	00000000 	nop
    6714:	00000000 	nop
    6718:	3c152ef0 	lui	s5,0x2ef0
    671c:	36b5ca10 	ori	s5,s5,0xca10
    6720:	16550efc 	bne	s2,s5,a314 <inst_error>
    6724:	00000000 	nop
    6728:	00000000 	nop
    672c:	3c0c2f02 	lui	t4,0x2f02
    6730:	358c4ea2 	ori	t4,t4,0x4ea2
    6734:	3c0d2f1c 	lui	t5,0x2f1c
    6738:	35ad77e2 	ori	t5,t5,0x77e2
    673c:	24100000 	li	s0,0
    6740:	10000016 	b	679c <n32_bgtz_test+0x679c>
    6744:	24120000 	li	s2,0
    6748:	00000000 	nop
    674c:	3c102f02 	lui	s0,0x2f02
    6750:	1d00001e 	bgtz	t0,67cc <n32_bgtz_test+0x67cc>
    6754:	36104ea2 	ori	s0,s0,0x4ea2
    6758:	1000001e 	b	67d4 <n32_bgtz_test+0x67d4>
    675c:	00000000 	nop
    6760:	00000000 	nop
    6764:	00000021 	move	zero,zero
    6768:	00000021 	move	zero,zero
    676c:	00000021 	move	zero,zero
    6770:	00000021 	move	zero,zero
    6774:	00000021 	move	zero,zero
    6778:	00000021 	move	zero,zero
    677c:	00000021 	move	zero,zero
    6780:	00000021 	move	zero,zero
    6784:	00000021 	move	zero,zero
    6788:	00000021 	move	zero,zero
    678c:	00000021 	move	zero,zero
    6790:	00000021 	move	zero,zero
    6794:	00000021 	move	zero,zero
    6798:	00000021 	move	zero,zero
    679c:	3c08d6d4 	lui	t0,0xd6d4
    67a0:	35081815 	ori	t0,t0,0x1815
    67a4:	1d00ffe9 	bgtz	t0,674c <n32_bgtz_test+0x674c>
    67a8:	00000000 	nop
    67ac:	10000009 	b	67d4 <n32_bgtz_test+0x67d4>
    67b0:	00000000 	nop
    67b4:	00000000 	nop
    67b8:	00000021 	move	zero,zero
    67bc:	00000021 	move	zero,zero
    67c0:	00000021 	move	zero,zero
    67c4:	00000021 	move	zero,zero
    67c8:	00000021 	move	zero,zero
    67cc:	3c122f1c 	lui	s2,0x2f1c
    67d0:	365277e2 	ori	s2,s2,0x77e2
    67d4:	00000000 	nop
    67d8:	24140000 	li	s4,0
    67dc:	16140ecd 	bne	s0,s4,a314 <inst_error>
    67e0:	00000000 	nop
    67e4:	00000000 	nop
    67e8:	24150000 	li	s5,0
    67ec:	16550ec9 	bne	s2,s5,a314 <inst_error>
    67f0:	00000000 	nop
    67f4:	00000000 	nop
    67f8:	3c0c29a5 	lui	t4,0x29a5
    67fc:	358c88a0 	ori	t4,t4,0x88a0
    6800:	3c0d3094 	lui	t5,0x3094
    6804:	35ad9d58 	ori	t5,t5,0x9d58
    6808:	24100000 	li	s0,0
    680c:	10000016 	b	6868 <n32_bgtz_test+0x6868>
    6810:	24120000 	li	s2,0
    6814:	00000000 	nop
    6818:	3c1029a5 	lui	s0,0x29a5
    681c:	1d00001e 	bgtz	t0,6898 <n32_bgtz_test+0x6898>
    6820:	361088a0 	ori	s0,s0,0x88a0
    6824:	1000001e 	b	68a0 <n32_bgtz_test+0x68a0>
    6828:	00000000 	nop
    682c:	00000000 	nop
    6830:	00000021 	move	zero,zero
    6834:	00000021 	move	zero,zero
    6838:	00000021 	move	zero,zero
    683c:	00000021 	move	zero,zero
    6840:	00000021 	move	zero,zero
    6844:	00000021 	move	zero,zero
    6848:	00000021 	move	zero,zero
    684c:	00000021 	move	zero,zero
    6850:	00000021 	move	zero,zero
    6854:	00000021 	move	zero,zero
    6858:	00000021 	move	zero,zero
    685c:	00000021 	move	zero,zero
    6860:	00000021 	move	zero,zero
    6864:	00000021 	move	zero,zero
    6868:	3c082f43 	lui	t0,0x2f43
    686c:	3508ec00 	ori	t0,t0,0xec00
    6870:	1d00ffe9 	bgtz	t0,6818 <n32_bgtz_test+0x6818>
    6874:	00000000 	nop
    6878:	10000009 	b	68a0 <n32_bgtz_test+0x68a0>
    687c:	00000000 	nop
    6880:	00000000 	nop
    6884:	00000021 	move	zero,zero
    6888:	00000021 	move	zero,zero
    688c:	00000021 	move	zero,zero
    6890:	00000021 	move	zero,zero
    6894:	00000021 	move	zero,zero
    6898:	3c123094 	lui	s2,0x3094
    689c:	36529d58 	ori	s2,s2,0x9d58
    68a0:	00000000 	nop
    68a4:	3c1429a5 	lui	s4,0x29a5
    68a8:	369488a0 	ori	s4,s4,0x88a0
    68ac:	16140e99 	bne	s0,s4,a314 <inst_error>
    68b0:	00000000 	nop
    68b4:	00000000 	nop
    68b8:	3c153094 	lui	s5,0x3094
    68bc:	36b59d58 	ori	s5,s5,0x9d58
    68c0:	16550e94 	bne	s2,s5,a314 <inst_error>
    68c4:	00000000 	nop
    68c8:	00000000 	nop
    68cc:	3c0cb936 	lui	t4,0xb936
    68d0:	358cd8d4 	ori	t4,t4,0xd8d4
    68d4:	3c0db35e 	lui	t5,0xb35e
    68d8:	35ada090 	ori	t5,t5,0xa090
    68dc:	24100000 	li	s0,0
    68e0:	10000016 	b	693c <n32_bgtz_test+0x693c>
    68e4:	24120000 	li	s2,0
    68e8:	00000000 	nop
    68ec:	3c10b936 	lui	s0,0xb936
    68f0:	1d00001e 	bgtz	t0,696c <n32_bgtz_test+0x696c>
    68f4:	3610d8d4 	ori	s0,s0,0xd8d4
    68f8:	1000001e 	b	6974 <n32_bgtz_test+0x6974>
    68fc:	00000000 	nop
    6900:	00000000 	nop
    6904:	00000021 	move	zero,zero
    6908:	00000021 	move	zero,zero
    690c:	00000021 	move	zero,zero
    6910:	00000021 	move	zero,zero
    6914:	00000021 	move	zero,zero
    6918:	00000021 	move	zero,zero
    691c:	00000021 	move	zero,zero
    6920:	00000021 	move	zero,zero
    6924:	00000021 	move	zero,zero
    6928:	00000021 	move	zero,zero
    692c:	00000021 	move	zero,zero
    6930:	00000021 	move	zero,zero
    6934:	00000021 	move	zero,zero
    6938:	00000021 	move	zero,zero
    693c:	3c08d273 	lui	t0,0xd273
    6940:	3508451c 	ori	t0,t0,0x451c
    6944:	1d00ffe9 	bgtz	t0,68ec <n32_bgtz_test+0x68ec>
    6948:	00000000 	nop
    694c:	10000009 	b	6974 <n32_bgtz_test+0x6974>
    6950:	00000000 	nop
    6954:	00000000 	nop
    6958:	00000021 	move	zero,zero
    695c:	00000021 	move	zero,zero
    6960:	00000021 	move	zero,zero
    6964:	00000021 	move	zero,zero
    6968:	00000021 	move	zero,zero
    696c:	3c12b35e 	lui	s2,0xb35e
    6970:	3652a090 	ori	s2,s2,0xa090
    6974:	00000000 	nop
    6978:	24140000 	li	s4,0
    697c:	16140e65 	bne	s0,s4,a314 <inst_error>
    6980:	00000000 	nop
    6984:	00000000 	nop
    6988:	24150000 	li	s5,0
    698c:	16550e61 	bne	s2,s5,a314 <inst_error>
    6990:	00000000 	nop
    6994:	00000000 	nop
    6998:	3c0ca865 	lui	t4,0xa865
    699c:	358c7f46 	ori	t4,t4,0x7f46
    69a0:	3c0d6b43 	lui	t5,0x6b43
    69a4:	35ad95b8 	ori	t5,t5,0x95b8
    69a8:	24100000 	li	s0,0
    69ac:	10000016 	b	6a08 <n32_bgtz_test+0x6a08>
    69b0:	24120000 	li	s2,0
    69b4:	00000000 	nop
    69b8:	3c10a865 	lui	s0,0xa865
    69bc:	1d00001e 	bgtz	t0,6a38 <n32_bgtz_test+0x6a38>
    69c0:	36107f46 	ori	s0,s0,0x7f46
    69c4:	1000001e 	b	6a40 <n32_bgtz_test+0x6a40>
    69c8:	00000000 	nop
    69cc:	00000000 	nop
    69d0:	00000021 	move	zero,zero
    69d4:	00000021 	move	zero,zero
    69d8:	00000021 	move	zero,zero
    69dc:	00000021 	move	zero,zero
    69e0:	00000021 	move	zero,zero
    69e4:	00000021 	move	zero,zero
    69e8:	00000021 	move	zero,zero
    69ec:	00000021 	move	zero,zero
    69f0:	00000021 	move	zero,zero
    69f4:	00000021 	move	zero,zero
    69f8:	00000021 	move	zero,zero
    69fc:	00000021 	move	zero,zero
    6a00:	00000021 	move	zero,zero
    6a04:	00000021 	move	zero,zero
    6a08:	3c08f084 	lui	t0,0xf084
    6a0c:	35085fa9 	ori	t0,t0,0x5fa9
    6a10:	1d00ffe9 	bgtz	t0,69b8 <n32_bgtz_test+0x69b8>
    6a14:	00000000 	nop
    6a18:	10000009 	b	6a40 <n32_bgtz_test+0x6a40>
    6a1c:	00000000 	nop
    6a20:	00000000 	nop
    6a24:	00000021 	move	zero,zero
    6a28:	00000021 	move	zero,zero
    6a2c:	00000021 	move	zero,zero
    6a30:	00000021 	move	zero,zero
    6a34:	00000021 	move	zero,zero
    6a38:	3c126b43 	lui	s2,0x6b43
    6a3c:	365295b8 	ori	s2,s2,0x95b8
    6a40:	00000000 	nop
    6a44:	24140000 	li	s4,0
    6a48:	16140e32 	bne	s0,s4,a314 <inst_error>
    6a4c:	00000000 	nop
    6a50:	00000000 	nop
    6a54:	24150000 	li	s5,0
    6a58:	16550e2e 	bne	s2,s5,a314 <inst_error>
    6a5c:	00000000 	nop
    6a60:	00000000 	nop
    6a64:	3c0c6519 	lui	t4,0x6519
    6a68:	358ce328 	ori	t4,t4,0xe328
    6a6c:	3c0db37c 	lui	t5,0xb37c
    6a70:	35ad2bc0 	ori	t5,t5,0x2bc0
    6a74:	24100000 	li	s0,0
    6a78:	10000016 	b	6ad4 <n32_bgtz_test+0x6ad4>
    6a7c:	24120000 	li	s2,0
    6a80:	00000000 	nop
    6a84:	3c106519 	lui	s0,0x6519
    6a88:	1d00001e 	bgtz	t0,6b04 <n32_bgtz_test+0x6b04>
    6a8c:	3610e328 	ori	s0,s0,0xe328
    6a90:	1000001e 	b	6b0c <n32_bgtz_test+0x6b0c>
    6a94:	00000000 	nop
    6a98:	00000000 	nop
    6a9c:	00000021 	move	zero,zero
    6aa0:	00000021 	move	zero,zero
    6aa4:	00000021 	move	zero,zero
    6aa8:	00000021 	move	zero,zero
    6aac:	00000021 	move	zero,zero
    6ab0:	00000021 	move	zero,zero
    6ab4:	00000021 	move	zero,zero
    6ab8:	00000021 	move	zero,zero
    6abc:	00000021 	move	zero,zero
    6ac0:	00000021 	move	zero,zero
    6ac4:	00000021 	move	zero,zero
    6ac8:	00000021 	move	zero,zero
    6acc:	00000021 	move	zero,zero
    6ad0:	00000021 	move	zero,zero
    6ad4:	3c08eb3c 	lui	t0,0xeb3c
    6ad8:	3508bab4 	ori	t0,t0,0xbab4
    6adc:	1d00ffe9 	bgtz	t0,6a84 <n32_bgtz_test+0x6a84>
    6ae0:	00000000 	nop
    6ae4:	10000009 	b	6b0c <n32_bgtz_test+0x6b0c>
    6ae8:	00000000 	nop
    6aec:	00000000 	nop
    6af0:	00000021 	move	zero,zero
    6af4:	00000021 	move	zero,zero
    6af8:	00000021 	move	zero,zero
    6afc:	00000021 	move	zero,zero
    6b00:	00000021 	move	zero,zero
    6b04:	3c12b37c 	lui	s2,0xb37c
    6b08:	36522bc0 	ori	s2,s2,0x2bc0
    6b0c:	00000000 	nop
    6b10:	24140000 	li	s4,0
    6b14:	16140dff 	bne	s0,s4,a314 <inst_error>
    6b18:	00000000 	nop
    6b1c:	00000000 	nop
    6b20:	24150000 	li	s5,0
    6b24:	16550dfb 	bne	s2,s5,a314 <inst_error>
    6b28:	00000000 	nop
    6b2c:	00000000 	nop
    6b30:	3c0c1f9a 	lui	t4,0x1f9a
    6b34:	358c381a 	ori	t4,t4,0x381a
    6b38:	3c0d8332 	lui	t5,0x8332
    6b3c:	35adb955 	ori	t5,t5,0xb955
    6b40:	24100000 	li	s0,0
    6b44:	10000016 	b	6ba0 <n32_bgtz_test+0x6ba0>
    6b48:	24120000 	li	s2,0
    6b4c:	00000000 	nop
    6b50:	3c101f9a 	lui	s0,0x1f9a
    6b54:	1d00001e 	bgtz	t0,6bd0 <n32_bgtz_test+0x6bd0>
    6b58:	3610381a 	ori	s0,s0,0x381a
    6b5c:	1000001e 	b	6bd8 <n32_bgtz_test+0x6bd8>
    6b60:	00000000 	nop
    6b64:	00000000 	nop
    6b68:	00000021 	move	zero,zero
    6b6c:	00000021 	move	zero,zero
    6b70:	00000021 	move	zero,zero
    6b74:	00000021 	move	zero,zero
    6b78:	00000021 	move	zero,zero
    6b7c:	00000021 	move	zero,zero
    6b80:	00000021 	move	zero,zero
    6b84:	00000021 	move	zero,zero
    6b88:	00000021 	move	zero,zero
    6b8c:	00000021 	move	zero,zero
    6b90:	00000021 	move	zero,zero
    6b94:	00000021 	move	zero,zero
    6b98:	00000021 	move	zero,zero
    6b9c:	00000021 	move	zero,zero
    6ba0:	3c08c7db 	lui	t0,0xc7db
    6ba4:	35080e1c 	ori	t0,t0,0xe1c
    6ba8:	1d00ffe9 	bgtz	t0,6b50 <n32_bgtz_test+0x6b50>
    6bac:	00000000 	nop
    6bb0:	10000009 	b	6bd8 <n32_bgtz_test+0x6bd8>
    6bb4:	00000000 	nop
    6bb8:	00000000 	nop
    6bbc:	00000021 	move	zero,zero
    6bc0:	00000021 	move	zero,zero
    6bc4:	00000021 	move	zero,zero
    6bc8:	00000021 	move	zero,zero
    6bcc:	00000021 	move	zero,zero
    6bd0:	3c128332 	lui	s2,0x8332
    6bd4:	3652b955 	ori	s2,s2,0xb955
    6bd8:	00000000 	nop
    6bdc:	24140000 	li	s4,0
    6be0:	16140dcc 	bne	s0,s4,a314 <inst_error>
    6be4:	00000000 	nop
    6be8:	00000000 	nop
    6bec:	24150000 	li	s5,0
    6bf0:	16550dc8 	bne	s2,s5,a314 <inst_error>
    6bf4:	00000000 	nop
    6bf8:	00000000 	nop
    6bfc:	3c0c4be5 	lui	t4,0x4be5
    6c00:	358c046a 	ori	t4,t4,0x46a
    6c04:	3c0d4024 	lui	t5,0x4024
    6c08:	35ad468c 	ori	t5,t5,0x468c
    6c0c:	24100000 	li	s0,0
    6c10:	10000016 	b	6c6c <n32_bgtz_test+0x6c6c>
    6c14:	24120000 	li	s2,0
    6c18:	00000000 	nop
    6c1c:	3c104be5 	lui	s0,0x4be5
    6c20:	1d00001e 	bgtz	t0,6c9c <n32_bgtz_test+0x6c9c>
    6c24:	3610046a 	ori	s0,s0,0x46a
    6c28:	1000001e 	b	6ca4 <n32_bgtz_test+0x6ca4>
    6c2c:	00000000 	nop
    6c30:	00000000 	nop
    6c34:	00000021 	move	zero,zero
    6c38:	00000021 	move	zero,zero
    6c3c:	00000021 	move	zero,zero
    6c40:	00000021 	move	zero,zero
    6c44:	00000021 	move	zero,zero
    6c48:	00000021 	move	zero,zero
    6c4c:	00000021 	move	zero,zero
    6c50:	00000021 	move	zero,zero
    6c54:	00000021 	move	zero,zero
    6c58:	00000021 	move	zero,zero
    6c5c:	00000021 	move	zero,zero
    6c60:	00000021 	move	zero,zero
    6c64:	00000021 	move	zero,zero
    6c68:	00000021 	move	zero,zero
    6c6c:	3c08221d 	lui	t0,0x221d
    6c70:	35080568 	ori	t0,t0,0x568
    6c74:	1d00ffe9 	bgtz	t0,6c1c <n32_bgtz_test+0x6c1c>
    6c78:	00000000 	nop
    6c7c:	10000009 	b	6ca4 <n32_bgtz_test+0x6ca4>
    6c80:	00000000 	nop
    6c84:	00000000 	nop
    6c88:	00000021 	move	zero,zero
    6c8c:	00000021 	move	zero,zero
    6c90:	00000021 	move	zero,zero
    6c94:	00000021 	move	zero,zero
    6c98:	00000021 	move	zero,zero
    6c9c:	3c124024 	lui	s2,0x4024
    6ca0:	3652468c 	ori	s2,s2,0x468c
    6ca4:	00000000 	nop
    6ca8:	3c144be5 	lui	s4,0x4be5
    6cac:	3694046a 	ori	s4,s4,0x46a
    6cb0:	16140d98 	bne	s0,s4,a314 <inst_error>
    6cb4:	00000000 	nop
    6cb8:	00000000 	nop
    6cbc:	3c154024 	lui	s5,0x4024
    6cc0:	36b5468c 	ori	s5,s5,0x468c
    6cc4:	16550d93 	bne	s2,s5,a314 <inst_error>
    6cc8:	00000000 	nop
    6ccc:	00000000 	nop
    6cd0:	3c0cb24b 	lui	t4,0xb24b
    6cd4:	358c821b 	ori	t4,t4,0x821b
    6cd8:	3c0d0370 	lui	t5,0x370
    6cdc:	35ad9c84 	ori	t5,t5,0x9c84
    6ce0:	24100000 	li	s0,0
    6ce4:	10000016 	b	6d40 <n32_bgtz_test+0x6d40>
    6ce8:	24120000 	li	s2,0
    6cec:	00000000 	nop
    6cf0:	3c10b24b 	lui	s0,0xb24b
    6cf4:	1d00001e 	bgtz	t0,6d70 <n32_bgtz_test+0x6d70>
    6cf8:	3610821b 	ori	s0,s0,0x821b
    6cfc:	1000001e 	b	6d78 <n32_bgtz_test+0x6d78>
    6d00:	00000000 	nop
    6d04:	00000000 	nop
    6d08:	00000021 	move	zero,zero
    6d0c:	00000021 	move	zero,zero
    6d10:	00000021 	move	zero,zero
    6d14:	00000021 	move	zero,zero
    6d18:	00000021 	move	zero,zero
    6d1c:	00000021 	move	zero,zero
    6d20:	00000021 	move	zero,zero
    6d24:	00000021 	move	zero,zero
    6d28:	00000021 	move	zero,zero
    6d2c:	00000021 	move	zero,zero
    6d30:	00000021 	move	zero,zero
    6d34:	00000021 	move	zero,zero
    6d38:	00000021 	move	zero,zero
    6d3c:	00000021 	move	zero,zero
    6d40:	3c08738e 	lui	t0,0x738e
    6d44:	35083590 	ori	t0,t0,0x3590
    6d48:	1d00ffe9 	bgtz	t0,6cf0 <n32_bgtz_test+0x6cf0>
    6d4c:	00000000 	nop
    6d50:	10000009 	b	6d78 <n32_bgtz_test+0x6d78>
    6d54:	00000000 	nop
    6d58:	00000000 	nop
    6d5c:	00000021 	move	zero,zero
    6d60:	00000021 	move	zero,zero
    6d64:	00000021 	move	zero,zero
    6d68:	00000021 	move	zero,zero
    6d6c:	00000021 	move	zero,zero
    6d70:	3c120370 	lui	s2,0x370
    6d74:	36529c84 	ori	s2,s2,0x9c84
    6d78:	00000000 	nop
    6d7c:	3c14b24b 	lui	s4,0xb24b
    6d80:	3694821b 	ori	s4,s4,0x821b
    6d84:	16140d63 	bne	s0,s4,a314 <inst_error>
    6d88:	00000000 	nop
    6d8c:	00000000 	nop
    6d90:	3c150370 	lui	s5,0x370
    6d94:	36b59c84 	ori	s5,s5,0x9c84
    6d98:	16550d5e 	bne	s2,s5,a314 <inst_error>
    6d9c:	00000000 	nop
    6da0:	00000000 	nop
    6da4:	3c0cb5c1 	lui	t4,0xb5c1
    6da8:	358c4700 	ori	t4,t4,0x4700
    6dac:	3c0d310d 	lui	t5,0x310d
    6db0:	35ad1c35 	ori	t5,t5,0x1c35
    6db4:	24100000 	li	s0,0
    6db8:	10000016 	b	6e14 <n32_bgtz_test+0x6e14>
    6dbc:	24120000 	li	s2,0
    6dc0:	00000000 	nop
    6dc4:	3c10b5c1 	lui	s0,0xb5c1
    6dc8:	1d00001e 	bgtz	t0,6e44 <n32_bgtz_test+0x6e44>
    6dcc:	36104700 	ori	s0,s0,0x4700
    6dd0:	1000001e 	b	6e4c <n32_bgtz_test+0x6e4c>
    6dd4:	00000000 	nop
    6dd8:	00000000 	nop
    6ddc:	00000021 	move	zero,zero
    6de0:	00000021 	move	zero,zero
    6de4:	00000021 	move	zero,zero
    6de8:	00000021 	move	zero,zero
    6dec:	00000021 	move	zero,zero
    6df0:	00000021 	move	zero,zero
    6df4:	00000021 	move	zero,zero
    6df8:	00000021 	move	zero,zero
    6dfc:	00000021 	move	zero,zero
    6e00:	00000021 	move	zero,zero
    6e04:	00000021 	move	zero,zero
    6e08:	00000021 	move	zero,zero
    6e0c:	00000021 	move	zero,zero
    6e10:	00000021 	move	zero,zero
    6e14:	3c08dc19 	lui	t0,0xdc19
    6e18:	35089208 	ori	t0,t0,0x9208
    6e1c:	1d00ffe9 	bgtz	t0,6dc4 <n32_bgtz_test+0x6dc4>
    6e20:	00000000 	nop
    6e24:	10000009 	b	6e4c <n32_bgtz_test+0x6e4c>
    6e28:	00000000 	nop
    6e2c:	00000000 	nop
    6e30:	00000021 	move	zero,zero
    6e34:	00000021 	move	zero,zero
    6e38:	00000021 	move	zero,zero
    6e3c:	00000021 	move	zero,zero
    6e40:	00000021 	move	zero,zero
    6e44:	3c12310d 	lui	s2,0x310d
    6e48:	36521c35 	ori	s2,s2,0x1c35
    6e4c:	00000000 	nop
    6e50:	24140000 	li	s4,0
    6e54:	16140d2f 	bne	s0,s4,a314 <inst_error>
    6e58:	00000000 	nop
    6e5c:	00000000 	nop
    6e60:	24150000 	li	s5,0
    6e64:	16550d2b 	bne	s2,s5,a314 <inst_error>
    6e68:	00000000 	nop
    6e6c:	00000000 	nop
    6e70:	3c0cc75c 	lui	t4,0xc75c
    6e74:	358cb7f8 	ori	t4,t4,0xb7f8
    6e78:	3c0d004b 	lui	t5,0x4b
    6e7c:	35adcd80 	ori	t5,t5,0xcd80
    6e80:	24100000 	li	s0,0
    6e84:	10000016 	b	6ee0 <n32_bgtz_test+0x6ee0>
    6e88:	24120000 	li	s2,0
    6e8c:	00000000 	nop
    6e90:	3c10c75c 	lui	s0,0xc75c
    6e94:	1d00001e 	bgtz	t0,6f10 <n32_bgtz_test+0x6f10>
    6e98:	3610b7f8 	ori	s0,s0,0xb7f8
    6e9c:	1000001e 	b	6f18 <n32_bgtz_test+0x6f18>
    6ea0:	00000000 	nop
    6ea4:	00000000 	nop
    6ea8:	00000021 	move	zero,zero
    6eac:	00000021 	move	zero,zero
    6eb0:	00000021 	move	zero,zero
    6eb4:	00000021 	move	zero,zero
    6eb8:	00000021 	move	zero,zero
    6ebc:	00000021 	move	zero,zero
    6ec0:	00000021 	move	zero,zero
    6ec4:	00000021 	move	zero,zero
    6ec8:	00000021 	move	zero,zero
    6ecc:	00000021 	move	zero,zero
    6ed0:	00000021 	move	zero,zero
    6ed4:	00000021 	move	zero,zero
    6ed8:	00000021 	move	zero,zero
    6edc:	00000021 	move	zero,zero
    6ee0:	3c084a28 	lui	t0,0x4a28
    6ee4:	350842dc 	ori	t0,t0,0x42dc
    6ee8:	1d00ffe9 	bgtz	t0,6e90 <n32_bgtz_test+0x6e90>
    6eec:	00000000 	nop
    6ef0:	10000009 	b	6f18 <n32_bgtz_test+0x6f18>
    6ef4:	00000000 	nop
    6ef8:	00000000 	nop
    6efc:	00000021 	move	zero,zero
    6f00:	00000021 	move	zero,zero
    6f04:	00000021 	move	zero,zero
    6f08:	00000021 	move	zero,zero
    6f0c:	00000021 	move	zero,zero
    6f10:	3c12004b 	lui	s2,0x4b
    6f14:	3652cd80 	ori	s2,s2,0xcd80
    6f18:	00000000 	nop
    6f1c:	3c14c75c 	lui	s4,0xc75c
    6f20:	3694b7f8 	ori	s4,s4,0xb7f8
    6f24:	16140cfb 	bne	s0,s4,a314 <inst_error>
    6f28:	00000000 	nop
    6f2c:	00000000 	nop
    6f30:	3c15004b 	lui	s5,0x4b
    6f34:	36b5cd80 	ori	s5,s5,0xcd80
    6f38:	16550cf6 	bne	s2,s5,a314 <inst_error>
    6f3c:	00000000 	nop
    6f40:	00000000 	nop
    6f44:	3c0cc35d 	lui	t4,0xc35d
    6f48:	358cf970 	ori	t4,t4,0xf970
    6f4c:	3c0dc5bb 	lui	t5,0xc5bb
    6f50:	35add1b2 	ori	t5,t5,0xd1b2
    6f54:	24100000 	li	s0,0
    6f58:	10000016 	b	6fb4 <n32_bgtz_test+0x6fb4>
    6f5c:	24120000 	li	s2,0
    6f60:	00000000 	nop
    6f64:	3c10c35d 	lui	s0,0xc35d
    6f68:	1d00001e 	bgtz	t0,6fe4 <n32_bgtz_test+0x6fe4>
    6f6c:	3610f970 	ori	s0,s0,0xf970
    6f70:	1000001e 	b	6fec <n32_bgtz_test+0x6fec>
    6f74:	00000000 	nop
    6f78:	00000000 	nop
    6f7c:	00000021 	move	zero,zero
    6f80:	00000021 	move	zero,zero
    6f84:	00000021 	move	zero,zero
    6f88:	00000021 	move	zero,zero
    6f8c:	00000021 	move	zero,zero
    6f90:	00000021 	move	zero,zero
    6f94:	00000021 	move	zero,zero
    6f98:	00000021 	move	zero,zero
    6f9c:	00000021 	move	zero,zero
    6fa0:	00000021 	move	zero,zero
    6fa4:	00000021 	move	zero,zero
    6fa8:	00000021 	move	zero,zero
    6fac:	00000021 	move	zero,zero
    6fb0:	00000021 	move	zero,zero
    6fb4:	3c085b81 	lui	t0,0x5b81
    6fb8:	35089f5a 	ori	t0,t0,0x9f5a
    6fbc:	1d00ffe9 	bgtz	t0,6f64 <n32_bgtz_test+0x6f64>
    6fc0:	00000000 	nop
    6fc4:	10000009 	b	6fec <n32_bgtz_test+0x6fec>
    6fc8:	00000000 	nop
    6fcc:	00000000 	nop
    6fd0:	00000021 	move	zero,zero
    6fd4:	00000021 	move	zero,zero
    6fd8:	00000021 	move	zero,zero
    6fdc:	00000021 	move	zero,zero
    6fe0:	00000021 	move	zero,zero
    6fe4:	3c12c5bb 	lui	s2,0xc5bb
    6fe8:	3652d1b2 	ori	s2,s2,0xd1b2
    6fec:	00000000 	nop
    6ff0:	3c14c35d 	lui	s4,0xc35d
    6ff4:	3694f970 	ori	s4,s4,0xf970
    6ff8:	16140cc6 	bne	s0,s4,a314 <inst_error>
    6ffc:	00000000 	nop
    7000:	00000000 	nop
    7004:	3c15c5bb 	lui	s5,0xc5bb
    7008:	36b5d1b2 	ori	s5,s5,0xd1b2
    700c:	16550cc1 	bne	s2,s5,a314 <inst_error>
    7010:	00000000 	nop
    7014:	00000000 	nop
    7018:	3c0ce08c 	lui	t4,0xe08c
    701c:	358c3bec 	ori	t4,t4,0x3bec
    7020:	3c0d55d0 	lui	t5,0x55d0
    7024:	35ad5bfc 	ori	t5,t5,0x5bfc
    7028:	24100000 	li	s0,0
    702c:	10000016 	b	7088 <n32_bgtz_test+0x7088>
    7030:	24120000 	li	s2,0
    7034:	00000000 	nop
    7038:	3c10e08c 	lui	s0,0xe08c
    703c:	1d00001e 	bgtz	t0,70b8 <n32_bgtz_test+0x70b8>
    7040:	36103bec 	ori	s0,s0,0x3bec
    7044:	1000001e 	b	70c0 <n32_bgtz_test+0x70c0>
    7048:	00000000 	nop
    704c:	00000000 	nop
    7050:	00000021 	move	zero,zero
    7054:	00000021 	move	zero,zero
    7058:	00000021 	move	zero,zero
    705c:	00000021 	move	zero,zero
    7060:	00000021 	move	zero,zero
    7064:	00000021 	move	zero,zero
    7068:	00000021 	move	zero,zero
    706c:	00000021 	move	zero,zero
    7070:	00000021 	move	zero,zero
    7074:	00000021 	move	zero,zero
    7078:	00000021 	move	zero,zero
    707c:	00000021 	move	zero,zero
    7080:	00000021 	move	zero,zero
    7084:	00000021 	move	zero,zero
    7088:	3c08dc22 	lui	t0,0xdc22
    708c:	35087520 	ori	t0,t0,0x7520
    7090:	1d00ffe9 	bgtz	t0,7038 <n32_bgtz_test+0x7038>
    7094:	00000000 	nop
    7098:	10000009 	b	70c0 <n32_bgtz_test+0x70c0>
    709c:	00000000 	nop
    70a0:	00000000 	nop
    70a4:	00000021 	move	zero,zero
    70a8:	00000021 	move	zero,zero
    70ac:	00000021 	move	zero,zero
    70b0:	00000021 	move	zero,zero
    70b4:	00000021 	move	zero,zero
    70b8:	3c1255d0 	lui	s2,0x55d0
    70bc:	36525bfc 	ori	s2,s2,0x5bfc
    70c0:	00000000 	nop
    70c4:	24140000 	li	s4,0
    70c8:	16140c92 	bne	s0,s4,a314 <inst_error>
    70cc:	00000000 	nop
    70d0:	00000000 	nop
    70d4:	24150000 	li	s5,0
    70d8:	16550c8e 	bne	s2,s5,a314 <inst_error>
    70dc:	00000000 	nop
    70e0:	00000000 	nop
    70e4:	3c0c48c6 	lui	t4,0x48c6
    70e8:	358c4017 	ori	t4,t4,0x4017
    70ec:	3c0dc758 	lui	t5,0xc758
    70f0:	35ad8396 	ori	t5,t5,0x8396
    70f4:	24100000 	li	s0,0
    70f8:	10000016 	b	7154 <n32_bgtz_test+0x7154>
    70fc:	24120000 	li	s2,0
    7100:	00000000 	nop
    7104:	3c1048c6 	lui	s0,0x48c6
    7108:	1d00001e 	bgtz	t0,7184 <n32_bgtz_test+0x7184>
    710c:	36104017 	ori	s0,s0,0x4017
    7110:	1000001e 	b	718c <n32_bgtz_test+0x718c>
    7114:	00000000 	nop
    7118:	00000000 	nop
    711c:	00000021 	move	zero,zero
    7120:	00000021 	move	zero,zero
    7124:	00000021 	move	zero,zero
    7128:	00000021 	move	zero,zero
    712c:	00000021 	move	zero,zero
    7130:	00000021 	move	zero,zero
    7134:	00000021 	move	zero,zero
    7138:	00000021 	move	zero,zero
    713c:	00000021 	move	zero,zero
    7140:	00000021 	move	zero,zero
    7144:	00000021 	move	zero,zero
    7148:	00000021 	move	zero,zero
    714c:	00000021 	move	zero,zero
    7150:	00000021 	move	zero,zero
    7154:	3c086013 	lui	t0,0x6013
    7158:	35080516 	ori	t0,t0,0x516
    715c:	1d00ffe9 	bgtz	t0,7104 <n32_bgtz_test+0x7104>
    7160:	00000000 	nop
    7164:	10000009 	b	718c <n32_bgtz_test+0x718c>
    7168:	00000000 	nop
    716c:	00000000 	nop
    7170:	00000021 	move	zero,zero
    7174:	00000021 	move	zero,zero
    7178:	00000021 	move	zero,zero
    717c:	00000021 	move	zero,zero
    7180:	00000021 	move	zero,zero
    7184:	3c12c758 	lui	s2,0xc758
    7188:	36528396 	ori	s2,s2,0x8396
    718c:	00000000 	nop
    7190:	3c1448c6 	lui	s4,0x48c6
    7194:	36944017 	ori	s4,s4,0x4017
    7198:	16140c5e 	bne	s0,s4,a314 <inst_error>
    719c:	00000000 	nop
    71a0:	00000000 	nop
    71a4:	3c15c758 	lui	s5,0xc758
    71a8:	36b58396 	ori	s5,s5,0x8396
    71ac:	16550c59 	bne	s2,s5,a314 <inst_error>
    71b0:	00000000 	nop
    71b4:	00000000 	nop
    71b8:	3c0caffd 	lui	t4,0xaffd
    71bc:	358cf854 	ori	t4,t4,0xf854
    71c0:	3c0d89ec 	lui	t5,0x89ec
    71c4:	35adc30a 	ori	t5,t5,0xc30a
    71c8:	24100000 	li	s0,0
    71cc:	10000016 	b	7228 <n32_bgtz_test+0x7228>
    71d0:	24120000 	li	s2,0
    71d4:	00000000 	nop
    71d8:	3c10affd 	lui	s0,0xaffd
    71dc:	1d00001e 	bgtz	t0,7258 <n32_bgtz_test+0x7258>
    71e0:	3610f854 	ori	s0,s0,0xf854
    71e4:	1000001e 	b	7260 <n32_bgtz_test+0x7260>
    71e8:	00000000 	nop
    71ec:	00000000 	nop
    71f0:	00000021 	move	zero,zero
    71f4:	00000021 	move	zero,zero
    71f8:	00000021 	move	zero,zero
    71fc:	00000021 	move	zero,zero
    7200:	00000021 	move	zero,zero
    7204:	00000021 	move	zero,zero
    7208:	00000021 	move	zero,zero
    720c:	00000021 	move	zero,zero
    7210:	00000021 	move	zero,zero
    7214:	00000021 	move	zero,zero
    7218:	00000021 	move	zero,zero
    721c:	00000021 	move	zero,zero
    7220:	00000021 	move	zero,zero
    7224:	00000021 	move	zero,zero
    7228:	3c08d3c9 	lui	t0,0xd3c9
    722c:	3508dbcc 	ori	t0,t0,0xdbcc
    7230:	1d00ffe9 	bgtz	t0,71d8 <n32_bgtz_test+0x71d8>
    7234:	00000000 	nop
    7238:	10000009 	b	7260 <n32_bgtz_test+0x7260>
    723c:	00000000 	nop
    7240:	00000000 	nop
    7244:	00000021 	move	zero,zero
    7248:	00000021 	move	zero,zero
    724c:	00000021 	move	zero,zero
    7250:	00000021 	move	zero,zero
    7254:	00000021 	move	zero,zero
    7258:	3c1289ec 	lui	s2,0x89ec
    725c:	3652c30a 	ori	s2,s2,0xc30a
    7260:	00000000 	nop
    7264:	24140000 	li	s4,0
    7268:	16140c2a 	bne	s0,s4,a314 <inst_error>
    726c:	00000000 	nop
    7270:	00000000 	nop
    7274:	24150000 	li	s5,0
    7278:	16550c26 	bne	s2,s5,a314 <inst_error>
    727c:	00000000 	nop
    7280:	00000000 	nop
    7284:	3c0cc0e0 	lui	t4,0xc0e0
    7288:	358c5ee4 	ori	t4,t4,0x5ee4
    728c:	3c0d2024 	lui	t5,0x2024
    7290:	35adbcb8 	ori	t5,t5,0xbcb8
    7294:	24100000 	li	s0,0
    7298:	10000016 	b	72f4 <n32_bgtz_test+0x72f4>
    729c:	24120000 	li	s2,0
    72a0:	00000000 	nop
    72a4:	3c10c0e0 	lui	s0,0xc0e0
    72a8:	1d00001e 	bgtz	t0,7324 <n32_bgtz_test+0x7324>
    72ac:	36105ee4 	ori	s0,s0,0x5ee4
    72b0:	1000001e 	b	732c <n32_bgtz_test+0x732c>
    72b4:	00000000 	nop
    72b8:	00000000 	nop
    72bc:	00000021 	move	zero,zero
    72c0:	00000021 	move	zero,zero
    72c4:	00000021 	move	zero,zero
    72c8:	00000021 	move	zero,zero
    72cc:	00000021 	move	zero,zero
    72d0:	00000021 	move	zero,zero
    72d4:	00000021 	move	zero,zero
    72d8:	00000021 	move	zero,zero
    72dc:	00000021 	move	zero,zero
    72e0:	00000021 	move	zero,zero
    72e4:	00000021 	move	zero,zero
    72e8:	00000021 	move	zero,zero
    72ec:	00000021 	move	zero,zero
    72f0:	00000021 	move	zero,zero
    72f4:	3c08aebb 	lui	t0,0xaebb
    72f8:	35084e66 	ori	t0,t0,0x4e66
    72fc:	1d00ffe9 	bgtz	t0,72a4 <n32_bgtz_test+0x72a4>
    7300:	00000000 	nop
    7304:	10000009 	b	732c <n32_bgtz_test+0x732c>
    7308:	00000000 	nop
    730c:	00000000 	nop
    7310:	00000021 	move	zero,zero
    7314:	00000021 	move	zero,zero
    7318:	00000021 	move	zero,zero
    731c:	00000021 	move	zero,zero
    7320:	00000021 	move	zero,zero
    7324:	3c122024 	lui	s2,0x2024
    7328:	3652bcb8 	ori	s2,s2,0xbcb8
    732c:	00000000 	nop
    7330:	24140000 	li	s4,0
    7334:	16140bf7 	bne	s0,s4,a314 <inst_error>
    7338:	00000000 	nop
    733c:	00000000 	nop
    7340:	24150000 	li	s5,0
    7344:	16550bf3 	bne	s2,s5,a314 <inst_error>
    7348:	00000000 	nop
    734c:	00000000 	nop
    7350:	3c0c6adc 	lui	t4,0x6adc
    7354:	358c13a2 	ori	t4,t4,0x13a2
    7358:	3c0d4491 	lui	t5,0x4491
    735c:	35adb3c8 	ori	t5,t5,0xb3c8
    7360:	24100000 	li	s0,0
    7364:	10000016 	b	73c0 <n32_bgtz_test+0x73c0>
    7368:	24120000 	li	s2,0
    736c:	00000000 	nop
    7370:	3c106adc 	lui	s0,0x6adc
    7374:	1d00001e 	bgtz	t0,73f0 <n32_bgtz_test+0x73f0>
    7378:	361013a2 	ori	s0,s0,0x13a2
    737c:	1000001e 	b	73f8 <n32_bgtz_test+0x73f8>
    7380:	00000000 	nop
    7384:	00000000 	nop
    7388:	00000021 	move	zero,zero
    738c:	00000021 	move	zero,zero
    7390:	00000021 	move	zero,zero
    7394:	00000021 	move	zero,zero
    7398:	00000021 	move	zero,zero
    739c:	00000021 	move	zero,zero
    73a0:	00000021 	move	zero,zero
    73a4:	00000021 	move	zero,zero
    73a8:	00000021 	move	zero,zero
    73ac:	00000021 	move	zero,zero
    73b0:	00000021 	move	zero,zero
    73b4:	00000021 	move	zero,zero
    73b8:	00000021 	move	zero,zero
    73bc:	00000021 	move	zero,zero
    73c0:	3c082977 	lui	t0,0x2977
    73c4:	35082504 	ori	t0,t0,0x2504
    73c8:	1d00ffe9 	bgtz	t0,7370 <n32_bgtz_test+0x7370>
    73cc:	00000000 	nop
    73d0:	10000009 	b	73f8 <n32_bgtz_test+0x73f8>
    73d4:	00000000 	nop
    73d8:	00000000 	nop
    73dc:	00000021 	move	zero,zero
    73e0:	00000021 	move	zero,zero
    73e4:	00000021 	move	zero,zero
    73e8:	00000021 	move	zero,zero
    73ec:	00000021 	move	zero,zero
    73f0:	3c124491 	lui	s2,0x4491
    73f4:	3652b3c8 	ori	s2,s2,0xb3c8
    73f8:	00000000 	nop
    73fc:	3c146adc 	lui	s4,0x6adc
    7400:	369413a2 	ori	s4,s4,0x13a2
    7404:	16140bc3 	bne	s0,s4,a314 <inst_error>
    7408:	00000000 	nop
    740c:	00000000 	nop
    7410:	3c154491 	lui	s5,0x4491
    7414:	36b5b3c8 	ori	s5,s5,0xb3c8
    7418:	16550bbe 	bne	s2,s5,a314 <inst_error>
    741c:	00000000 	nop
    7420:	00000000 	nop
    7424:	3c0ce5a4 	lui	t4,0xe5a4
    7428:	358c9233 	ori	t4,t4,0x9233
    742c:	3c0d8718 	lui	t5,0x8718
    7430:	35adb53c 	ori	t5,t5,0xb53c
    7434:	24100000 	li	s0,0
    7438:	10000016 	b	7494 <n32_bgtz_test+0x7494>
    743c:	24120000 	li	s2,0
    7440:	00000000 	nop
    7444:	3c10e5a4 	lui	s0,0xe5a4
    7448:	1d00001e 	bgtz	t0,74c4 <n32_bgtz_test+0x74c4>
    744c:	36109233 	ori	s0,s0,0x9233
    7450:	1000001e 	b	74cc <n32_bgtz_test+0x74cc>
    7454:	00000000 	nop
    7458:	00000000 	nop
    745c:	00000021 	move	zero,zero
    7460:	00000021 	move	zero,zero
    7464:	00000021 	move	zero,zero
    7468:	00000021 	move	zero,zero
    746c:	00000021 	move	zero,zero
    7470:	00000021 	move	zero,zero
    7474:	00000021 	move	zero,zero
    7478:	00000021 	move	zero,zero
    747c:	00000021 	move	zero,zero
    7480:	00000021 	move	zero,zero
    7484:	00000021 	move	zero,zero
    7488:	00000021 	move	zero,zero
    748c:	00000021 	move	zero,zero
    7490:	00000021 	move	zero,zero
    7494:	3c08d1c8 	lui	t0,0xd1c8
    7498:	3508d5f0 	ori	t0,t0,0xd5f0
    749c:	1d00ffe9 	bgtz	t0,7444 <n32_bgtz_test+0x7444>
    74a0:	00000000 	nop
    74a4:	10000009 	b	74cc <n32_bgtz_test+0x74cc>
    74a8:	00000000 	nop
    74ac:	00000000 	nop
    74b0:	00000021 	move	zero,zero
    74b4:	00000021 	move	zero,zero
    74b8:	00000021 	move	zero,zero
    74bc:	00000021 	move	zero,zero
    74c0:	00000021 	move	zero,zero
    74c4:	3c128718 	lui	s2,0x8718
    74c8:	3652b53c 	ori	s2,s2,0xb53c
    74cc:	00000000 	nop
    74d0:	24140000 	li	s4,0
    74d4:	16140b8f 	bne	s0,s4,a314 <inst_error>
    74d8:	00000000 	nop
    74dc:	00000000 	nop
    74e0:	24150000 	li	s5,0
    74e4:	16550b8b 	bne	s2,s5,a314 <inst_error>
    74e8:	00000000 	nop
    74ec:	00000000 	nop
    74f0:	3c0cceb5 	lui	t4,0xceb5
    74f4:	358c08c0 	ori	t4,t4,0x8c0
    74f8:	3c0dfb04 	lui	t5,0xfb04
    74fc:	35ad7a66 	ori	t5,t5,0x7a66
    7500:	24100000 	li	s0,0
    7504:	10000016 	b	7560 <n32_bgtz_test+0x7560>
    7508:	24120000 	li	s2,0
    750c:	00000000 	nop
    7510:	3c10ceb5 	lui	s0,0xceb5
    7514:	1d00001e 	bgtz	t0,7590 <n32_bgtz_test+0x7590>
    7518:	361008c0 	ori	s0,s0,0x8c0
    751c:	1000001e 	b	7598 <n32_bgtz_test+0x7598>
    7520:	00000000 	nop
    7524:	00000000 	nop
    7528:	00000021 	move	zero,zero
    752c:	00000021 	move	zero,zero
    7530:	00000021 	move	zero,zero
    7534:	00000021 	move	zero,zero
    7538:	00000021 	move	zero,zero
    753c:	00000021 	move	zero,zero
    7540:	00000021 	move	zero,zero
    7544:	00000021 	move	zero,zero
    7548:	00000021 	move	zero,zero
    754c:	00000021 	move	zero,zero
    7550:	00000021 	move	zero,zero
    7554:	00000021 	move	zero,zero
    7558:	00000021 	move	zero,zero
    755c:	00000021 	move	zero,zero
    7560:	3c08b46f 	lui	t0,0xb46f
    7564:	3508ac90 	ori	t0,t0,0xac90
    7568:	1d00ffe9 	bgtz	t0,7510 <n32_bgtz_test+0x7510>
    756c:	00000000 	nop
    7570:	10000009 	b	7598 <n32_bgtz_test+0x7598>
    7574:	00000000 	nop
    7578:	00000000 	nop
    757c:	00000021 	move	zero,zero
    7580:	00000021 	move	zero,zero
    7584:	00000021 	move	zero,zero
    7588:	00000021 	move	zero,zero
    758c:	00000021 	move	zero,zero
    7590:	3c12fb04 	lui	s2,0xfb04
    7594:	36527a66 	ori	s2,s2,0x7a66
    7598:	00000000 	nop
    759c:	24140000 	li	s4,0
    75a0:	16140b5c 	bne	s0,s4,a314 <inst_error>
    75a4:	00000000 	nop
    75a8:	00000000 	nop
    75ac:	24150000 	li	s5,0
    75b0:	16550b58 	bne	s2,s5,a314 <inst_error>
    75b4:	00000000 	nop
    75b8:	00000000 	nop
    75bc:	3c0cd09f 	lui	t4,0xd09f
    75c0:	358cbcee 	ori	t4,t4,0xbcee
    75c4:	3c0de862 	lui	t5,0xe862
    75c8:	35add678 	ori	t5,t5,0xd678
    75cc:	24100000 	li	s0,0
    75d0:	10000016 	b	762c <n32_bgtz_test+0x762c>
    75d4:	24120000 	li	s2,0
    75d8:	00000000 	nop
    75dc:	3c10d09f 	lui	s0,0xd09f
    75e0:	1d00001e 	bgtz	t0,765c <n32_bgtz_test+0x765c>
    75e4:	3610bcee 	ori	s0,s0,0xbcee
    75e8:	1000001e 	b	7664 <n32_bgtz_test+0x7664>
    75ec:	00000000 	nop
    75f0:	00000000 	nop
    75f4:	00000021 	move	zero,zero
    75f8:	00000021 	move	zero,zero
    75fc:	00000021 	move	zero,zero
    7600:	00000021 	move	zero,zero
    7604:	00000021 	move	zero,zero
    7608:	00000021 	move	zero,zero
    760c:	00000021 	move	zero,zero
    7610:	00000021 	move	zero,zero
    7614:	00000021 	move	zero,zero
    7618:	00000021 	move	zero,zero
    761c:	00000021 	move	zero,zero
    7620:	00000021 	move	zero,zero
    7624:	00000021 	move	zero,zero
    7628:	00000021 	move	zero,zero
    762c:	3c081aa5 	lui	t0,0x1aa5
    7630:	350810b0 	ori	t0,t0,0x10b0
    7634:	1d00ffe9 	bgtz	t0,75dc <n32_bgtz_test+0x75dc>
    7638:	00000000 	nop
    763c:	10000009 	b	7664 <n32_bgtz_test+0x7664>
    7640:	00000000 	nop
    7644:	00000000 	nop
    7648:	00000021 	move	zero,zero
    764c:	00000021 	move	zero,zero
    7650:	00000021 	move	zero,zero
    7654:	00000021 	move	zero,zero
    7658:	00000021 	move	zero,zero
    765c:	3c12e862 	lui	s2,0xe862
    7660:	3652d678 	ori	s2,s2,0xd678
    7664:	00000000 	nop
    7668:	3c14d09f 	lui	s4,0xd09f
    766c:	3694bcee 	ori	s4,s4,0xbcee
    7670:	16140b28 	bne	s0,s4,a314 <inst_error>
    7674:	00000000 	nop
    7678:	00000000 	nop
    767c:	3c15e862 	lui	s5,0xe862
    7680:	36b5d678 	ori	s5,s5,0xd678
    7684:	16550b23 	bne	s2,s5,a314 <inst_error>
    7688:	00000000 	nop
    768c:	00000000 	nop
    7690:	3c0ccae5 	lui	t4,0xcae5
    7694:	358cc1fe 	ori	t4,t4,0xc1fe
    7698:	3c0d90ee 	lui	t5,0x90ee
    769c:	35adae2c 	ori	t5,t5,0xae2c
    76a0:	24100000 	li	s0,0
    76a4:	10000016 	b	7700 <n32_bgtz_test+0x7700>
    76a8:	24120000 	li	s2,0
    76ac:	00000000 	nop
    76b0:	3c10cae5 	lui	s0,0xcae5
    76b4:	1d00001e 	bgtz	t0,7730 <n32_bgtz_test+0x7730>
    76b8:	3610c1fe 	ori	s0,s0,0xc1fe
    76bc:	1000001e 	b	7738 <n32_bgtz_test+0x7738>
    76c0:	00000000 	nop
    76c4:	00000000 	nop
    76c8:	00000021 	move	zero,zero
    76cc:	00000021 	move	zero,zero
    76d0:	00000021 	move	zero,zero
    76d4:	00000021 	move	zero,zero
    76d8:	00000021 	move	zero,zero
    76dc:	00000021 	move	zero,zero
    76e0:	00000021 	move	zero,zero
    76e4:	00000021 	move	zero,zero
    76e8:	00000021 	move	zero,zero
    76ec:	00000021 	move	zero,zero
    76f0:	00000021 	move	zero,zero
    76f4:	00000021 	move	zero,zero
    76f8:	00000021 	move	zero,zero
    76fc:	00000021 	move	zero,zero
    7700:	3c08dae9 	lui	t0,0xdae9
    7704:	350889e0 	ori	t0,t0,0x89e0
    7708:	1d00ffe9 	bgtz	t0,76b0 <n32_bgtz_test+0x76b0>
    770c:	00000000 	nop
    7710:	10000009 	b	7738 <n32_bgtz_test+0x7738>
    7714:	00000000 	nop
    7718:	00000000 	nop
    771c:	00000021 	move	zero,zero
    7720:	00000021 	move	zero,zero
    7724:	00000021 	move	zero,zero
    7728:	00000021 	move	zero,zero
    772c:	00000021 	move	zero,zero
    7730:	3c1290ee 	lui	s2,0x90ee
    7734:	3652ae2c 	ori	s2,s2,0xae2c
    7738:	00000000 	nop
    773c:	24140000 	li	s4,0
    7740:	16140af4 	bne	s0,s4,a314 <inst_error>
    7744:	00000000 	nop
    7748:	00000000 	nop
    774c:	24150000 	li	s5,0
    7750:	16550af0 	bne	s2,s5,a314 <inst_error>
    7754:	00000000 	nop
    7758:	00000000 	nop
    775c:	3c0c3809 	lui	t4,0x3809
    7760:	358c70f9 	ori	t4,t4,0x70f9
    7764:	3c0d98a7 	lui	t5,0x98a7
    7768:	35ad5af8 	ori	t5,t5,0x5af8
    776c:	24100000 	li	s0,0
    7770:	10000016 	b	77cc <n32_bgtz_test+0x77cc>
    7774:	24120000 	li	s2,0
    7778:	00000000 	nop
    777c:	3c103809 	lui	s0,0x3809
    7780:	1d00001e 	bgtz	t0,77fc <n32_bgtz_test+0x77fc>
    7784:	361070f9 	ori	s0,s0,0x70f9
    7788:	1000001e 	b	7804 <n32_bgtz_test+0x7804>
    778c:	00000000 	nop
    7790:	00000000 	nop
    7794:	00000021 	move	zero,zero
    7798:	00000021 	move	zero,zero
    779c:	00000021 	move	zero,zero
    77a0:	00000021 	move	zero,zero
    77a4:	00000021 	move	zero,zero
    77a8:	00000021 	move	zero,zero
    77ac:	00000021 	move	zero,zero
    77b0:	00000021 	move	zero,zero
    77b4:	00000021 	move	zero,zero
    77b8:	00000021 	move	zero,zero
    77bc:	00000021 	move	zero,zero
    77c0:	00000021 	move	zero,zero
    77c4:	00000021 	move	zero,zero
    77c8:	00000021 	move	zero,zero
    77cc:	3c085922 	lui	t0,0x5922
    77d0:	3508f146 	ori	t0,t0,0xf146
    77d4:	1d00ffe9 	bgtz	t0,777c <n32_bgtz_test+0x777c>
    77d8:	00000000 	nop
    77dc:	10000009 	b	7804 <n32_bgtz_test+0x7804>
    77e0:	00000000 	nop
    77e4:	00000000 	nop
    77e8:	00000021 	move	zero,zero
    77ec:	00000021 	move	zero,zero
    77f0:	00000021 	move	zero,zero
    77f4:	00000021 	move	zero,zero
    77f8:	00000021 	move	zero,zero
    77fc:	3c1298a7 	lui	s2,0x98a7
    7800:	36525af8 	ori	s2,s2,0x5af8
    7804:	00000000 	nop
    7808:	3c143809 	lui	s4,0x3809
    780c:	369470f9 	ori	s4,s4,0x70f9
    7810:	16140ac0 	bne	s0,s4,a314 <inst_error>
    7814:	00000000 	nop
    7818:	00000000 	nop
    781c:	3c1598a7 	lui	s5,0x98a7
    7820:	36b55af8 	ori	s5,s5,0x5af8
    7824:	16550abb 	bne	s2,s5,a314 <inst_error>
    7828:	00000000 	nop
    782c:	00000000 	nop
    7830:	3c0c6397 	lui	t4,0x6397
    7834:	358cf58c 	ori	t4,t4,0xf58c
    7838:	3c0d2ea6 	lui	t5,0x2ea6
    783c:	35add300 	ori	t5,t5,0xd300
    7840:	24100000 	li	s0,0
    7844:	10000016 	b	78a0 <n32_bgtz_test+0x78a0>
    7848:	24120000 	li	s2,0
    784c:	00000000 	nop
    7850:	3c106397 	lui	s0,0x6397
    7854:	1d00001e 	bgtz	t0,78d0 <n32_bgtz_test+0x78d0>
    7858:	3610f58c 	ori	s0,s0,0xf58c
    785c:	1000001e 	b	78d8 <n32_bgtz_test+0x78d8>
    7860:	00000000 	nop
    7864:	00000000 	nop
    7868:	00000021 	move	zero,zero
    786c:	00000021 	move	zero,zero
    7870:	00000021 	move	zero,zero
    7874:	00000021 	move	zero,zero
    7878:	00000021 	move	zero,zero
    787c:	00000021 	move	zero,zero
    7880:	00000021 	move	zero,zero
    7884:	00000021 	move	zero,zero
    7888:	00000021 	move	zero,zero
    788c:	00000021 	move	zero,zero
    7890:	00000021 	move	zero,zero
    7894:	00000021 	move	zero,zero
    7898:	00000021 	move	zero,zero
    789c:	00000021 	move	zero,zero
    78a0:	3c08cf09 	lui	t0,0xcf09
    78a4:	35084d06 	ori	t0,t0,0x4d06
    78a8:	1d00ffe9 	bgtz	t0,7850 <n32_bgtz_test+0x7850>
    78ac:	00000000 	nop
    78b0:	10000009 	b	78d8 <n32_bgtz_test+0x78d8>
    78b4:	00000000 	nop
    78b8:	00000000 	nop
    78bc:	00000021 	move	zero,zero
    78c0:	00000021 	move	zero,zero
    78c4:	00000021 	move	zero,zero
    78c8:	00000021 	move	zero,zero
    78cc:	00000021 	move	zero,zero
    78d0:	3c122ea6 	lui	s2,0x2ea6
    78d4:	3652d300 	ori	s2,s2,0xd300
    78d8:	00000000 	nop
    78dc:	24140000 	li	s4,0
    78e0:	16140a8c 	bne	s0,s4,a314 <inst_error>
    78e4:	00000000 	nop
    78e8:	00000000 	nop
    78ec:	24150000 	li	s5,0
    78f0:	16550a88 	bne	s2,s5,a314 <inst_error>
    78f4:	00000000 	nop
    78f8:	00000000 	nop
    78fc:	3c0c6d89 	lui	t4,0x6d89
    7900:	358ce5e0 	ori	t4,t4,0xe5e0
    7904:	3c0dc363 	lui	t5,0xc363
    7908:	35ad4260 	ori	t5,t5,0x4260
    790c:	24100000 	li	s0,0
    7910:	10000016 	b	796c <n32_bgtz_test+0x796c>
    7914:	24120000 	li	s2,0
    7918:	00000000 	nop
    791c:	3c106d89 	lui	s0,0x6d89
    7920:	1d00001e 	bgtz	t0,799c <n32_bgtz_test+0x799c>
    7924:	3610e5e0 	ori	s0,s0,0xe5e0
    7928:	1000001e 	b	79a4 <n32_bgtz_test+0x79a4>
    792c:	00000000 	nop
    7930:	00000000 	nop
    7934:	00000021 	move	zero,zero
    7938:	00000021 	move	zero,zero
    793c:	00000021 	move	zero,zero
    7940:	00000021 	move	zero,zero
    7944:	00000021 	move	zero,zero
    7948:	00000021 	move	zero,zero
    794c:	00000021 	move	zero,zero
    7950:	00000021 	move	zero,zero
    7954:	00000021 	move	zero,zero
    7958:	00000021 	move	zero,zero
    795c:	00000021 	move	zero,zero
    7960:	00000021 	move	zero,zero
    7964:	00000021 	move	zero,zero
    7968:	00000021 	move	zero,zero
    796c:	3c08a850 	lui	t0,0xa850
    7970:	350870c5 	ori	t0,t0,0x70c5
    7974:	1d00ffe9 	bgtz	t0,791c <n32_bgtz_test+0x791c>
    7978:	00000000 	nop
    797c:	10000009 	b	79a4 <n32_bgtz_test+0x79a4>
    7980:	00000000 	nop
    7984:	00000000 	nop
    7988:	00000021 	move	zero,zero
    798c:	00000021 	move	zero,zero
    7990:	00000021 	move	zero,zero
    7994:	00000021 	move	zero,zero
    7998:	00000021 	move	zero,zero
    799c:	3c12c363 	lui	s2,0xc363
    79a0:	36524260 	ori	s2,s2,0x4260
    79a4:	00000000 	nop
    79a8:	24140000 	li	s4,0
    79ac:	16140a59 	bne	s0,s4,a314 <inst_error>
    79b0:	00000000 	nop
    79b4:	00000000 	nop
    79b8:	24150000 	li	s5,0
    79bc:	16550a55 	bne	s2,s5,a314 <inst_error>
    79c0:	00000000 	nop
    79c4:	00000000 	nop
    79c8:	3c0ccd1c 	lui	t4,0xcd1c
    79cc:	358c5e1e 	ori	t4,t4,0x5e1e
    79d0:	3c0d8160 	lui	t5,0x8160
    79d4:	35ad1059 	ori	t5,t5,0x1059
    79d8:	24100000 	li	s0,0
    79dc:	10000016 	b	7a38 <n32_bgtz_test+0x7a38>
    79e0:	24120000 	li	s2,0
    79e4:	00000000 	nop
    79e8:	3c10cd1c 	lui	s0,0xcd1c
    79ec:	1d00001e 	bgtz	t0,7a68 <n32_bgtz_test+0x7a68>
    79f0:	36105e1e 	ori	s0,s0,0x5e1e
    79f4:	1000001e 	b	7a70 <n32_bgtz_test+0x7a70>
    79f8:	00000000 	nop
    79fc:	00000000 	nop
    7a00:	00000021 	move	zero,zero
    7a04:	00000021 	move	zero,zero
    7a08:	00000021 	move	zero,zero
    7a0c:	00000021 	move	zero,zero
    7a10:	00000021 	move	zero,zero
    7a14:	00000021 	move	zero,zero
    7a18:	00000021 	move	zero,zero
    7a1c:	00000021 	move	zero,zero
    7a20:	00000021 	move	zero,zero
    7a24:	00000021 	move	zero,zero
    7a28:	00000021 	move	zero,zero
    7a2c:	00000021 	move	zero,zero
    7a30:	00000021 	move	zero,zero
    7a34:	00000021 	move	zero,zero
    7a38:	3c08a276 	lui	t0,0xa276
    7a3c:	35085a20 	ori	t0,t0,0x5a20
    7a40:	1d00ffe9 	bgtz	t0,79e8 <n32_bgtz_test+0x79e8>
    7a44:	00000000 	nop
    7a48:	10000009 	b	7a70 <n32_bgtz_test+0x7a70>
    7a4c:	00000000 	nop
    7a50:	00000000 	nop
    7a54:	00000021 	move	zero,zero
    7a58:	00000021 	move	zero,zero
    7a5c:	00000021 	move	zero,zero
    7a60:	00000021 	move	zero,zero
    7a64:	00000021 	move	zero,zero
    7a68:	3c128160 	lui	s2,0x8160
    7a6c:	36521059 	ori	s2,s2,0x1059
    7a70:	00000000 	nop
    7a74:	24140000 	li	s4,0
    7a78:	16140a26 	bne	s0,s4,a314 <inst_error>
    7a7c:	00000000 	nop
    7a80:	00000000 	nop
    7a84:	24150000 	li	s5,0
    7a88:	16550a22 	bne	s2,s5,a314 <inst_error>
    7a8c:	00000000 	nop
    7a90:	00000000 	nop
    7a94:	3c0c8ea1 	lui	t4,0x8ea1
    7a98:	358c5299 	ori	t4,t4,0x5299
    7a9c:	3c0de75e 	lui	t5,0xe75e
    7aa0:	35adf208 	ori	t5,t5,0xf208
    7aa4:	24100000 	li	s0,0
    7aa8:	10000016 	b	7b04 <n32_bgtz_test+0x7b04>
    7aac:	24120000 	li	s2,0
    7ab0:	00000000 	nop
    7ab4:	3c108ea1 	lui	s0,0x8ea1
    7ab8:	1d00001e 	bgtz	t0,7b34 <n32_bgtz_test+0x7b34>
    7abc:	36105299 	ori	s0,s0,0x5299
    7ac0:	1000001e 	b	7b3c <n32_bgtz_test+0x7b3c>
    7ac4:	00000000 	nop
    7ac8:	00000000 	nop
    7acc:	00000021 	move	zero,zero
    7ad0:	00000021 	move	zero,zero
    7ad4:	00000021 	move	zero,zero
    7ad8:	00000021 	move	zero,zero
    7adc:	00000021 	move	zero,zero
    7ae0:	00000021 	move	zero,zero
    7ae4:	00000021 	move	zero,zero
    7ae8:	00000021 	move	zero,zero
    7aec:	00000021 	move	zero,zero
    7af0:	00000021 	move	zero,zero
    7af4:	00000021 	move	zero,zero
    7af8:	00000021 	move	zero,zero
    7afc:	00000021 	move	zero,zero
    7b00:	00000021 	move	zero,zero
    7b04:	3c08842f 	lui	t0,0x842f
    7b08:	3508c806 	ori	t0,t0,0xc806
    7b0c:	1d00ffe9 	bgtz	t0,7ab4 <n32_bgtz_test+0x7ab4>
    7b10:	00000000 	nop
    7b14:	10000009 	b	7b3c <n32_bgtz_test+0x7b3c>
    7b18:	00000000 	nop
    7b1c:	00000000 	nop
    7b20:	00000021 	move	zero,zero
    7b24:	00000021 	move	zero,zero
    7b28:	00000021 	move	zero,zero
    7b2c:	00000021 	move	zero,zero
    7b30:	00000021 	move	zero,zero
    7b34:	3c12e75e 	lui	s2,0xe75e
    7b38:	3652f208 	ori	s2,s2,0xf208
    7b3c:	00000000 	nop
    7b40:	24140000 	li	s4,0
    7b44:	161409f3 	bne	s0,s4,a314 <inst_error>
    7b48:	00000000 	nop
    7b4c:	00000000 	nop
    7b50:	24150000 	li	s5,0
    7b54:	165509ef 	bne	s2,s5,a314 <inst_error>
    7b58:	00000000 	nop
    7b5c:	00000000 	nop
    7b60:	3c0c595f 	lui	t4,0x595f
    7b64:	358ccc38 	ori	t4,t4,0xcc38
    7b68:	3c0dbc8f 	lui	t5,0xbc8f
    7b6c:	35ade3e0 	ori	t5,t5,0xe3e0
    7b70:	24100000 	li	s0,0
    7b74:	10000016 	b	7bd0 <n32_bgtz_test+0x7bd0>
    7b78:	24120000 	li	s2,0
    7b7c:	00000000 	nop
    7b80:	3c10595f 	lui	s0,0x595f
    7b84:	1d00001e 	bgtz	t0,7c00 <n32_bgtz_test+0x7c00>
    7b88:	3610cc38 	ori	s0,s0,0xcc38
    7b8c:	1000001e 	b	7c08 <n32_bgtz_test+0x7c08>
    7b90:	00000000 	nop
    7b94:	00000000 	nop
    7b98:	00000021 	move	zero,zero
    7b9c:	00000021 	move	zero,zero
    7ba0:	00000021 	move	zero,zero
    7ba4:	00000021 	move	zero,zero
    7ba8:	00000021 	move	zero,zero
    7bac:	00000021 	move	zero,zero
    7bb0:	00000021 	move	zero,zero
    7bb4:	00000021 	move	zero,zero
    7bb8:	00000021 	move	zero,zero
    7bbc:	00000021 	move	zero,zero
    7bc0:	00000021 	move	zero,zero
    7bc4:	00000021 	move	zero,zero
    7bc8:	00000021 	move	zero,zero
    7bcc:	00000021 	move	zero,zero
    7bd0:	3c08bfca 	lui	t0,0xbfca
    7bd4:	3508b798 	ori	t0,t0,0xb798
    7bd8:	1d00ffe9 	bgtz	t0,7b80 <n32_bgtz_test+0x7b80>
    7bdc:	00000000 	nop
    7be0:	10000009 	b	7c08 <n32_bgtz_test+0x7c08>
    7be4:	00000000 	nop
    7be8:	00000000 	nop
    7bec:	00000021 	move	zero,zero
    7bf0:	00000021 	move	zero,zero
    7bf4:	00000021 	move	zero,zero
    7bf8:	00000021 	move	zero,zero
    7bfc:	00000021 	move	zero,zero
    7c00:	3c12bc8f 	lui	s2,0xbc8f
    7c04:	3652e3e0 	ori	s2,s2,0xe3e0
    7c08:	00000000 	nop
    7c0c:	24140000 	li	s4,0
    7c10:	161409c0 	bne	s0,s4,a314 <inst_error>
    7c14:	00000000 	nop
    7c18:	00000000 	nop
    7c1c:	24150000 	li	s5,0
    7c20:	165509bc 	bne	s2,s5,a314 <inst_error>
    7c24:	00000000 	nop
    7c28:	00000000 	nop
    7c2c:	3c0cbd76 	lui	t4,0xbd76
    7c30:	358c2764 	ori	t4,t4,0x2764
    7c34:	3c0dbb3a 	lui	t5,0xbb3a
    7c38:	35adae00 	ori	t5,t5,0xae00
    7c3c:	24100000 	li	s0,0
    7c40:	10000016 	b	7c9c <n32_bgtz_test+0x7c9c>
    7c44:	24120000 	li	s2,0
    7c48:	00000000 	nop
    7c4c:	3c10bd76 	lui	s0,0xbd76
    7c50:	1d00001e 	bgtz	t0,7ccc <n32_bgtz_test+0x7ccc>
    7c54:	36102764 	ori	s0,s0,0x2764
    7c58:	1000001e 	b	7cd4 <n32_bgtz_test+0x7cd4>
    7c5c:	00000000 	nop
    7c60:	00000000 	nop
    7c64:	00000021 	move	zero,zero
    7c68:	00000021 	move	zero,zero
    7c6c:	00000021 	move	zero,zero
    7c70:	00000021 	move	zero,zero
    7c74:	00000021 	move	zero,zero
    7c78:	00000021 	move	zero,zero
    7c7c:	00000021 	move	zero,zero
    7c80:	00000021 	move	zero,zero
    7c84:	00000021 	move	zero,zero
    7c88:	00000021 	move	zero,zero
    7c8c:	00000021 	move	zero,zero
    7c90:	00000021 	move	zero,zero
    7c94:	00000021 	move	zero,zero
    7c98:	00000021 	move	zero,zero
    7c9c:	3c086a24 	lui	t0,0x6a24
    7ca0:	3508a774 	ori	t0,t0,0xa774
    7ca4:	1d00ffe9 	bgtz	t0,7c4c <n32_bgtz_test+0x7c4c>
    7ca8:	00000000 	nop
    7cac:	10000009 	b	7cd4 <n32_bgtz_test+0x7cd4>
    7cb0:	00000000 	nop
    7cb4:	00000000 	nop
    7cb8:	00000021 	move	zero,zero
    7cbc:	00000021 	move	zero,zero
    7cc0:	00000021 	move	zero,zero
    7cc4:	00000021 	move	zero,zero
    7cc8:	00000021 	move	zero,zero
    7ccc:	3c12bb3a 	lui	s2,0xbb3a
    7cd0:	3652ae00 	ori	s2,s2,0xae00
    7cd4:	00000000 	nop
    7cd8:	3c14bd76 	lui	s4,0xbd76
    7cdc:	36942764 	ori	s4,s4,0x2764
    7ce0:	1614098c 	bne	s0,s4,a314 <inst_error>
    7ce4:	00000000 	nop
    7ce8:	00000000 	nop
    7cec:	3c15bb3a 	lui	s5,0xbb3a
    7cf0:	36b5ae00 	ori	s5,s5,0xae00
    7cf4:	16550987 	bne	s2,s5,a314 <inst_error>
    7cf8:	00000000 	nop
    7cfc:	00000000 	nop
    7d00:	3c0c792b 	lui	t4,0x792b
    7d04:	358c005c 	ori	t4,t4,0x5c
    7d08:	3c0d5faf 	lui	t5,0x5faf
    7d0c:	35adefa0 	ori	t5,t5,0xefa0
    7d10:	24100000 	li	s0,0
    7d14:	10000016 	b	7d70 <n32_bgtz_test+0x7d70>
    7d18:	24120000 	li	s2,0
    7d1c:	00000000 	nop
    7d20:	3c10792b 	lui	s0,0x792b
    7d24:	1d00001e 	bgtz	t0,7da0 <n32_bgtz_test+0x7da0>
    7d28:	3610005c 	ori	s0,s0,0x5c
    7d2c:	1000001e 	b	7da8 <n32_bgtz_test+0x7da8>
    7d30:	00000000 	nop
    7d34:	00000000 	nop
    7d38:	00000021 	move	zero,zero
    7d3c:	00000021 	move	zero,zero
    7d40:	00000021 	move	zero,zero
    7d44:	00000021 	move	zero,zero
    7d48:	00000021 	move	zero,zero
    7d4c:	00000021 	move	zero,zero
    7d50:	00000021 	move	zero,zero
    7d54:	00000021 	move	zero,zero
    7d58:	00000021 	move	zero,zero
    7d5c:	00000021 	move	zero,zero
    7d60:	00000021 	move	zero,zero
    7d64:	00000021 	move	zero,zero
    7d68:	00000021 	move	zero,zero
    7d6c:	00000021 	move	zero,zero
    7d70:	3c08eaf8 	lui	t0,0xeaf8
    7d74:	35082624 	ori	t0,t0,0x2624
    7d78:	1d00ffe9 	bgtz	t0,7d20 <n32_bgtz_test+0x7d20>
    7d7c:	00000000 	nop
    7d80:	10000009 	b	7da8 <n32_bgtz_test+0x7da8>
    7d84:	00000000 	nop
    7d88:	00000000 	nop
    7d8c:	00000021 	move	zero,zero
    7d90:	00000021 	move	zero,zero
    7d94:	00000021 	move	zero,zero
    7d98:	00000021 	move	zero,zero
    7d9c:	00000021 	move	zero,zero
    7da0:	3c125faf 	lui	s2,0x5faf
    7da4:	3652efa0 	ori	s2,s2,0xefa0
    7da8:	00000000 	nop
    7dac:	24140000 	li	s4,0
    7db0:	16140958 	bne	s0,s4,a314 <inst_error>
    7db4:	00000000 	nop
    7db8:	00000000 	nop
    7dbc:	24150000 	li	s5,0
    7dc0:	16550954 	bne	s2,s5,a314 <inst_error>
    7dc4:	00000000 	nop
    7dc8:	00000000 	nop
    7dcc:	3c0ce4f0 	lui	t4,0xe4f0
    7dd0:	358c214a 	ori	t4,t4,0x214a
    7dd4:	3c0d04e0 	lui	t5,0x4e0
    7dd8:	35adf6a8 	ori	t5,t5,0xf6a8
    7ddc:	24100000 	li	s0,0
    7de0:	10000016 	b	7e3c <n32_bgtz_test+0x7e3c>
    7de4:	24120000 	li	s2,0
    7de8:	00000000 	nop
    7dec:	3c10e4f0 	lui	s0,0xe4f0
    7df0:	1d00001e 	bgtz	t0,7e6c <n32_bgtz_test+0x7e6c>
    7df4:	3610214a 	ori	s0,s0,0x214a
    7df8:	1000001e 	b	7e74 <n32_bgtz_test+0x7e74>
    7dfc:	00000000 	nop
    7e00:	00000000 	nop
    7e04:	00000021 	move	zero,zero
    7e08:	00000021 	move	zero,zero
    7e0c:	00000021 	move	zero,zero
    7e10:	00000021 	move	zero,zero
    7e14:	00000021 	move	zero,zero
    7e18:	00000021 	move	zero,zero
    7e1c:	00000021 	move	zero,zero
    7e20:	00000021 	move	zero,zero
    7e24:	00000021 	move	zero,zero
    7e28:	00000021 	move	zero,zero
    7e2c:	00000021 	move	zero,zero
    7e30:	00000021 	move	zero,zero
    7e34:	00000021 	move	zero,zero
    7e38:	00000021 	move	zero,zero
    7e3c:	3c083ff1 	lui	t0,0x3ff1
    7e40:	3508e0f4 	ori	t0,t0,0xe0f4
    7e44:	1d00ffe9 	bgtz	t0,7dec <n32_bgtz_test+0x7dec>
    7e48:	00000000 	nop
    7e4c:	10000009 	b	7e74 <n32_bgtz_test+0x7e74>
    7e50:	00000000 	nop
    7e54:	00000000 	nop
    7e58:	00000021 	move	zero,zero
    7e5c:	00000021 	move	zero,zero
    7e60:	00000021 	move	zero,zero
    7e64:	00000021 	move	zero,zero
    7e68:	00000021 	move	zero,zero
    7e6c:	3c1204e0 	lui	s2,0x4e0
    7e70:	3652f6a8 	ori	s2,s2,0xf6a8
    7e74:	00000000 	nop
    7e78:	3c14e4f0 	lui	s4,0xe4f0
    7e7c:	3694214a 	ori	s4,s4,0x214a
    7e80:	16140924 	bne	s0,s4,a314 <inst_error>
    7e84:	00000000 	nop
    7e88:	00000000 	nop
    7e8c:	3c1504e0 	lui	s5,0x4e0
    7e90:	36b5f6a8 	ori	s5,s5,0xf6a8
    7e94:	1655091f 	bne	s2,s5,a314 <inst_error>
    7e98:	00000000 	nop
    7e9c:	00000000 	nop
    7ea0:	3c0c42fd 	lui	t4,0x42fd
    7ea4:	358cba86 	ori	t4,t4,0xba86
    7ea8:	3c0dd6b2 	lui	t5,0xd6b2
    7eac:	35ad79b8 	ori	t5,t5,0x79b8
    7eb0:	24100000 	li	s0,0
    7eb4:	10000016 	b	7f10 <n32_bgtz_test+0x7f10>
    7eb8:	24120000 	li	s2,0
    7ebc:	00000000 	nop
    7ec0:	3c1042fd 	lui	s0,0x42fd
    7ec4:	1d00001e 	bgtz	t0,7f40 <n32_bgtz_test+0x7f40>
    7ec8:	3610ba86 	ori	s0,s0,0xba86
    7ecc:	1000001e 	b	7f48 <n32_bgtz_test+0x7f48>
    7ed0:	00000000 	nop
    7ed4:	00000000 	nop
    7ed8:	00000021 	move	zero,zero
    7edc:	00000021 	move	zero,zero
    7ee0:	00000021 	move	zero,zero
    7ee4:	00000021 	move	zero,zero
    7ee8:	00000021 	move	zero,zero
    7eec:	00000021 	move	zero,zero
    7ef0:	00000021 	move	zero,zero
    7ef4:	00000021 	move	zero,zero
    7ef8:	00000021 	move	zero,zero
    7efc:	00000021 	move	zero,zero
    7f00:	00000021 	move	zero,zero
    7f04:	00000021 	move	zero,zero
    7f08:	00000021 	move	zero,zero
    7f0c:	00000021 	move	zero,zero
    7f10:	3c081f22 	lui	t0,0x1f22
    7f14:	35084d19 	ori	t0,t0,0x4d19
    7f18:	1d00ffe9 	bgtz	t0,7ec0 <n32_bgtz_test+0x7ec0>
    7f1c:	00000000 	nop
    7f20:	10000009 	b	7f48 <n32_bgtz_test+0x7f48>
    7f24:	00000000 	nop
    7f28:	00000000 	nop
    7f2c:	00000021 	move	zero,zero
    7f30:	00000021 	move	zero,zero
    7f34:	00000021 	move	zero,zero
    7f38:	00000021 	move	zero,zero
    7f3c:	00000021 	move	zero,zero
    7f40:	3c12d6b2 	lui	s2,0xd6b2
    7f44:	365279b8 	ori	s2,s2,0x79b8
    7f48:	00000000 	nop
    7f4c:	3c1442fd 	lui	s4,0x42fd
    7f50:	3694ba86 	ori	s4,s4,0xba86
    7f54:	161408ef 	bne	s0,s4,a314 <inst_error>
    7f58:	00000000 	nop
    7f5c:	00000000 	nop
    7f60:	3c15d6b2 	lui	s5,0xd6b2
    7f64:	36b579b8 	ori	s5,s5,0x79b8
    7f68:	165508ea 	bne	s2,s5,a314 <inst_error>
    7f6c:	00000000 	nop
    7f70:	00000000 	nop
    7f74:	3c0c75ee 	lui	t4,0x75ee
    7f78:	358cc590 	ori	t4,t4,0xc590
    7f7c:	3c0db94a 	lui	t5,0xb94a
    7f80:	35ad60f8 	ori	t5,t5,0x60f8
    7f84:	24100000 	li	s0,0
    7f88:	10000016 	b	7fe4 <n32_bgtz_test+0x7fe4>
    7f8c:	24120000 	li	s2,0
    7f90:	00000000 	nop
    7f94:	3c1075ee 	lui	s0,0x75ee
    7f98:	1d00001e 	bgtz	t0,8014 <n32_bgtz_test+0x8014>
    7f9c:	3610c590 	ori	s0,s0,0xc590
    7fa0:	1000001e 	b	801c <n32_bgtz_test+0x801c>
    7fa4:	00000000 	nop
    7fa8:	00000000 	nop
    7fac:	00000021 	move	zero,zero
    7fb0:	00000021 	move	zero,zero
    7fb4:	00000021 	move	zero,zero
    7fb8:	00000021 	move	zero,zero
    7fbc:	00000021 	move	zero,zero
    7fc0:	00000021 	move	zero,zero
    7fc4:	00000021 	move	zero,zero
    7fc8:	00000021 	move	zero,zero
    7fcc:	00000021 	move	zero,zero
    7fd0:	00000021 	move	zero,zero
    7fd4:	00000021 	move	zero,zero
    7fd8:	00000021 	move	zero,zero
    7fdc:	00000021 	move	zero,zero
    7fe0:	00000021 	move	zero,zero
    7fe4:	3c0899d2 	lui	t0,0x99d2
    7fe8:	3508a174 	ori	t0,t0,0xa174
    7fec:	1d00ffe9 	bgtz	t0,7f94 <n32_bgtz_test+0x7f94>
    7ff0:	00000000 	nop
    7ff4:	10000009 	b	801c <n32_bgtz_test+0x801c>
    7ff8:	00000000 	nop
    7ffc:	00000000 	nop
    8000:	00000021 	move	zero,zero
    8004:	00000021 	move	zero,zero
    8008:	00000021 	move	zero,zero
    800c:	00000021 	move	zero,zero
    8010:	00000021 	move	zero,zero
    8014:	3c12b94a 	lui	s2,0xb94a
    8018:	365260f8 	ori	s2,s2,0x60f8
    801c:	00000000 	nop
    8020:	24140000 	li	s4,0
    8024:	161408bb 	bne	s0,s4,a314 <inst_error>
    8028:	00000000 	nop
    802c:	00000000 	nop
    8030:	24150000 	li	s5,0
    8034:	165508b7 	bne	s2,s5,a314 <inst_error>
    8038:	00000000 	nop
    803c:	00000000 	nop
    8040:	3c0c120e 	lui	t4,0x120e
    8044:	358ccf58 	ori	t4,t4,0xcf58
    8048:	3c0d9733 	lui	t5,0x9733
    804c:	35ad3f40 	ori	t5,t5,0x3f40
    8050:	24100000 	li	s0,0
    8054:	10000016 	b	80b0 <n32_bgtz_test+0x80b0>
    8058:	24120000 	li	s2,0
    805c:	00000000 	nop
    8060:	3c10120e 	lui	s0,0x120e
    8064:	1d00001e 	bgtz	t0,80e0 <n32_bgtz_test+0x80e0>
    8068:	3610cf58 	ori	s0,s0,0xcf58
    806c:	1000001e 	b	80e8 <n32_bgtz_test+0x80e8>
    8070:	00000000 	nop
    8074:	00000000 	nop
    8078:	00000021 	move	zero,zero
    807c:	00000021 	move	zero,zero
    8080:	00000021 	move	zero,zero
    8084:	00000021 	move	zero,zero
    8088:	00000021 	move	zero,zero
    808c:	00000021 	move	zero,zero
    8090:	00000021 	move	zero,zero
    8094:	00000021 	move	zero,zero
    8098:	00000021 	move	zero,zero
    809c:	00000021 	move	zero,zero
    80a0:	00000021 	move	zero,zero
    80a4:	00000021 	move	zero,zero
    80a8:	00000021 	move	zero,zero
    80ac:	00000021 	move	zero,zero
    80b0:	3c08d7cf 	lui	t0,0xd7cf
    80b4:	35080da0 	ori	t0,t0,0xda0
    80b8:	1d00ffe9 	bgtz	t0,8060 <n32_bgtz_test+0x8060>
    80bc:	00000000 	nop
    80c0:	10000009 	b	80e8 <n32_bgtz_test+0x80e8>
    80c4:	00000000 	nop
    80c8:	00000000 	nop
    80cc:	00000021 	move	zero,zero
    80d0:	00000021 	move	zero,zero
    80d4:	00000021 	move	zero,zero
    80d8:	00000021 	move	zero,zero
    80dc:	00000021 	move	zero,zero
    80e0:	3c129733 	lui	s2,0x9733
    80e4:	36523f40 	ori	s2,s2,0x3f40
    80e8:	00000000 	nop
    80ec:	24140000 	li	s4,0
    80f0:	16140888 	bne	s0,s4,a314 <inst_error>
    80f4:	00000000 	nop
    80f8:	00000000 	nop
    80fc:	24150000 	li	s5,0
    8100:	16550884 	bne	s2,s5,a314 <inst_error>
    8104:	00000000 	nop
    8108:	00000000 	nop
    810c:	3c0c5b46 	lui	t4,0x5b46
    8110:	358cfe3c 	ori	t4,t4,0xfe3c
    8114:	3c0d0b06 	lui	t5,0xb06
    8118:	35ad04e0 	ori	t5,t5,0x4e0
    811c:	24100000 	li	s0,0
    8120:	10000016 	b	817c <n32_bgtz_test+0x817c>
    8124:	24120000 	li	s2,0
    8128:	00000000 	nop
    812c:	3c105b46 	lui	s0,0x5b46
    8130:	1d00001e 	bgtz	t0,81ac <n32_bgtz_test+0x81ac>
    8134:	3610fe3c 	ori	s0,s0,0xfe3c
    8138:	1000001e 	b	81b4 <n32_bgtz_test+0x81b4>
    813c:	00000000 	nop
    8140:	00000000 	nop
    8144:	00000021 	move	zero,zero
    8148:	00000021 	move	zero,zero
    814c:	00000021 	move	zero,zero
    8150:	00000021 	move	zero,zero
    8154:	00000021 	move	zero,zero
    8158:	00000021 	move	zero,zero
    815c:	00000021 	move	zero,zero
    8160:	00000021 	move	zero,zero
    8164:	00000021 	move	zero,zero
    8168:	00000021 	move	zero,zero
    816c:	00000021 	move	zero,zero
    8170:	00000021 	move	zero,zero
    8174:	00000021 	move	zero,zero
    8178:	00000021 	move	zero,zero
    817c:	3c08adeb 	lui	t0,0xadeb
    8180:	3508a8ae 	ori	t0,t0,0xa8ae
    8184:	1d00ffe9 	bgtz	t0,812c <n32_bgtz_test+0x812c>
    8188:	00000000 	nop
    818c:	10000009 	b	81b4 <n32_bgtz_test+0x81b4>
    8190:	00000000 	nop
    8194:	00000000 	nop
    8198:	00000021 	move	zero,zero
    819c:	00000021 	move	zero,zero
    81a0:	00000021 	move	zero,zero
    81a4:	00000021 	move	zero,zero
    81a8:	00000021 	move	zero,zero
    81ac:	3c120b06 	lui	s2,0xb06
    81b0:	365204e0 	ori	s2,s2,0x4e0
    81b4:	00000000 	nop
    81b8:	24140000 	li	s4,0
    81bc:	16140855 	bne	s0,s4,a314 <inst_error>
    81c0:	00000000 	nop
    81c4:	00000000 	nop
    81c8:	24150000 	li	s5,0
    81cc:	16550851 	bne	s2,s5,a314 <inst_error>
    81d0:	00000000 	nop
    81d4:	00000000 	nop
    81d8:	3c0c55b8 	lui	t4,0x55b8
    81dc:	358c97bc 	ori	t4,t4,0x97bc
    81e0:	3c0d648c 	lui	t5,0x648c
    81e4:	35ad65aa 	ori	t5,t5,0x65aa
    81e8:	24100000 	li	s0,0
    81ec:	10000016 	b	8248 <n32_bgtz_test+0x8248>
    81f0:	24120000 	li	s2,0
    81f4:	00000000 	nop
    81f8:	3c1055b8 	lui	s0,0x55b8
    81fc:	1d00001e 	bgtz	t0,8278 <n32_bgtz_test+0x8278>
    8200:	361097bc 	ori	s0,s0,0x97bc
    8204:	1000001e 	b	8280 <n32_bgtz_test+0x8280>
    8208:	00000000 	nop
    820c:	00000000 	nop
    8210:	00000021 	move	zero,zero
    8214:	00000021 	move	zero,zero
    8218:	00000021 	move	zero,zero
    821c:	00000021 	move	zero,zero
    8220:	00000021 	move	zero,zero
    8224:	00000021 	move	zero,zero
    8228:	00000021 	move	zero,zero
    822c:	00000021 	move	zero,zero
    8230:	00000021 	move	zero,zero
    8234:	00000021 	move	zero,zero
    8238:	00000021 	move	zero,zero
    823c:	00000021 	move	zero,zero
    8240:	00000021 	move	zero,zero
    8244:	00000021 	move	zero,zero
    8248:	3c08e699 	lui	t0,0xe699
    824c:	35084510 	ori	t0,t0,0x4510
    8250:	1d00ffe9 	bgtz	t0,81f8 <n32_bgtz_test+0x81f8>
    8254:	00000000 	nop
    8258:	10000009 	b	8280 <n32_bgtz_test+0x8280>
    825c:	00000000 	nop
    8260:	00000000 	nop
    8264:	00000021 	move	zero,zero
    8268:	00000021 	move	zero,zero
    826c:	00000021 	move	zero,zero
    8270:	00000021 	move	zero,zero
    8274:	00000021 	move	zero,zero
    8278:	3c12648c 	lui	s2,0x648c
    827c:	365265aa 	ori	s2,s2,0x65aa
    8280:	00000000 	nop
    8284:	24140000 	li	s4,0
    8288:	16140822 	bne	s0,s4,a314 <inst_error>
    828c:	00000000 	nop
    8290:	00000000 	nop
    8294:	24150000 	li	s5,0
    8298:	1655081e 	bne	s2,s5,a314 <inst_error>
    829c:	00000000 	nop
    82a0:	00000000 	nop
    82a4:	3c0ccacb 	lui	t4,0xcacb
    82a8:	358cc700 	ori	t4,t4,0xc700
    82ac:	3c0d13e5 	lui	t5,0x13e5
    82b0:	35adb154 	ori	t5,t5,0xb154
    82b4:	24100000 	li	s0,0
    82b8:	10000016 	b	8314 <n32_bgtz_test+0x8314>
    82bc:	24120000 	li	s2,0
    82c0:	00000000 	nop
    82c4:	3c10cacb 	lui	s0,0xcacb
    82c8:	1d00001e 	bgtz	t0,8344 <n32_bgtz_test+0x8344>
    82cc:	3610c700 	ori	s0,s0,0xc700
    82d0:	1000001e 	b	834c <n32_bgtz_test+0x834c>
    82d4:	00000000 	nop
    82d8:	00000000 	nop
    82dc:	00000021 	move	zero,zero
    82e0:	00000021 	move	zero,zero
    82e4:	00000021 	move	zero,zero
    82e8:	00000021 	move	zero,zero
    82ec:	00000021 	move	zero,zero
    82f0:	00000021 	move	zero,zero
    82f4:	00000021 	move	zero,zero
    82f8:	00000021 	move	zero,zero
    82fc:	00000021 	move	zero,zero
    8300:	00000021 	move	zero,zero
    8304:	00000021 	move	zero,zero
    8308:	00000021 	move	zero,zero
    830c:	00000021 	move	zero,zero
    8310:	00000021 	move	zero,zero
    8314:	3c085e60 	lui	t0,0x5e60
    8318:	35084b62 	ori	t0,t0,0x4b62
    831c:	1d00ffe9 	bgtz	t0,82c4 <n32_bgtz_test+0x82c4>
    8320:	00000000 	nop
    8324:	10000009 	b	834c <n32_bgtz_test+0x834c>
    8328:	00000000 	nop
    832c:	00000000 	nop
    8330:	00000021 	move	zero,zero
    8334:	00000021 	move	zero,zero
    8338:	00000021 	move	zero,zero
    833c:	00000021 	move	zero,zero
    8340:	00000021 	move	zero,zero
    8344:	3c1213e5 	lui	s2,0x13e5
    8348:	3652b154 	ori	s2,s2,0xb154
    834c:	00000000 	nop
    8350:	3c14cacb 	lui	s4,0xcacb
    8354:	3694c700 	ori	s4,s4,0xc700
    8358:	161407ee 	bne	s0,s4,a314 <inst_error>
    835c:	00000000 	nop
    8360:	00000000 	nop
    8364:	3c1513e5 	lui	s5,0x13e5
    8368:	36b5b154 	ori	s5,s5,0xb154
    836c:	165507e9 	bne	s2,s5,a314 <inst_error>
    8370:	00000000 	nop
    8374:	00000000 	nop
    8378:	3c0c36c8 	lui	t4,0x36c8
    837c:	358c3c00 	ori	t4,t4,0x3c00
    8380:	3c0daa6e 	lui	t5,0xaa6e
    8384:	35ad1e28 	ori	t5,t5,0x1e28
    8388:	24100000 	li	s0,0
    838c:	10000016 	b	83e8 <n32_bgtz_test+0x83e8>
    8390:	24120000 	li	s2,0
    8394:	00000000 	nop
    8398:	3c1036c8 	lui	s0,0x36c8
    839c:	1d00001e 	bgtz	t0,8418 <n32_bgtz_test+0x8418>
    83a0:	36103c00 	ori	s0,s0,0x3c00
    83a4:	1000001e 	b	8420 <n32_bgtz_test+0x8420>
    83a8:	00000000 	nop
    83ac:	00000000 	nop
    83b0:	00000021 	move	zero,zero
    83b4:	00000021 	move	zero,zero
    83b8:	00000021 	move	zero,zero
    83bc:	00000021 	move	zero,zero
    83c0:	00000021 	move	zero,zero
    83c4:	00000021 	move	zero,zero
    83c8:	00000021 	move	zero,zero
    83cc:	00000021 	move	zero,zero
    83d0:	00000021 	move	zero,zero
    83d4:	00000021 	move	zero,zero
    83d8:	00000021 	move	zero,zero
    83dc:	00000021 	move	zero,zero
    83e0:	00000021 	move	zero,zero
    83e4:	00000021 	move	zero,zero
    83e8:	3c081426 	lui	t0,0x1426
    83ec:	3508e60c 	ori	t0,t0,0xe60c
    83f0:	1d00ffe9 	bgtz	t0,8398 <n32_bgtz_test+0x8398>
    83f4:	00000000 	nop
    83f8:	10000009 	b	8420 <n32_bgtz_test+0x8420>
    83fc:	00000000 	nop
    8400:	00000000 	nop
    8404:	00000021 	move	zero,zero
    8408:	00000021 	move	zero,zero
    840c:	00000021 	move	zero,zero
    8410:	00000021 	move	zero,zero
    8414:	00000021 	move	zero,zero
    8418:	3c12aa6e 	lui	s2,0xaa6e
    841c:	36521e28 	ori	s2,s2,0x1e28
    8420:	00000000 	nop
    8424:	3c1436c8 	lui	s4,0x36c8
    8428:	36943c00 	ori	s4,s4,0x3c00
    842c:	161407b9 	bne	s0,s4,a314 <inst_error>
    8430:	00000000 	nop
    8434:	00000000 	nop
    8438:	3c15aa6e 	lui	s5,0xaa6e
    843c:	36b51e28 	ori	s5,s5,0x1e28
    8440:	165507b4 	bne	s2,s5,a314 <inst_error>
    8444:	00000000 	nop
    8448:	00000000 	nop
    844c:	3c0cd42f 	lui	t4,0xd42f
    8450:	358c4088 	ori	t4,t4,0x4088
    8454:	3c0d8628 	lui	t5,0x8628
    8458:	35adb4ed 	ori	t5,t5,0xb4ed
    845c:	24100000 	li	s0,0
    8460:	10000016 	b	84bc <n32_bgtz_test+0x84bc>
    8464:	24120000 	li	s2,0
    8468:	00000000 	nop
    846c:	3c10d42f 	lui	s0,0xd42f
    8470:	1d00001e 	bgtz	t0,84ec <n32_bgtz_test+0x84ec>
    8474:	36104088 	ori	s0,s0,0x4088
    8478:	1000001e 	b	84f4 <n32_bgtz_test+0x84f4>
    847c:	00000000 	nop
    8480:	00000000 	nop
    8484:	00000021 	move	zero,zero
    8488:	00000021 	move	zero,zero
    848c:	00000021 	move	zero,zero
    8490:	00000021 	move	zero,zero
    8494:	00000021 	move	zero,zero
    8498:	00000021 	move	zero,zero
    849c:	00000021 	move	zero,zero
    84a0:	00000021 	move	zero,zero
    84a4:	00000021 	move	zero,zero
    84a8:	00000021 	move	zero,zero
    84ac:	00000021 	move	zero,zero
    84b0:	00000021 	move	zero,zero
    84b4:	00000021 	move	zero,zero
    84b8:	00000021 	move	zero,zero
    84bc:	3c08e954 	lui	t0,0xe954
    84c0:	35084e1c 	ori	t0,t0,0x4e1c
    84c4:	1d00ffe9 	bgtz	t0,846c <n32_bgtz_test+0x846c>
    84c8:	00000000 	nop
    84cc:	10000009 	b	84f4 <n32_bgtz_test+0x84f4>
    84d0:	00000000 	nop
    84d4:	00000000 	nop
    84d8:	00000021 	move	zero,zero
    84dc:	00000021 	move	zero,zero
    84e0:	00000021 	move	zero,zero
    84e4:	00000021 	move	zero,zero
    84e8:	00000021 	move	zero,zero
    84ec:	3c128628 	lui	s2,0x8628
    84f0:	3652b4ed 	ori	s2,s2,0xb4ed
    84f4:	00000000 	nop
    84f8:	24140000 	li	s4,0
    84fc:	16140785 	bne	s0,s4,a314 <inst_error>
    8500:	00000000 	nop
    8504:	00000000 	nop
    8508:	24150000 	li	s5,0
    850c:	16550781 	bne	s2,s5,a314 <inst_error>
    8510:	00000000 	nop
    8514:	00000000 	nop
    8518:	3c0c6225 	lui	t4,0x6225
    851c:	358c93c8 	ori	t4,t4,0x93c8
    8520:	3c0dde25 	lui	t5,0xde25
    8524:	35ad8640 	ori	t5,t5,0x8640
    8528:	24100000 	li	s0,0
    852c:	10000016 	b	8588 <n32_bgtz_test+0x8588>
    8530:	24120000 	li	s2,0
    8534:	00000000 	nop
    8538:	3c106225 	lui	s0,0x6225
    853c:	1d00001e 	bgtz	t0,85b8 <n32_bgtz_test+0x85b8>
    8540:	361093c8 	ori	s0,s0,0x93c8
    8544:	1000001e 	b	85c0 <n32_bgtz_test+0x85c0>
    8548:	00000000 	nop
    854c:	00000000 	nop
    8550:	00000021 	move	zero,zero
    8554:	00000021 	move	zero,zero
    8558:	00000021 	move	zero,zero
    855c:	00000021 	move	zero,zero
    8560:	00000021 	move	zero,zero
    8564:	00000021 	move	zero,zero
    8568:	00000021 	move	zero,zero
    856c:	00000021 	move	zero,zero
    8570:	00000021 	move	zero,zero
    8574:	00000021 	move	zero,zero
    8578:	00000021 	move	zero,zero
    857c:	00000021 	move	zero,zero
    8580:	00000021 	move	zero,zero
    8584:	00000021 	move	zero,zero
    8588:	3c089865 	lui	t0,0x9865
    858c:	3508b63c 	ori	t0,t0,0xb63c
    8590:	1d00ffe9 	bgtz	t0,8538 <n32_bgtz_test+0x8538>
    8594:	00000000 	nop
    8598:	10000009 	b	85c0 <n32_bgtz_test+0x85c0>
    859c:	00000000 	nop
    85a0:	00000000 	nop
    85a4:	00000021 	move	zero,zero
    85a8:	00000021 	move	zero,zero
    85ac:	00000021 	move	zero,zero
    85b0:	00000021 	move	zero,zero
    85b4:	00000021 	move	zero,zero
    85b8:	3c12de25 	lui	s2,0xde25
    85bc:	36528640 	ori	s2,s2,0x8640
    85c0:	00000000 	nop
    85c4:	24140000 	li	s4,0
    85c8:	16140752 	bne	s0,s4,a314 <inst_error>
    85cc:	00000000 	nop
    85d0:	00000000 	nop
    85d4:	24150000 	li	s5,0
    85d8:	1655074e 	bne	s2,s5,a314 <inst_error>
    85dc:	00000000 	nop
    85e0:	00000000 	nop
    85e4:	3c0ccd36 	lui	t4,0xcd36
    85e8:	358cba20 	ori	t4,t4,0xba20
    85ec:	3c0d18d8 	lui	t5,0x18d8
    85f0:	35adb0d0 	ori	t5,t5,0xb0d0
    85f4:	24100000 	li	s0,0
    85f8:	10000016 	b	8654 <n32_bgtz_test+0x8654>
    85fc:	24120000 	li	s2,0
    8600:	00000000 	nop
    8604:	3c10cd36 	lui	s0,0xcd36
    8608:	1d00001e 	bgtz	t0,8684 <n32_bgtz_test+0x8684>
    860c:	3610ba20 	ori	s0,s0,0xba20
    8610:	1000001e 	b	868c <n32_bgtz_test+0x868c>
    8614:	00000000 	nop
    8618:	00000000 	nop
    861c:	00000021 	move	zero,zero
    8620:	00000021 	move	zero,zero
    8624:	00000021 	move	zero,zero
    8628:	00000021 	move	zero,zero
    862c:	00000021 	move	zero,zero
    8630:	00000021 	move	zero,zero
    8634:	00000021 	move	zero,zero
    8638:	00000021 	move	zero,zero
    863c:	00000021 	move	zero,zero
    8640:	00000021 	move	zero,zero
    8644:	00000021 	move	zero,zero
    8648:	00000021 	move	zero,zero
    864c:	00000021 	move	zero,zero
    8650:	00000021 	move	zero,zero
    8654:	3c086b5b 	lui	t0,0x6b5b
    8658:	3508ebb4 	ori	t0,t0,0xebb4
    865c:	1d00ffe9 	bgtz	t0,8604 <n32_bgtz_test+0x8604>
    8660:	00000000 	nop
    8664:	10000009 	b	868c <n32_bgtz_test+0x868c>
    8668:	00000000 	nop
    866c:	00000000 	nop
    8670:	00000021 	move	zero,zero
    8674:	00000021 	move	zero,zero
    8678:	00000021 	move	zero,zero
    867c:	00000021 	move	zero,zero
    8680:	00000021 	move	zero,zero
    8684:	3c1218d8 	lui	s2,0x18d8
    8688:	3652b0d0 	ori	s2,s2,0xb0d0
    868c:	00000000 	nop
    8690:	3c14cd36 	lui	s4,0xcd36
    8694:	3694ba20 	ori	s4,s4,0xba20
    8698:	1614071e 	bne	s0,s4,a314 <inst_error>
    869c:	00000000 	nop
    86a0:	00000000 	nop
    86a4:	3c1518d8 	lui	s5,0x18d8
    86a8:	36b5b0d0 	ori	s5,s5,0xb0d0
    86ac:	16550719 	bne	s2,s5,a314 <inst_error>
    86b0:	00000000 	nop
    86b4:	00000000 	nop
    86b8:	3c0c697e 	lui	t4,0x697e
    86bc:	358c04c8 	ori	t4,t4,0x4c8
    86c0:	3c0d883c 	lui	t5,0x883c
    86c4:	35ad94b6 	ori	t5,t5,0x94b6
    86c8:	24100000 	li	s0,0
    86cc:	10000016 	b	8728 <n32_bgtz_test+0x8728>
    86d0:	24120000 	li	s2,0
    86d4:	00000000 	nop
    86d8:	3c10697e 	lui	s0,0x697e
    86dc:	1d00001e 	bgtz	t0,8758 <n32_bgtz_test+0x8758>
    86e0:	361004c8 	ori	s0,s0,0x4c8
    86e4:	1000001e 	b	8760 <n32_bgtz_test+0x8760>
    86e8:	00000000 	nop
    86ec:	00000000 	nop
    86f0:	00000021 	move	zero,zero
    86f4:	00000021 	move	zero,zero
    86f8:	00000021 	move	zero,zero
    86fc:	00000021 	move	zero,zero
    8700:	00000021 	move	zero,zero
    8704:	00000021 	move	zero,zero
    8708:	00000021 	move	zero,zero
    870c:	00000021 	move	zero,zero
    8710:	00000021 	move	zero,zero
    8714:	00000021 	move	zero,zero
    8718:	00000021 	move	zero,zero
    871c:	00000021 	move	zero,zero
    8720:	00000021 	move	zero,zero
    8724:	00000021 	move	zero,zero
    8728:	3c08e9b1 	lui	t0,0xe9b1
    872c:	3508b5f0 	ori	t0,t0,0xb5f0
    8730:	1d00ffe9 	bgtz	t0,86d8 <n32_bgtz_test+0x86d8>
    8734:	00000000 	nop
    8738:	10000009 	b	8760 <n32_bgtz_test+0x8760>
    873c:	00000000 	nop
    8740:	00000000 	nop
    8744:	00000021 	move	zero,zero
    8748:	00000021 	move	zero,zero
    874c:	00000021 	move	zero,zero
    8750:	00000021 	move	zero,zero
    8754:	00000021 	move	zero,zero
    8758:	3c12883c 	lui	s2,0x883c
    875c:	365294b6 	ori	s2,s2,0x94b6
    8760:	00000000 	nop
    8764:	24140000 	li	s4,0
    8768:	161406ea 	bne	s0,s4,a314 <inst_error>
    876c:	00000000 	nop
    8770:	00000000 	nop
    8774:	24150000 	li	s5,0
    8778:	165506e6 	bne	s2,s5,a314 <inst_error>
    877c:	00000000 	nop
    8780:	00000000 	nop
    8784:	3c0cca37 	lui	t4,0xca37
    8788:	358c7894 	ori	t4,t4,0x7894
    878c:	3c0dab5f 	lui	t5,0xab5f
    8790:	35ad9b60 	ori	t5,t5,0x9b60
    8794:	24100000 	li	s0,0
    8798:	10000016 	b	87f4 <n32_bgtz_test+0x87f4>
    879c:	24120000 	li	s2,0
    87a0:	00000000 	nop
    87a4:	3c10ca37 	lui	s0,0xca37
    87a8:	1d00001e 	bgtz	t0,8824 <n32_bgtz_test+0x8824>
    87ac:	36107894 	ori	s0,s0,0x7894
    87b0:	1000001e 	b	882c <n32_bgtz_test+0x882c>
    87b4:	00000000 	nop
    87b8:	00000000 	nop
    87bc:	00000021 	move	zero,zero
    87c0:	00000021 	move	zero,zero
    87c4:	00000021 	move	zero,zero
    87c8:	00000021 	move	zero,zero
    87cc:	00000021 	move	zero,zero
    87d0:	00000021 	move	zero,zero
    87d4:	00000021 	move	zero,zero
    87d8:	00000021 	move	zero,zero
    87dc:	00000021 	move	zero,zero
    87e0:	00000021 	move	zero,zero
    87e4:	00000021 	move	zero,zero
    87e8:	00000021 	move	zero,zero
    87ec:	00000021 	move	zero,zero
    87f0:	00000021 	move	zero,zero
    87f4:	3c089d48 	lui	t0,0x9d48
    87f8:	350823f0 	ori	t0,t0,0x23f0
    87fc:	1d00ffe9 	bgtz	t0,87a4 <n32_bgtz_test+0x87a4>
    8800:	00000000 	nop
    8804:	10000009 	b	882c <n32_bgtz_test+0x882c>
    8808:	00000000 	nop
    880c:	00000000 	nop
    8810:	00000021 	move	zero,zero
    8814:	00000021 	move	zero,zero
    8818:	00000021 	move	zero,zero
    881c:	00000021 	move	zero,zero
    8820:	00000021 	move	zero,zero
    8824:	3c12ab5f 	lui	s2,0xab5f
    8828:	36529b60 	ori	s2,s2,0x9b60
    882c:	00000000 	nop
    8830:	24140000 	li	s4,0
    8834:	161406b7 	bne	s0,s4,a314 <inst_error>
    8838:	00000000 	nop
    883c:	00000000 	nop
    8840:	24150000 	li	s5,0
    8844:	165506b3 	bne	s2,s5,a314 <inst_error>
    8848:	00000000 	nop
    884c:	00000000 	nop
    8850:	3c0cd01d 	lui	t4,0xd01d
    8854:	358c6f48 	ori	t4,t4,0x6f48
    8858:	3c0d3980 	lui	t5,0x3980
    885c:	35ad5640 	ori	t5,t5,0x5640
    8860:	24100000 	li	s0,0
    8864:	10000016 	b	88c0 <n32_bgtz_test+0x88c0>
    8868:	24120000 	li	s2,0
    886c:	00000000 	nop
    8870:	3c10d01d 	lui	s0,0xd01d
    8874:	1d00001e 	bgtz	t0,88f0 <n32_bgtz_test+0x88f0>
    8878:	36106f48 	ori	s0,s0,0x6f48
    887c:	1000001e 	b	88f8 <n32_bgtz_test+0x88f8>
    8880:	00000000 	nop
    8884:	00000000 	nop
    8888:	00000021 	move	zero,zero
    888c:	00000021 	move	zero,zero
    8890:	00000021 	move	zero,zero
    8894:	00000021 	move	zero,zero
    8898:	00000021 	move	zero,zero
    889c:	00000021 	move	zero,zero
    88a0:	00000021 	move	zero,zero
    88a4:	00000021 	move	zero,zero
    88a8:	00000021 	move	zero,zero
    88ac:	00000021 	move	zero,zero
    88b0:	00000021 	move	zero,zero
    88b4:	00000021 	move	zero,zero
    88b8:	00000021 	move	zero,zero
    88bc:	00000021 	move	zero,zero
    88c0:	3c0841ac 	lui	t0,0x41ac
    88c4:	35083ac4 	ori	t0,t0,0x3ac4
    88c8:	1d00ffe9 	bgtz	t0,8870 <n32_bgtz_test+0x8870>
    88cc:	00000000 	nop
    88d0:	10000009 	b	88f8 <n32_bgtz_test+0x88f8>
    88d4:	00000000 	nop
    88d8:	00000000 	nop
    88dc:	00000021 	move	zero,zero
    88e0:	00000021 	move	zero,zero
    88e4:	00000021 	move	zero,zero
    88e8:	00000021 	move	zero,zero
    88ec:	00000021 	move	zero,zero
    88f0:	3c123980 	lui	s2,0x3980
    88f4:	36525640 	ori	s2,s2,0x5640
    88f8:	00000000 	nop
    88fc:	3c14d01d 	lui	s4,0xd01d
    8900:	36946f48 	ori	s4,s4,0x6f48
    8904:	16140683 	bne	s0,s4,a314 <inst_error>
    8908:	00000000 	nop
    890c:	00000000 	nop
    8910:	3c153980 	lui	s5,0x3980
    8914:	36b55640 	ori	s5,s5,0x5640
    8918:	1655067e 	bne	s2,s5,a314 <inst_error>
    891c:	00000000 	nop
    8920:	00000000 	nop
    8924:	3c0ccac0 	lui	t4,0xcac0
    8928:	358ce7b4 	ori	t4,t4,0xe7b4
    892c:	3c0dd163 	lui	t5,0xd163
    8930:	35ad2699 	ori	t5,t5,0x2699
    8934:	24100000 	li	s0,0
    8938:	10000016 	b	8994 <n32_bgtz_test+0x8994>
    893c:	24120000 	li	s2,0
    8940:	00000000 	nop
    8944:	3c10cac0 	lui	s0,0xcac0
    8948:	1d00001e 	bgtz	t0,89c4 <n32_bgtz_test+0x89c4>
    894c:	3610e7b4 	ori	s0,s0,0xe7b4
    8950:	1000001e 	b	89cc <n32_bgtz_test+0x89cc>
    8954:	00000000 	nop
    8958:	00000000 	nop
    895c:	00000021 	move	zero,zero
    8960:	00000021 	move	zero,zero
    8964:	00000021 	move	zero,zero
    8968:	00000021 	move	zero,zero
    896c:	00000021 	move	zero,zero
    8970:	00000021 	move	zero,zero
    8974:	00000021 	move	zero,zero
    8978:	00000021 	move	zero,zero
    897c:	00000021 	move	zero,zero
    8980:	00000021 	move	zero,zero
    8984:	00000021 	move	zero,zero
    8988:	00000021 	move	zero,zero
    898c:	00000021 	move	zero,zero
    8990:	00000021 	move	zero,zero
    8994:	3c08dbe1 	lui	t0,0xdbe1
    8998:	35081848 	ori	t0,t0,0x1848
    899c:	1d00ffe9 	bgtz	t0,8944 <n32_bgtz_test+0x8944>
    89a0:	00000000 	nop
    89a4:	10000009 	b	89cc <n32_bgtz_test+0x89cc>
    89a8:	00000000 	nop
    89ac:	00000000 	nop
    89b0:	00000021 	move	zero,zero
    89b4:	00000021 	move	zero,zero
    89b8:	00000021 	move	zero,zero
    89bc:	00000021 	move	zero,zero
    89c0:	00000021 	move	zero,zero
    89c4:	3c12d163 	lui	s2,0xd163
    89c8:	36522699 	ori	s2,s2,0x2699
    89cc:	00000000 	nop
    89d0:	24140000 	li	s4,0
    89d4:	1614064f 	bne	s0,s4,a314 <inst_error>
    89d8:	00000000 	nop
    89dc:	00000000 	nop
    89e0:	24150000 	li	s5,0
    89e4:	1655064b 	bne	s2,s5,a314 <inst_error>
    89e8:	00000000 	nop
    89ec:	00000000 	nop
    89f0:	3c0cb4be 	lui	t4,0xb4be
    89f4:	358cbe2c 	ori	t4,t4,0xbe2c
    89f8:	3c0d288e 	lui	t5,0x288e
    89fc:	35ad91ce 	ori	t5,t5,0x91ce
    8a00:	24100000 	li	s0,0
    8a04:	10000016 	b	8a60 <n32_bgtz_test+0x8a60>
    8a08:	24120000 	li	s2,0
    8a0c:	00000000 	nop
    8a10:	3c10b4be 	lui	s0,0xb4be
    8a14:	1d00001e 	bgtz	t0,8a90 <n32_bgtz_test+0x8a90>
    8a18:	3610be2c 	ori	s0,s0,0xbe2c
    8a1c:	1000001e 	b	8a98 <n32_bgtz_test+0x8a98>
    8a20:	00000000 	nop
    8a24:	00000000 	nop
    8a28:	00000021 	move	zero,zero
    8a2c:	00000021 	move	zero,zero
    8a30:	00000021 	move	zero,zero
    8a34:	00000021 	move	zero,zero
    8a38:	00000021 	move	zero,zero
    8a3c:	00000021 	move	zero,zero
    8a40:	00000021 	move	zero,zero
    8a44:	00000021 	move	zero,zero
    8a48:	00000021 	move	zero,zero
    8a4c:	00000021 	move	zero,zero
    8a50:	00000021 	move	zero,zero
    8a54:	00000021 	move	zero,zero
    8a58:	00000021 	move	zero,zero
    8a5c:	00000021 	move	zero,zero
    8a60:	3c083b66 	lui	t0,0x3b66
    8a64:	3508064e 	ori	t0,t0,0x64e
    8a68:	1d00ffe9 	bgtz	t0,8a10 <n32_bgtz_test+0x8a10>
    8a6c:	00000000 	nop
    8a70:	10000009 	b	8a98 <n32_bgtz_test+0x8a98>
    8a74:	00000000 	nop
    8a78:	00000000 	nop
    8a7c:	00000021 	move	zero,zero
    8a80:	00000021 	move	zero,zero
    8a84:	00000021 	move	zero,zero
    8a88:	00000021 	move	zero,zero
    8a8c:	00000021 	move	zero,zero
    8a90:	3c12288e 	lui	s2,0x288e
    8a94:	365291ce 	ori	s2,s2,0x91ce
    8a98:	00000000 	nop
    8a9c:	3c14b4be 	lui	s4,0xb4be
    8aa0:	3694be2c 	ori	s4,s4,0xbe2c
    8aa4:	1614061b 	bne	s0,s4,a314 <inst_error>
    8aa8:	00000000 	nop
    8aac:	00000000 	nop
    8ab0:	3c15288e 	lui	s5,0x288e
    8ab4:	36b591ce 	ori	s5,s5,0x91ce
    8ab8:	16550616 	bne	s2,s5,a314 <inst_error>
    8abc:	00000000 	nop
    8ac0:	00000000 	nop
    8ac4:	3c0cf4f4 	lui	t4,0xf4f4
    8ac8:	358cff50 	ori	t4,t4,0xff50
    8acc:	3c0d2067 	lui	t5,0x2067
    8ad0:	35ad0814 	ori	t5,t5,0x814
    8ad4:	24100000 	li	s0,0
    8ad8:	10000016 	b	8b34 <n32_bgtz_test+0x8b34>
    8adc:	24120000 	li	s2,0
    8ae0:	00000000 	nop
    8ae4:	3c10f4f4 	lui	s0,0xf4f4
    8ae8:	1d00001e 	bgtz	t0,8b64 <n32_bgtz_test+0x8b64>
    8aec:	3610ff50 	ori	s0,s0,0xff50
    8af0:	1000001e 	b	8b6c <n32_bgtz_test+0x8b6c>
    8af4:	00000000 	nop
    8af8:	00000000 	nop
    8afc:	00000021 	move	zero,zero
    8b00:	00000021 	move	zero,zero
    8b04:	00000021 	move	zero,zero
    8b08:	00000021 	move	zero,zero
    8b0c:	00000021 	move	zero,zero
    8b10:	00000021 	move	zero,zero
    8b14:	00000021 	move	zero,zero
    8b18:	00000021 	move	zero,zero
    8b1c:	00000021 	move	zero,zero
    8b20:	00000021 	move	zero,zero
    8b24:	00000021 	move	zero,zero
    8b28:	00000021 	move	zero,zero
    8b2c:	00000021 	move	zero,zero
    8b30:	00000021 	move	zero,zero
    8b34:	3c08b8de 	lui	t0,0xb8de
    8b38:	3508fab4 	ori	t0,t0,0xfab4
    8b3c:	1d00ffe9 	bgtz	t0,8ae4 <n32_bgtz_test+0x8ae4>
    8b40:	00000000 	nop
    8b44:	10000009 	b	8b6c <n32_bgtz_test+0x8b6c>
    8b48:	00000000 	nop
    8b4c:	00000000 	nop
    8b50:	00000021 	move	zero,zero
    8b54:	00000021 	move	zero,zero
    8b58:	00000021 	move	zero,zero
    8b5c:	00000021 	move	zero,zero
    8b60:	00000021 	move	zero,zero
    8b64:	3c122067 	lui	s2,0x2067
    8b68:	36520814 	ori	s2,s2,0x814
    8b6c:	00000000 	nop
    8b70:	24140000 	li	s4,0
    8b74:	161405e7 	bne	s0,s4,a314 <inst_error>
    8b78:	00000000 	nop
    8b7c:	00000000 	nop
    8b80:	24150000 	li	s5,0
    8b84:	165505e3 	bne	s2,s5,a314 <inst_error>
    8b88:	00000000 	nop
    8b8c:	00000000 	nop
    8b90:	3c0ceb1d 	lui	t4,0xeb1d
    8b94:	358cb9b1 	ori	t4,t4,0xb9b1
    8b98:	3c0de059 	lui	t5,0xe059
    8b9c:	35adf36e 	ori	t5,t5,0xf36e
    8ba0:	24100000 	li	s0,0
    8ba4:	10000016 	b	8c00 <n32_bgtz_test+0x8c00>
    8ba8:	24120000 	li	s2,0
    8bac:	00000000 	nop
    8bb0:	3c10eb1d 	lui	s0,0xeb1d
    8bb4:	1d00001e 	bgtz	t0,8c30 <n32_bgtz_test+0x8c30>
    8bb8:	3610b9b1 	ori	s0,s0,0xb9b1
    8bbc:	1000001e 	b	8c38 <n32_bgtz_test+0x8c38>
    8bc0:	00000000 	nop
    8bc4:	00000000 	nop
    8bc8:	00000021 	move	zero,zero
    8bcc:	00000021 	move	zero,zero
    8bd0:	00000021 	move	zero,zero
    8bd4:	00000021 	move	zero,zero
    8bd8:	00000021 	move	zero,zero
    8bdc:	00000021 	move	zero,zero
    8be0:	00000021 	move	zero,zero
    8be4:	00000021 	move	zero,zero
    8be8:	00000021 	move	zero,zero
    8bec:	00000021 	move	zero,zero
    8bf0:	00000021 	move	zero,zero
    8bf4:	00000021 	move	zero,zero
    8bf8:	00000021 	move	zero,zero
    8bfc:	00000021 	move	zero,zero
    8c00:	3c08877d 	lui	t0,0x877d
    8c04:	35085628 	ori	t0,t0,0x5628
    8c08:	1d00ffe9 	bgtz	t0,8bb0 <n32_bgtz_test+0x8bb0>
    8c0c:	00000000 	nop
    8c10:	10000009 	b	8c38 <n32_bgtz_test+0x8c38>
    8c14:	00000000 	nop
    8c18:	00000000 	nop
    8c1c:	00000021 	move	zero,zero
    8c20:	00000021 	move	zero,zero
    8c24:	00000021 	move	zero,zero
    8c28:	00000021 	move	zero,zero
    8c2c:	00000021 	move	zero,zero
    8c30:	3c12e059 	lui	s2,0xe059
    8c34:	3652f36e 	ori	s2,s2,0xf36e
    8c38:	00000000 	nop
    8c3c:	24140000 	li	s4,0
    8c40:	161405b4 	bne	s0,s4,a314 <inst_error>
    8c44:	00000000 	nop
    8c48:	00000000 	nop
    8c4c:	24150000 	li	s5,0
    8c50:	165505b0 	bne	s2,s5,a314 <inst_error>
    8c54:	00000000 	nop
    8c58:	00000000 	nop
    8c5c:	3c0c4e20 	lui	t4,0x4e20
    8c60:	358c18d5 	ori	t4,t4,0x18d5
    8c64:	3c0d393a 	lui	t5,0x393a
    8c68:	35ad9f64 	ori	t5,t5,0x9f64
    8c6c:	24100000 	li	s0,0
    8c70:	10000016 	b	8ccc <n32_bgtz_test+0x8ccc>
    8c74:	24120000 	li	s2,0
    8c78:	00000000 	nop
    8c7c:	3c104e20 	lui	s0,0x4e20
    8c80:	1d00001e 	bgtz	t0,8cfc <n32_bgtz_test+0x8cfc>
    8c84:	361018d5 	ori	s0,s0,0x18d5
    8c88:	1000001e 	b	8d04 <n32_bgtz_test+0x8d04>
    8c8c:	00000000 	nop
    8c90:	00000000 	nop
    8c94:	00000021 	move	zero,zero
    8c98:	00000021 	move	zero,zero
    8c9c:	00000021 	move	zero,zero
    8ca0:	00000021 	move	zero,zero
    8ca4:	00000021 	move	zero,zero
    8ca8:	00000021 	move	zero,zero
    8cac:	00000021 	move	zero,zero
    8cb0:	00000021 	move	zero,zero
    8cb4:	00000021 	move	zero,zero
    8cb8:	00000021 	move	zero,zero
    8cbc:	00000021 	move	zero,zero
    8cc0:	00000021 	move	zero,zero
    8cc4:	00000021 	move	zero,zero
    8cc8:	00000021 	move	zero,zero
    8ccc:	3c08fcfa 	lui	t0,0xfcfa
    8cd0:	3508b3cc 	ori	t0,t0,0xb3cc
    8cd4:	1d00ffe9 	bgtz	t0,8c7c <n32_bgtz_test+0x8c7c>
    8cd8:	00000000 	nop
    8cdc:	10000009 	b	8d04 <n32_bgtz_test+0x8d04>
    8ce0:	00000000 	nop
    8ce4:	00000000 	nop
    8ce8:	00000021 	move	zero,zero
    8cec:	00000021 	move	zero,zero
    8cf0:	00000021 	move	zero,zero
    8cf4:	00000021 	move	zero,zero
    8cf8:	00000021 	move	zero,zero
    8cfc:	3c12393a 	lui	s2,0x393a
    8d00:	36529f64 	ori	s2,s2,0x9f64
    8d04:	00000000 	nop
    8d08:	24140000 	li	s4,0
    8d0c:	16140581 	bne	s0,s4,a314 <inst_error>
    8d10:	00000000 	nop
    8d14:	00000000 	nop
    8d18:	24150000 	li	s5,0
    8d1c:	1655057d 	bne	s2,s5,a314 <inst_error>
    8d20:	00000000 	nop
    8d24:	00000000 	nop
    8d28:	3c0c1b9a 	lui	t4,0x1b9a
    8d2c:	358c5080 	ori	t4,t4,0x5080
    8d30:	3c0daefe 	lui	t5,0xaefe
    8d34:	35ad0d50 	ori	t5,t5,0xd50
    8d38:	24100000 	li	s0,0
    8d3c:	10000016 	b	8d98 <n32_bgtz_test+0x8d98>
    8d40:	24120000 	li	s2,0
    8d44:	00000000 	nop
    8d48:	3c101b9a 	lui	s0,0x1b9a
    8d4c:	1d00001e 	bgtz	t0,8dc8 <n32_bgtz_test+0x8dc8>
    8d50:	36105080 	ori	s0,s0,0x5080
    8d54:	1000001e 	b	8dd0 <n32_bgtz_test+0x8dd0>
    8d58:	00000000 	nop
    8d5c:	00000000 	nop
    8d60:	00000021 	move	zero,zero
    8d64:	00000021 	move	zero,zero
    8d68:	00000021 	move	zero,zero
    8d6c:	00000021 	move	zero,zero
    8d70:	00000021 	move	zero,zero
    8d74:	00000021 	move	zero,zero
    8d78:	00000021 	move	zero,zero
    8d7c:	00000021 	move	zero,zero
    8d80:	00000021 	move	zero,zero
    8d84:	00000021 	move	zero,zero
    8d88:	00000021 	move	zero,zero
    8d8c:	00000021 	move	zero,zero
    8d90:	00000021 	move	zero,zero
    8d94:	00000021 	move	zero,zero
    8d98:	3c083473 	lui	t0,0x3473
    8d9c:	3508c7d8 	ori	t0,t0,0xc7d8
    8da0:	1d00ffe9 	bgtz	t0,8d48 <n32_bgtz_test+0x8d48>
    8da4:	00000000 	nop
    8da8:	10000009 	b	8dd0 <n32_bgtz_test+0x8dd0>
    8dac:	00000000 	nop
    8db0:	00000000 	nop
    8db4:	00000021 	move	zero,zero
    8db8:	00000021 	move	zero,zero
    8dbc:	00000021 	move	zero,zero
    8dc0:	00000021 	move	zero,zero
    8dc4:	00000021 	move	zero,zero
    8dc8:	3c12aefe 	lui	s2,0xaefe
    8dcc:	36520d50 	ori	s2,s2,0xd50
    8dd0:	00000000 	nop
    8dd4:	3c141b9a 	lui	s4,0x1b9a
    8dd8:	36945080 	ori	s4,s4,0x5080
    8ddc:	1614054d 	bne	s0,s4,a314 <inst_error>
    8de0:	00000000 	nop
    8de4:	00000000 	nop
    8de8:	3c15aefe 	lui	s5,0xaefe
    8dec:	36b50d50 	ori	s5,s5,0xd50
    8df0:	16550548 	bne	s2,s5,a314 <inst_error>
    8df4:	00000000 	nop
    8df8:	00000000 	nop
    8dfc:	3c0c5030 	lui	t4,0x5030
    8e00:	358ccf1a 	ori	t4,t4,0xcf1a
    8e04:	3c0dd003 	lui	t5,0xd003
    8e08:	35adc6d0 	ori	t5,t5,0xc6d0
    8e0c:	24100000 	li	s0,0
    8e10:	10000016 	b	8e6c <n32_bgtz_test+0x8e6c>
    8e14:	24120000 	li	s2,0
    8e18:	00000000 	nop
    8e1c:	3c105030 	lui	s0,0x5030
    8e20:	1d00001e 	bgtz	t0,8e9c <n32_bgtz_test+0x8e9c>
    8e24:	3610cf1a 	ori	s0,s0,0xcf1a
    8e28:	1000001e 	b	8ea4 <n32_bgtz_test+0x8ea4>
    8e2c:	00000000 	nop
    8e30:	00000000 	nop
    8e34:	00000021 	move	zero,zero
    8e38:	00000021 	move	zero,zero
    8e3c:	00000021 	move	zero,zero
    8e40:	00000021 	move	zero,zero
    8e44:	00000021 	move	zero,zero
    8e48:	00000021 	move	zero,zero
    8e4c:	00000021 	move	zero,zero
    8e50:	00000021 	move	zero,zero
    8e54:	00000021 	move	zero,zero
    8e58:	00000021 	move	zero,zero
    8e5c:	00000021 	move	zero,zero
    8e60:	00000021 	move	zero,zero
    8e64:	00000021 	move	zero,zero
    8e68:	00000021 	move	zero,zero
    8e6c:	3c082a28 	lui	t0,0x2a28
    8e70:	3508b868 	ori	t0,t0,0xb868
    8e74:	1d00ffe9 	bgtz	t0,8e1c <n32_bgtz_test+0x8e1c>
    8e78:	00000000 	nop
    8e7c:	10000009 	b	8ea4 <n32_bgtz_test+0x8ea4>
    8e80:	00000000 	nop
    8e84:	00000000 	nop
    8e88:	00000021 	move	zero,zero
    8e8c:	00000021 	move	zero,zero
    8e90:	00000021 	move	zero,zero
    8e94:	00000021 	move	zero,zero
    8e98:	00000021 	move	zero,zero
    8e9c:	3c12d003 	lui	s2,0xd003
    8ea0:	3652c6d0 	ori	s2,s2,0xc6d0
    8ea4:	00000000 	nop
    8ea8:	3c145030 	lui	s4,0x5030
    8eac:	3694cf1a 	ori	s4,s4,0xcf1a
    8eb0:	16140518 	bne	s0,s4,a314 <inst_error>
    8eb4:	00000000 	nop
    8eb8:	00000000 	nop
    8ebc:	3c15d003 	lui	s5,0xd003
    8ec0:	36b5c6d0 	ori	s5,s5,0xc6d0
    8ec4:	16550513 	bne	s2,s5,a314 <inst_error>
    8ec8:	00000000 	nop
    8ecc:	00000000 	nop
    8ed0:	3c0c7ae9 	lui	t4,0x7ae9
    8ed4:	358ce85c 	ori	t4,t4,0xe85c
    8ed8:	3c0d20ca 	lui	t5,0x20ca
    8edc:	35ad10cc 	ori	t5,t5,0x10cc
    8ee0:	24100000 	li	s0,0
    8ee4:	10000016 	b	8f40 <n32_bgtz_test+0x8f40>
    8ee8:	24120000 	li	s2,0
    8eec:	00000000 	nop
    8ef0:	3c107ae9 	lui	s0,0x7ae9
    8ef4:	1d00001e 	bgtz	t0,8f70 <n32_bgtz_test+0x8f70>
    8ef8:	3610e85c 	ori	s0,s0,0xe85c
    8efc:	1000001e 	b	8f78 <n32_bgtz_test+0x8f78>
    8f00:	00000000 	nop
    8f04:	00000000 	nop
    8f08:	00000021 	move	zero,zero
    8f0c:	00000021 	move	zero,zero
    8f10:	00000021 	move	zero,zero
    8f14:	00000021 	move	zero,zero
    8f18:	00000021 	move	zero,zero
    8f1c:	00000021 	move	zero,zero
    8f20:	00000021 	move	zero,zero
    8f24:	00000021 	move	zero,zero
    8f28:	00000021 	move	zero,zero
    8f2c:	00000021 	move	zero,zero
    8f30:	00000021 	move	zero,zero
    8f34:	00000021 	move	zero,zero
    8f38:	00000021 	move	zero,zero
    8f3c:	00000021 	move	zero,zero
    8f40:	3c086a18 	lui	t0,0x6a18
    8f44:	35089190 	ori	t0,t0,0x9190
    8f48:	1d00ffe9 	bgtz	t0,8ef0 <n32_bgtz_test+0x8ef0>
    8f4c:	00000000 	nop
    8f50:	10000009 	b	8f78 <n32_bgtz_test+0x8f78>
    8f54:	00000000 	nop
    8f58:	00000000 	nop
    8f5c:	00000021 	move	zero,zero
    8f60:	00000021 	move	zero,zero
    8f64:	00000021 	move	zero,zero
    8f68:	00000021 	move	zero,zero
    8f6c:	00000021 	move	zero,zero
    8f70:	3c1220ca 	lui	s2,0x20ca
    8f74:	365210cc 	ori	s2,s2,0x10cc
    8f78:	00000000 	nop
    8f7c:	3c147ae9 	lui	s4,0x7ae9
    8f80:	3694e85c 	ori	s4,s4,0xe85c
    8f84:	161404e3 	bne	s0,s4,a314 <inst_error>
    8f88:	00000000 	nop
    8f8c:	00000000 	nop
    8f90:	3c1520ca 	lui	s5,0x20ca
    8f94:	36b510cc 	ori	s5,s5,0x10cc
    8f98:	165504de 	bne	s2,s5,a314 <inst_error>
    8f9c:	00000000 	nop
    8fa0:	00000000 	nop
    8fa4:	3c0c73b0 	lui	t4,0x73b0
    8fa8:	358cb7a0 	ori	t4,t4,0xb7a0
    8fac:	3c0d11d8 	lui	t5,0x11d8
    8fb0:	35ad3ebe 	ori	t5,t5,0x3ebe
    8fb4:	24100000 	li	s0,0
    8fb8:	10000016 	b	9014 <n32_bgtz_test+0x9014>
    8fbc:	24120000 	li	s2,0
    8fc0:	00000000 	nop
    8fc4:	3c1073b0 	lui	s0,0x73b0
    8fc8:	1d00001e 	bgtz	t0,9044 <n32_bgtz_test+0x9044>
    8fcc:	3610b7a0 	ori	s0,s0,0xb7a0
    8fd0:	1000001e 	b	904c <n32_bgtz_test+0x904c>
    8fd4:	00000000 	nop
    8fd8:	00000000 	nop
    8fdc:	00000021 	move	zero,zero
    8fe0:	00000021 	move	zero,zero
    8fe4:	00000021 	move	zero,zero
    8fe8:	00000021 	move	zero,zero
    8fec:	00000021 	move	zero,zero
    8ff0:	00000021 	move	zero,zero
    8ff4:	00000021 	move	zero,zero
    8ff8:	00000021 	move	zero,zero
    8ffc:	00000021 	move	zero,zero
    9000:	00000021 	move	zero,zero
    9004:	00000021 	move	zero,zero
    9008:	00000021 	move	zero,zero
    900c:	00000021 	move	zero,zero
    9010:	00000021 	move	zero,zero
    9014:	3c08a861 	lui	t0,0xa861
    9018:	35083940 	ori	t0,t0,0x3940
    901c:	1d00ffe9 	bgtz	t0,8fc4 <n32_bgtz_test+0x8fc4>
    9020:	00000000 	nop
    9024:	10000009 	b	904c <n32_bgtz_test+0x904c>
    9028:	00000000 	nop
    902c:	00000000 	nop
    9030:	00000021 	move	zero,zero
    9034:	00000021 	move	zero,zero
    9038:	00000021 	move	zero,zero
    903c:	00000021 	move	zero,zero
    9040:	00000021 	move	zero,zero
    9044:	3c1211d8 	lui	s2,0x11d8
    9048:	36523ebe 	ori	s2,s2,0x3ebe
    904c:	00000000 	nop
    9050:	24140000 	li	s4,0
    9054:	161404af 	bne	s0,s4,a314 <inst_error>
    9058:	00000000 	nop
    905c:	00000000 	nop
    9060:	24150000 	li	s5,0
    9064:	165504ab 	bne	s2,s5,a314 <inst_error>
    9068:	00000000 	nop
    906c:	00000000 	nop
    9070:	3c0c1e38 	lui	t4,0x1e38
    9074:	358cec8b 	ori	t4,t4,0xec8b
    9078:	3c0d5bfc 	lui	t5,0x5bfc
    907c:	35ad8a00 	ori	t5,t5,0x8a00
    9080:	24100000 	li	s0,0
    9084:	10000016 	b	90e0 <n32_bgtz_test+0x90e0>
    9088:	24120000 	li	s2,0
    908c:	00000000 	nop
    9090:	3c101e38 	lui	s0,0x1e38
    9094:	1d00001e 	bgtz	t0,9110 <n32_bgtz_test+0x9110>
    9098:	3610ec8b 	ori	s0,s0,0xec8b
    909c:	1000001e 	b	9118 <n32_bgtz_test+0x9118>
    90a0:	00000000 	nop
    90a4:	00000000 	nop
    90a8:	00000021 	move	zero,zero
    90ac:	00000021 	move	zero,zero
    90b0:	00000021 	move	zero,zero
    90b4:	00000021 	move	zero,zero
    90b8:	00000021 	move	zero,zero
    90bc:	00000021 	move	zero,zero
    90c0:	00000021 	move	zero,zero
    90c4:	00000021 	move	zero,zero
    90c8:	00000021 	move	zero,zero
    90cc:	00000021 	move	zero,zero
    90d0:	00000021 	move	zero,zero
    90d4:	00000021 	move	zero,zero
    90d8:	00000021 	move	zero,zero
    90dc:	00000021 	move	zero,zero
    90e0:	3c080c29 	lui	t0,0xc29
    90e4:	3508c4c4 	ori	t0,t0,0xc4c4
    90e8:	1d00ffe9 	bgtz	t0,9090 <n32_bgtz_test+0x9090>
    90ec:	00000000 	nop
    90f0:	10000009 	b	9118 <n32_bgtz_test+0x9118>
    90f4:	00000000 	nop
    90f8:	00000000 	nop
    90fc:	00000021 	move	zero,zero
    9100:	00000021 	move	zero,zero
    9104:	00000021 	move	zero,zero
    9108:	00000021 	move	zero,zero
    910c:	00000021 	move	zero,zero
    9110:	3c125bfc 	lui	s2,0x5bfc
    9114:	36528a00 	ori	s2,s2,0x8a00
    9118:	00000000 	nop
    911c:	3c141e38 	lui	s4,0x1e38
    9120:	3694ec8b 	ori	s4,s4,0xec8b
    9124:	1614047b 	bne	s0,s4,a314 <inst_error>
    9128:	00000000 	nop
    912c:	00000000 	nop
    9130:	3c155bfc 	lui	s5,0x5bfc
    9134:	36b58a00 	ori	s5,s5,0x8a00
    9138:	16550476 	bne	s2,s5,a314 <inst_error>
    913c:	00000000 	nop
    9140:	00000000 	nop
    9144:	3c0c4263 	lui	t4,0x4263
    9148:	358cffc0 	ori	t4,t4,0xffc0
    914c:	3c0d1226 	lui	t5,0x1226
    9150:	35ada178 	ori	t5,t5,0xa178
    9154:	24100000 	li	s0,0
    9158:	10000016 	b	91b4 <n32_bgtz_test+0x91b4>
    915c:	24120000 	li	s2,0
    9160:	00000000 	nop
    9164:	3c104263 	lui	s0,0x4263
    9168:	1d00001e 	bgtz	t0,91e4 <n32_bgtz_test+0x91e4>
    916c:	3610ffc0 	ori	s0,s0,0xffc0
    9170:	1000001e 	b	91ec <n32_bgtz_test+0x91ec>
    9174:	00000000 	nop
    9178:	00000000 	nop
    917c:	00000021 	move	zero,zero
    9180:	00000021 	move	zero,zero
    9184:	00000021 	move	zero,zero
    9188:	00000021 	move	zero,zero
    918c:	00000021 	move	zero,zero
    9190:	00000021 	move	zero,zero
    9194:	00000021 	move	zero,zero
    9198:	00000021 	move	zero,zero
    919c:	00000021 	move	zero,zero
    91a0:	00000021 	move	zero,zero
    91a4:	00000021 	move	zero,zero
    91a8:	00000021 	move	zero,zero
    91ac:	00000021 	move	zero,zero
    91b0:	00000021 	move	zero,zero
    91b4:	3c08b752 	lui	t0,0xb752
    91b8:	35080811 	ori	t0,t0,0x811
    91bc:	1d00ffe9 	bgtz	t0,9164 <n32_bgtz_test+0x9164>
    91c0:	00000000 	nop
    91c4:	10000009 	b	91ec <n32_bgtz_test+0x91ec>
    91c8:	00000000 	nop
    91cc:	00000000 	nop
    91d0:	00000021 	move	zero,zero
    91d4:	00000021 	move	zero,zero
    91d8:	00000021 	move	zero,zero
    91dc:	00000021 	move	zero,zero
    91e0:	00000021 	move	zero,zero
    91e4:	3c121226 	lui	s2,0x1226
    91e8:	3652a178 	ori	s2,s2,0xa178
    91ec:	00000000 	nop
    91f0:	24140000 	li	s4,0
    91f4:	16140447 	bne	s0,s4,a314 <inst_error>
    91f8:	00000000 	nop
    91fc:	00000000 	nop
    9200:	24150000 	li	s5,0
    9204:	16550443 	bne	s2,s5,a314 <inst_error>
    9208:	00000000 	nop
    920c:	00000000 	nop
    9210:	3c0c00e7 	lui	t4,0xe7
    9214:	358cc8a0 	ori	t4,t4,0xc8a0
    9218:	3c0d2763 	lui	t5,0x2763
    921c:	35ad5fe4 	ori	t5,t5,0x5fe4
    9220:	24100000 	li	s0,0
    9224:	10000016 	b	9280 <n32_bgtz_test+0x9280>
    9228:	24120000 	li	s2,0
    922c:	00000000 	nop
    9230:	3c1000e7 	lui	s0,0xe7
    9234:	1d00001e 	bgtz	t0,92b0 <n32_bgtz_test+0x92b0>
    9238:	3610c8a0 	ori	s0,s0,0xc8a0
    923c:	1000001e 	b	92b8 <n32_bgtz_test+0x92b8>
    9240:	00000000 	nop
    9244:	00000000 	nop
    9248:	00000021 	move	zero,zero
    924c:	00000021 	move	zero,zero
    9250:	00000021 	move	zero,zero
    9254:	00000021 	move	zero,zero
    9258:	00000021 	move	zero,zero
    925c:	00000021 	move	zero,zero
    9260:	00000021 	move	zero,zero
    9264:	00000021 	move	zero,zero
    9268:	00000021 	move	zero,zero
    926c:	00000021 	move	zero,zero
    9270:	00000021 	move	zero,zero
    9274:	00000021 	move	zero,zero
    9278:	00000021 	move	zero,zero
    927c:	00000021 	move	zero,zero
    9280:	3c08d479 	lui	t0,0xd479
    9284:	35089c00 	ori	t0,t0,0x9c00
    9288:	1d00ffe9 	bgtz	t0,9230 <n32_bgtz_test+0x9230>
    928c:	00000000 	nop
    9290:	10000009 	b	92b8 <n32_bgtz_test+0x92b8>
    9294:	00000000 	nop
    9298:	00000000 	nop
    929c:	00000021 	move	zero,zero
    92a0:	00000021 	move	zero,zero
    92a4:	00000021 	move	zero,zero
    92a8:	00000021 	move	zero,zero
    92ac:	00000021 	move	zero,zero
    92b0:	3c122763 	lui	s2,0x2763
    92b4:	36525fe4 	ori	s2,s2,0x5fe4
    92b8:	00000000 	nop
    92bc:	24140000 	li	s4,0
    92c0:	16140414 	bne	s0,s4,a314 <inst_error>
    92c4:	00000000 	nop
    92c8:	00000000 	nop
    92cc:	24150000 	li	s5,0
    92d0:	16550410 	bne	s2,s5,a314 <inst_error>
    92d4:	00000000 	nop
    92d8:	00000000 	nop
    92dc:	3c0cedca 	lui	t4,0xedca
    92e0:	358c9e57 	ori	t4,t4,0x9e57
    92e4:	3c0d2d35 	lui	t5,0x2d35
    92e8:	35ad6d72 	ori	t5,t5,0x6d72
    92ec:	24100000 	li	s0,0
    92f0:	10000016 	b	934c <n32_bgtz_test+0x934c>
    92f4:	24120000 	li	s2,0
    92f8:	00000000 	nop
    92fc:	3c10edca 	lui	s0,0xedca
    9300:	1d00001e 	bgtz	t0,937c <n32_bgtz_test+0x937c>
    9304:	36109e57 	ori	s0,s0,0x9e57
    9308:	1000001e 	b	9384 <n32_bgtz_test+0x9384>
    930c:	00000000 	nop
    9310:	00000000 	nop
    9314:	00000021 	move	zero,zero
    9318:	00000021 	move	zero,zero
    931c:	00000021 	move	zero,zero
    9320:	00000021 	move	zero,zero
    9324:	00000021 	move	zero,zero
    9328:	00000021 	move	zero,zero
    932c:	00000021 	move	zero,zero
    9330:	00000021 	move	zero,zero
    9334:	00000021 	move	zero,zero
    9338:	00000021 	move	zero,zero
    933c:	00000021 	move	zero,zero
    9340:	00000021 	move	zero,zero
    9344:	00000021 	move	zero,zero
    9348:	00000021 	move	zero,zero
    934c:	3c08bf22 	lui	t0,0xbf22
    9350:	3508f13a 	ori	t0,t0,0xf13a
    9354:	1d00ffe9 	bgtz	t0,92fc <n32_bgtz_test+0x92fc>
    9358:	00000000 	nop
    935c:	10000009 	b	9384 <n32_bgtz_test+0x9384>
    9360:	00000000 	nop
    9364:	00000000 	nop
    9368:	00000021 	move	zero,zero
    936c:	00000021 	move	zero,zero
    9370:	00000021 	move	zero,zero
    9374:	00000021 	move	zero,zero
    9378:	00000021 	move	zero,zero
    937c:	3c122d35 	lui	s2,0x2d35
    9380:	36526d72 	ori	s2,s2,0x6d72
    9384:	00000000 	nop
    9388:	24140000 	li	s4,0
    938c:	161403e1 	bne	s0,s4,a314 <inst_error>
    9390:	00000000 	nop
    9394:	00000000 	nop
    9398:	24150000 	li	s5,0
    939c:	165503dd 	bne	s2,s5,a314 <inst_error>
    93a0:	00000000 	nop
    93a4:	00000000 	nop
    93a8:	3c0c1ded 	lui	t4,0x1ded
    93ac:	358c7d10 	ori	t4,t4,0x7d10
    93b0:	3c0d74b1 	lui	t5,0x74b1
    93b4:	35ad69cc 	ori	t5,t5,0x69cc
    93b8:	24100000 	li	s0,0
    93bc:	10000016 	b	9418 <n32_bgtz_test+0x9418>
    93c0:	24120000 	li	s2,0
    93c4:	00000000 	nop
    93c8:	3c101ded 	lui	s0,0x1ded
    93cc:	1d00001e 	bgtz	t0,9448 <n32_bgtz_test+0x9448>
    93d0:	36107d10 	ori	s0,s0,0x7d10
    93d4:	1000001e 	b	9450 <n32_bgtz_test+0x9450>
    93d8:	00000000 	nop
    93dc:	00000000 	nop
    93e0:	00000021 	move	zero,zero
    93e4:	00000021 	move	zero,zero
    93e8:	00000021 	move	zero,zero
    93ec:	00000021 	move	zero,zero
    93f0:	00000021 	move	zero,zero
    93f4:	00000021 	move	zero,zero
    93f8:	00000021 	move	zero,zero
    93fc:	00000021 	move	zero,zero
    9400:	00000021 	move	zero,zero
    9404:	00000021 	move	zero,zero
    9408:	00000021 	move	zero,zero
    940c:	00000021 	move	zero,zero
    9410:	00000021 	move	zero,zero
    9414:	00000021 	move	zero,zero
    9418:	3c08366c 	lui	t0,0x366c
    941c:	35080280 	ori	t0,t0,0x280
    9420:	1d00ffe9 	bgtz	t0,93c8 <n32_bgtz_test+0x93c8>
    9424:	00000000 	nop
    9428:	10000009 	b	9450 <n32_bgtz_test+0x9450>
    942c:	00000000 	nop
    9430:	00000000 	nop
    9434:	00000021 	move	zero,zero
    9438:	00000021 	move	zero,zero
    943c:	00000021 	move	zero,zero
    9440:	00000021 	move	zero,zero
    9444:	00000021 	move	zero,zero
    9448:	3c1274b1 	lui	s2,0x74b1
    944c:	365269cc 	ori	s2,s2,0x69cc
    9450:	00000000 	nop
    9454:	3c141ded 	lui	s4,0x1ded
    9458:	36947d10 	ori	s4,s4,0x7d10
    945c:	161403ad 	bne	s0,s4,a314 <inst_error>
    9460:	00000000 	nop
    9464:	00000000 	nop
    9468:	3c1574b1 	lui	s5,0x74b1
    946c:	36b569cc 	ori	s5,s5,0x69cc
    9470:	165503a8 	bne	s2,s5,a314 <inst_error>
    9474:	00000000 	nop
    9478:	00000000 	nop
    947c:	3c0c16e3 	lui	t4,0x16e3
    9480:	358c633c 	ori	t4,t4,0x633c
    9484:	3c0da128 	lui	t5,0xa128
    9488:	35ada86d 	ori	t5,t5,0xa86d
    948c:	24100000 	li	s0,0
    9490:	10000016 	b	94ec <n32_bgtz_test+0x94ec>
    9494:	24120000 	li	s2,0
    9498:	00000000 	nop
    949c:	3c1016e3 	lui	s0,0x16e3
    94a0:	1d00001e 	bgtz	t0,951c <n32_bgtz_test+0x951c>
    94a4:	3610633c 	ori	s0,s0,0x633c
    94a8:	1000001e 	b	9524 <n32_bgtz_test+0x9524>
    94ac:	00000000 	nop
    94b0:	00000000 	nop
    94b4:	00000021 	move	zero,zero
    94b8:	00000021 	move	zero,zero
    94bc:	00000021 	move	zero,zero
    94c0:	00000021 	move	zero,zero
    94c4:	00000021 	move	zero,zero
    94c8:	00000021 	move	zero,zero
    94cc:	00000021 	move	zero,zero
    94d0:	00000021 	move	zero,zero
    94d4:	00000021 	move	zero,zero
    94d8:	00000021 	move	zero,zero
    94dc:	00000021 	move	zero,zero
    94e0:	00000021 	move	zero,zero
    94e4:	00000021 	move	zero,zero
    94e8:	00000021 	move	zero,zero
    94ec:	3c08cbe9 	lui	t0,0xcbe9
    94f0:	350894f0 	ori	t0,t0,0x94f0
    94f4:	1d00ffe9 	bgtz	t0,949c <n32_bgtz_test+0x949c>
    94f8:	00000000 	nop
    94fc:	10000009 	b	9524 <n32_bgtz_test+0x9524>
    9500:	00000000 	nop
    9504:	00000000 	nop
    9508:	00000021 	move	zero,zero
    950c:	00000021 	move	zero,zero
    9510:	00000021 	move	zero,zero
    9514:	00000021 	move	zero,zero
    9518:	00000021 	move	zero,zero
    951c:	3c12a128 	lui	s2,0xa128
    9520:	3652a86d 	ori	s2,s2,0xa86d
    9524:	00000000 	nop
    9528:	24140000 	li	s4,0
    952c:	16140379 	bne	s0,s4,a314 <inst_error>
    9530:	00000000 	nop
    9534:	00000000 	nop
    9538:	24150000 	li	s5,0
    953c:	16550375 	bne	s2,s5,a314 <inst_error>
    9540:	00000000 	nop
    9544:	00000000 	nop
    9548:	3c0c826d 	lui	t4,0x826d
    954c:	358ce24c 	ori	t4,t4,0xe24c
    9550:	3c0deb6f 	lui	t5,0xeb6f
    9554:	35add1c7 	ori	t5,t5,0xd1c7
    9558:	24100000 	li	s0,0
    955c:	10000016 	b	95b8 <n32_bgtz_test+0x95b8>
    9560:	24120000 	li	s2,0
    9564:	00000000 	nop
    9568:	3c10826d 	lui	s0,0x826d
    956c:	1d00001e 	bgtz	t0,95e8 <n32_bgtz_test+0x95e8>
    9570:	3610e24c 	ori	s0,s0,0xe24c
    9574:	1000001e 	b	95f0 <n32_bgtz_test+0x95f0>
    9578:	00000000 	nop
    957c:	00000000 	nop
    9580:	00000021 	move	zero,zero
    9584:	00000021 	move	zero,zero
    9588:	00000021 	move	zero,zero
    958c:	00000021 	move	zero,zero
    9590:	00000021 	move	zero,zero
    9594:	00000021 	move	zero,zero
    9598:	00000021 	move	zero,zero
    959c:	00000021 	move	zero,zero
    95a0:	00000021 	move	zero,zero
    95a4:	00000021 	move	zero,zero
    95a8:	00000021 	move	zero,zero
    95ac:	00000021 	move	zero,zero
    95b0:	00000021 	move	zero,zero
    95b4:	00000021 	move	zero,zero
    95b8:	3c081e75 	lui	t0,0x1e75
    95bc:	350864f8 	ori	t0,t0,0x64f8
    95c0:	1d00ffe9 	bgtz	t0,9568 <n32_bgtz_test+0x9568>
    95c4:	00000000 	nop
    95c8:	10000009 	b	95f0 <n32_bgtz_test+0x95f0>
    95cc:	00000000 	nop
    95d0:	00000000 	nop
    95d4:	00000021 	move	zero,zero
    95d8:	00000021 	move	zero,zero
    95dc:	00000021 	move	zero,zero
    95e0:	00000021 	move	zero,zero
    95e4:	00000021 	move	zero,zero
    95e8:	3c12eb6f 	lui	s2,0xeb6f
    95ec:	3652d1c7 	ori	s2,s2,0xd1c7
    95f0:	00000000 	nop
    95f4:	3c14826d 	lui	s4,0x826d
    95f8:	3694e24c 	ori	s4,s4,0xe24c
    95fc:	16140345 	bne	s0,s4,a314 <inst_error>
    9600:	00000000 	nop
    9604:	00000000 	nop
    9608:	3c15eb6f 	lui	s5,0xeb6f
    960c:	36b5d1c7 	ori	s5,s5,0xd1c7
    9610:	16550340 	bne	s2,s5,a314 <inst_error>
    9614:	00000000 	nop
    9618:	00000000 	nop
    961c:	3c0cee9c 	lui	t4,0xee9c
    9620:	358c4cd8 	ori	t4,t4,0x4cd8
    9624:	3c0d3ba7 	lui	t5,0x3ba7
    9628:	35adfe98 	ori	t5,t5,0xfe98
    962c:	24100000 	li	s0,0
    9630:	10000016 	b	968c <n32_bgtz_test+0x968c>
    9634:	24120000 	li	s2,0
    9638:	00000000 	nop
    963c:	3c10ee9c 	lui	s0,0xee9c
    9640:	1d00001e 	bgtz	t0,96bc <n32_bgtz_test+0x96bc>
    9644:	36104cd8 	ori	s0,s0,0x4cd8
    9648:	1000001e 	b	96c4 <n32_bgtz_test+0x96c4>
    964c:	00000000 	nop
    9650:	00000000 	nop
    9654:	00000021 	move	zero,zero
    9658:	00000021 	move	zero,zero
    965c:	00000021 	move	zero,zero
    9660:	00000021 	move	zero,zero
    9664:	00000021 	move	zero,zero
    9668:	00000021 	move	zero,zero
    966c:	00000021 	move	zero,zero
    9670:	00000021 	move	zero,zero
    9674:	00000021 	move	zero,zero
    9678:	00000021 	move	zero,zero
    967c:	00000021 	move	zero,zero
    9680:	00000021 	move	zero,zero
    9684:	00000021 	move	zero,zero
    9688:	00000021 	move	zero,zero
    968c:	3c08e1ea 	lui	t0,0xe1ea
    9690:	35086984 	ori	t0,t0,0x6984
    9694:	1d00ffe9 	bgtz	t0,963c <n32_bgtz_test+0x963c>
    9698:	00000000 	nop
    969c:	10000009 	b	96c4 <n32_bgtz_test+0x96c4>
    96a0:	00000000 	nop
    96a4:	00000000 	nop
    96a8:	00000021 	move	zero,zero
    96ac:	00000021 	move	zero,zero
    96b0:	00000021 	move	zero,zero
    96b4:	00000021 	move	zero,zero
    96b8:	00000021 	move	zero,zero
    96bc:	3c123ba7 	lui	s2,0x3ba7
    96c0:	3652fe98 	ori	s2,s2,0xfe98
    96c4:	00000000 	nop
    96c8:	24140000 	li	s4,0
    96cc:	16140311 	bne	s0,s4,a314 <inst_error>
    96d0:	00000000 	nop
    96d4:	00000000 	nop
    96d8:	24150000 	li	s5,0
    96dc:	1655030d 	bne	s2,s5,a314 <inst_error>
    96e0:	00000000 	nop
    96e4:	00000000 	nop
    96e8:	3c0c3554 	lui	t4,0x3554
    96ec:	358c1bfa 	ori	t4,t4,0x1bfa
    96f0:	3c0d0f61 	lui	t5,0xf61
    96f4:	35adeb89 	ori	t5,t5,0xeb89
    96f8:	24100000 	li	s0,0
    96fc:	10000016 	b	9758 <n32_bgtz_test+0x9758>
    9700:	24120000 	li	s2,0
    9704:	00000000 	nop
    9708:	3c103554 	lui	s0,0x3554
    970c:	1d00001e 	bgtz	t0,9788 <n32_bgtz_test+0x9788>
    9710:	36101bfa 	ori	s0,s0,0x1bfa
    9714:	1000001e 	b	9790 <n32_bgtz_test+0x9790>
    9718:	00000000 	nop
    971c:	00000000 	nop
    9720:	00000021 	move	zero,zero
    9724:	00000021 	move	zero,zero
    9728:	00000021 	move	zero,zero
    972c:	00000021 	move	zero,zero
    9730:	00000021 	move	zero,zero
    9734:	00000021 	move	zero,zero
    9738:	00000021 	move	zero,zero
    973c:	00000021 	move	zero,zero
    9740:	00000021 	move	zero,zero
    9744:	00000021 	move	zero,zero
    9748:	00000021 	move	zero,zero
    974c:	00000021 	move	zero,zero
    9750:	00000021 	move	zero,zero
    9754:	00000021 	move	zero,zero
    9758:	3c088fd0 	lui	t0,0x8fd0
    975c:	3508bebc 	ori	t0,t0,0xbebc
    9760:	1d00ffe9 	bgtz	t0,9708 <n32_bgtz_test+0x9708>
    9764:	00000000 	nop
    9768:	10000009 	b	9790 <n32_bgtz_test+0x9790>
    976c:	00000000 	nop
    9770:	00000000 	nop
    9774:	00000021 	move	zero,zero
    9778:	00000021 	move	zero,zero
    977c:	00000021 	move	zero,zero
    9780:	00000021 	move	zero,zero
    9784:	00000021 	move	zero,zero
    9788:	3c120f61 	lui	s2,0xf61
    978c:	3652eb89 	ori	s2,s2,0xeb89
    9790:	00000000 	nop
    9794:	24140000 	li	s4,0
    9798:	161402de 	bne	s0,s4,a314 <inst_error>
    979c:	00000000 	nop
    97a0:	00000000 	nop
    97a4:	24150000 	li	s5,0
    97a8:	165502da 	bne	s2,s5,a314 <inst_error>
    97ac:	00000000 	nop
    97b0:	00000000 	nop
    97b4:	3c0ce421 	lui	t4,0xe421
    97b8:	358ccfd0 	ori	t4,t4,0xcfd0
    97bc:	3c0d51ef 	lui	t5,0x51ef
    97c0:	35add96c 	ori	t5,t5,0xd96c
    97c4:	24100000 	li	s0,0
    97c8:	10000016 	b	9824 <n32_bgtz_test+0x9824>
    97cc:	24120000 	li	s2,0
    97d0:	00000000 	nop
    97d4:	3c10e421 	lui	s0,0xe421
    97d8:	1d00001e 	bgtz	t0,9854 <n32_bgtz_test+0x9854>
    97dc:	3610cfd0 	ori	s0,s0,0xcfd0
    97e0:	1000001e 	b	985c <n32_bgtz_test+0x985c>
    97e4:	00000000 	nop
    97e8:	00000000 	nop
    97ec:	00000021 	move	zero,zero
    97f0:	00000021 	move	zero,zero
    97f4:	00000021 	move	zero,zero
    97f8:	00000021 	move	zero,zero
    97fc:	00000021 	move	zero,zero
    9800:	00000021 	move	zero,zero
    9804:	00000021 	move	zero,zero
    9808:	00000021 	move	zero,zero
    980c:	00000021 	move	zero,zero
    9810:	00000021 	move	zero,zero
    9814:	00000021 	move	zero,zero
    9818:	00000021 	move	zero,zero
    981c:	00000021 	move	zero,zero
    9820:	00000021 	move	zero,zero
    9824:	3c089030 	lui	t0,0x9030
    9828:	3508a652 	ori	t0,t0,0xa652
    982c:	1d00ffe9 	bgtz	t0,97d4 <n32_bgtz_test+0x97d4>
    9830:	00000000 	nop
    9834:	10000009 	b	985c <n32_bgtz_test+0x985c>
    9838:	00000000 	nop
    983c:	00000000 	nop
    9840:	00000021 	move	zero,zero
    9844:	00000021 	move	zero,zero
    9848:	00000021 	move	zero,zero
    984c:	00000021 	move	zero,zero
    9850:	00000021 	move	zero,zero
    9854:	3c1251ef 	lui	s2,0x51ef
    9858:	3652d96c 	ori	s2,s2,0xd96c
    985c:	00000000 	nop
    9860:	24140000 	li	s4,0
    9864:	161402ab 	bne	s0,s4,a314 <inst_error>
    9868:	00000000 	nop
    986c:	00000000 	nop
    9870:	24150000 	li	s5,0
    9874:	165502a7 	bne	s2,s5,a314 <inst_error>
    9878:	00000000 	nop
    987c:	00000000 	nop
    9880:	3c0c41a4 	lui	t4,0x41a4
    9884:	358cd038 	ori	t4,t4,0xd038
    9888:	3c0db33c 	lui	t5,0xb33c
    988c:	35ad2678 	ori	t5,t5,0x2678
    9890:	24100000 	li	s0,0
    9894:	10000016 	b	98f0 <n32_bgtz_test+0x98f0>
    9898:	24120000 	li	s2,0
    989c:	00000000 	nop
    98a0:	3c1041a4 	lui	s0,0x41a4
    98a4:	1d00001e 	bgtz	t0,9920 <n32_bgtz_test+0x9920>
    98a8:	3610d038 	ori	s0,s0,0xd038
    98ac:	1000001e 	b	9928 <n32_bgtz_test+0x9928>
    98b0:	00000000 	nop
    98b4:	00000000 	nop
    98b8:	00000021 	move	zero,zero
    98bc:	00000021 	move	zero,zero
    98c0:	00000021 	move	zero,zero
    98c4:	00000021 	move	zero,zero
    98c8:	00000021 	move	zero,zero
    98cc:	00000021 	move	zero,zero
    98d0:	00000021 	move	zero,zero
    98d4:	00000021 	move	zero,zero
    98d8:	00000021 	move	zero,zero
    98dc:	00000021 	move	zero,zero
    98e0:	00000021 	move	zero,zero
    98e4:	00000021 	move	zero,zero
    98e8:	00000021 	move	zero,zero
    98ec:	00000021 	move	zero,zero
    98f0:	3c080bd8 	lui	t0,0xbd8
    98f4:	35080d3c 	ori	t0,t0,0xd3c
    98f8:	1d00ffe9 	bgtz	t0,98a0 <n32_bgtz_test+0x98a0>
    98fc:	00000000 	nop
    9900:	10000009 	b	9928 <n32_bgtz_test+0x9928>
    9904:	00000000 	nop
    9908:	00000000 	nop
    990c:	00000021 	move	zero,zero
    9910:	00000021 	move	zero,zero
    9914:	00000021 	move	zero,zero
    9918:	00000021 	move	zero,zero
    991c:	00000021 	move	zero,zero
    9920:	3c12b33c 	lui	s2,0xb33c
    9924:	36522678 	ori	s2,s2,0x2678
    9928:	00000000 	nop
    992c:	3c1441a4 	lui	s4,0x41a4
    9930:	3694d038 	ori	s4,s4,0xd038
    9934:	16140277 	bne	s0,s4,a314 <inst_error>
    9938:	00000000 	nop
    993c:	00000000 	nop
    9940:	3c15b33c 	lui	s5,0xb33c
    9944:	36b52678 	ori	s5,s5,0x2678
    9948:	16550272 	bne	s2,s5,a314 <inst_error>
    994c:	00000000 	nop
    9950:	00000000 	nop
    9954:	3c0c43a7 	lui	t4,0x43a7
    9958:	358c492c 	ori	t4,t4,0x492c
    995c:	3c0d1e08 	lui	t5,0x1e08
    9960:	35ad841a 	ori	t5,t5,0x841a
    9964:	24100000 	li	s0,0
    9968:	10000016 	b	99c4 <n32_bgtz_test+0x99c4>
    996c:	24120000 	li	s2,0
    9970:	00000000 	nop
    9974:	3c1043a7 	lui	s0,0x43a7
    9978:	1d00001e 	bgtz	t0,99f4 <n32_bgtz_test+0x99f4>
    997c:	3610492c 	ori	s0,s0,0x492c
    9980:	1000001e 	b	99fc <n32_bgtz_test+0x99fc>
    9984:	00000000 	nop
    9988:	00000000 	nop
    998c:	00000021 	move	zero,zero
    9990:	00000021 	move	zero,zero
    9994:	00000021 	move	zero,zero
    9998:	00000021 	move	zero,zero
    999c:	00000021 	move	zero,zero
    99a0:	00000021 	move	zero,zero
    99a4:	00000021 	move	zero,zero
    99a8:	00000021 	move	zero,zero
    99ac:	00000021 	move	zero,zero
    99b0:	00000021 	move	zero,zero
    99b4:	00000021 	move	zero,zero
    99b8:	00000021 	move	zero,zero
    99bc:	00000021 	move	zero,zero
    99c0:	00000021 	move	zero,zero
    99c4:	3c082085 	lui	t0,0x2085
    99c8:	350849ab 	ori	t0,t0,0x49ab
    99cc:	1d00ffe9 	bgtz	t0,9974 <n32_bgtz_test+0x9974>
    99d0:	00000000 	nop
    99d4:	10000009 	b	99fc <n32_bgtz_test+0x99fc>
    99d8:	00000000 	nop
    99dc:	00000000 	nop
    99e0:	00000021 	move	zero,zero
    99e4:	00000021 	move	zero,zero
    99e8:	00000021 	move	zero,zero
    99ec:	00000021 	move	zero,zero
    99f0:	00000021 	move	zero,zero
    99f4:	3c121e08 	lui	s2,0x1e08
    99f8:	3652841a 	ori	s2,s2,0x841a
    99fc:	00000000 	nop
    9a00:	3c1443a7 	lui	s4,0x43a7
    9a04:	3694492c 	ori	s4,s4,0x492c
    9a08:	16140242 	bne	s0,s4,a314 <inst_error>
    9a0c:	00000000 	nop
    9a10:	00000000 	nop
    9a14:	3c151e08 	lui	s5,0x1e08
    9a18:	36b5841a 	ori	s5,s5,0x841a
    9a1c:	1655023d 	bne	s2,s5,a314 <inst_error>
    9a20:	00000000 	nop
    9a24:	00000000 	nop
    9a28:	3c0c426a 	lui	t4,0x426a
    9a2c:	358c1941 	ori	t4,t4,0x1941
    9a30:	3c0d71ed 	lui	t5,0x71ed
    9a34:	35ad3d00 	ori	t5,t5,0x3d00
    9a38:	24100000 	li	s0,0
    9a3c:	10000016 	b	9a98 <n32_bgtz_test+0x9a98>
    9a40:	24120000 	li	s2,0
    9a44:	00000000 	nop
    9a48:	3c10426a 	lui	s0,0x426a
    9a4c:	1d00001e 	bgtz	t0,9ac8 <n32_bgtz_test+0x9ac8>
    9a50:	36101941 	ori	s0,s0,0x1941
    9a54:	1000001e 	b	9ad0 <n32_bgtz_test+0x9ad0>
    9a58:	00000000 	nop
    9a5c:	00000000 	nop
    9a60:	00000021 	move	zero,zero
    9a64:	00000021 	move	zero,zero
    9a68:	00000021 	move	zero,zero
    9a6c:	00000021 	move	zero,zero
    9a70:	00000021 	move	zero,zero
    9a74:	00000021 	move	zero,zero
    9a78:	00000021 	move	zero,zero
    9a7c:	00000021 	move	zero,zero
    9a80:	00000021 	move	zero,zero
    9a84:	00000021 	move	zero,zero
    9a88:	00000021 	move	zero,zero
    9a8c:	00000021 	move	zero,zero
    9a90:	00000021 	move	zero,zero
    9a94:	00000021 	move	zero,zero
    9a98:	3c085b2c 	lui	t0,0x5b2c
    9a9c:	350808f2 	ori	t0,t0,0x8f2
    9aa0:	1d00ffe9 	bgtz	t0,9a48 <n32_bgtz_test+0x9a48>
    9aa4:	00000000 	nop
    9aa8:	10000009 	b	9ad0 <n32_bgtz_test+0x9ad0>
    9aac:	00000000 	nop
    9ab0:	00000000 	nop
    9ab4:	00000021 	move	zero,zero
    9ab8:	00000021 	move	zero,zero
    9abc:	00000021 	move	zero,zero
    9ac0:	00000021 	move	zero,zero
    9ac4:	00000021 	move	zero,zero
    9ac8:	3c1271ed 	lui	s2,0x71ed
    9acc:	36523d00 	ori	s2,s2,0x3d00
    9ad0:	00000000 	nop
    9ad4:	3c14426a 	lui	s4,0x426a
    9ad8:	36941941 	ori	s4,s4,0x1941
    9adc:	1614020d 	bne	s0,s4,a314 <inst_error>
    9ae0:	00000000 	nop
    9ae4:	00000000 	nop
    9ae8:	3c1571ed 	lui	s5,0x71ed
    9aec:	36b53d00 	ori	s5,s5,0x3d00
    9af0:	16550208 	bne	s2,s5,a314 <inst_error>
    9af4:	00000000 	nop
    9af8:	00000000 	nop
    9afc:	3c0c5d68 	lui	t4,0x5d68
    9b00:	358cc9b4 	ori	t4,t4,0xc9b4
    9b04:	3c0d8fb5 	lui	t5,0x8fb5
    9b08:	35add247 	ori	t5,t5,0xd247
    9b0c:	24100000 	li	s0,0
    9b10:	10000016 	b	9b6c <n32_bgtz_test+0x9b6c>
    9b14:	24120000 	li	s2,0
    9b18:	00000000 	nop
    9b1c:	3c105d68 	lui	s0,0x5d68
    9b20:	1d00001e 	bgtz	t0,9b9c <n32_bgtz_test+0x9b9c>
    9b24:	3610c9b4 	ori	s0,s0,0xc9b4
    9b28:	1000001e 	b	9ba4 <n32_bgtz_test+0x9ba4>
    9b2c:	00000000 	nop
    9b30:	00000000 	nop
    9b34:	00000021 	move	zero,zero
    9b38:	00000021 	move	zero,zero
    9b3c:	00000021 	move	zero,zero
    9b40:	00000021 	move	zero,zero
    9b44:	00000021 	move	zero,zero
    9b48:	00000021 	move	zero,zero
    9b4c:	00000021 	move	zero,zero
    9b50:	00000021 	move	zero,zero
    9b54:	00000021 	move	zero,zero
    9b58:	00000021 	move	zero,zero
    9b5c:	00000021 	move	zero,zero
    9b60:	00000021 	move	zero,zero
    9b64:	00000021 	move	zero,zero
    9b68:	00000021 	move	zero,zero
    9b6c:	3c08c045 	lui	t0,0xc045
    9b70:	3508ae0c 	ori	t0,t0,0xae0c
    9b74:	1d00ffe9 	bgtz	t0,9b1c <n32_bgtz_test+0x9b1c>
    9b78:	00000000 	nop
    9b7c:	10000009 	b	9ba4 <n32_bgtz_test+0x9ba4>
    9b80:	00000000 	nop
    9b84:	00000000 	nop
    9b88:	00000021 	move	zero,zero
    9b8c:	00000021 	move	zero,zero
    9b90:	00000021 	move	zero,zero
    9b94:	00000021 	move	zero,zero
    9b98:	00000021 	move	zero,zero
    9b9c:	3c128fb5 	lui	s2,0x8fb5
    9ba0:	3652d247 	ori	s2,s2,0xd247
    9ba4:	00000000 	nop
    9ba8:	24140000 	li	s4,0
    9bac:	161401d9 	bne	s0,s4,a314 <inst_error>
    9bb0:	00000000 	nop
    9bb4:	00000000 	nop
    9bb8:	24150000 	li	s5,0
    9bbc:	165501d5 	bne	s2,s5,a314 <inst_error>
    9bc0:	00000000 	nop
    9bc4:	00000000 	nop
    9bc8:	3c0cc9e7 	lui	t4,0xc9e7
    9bcc:	358c7750 	ori	t4,t4,0x7750
    9bd0:	3c0dd088 	lui	t5,0xd088
    9bd4:	35ad7180 	ori	t5,t5,0x7180
    9bd8:	24100000 	li	s0,0
    9bdc:	10000016 	b	9c38 <n32_bgtz_test+0x9c38>
    9be0:	24120000 	li	s2,0
    9be4:	00000000 	nop
    9be8:	3c10c9e7 	lui	s0,0xc9e7
    9bec:	1d00001e 	bgtz	t0,9c68 <n32_bgtz_test+0x9c68>
    9bf0:	36107750 	ori	s0,s0,0x7750
    9bf4:	1000001e 	b	9c70 <n32_bgtz_test+0x9c70>
    9bf8:	00000000 	nop
    9bfc:	00000000 	nop
    9c00:	00000021 	move	zero,zero
    9c04:	00000021 	move	zero,zero
    9c08:	00000021 	move	zero,zero
    9c0c:	00000021 	move	zero,zero
    9c10:	00000021 	move	zero,zero
    9c14:	00000021 	move	zero,zero
    9c18:	00000021 	move	zero,zero
    9c1c:	00000021 	move	zero,zero
    9c20:	00000021 	move	zero,zero
    9c24:	00000021 	move	zero,zero
    9c28:	00000021 	move	zero,zero
    9c2c:	00000021 	move	zero,zero
    9c30:	00000021 	move	zero,zero
    9c34:	00000021 	move	zero,zero
    9c38:	3c082d2e 	lui	t0,0x2d2e
    9c3c:	35087baf 	ori	t0,t0,0x7baf
    9c40:	1d00ffe9 	bgtz	t0,9be8 <n32_bgtz_test+0x9be8>
    9c44:	00000000 	nop
    9c48:	10000009 	b	9c70 <n32_bgtz_test+0x9c70>
    9c4c:	00000000 	nop
    9c50:	00000000 	nop
    9c54:	00000021 	move	zero,zero
    9c58:	00000021 	move	zero,zero
    9c5c:	00000021 	move	zero,zero
    9c60:	00000021 	move	zero,zero
    9c64:	00000021 	move	zero,zero
    9c68:	3c12d088 	lui	s2,0xd088
    9c6c:	36527180 	ori	s2,s2,0x7180
    9c70:	00000000 	nop
    9c74:	3c14c9e7 	lui	s4,0xc9e7
    9c78:	36947750 	ori	s4,s4,0x7750
    9c7c:	161401a5 	bne	s0,s4,a314 <inst_error>
    9c80:	00000000 	nop
    9c84:	00000000 	nop
    9c88:	3c15d088 	lui	s5,0xd088
    9c8c:	36b57180 	ori	s5,s5,0x7180
    9c90:	165501a0 	bne	s2,s5,a314 <inst_error>
    9c94:	00000000 	nop
    9c98:	00000000 	nop
    9c9c:	3c0c9435 	lui	t4,0x9435
    9ca0:	358c0db0 	ori	t4,t4,0xdb0
    9ca4:	3c0de7e8 	lui	t5,0xe7e8
    9ca8:	35ad549e 	ori	t5,t5,0x549e
    9cac:	24100000 	li	s0,0
    9cb0:	10000016 	b	9d0c <n32_bgtz_test+0x9d0c>
    9cb4:	24120000 	li	s2,0
    9cb8:	00000000 	nop
    9cbc:	3c109435 	lui	s0,0x9435
    9cc0:	1d00001e 	bgtz	t0,9d3c <n32_bgtz_test+0x9d3c>
    9cc4:	36100db0 	ori	s0,s0,0xdb0
    9cc8:	1000001e 	b	9d44 <n32_bgtz_test+0x9d44>
    9ccc:	00000000 	nop
    9cd0:	00000000 	nop
    9cd4:	00000021 	move	zero,zero
    9cd8:	00000021 	move	zero,zero
    9cdc:	00000021 	move	zero,zero
    9ce0:	00000021 	move	zero,zero
    9ce4:	00000021 	move	zero,zero
    9ce8:	00000021 	move	zero,zero
    9cec:	00000021 	move	zero,zero
    9cf0:	00000021 	move	zero,zero
    9cf4:	00000021 	move	zero,zero
    9cf8:	00000021 	move	zero,zero
    9cfc:	00000021 	move	zero,zero
    9d00:	00000021 	move	zero,zero
    9d04:	00000021 	move	zero,zero
    9d08:	00000021 	move	zero,zero
    9d0c:	3c08c111 	lui	t0,0xc111
    9d10:	35083fb8 	ori	t0,t0,0x3fb8
    9d14:	1d00ffe9 	bgtz	t0,9cbc <n32_bgtz_test+0x9cbc>
    9d18:	00000000 	nop
    9d1c:	10000009 	b	9d44 <n32_bgtz_test+0x9d44>
    9d20:	00000000 	nop
    9d24:	00000000 	nop
    9d28:	00000021 	move	zero,zero
    9d2c:	00000021 	move	zero,zero
    9d30:	00000021 	move	zero,zero
    9d34:	00000021 	move	zero,zero
    9d38:	00000021 	move	zero,zero
    9d3c:	3c12e7e8 	lui	s2,0xe7e8
    9d40:	3652549e 	ori	s2,s2,0x549e
    9d44:	00000000 	nop
    9d48:	24140000 	li	s4,0
    9d4c:	16140171 	bne	s0,s4,a314 <inst_error>
    9d50:	00000000 	nop
    9d54:	00000000 	nop
    9d58:	24150000 	li	s5,0
    9d5c:	1655016d 	bne	s2,s5,a314 <inst_error>
    9d60:	00000000 	nop
    9d64:	00000000 	nop
    9d68:	3c0ce9ef 	lui	t4,0xe9ef
    9d6c:	358c9674 	ori	t4,t4,0x9674
    9d70:	3c0d819f 	lui	t5,0x819f
    9d74:	35ad9a20 	ori	t5,t5,0x9a20
    9d78:	24100000 	li	s0,0
    9d7c:	10000016 	b	9dd8 <n32_bgtz_test+0x9dd8>
    9d80:	24120000 	li	s2,0
    9d84:	00000000 	nop
    9d88:	3c10e9ef 	lui	s0,0xe9ef
    9d8c:	1d00001e 	bgtz	t0,9e08 <n32_bgtz_test+0x9e08>
    9d90:	36109674 	ori	s0,s0,0x9674
    9d94:	1000001e 	b	9e10 <n32_bgtz_test+0x9e10>
    9d98:	00000000 	nop
    9d9c:	00000000 	nop
    9da0:	00000021 	move	zero,zero
    9da4:	00000021 	move	zero,zero
    9da8:	00000021 	move	zero,zero
    9dac:	00000021 	move	zero,zero
    9db0:	00000021 	move	zero,zero
    9db4:	00000021 	move	zero,zero
    9db8:	00000021 	move	zero,zero
    9dbc:	00000021 	move	zero,zero
    9dc0:	00000021 	move	zero,zero
    9dc4:	00000021 	move	zero,zero
    9dc8:	00000021 	move	zero,zero
    9dcc:	00000021 	move	zero,zero
    9dd0:	00000021 	move	zero,zero
    9dd4:	00000021 	move	zero,zero
    9dd8:	3c0862ce 	lui	t0,0x62ce
    9ddc:	3508a9a8 	ori	t0,t0,0xa9a8
    9de0:	1d00ffe9 	bgtz	t0,9d88 <n32_bgtz_test+0x9d88>
    9de4:	00000000 	nop
    9de8:	10000009 	b	9e10 <n32_bgtz_test+0x9e10>
    9dec:	00000000 	nop
    9df0:	00000000 	nop
    9df4:	00000021 	move	zero,zero
    9df8:	00000021 	move	zero,zero
    9dfc:	00000021 	move	zero,zero
    9e00:	00000021 	move	zero,zero
    9e04:	00000021 	move	zero,zero
    9e08:	3c12819f 	lui	s2,0x819f
    9e0c:	36529a20 	ori	s2,s2,0x9a20
    9e10:	00000000 	nop
    9e14:	3c14e9ef 	lui	s4,0xe9ef
    9e18:	36949674 	ori	s4,s4,0x9674
    9e1c:	1614013d 	bne	s0,s4,a314 <inst_error>
    9e20:	00000000 	nop
    9e24:	00000000 	nop
    9e28:	3c15819f 	lui	s5,0x819f
    9e2c:	36b59a20 	ori	s5,s5,0x9a20
    9e30:	16550138 	bne	s2,s5,a314 <inst_error>
    9e34:	00000000 	nop
    9e38:	00000000 	nop
    9e3c:	3c0cf5cc 	lui	t4,0xf5cc
    9e40:	358cc744 	ori	t4,t4,0xc744
    9e44:	3c0d305f 	lui	t5,0x305f
    9e48:	35ad7fcc 	ori	t5,t5,0x7fcc
    9e4c:	24100000 	li	s0,0
    9e50:	10000016 	b	9eac <n32_bgtz_test+0x9eac>
    9e54:	24120000 	li	s2,0
    9e58:	00000000 	nop
    9e5c:	3c10f5cc 	lui	s0,0xf5cc
    9e60:	1d00001e 	bgtz	t0,9edc <n32_bgtz_test+0x9edc>
    9e64:	3610c744 	ori	s0,s0,0xc744
    9e68:	1000001e 	b	9ee4 <n32_bgtz_test+0x9ee4>
    9e6c:	00000000 	nop
    9e70:	00000000 	nop
    9e74:	00000021 	move	zero,zero
    9e78:	00000021 	move	zero,zero
    9e7c:	00000021 	move	zero,zero
    9e80:	00000021 	move	zero,zero
    9e84:	00000021 	move	zero,zero
    9e88:	00000021 	move	zero,zero
    9e8c:	00000021 	move	zero,zero
    9e90:	00000021 	move	zero,zero
    9e94:	00000021 	move	zero,zero
    9e98:	00000021 	move	zero,zero
    9e9c:	00000021 	move	zero,zero
    9ea0:	00000021 	move	zero,zero
    9ea4:	00000021 	move	zero,zero
    9ea8:	00000021 	move	zero,zero
    9eac:	3c08eb57 	lui	t0,0xeb57
    9eb0:	35086fc0 	ori	t0,t0,0x6fc0
    9eb4:	1d00ffe9 	bgtz	t0,9e5c <n32_bgtz_test+0x9e5c>
    9eb8:	00000000 	nop
    9ebc:	10000009 	b	9ee4 <n32_bgtz_test+0x9ee4>
    9ec0:	00000000 	nop
    9ec4:	00000000 	nop
    9ec8:	00000021 	move	zero,zero
    9ecc:	00000021 	move	zero,zero
    9ed0:	00000021 	move	zero,zero
    9ed4:	00000021 	move	zero,zero
    9ed8:	00000021 	move	zero,zero
    9edc:	3c12305f 	lui	s2,0x305f
    9ee0:	36527fcc 	ori	s2,s2,0x7fcc
    9ee4:	00000000 	nop
    9ee8:	24140000 	li	s4,0
    9eec:	16140109 	bne	s0,s4,a314 <inst_error>
    9ef0:	00000000 	nop
    9ef4:	00000000 	nop
    9ef8:	24150000 	li	s5,0
    9efc:	16550105 	bne	s2,s5,a314 <inst_error>
    9f00:	00000000 	nop
    9f04:	00000000 	nop
    9f08:	3c0c62c9 	lui	t4,0x62c9
    9f0c:	358cbc58 	ori	t4,t4,0xbc58
    9f10:	3c0da652 	lui	t5,0xa652
    9f14:	35ad0be5 	ori	t5,t5,0xbe5
    9f18:	24100000 	li	s0,0
    9f1c:	10000016 	b	9f78 <n32_bgtz_test+0x9f78>
    9f20:	24120000 	li	s2,0
    9f24:	00000000 	nop
    9f28:	3c1062c9 	lui	s0,0x62c9
    9f2c:	1d00001e 	bgtz	t0,9fa8 <n32_bgtz_test+0x9fa8>
    9f30:	3610bc58 	ori	s0,s0,0xbc58
    9f34:	1000001e 	b	9fb0 <n32_bgtz_test+0x9fb0>
    9f38:	00000000 	nop
    9f3c:	00000000 	nop
    9f40:	00000021 	move	zero,zero
    9f44:	00000021 	move	zero,zero
    9f48:	00000021 	move	zero,zero
    9f4c:	00000021 	move	zero,zero
    9f50:	00000021 	move	zero,zero
    9f54:	00000021 	move	zero,zero
    9f58:	00000021 	move	zero,zero
    9f5c:	00000021 	move	zero,zero
    9f60:	00000021 	move	zero,zero
    9f64:	00000021 	move	zero,zero
    9f68:	00000021 	move	zero,zero
    9f6c:	00000021 	move	zero,zero
    9f70:	00000021 	move	zero,zero
    9f74:	00000021 	move	zero,zero
    9f78:	3c08e7f0 	lui	t0,0xe7f0
    9f7c:	35088e8c 	ori	t0,t0,0x8e8c
    9f80:	1d00ffe9 	bgtz	t0,9f28 <n32_bgtz_test+0x9f28>
    9f84:	00000000 	nop
    9f88:	10000009 	b	9fb0 <n32_bgtz_test+0x9fb0>
    9f8c:	00000000 	nop
    9f90:	00000000 	nop
    9f94:	00000021 	move	zero,zero
    9f98:	00000021 	move	zero,zero
    9f9c:	00000021 	move	zero,zero
    9fa0:	00000021 	move	zero,zero
    9fa4:	00000021 	move	zero,zero
    9fa8:	3c12a652 	lui	s2,0xa652
    9fac:	36520be5 	ori	s2,s2,0xbe5
    9fb0:	00000000 	nop
    9fb4:	24140000 	li	s4,0
    9fb8:	161400d6 	bne	s0,s4,a314 <inst_error>
    9fbc:	00000000 	nop
    9fc0:	00000000 	nop
    9fc4:	24150000 	li	s5,0
    9fc8:	165500d2 	bne	s2,s5,a314 <inst_error>
    9fcc:	00000000 	nop
    9fd0:	00000000 	nop
    9fd4:	3c0c9937 	lui	t4,0x9937
    9fd8:	358c9094 	ori	t4,t4,0x9094
    9fdc:	3c0d5f8f 	lui	t5,0x5f8f
    9fe0:	35ada7f8 	ori	t5,t5,0xa7f8
    9fe4:	24100000 	li	s0,0
    9fe8:	10000016 	b	a044 <n32_bgtz_test+0xa044>
    9fec:	24120000 	li	s2,0
    9ff0:	00000000 	nop
    9ff4:	3c109937 	lui	s0,0x9937
    9ff8:	1d00001e 	bgtz	t0,a074 <n32_bgtz_test+0xa074>
    9ffc:	36109094 	ori	s0,s0,0x9094
    a000:	1000001e 	b	a07c <n32_bgtz_test+0xa07c>
    a004:	00000000 	nop
    a008:	00000000 	nop
    a00c:	00000021 	move	zero,zero
    a010:	00000021 	move	zero,zero
    a014:	00000021 	move	zero,zero
    a018:	00000021 	move	zero,zero
    a01c:	00000021 	move	zero,zero
    a020:	00000021 	move	zero,zero
    a024:	00000021 	move	zero,zero
    a028:	00000021 	move	zero,zero
    a02c:	00000021 	move	zero,zero
    a030:	00000021 	move	zero,zero
    a034:	00000021 	move	zero,zero
    a038:	00000021 	move	zero,zero
    a03c:	00000021 	move	zero,zero
    a040:	00000021 	move	zero,zero
    a044:	3c089885 	lui	t0,0x9885
    a048:	35086a7c 	ori	t0,t0,0x6a7c
    a04c:	1d00ffe9 	bgtz	t0,9ff4 <n32_bgtz_test+0x9ff4>
    a050:	00000000 	nop
    a054:	10000009 	b	a07c <n32_bgtz_test+0xa07c>
    a058:	00000000 	nop
    a05c:	00000000 	nop
    a060:	00000021 	move	zero,zero
    a064:	00000021 	move	zero,zero
    a068:	00000021 	move	zero,zero
    a06c:	00000021 	move	zero,zero
    a070:	00000021 	move	zero,zero
    a074:	3c125f8f 	lui	s2,0x5f8f
    a078:	3652a7f8 	ori	s2,s2,0xa7f8
    a07c:	00000000 	nop
    a080:	24140000 	li	s4,0
    a084:	161400a3 	bne	s0,s4,a314 <inst_error>
    a088:	00000000 	nop
    a08c:	00000000 	nop
    a090:	24150000 	li	s5,0
    a094:	1655009f 	bne	s2,s5,a314 <inst_error>
    a098:	00000000 	nop
    a09c:	00000000 	nop
    a0a0:	3c0c48cd 	lui	t4,0x48cd
    a0a4:	358c0960 	ori	t4,t4,0x960
    a0a8:	3c0d5ece 	lui	t5,0x5ece
    a0ac:	35ad7ef0 	ori	t5,t5,0x7ef0
    a0b0:	24100000 	li	s0,0
    a0b4:	10000016 	b	a110 <n32_bgtz_test+0xa110>
    a0b8:	24120000 	li	s2,0
    a0bc:	00000000 	nop
    a0c0:	3c1048cd 	lui	s0,0x48cd
    a0c4:	1d00001e 	bgtz	t0,a140 <n32_bgtz_test+0xa140>
    a0c8:	36100960 	ori	s0,s0,0x960
    a0cc:	1000001e 	b	a148 <n32_bgtz_test+0xa148>
    a0d0:	00000000 	nop
    a0d4:	00000000 	nop
    a0d8:	00000021 	move	zero,zero
    a0dc:	00000021 	move	zero,zero
    a0e0:	00000021 	move	zero,zero
    a0e4:	00000021 	move	zero,zero
    a0e8:	00000021 	move	zero,zero
    a0ec:	00000021 	move	zero,zero
    a0f0:	00000021 	move	zero,zero
    a0f4:	00000021 	move	zero,zero
    a0f8:	00000021 	move	zero,zero
    a0fc:	00000021 	move	zero,zero
    a100:	00000021 	move	zero,zero
    a104:	00000021 	move	zero,zero
    a108:	00000021 	move	zero,zero
    a10c:	00000021 	move	zero,zero
    a110:	3c084e67 	lui	t0,0x4e67
    a114:	3508090e 	ori	t0,t0,0x90e
    a118:	1d00ffe9 	bgtz	t0,a0c0 <n32_bgtz_test+0xa0c0>
    a11c:	00000000 	nop
    a120:	10000009 	b	a148 <n32_bgtz_test+0xa148>
    a124:	00000000 	nop
    a128:	00000000 	nop
    a12c:	00000021 	move	zero,zero
    a130:	00000021 	move	zero,zero
    a134:	00000021 	move	zero,zero
    a138:	00000021 	move	zero,zero
    a13c:	00000021 	move	zero,zero
    a140:	3c125ece 	lui	s2,0x5ece
    a144:	36527ef0 	ori	s2,s2,0x7ef0
    a148:	00000000 	nop
    a14c:	3c1448cd 	lui	s4,0x48cd
    a150:	36940960 	ori	s4,s4,0x960
    a154:	1614006f 	bne	s0,s4,a314 <inst_error>
    a158:	00000000 	nop
    a15c:	00000000 	nop
    a160:	3c155ece 	lui	s5,0x5ece
    a164:	36b57ef0 	ori	s5,s5,0x7ef0
    a168:	1655006a 	bne	s2,s5,a314 <inst_error>
    a16c:	00000000 	nop
    a170:	00000000 	nop
    a174:	3c0ca85a 	lui	t4,0xa85a
    a178:	358c2508 	ori	t4,t4,0x2508
    a17c:	3c0dc82d 	lui	t5,0xc82d
    a180:	35adfdb0 	ori	t5,t5,0xfdb0
    a184:	24100000 	li	s0,0
    a188:	10000016 	b	a1e4 <n32_bgtz_test+0xa1e4>
    a18c:	24120000 	li	s2,0
    a190:	00000000 	nop
    a194:	3c10a85a 	lui	s0,0xa85a
    a198:	1d00001e 	bgtz	t0,a214 <n32_bgtz_test+0xa214>
    a19c:	36102508 	ori	s0,s0,0x2508
    a1a0:	1000001e 	b	a21c <n32_bgtz_test+0xa21c>
    a1a4:	00000000 	nop
    a1a8:	00000000 	nop
    a1ac:	00000021 	move	zero,zero
    a1b0:	00000021 	move	zero,zero
    a1b4:	00000021 	move	zero,zero
    a1b8:	00000021 	move	zero,zero
    a1bc:	00000021 	move	zero,zero
    a1c0:	00000021 	move	zero,zero
    a1c4:	00000021 	move	zero,zero
    a1c8:	00000021 	move	zero,zero
    a1cc:	00000021 	move	zero,zero
    a1d0:	00000021 	move	zero,zero
    a1d4:	00000021 	move	zero,zero
    a1d8:	00000021 	move	zero,zero
    a1dc:	00000021 	move	zero,zero
    a1e0:	00000021 	move	zero,zero
    a1e4:	3c08f8aa 	lui	t0,0xf8aa
    a1e8:	350844a0 	ori	t0,t0,0x44a0
    a1ec:	1d00ffe9 	bgtz	t0,a194 <n32_bgtz_test+0xa194>
    a1f0:	00000000 	nop
    a1f4:	10000009 	b	a21c <n32_bgtz_test+0xa21c>
    a1f8:	00000000 	nop
    a1fc:	00000000 	nop
    a200:	00000021 	move	zero,zero
    a204:	00000021 	move	zero,zero
    a208:	00000021 	move	zero,zero
    a20c:	00000021 	move	zero,zero
    a210:	00000021 	move	zero,zero
    a214:	3c12c82d 	lui	s2,0xc82d
    a218:	3652fdb0 	ori	s2,s2,0xfdb0
    a21c:	00000000 	nop
    a220:	24140000 	li	s4,0
    a224:	1614003b 	bne	s0,s4,a314 <inst_error>
    a228:	00000000 	nop
    a22c:	00000000 	nop
    a230:	24150000 	li	s5,0
    a234:	16550037 	bne	s2,s5,a314 <inst_error>
    a238:	00000000 	nop
    a23c:	00000000 	nop
    a240:	3c0c79bb 	lui	t4,0x79bb
    a244:	358c8050 	ori	t4,t4,0x8050
    a248:	3c0da758 	lui	t5,0xa758
    a24c:	35ad3a00 	ori	t5,t5,0x3a00
    a250:	24100000 	li	s0,0
    a254:	10000016 	b	a2b0 <n32_bgtz_test+0xa2b0>
    a258:	24120000 	li	s2,0
    a25c:	00000000 	nop
    a260:	3c1079bb 	lui	s0,0x79bb
    a264:	1d00001d 	bgtz	t0,a2dc <n32_bgtz_test+0xa2dc>
    a268:	36108050 	ori	s0,s0,0x8050
    a26c:	1000001d 	b	a2e4 <n32_bgtz_test+0xa2e4>
    a270:	00000000 	nop
    a274:	00000000 	nop
    a278:	00000021 	move	zero,zero
    a27c:	00000021 	move	zero,zero
    a280:	00000021 	move	zero,zero
    a284:	00000021 	move	zero,zero
    a288:	00000021 	move	zero,zero
    a28c:	00000021 	move	zero,zero
    a290:	00000021 	move	zero,zero
    a294:	00000021 	move	zero,zero
    a298:	00000021 	move	zero,zero
    a29c:	00000021 	move	zero,zero
    a2a0:	00000021 	move	zero,zero
    a2a4:	00000021 	move	zero,zero
    a2a8:	00000021 	move	zero,zero
    a2ac:	00000021 	move	zero,zero
    a2b0:	24080000 	li	t0,0
    a2b4:	1d00ffea 	bgtz	t0,a260 <n32_bgtz_test+0xa260>
    a2b8:	00000000 	nop
    a2bc:	10000009 	b	a2e4 <n32_bgtz_test+0xa2e4>
    a2c0:	00000000 	nop
    a2c4:	00000000 	nop
    a2c8:	00000021 	move	zero,zero
    a2cc:	00000021 	move	zero,zero
    a2d0:	00000021 	move	zero,zero
    a2d4:	00000021 	move	zero,zero
    a2d8:	00000021 	move	zero,zero
    a2dc:	3c12a758 	lui	s2,0xa758
    a2e0:	36523a00 	ori	s2,s2,0x3a00
    a2e4:	00000000 	nop
    a2e8:	24140000 	li	s4,0
    a2ec:	16140009 	bne	s0,s4,a314 <inst_error>
    a2f0:	00000000 	nop
    a2f4:	00000000 	nop
    a2f8:	24150000 	li	s5,0
    a2fc:	16550005 	bne	s2,s5,a314 <inst_error>
    a300:	00000000 	nop
    a304:	14400003 	bnez	v0,a314 <inst_error>
    a308:	00000000 	nop
    a30c:	00000000 	nop
    a310:	26730001 	addiu	s3,s3,1

0000a314 <inst_error>:
    a314:	00934025 	or	t0,a0,s3
    a318:	03e00008 	jr	ra
    a31c:	ae280000 	sw	t0,0(s1)
