       0:	3c042100 	lui	a0,0x2100
       4:	24020000 	li	v0,0
       8:	3c0c6ad0 	lui	t4,0x6ad0
       c:	358ca0b8 	ori	t4,t4,0xa0b8
      10:	3c0d8f08 	lui	t5,0x8f08
      14:	35addb03 	ori	t5,t5,0xdb03
      18:	24100000 	li	s0,0
      1c:	10000012 	b	68 <n33_blez_test+0x68>
      20:	24120000 	li	s2,0
      24:	00000000 	nop
      28:	3c106ad0 	lui	s0,0x6ad0
      2c:	19000019 	blez	t0,94 <n33_blez_test+0x94>
      30:	3610a0b8 	ori	s0,s0,0xa0b8
      34:	10000019 	b	9c <n33_blez_test+0x9c>
      38:	00000000 	nop
      3c:	00000000 	nop
      40:	00000021 	move	zero,zero
      44:	00000021 	move	zero,zero
      48:	00000021 	move	zero,zero
      4c:	00000021 	move	zero,zero
      50:	00000021 	move	zero,zero
      54:	00000021 	move	zero,zero
      58:	00000021 	move	zero,zero
      5c:	00000021 	move	zero,zero
      60:	00000021 	move	zero,zero
      64:	00000021 	move	zero,zero
      68:	3c0895b9 	lui	t0,0x95b9
      6c:	3508206f 	ori	t0,t0,0x206f
      70:	1900ffed 	blez	t0,28 <n33_blez_test+0x28>
      74:	00000000 	nop
      78:	10000008 	b	9c <n33_blez_test+0x9c>
      7c:	00000000 	nop
      80:	00000000 	nop
      84:	00000021 	move	zero,zero
      88:	00000021 	move	zero,zero
      8c:	00000021 	move	zero,zero
      90:	00000021 	move	zero,zero
      94:	3c128f08 	lui	s2,0x8f08
      98:	3652db03 	ori	s2,s2,0xdb03
      9c:	00000000 	nop
      a0:	3c146ad0 	lui	s4,0x6ad0
      a4:	3694a0b8 	ori	s4,s4,0xa0b8
      a8:	161424b5 	bne	s0,s4,9380 <inst_error>
      ac:	00000000 	nop
      b0:	00000000 	nop
      b4:	3c158f08 	lui	s5,0x8f08
      b8:	36b5db03 	ori	s5,s5,0xdb03
      bc:	165524b0 	bne	s2,s5,9380 <inst_error>
      c0:	00000000 	nop
      c4:	00000000 	nop
      c8:	3c0cc782 	lui	t4,0xc782
      cc:	358c6200 	ori	t4,t4,0x6200
      d0:	3c0d13ea 	lui	t5,0x13ea
      d4:	35ad2762 	ori	t5,t5,0x2762
      d8:	24100000 	li	s0,0
      dc:	10000012 	b	128 <n33_blez_test+0x128>
      e0:	24120000 	li	s2,0
      e4:	00000000 	nop
      e8:	3c10c782 	lui	s0,0xc782
      ec:	19000019 	blez	t0,154 <n33_blez_test+0x154>
      f0:	36106200 	ori	s0,s0,0x6200
      f4:	10000019 	b	15c <n33_blez_test+0x15c>
      f8:	00000000 	nop
      fc:	00000000 	nop
     100:	00000021 	move	zero,zero
     104:	00000021 	move	zero,zero
     108:	00000021 	move	zero,zero
     10c:	00000021 	move	zero,zero
     110:	00000021 	move	zero,zero
     114:	00000021 	move	zero,zero
     118:	00000021 	move	zero,zero
     11c:	00000021 	move	zero,zero
     120:	00000021 	move	zero,zero
     124:	00000021 	move	zero,zero
     128:	3c082c09 	lui	t0,0x2c09
     12c:	3508b044 	ori	t0,t0,0xb044
     130:	1900ffed 	blez	t0,e8 <n33_blez_test+0xe8>
     134:	00000000 	nop
     138:	10000008 	b	15c <n33_blez_test+0x15c>
     13c:	00000000 	nop
     140:	00000000 	nop
     144:	00000021 	move	zero,zero
     148:	00000021 	move	zero,zero
     14c:	00000021 	move	zero,zero
     150:	00000021 	move	zero,zero
     154:	3c1213ea 	lui	s2,0x13ea
     158:	36522762 	ori	s2,s2,0x2762
     15c:	00000000 	nop
     160:	24140000 	li	s4,0
     164:	16142486 	bne	s0,s4,9380 <inst_error>
     168:	00000000 	nop
     16c:	00000000 	nop
     170:	24150000 	li	s5,0
     174:	16552482 	bne	s2,s5,9380 <inst_error>
     178:	00000000 	nop
     17c:	00000000 	nop
     180:	3c0ca07a 	lui	t4,0xa07a
     184:	358c4a41 	ori	t4,t4,0x4a41
     188:	3c0d56ac 	lui	t5,0x56ac
     18c:	35ad95c0 	ori	t5,t5,0x95c0
     190:	24100000 	li	s0,0
     194:	10000012 	b	1e0 <n33_blez_test+0x1e0>
     198:	24120000 	li	s2,0
     19c:	00000000 	nop
     1a0:	3c10a07a 	lui	s0,0xa07a
     1a4:	19000019 	blez	t0,20c <n33_blez_test+0x20c>
     1a8:	36104a41 	ori	s0,s0,0x4a41
     1ac:	10000019 	b	214 <n33_blez_test+0x214>
     1b0:	00000000 	nop
     1b4:	00000000 	nop
     1b8:	00000021 	move	zero,zero
     1bc:	00000021 	move	zero,zero
     1c0:	00000021 	move	zero,zero
     1c4:	00000021 	move	zero,zero
     1c8:	00000021 	move	zero,zero
     1cc:	00000021 	move	zero,zero
     1d0:	00000021 	move	zero,zero
     1d4:	00000021 	move	zero,zero
     1d8:	00000021 	move	zero,zero
     1dc:	00000021 	move	zero,zero
     1e0:	3c08095b 	lui	t0,0x95b
     1e4:	35087ae8 	ori	t0,t0,0x7ae8
     1e8:	1900ffed 	blez	t0,1a0 <n33_blez_test+0x1a0>
     1ec:	00000000 	nop
     1f0:	10000008 	b	214 <n33_blez_test+0x214>
     1f4:	00000000 	nop
     1f8:	00000000 	nop
     1fc:	00000021 	move	zero,zero
     200:	00000021 	move	zero,zero
     204:	00000021 	move	zero,zero
     208:	00000021 	move	zero,zero
     20c:	3c1256ac 	lui	s2,0x56ac
     210:	365295c0 	ori	s2,s2,0x95c0
     214:	00000000 	nop
     218:	24140000 	li	s4,0
     21c:	16142458 	bne	s0,s4,9380 <inst_error>
     220:	00000000 	nop
     224:	00000000 	nop
     228:	24150000 	li	s5,0
     22c:	16552454 	bne	s2,s5,9380 <inst_error>
     230:	00000000 	nop
     234:	00000000 	nop
     238:	3c0c2f1c 	lui	t4,0x2f1c
     23c:	358cd2c0 	ori	t4,t4,0xd2c0
     240:	3c0d00ba 	lui	t5,0xba
     244:	35ad8e99 	ori	t5,t5,0x8e99
     248:	24100000 	li	s0,0
     24c:	10000012 	b	298 <n33_blez_test+0x298>
     250:	24120000 	li	s2,0
     254:	00000000 	nop
     258:	3c102f1c 	lui	s0,0x2f1c
     25c:	19000019 	blez	t0,2c4 <n33_blez_test+0x2c4>
     260:	3610d2c0 	ori	s0,s0,0xd2c0
     264:	10000019 	b	2cc <n33_blez_test+0x2cc>
     268:	00000000 	nop
     26c:	00000000 	nop
     270:	00000021 	move	zero,zero
     274:	00000021 	move	zero,zero
     278:	00000021 	move	zero,zero
     27c:	00000021 	move	zero,zero
     280:	00000021 	move	zero,zero
     284:	00000021 	move	zero,zero
     288:	00000021 	move	zero,zero
     28c:	00000021 	move	zero,zero
     290:	00000021 	move	zero,zero
     294:	00000021 	move	zero,zero
     298:	3c08ce67 	lui	t0,0xce67
     29c:	3508bc51 	ori	t0,t0,0xbc51
     2a0:	1900ffed 	blez	t0,258 <n33_blez_test+0x258>
     2a4:	00000000 	nop
     2a8:	10000008 	b	2cc <n33_blez_test+0x2cc>
     2ac:	00000000 	nop
     2b0:	00000000 	nop
     2b4:	00000021 	move	zero,zero
     2b8:	00000021 	move	zero,zero
     2bc:	00000021 	move	zero,zero
     2c0:	00000021 	move	zero,zero
     2c4:	3c1200ba 	lui	s2,0xba
     2c8:	36528e99 	ori	s2,s2,0x8e99
     2cc:	00000000 	nop
     2d0:	3c142f1c 	lui	s4,0x2f1c
     2d4:	3694d2c0 	ori	s4,s4,0xd2c0
     2d8:	16142429 	bne	s0,s4,9380 <inst_error>
     2dc:	00000000 	nop
     2e0:	00000000 	nop
     2e4:	3c1500ba 	lui	s5,0xba
     2e8:	36b58e99 	ori	s5,s5,0x8e99
     2ec:	16552424 	bne	s2,s5,9380 <inst_error>
     2f0:	00000000 	nop
     2f4:	00000000 	nop
     2f8:	3c0c50fd 	lui	t4,0x50fd
     2fc:	358cd280 	ori	t4,t4,0xd280
     300:	3c0d81eb 	lui	t5,0x81eb
     304:	35ad6d5e 	ori	t5,t5,0x6d5e
     308:	24100000 	li	s0,0
     30c:	10000012 	b	358 <n33_blez_test+0x358>
     310:	24120000 	li	s2,0
     314:	00000000 	nop
     318:	3c1050fd 	lui	s0,0x50fd
     31c:	19000019 	blez	t0,384 <n33_blez_test+0x384>
     320:	3610d280 	ori	s0,s0,0xd280
     324:	10000019 	b	38c <n33_blez_test+0x38c>
     328:	00000000 	nop
     32c:	00000000 	nop
     330:	00000021 	move	zero,zero
     334:	00000021 	move	zero,zero
     338:	00000021 	move	zero,zero
     33c:	00000021 	move	zero,zero
     340:	00000021 	move	zero,zero
     344:	00000021 	move	zero,zero
     348:	00000021 	move	zero,zero
     34c:	00000021 	move	zero,zero
     350:	00000021 	move	zero,zero
     354:	00000021 	move	zero,zero
     358:	3c082a69 	lui	t0,0x2a69
     35c:	3508b9f8 	ori	t0,t0,0xb9f8
     360:	1900ffed 	blez	t0,318 <n33_blez_test+0x318>
     364:	00000000 	nop
     368:	10000008 	b	38c <n33_blez_test+0x38c>
     36c:	00000000 	nop
     370:	00000000 	nop
     374:	00000021 	move	zero,zero
     378:	00000021 	move	zero,zero
     37c:	00000021 	move	zero,zero
     380:	00000021 	move	zero,zero
     384:	3c1281eb 	lui	s2,0x81eb
     388:	36526d5e 	ori	s2,s2,0x6d5e
     38c:	00000000 	nop
     390:	24140000 	li	s4,0
     394:	161423fa 	bne	s0,s4,9380 <inst_error>
     398:	00000000 	nop
     39c:	00000000 	nop
     3a0:	24150000 	li	s5,0
     3a4:	165523f6 	bne	s2,s5,9380 <inst_error>
     3a8:	00000000 	nop
     3ac:	00000000 	nop
     3b0:	3c0cd957 	lui	t4,0xd957
     3b4:	358c9e00 	ori	t4,t4,0x9e00
     3b8:	3c0d5963 	lui	t5,0x5963
     3bc:	35ad1c54 	ori	t5,t5,0x1c54
     3c0:	24100000 	li	s0,0
     3c4:	10000012 	b	410 <n33_blez_test+0x410>
     3c8:	24120000 	li	s2,0
     3cc:	00000000 	nop
     3d0:	3c10d957 	lui	s0,0xd957
     3d4:	19000019 	blez	t0,43c <n33_blez_test+0x43c>
     3d8:	36109e00 	ori	s0,s0,0x9e00
     3dc:	10000019 	b	444 <n33_blez_test+0x444>
     3e0:	00000000 	nop
     3e4:	00000000 	nop
     3e8:	00000021 	move	zero,zero
     3ec:	00000021 	move	zero,zero
     3f0:	00000021 	move	zero,zero
     3f4:	00000021 	move	zero,zero
     3f8:	00000021 	move	zero,zero
     3fc:	00000021 	move	zero,zero
     400:	00000021 	move	zero,zero
     404:	00000021 	move	zero,zero
     408:	00000021 	move	zero,zero
     40c:	00000021 	move	zero,zero
     410:	3c084a89 	lui	t0,0x4a89
     414:	3508b5b0 	ori	t0,t0,0xb5b0
     418:	1900ffed 	blez	t0,3d0 <n33_blez_test+0x3d0>
     41c:	00000000 	nop
     420:	10000008 	b	444 <n33_blez_test+0x444>
     424:	00000000 	nop
     428:	00000000 	nop
     42c:	00000021 	move	zero,zero
     430:	00000021 	move	zero,zero
     434:	00000021 	move	zero,zero
     438:	00000021 	move	zero,zero
     43c:	3c125963 	lui	s2,0x5963
     440:	36521c54 	ori	s2,s2,0x1c54
     444:	00000000 	nop
     448:	24140000 	li	s4,0
     44c:	161423cc 	bne	s0,s4,9380 <inst_error>
     450:	00000000 	nop
     454:	00000000 	nop
     458:	24150000 	li	s5,0
     45c:	165523c8 	bne	s2,s5,9380 <inst_error>
     460:	00000000 	nop
     464:	00000000 	nop
     468:	3c0c8c56 	lui	t4,0x8c56
     46c:	358c2016 	ori	t4,t4,0x2016
     470:	3c0de027 	lui	t5,0xe027
     474:	35ad7158 	ori	t5,t5,0x7158
     478:	24100000 	li	s0,0
     47c:	10000012 	b	4c8 <n33_blez_test+0x4c8>
     480:	24120000 	li	s2,0
     484:	00000000 	nop
     488:	3c108c56 	lui	s0,0x8c56
     48c:	19000019 	blez	t0,4f4 <n33_blez_test+0x4f4>
     490:	36102016 	ori	s0,s0,0x2016
     494:	10000019 	b	4fc <n33_blez_test+0x4fc>
     498:	00000000 	nop
     49c:	00000000 	nop
     4a0:	00000021 	move	zero,zero
     4a4:	00000021 	move	zero,zero
     4a8:	00000021 	move	zero,zero
     4ac:	00000021 	move	zero,zero
     4b0:	00000021 	move	zero,zero
     4b4:	00000021 	move	zero,zero
     4b8:	00000021 	move	zero,zero
     4bc:	00000021 	move	zero,zero
     4c0:	00000021 	move	zero,zero
     4c4:	00000021 	move	zero,zero
     4c8:	3c08b65d 	lui	t0,0xb65d
     4cc:	35088ec0 	ori	t0,t0,0x8ec0
     4d0:	1900ffed 	blez	t0,488 <n33_blez_test+0x488>
     4d4:	00000000 	nop
     4d8:	10000008 	b	4fc <n33_blez_test+0x4fc>
     4dc:	00000000 	nop
     4e0:	00000000 	nop
     4e4:	00000021 	move	zero,zero
     4e8:	00000021 	move	zero,zero
     4ec:	00000021 	move	zero,zero
     4f0:	00000021 	move	zero,zero
     4f4:	3c12e027 	lui	s2,0xe027
     4f8:	36527158 	ori	s2,s2,0x7158
     4fc:	00000000 	nop
     500:	3c148c56 	lui	s4,0x8c56
     504:	36942016 	ori	s4,s4,0x2016
     508:	1614239d 	bne	s0,s4,9380 <inst_error>
     50c:	00000000 	nop
     510:	00000000 	nop
     514:	3c15e027 	lui	s5,0xe027
     518:	36b57158 	ori	s5,s5,0x7158
     51c:	16552398 	bne	s2,s5,9380 <inst_error>
     520:	00000000 	nop
     524:	00000000 	nop
     528:	3c0c404b 	lui	t4,0x404b
     52c:	358c79a8 	ori	t4,t4,0x79a8
     530:	3c0d074d 	lui	t5,0x74d
     534:	35ade3ca 	ori	t5,t5,0xe3ca
     538:	24100000 	li	s0,0
     53c:	10000012 	b	588 <n33_blez_test+0x588>
     540:	24120000 	li	s2,0
     544:	00000000 	nop
     548:	3c10404b 	lui	s0,0x404b
     54c:	19000019 	blez	t0,5b4 <n33_blez_test+0x5b4>
     550:	361079a8 	ori	s0,s0,0x79a8
     554:	10000019 	b	5bc <n33_blez_test+0x5bc>
     558:	00000000 	nop
     55c:	00000000 	nop
     560:	00000021 	move	zero,zero
     564:	00000021 	move	zero,zero
     568:	00000021 	move	zero,zero
     56c:	00000021 	move	zero,zero
     570:	00000021 	move	zero,zero
     574:	00000021 	move	zero,zero
     578:	00000021 	move	zero,zero
     57c:	00000021 	move	zero,zero
     580:	00000021 	move	zero,zero
     584:	00000021 	move	zero,zero
     588:	3c082487 	lui	t0,0x2487
     58c:	35083e20 	ori	t0,t0,0x3e20
     590:	1900ffed 	blez	t0,548 <n33_blez_test+0x548>
     594:	00000000 	nop
     598:	10000008 	b	5bc <n33_blez_test+0x5bc>
     59c:	00000000 	nop
     5a0:	00000000 	nop
     5a4:	00000021 	move	zero,zero
     5a8:	00000021 	move	zero,zero
     5ac:	00000021 	move	zero,zero
     5b0:	00000021 	move	zero,zero
     5b4:	3c12074d 	lui	s2,0x74d
     5b8:	3652e3ca 	ori	s2,s2,0xe3ca
     5bc:	00000000 	nop
     5c0:	24140000 	li	s4,0
     5c4:	1614236e 	bne	s0,s4,9380 <inst_error>
     5c8:	00000000 	nop
     5cc:	00000000 	nop
     5d0:	24150000 	li	s5,0
     5d4:	1655236a 	bne	s2,s5,9380 <inst_error>
     5d8:	00000000 	nop
     5dc:	00000000 	nop
     5e0:	3c0c83cc 	lui	t4,0x83cc
     5e4:	358ceb23 	ori	t4,t4,0xeb23
     5e8:	3c0dc390 	lui	t5,0xc390
     5ec:	35ad2420 	ori	t5,t5,0x2420
     5f0:	24100000 	li	s0,0
     5f4:	10000012 	b	640 <n33_blez_test+0x640>
     5f8:	24120000 	li	s2,0
     5fc:	00000000 	nop
     600:	3c1083cc 	lui	s0,0x83cc
     604:	19000019 	blez	t0,66c <n33_blez_test+0x66c>
     608:	3610eb23 	ori	s0,s0,0xeb23
     60c:	10000019 	b	674 <n33_blez_test+0x674>
     610:	00000000 	nop
     614:	00000000 	nop
     618:	00000021 	move	zero,zero
     61c:	00000021 	move	zero,zero
     620:	00000021 	move	zero,zero
     624:	00000021 	move	zero,zero
     628:	00000021 	move	zero,zero
     62c:	00000021 	move	zero,zero
     630:	00000021 	move	zero,zero
     634:	00000021 	move	zero,zero
     638:	00000021 	move	zero,zero
     63c:	00000021 	move	zero,zero
     640:	3c0868aa 	lui	t0,0x68aa
     644:	350832f0 	ori	t0,t0,0x32f0
     648:	1900ffed 	blez	t0,600 <n33_blez_test+0x600>
     64c:	00000000 	nop
     650:	10000008 	b	674 <n33_blez_test+0x674>
     654:	00000000 	nop
     658:	00000000 	nop
     65c:	00000021 	move	zero,zero
     660:	00000021 	move	zero,zero
     664:	00000021 	move	zero,zero
     668:	00000021 	move	zero,zero
     66c:	3c12c390 	lui	s2,0xc390
     670:	36522420 	ori	s2,s2,0x2420
     674:	00000000 	nop
     678:	24140000 	li	s4,0
     67c:	16142340 	bne	s0,s4,9380 <inst_error>
     680:	00000000 	nop
     684:	00000000 	nop
     688:	24150000 	li	s5,0
     68c:	1655233c 	bne	s2,s5,9380 <inst_error>
     690:	00000000 	nop
     694:	00000000 	nop
     698:	3c0c3f18 	lui	t4,0x3f18
     69c:	358c0c13 	ori	t4,t4,0xc13
     6a0:	3c0d3bc3 	lui	t5,0x3bc3
     6a4:	35ad8a98 	ori	t5,t5,0x8a98
     6a8:	24100000 	li	s0,0
     6ac:	10000012 	b	6f8 <n33_blez_test+0x6f8>
     6b0:	24120000 	li	s2,0
     6b4:	00000000 	nop
     6b8:	3c103f18 	lui	s0,0x3f18
     6bc:	19000019 	blez	t0,724 <n33_blez_test+0x724>
     6c0:	36100c13 	ori	s0,s0,0xc13
     6c4:	10000019 	b	72c <n33_blez_test+0x72c>
     6c8:	00000000 	nop
     6cc:	00000000 	nop
     6d0:	00000021 	move	zero,zero
     6d4:	00000021 	move	zero,zero
     6d8:	00000021 	move	zero,zero
     6dc:	00000021 	move	zero,zero
     6e0:	00000021 	move	zero,zero
     6e4:	00000021 	move	zero,zero
     6e8:	00000021 	move	zero,zero
     6ec:	00000021 	move	zero,zero
     6f0:	00000021 	move	zero,zero
     6f4:	00000021 	move	zero,zero
     6f8:	3c08e047 	lui	t0,0xe047
     6fc:	3508d460 	ori	t0,t0,0xd460
     700:	1900ffed 	blez	t0,6b8 <n33_blez_test+0x6b8>
     704:	00000000 	nop
     708:	10000008 	b	72c <n33_blez_test+0x72c>
     70c:	00000000 	nop
     710:	00000000 	nop
     714:	00000021 	move	zero,zero
     718:	00000021 	move	zero,zero
     71c:	00000021 	move	zero,zero
     720:	00000021 	move	zero,zero
     724:	3c123bc3 	lui	s2,0x3bc3
     728:	36528a98 	ori	s2,s2,0x8a98
     72c:	00000000 	nop
     730:	3c143f18 	lui	s4,0x3f18
     734:	36940c13 	ori	s4,s4,0xc13
     738:	16142311 	bne	s0,s4,9380 <inst_error>
     73c:	00000000 	nop
     740:	00000000 	nop
     744:	3c153bc3 	lui	s5,0x3bc3
     748:	36b58a98 	ori	s5,s5,0x8a98
     74c:	1655230c 	bne	s2,s5,9380 <inst_error>
     750:	00000000 	nop
     754:	00000000 	nop
     758:	3c0c4b4a 	lui	t4,0x4b4a
     75c:	358c15fc 	ori	t4,t4,0x15fc
     760:	3c0dd348 	lui	t5,0xd348
     764:	35ad0b3e 	ori	t5,t5,0xb3e
     768:	24100000 	li	s0,0
     76c:	10000012 	b	7b8 <n33_blez_test+0x7b8>
     770:	24120000 	li	s2,0
     774:	00000000 	nop
     778:	3c104b4a 	lui	s0,0x4b4a
     77c:	19000019 	blez	t0,7e4 <n33_blez_test+0x7e4>
     780:	361015fc 	ori	s0,s0,0x15fc
     784:	10000019 	b	7ec <n33_blez_test+0x7ec>
     788:	00000000 	nop
     78c:	00000000 	nop
     790:	00000021 	move	zero,zero
     794:	00000021 	move	zero,zero
     798:	00000021 	move	zero,zero
     79c:	00000021 	move	zero,zero
     7a0:	00000021 	move	zero,zero
     7a4:	00000021 	move	zero,zero
     7a8:	00000021 	move	zero,zero
     7ac:	00000021 	move	zero,zero
     7b0:	00000021 	move	zero,zero
     7b4:	00000021 	move	zero,zero
     7b8:	3c087e5e 	lui	t0,0x7e5e
     7bc:	3508ca9a 	ori	t0,t0,0xca9a
     7c0:	1900ffed 	blez	t0,778 <n33_blez_test+0x778>
     7c4:	00000000 	nop
     7c8:	10000008 	b	7ec <n33_blez_test+0x7ec>
     7cc:	00000000 	nop
     7d0:	00000000 	nop
     7d4:	00000021 	move	zero,zero
     7d8:	00000021 	move	zero,zero
     7dc:	00000021 	move	zero,zero
     7e0:	00000021 	move	zero,zero
     7e4:	3c12d348 	lui	s2,0xd348
     7e8:	36520b3e 	ori	s2,s2,0xb3e
     7ec:	00000000 	nop
     7f0:	24140000 	li	s4,0
     7f4:	161422e2 	bne	s0,s4,9380 <inst_error>
     7f8:	00000000 	nop
     7fc:	00000000 	nop
     800:	24150000 	li	s5,0
     804:	165522de 	bne	s2,s5,9380 <inst_error>
     808:	00000000 	nop
     80c:	00000000 	nop
     810:	3c0cbf05 	lui	t4,0xbf05
     814:	358c7200 	ori	t4,t4,0x7200
     818:	3c0d2fdb 	lui	t5,0x2fdb
     81c:	35adbe72 	ori	t5,t5,0xbe72
     820:	24100000 	li	s0,0
     824:	10000012 	b	870 <n33_blez_test+0x870>
     828:	24120000 	li	s2,0
     82c:	00000000 	nop
     830:	3c10bf05 	lui	s0,0xbf05
     834:	19000019 	blez	t0,89c <n33_blez_test+0x89c>
     838:	36107200 	ori	s0,s0,0x7200
     83c:	10000019 	b	8a4 <n33_blez_test+0x8a4>
     840:	00000000 	nop
     844:	00000000 	nop
     848:	00000021 	move	zero,zero
     84c:	00000021 	move	zero,zero
     850:	00000021 	move	zero,zero
     854:	00000021 	move	zero,zero
     858:	00000021 	move	zero,zero
     85c:	00000021 	move	zero,zero
     860:	00000021 	move	zero,zero
     864:	00000021 	move	zero,zero
     868:	00000021 	move	zero,zero
     86c:	00000021 	move	zero,zero
     870:	3c087430 	lui	t0,0x7430
     874:	3508a9bc 	ori	t0,t0,0xa9bc
     878:	1900ffed 	blez	t0,830 <n33_blez_test+0x830>
     87c:	00000000 	nop
     880:	10000008 	b	8a4 <n33_blez_test+0x8a4>
     884:	00000000 	nop
     888:	00000000 	nop
     88c:	00000021 	move	zero,zero
     890:	00000021 	move	zero,zero
     894:	00000021 	move	zero,zero
     898:	00000021 	move	zero,zero
     89c:	3c122fdb 	lui	s2,0x2fdb
     8a0:	3652be72 	ori	s2,s2,0xbe72
     8a4:	00000000 	nop
     8a8:	24140000 	li	s4,0
     8ac:	161422b4 	bne	s0,s4,9380 <inst_error>
     8b0:	00000000 	nop
     8b4:	00000000 	nop
     8b8:	24150000 	li	s5,0
     8bc:	165522b0 	bne	s2,s5,9380 <inst_error>
     8c0:	00000000 	nop
     8c4:	00000000 	nop
     8c8:	3c0c37c8 	lui	t4,0x37c8
     8cc:	358c16b0 	ori	t4,t4,0x16b0
     8d0:	3c0db512 	lui	t5,0xb512
     8d4:	35ad3aa5 	ori	t5,t5,0x3aa5
     8d8:	24100000 	li	s0,0
     8dc:	10000012 	b	928 <n33_blez_test+0x928>
     8e0:	24120000 	li	s2,0
     8e4:	00000000 	nop
     8e8:	3c1037c8 	lui	s0,0x37c8
     8ec:	19000019 	blez	t0,954 <n33_blez_test+0x954>
     8f0:	361016b0 	ori	s0,s0,0x16b0
     8f4:	10000019 	b	95c <n33_blez_test+0x95c>
     8f8:	00000000 	nop
     8fc:	00000000 	nop
     900:	00000021 	move	zero,zero
     904:	00000021 	move	zero,zero
     908:	00000021 	move	zero,zero
     90c:	00000021 	move	zero,zero
     910:	00000021 	move	zero,zero
     914:	00000021 	move	zero,zero
     918:	00000021 	move	zero,zero
     91c:	00000021 	move	zero,zero
     920:	00000021 	move	zero,zero
     924:	00000021 	move	zero,zero
     928:	3c08f836 	lui	t0,0xf836
     92c:	3508bb94 	ori	t0,t0,0xbb94
     930:	1900ffed 	blez	t0,8e8 <n33_blez_test+0x8e8>
     934:	00000000 	nop
     938:	10000008 	b	95c <n33_blez_test+0x95c>
     93c:	00000000 	nop
     940:	00000000 	nop
     944:	00000021 	move	zero,zero
     948:	00000021 	move	zero,zero
     94c:	00000021 	move	zero,zero
     950:	00000021 	move	zero,zero
     954:	3c12b512 	lui	s2,0xb512
     958:	36523aa5 	ori	s2,s2,0x3aa5
     95c:	00000000 	nop
     960:	3c1437c8 	lui	s4,0x37c8
     964:	369416b0 	ori	s4,s4,0x16b0
     968:	16142285 	bne	s0,s4,9380 <inst_error>
     96c:	00000000 	nop
     970:	00000000 	nop
     974:	3c15b512 	lui	s5,0xb512
     978:	36b53aa5 	ori	s5,s5,0x3aa5
     97c:	16552280 	bne	s2,s5,9380 <inst_error>
     980:	00000000 	nop
     984:	00000000 	nop
     988:	3c0c294e 	lui	t4,0x294e
     98c:	358c60b0 	ori	t4,t4,0x60b0
     990:	3c0d500d 	lui	t5,0x500d
     994:	35adf160 	ori	t5,t5,0xf160
     998:	24100000 	li	s0,0
     99c:	10000012 	b	9e8 <n33_blez_test+0x9e8>
     9a0:	24120000 	li	s2,0
     9a4:	00000000 	nop
     9a8:	3c10294e 	lui	s0,0x294e
     9ac:	19000019 	blez	t0,a14 <n33_blez_test+0xa14>
     9b0:	361060b0 	ori	s0,s0,0x60b0
     9b4:	10000019 	b	a1c <n33_blez_test+0xa1c>
     9b8:	00000000 	nop
     9bc:	00000000 	nop
     9c0:	00000021 	move	zero,zero
     9c4:	00000021 	move	zero,zero
     9c8:	00000021 	move	zero,zero
     9cc:	00000021 	move	zero,zero
     9d0:	00000021 	move	zero,zero
     9d4:	00000021 	move	zero,zero
     9d8:	00000021 	move	zero,zero
     9dc:	00000021 	move	zero,zero
     9e0:	00000021 	move	zero,zero
     9e4:	00000021 	move	zero,zero
     9e8:	3c086b6d 	lui	t0,0x6b6d
     9ec:	3508aebe 	ori	t0,t0,0xaebe
     9f0:	1900ffed 	blez	t0,9a8 <n33_blez_test+0x9a8>
     9f4:	00000000 	nop
     9f8:	10000008 	b	a1c <n33_blez_test+0xa1c>
     9fc:	00000000 	nop
     a00:	00000000 	nop
     a04:	00000021 	move	zero,zero
     a08:	00000021 	move	zero,zero
     a0c:	00000021 	move	zero,zero
     a10:	00000021 	move	zero,zero
     a14:	3c12500d 	lui	s2,0x500d
     a18:	3652f160 	ori	s2,s2,0xf160
     a1c:	00000000 	nop
     a20:	24140000 	li	s4,0
     a24:	16142256 	bne	s0,s4,9380 <inst_error>
     a28:	00000000 	nop
     a2c:	00000000 	nop
     a30:	24150000 	li	s5,0
     a34:	16552252 	bne	s2,s5,9380 <inst_error>
     a38:	00000000 	nop
     a3c:	00000000 	nop
     a40:	3c0c0bc7 	lui	t4,0xbc7
     a44:	358c9c38 	ori	t4,t4,0x9c38
     a48:	3c0d623d 	lui	t5,0x623d
     a4c:	35ad501e 	ori	t5,t5,0x501e
     a50:	24100000 	li	s0,0
     a54:	10000012 	b	aa0 <n33_blez_test+0xaa0>
     a58:	24120000 	li	s2,0
     a5c:	00000000 	nop
     a60:	3c100bc7 	lui	s0,0xbc7
     a64:	19000019 	blez	t0,acc <n33_blez_test+0xacc>
     a68:	36109c38 	ori	s0,s0,0x9c38
     a6c:	10000019 	b	ad4 <n33_blez_test+0xad4>
     a70:	00000000 	nop
     a74:	00000000 	nop
     a78:	00000021 	move	zero,zero
     a7c:	00000021 	move	zero,zero
     a80:	00000021 	move	zero,zero
     a84:	00000021 	move	zero,zero
     a88:	00000021 	move	zero,zero
     a8c:	00000021 	move	zero,zero
     a90:	00000021 	move	zero,zero
     a94:	00000021 	move	zero,zero
     a98:	00000021 	move	zero,zero
     a9c:	00000021 	move	zero,zero
     aa0:	3c080274 	lui	t0,0x274
     aa4:	35085600 	ori	t0,t0,0x5600
     aa8:	1900ffed 	blez	t0,a60 <n33_blez_test+0xa60>
     aac:	00000000 	nop
     ab0:	10000008 	b	ad4 <n33_blez_test+0xad4>
     ab4:	00000000 	nop
     ab8:	00000000 	nop
     abc:	00000021 	move	zero,zero
     ac0:	00000021 	move	zero,zero
     ac4:	00000021 	move	zero,zero
     ac8:	00000021 	move	zero,zero
     acc:	3c12623d 	lui	s2,0x623d
     ad0:	3652501e 	ori	s2,s2,0x501e
     ad4:	00000000 	nop
     ad8:	24140000 	li	s4,0
     adc:	16142228 	bne	s0,s4,9380 <inst_error>
     ae0:	00000000 	nop
     ae4:	00000000 	nop
     ae8:	24150000 	li	s5,0
     aec:	16552224 	bne	s2,s5,9380 <inst_error>
     af0:	00000000 	nop
     af4:	00000000 	nop
     af8:	3c0c699a 	lui	t4,0x699a
     afc:	358c3b30 	ori	t4,t4,0x3b30
     b00:	3c0decb8 	lui	t5,0xecb8
     b04:	35adb910 	ori	t5,t5,0xb910
     b08:	24100000 	li	s0,0
     b0c:	10000012 	b	b58 <n33_blez_test+0xb58>
     b10:	24120000 	li	s2,0
     b14:	00000000 	nop
     b18:	3c10699a 	lui	s0,0x699a
     b1c:	19000019 	blez	t0,b84 <n33_blez_test+0xb84>
     b20:	36103b30 	ori	s0,s0,0x3b30
     b24:	10000019 	b	b8c <n33_blez_test+0xb8c>
     b28:	00000000 	nop
     b2c:	00000000 	nop
     b30:	00000021 	move	zero,zero
     b34:	00000021 	move	zero,zero
     b38:	00000021 	move	zero,zero
     b3c:	00000021 	move	zero,zero
     b40:	00000021 	move	zero,zero
     b44:	00000021 	move	zero,zero
     b48:	00000021 	move	zero,zero
     b4c:	00000021 	move	zero,zero
     b50:	00000021 	move	zero,zero
     b54:	00000021 	move	zero,zero
     b58:	3c088d27 	lui	t0,0x8d27
     b5c:	35084934 	ori	t0,t0,0x4934
     b60:	1900ffed 	blez	t0,b18 <n33_blez_test+0xb18>
     b64:	00000000 	nop
     b68:	10000008 	b	b8c <n33_blez_test+0xb8c>
     b6c:	00000000 	nop
     b70:	00000000 	nop
     b74:	00000021 	move	zero,zero
     b78:	00000021 	move	zero,zero
     b7c:	00000021 	move	zero,zero
     b80:	00000021 	move	zero,zero
     b84:	3c12ecb8 	lui	s2,0xecb8
     b88:	3652b910 	ori	s2,s2,0xb910
     b8c:	00000000 	nop
     b90:	3c14699a 	lui	s4,0x699a
     b94:	36943b30 	ori	s4,s4,0x3b30
     b98:	161421f9 	bne	s0,s4,9380 <inst_error>
     b9c:	00000000 	nop
     ba0:	00000000 	nop
     ba4:	3c15ecb8 	lui	s5,0xecb8
     ba8:	36b5b910 	ori	s5,s5,0xb910
     bac:	165521f4 	bne	s2,s5,9380 <inst_error>
     bb0:	00000000 	nop
     bb4:	00000000 	nop
     bb8:	3c0c82f6 	lui	t4,0x82f6
     bbc:	358ce288 	ori	t4,t4,0xe288
     bc0:	3c0d1854 	lui	t5,0x1854
     bc4:	35ad9ab0 	ori	t5,t5,0x9ab0
     bc8:	24100000 	li	s0,0
     bcc:	10000012 	b	c18 <n33_blez_test+0xc18>
     bd0:	24120000 	li	s2,0
     bd4:	00000000 	nop
     bd8:	3c1082f6 	lui	s0,0x82f6
     bdc:	19000019 	blez	t0,c44 <n33_blez_test+0xc44>
     be0:	3610e288 	ori	s0,s0,0xe288
     be4:	10000019 	b	c4c <n33_blez_test+0xc4c>
     be8:	00000000 	nop
     bec:	00000000 	nop
     bf0:	00000021 	move	zero,zero
     bf4:	00000021 	move	zero,zero
     bf8:	00000021 	move	zero,zero
     bfc:	00000021 	move	zero,zero
     c00:	00000021 	move	zero,zero
     c04:	00000021 	move	zero,zero
     c08:	00000021 	move	zero,zero
     c0c:	00000021 	move	zero,zero
     c10:	00000021 	move	zero,zero
     c14:	00000021 	move	zero,zero
     c18:	3c084797 	lui	t0,0x4797
     c1c:	3508d3c4 	ori	t0,t0,0xd3c4
     c20:	1900ffed 	blez	t0,bd8 <n33_blez_test+0xbd8>
     c24:	00000000 	nop
     c28:	10000008 	b	c4c <n33_blez_test+0xc4c>
     c2c:	00000000 	nop
     c30:	00000000 	nop
     c34:	00000021 	move	zero,zero
     c38:	00000021 	move	zero,zero
     c3c:	00000021 	move	zero,zero
     c40:	00000021 	move	zero,zero
     c44:	3c121854 	lui	s2,0x1854
     c48:	36529ab0 	ori	s2,s2,0x9ab0
     c4c:	00000000 	nop
     c50:	24140000 	li	s4,0
     c54:	161421ca 	bne	s0,s4,9380 <inst_error>
     c58:	00000000 	nop
     c5c:	00000000 	nop
     c60:	24150000 	li	s5,0
     c64:	165521c6 	bne	s2,s5,9380 <inst_error>
     c68:	00000000 	nop
     c6c:	00000000 	nop
     c70:	3c0c240d 	lui	t4,0x240d
     c74:	358cab00 	ori	t4,t4,0xab00
     c78:	3c0dfc31 	lui	t5,0xfc31
     c7c:	35ad3800 	ori	t5,t5,0x3800
     c80:	24100000 	li	s0,0
     c84:	10000012 	b	cd0 <n33_blez_test+0xcd0>
     c88:	24120000 	li	s2,0
     c8c:	00000000 	nop
     c90:	3c10240d 	lui	s0,0x240d
     c94:	19000019 	blez	t0,cfc <n33_blez_test+0xcfc>
     c98:	3610ab00 	ori	s0,s0,0xab00
     c9c:	10000019 	b	d04 <n33_blez_test+0xd04>
     ca0:	00000000 	nop
     ca4:	00000000 	nop
     ca8:	00000021 	move	zero,zero
     cac:	00000021 	move	zero,zero
     cb0:	00000021 	move	zero,zero
     cb4:	00000021 	move	zero,zero
     cb8:	00000021 	move	zero,zero
     cbc:	00000021 	move	zero,zero
     cc0:	00000021 	move	zero,zero
     cc4:	00000021 	move	zero,zero
     cc8:	00000021 	move	zero,zero
     ccc:	00000021 	move	zero,zero
     cd0:	3c084df2 	lui	t0,0x4df2
     cd4:	3508d5b0 	ori	t0,t0,0xd5b0
     cd8:	1900ffed 	blez	t0,c90 <n33_blez_test+0xc90>
     cdc:	00000000 	nop
     ce0:	10000008 	b	d04 <n33_blez_test+0xd04>
     ce4:	00000000 	nop
     ce8:	00000000 	nop
     cec:	00000021 	move	zero,zero
     cf0:	00000021 	move	zero,zero
     cf4:	00000021 	move	zero,zero
     cf8:	00000021 	move	zero,zero
     cfc:	3c12fc31 	lui	s2,0xfc31
     d00:	36523800 	ori	s2,s2,0x3800
     d04:	00000000 	nop
     d08:	24140000 	li	s4,0
     d0c:	1614219c 	bne	s0,s4,9380 <inst_error>
     d10:	00000000 	nop
     d14:	00000000 	nop
     d18:	24150000 	li	s5,0
     d1c:	16552198 	bne	s2,s5,9380 <inst_error>
     d20:	00000000 	nop
     d24:	00000000 	nop
     d28:	3c0c2120 	lui	t4,0x2120
     d2c:	358c27e4 	ori	t4,t4,0x27e4
     d30:	3c0dfa71 	lui	t5,0xfa71
     d34:	35ad9eb0 	ori	t5,t5,0x9eb0
     d38:	24100000 	li	s0,0
     d3c:	10000012 	b	d88 <n33_blez_test+0xd88>
     d40:	24120000 	li	s2,0
     d44:	00000000 	nop
     d48:	3c102120 	lui	s0,0x2120
     d4c:	19000019 	blez	t0,db4 <n33_blez_test+0xdb4>
     d50:	361027e4 	ori	s0,s0,0x27e4
     d54:	10000019 	b	dbc <n33_blez_test+0xdbc>
     d58:	00000000 	nop
     d5c:	00000000 	nop
     d60:	00000021 	move	zero,zero
     d64:	00000021 	move	zero,zero
     d68:	00000021 	move	zero,zero
     d6c:	00000021 	move	zero,zero
     d70:	00000021 	move	zero,zero
     d74:	00000021 	move	zero,zero
     d78:	00000021 	move	zero,zero
     d7c:	00000021 	move	zero,zero
     d80:	00000021 	move	zero,zero
     d84:	00000021 	move	zero,zero
     d88:	3c0857a5 	lui	t0,0x57a5
     d8c:	35082a38 	ori	t0,t0,0x2a38
     d90:	1900ffed 	blez	t0,d48 <n33_blez_test+0xd48>
     d94:	00000000 	nop
     d98:	10000008 	b	dbc <n33_blez_test+0xdbc>
     d9c:	00000000 	nop
     da0:	00000000 	nop
     da4:	00000021 	move	zero,zero
     da8:	00000021 	move	zero,zero
     dac:	00000021 	move	zero,zero
     db0:	00000021 	move	zero,zero
     db4:	3c12fa71 	lui	s2,0xfa71
     db8:	36529eb0 	ori	s2,s2,0x9eb0
     dbc:	00000000 	nop
     dc0:	24140000 	li	s4,0
     dc4:	1614216e 	bne	s0,s4,9380 <inst_error>
     dc8:	00000000 	nop
     dcc:	00000000 	nop
     dd0:	24150000 	li	s5,0
     dd4:	1655216a 	bne	s2,s5,9380 <inst_error>
     dd8:	00000000 	nop
     ddc:	00000000 	nop
     de0:	3c0c1bcc 	lui	t4,0x1bcc
     de4:	358c05b9 	ori	t4,t4,0x5b9
     de8:	3c0d72ae 	lui	t5,0x72ae
     dec:	35ad72b0 	ori	t5,t5,0x72b0
     df0:	24100000 	li	s0,0
     df4:	10000012 	b	e40 <n33_blez_test+0xe40>
     df8:	24120000 	li	s2,0
     dfc:	00000000 	nop
     e00:	3c101bcc 	lui	s0,0x1bcc
     e04:	19000019 	blez	t0,e6c <n33_blez_test+0xe6c>
     e08:	361005b9 	ori	s0,s0,0x5b9
     e0c:	10000019 	b	e74 <n33_blez_test+0xe74>
     e10:	00000000 	nop
     e14:	00000000 	nop
     e18:	00000021 	move	zero,zero
     e1c:	00000021 	move	zero,zero
     e20:	00000021 	move	zero,zero
     e24:	00000021 	move	zero,zero
     e28:	00000021 	move	zero,zero
     e2c:	00000021 	move	zero,zero
     e30:	00000021 	move	zero,zero
     e34:	00000021 	move	zero,zero
     e38:	00000021 	move	zero,zero
     e3c:	00000021 	move	zero,zero
     e40:	3c088e03 	lui	t0,0x8e03
     e44:	35088139 	ori	t0,t0,0x8139
     e48:	1900ffed 	blez	t0,e00 <n33_blez_test+0xe00>
     e4c:	00000000 	nop
     e50:	10000008 	b	e74 <n33_blez_test+0xe74>
     e54:	00000000 	nop
     e58:	00000000 	nop
     e5c:	00000021 	move	zero,zero
     e60:	00000021 	move	zero,zero
     e64:	00000021 	move	zero,zero
     e68:	00000021 	move	zero,zero
     e6c:	3c1272ae 	lui	s2,0x72ae
     e70:	365272b0 	ori	s2,s2,0x72b0
     e74:	00000000 	nop
     e78:	3c141bcc 	lui	s4,0x1bcc
     e7c:	369405b9 	ori	s4,s4,0x5b9
     e80:	1614213f 	bne	s0,s4,9380 <inst_error>
     e84:	00000000 	nop
     e88:	00000000 	nop
     e8c:	3c1572ae 	lui	s5,0x72ae
     e90:	36b572b0 	ori	s5,s5,0x72b0
     e94:	1655213a 	bne	s2,s5,9380 <inst_error>
     e98:	00000000 	nop
     e9c:	00000000 	nop
     ea0:	3c0ce541 	lui	t4,0xe541
     ea4:	358cfb00 	ori	t4,t4,0xfb00
     ea8:	3c0d1b71 	lui	t5,0x1b71
     eac:	35ad26c8 	ori	t5,t5,0x26c8
     eb0:	24100000 	li	s0,0
     eb4:	10000012 	b	f00 <n33_blez_test+0xf00>
     eb8:	24120000 	li	s2,0
     ebc:	00000000 	nop
     ec0:	3c10e541 	lui	s0,0xe541
     ec4:	19000019 	blez	t0,f2c <n33_blez_test+0xf2c>
     ec8:	3610fb00 	ori	s0,s0,0xfb00
     ecc:	10000019 	b	f34 <n33_blez_test+0xf34>
     ed0:	00000000 	nop
     ed4:	00000000 	nop
     ed8:	00000021 	move	zero,zero
     edc:	00000021 	move	zero,zero
     ee0:	00000021 	move	zero,zero
     ee4:	00000021 	move	zero,zero
     ee8:	00000021 	move	zero,zero
     eec:	00000021 	move	zero,zero
     ef0:	00000021 	move	zero,zero
     ef4:	00000021 	move	zero,zero
     ef8:	00000021 	move	zero,zero
     efc:	00000021 	move	zero,zero
     f00:	3c08bf9c 	lui	t0,0xbf9c
     f04:	35088198 	ori	t0,t0,0x8198
     f08:	1900ffed 	blez	t0,ec0 <n33_blez_test+0xec0>
     f0c:	00000000 	nop
     f10:	10000008 	b	f34 <n33_blez_test+0xf34>
     f14:	00000000 	nop
     f18:	00000000 	nop
     f1c:	00000021 	move	zero,zero
     f20:	00000021 	move	zero,zero
     f24:	00000021 	move	zero,zero
     f28:	00000021 	move	zero,zero
     f2c:	3c121b71 	lui	s2,0x1b71
     f30:	365226c8 	ori	s2,s2,0x26c8
     f34:	00000000 	nop
     f38:	3c14e541 	lui	s4,0xe541
     f3c:	3694fb00 	ori	s4,s4,0xfb00
     f40:	1614210f 	bne	s0,s4,9380 <inst_error>
     f44:	00000000 	nop
     f48:	00000000 	nop
     f4c:	3c151b71 	lui	s5,0x1b71
     f50:	36b526c8 	ori	s5,s5,0x26c8
     f54:	1655210a 	bne	s2,s5,9380 <inst_error>
     f58:	00000000 	nop
     f5c:	00000000 	nop
     f60:	3c0c01b1 	lui	t4,0x1b1
     f64:	358c2380 	ori	t4,t4,0x2380
     f68:	3c0d2f82 	lui	t5,0x2f82
     f6c:	35ada822 	ori	t5,t5,0xa822
     f70:	24100000 	li	s0,0
     f74:	10000012 	b	fc0 <n33_blez_test+0xfc0>
     f78:	24120000 	li	s2,0
     f7c:	00000000 	nop
     f80:	3c1001b1 	lui	s0,0x1b1
     f84:	19000019 	blez	t0,fec <n33_blez_test+0xfec>
     f88:	36102380 	ori	s0,s0,0x2380
     f8c:	10000019 	b	ff4 <n33_blez_test+0xff4>
     f90:	00000000 	nop
     f94:	00000000 	nop
     f98:	00000021 	move	zero,zero
     f9c:	00000021 	move	zero,zero
     fa0:	00000021 	move	zero,zero
     fa4:	00000021 	move	zero,zero
     fa8:	00000021 	move	zero,zero
     fac:	00000021 	move	zero,zero
     fb0:	00000021 	move	zero,zero
     fb4:	00000021 	move	zero,zero
     fb8:	00000021 	move	zero,zero
     fbc:	00000021 	move	zero,zero
     fc0:	3c081249 	lui	t0,0x1249
     fc4:	3508b078 	ori	t0,t0,0xb078
     fc8:	1900ffed 	blez	t0,f80 <n33_blez_test+0xf80>
     fcc:	00000000 	nop
     fd0:	10000008 	b	ff4 <n33_blez_test+0xff4>
     fd4:	00000000 	nop
     fd8:	00000000 	nop
     fdc:	00000021 	move	zero,zero
     fe0:	00000021 	move	zero,zero
     fe4:	00000021 	move	zero,zero
     fe8:	00000021 	move	zero,zero
     fec:	3c122f82 	lui	s2,0x2f82
     ff0:	3652a822 	ori	s2,s2,0xa822
     ff4:	00000000 	nop
     ff8:	24140000 	li	s4,0
     ffc:	161420e0 	bne	s0,s4,9380 <inst_error>
    1000:	00000000 	nop
    1004:	00000000 	nop
    1008:	24150000 	li	s5,0
    100c:	165520dc 	bne	s2,s5,9380 <inst_error>
    1010:	00000000 	nop
    1014:	00000000 	nop
    1018:	3c0cf9cb 	lui	t4,0xf9cb
    101c:	358ca288 	ori	t4,t4,0xa288
    1020:	3c0dd13e 	lui	t5,0xd13e
    1024:	35ad2f00 	ori	t5,t5,0x2f00
    1028:	24100000 	li	s0,0
    102c:	10000012 	b	1078 <n33_blez_test+0x1078>
    1030:	24120000 	li	s2,0
    1034:	00000000 	nop
    1038:	3c10f9cb 	lui	s0,0xf9cb
    103c:	19000019 	blez	t0,10a4 <n33_blez_test+0x10a4>
    1040:	3610a288 	ori	s0,s0,0xa288
    1044:	10000019 	b	10ac <n33_blez_test+0x10ac>
    1048:	00000000 	nop
    104c:	00000000 	nop
    1050:	00000021 	move	zero,zero
    1054:	00000021 	move	zero,zero
    1058:	00000021 	move	zero,zero
    105c:	00000021 	move	zero,zero
    1060:	00000021 	move	zero,zero
    1064:	00000021 	move	zero,zero
    1068:	00000021 	move	zero,zero
    106c:	00000021 	move	zero,zero
    1070:	00000021 	move	zero,zero
    1074:	00000021 	move	zero,zero
    1078:	3c08ecce 	lui	t0,0xecce
    107c:	35081f70 	ori	t0,t0,0x1f70
    1080:	1900ffed 	blez	t0,1038 <n33_blez_test+0x1038>
    1084:	00000000 	nop
    1088:	10000008 	b	10ac <n33_blez_test+0x10ac>
    108c:	00000000 	nop
    1090:	00000000 	nop
    1094:	00000021 	move	zero,zero
    1098:	00000021 	move	zero,zero
    109c:	00000021 	move	zero,zero
    10a0:	00000021 	move	zero,zero
    10a4:	3c12d13e 	lui	s2,0xd13e
    10a8:	36522f00 	ori	s2,s2,0x2f00
    10ac:	00000000 	nop
    10b0:	3c14f9cb 	lui	s4,0xf9cb
    10b4:	3694a288 	ori	s4,s4,0xa288
    10b8:	161420b1 	bne	s0,s4,9380 <inst_error>
    10bc:	00000000 	nop
    10c0:	00000000 	nop
    10c4:	3c15d13e 	lui	s5,0xd13e
    10c8:	36b52f00 	ori	s5,s5,0x2f00
    10cc:	165520ac 	bne	s2,s5,9380 <inst_error>
    10d0:	00000000 	nop
    10d4:	00000000 	nop
    10d8:	3c0cc848 	lui	t4,0xc848
    10dc:	358c2c40 	ori	t4,t4,0x2c40
    10e0:	3c0d525f 	lui	t5,0x525f
    10e4:	35ad8eeb 	ori	t5,t5,0x8eeb
    10e8:	24100000 	li	s0,0
    10ec:	10000012 	b	1138 <n33_blez_test+0x1138>
    10f0:	24120000 	li	s2,0
    10f4:	00000000 	nop
    10f8:	3c10c848 	lui	s0,0xc848
    10fc:	19000019 	blez	t0,1164 <n33_blez_test+0x1164>
    1100:	36102c40 	ori	s0,s0,0x2c40
    1104:	10000019 	b	116c <n33_blez_test+0x116c>
    1108:	00000000 	nop
    110c:	00000000 	nop
    1110:	00000021 	move	zero,zero
    1114:	00000021 	move	zero,zero
    1118:	00000021 	move	zero,zero
    111c:	00000021 	move	zero,zero
    1120:	00000021 	move	zero,zero
    1124:	00000021 	move	zero,zero
    1128:	00000021 	move	zero,zero
    112c:	00000021 	move	zero,zero
    1130:	00000021 	move	zero,zero
    1134:	00000021 	move	zero,zero
    1138:	3c0800c3 	lui	t0,0xc3
    113c:	35088455 	ori	t0,t0,0x8455
    1140:	1900ffed 	blez	t0,10f8 <n33_blez_test+0x10f8>
    1144:	00000000 	nop
    1148:	10000008 	b	116c <n33_blez_test+0x116c>
    114c:	00000000 	nop
    1150:	00000000 	nop
    1154:	00000021 	move	zero,zero
    1158:	00000021 	move	zero,zero
    115c:	00000021 	move	zero,zero
    1160:	00000021 	move	zero,zero
    1164:	3c12525f 	lui	s2,0x525f
    1168:	36528eeb 	ori	s2,s2,0x8eeb
    116c:	00000000 	nop
    1170:	24140000 	li	s4,0
    1174:	16142082 	bne	s0,s4,9380 <inst_error>
    1178:	00000000 	nop
    117c:	00000000 	nop
    1180:	24150000 	li	s5,0
    1184:	1655207e 	bne	s2,s5,9380 <inst_error>
    1188:	00000000 	nop
    118c:	00000000 	nop
    1190:	3c0c9808 	lui	t4,0x9808
    1194:	358c56a0 	ori	t4,t4,0x56a0
    1198:	3c0db7a9 	lui	t5,0xb7a9
    119c:	35ad6a50 	ori	t5,t5,0x6a50
    11a0:	24100000 	li	s0,0
    11a4:	10000012 	b	11f0 <n33_blez_test+0x11f0>
    11a8:	24120000 	li	s2,0
    11ac:	00000000 	nop
    11b0:	3c109808 	lui	s0,0x9808
    11b4:	19000019 	blez	t0,121c <n33_blez_test+0x121c>
    11b8:	361056a0 	ori	s0,s0,0x56a0
    11bc:	10000019 	b	1224 <n33_blez_test+0x1224>
    11c0:	00000000 	nop
    11c4:	00000000 	nop
    11c8:	00000021 	move	zero,zero
    11cc:	00000021 	move	zero,zero
    11d0:	00000021 	move	zero,zero
    11d4:	00000021 	move	zero,zero
    11d8:	00000021 	move	zero,zero
    11dc:	00000021 	move	zero,zero
    11e0:	00000021 	move	zero,zero
    11e4:	00000021 	move	zero,zero
    11e8:	00000021 	move	zero,zero
    11ec:	00000021 	move	zero,zero
    11f0:	3c089b68 	lui	t0,0x9b68
    11f4:	35084c3e 	ori	t0,t0,0x4c3e
    11f8:	1900ffed 	blez	t0,11b0 <n33_blez_test+0x11b0>
    11fc:	00000000 	nop
    1200:	10000008 	b	1224 <n33_blez_test+0x1224>
    1204:	00000000 	nop
    1208:	00000000 	nop
    120c:	00000021 	move	zero,zero
    1210:	00000021 	move	zero,zero
    1214:	00000021 	move	zero,zero
    1218:	00000021 	move	zero,zero
    121c:	3c12b7a9 	lui	s2,0xb7a9
    1220:	36526a50 	ori	s2,s2,0x6a50
    1224:	00000000 	nop
    1228:	3c149808 	lui	s4,0x9808
    122c:	369456a0 	ori	s4,s4,0x56a0
    1230:	16142053 	bne	s0,s4,9380 <inst_error>
    1234:	00000000 	nop
    1238:	00000000 	nop
    123c:	3c15b7a9 	lui	s5,0xb7a9
    1240:	36b56a50 	ori	s5,s5,0x6a50
    1244:	1655204e 	bne	s2,s5,9380 <inst_error>
    1248:	00000000 	nop
    124c:	00000000 	nop
    1250:	3c0c234e 	lui	t4,0x234e
    1254:	358c3918 	ori	t4,t4,0x3918
    1258:	3c0dffac 	lui	t5,0xffac
    125c:	35ad4ebc 	ori	t5,t5,0x4ebc
    1260:	24100000 	li	s0,0
    1264:	10000012 	b	12b0 <n33_blez_test+0x12b0>
    1268:	24120000 	li	s2,0
    126c:	00000000 	nop
    1270:	3c10234e 	lui	s0,0x234e
    1274:	19000019 	blez	t0,12dc <n33_blez_test+0x12dc>
    1278:	36103918 	ori	s0,s0,0x3918
    127c:	10000019 	b	12e4 <n33_blez_test+0x12e4>
    1280:	00000000 	nop
    1284:	00000000 	nop
    1288:	00000021 	move	zero,zero
    128c:	00000021 	move	zero,zero
    1290:	00000021 	move	zero,zero
    1294:	00000021 	move	zero,zero
    1298:	00000021 	move	zero,zero
    129c:	00000021 	move	zero,zero
    12a0:	00000021 	move	zero,zero
    12a4:	00000021 	move	zero,zero
    12a8:	00000021 	move	zero,zero
    12ac:	00000021 	move	zero,zero
    12b0:	3c086b77 	lui	t0,0x6b77
    12b4:	350893d8 	ori	t0,t0,0x93d8
    12b8:	1900ffed 	blez	t0,1270 <n33_blez_test+0x1270>
    12bc:	00000000 	nop
    12c0:	10000008 	b	12e4 <n33_blez_test+0x12e4>
    12c4:	00000000 	nop
    12c8:	00000000 	nop
    12cc:	00000021 	move	zero,zero
    12d0:	00000021 	move	zero,zero
    12d4:	00000021 	move	zero,zero
    12d8:	00000021 	move	zero,zero
    12dc:	3c12ffac 	lui	s2,0xffac
    12e0:	36524ebc 	ori	s2,s2,0x4ebc
    12e4:	00000000 	nop
    12e8:	24140000 	li	s4,0
    12ec:	16142024 	bne	s0,s4,9380 <inst_error>
    12f0:	00000000 	nop
    12f4:	00000000 	nop
    12f8:	24150000 	li	s5,0
    12fc:	16552020 	bne	s2,s5,9380 <inst_error>
    1300:	00000000 	nop
    1304:	00000000 	nop
    1308:	3c0c840e 	lui	t4,0x840e
    130c:	358cda46 	ori	t4,t4,0xda46
    1310:	3c0de0fd 	lui	t5,0xe0fd
    1314:	35addba0 	ori	t5,t5,0xdba0
    1318:	24100000 	li	s0,0
    131c:	10000012 	b	1368 <n33_blez_test+0x1368>
    1320:	24120000 	li	s2,0
    1324:	00000000 	nop
    1328:	3c10840e 	lui	s0,0x840e
    132c:	19000019 	blez	t0,1394 <n33_blez_test+0x1394>
    1330:	3610da46 	ori	s0,s0,0xda46
    1334:	10000019 	b	139c <n33_blez_test+0x139c>
    1338:	00000000 	nop
    133c:	00000000 	nop
    1340:	00000021 	move	zero,zero
    1344:	00000021 	move	zero,zero
    1348:	00000021 	move	zero,zero
    134c:	00000021 	move	zero,zero
    1350:	00000021 	move	zero,zero
    1354:	00000021 	move	zero,zero
    1358:	00000021 	move	zero,zero
    135c:	00000021 	move	zero,zero
    1360:	00000021 	move	zero,zero
    1364:	00000021 	move	zero,zero
    1368:	3c08e6d3 	lui	t0,0xe6d3
    136c:	3508f752 	ori	t0,t0,0xf752
    1370:	1900ffed 	blez	t0,1328 <n33_blez_test+0x1328>
    1374:	00000000 	nop
    1378:	10000008 	b	139c <n33_blez_test+0x139c>
    137c:	00000000 	nop
    1380:	00000000 	nop
    1384:	00000021 	move	zero,zero
    1388:	00000021 	move	zero,zero
    138c:	00000021 	move	zero,zero
    1390:	00000021 	move	zero,zero
    1394:	3c12e0fd 	lui	s2,0xe0fd
    1398:	3652dba0 	ori	s2,s2,0xdba0
    139c:	00000000 	nop
    13a0:	3c14840e 	lui	s4,0x840e
    13a4:	3694da46 	ori	s4,s4,0xda46
    13a8:	16141ff5 	bne	s0,s4,9380 <inst_error>
    13ac:	00000000 	nop
    13b0:	00000000 	nop
    13b4:	3c15e0fd 	lui	s5,0xe0fd
    13b8:	36b5dba0 	ori	s5,s5,0xdba0
    13bc:	16551ff0 	bne	s2,s5,9380 <inst_error>
    13c0:	00000000 	nop
    13c4:	00000000 	nop
    13c8:	3c0c91ce 	lui	t4,0x91ce
    13cc:	358c91aa 	ori	t4,t4,0x91aa
    13d0:	3c0ddc8b 	lui	t5,0xdc8b
    13d4:	35adc8e8 	ori	t5,t5,0xc8e8
    13d8:	24100000 	li	s0,0
    13dc:	10000012 	b	1428 <n33_blez_test+0x1428>
    13e0:	24120000 	li	s2,0
    13e4:	00000000 	nop
    13e8:	3c1091ce 	lui	s0,0x91ce
    13ec:	19000019 	blez	t0,1454 <n33_blez_test+0x1454>
    13f0:	361091aa 	ori	s0,s0,0x91aa
    13f4:	10000019 	b	145c <n33_blez_test+0x145c>
    13f8:	00000000 	nop
    13fc:	00000000 	nop
    1400:	00000021 	move	zero,zero
    1404:	00000021 	move	zero,zero
    1408:	00000021 	move	zero,zero
    140c:	00000021 	move	zero,zero
    1410:	00000021 	move	zero,zero
    1414:	00000021 	move	zero,zero
    1418:	00000021 	move	zero,zero
    141c:	00000021 	move	zero,zero
    1420:	00000021 	move	zero,zero
    1424:	00000021 	move	zero,zero
    1428:	3c083fc3 	lui	t0,0x3fc3
    142c:	35081ca0 	ori	t0,t0,0x1ca0
    1430:	1900ffed 	blez	t0,13e8 <n33_blez_test+0x13e8>
    1434:	00000000 	nop
    1438:	10000008 	b	145c <n33_blez_test+0x145c>
    143c:	00000000 	nop
    1440:	00000000 	nop
    1444:	00000021 	move	zero,zero
    1448:	00000021 	move	zero,zero
    144c:	00000021 	move	zero,zero
    1450:	00000021 	move	zero,zero
    1454:	3c12dc8b 	lui	s2,0xdc8b
    1458:	3652c8e8 	ori	s2,s2,0xc8e8
    145c:	00000000 	nop
    1460:	24140000 	li	s4,0
    1464:	16141fc6 	bne	s0,s4,9380 <inst_error>
    1468:	00000000 	nop
    146c:	00000000 	nop
    1470:	24150000 	li	s5,0
    1474:	16551fc2 	bne	s2,s5,9380 <inst_error>
    1478:	00000000 	nop
    147c:	00000000 	nop
    1480:	3c0c50f6 	lui	t4,0x50f6
    1484:	358c1b8c 	ori	t4,t4,0x1b8c
    1488:	3c0dc3de 	lui	t5,0xc3de
    148c:	35ad5780 	ori	t5,t5,0x5780
    1490:	24100000 	li	s0,0
    1494:	10000012 	b	14e0 <n33_blez_test+0x14e0>
    1498:	24120000 	li	s2,0
    149c:	00000000 	nop
    14a0:	3c1050f6 	lui	s0,0x50f6
    14a4:	19000019 	blez	t0,150c <n33_blez_test+0x150c>
    14a8:	36101b8c 	ori	s0,s0,0x1b8c
    14ac:	10000019 	b	1514 <n33_blez_test+0x1514>
    14b0:	00000000 	nop
    14b4:	00000000 	nop
    14b8:	00000021 	move	zero,zero
    14bc:	00000021 	move	zero,zero
    14c0:	00000021 	move	zero,zero
    14c4:	00000021 	move	zero,zero
    14c8:	00000021 	move	zero,zero
    14cc:	00000021 	move	zero,zero
    14d0:	00000021 	move	zero,zero
    14d4:	00000021 	move	zero,zero
    14d8:	00000021 	move	zero,zero
    14dc:	00000021 	move	zero,zero
    14e0:	3c08fa9c 	lui	t0,0xfa9c
    14e4:	35087468 	ori	t0,t0,0x7468
    14e8:	1900ffed 	blez	t0,14a0 <n33_blez_test+0x14a0>
    14ec:	00000000 	nop
    14f0:	10000008 	b	1514 <n33_blez_test+0x1514>
    14f4:	00000000 	nop
    14f8:	00000000 	nop
    14fc:	00000021 	move	zero,zero
    1500:	00000021 	move	zero,zero
    1504:	00000021 	move	zero,zero
    1508:	00000021 	move	zero,zero
    150c:	3c12c3de 	lui	s2,0xc3de
    1510:	36525780 	ori	s2,s2,0x5780
    1514:	00000000 	nop
    1518:	3c1450f6 	lui	s4,0x50f6
    151c:	36941b8c 	ori	s4,s4,0x1b8c
    1520:	16141f97 	bne	s0,s4,9380 <inst_error>
    1524:	00000000 	nop
    1528:	00000000 	nop
    152c:	3c15c3de 	lui	s5,0xc3de
    1530:	36b55780 	ori	s5,s5,0x5780
    1534:	16551f92 	bne	s2,s5,9380 <inst_error>
    1538:	00000000 	nop
    153c:	00000000 	nop
    1540:	3c0c5959 	lui	t4,0x5959
    1544:	358c4bd0 	ori	t4,t4,0x4bd0
    1548:	3c0dedfc 	lui	t5,0xedfc
    154c:	35ada8b8 	ori	t5,t5,0xa8b8
    1550:	24100000 	li	s0,0
    1554:	10000012 	b	15a0 <n33_blez_test+0x15a0>
    1558:	24120000 	li	s2,0
    155c:	00000000 	nop
    1560:	3c105959 	lui	s0,0x5959
    1564:	19000019 	blez	t0,15cc <n33_blez_test+0x15cc>
    1568:	36104bd0 	ori	s0,s0,0x4bd0
    156c:	10000019 	b	15d4 <n33_blez_test+0x15d4>
    1570:	00000000 	nop
    1574:	00000000 	nop
    1578:	00000021 	move	zero,zero
    157c:	00000021 	move	zero,zero
    1580:	00000021 	move	zero,zero
    1584:	00000021 	move	zero,zero
    1588:	00000021 	move	zero,zero
    158c:	00000021 	move	zero,zero
    1590:	00000021 	move	zero,zero
    1594:	00000021 	move	zero,zero
    1598:	00000021 	move	zero,zero
    159c:	00000021 	move	zero,zero
    15a0:	3c081b91 	lui	t0,0x1b91
    15a4:	3508e180 	ori	t0,t0,0xe180
    15a8:	1900ffed 	blez	t0,1560 <n33_blez_test+0x1560>
    15ac:	00000000 	nop
    15b0:	10000008 	b	15d4 <n33_blez_test+0x15d4>
    15b4:	00000000 	nop
    15b8:	00000000 	nop
    15bc:	00000021 	move	zero,zero
    15c0:	00000021 	move	zero,zero
    15c4:	00000021 	move	zero,zero
    15c8:	00000021 	move	zero,zero
    15cc:	3c12edfc 	lui	s2,0xedfc
    15d0:	3652a8b8 	ori	s2,s2,0xa8b8
    15d4:	00000000 	nop
    15d8:	24140000 	li	s4,0
    15dc:	16141f68 	bne	s0,s4,9380 <inst_error>
    15e0:	00000000 	nop
    15e4:	00000000 	nop
    15e8:	24150000 	li	s5,0
    15ec:	16551f64 	bne	s2,s5,9380 <inst_error>
    15f0:	00000000 	nop
    15f4:	00000000 	nop
    15f8:	3c0c9157 	lui	t4,0x9157
    15fc:	358c3db4 	ori	t4,t4,0x3db4
    1600:	3c0d71ca 	lui	t5,0x71ca
    1604:	35adfa0d 	ori	t5,t5,0xfa0d
    1608:	24100000 	li	s0,0
    160c:	10000012 	b	1658 <n33_blez_test+0x1658>
    1610:	24120000 	li	s2,0
    1614:	00000000 	nop
    1618:	3c109157 	lui	s0,0x9157
    161c:	19000019 	blez	t0,1684 <n33_blez_test+0x1684>
    1620:	36103db4 	ori	s0,s0,0x3db4
    1624:	10000019 	b	168c <n33_blez_test+0x168c>
    1628:	00000000 	nop
    162c:	00000000 	nop
    1630:	00000021 	move	zero,zero
    1634:	00000021 	move	zero,zero
    1638:	00000021 	move	zero,zero
    163c:	00000021 	move	zero,zero
    1640:	00000021 	move	zero,zero
    1644:	00000021 	move	zero,zero
    1648:	00000021 	move	zero,zero
    164c:	00000021 	move	zero,zero
    1650:	00000021 	move	zero,zero
    1654:	00000021 	move	zero,zero
    1658:	3c0841cd 	lui	t0,0x41cd
    165c:	3508ee76 	ori	t0,t0,0xee76
    1660:	1900ffed 	blez	t0,1618 <n33_blez_test+0x1618>
    1664:	00000000 	nop
    1668:	10000008 	b	168c <n33_blez_test+0x168c>
    166c:	00000000 	nop
    1670:	00000000 	nop
    1674:	00000021 	move	zero,zero
    1678:	00000021 	move	zero,zero
    167c:	00000021 	move	zero,zero
    1680:	00000021 	move	zero,zero
    1684:	3c1271ca 	lui	s2,0x71ca
    1688:	3652fa0d 	ori	s2,s2,0xfa0d
    168c:	00000000 	nop
    1690:	24140000 	li	s4,0
    1694:	16141f3a 	bne	s0,s4,9380 <inst_error>
    1698:	00000000 	nop
    169c:	00000000 	nop
    16a0:	24150000 	li	s5,0
    16a4:	16551f36 	bne	s2,s5,9380 <inst_error>
    16a8:	00000000 	nop
    16ac:	00000000 	nop
    16b0:	3c0c6f2e 	lui	t4,0x6f2e
    16b4:	358c7f30 	ori	t4,t4,0x7f30
    16b8:	3c0d8c9a 	lui	t5,0x8c9a
    16bc:	35adb700 	ori	t5,t5,0xb700
    16c0:	24100000 	li	s0,0
    16c4:	10000012 	b	1710 <n33_blez_test+0x1710>
    16c8:	24120000 	li	s2,0
    16cc:	00000000 	nop
    16d0:	3c106f2e 	lui	s0,0x6f2e
    16d4:	19000019 	blez	t0,173c <n33_blez_test+0x173c>
    16d8:	36107f30 	ori	s0,s0,0x7f30
    16dc:	10000019 	b	1744 <n33_blez_test+0x1744>
    16e0:	00000000 	nop
    16e4:	00000000 	nop
    16e8:	00000021 	move	zero,zero
    16ec:	00000021 	move	zero,zero
    16f0:	00000021 	move	zero,zero
    16f4:	00000021 	move	zero,zero
    16f8:	00000021 	move	zero,zero
    16fc:	00000021 	move	zero,zero
    1700:	00000021 	move	zero,zero
    1704:	00000021 	move	zero,zero
    1708:	00000021 	move	zero,zero
    170c:	00000021 	move	zero,zero
    1710:	3c08eba5 	lui	t0,0xeba5
    1714:	3508e8e0 	ori	t0,t0,0xe8e0
    1718:	1900ffed 	blez	t0,16d0 <n33_blez_test+0x16d0>
    171c:	00000000 	nop
    1720:	10000008 	b	1744 <n33_blez_test+0x1744>
    1724:	00000000 	nop
    1728:	00000000 	nop
    172c:	00000021 	move	zero,zero
    1730:	00000021 	move	zero,zero
    1734:	00000021 	move	zero,zero
    1738:	00000021 	move	zero,zero
    173c:	3c128c9a 	lui	s2,0x8c9a
    1740:	3652b700 	ori	s2,s2,0xb700
    1744:	00000000 	nop
    1748:	3c146f2e 	lui	s4,0x6f2e
    174c:	36947f30 	ori	s4,s4,0x7f30
    1750:	16141f0b 	bne	s0,s4,9380 <inst_error>
    1754:	00000000 	nop
    1758:	00000000 	nop
    175c:	3c158c9a 	lui	s5,0x8c9a
    1760:	36b5b700 	ori	s5,s5,0xb700
    1764:	16551f06 	bne	s2,s5,9380 <inst_error>
    1768:	00000000 	nop
    176c:	00000000 	nop
    1770:	3c0c9821 	lui	t4,0x9821
    1774:	358c99e2 	ori	t4,t4,0x99e2
    1778:	3c0df3b1 	lui	t5,0xf3b1
    177c:	35adafed 	ori	t5,t5,0xafed
    1780:	24100000 	li	s0,0
    1784:	10000012 	b	17d0 <n33_blez_test+0x17d0>
    1788:	24120000 	li	s2,0
    178c:	00000000 	nop
    1790:	3c109821 	lui	s0,0x9821
    1794:	19000019 	blez	t0,17fc <n33_blez_test+0x17fc>
    1798:	361099e2 	ori	s0,s0,0x99e2
    179c:	10000019 	b	1804 <n33_blez_test+0x1804>
    17a0:	00000000 	nop
    17a4:	00000000 	nop
    17a8:	00000021 	move	zero,zero
    17ac:	00000021 	move	zero,zero
    17b0:	00000021 	move	zero,zero
    17b4:	00000021 	move	zero,zero
    17b8:	00000021 	move	zero,zero
    17bc:	00000021 	move	zero,zero
    17c0:	00000021 	move	zero,zero
    17c4:	00000021 	move	zero,zero
    17c8:	00000021 	move	zero,zero
    17cc:	00000021 	move	zero,zero
    17d0:	3c08d821 	lui	t0,0xd821
    17d4:	35087e04 	ori	t0,t0,0x7e04
    17d8:	1900ffed 	blez	t0,1790 <n33_blez_test+0x1790>
    17dc:	00000000 	nop
    17e0:	10000008 	b	1804 <n33_blez_test+0x1804>
    17e4:	00000000 	nop
    17e8:	00000000 	nop
    17ec:	00000021 	move	zero,zero
    17f0:	00000021 	move	zero,zero
    17f4:	00000021 	move	zero,zero
    17f8:	00000021 	move	zero,zero
    17fc:	3c12f3b1 	lui	s2,0xf3b1
    1800:	3652afed 	ori	s2,s2,0xafed
    1804:	00000000 	nop
    1808:	3c149821 	lui	s4,0x9821
    180c:	369499e2 	ori	s4,s4,0x99e2
    1810:	16141edb 	bne	s0,s4,9380 <inst_error>
    1814:	00000000 	nop
    1818:	00000000 	nop
    181c:	3c15f3b1 	lui	s5,0xf3b1
    1820:	36b5afed 	ori	s5,s5,0xafed
    1824:	16551ed6 	bne	s2,s5,9380 <inst_error>
    1828:	00000000 	nop
    182c:	00000000 	nop
    1830:	3c0ca23c 	lui	t4,0xa23c
    1834:	358cdf53 	ori	t4,t4,0xdf53
    1838:	3c0d83ea 	lui	t5,0x83ea
    183c:	35ad0f80 	ori	t5,t5,0xf80
    1840:	24100000 	li	s0,0
    1844:	10000012 	b	1890 <n33_blez_test+0x1890>
    1848:	24120000 	li	s2,0
    184c:	00000000 	nop
    1850:	3c10a23c 	lui	s0,0xa23c
    1854:	19000019 	blez	t0,18bc <n33_blez_test+0x18bc>
    1858:	3610df53 	ori	s0,s0,0xdf53
    185c:	10000019 	b	18c4 <n33_blez_test+0x18c4>
    1860:	00000000 	nop
    1864:	00000000 	nop
    1868:	00000021 	move	zero,zero
    186c:	00000021 	move	zero,zero
    1870:	00000021 	move	zero,zero
    1874:	00000021 	move	zero,zero
    1878:	00000021 	move	zero,zero
    187c:	00000021 	move	zero,zero
    1880:	00000021 	move	zero,zero
    1884:	00000021 	move	zero,zero
    1888:	00000021 	move	zero,zero
    188c:	00000021 	move	zero,zero
    1890:	3c08585b 	lui	t0,0x585b
    1894:	3508f2ea 	ori	t0,t0,0xf2ea
    1898:	1900ffed 	blez	t0,1850 <n33_blez_test+0x1850>
    189c:	00000000 	nop
    18a0:	10000008 	b	18c4 <n33_blez_test+0x18c4>
    18a4:	00000000 	nop
    18a8:	00000000 	nop
    18ac:	00000021 	move	zero,zero
    18b0:	00000021 	move	zero,zero
    18b4:	00000021 	move	zero,zero
    18b8:	00000021 	move	zero,zero
    18bc:	3c1283ea 	lui	s2,0x83ea
    18c0:	36520f80 	ori	s2,s2,0xf80
    18c4:	00000000 	nop
    18c8:	24140000 	li	s4,0
    18cc:	16141eac 	bne	s0,s4,9380 <inst_error>
    18d0:	00000000 	nop
    18d4:	00000000 	nop
    18d8:	24150000 	li	s5,0
    18dc:	16551ea8 	bne	s2,s5,9380 <inst_error>
    18e0:	00000000 	nop
    18e4:	00000000 	nop
    18e8:	3c0cd9b4 	lui	t4,0xd9b4
    18ec:	358c357c 	ori	t4,t4,0x357c
    18f0:	3c0d9583 	lui	t5,0x9583
    18f4:	35add2d0 	ori	t5,t5,0xd2d0
    18f8:	24100000 	li	s0,0
    18fc:	10000012 	b	1948 <n33_blez_test+0x1948>
    1900:	24120000 	li	s2,0
    1904:	00000000 	nop
    1908:	3c10d9b4 	lui	s0,0xd9b4
    190c:	19000019 	blez	t0,1974 <n33_blez_test+0x1974>
    1910:	3610357c 	ori	s0,s0,0x357c
    1914:	10000019 	b	197c <n33_blez_test+0x197c>
    1918:	00000000 	nop
    191c:	00000000 	nop
    1920:	00000021 	move	zero,zero
    1924:	00000021 	move	zero,zero
    1928:	00000021 	move	zero,zero
    192c:	00000021 	move	zero,zero
    1930:	00000021 	move	zero,zero
    1934:	00000021 	move	zero,zero
    1938:	00000021 	move	zero,zero
    193c:	00000021 	move	zero,zero
    1940:	00000021 	move	zero,zero
    1944:	00000021 	move	zero,zero
    1948:	3c0887b6 	lui	t0,0x87b6
    194c:	3508f470 	ori	t0,t0,0xf470
    1950:	1900ffed 	blez	t0,1908 <n33_blez_test+0x1908>
    1954:	00000000 	nop
    1958:	10000008 	b	197c <n33_blez_test+0x197c>
    195c:	00000000 	nop
    1960:	00000000 	nop
    1964:	00000021 	move	zero,zero
    1968:	00000021 	move	zero,zero
    196c:	00000021 	move	zero,zero
    1970:	00000021 	move	zero,zero
    1974:	3c129583 	lui	s2,0x9583
    1978:	3652d2d0 	ori	s2,s2,0xd2d0
    197c:	00000000 	nop
    1980:	3c14d9b4 	lui	s4,0xd9b4
    1984:	3694357c 	ori	s4,s4,0x357c
    1988:	16141e7d 	bne	s0,s4,9380 <inst_error>
    198c:	00000000 	nop
    1990:	00000000 	nop
    1994:	3c159583 	lui	s5,0x9583
    1998:	36b5d2d0 	ori	s5,s5,0xd2d0
    199c:	16551e78 	bne	s2,s5,9380 <inst_error>
    19a0:	00000000 	nop
    19a4:	00000000 	nop
    19a8:	3c0c79e1 	lui	t4,0x79e1
    19ac:	358cef50 	ori	t4,t4,0xef50
    19b0:	3c0da776 	lui	t5,0xa776
    19b4:	35ad73c0 	ori	t5,t5,0x73c0
    19b8:	24100000 	li	s0,0
    19bc:	10000012 	b	1a08 <n33_blez_test+0x1a08>
    19c0:	24120000 	li	s2,0
    19c4:	00000000 	nop
    19c8:	3c1079e1 	lui	s0,0x79e1
    19cc:	19000019 	blez	t0,1a34 <n33_blez_test+0x1a34>
    19d0:	3610ef50 	ori	s0,s0,0xef50
    19d4:	10000019 	b	1a3c <n33_blez_test+0x1a3c>
    19d8:	00000000 	nop
    19dc:	00000000 	nop
    19e0:	00000021 	move	zero,zero
    19e4:	00000021 	move	zero,zero
    19e8:	00000021 	move	zero,zero
    19ec:	00000021 	move	zero,zero
    19f0:	00000021 	move	zero,zero
    19f4:	00000021 	move	zero,zero
    19f8:	00000021 	move	zero,zero
    19fc:	00000021 	move	zero,zero
    1a00:	00000021 	move	zero,zero
    1a04:	00000021 	move	zero,zero
    1a08:	3c086d9f 	lui	t0,0x6d9f
    1a0c:	35084500 	ori	t0,t0,0x4500
    1a10:	1900ffed 	blez	t0,19c8 <n33_blez_test+0x19c8>
    1a14:	00000000 	nop
    1a18:	10000008 	b	1a3c <n33_blez_test+0x1a3c>
    1a1c:	00000000 	nop
    1a20:	00000000 	nop
    1a24:	00000021 	move	zero,zero
    1a28:	00000021 	move	zero,zero
    1a2c:	00000021 	move	zero,zero
    1a30:	00000021 	move	zero,zero
    1a34:	3c12a776 	lui	s2,0xa776
    1a38:	365273c0 	ori	s2,s2,0x73c0
    1a3c:	00000000 	nop
    1a40:	24140000 	li	s4,0
    1a44:	16141e4e 	bne	s0,s4,9380 <inst_error>
    1a48:	00000000 	nop
    1a4c:	00000000 	nop
    1a50:	24150000 	li	s5,0
    1a54:	16551e4a 	bne	s2,s5,9380 <inst_error>
    1a58:	00000000 	nop
    1a5c:	00000000 	nop
    1a60:	3c0cc307 	lui	t4,0xc307
    1a64:	358c7338 	ori	t4,t4,0x7338
    1a68:	3c0df790 	lui	t5,0xf790
    1a6c:	35adea84 	ori	t5,t5,0xea84
    1a70:	24100000 	li	s0,0
    1a74:	10000012 	b	1ac0 <n33_blez_test+0x1ac0>
    1a78:	24120000 	li	s2,0
    1a7c:	00000000 	nop
    1a80:	3c10c307 	lui	s0,0xc307
    1a84:	19000019 	blez	t0,1aec <n33_blez_test+0x1aec>
    1a88:	36107338 	ori	s0,s0,0x7338
    1a8c:	10000019 	b	1af4 <n33_blez_test+0x1af4>
    1a90:	00000000 	nop
    1a94:	00000000 	nop
    1a98:	00000021 	move	zero,zero
    1a9c:	00000021 	move	zero,zero
    1aa0:	00000021 	move	zero,zero
    1aa4:	00000021 	move	zero,zero
    1aa8:	00000021 	move	zero,zero
    1aac:	00000021 	move	zero,zero
    1ab0:	00000021 	move	zero,zero
    1ab4:	00000021 	move	zero,zero
    1ab8:	00000021 	move	zero,zero
    1abc:	00000021 	move	zero,zero
    1ac0:	3c0883c1 	lui	t0,0x83c1
    1ac4:	3508a418 	ori	t0,t0,0xa418
    1ac8:	1900ffed 	blez	t0,1a80 <n33_blez_test+0x1a80>
    1acc:	00000000 	nop
    1ad0:	10000008 	b	1af4 <n33_blez_test+0x1af4>
    1ad4:	00000000 	nop
    1ad8:	00000000 	nop
    1adc:	00000021 	move	zero,zero
    1ae0:	00000021 	move	zero,zero
    1ae4:	00000021 	move	zero,zero
    1ae8:	00000021 	move	zero,zero
    1aec:	3c12f790 	lui	s2,0xf790
    1af0:	3652ea84 	ori	s2,s2,0xea84
    1af4:	00000000 	nop
    1af8:	3c14c307 	lui	s4,0xc307
    1afc:	36947338 	ori	s4,s4,0x7338
    1b00:	16141e1f 	bne	s0,s4,9380 <inst_error>
    1b04:	00000000 	nop
    1b08:	00000000 	nop
    1b0c:	3c15f790 	lui	s5,0xf790
    1b10:	36b5ea84 	ori	s5,s5,0xea84
    1b14:	16551e1a 	bne	s2,s5,9380 <inst_error>
    1b18:	00000000 	nop
    1b1c:	00000000 	nop
    1b20:	3c0ce288 	lui	t4,0xe288
    1b24:	358c7e9a 	ori	t4,t4,0x7e9a
    1b28:	3c0dcd44 	lui	t5,0xcd44
    1b2c:	35ad7a90 	ori	t5,t5,0x7a90
    1b30:	24100000 	li	s0,0
    1b34:	10000012 	b	1b80 <n33_blez_test+0x1b80>
    1b38:	24120000 	li	s2,0
    1b3c:	00000000 	nop
    1b40:	3c10e288 	lui	s0,0xe288
    1b44:	19000019 	blez	t0,1bac <n33_blez_test+0x1bac>
    1b48:	36107e9a 	ori	s0,s0,0x7e9a
    1b4c:	10000019 	b	1bb4 <n33_blez_test+0x1bb4>
    1b50:	00000000 	nop
    1b54:	00000000 	nop
    1b58:	00000021 	move	zero,zero
    1b5c:	00000021 	move	zero,zero
    1b60:	00000021 	move	zero,zero
    1b64:	00000021 	move	zero,zero
    1b68:	00000021 	move	zero,zero
    1b6c:	00000021 	move	zero,zero
    1b70:	00000021 	move	zero,zero
    1b74:	00000021 	move	zero,zero
    1b78:	00000021 	move	zero,zero
    1b7c:	00000021 	move	zero,zero
    1b80:	3c08b9ad 	lui	t0,0xb9ad
    1b84:	3508f050 	ori	t0,t0,0xf050
    1b88:	1900ffed 	blez	t0,1b40 <n33_blez_test+0x1b40>
    1b8c:	00000000 	nop
    1b90:	10000008 	b	1bb4 <n33_blez_test+0x1bb4>
    1b94:	00000000 	nop
    1b98:	00000000 	nop
    1b9c:	00000021 	move	zero,zero
    1ba0:	00000021 	move	zero,zero
    1ba4:	00000021 	move	zero,zero
    1ba8:	00000021 	move	zero,zero
    1bac:	3c12cd44 	lui	s2,0xcd44
    1bb0:	36527a90 	ori	s2,s2,0x7a90
    1bb4:	00000000 	nop
    1bb8:	3c14e288 	lui	s4,0xe288
    1bbc:	36947e9a 	ori	s4,s4,0x7e9a
    1bc0:	16141def 	bne	s0,s4,9380 <inst_error>
    1bc4:	00000000 	nop
    1bc8:	00000000 	nop
    1bcc:	3c15cd44 	lui	s5,0xcd44
    1bd0:	36b57a90 	ori	s5,s5,0x7a90
    1bd4:	16551dea 	bne	s2,s5,9380 <inst_error>
    1bd8:	00000000 	nop
    1bdc:	00000000 	nop
    1be0:	3c0c218b 	lui	t4,0x218b
    1be4:	358c4000 	ori	t4,t4,0x4000
    1be8:	3c0da411 	lui	t5,0xa411
    1bec:	35addb70 	ori	t5,t5,0xdb70
    1bf0:	24100000 	li	s0,0
    1bf4:	10000012 	b	1c40 <n33_blez_test+0x1c40>
    1bf8:	24120000 	li	s2,0
    1bfc:	00000000 	nop
    1c00:	3c10218b 	lui	s0,0x218b
    1c04:	19000019 	blez	t0,1c6c <n33_blez_test+0x1c6c>
    1c08:	36104000 	ori	s0,s0,0x4000
    1c0c:	10000019 	b	1c74 <n33_blez_test+0x1c74>
    1c10:	00000000 	nop
    1c14:	00000000 	nop
    1c18:	00000021 	move	zero,zero
    1c1c:	00000021 	move	zero,zero
    1c20:	00000021 	move	zero,zero
    1c24:	00000021 	move	zero,zero
    1c28:	00000021 	move	zero,zero
    1c2c:	00000021 	move	zero,zero
    1c30:	00000021 	move	zero,zero
    1c34:	00000021 	move	zero,zero
    1c38:	00000021 	move	zero,zero
    1c3c:	00000021 	move	zero,zero
    1c40:	3c0873fd 	lui	t0,0x73fd
    1c44:	35084d18 	ori	t0,t0,0x4d18
    1c48:	1900ffed 	blez	t0,1c00 <n33_blez_test+0x1c00>
    1c4c:	00000000 	nop
    1c50:	10000008 	b	1c74 <n33_blez_test+0x1c74>
    1c54:	00000000 	nop
    1c58:	00000000 	nop
    1c5c:	00000021 	move	zero,zero
    1c60:	00000021 	move	zero,zero
    1c64:	00000021 	move	zero,zero
    1c68:	00000021 	move	zero,zero
    1c6c:	3c12a411 	lui	s2,0xa411
    1c70:	3652db70 	ori	s2,s2,0xdb70
    1c74:	00000000 	nop
    1c78:	24140000 	li	s4,0
    1c7c:	16141dc0 	bne	s0,s4,9380 <inst_error>
    1c80:	00000000 	nop
    1c84:	00000000 	nop
    1c88:	24150000 	li	s5,0
    1c8c:	16551dbc 	bne	s2,s5,9380 <inst_error>
    1c90:	00000000 	nop
    1c94:	00000000 	nop
    1c98:	3c0c75f6 	lui	t4,0x75f6
    1c9c:	358c5d40 	ori	t4,t4,0x5d40
    1ca0:	3c0d41ad 	lui	t5,0x41ad
    1ca4:	35ad3428 	ori	t5,t5,0x3428
    1ca8:	24100000 	li	s0,0
    1cac:	10000012 	b	1cf8 <n33_blez_test+0x1cf8>
    1cb0:	24120000 	li	s2,0
    1cb4:	00000000 	nop
    1cb8:	3c1075f6 	lui	s0,0x75f6
    1cbc:	19000019 	blez	t0,1d24 <n33_blez_test+0x1d24>
    1cc0:	36105d40 	ori	s0,s0,0x5d40
    1cc4:	10000019 	b	1d2c <n33_blez_test+0x1d2c>
    1cc8:	00000000 	nop
    1ccc:	00000000 	nop




    1f7c:	16551d00 	bne	s2,s5,9380 <inst_error>
    1f80:	00000000 	nop
    1f84:	00000000 	nop
    1f88:	3c0c01a3 	lui	t4,0x1a3
    1f8c:	358c96fc 	ori	t4,t4,0x96fc
    1f90:	3c0db659 	lui	t5,0xb659
    1f94:	35ade860 	ori	t5,t5,0xe860
    1f98:	24100000 	li	s0,0
    1f9c:	10000012 	b	1fe8 <n33_blez_test+0x1fe8>
    1fa0:	24120000 	li	s2,0
    1fa4:	00000000 	nop
    1fa8:	3c1001a3 	lui	s0,0x1a3
    1fac:	19000019 	blez	t0,2014 <n33_blez_test+0x2014>
    1fb0:	361096fc 	ori	s0,s0,0x96fc
    1fb4:	10000019 	b	201c <n33_blez_test+0x201c>
    1fb8:	00000000 	nop
    1fbc:	00000000 	nop
    1fc0:	00000021 	move	zero,zero
    1fc4:	00000021 	move	zero,zero
    1fc8:	00000021 	move	zero,zero
    1fcc:	00000021 	move	zero,zero
    1fd0:	00000021 	move	zero,zero
    1fd4:	00000021 	move	zero,zero
    1fd8:	00000021 	move	zero,zero
    1fdc:	00000021 	move	zero,zero
    1fe0:	00000021 	move	zero,zero
    1fe4:	00000021 	move	zero,zero
    1fe8:	3c0867f6 	lui	t0,0x67f6
    1fec:	350841d0 	ori	t0,t0,0x41d0
    1ff0:	1900ffed 	blez	t0,1fa8 <n33_blez_test+0x1fa8>
    1ff4:	00000000 	nop
    1ff8:	10000008 	b	201c <n33_blez_test+0x201c>
    1ffc:	00000000 	nop
    2000:	00000000 	nop
    2004:	00000021 	move	zero,zero
    2008:	00000021 	move	zero,zero
    200c:	00000021 	move	zero,zero
    2010:	00000021 	move	zero,zero
    2014:	3c12b659 	lui	s2,0xb659
    2018:	3652e860 	ori	s2,s2,0xe860
    201c:	00000000 	nop
    2020:	24140000 	li	s4,0
    2024:	16141cd6 	bne	s0,s4,9380 <inst_error>
    2028:	00000000 	nop
    202c:	00000000 	nop
    2030:	24150000 	li	s5,0
    2034:	16551cd2 	bne	s2,s5,9380 <inst_error>
    2038:	00000000 	nop
    203c:	00000000 	nop
    2040:	3c0cbeee 	lui	t4,0xbeee
    2044:	358c1cd5 	ori	t4,t4,0x1cd5
    2048:	3c0de9fa 	lui	t5,0xe9fa
    204c:	35ad6eed 	ori	t5,t5,0x6eed
    2050:	24100000 	li	s0,0
    2054:	10000012 	b	20a0 <n33_blez_test+0x20a0>
    2058:	24120000 	li	s2,0
    205c:	00000000 	nop
    2060:	3c10beee 	lui	s0,0xbeee
    2064:	19000019 	blez	t0,20cc <n33_blez_test+0x20cc>
    2068:	36101cd5 	ori	s0,s0,0x1cd5
    206c:	10000019 	b	20d4 <n33_blez_test+0x20d4>
    2070:	00000000 	nop
    2074:	00000000 	nop
    2078:	00000021 	move	zero,zero
    207c:	00000021 	move	zero,zero
    2080:	00000021 	move	zero,zero
    2084:	00000021 	move	zero,zero
    2088:	00000021 	move	zero,zero
    208c:	00000021 	move	zero,zero
    2090:	00000021 	move	zero,zero
    2094:	00000021 	move	zero,zero
    2098:	00000021 	move	zero,zero
    209c:	00000021 	move	zero,zero
    20a0:	3c08132b 	lui	t0,0x132b
    20a4:	35089e7a 	ori	t0,t0,0x9e7a
    20a8:	1900ffed 	blez	t0,2060 <n33_blez_test+0x2060>
    20ac:	00000000 	nop
    20b0:	10000008 	b	20d4 <n33_blez_test+0x20d4>
    20b4:	00000000 	nop
    20b8:	00000000 	nop
    20bc:	00000021 	move	zero,zero
    20c0:	00000021 	move	zero,zero
    20c4:	00000021 	move	zero,zero
    20c8:	00000021 	move	zero,zero
    20cc:	3c12e9fa 	lui	s2,0xe9fa
    20d0:	36526eed 	ori	s2,s2,0x6eed
    20d4:	00000000 	nop
    20d8:	24140000 	li	s4,0
    20dc:	16141ca8 	bne	s0,s4,9380 <inst_error>
    20e0:	00000000 	nop
    20e4:	00000000 	nop
    20e8:	24150000 	li	s5,0
    20ec:	16551ca4 	bne	s2,s5,9380 <inst_error>
    20f0:	00000000 	nop
    20f4:	00000000 	nop
    20f8:	3c0c1047 	lui	t4,0x1047
    20fc:	358c4470 	ori	t4,t4,0x4470
    2100:	3c0db23f 	lui	t5,0xb23f
    2104:	35ad4a58 	ori	t5,t5,0x4a58
    2108:	24100000 	li	s0,0
    210c:	10000012 	b	2158 <n33_blez_test+0x2158>
    2110:	24120000 	li	s2,0
    2114:	00000000 	nop
    2118:	3c101047 	lui	s0,0x1047
    211c:	19000019 	blez	t0,2184 <n33_blez_test+0x2184>
    2120:	36104470 	ori	s0,s0,0x4470
    2124:	10000019 	b	218c <n33_blez_test+0x218c>
    2128:	00000000 	nop
    212c:	00000000 	nop
    2130:	00000021 	move	zero,zero
    2134:	00000021 	move	zero,zero
    2138:	00000021 	move	zero,zero
    213c:	00000021 	move	zero,zero
    2140:	00000021 	move	zero,zero
    2144:	00000021 	move	zero,zero
    2148:	00000021 	move	zero,zero
    214c:	00000021 	move	zero,zero
    2150:	00000021 	move	zero,zero
    2154:	00000021 	move	zero,zero
    2158:	3c081439 	lui	t0,0x1439
    215c:	3508b2f1 	ori	t0,t0,0xb2f1
    2160:	1900ffed 	blez	t0,2118 <n33_blez_test+0x2118>
    2164:	00000000 	nop
    2168:	10000008 	b	218c <n33_blez_test+0x218c>
    216c:	00000000 	nop
    2170:	00000000 	nop
    2174:	00000021 	move	zero,zero
    2178:	00000021 	move	zero,zero
    217c:	00000021 	move	zero,zero
    2180:	00000021 	move	zero,zero
    2184:	3c12b23f 	lui	s2,0xb23f
    2188:	36524a58 	ori	s2,s2,0x4a58
    218c:	00000000 	nop
    2190:	24140000 	li	s4,0
    2194:	16141c7a 	bne	s0,s4,9380 <inst_error>
    2198:	00000000 	nop
    219c:	00000000 	nop
    21a0:	24150000 	li	s5,0
    21a4:	16551c76 	bne	s2,s5,9380 <inst_error>
    21a8:	00000000 	nop
    21ac:	00000000 	nop
    21b0:	3c0c054c 	lui	t4,0x54c
    21b4:	358c9768 	ori	t4,t4,0x9768
    21b8:	3c0d6b14 	lui	t5,0x6b14
    21bc:	35ad0a00 	ori	t5,t5,0xa00
    21c0:	24100000 	li	s0,0
    21c4:	10000012 	b	2210 <n33_blez_test+0x2210>
    21c8:	24120000 	li	s2,0
    21cc:	00000000 	nop
    21d0:	3c10054c 	lui	s0,0x54c
    21d4:	19000019 	blez	t0,223c <n33_blez_test+0x223c>
    21d8:	36109768 	ori	s0,s0,0x9768
    21dc:	10000019 	b	2244 <n33_blez_test+0x2244>
    21e0:	00000000 	nop
    21e4:	00000000 	nop
    21e8:	00000021 	move	zero,zero
    21ec:	00000021 	move	zero,zero
    21f0:	00000021 	move	zero,zero
    21f4:	00000021 	move	zero,zero
    21f8:	00000021 	move	zero,zero
    21fc:	00000021 	move	zero,zero
    2200:	00000021 	move	zero,zero
    2204:	00000021 	move	zero,zero
    2208:	00000021 	move	zero,zero
    220c:	00000021 	move	zero,zero
    2210:	3c088647 	lui	t0,0x8647
    2214:	35082668 	ori	t0,t0,0x2668
    2218:	1900ffed 	blez	t0,21d0 <n33_blez_test+0x21d0>
    221c:	00000000 	nop
    2220:	10000008 	b	2244 <n33_blez_test+0x2244>
    2224:	00000000 	nop
    2228:	00000000 	nop
    222c:	00000021 	move	zero,zero
    2230:	00000021 	move	zero,zero
    2234:	00000021 	move	zero,zero
    2238:	00000021 	move	zero,zero
    223c:	3c126b14 	lui	s2,0x6b14
    2240:	36520a00 	ori	s2,s2,0xa00
    2244:	00000000 	nop
    2248:	3c14054c 	lui	s4,0x54c
    224c:	36949768 	ori	s4,s4,0x9768
    2250:	16141c4b 	bne	s0,s4,9380 <inst_error>
    2254:	00000000 	nop
    2258:	00000000 	nop
    225c:	3c156b14 	lui	s5,0x6b14
    2260:	36b50a00 	ori	s5,s5,0xa00
    2264:	16551c46 	bne	s2,s5,9380 <inst_error>
    2268:	00000000 	nop
    226c:	00000000 	nop
    2270:	3c0c8f2a 	lui	t4,0x8f2a
    2274:	358cdfc4 	ori	t4,t4,0xdfc4
    2278:	3c0d7618 	lui	t5,0x7618
    227c:	35adc700 	ori	t5,t5,0xc700
    2280:	24100000 	li	s0,0
    2284:	10000012 	b	22d0 <n33_blez_test+0x22d0>
    2288:	24120000 	li	s2,0
    228c:	00000000 	nop
    2290:	3c108f2a 	lui	s0,0x8f2a
    2294:	19000019 	blez	t0,22fc <n33_blez_test+0x22fc>
    2298:	3610dfc4 	ori	s0,s0,0xdfc4
    229c:	10000019 	b	2304 <n33_blez_test+0x2304>
    22a0:	00000000 	nop
    22a4:	00000000 	nop
    22a8:	00000021 	move	zero,zero
    22ac:	00000021 	move	zero,zero
    22b0:	00000021 	move	zero,zero
    22b4:	00000021 	move	zero,zero
    22b8:	00000021 	move	zero,zero
    22bc:	00000021 	move	zero,zero
    22c0:	00000021 	move	zero,zero
    22c4:	00000021 	move	zero,zero
    22c8:	00000021 	move	zero,zero
    22cc:	00000021 	move	zero,zero
    22d0:	3c083d59 	lui	t0,0x3d59
    22d4:	3508835a 	ori	t0,t0,0x835a
    22d8:	1900ffed 	blez	t0,2290 <n33_blez_test+0x2290>
    22dc:	00000000 	nop
    22e0:	10000008 	b	2304 <n33_blez_test+0x2304>
    22e4:	00000000 	nop
    22e8:	00000000 	nop
    22ec:	00000021 	move	zero,zero
    22f0:	00000021 	move	zero,zero
    22f4:	00000021 	move	zero,zero
    22f8:	00000021 	move	zero,zero
    22fc:	3c127618 	lui	s2,0x7618
    2300:	3652c700 	ori	s2,s2,0xc700
    2304:	00000000 	nop
    2308:	24140000 	li	s4,0
    230c:	16141c1c 	bne	s0,s4,9380 <inst_error>
    2310:	00000000 	nop
    2314:	00000000 	nop
    2318:	24150000 	li	s5,0
    231c:	16551c18 	bne	s2,s5,9380 <inst_error>
    2320:	00000000 	nop
    2324:	00000000 	nop
    2328:	3c0cab9e 	lui	t4,0xab9e
    232c:	358c2684 	ori	t4,t4,0x2684
    2330:	3c0d0372 	lui	t5,0x372
    2334:	35ad7b3a 	ori	t5,t5,0x7b3a
    2338:	24100000 	li	s0,0
    233c:	10000012 	b	2388 <n33_blez_test+0x2388>
    2340:	24120000 	li	s2,0
    2344:	00000000 	nop
    2348:	3c10ab9e 	lui	s0,0xab9e
    234c:	19000019 	blez	t0,23b4 <n33_blez_test+0x23b4>
    2350:	36102684 	ori	s0,s0,0x2684
    2354:	10000019 	b	23bc <n33_blez_test+0x23bc>
    2358:	00000000 	nop
    235c:	00000000 	nop
    2360:	00000021 	move	zero,zero
    2364:	00000021 	move	zero,zero
    2368:	00000021 	move	zero,zero
    236c:	00000021 	move	zero,zero
    2370:	00000021 	move	zero,zero
    2374:	00000021 	move	zero,zero
    2378:	00000021 	move	zero,zero
    237c:	00000021 	move	zero,zero
    2380:	00000021 	move	zero,zero
    2384:	00000021 	move	zero,zero
    2388:	3c08c289 	lui	t0,0xc289
    238c:	3508835c 	ori	t0,t0,0x835c
    2390:	1900ffed 	blez	t0,2348 <n33_blez_test+0x2348>
    2394:	00000000 	nop
    2398:	10000008 	b	23bc <n33_blez_test+0x23bc>
    239c:	00000000 	nop
    23a0:	00000000 	nop
    23a4:	00000021 	move	zero,zero
    23a8:	00000021 	move	zero,zero
    23ac:	00000021 	move	zero,zero
    23b0:	00000021 	move	zero,zero
    23b4:	3c120372 	lui	s2,0x372
    23b8:	36527b3a 	ori	s2,s2,0x7b3a
    23bc:	00000000 	nop
    23c0:	3c14ab9e 	lui	s4,0xab9e
    23c4:	36942684 	ori	s4,s4,0x2684
    23c8:	16141bed 	bne	s0,s4,9380 <inst_error>
    23cc:	00000000 	nop
    23d0:	00000000 	nop
    23d4:	3c150372 	lui	s5,0x372
    23d8:	36b57b3a 	ori	s5,s5,0x7b3a
    23dc:	16551be8 	bne	s2,s5,9380 <inst_error>
    23e0:	00000000 	nop
    23e4:	00000000 	nop
    23e8:	3c0ccf15 	lui	t4,0xcf15
    23ec:	358ca60a 	ori	t4,t4,0xa60a
    23f0:	3c0d4e2c 	lui	t5,0x4e2c
    23f4:	35adab60 	ori	t5,t5,0xab60
    23f8:	24100000 	li	s0,0
    23fc:	10000012 	b	2448 <n33_blez_test+0x2448>
    2400:	24120000 	li	s2,0
    2404:	00000000 	nop
    2408:	3c10cf15 	lui	s0,0xcf15
    240c:	19000019 	blez	t0,2474 <n33_blez_test+0x2474>
    2410:	3610a60a 	ori	s0,s0,0xa60a
    2414:	10000019 	b	247c <n33_blez_test+0x247c>
    2418:	00000000 	nop
    241c:	00000000 	nop
    2420:	00000021 	move	zero,zero
    2424:	00000021 	move	zero,zero
    2428:	00000021 	move	zero,zero
    242c:	00000021 	move	zero,zero
    2430:	00000021 	move	zero,zero
    2434:	00000021 	move	zero,zero
    2438:	00000021 	move	zero,zero
    243c:	00000021 	move	zero,zero
    2440:	00000021 	move	zero,zero
    2444:	00000021 	move	zero,zero
    2448:	3c086316 	lui	t0,0x6316
    244c:	35082733 	ori	t0,t0,0x2733
    2450:	1900ffed 	blez	t0,2408 <n33_blez_test+0x2408>
    2454:	00000000 	nop
    2458:	10000008 	b	247c <n33_blez_test+0x247c>
    245c:	00000000 	nop
    2460:	00000000 	nop
    2464:	00000021 	move	zero,zero
    2468:	00000021 	move	zero,zero
    246c:	00000021 	move	zero,zero
    2470:	00000021 	move	zero,zero
    2474:	3c124e2c 	lui	s2,0x4e2c
    2478:	3652ab60 	ori	s2,s2,0xab60
    247c:	00000000 	nop
    2480:	24140000 	li	s4,0
    2484:	16141bbe 	bne	s0,s4,9380 <inst_error>
    2488:	00000000 	nop
    248c:	00000000 	nop
    2490:	24150000 	li	s5,0
    2494:	16551bba 	bne	s2,s5,9380 <inst_error>
    2498:	00000000 	nop
    249c:	00000000 	nop
    24a0:	3c0c84fa 	lui	t4,0x84fa
    24a4:	358cc8f4 	ori	t4,t4,0xc8f4
    24a8:	3c0df317 	lui	t5,0xf317
    24ac:	35adb3b8 	ori	t5,t5,0xb3b8
    24b0:	24100000 	li	s0,0
    24b4:	10000012 	b	2500 <n33_blez_test+0x2500>
    24b8:	24120000 	li	s2,0
    24bc:	00000000 	nop
    24c0:	3c1084fa 	lui	s0,0x84fa
    24c4:	19000019 	blez	t0,252c <n33_blez_test+0x252c>
    24c8:	3610c8f4 	ori	s0,s0,0xc8f4
    24cc:	10000019 	b	2534 <n33_blez_test+0x2534>
    24d0:	00000000 	nop
    24d4:	00000000 	nop
    24d8:	00000021 	move	zero,zero
    24dc:	00000021 	move	zero,zero
    24e0:	00000021 	move	zero,zero
    24e4:	00000021 	move	zero,zero
    24e8:	00000021 	move	zero,zero
    24ec:	00000021 	move	zero,zero
    24f0:	00000021 	move	zero,zero
    24f4:	00000021 	move	zero,zero
    24f8:	00000021 	move	zero,zero
    24fc:	00000021 	move	zero,zero
    2500:	3c08e4e1 	lui	t0,0xe4e1
    2504:	3508b69c 	ori	t0,t0,0xb69c
    2508:	1900ffed 	blez	t0,24c0 <n33_blez_test+0x24c0>
    250c:	00000000 	nop
    2510:	10000008 	b	2534 <n33_blez_test+0x2534>
    2514:	00000000 	nop
    2518:	00000000 	nop
    251c:	00000021 	move	zero,zero
    2520:	00000021 	move	zero,zero
    2524:	00000021 	move	zero,zero
    2528:	00000021 	move	zero,zero
    252c:	3c12f317 	lui	s2,0xf317
    2530:	3652b3b8 	ori	s2,s2,0xb3b8
    2534:	00000000 	nop
    2538:	3c1484fa 	lui	s4,0x84fa
    253c:	3694c8f4 	ori	s4,s4,0xc8f4
    2540:	16141b8f 	bne	s0,s4,9380 <inst_error>
    2544:	00000000 	nop
    2548:	00000000 	nop
    254c:	3c15f317 	lui	s5,0xf317
    2550:	36b5b3b8 	ori	s5,s5,0xb3b8
    2554:	16551b8a 	bne	s2,s5,9380 <inst_error>
    2558:	00000000 	nop
    255c:	00000000 	nop
    2560:	3c0c13ef 	lui	t4,0x13ef
    2564:	358ca0f8 	ori	t4,t4,0xa0f8
    2568:	3c0d9b06 	lui	t5,0x9b06
    256c:	35ad95dc 	ori	t5,t5,0x95dc
    2570:	24100000 	li	s0,0
    2574:	10000012 	b	25c0 <n33_blez_test+0x25c0>
    2578:	24120000 	li	s2,0
    257c:	00000000 	nop
    2580:	3c1013ef 	lui	s0,0x13ef
    2584:	19000019 	blez	t0,25ec <n33_blez_test+0x25ec>
    2588:	3610a0f8 	ori	s0,s0,0xa0f8
    258c:	10000019 	b	25f4 <n33_blez_test+0x25f4>
    2590:	00000000 	nop
    2594:	00000000 	nop
    2598:	00000021 	move	zero,zero
    259c:	00000021 	move	zero,zero
    25a0:	00000021 	move	zero,zero
    25a4:	00000021 	move	zero,zero
    25a8:	00000021 	move	zero,zero
    25ac:	00000021 	move	zero,zero
    25b0:	00000021 	move	zero,zero
    25b4:	00000021 	move	zero,zero
    25b8:	00000021 	move	zero,zero
    25bc:	00000021 	move	zero,zero
    25c0:	3c08114c 	lui	t0,0x114c
    25c4:	35085c60 	ori	t0,t0,0x5c60
    25c8:	1900ffed 	blez	t0,2580 <n33_blez_test+0x2580>
    25cc:	00000000 	nop
    25d0:	10000008 	b	25f4 <n33_blez_test+0x25f4>
    25d4:	00000000 	nop
    25d8:	00000000 	nop
    25dc:	00000021 	move	zero,zero
    25e0:	00000021 	move	zero,zero
    25e4:	00000021 	move	zero,zero
    25e8:	00000021 	move	zero,zero
    25ec:	3c129b06 	lui	s2,0x9b06
    25f0:	365295dc 	ori	s2,s2,0x95dc
    25f4:	00000000 	nop
    25f8:	24140000 	li	s4,0
    25fc:	16141b60 	bne	s0,s4,9380 <inst_error>
    2600:	00000000 	nop
    2604:	00000000 	nop
    2608:	24150000 	li	s5,0
    260c:	16551b5c 	bne	s2,s5,9380 <inst_error>
    2610:	00000000 	nop
    2614:	00000000 	nop
    2618:	3c0c4d43 	lui	t4,0x4d43
    261c:	358c2770 	ori	t4,t4,0x2770
    2620:	3c0dce14 	lui	t5,0xce14
    2624:	35adef40 	ori	t5,t5,0xef40
    2628:	24100000 	li	s0,0
    262c:	10000012 	b	2678 <n33_blez_test+0x2678>
    2630:	24120000 	li	s2,0
    2634:	00000000 	nop
    2638:	3c104d43 	lui	s0,0x4d43
    263c:	19000019 	blez	t0,26a4 <n33_blez_test+0x26a4>
    2640:	36102770 	ori	s0,s0,0x2770
    2644:	10000019 	b	26ac <n33_blez_test+0x26ac>
    2648:	00000000 	nop
    264c:	00000000 	nop
    2650:	00000021 	move	zero,zero
    2654:	00000021 	move	zero,zero
    2658:	00000021 	move	zero,zero
    265c:	00000021 	move	zero,zero
    2660:	00000021 	move	zero,zero
    2664:	00000021 	move	zero,zero
    2668:	00000021 	move	zero,zero
    266c:	00000021 	move	zero,zero
    2670:	00000021 	move	zero,zero
    2674:	00000021 	move	zero,zero
    2678:	3c0887b0 	lui	t0,0x87b0
    267c:	350819d8 	ori	t0,t0,0x19d8
    2680:	1900ffed 	blez	t0,2638 <n33_blez_test+0x2638>
    2684:	00000000 	nop
    2688:	10000008 	b	26ac <n33_blez_test+0x26ac>
    268c:	00000000 	nop
    2690:	00000000 	nop
    2694:	00000021 	move	zero,zero
    2698:	00000021 	move	zero,zero
    269c:	00000021 	move	zero,zero
    26a0:	00000021 	move	zero,zero
    26a4:	3c12ce14 	lui	s2,0xce14
    26a8:	3652ef40 	ori	s2,s2,0xef40
    26ac:	00000000 	nop
    26b0:	3c144d43 	lui	s4,0x4d43
    26b4:	36942770 	ori	s4,s4,0x2770
    26b8:	16141b31 	bne	s0,s4,9380 <inst_error>
    26bc:	00000000 	nop
    26c0:	00000000 	nop
    26c4:	3c15ce14 	lui	s5,0xce14
    26c8:	36b5ef40 	ori	s5,s5,0xef40
    26cc:	16551b2c 	bne	s2,s5,9380 <inst_error>
    26d0:	00000000 	nop
    26d4:	00000000 	nop
    26d8:	3c0c8c91 	lui	t4,0x8c91
    26dc:	358cb054 	ori	t4,t4,0xb054
    26e0:	3c0d3ad3 	lui	t5,0x3ad3
    26e4:	35addf8e 	ori	t5,t5,0xdf8e
    26e8:	24100000 	li	s0,0
    26ec:	10000012 	b	2738 <n33_blez_test+0x2738>
    26f0:	24120000 	li	s2,0
    26f4:	00000000 	nop
    26f8:	3c108c91 	lui	s0,0x8c91
    26fc:	19000019 	blez	t0,2764 <n33_blez_test+0x2764>
    2700:	3610b054 	ori	s0,s0,0xb054
    2704:	10000019 	b	276c <n33_blez_test+0x276c>
    2708:	00000000 	nop
    270c:	00000000 	nop
    2710:	00000021 	move	zero,zero
    2714:	00000021 	move	zero,zero
    2718:	00000021 	move	zero,zero
    271c:	00000021 	move	zero,zero
    2720:	00000021 	move	zero,zero
    2724:	00000021 	move	zero,zero
    2728:	00000021 	move	zero,zero
    272c:	00000021 	move	zero,zero
    2730:	00000021 	move	zero,zero
    2734:	00000021 	move	zero,zero
    2738:	3c086554 	lui	t0,0x6554
    273c:	35084740 	ori	t0,t0,0x4740
    2740:	1900ffed 	blez	t0,26f8 <n33_blez_test+0x26f8>
    2744:	00000000 	nop
    2748:	10000008 	b	276c <n33_blez_test+0x276c>
    274c:	00000000 	nop
    2750:	00000000 	nop
    2754:	00000021 	move	zero,zero
    2758:	00000021 	move	zero,zero
    275c:	00000021 	move	zero,zero
    2760:	00000021 	move	zero,zero
    2764:	3c123ad3 	lui	s2,0x3ad3
    2768:	3652df8e 	ori	s2,s2,0xdf8e
    276c:	00000000 	nop
    2770:	24140000 	li	s4,0
    2774:	16141b02 	bne	s0,s4,9380 <inst_error>
    2778:	00000000 	nop
    277c:	00000000 	nop
    2780:	24150000 	li	s5,0
    2784:	16551afe 	bne	s2,s5,9380 <inst_error>
    2788:	00000000 	nop
    278c:	00000000 	nop
    2790:	3c0c5cc4 	lui	t4,0x5cc4
    2794:	358cf38c 	ori	t4,t4,0xf38c
    2798:	3c0d780a 	lui	t5,0x780a
    279c:	35ada740 	ori	t5,t5,0xa740
    27a0:	24100000 	li	s0,0
    27a4:	10000012 	b	27f0 <n33_blez_test+0x27f0>
    27a8:	24120000 	li	s2,0
    27ac:	00000000 	nop
    27b0:	3c105cc4 	lui	s0,0x5cc4
    27b4:	19000019 	blez	t0,281c <n33_blez_test+0x281c>
    27b8:	3610f38c 	ori	s0,s0,0xf38c
    27bc:	10000019 	b	2824 <n33_blez_test+0x2824>
    27c0:	00000000 	nop
    27c4:	00000000 	nop
    27c8:	00000021 	move	zero,zero
    27cc:	00000021 	move	zero,zero
    27d0:	00000021 	move	zero,zero
    27d4:	00000021 	move	zero,zero
    27d8:	00000021 	move	zero,zero
    27dc:	00000021 	move	zero,zero
    27e0:	00000021 	move	zero,zero
    27e4:	00000021 	move	zero,zero
    27e8:	00000021 	move	zero,zero
    27ec:	00000021 	move	zero,zero
    27f0:	3c08f1ec 	lui	t0,0xf1ec
    27f4:	3508411c 	ori	t0,t0,0x411c
    27f8:	1900ffed 	blez	t0,27b0 <n33_blez_test+0x27b0>
    27fc:	00000000 	nop
    2800:	10000008 	b	2824 <n33_blez_test+0x2824>
    2804:	00000000 	nop
    2808:	00000000 	nop
    280c:	00000021 	move	zero,zero
    2810:	00000021 	move	zero,zero
    2814:	00000021 	move	zero,zero
    2818:	00000021 	move	zero,zero
    281c:	3c12780a 	lui	s2,0x780a
    2820:	3652a740 	ori	s2,s2,0xa740
    2824:	00000000 	nop
    2828:	3c145cc4 	lui	s4,0x5cc4
    282c:	3694f38c 	ori	s4,s4,0xf38c
    2830:	16141ad3 	bne	s0,s4,9380 <inst_error>
    2834:	00000000 	nop
    2838:	00000000 	nop
    283c:	3c15780a 	lui	s5,0x780a
    2840:	36b5a740 	ori	s5,s5,0xa740
    2844:	16551ace 	bne	s2,s5,9380 <inst_error>
    2848:	00000000 	nop
    284c:	00000000 	nop
    2850:	3c0cc0f6 	lui	t4,0xc0f6
    2854:	358c2e1c 	ori	t4,t4,0x2e1c
    2858:	3c0dddbf 	lui	t5,0xddbf
    285c:	35ad6d18 	ori	t5,t5,0x6d18
    2860:	24100000 	li	s0,0
    2864:	10000012 	b	28b0 <n33_blez_test+0x28b0>
    2868:	24120000 	li	s2,0
    286c:	00000000 	nop
    2870:	3c10c0f6 	lui	s0,0xc0f6
    2874:	19000019 	blez	t0,28dc <n33_blez_test+0x28dc>
    2878:	36102e1c 	ori	s0,s0,0x2e1c
    287c:	10000019 	b	28e4 <n33_blez_test+0x28e4>
    2880:	00000000 	nop
    2884:	00000000 	nop
    2888:	00000021 	move	zero,zero
    288c:	00000021 	move	zero,zero
    2890:	00000021 	move	zero,zero
    2894:	00000021 	move	zero,zero
    2898:	00000021 	move	zero,zero
    289c:	00000021 	move	zero,zero
    28a0:	00000021 	move	zero,zero
    28a4:	00000021 	move	zero,zero
    28a8:	00000021 	move	zero,zero
    28ac:	00000021 	move	zero,zero
    28b0:	3c08cbf5 	lui	t0,0xcbf5
    28b4:	3508b318 	ori	t0,t0,0xb318
    28b8:	1900ffed 	blez	t0,2870 <n33_blez_test+0x2870>
    28bc:	00000000 	nop
    28c0:	10000008 	b	28e4 <n33_blez_test+0x28e4>
    28c4:	00000000 	nop
    28c8:	00000000 	nop
    28cc:	00000021 	move	zero,zero
    28d0:	00000021 	move	zero,zero
    28d4:	00000021 	move	zero,zero
    28d8:	00000021 	move	zero,zero
    28dc:	3c12ddbf 	lui	s2,0xddbf
    28e0:	36526d18 	ori	s2,s2,0x6d18
    28e4:	00000000 	nop
    28e8:	3c14c0f6 	lui	s4,0xc0f6
    28ec:	36942e1c 	ori	s4,s4,0x2e1c
    28f0:	16141aa3 	bne	s0,s4,9380 <inst_error>
    28f4:	00000000 	nop
    28f8:	00000000 	nop
    28fc:	3c15ddbf 	lui	s5,0xddbf
    2900:	36b56d18 	ori	s5,s5,0x6d18
    2904:	16551a9e 	bne	s2,s5,9380 <inst_error>
    2908:	00000000 	nop
    290c:	00000000 	nop
    2910:	3c0c17ed 	lui	t4,0x17ed
    2914:	358c66a0 	ori	t4,t4,0x66a0
    2918:	3c0d96f1 	lui	t5,0x96f1
    291c:	35ad4968 	ori	t5,t5,0x4968
    2920:	24100000 	li	s0,0
    2924:	10000012 	b	2970 <n33_blez_test+0x2970>
    2928:	24120000 	li	s2,0
    292c:	00000000 	nop
    2930:	3c1017ed 	lui	s0,0x17ed
    2934:	19000019 	blez	t0,299c <n33_blez_test+0x299c>
    2938:	361066a0 	ori	s0,s0,0x66a0
    293c:	10000019 	b	29a4 <n33_blez_test+0x29a4>
    2940:	00000000 	nop
    2944:	00000000 	nop
    2948:	00000021 	move	zero,zero
    294c:	00000021 	move	zero,zero
    2950:	00000021 	move	zero,zero
    2954:	00000021 	move	zero,zero
    2958:	00000021 	move	zero,zero
    295c:	00000021 	move	zero,zero
    2960:	00000021 	move	zero,zero
    2964:	00000021 	move	zero,zero
    2968:	00000021 	move	zero,zero
    296c:	00000021 	move	zero,zero
    2970:	3c085ba1 	lui	t0,0x5ba1
    2974:	3508e1e3 	ori	t0,t0,0xe1e3
    2978:	1900ffed 	blez	t0,2930 <n33_blez_test+0x2930>
    297c:	00000000 	nop
    2980:	10000008 	b	29a4 <n33_blez_test+0x29a4>
    2984:	00000000 	nop
    2988:	00000000 	nop
    298c:	00000021 	move	zero,zero
    2990:	00000021 	move	zero,zero
    2994:	00000021 	move	zero,zero
    2998:	00000021 	move	zero,zero
    299c:	3c1296f1 	lui	s2,0x96f1
    29a0:	36524968 	ori	s2,s2,0x4968
    29a4:	00000000 	nop
    29a8:	24140000 	li	s4,0
    29ac:	16141a74 	bne	s0,s4,9380 <inst_error>
    29b0:	00000000 	nop
    29b4:	00000000 	nop
    29b8:	24150000 	li	s5,0
    29bc:	16551a70 	bne	s2,s5,9380 <inst_error>
    29c0:	00000000 	nop
    29c4:	00000000 	nop
    29c8:	3c0c9f17 	lui	t4,0x9f17
    29cc:	358cb83c 	ori	t4,t4,0xb83c
    29d0:	3c0dc7b0 	lui	t5,0xc7b0
    29d4:	35ada700 	ori	t5,t5,0xa700
    29d8:	24100000 	li	s0,0
    29dc:	10000012 	b	2a28 <n33_blez_test+0x2a28>
    29e0:	24120000 	li	s2,0
    29e4:	00000000 	nop
    29e8:	3c109f17 	lui	s0,0x9f17
    29ec:	19000019 	blez	t0,2a54 <n33_blez_test+0x2a54>
    29f0:	3610b83c 	ori	s0,s0,0xb83c
    29f4:	10000019 	b	2a5c <n33_blez_test+0x2a5c>
    29f8:	00000000 	nop
    29fc:	00000000 	nop
    2a00:	00000021 	move	zero,zero
    2a04:	00000021 	move	zero,zero
    2a08:	00000021 	move	zero,zero
    2a0c:	00000021 	move	zero,zero
    2a10:	00000021 	move	zero,zero
    2a14:	00000021 	move	zero,zero
    2a18:	00000021 	move	zero,zero
    2a1c:	00000021 	move	zero,zero
    2a20:	00000021 	move	zero,zero
    2a24:	00000021 	move	zero,zero
    2a28:	3c087028 	lui	t0,0x7028
    2a2c:	3508d5ee 	ori	t0,t0,0xd5ee
    2a30:	1900ffed 	blez	t0,29e8 <n33_blez_test+0x29e8>
    2a34:	00000000 	nop
    2a38:	10000008 	b	2a5c <n33_blez_test+0x2a5c>
    2a3c:	00000000 	nop
    2a40:	00000000 	nop
    2a44:	00000021 	move	zero,zero
    2a48:	00000021 	move	zero,zero
    2a4c:	00000021 	move	zero,zero
    2a50:	00000021 	move	zero,zero
    2a54:	3c12c7b0 	lui	s2,0xc7b0
    2a58:	3652a700 	ori	s2,s2,0xa700
    2a5c:	00000000 	nop
    2a60:	24140000 	li	s4,0
    2a64:	16141a46 	bne	s0,s4,9380 <inst_error>
    2a68:	00000000 	nop
    2a6c:	00000000 	nop
    2a70:	24150000 	li	s5,0
    2a74:	16551a42 	bne	s2,s5,9380 <inst_error>
    2a78:	00000000 	nop
    2a7c:	00000000 	nop
    2a80:	3c0c2d83 	lui	t4,0x2d83
    2a84:	358ccddc 	ori	t4,t4,0xcddc
    2a88:	3c0d879b 	lui	t5,0x879b
    2a8c:	35ad1b76 	ori	t5,t5,0x1b76
    2a90:	24100000 	li	s0,0
    2a94:	10000012 	b	2ae0 <n33_blez_test+0x2ae0>
    2a98:	24120000 	li	s2,0
    2a9c:	00000000 	nop
    2aa0:	3c102d83 	lui	s0,0x2d83
    2aa4:	19000019 	blez	t0,2b0c <n33_blez_test+0x2b0c>
    2aa8:	3610cddc 	ori	s0,s0,0xcddc
    2aac:	10000019 	b	2b14 <n33_blez_test+0x2b14>
    2ab0:	00000000 	nop
    2ab4:	00000000 	nop
    2ab8:	00000021 	move	zero,zero
    2abc:	00000021 	move	zero,zero
    2ac0:	00000021 	move	zero,zero
    2ac4:	00000021 	move	zero,zero
    2ac8:	00000021 	move	zero,zero
    2acc:	00000021 	move	zero,zero
    2ad0:	00000021 	move	zero,zero
    2ad4:	00000021 	move	zero,zero
    2ad8:	00000021 	move	zero,zero
    2adc:	00000021 	move	zero,zero
    2ae0:	3c08ba71 	lui	t0,0xba71
    2ae4:	3508b96e 	ori	t0,t0,0xb96e
    2ae8:	1900ffed 	blez	t0,2aa0 <n33_blez_test+0x2aa0>
    2aec:	00000000 	nop
    2af0:	10000008 	b	2b14 <n33_blez_test+0x2b14>
    2af4:	00000000 	nop
    2af8:	00000000 	nop
    2afc:	00000021 	move	zero,zero
    2b00:	00000021 	move	zero,zero
    2b04:	00000021 	move	zero,zero
    2b08:	00000021 	move	zero,zero
    2b0c:	3c12879b 	lui	s2,0x879b
    2b10:	36521b76 	ori	s2,s2,0x1b76
    2b14:	00000000 	nop
    2b18:	3c142d83 	lui	s4,0x2d83
    2b1c:	3694cddc 	ori	s4,s4,0xcddc
    2b20:	16141a17 	bne	s0,s4,9380 <inst_error>
    2b24:	00000000 	nop
    2b28:	00000000 	nop
    2b2c:	3c15879b 	lui	s5,0x879b
    2b30:	36b51b76 	ori	s5,s5,0x1b76
    2b34:	16551a12 	bne	s2,s5,9380 <inst_error>
    2b38:	00000000 	nop
    2b3c:	00000000 	nop
    2b40:	3c0cb047 	lui	t4,0xb047
    2b44:	358c9198 	ori	t4,t4,0x9198
    2b48:	3c0d7455 	lui	t5,0x7455
    2b4c:	35add8b5 	ori	t5,t5,0xd8b5
    2b50:	24100000 	li	s0,0
    2b54:	10000012 	b	2ba0 <n33_blez_test+0x2ba0>
    2b58:	24120000 	li	s2,0
    2b5c:	00000000 	nop
    2b60:	3c10b047 	lui	s0,0xb047
    2b64:	19000019 	blez	t0,2bcc <n33_blez_test+0x2bcc>
    2b68:	36109198 	ori	s0,s0,0x9198
    2b6c:	10000019 	b	2bd4 <n33_blez_test+0x2bd4>
    2b70:	00000000 	nop
    2b74:	00000000 	nop
    2b78:	00000021 	move	zero,zero
    2b7c:	00000021 	move	zero,zero
    2b80:	00000021 	move	zero,zero
    2b84:	00000021 	move	zero,zero
    2b88:	00000021 	move	zero,zero
    2b8c:	00000021 	move	zero,zero
    2b90:	00000021 	move	zero,zero
    2b94:	00000021 	move	zero,zero
    2b98:	00000021 	move	zero,zero
    2b9c:	00000021 	move	zero,zero
    2ba0:	3c08e5f8 	lui	t0,0xe5f8
    2ba4:	35087908 	ori	t0,t0,0x7908
    2ba8:	1900ffed 	blez	t0,2b60 <n33_blez_test+0x2b60>
    2bac:	00000000 	nop
    2bb0:	10000008 	b	2bd4 <n33_blez_test+0x2bd4>
    2bb4:	00000000 	nop
    2bb8:	00000000 	nop
    2bbc:	00000021 	move	zero,zero
    2bc0:	00000021 	move	zero,zero
    2bc4:	00000021 	move	zero,zero
    2bc8:	00000021 	move	zero,zero
    2bcc:	3c127455 	lui	s2,0x7455
    2bd0:	3652d8b5 	ori	s2,s2,0xd8b5
    2bd4:	00000000 	nop
    2bd8:	3c14b047 	lui	s4,0xb047
    2bdc:	36949198 	ori	s4,s4,0x9198
    2be0:	161419e7 	bne	s0,s4,9380 <inst_error>
    2be4:	00000000 	nop
    2be8:	00000000 	nop
    2bec:	3c157455 	lui	s5,0x7455
    2bf0:	36b5d8b5 	ori	s5,s5,0xd8b5
    2bf4:	165519e2 	bne	s2,s5,9380 <inst_error>
    2bf8:	00000000 	nop
    2bfc:	00000000 	nop
    2c00:	3c0c3755 	lui	t4,0x3755
    2c04:	358cf1b1 	ori	t4,t4,0xf1b1
    2c08:	3c0d7138 	lui	t5,0x7138
    2c0c:	35ad78d2 	ori	t5,t5,0x78d2
    2c10:	24100000 	li	s0,0
    2c14:	10000012 	b	2c60 <n33_blez_test+0x2c60>
    2c18:	24120000 	li	s2,0
    2c1c:	00000000 	nop
    2c20:	3c103755 	lui	s0,0x3755
    2c24:	19000019 	blez	t0,2c8c <n33_blez_test+0x2c8c>
    2c28:	3610f1b1 	ori	s0,s0,0xf1b1
    2c2c:	10000019 	b	2c94 <n33_blez_test+0x2c94>
    2c30:	00000000 	nop
    2c34:	00000000 	nop
    2c38:	00000021 	move	zero,zero
    2c3c:	00000021 	move	zero,zero
    2c40:	00000021 	move	zero,zero
    2c44:	00000021 	move	zero,zero
    2c48:	00000021 	move	zero,zero
    2c4c:	00000021 	move	zero,zero
    2c50:	00000021 	move	zero,zero
    2c54:	00000021 	move	zero,zero
    2c58:	00000021 	move	zero,zero
    2c5c:	00000021 	move	zero,zero
    2c60:	3c08f993 	lui	t0,0xf993
    2c64:	35088b1c 	ori	t0,t0,0x8b1c
    2c68:	1900ffed 	blez	t0,2c20 <n33_blez_test+0x2c20>
    2c6c:	00000000 	nop
    2c70:	10000008 	b	2c94 <n33_blez_test+0x2c94>
    2c74:	00000000 	nop
    2c78:	00000000 	nop
    2c7c:	00000021 	move	zero,zero
    2c80:	00000021 	move	zero,zero
    2c84:	00000021 	move	zero,zero
    2c88:	00000021 	move	zero,zero
    2c8c:	3c127138 	lui	s2,0x7138
    2c90:	365278d2 	ori	s2,s2,0x78d2
    2c94:	00000000 	nop
    2c98:	3c143755 	lui	s4,0x3755
    2c9c:	3694f1b1 	ori	s4,s4,0xf1b1
    2ca0:	161419b7 	bne	s0,s4,9380 <inst_error>
    2ca4:	00000000 	nop
    2ca8:	00000000 	nop
    2cac:	3c157138 	lui	s5,0x7138
    2cb0:	36b578d2 	ori	s5,s5,0x78d2
    2cb4:	165519b2 	bne	s2,s5,9380 <inst_error>
    2cb8:	00000000 	nop
    2cbc:	00000000 	nop
    2cc0:	3c0c51d0 	lui	t4,0x51d0
    2cc4:	358cada5 	ori	t4,t4,0xada5
    2cc8:	3c0dedaa 	lui	t5,0xedaa
    2ccc:	35adec18 	ori	t5,t5,0xec18
    2cd0:	24100000 	li	s0,0
    2cd4:	10000012 	b	2d20 <n33_blez_test+0x2d20>
    2cd8:	24120000 	li	s2,0
    2cdc:	00000000 	nop
    2ce0:	3c1051d0 	lui	s0,0x51d0
    2ce4:	19000019 	blez	t0,2d4c <n33_blez_test+0x2d4c>
    2ce8:	3610ada5 	ori	s0,s0,0xada5
    2cec:	10000019 	b	2d54 <n33_blez_test+0x2d54>
    2cf0:	00000000 	nop
    2cf4:	00000000 	nop
    2cf8:	00000021 	move	zero,zero
    2cfc:	00000021 	move	zero,zero
    2d00:	00000021 	move	zero,zero
    2d04:	00000021 	move	zero,zero
    2d08:	00000021 	move	zero,zero
    2d0c:	00000021 	move	zero,zero
    2d10:	00000021 	move	zero,zero
    2d14:	00000021 	move	zero,zero
    2d18:	00000021 	move	zero,zero
    2d1c:	00000021 	move	zero,zero
    2d20:	3c08bed7 	lui	t0,0xbed7
    2d24:	35081b16 	ori	t0,t0,0x1b16
    2d28:	1900ffed 	blez	t0,2ce0 <n33_blez_test+0x2ce0>
    2d2c:	00000000 	nop
    2d30:	10000008 	b	2d54 <n33_blez_test+0x2d54>
    2d34:	00000000 	nop
    2d38:	00000000 	nop
    2d3c:	00000021 	move	zero,zero
    2d40:	00000021 	move	zero,zero
    2d44:	00000021 	move	zero,zero
    2d48:	00000021 	move	zero,zero
    2d4c:	3c12edaa 	lui	s2,0xedaa
    2d50:	3652ec18 	ori	s2,s2,0xec18
    2d54:	00000000 	nop
    2d58:	3c1451d0 	lui	s4,0x51d0
    2d5c:	3694ada5 	ori	s4,s4,0xada5
    2d60:	16141987 	bne	s0,s4,9380 <inst_error>
    2d64:	00000000 	nop
    2d68:	00000000 	nop
    2d6c:	3c15edaa 	lui	s5,0xedaa
    2d70:	36b5ec18 	ori	s5,s5,0xec18
    2d74:	16551982 	bne	s2,s5,9380 <inst_error>
    2d78:	00000000 	nop
    2d7c:	00000000 	nop
    2d80:	3c0c4abd 	lui	t4,0x4abd
    2d84:	358cb63c 	ori	t4,t4,0xb63c
    2d88:	3c0d2b8a 	lui	t5,0x2b8a
    2d8c:	35ad1cee 	ori	t5,t5,0x1cee
    2d90:	24100000 	li	s0,0
    2d94:	10000012 	b	2de0 <n33_blez_test+0x2de0>
    2d98:	24120000 	li	s2,0
    2d9c:	00000000 	nop
    2da0:	3c104abd 	lui	s0,0x4abd
    2da4:	19000019 	blez	t0,2e0c <n33_blez_test+0x2e0c>
    2da8:	3610b63c 	ori	s0,s0,0xb63c
    2dac:	10000019 	b	2e14 <n33_blez_test+0x2e14>
    2db0:	00000000 	nop
    2db4:	00000000 	nop
    2db8:	00000021 	move	zero,zero
    2dbc:	00000021 	move	zero,zero
    2dc0:	00000021 	move	zero,zero
    2dc4:	00000021 	move	zero,zero
    2dc8:	00000021 	move	zero,zero
    2dcc:	00000021 	move	zero,zero
    2dd0:	00000021 	move	zero,zero
    2dd4:	00000021 	move	zero,zero
    2dd8:	00000021 	move	zero,zero
    2ddc:	00000021 	move	zero,zero
    2de0:	3c081e2a 	lui	t0,0x1e2a
    2de4:	350814d4 	ori	t0,t0,0x14d4
    2de8:	1900ffed 	blez	t0,2da0 <n33_blez_test+0x2da0>
    2dec:	00000000 	nop
    2df0:	10000008 	b	2e14 <n33_blez_test+0x2e14>
    2df4:	00000000 	nop
    2df8:	00000000 	nop
    2dfc:	00000021 	move	zero,zero
    2e00:	00000021 	move	zero,zero
    2e04:	00000021 	move	zero,zero
    2e08:	00000021 	move	zero,zero
    2e0c:	3c122b8a 	lui	s2,0x2b8a
    2e10:	36521cee 	ori	s2,s2,0x1cee
    2e14:	00000000 	nop
    2e18:	24140000 	li	s4,0
    2e1c:	16141958 	bne	s0,s4,9380 <inst_error>
    2e20:	00000000 	nop
    2e24:	00000000 	nop
    2e28:	24150000 	li	s5,0
    2e2c:	16551954 	bne	s2,s5,9380 <inst_error>
    2e30:	00000000 	nop
    2e34:	00000000 	nop
    2e38:	3c0c1ff2 	lui	t4,0x1ff2
    2e3c:	358c6132 	ori	t4,t4,0x6132
    2e40:	3c0d88fb 	lui	t5,0x88fb
    2e44:	35ad7170 	ori	t5,t5,0x7170
    2e48:	24100000 	li	s0,0
    2e4c:	10000012 	b	2e98 <n33_blez_test+0x2e98>
    2e50:	24120000 	li	s2,0
    2e54:	00000000 	nop
    2e58:	3c101ff2 	lui	s0,0x1ff2
    2e5c:	19000019 	blez	t0,2ec4 <n33_blez_test+0x2ec4>
    2e60:	36106132 	ori	s0,s0,0x6132
    2e64:	10000019 	b	2ecc <n33_blez_test+0x2ecc>
    2e68:	00000000 	nop
    2e6c:	00000000 	nop
    2e70:	00000021 	move	zero,zero
    2e74:	00000021 	move	zero,zero
    2e78:	00000021 	move	zero,zero
    2e7c:	00000021 	move	zero,zero
    2e80:	00000021 	move	zero,zero
    2e84:	00000021 	move	zero,zero
    2e88:	00000021 	move	zero,zero
    2e8c:	00000021 	move	zero,zero
    2e90:	00000021 	move	zero,zero
    2e94:	00000021 	move	zero,zero
    2e98:	3c0850f9 	lui	t0,0x50f9
    2e9c:	35082580 	ori	t0,t0,0x2580
    2ea0:	1900ffed 	blez	t0,2e58 <n33_blez_test+0x2e58>
    2ea4:	00000000 	nop
    2ea8:	10000008 	b	2ecc <n33_blez_test+0x2ecc>
    2eac:	00000000 	nop
    2eb0:	00000000 	nop
    2eb4:	00000021 	move	zero,zero
    2eb8:	00000021 	move	zero,zero
    2ebc:	00000021 	move	zero,zero
    2ec0:	00000021 	move	zero,zero
    2ec4:	3c1288fb 	lui	s2,0x88fb
    2ec8:	36527170 	ori	s2,s2,0x7170
    2ecc:	00000000 	nop
    2ed0:	24140000 	li	s4,0
    2ed4:	1614192a 	bne	s0,s4,9380 <inst_error>
    2ed8:	00000000 	nop
    2edc:	00000000 	nop
    2ee0:	24150000 	li	s5,0
    2ee4:	16551926 	bne	s2,s5,9380 <inst_error>
    2ee8:	00000000 	nop
    2eec:	00000000 	nop
    2ef0:	3c0cde3c 	lui	t4,0xde3c
    2ef4:	358c740c 	ori	t4,t4,0x740c
    2ef8:	3c0db9d0 	lui	t5,0xb9d0
    2efc:	35ad1798 	ori	t5,t5,0x1798
    2f00:	24100000 	li	s0,0
    2f04:	10000012 	b	2f50 <n33_blez_test+0x2f50>
    2f08:	24120000 	li	s2,0
    2f0c:	00000000 	nop
    2f10:	3c10de3c 	lui	s0,0xde3c
    2f14:	19000019 	blez	t0,2f7c <n33_blez_test+0x2f7c>
    2f18:	3610740c 	ori	s0,s0,0x740c
    2f1c:	10000019 	b	2f84 <n33_blez_test+0x2f84>
    2f20:	00000000 	nop
    2f24:	00000000 	nop
    2f28:	00000021 	move	zero,zero
    2f2c:	00000021 	move	zero,zero
    2f30:	00000021 	move	zero,zero
    2f34:	00000021 	move	zero,zero
    2f38:	00000021 	move	zero,zero
    2f3c:	00000021 	move	zero,zero
    2f40:	00000021 	move	zero,zero
    2f44:	00000021 	move	zero,zero
    2f48:	00000021 	move	zero,zero
    2f4c:	00000021 	move	zero,zero
    2f50:	3c08772d 	lui	t0,0x772d
    2f54:	350824f0 	ori	t0,t0,0x24f0
    2f58:	1900ffed 	blez	t0,2f10 <n33_blez_test+0x2f10>
    2f5c:	00000000 	nop
    2f60:	10000008 	b	2f84 <n33_blez_test+0x2f84>
    2f64:	00000000 	nop
    2f68:	00000000 	nop
    2f6c:	00000021 	move	zero,zero
    2f70:	00000021 	move	zero,zero
    2f74:	00000021 	move	zero,zero
    2f78:	00000021 	move	zero,zero
    2f7c:	3c12b9d0 	lui	s2,0xb9d0
    2f80:	36521798 	ori	s2,s2,0x1798
    2f84:	00000000 	nop
    2f88:	24140000 	li	s4,0
    2f8c:	161418fc 	bne	s0,s4,9380 <inst_error>
    2f90:	00000000 	nop
    2f94:	00000000 	nop
    2f98:	24150000 	li	s5,0
    2f9c:	165518f8 	bne	s2,s5,9380 <inst_error>
    2fa0:	00000000 	nop
    2fa4:	00000000 	nop
    2fa8:	3c0c2eee 	lui	t4,0x2eee
    2fac:	358c5b14 	ori	t4,t4,0x5b14
    2fb0:	3c0dab5f 	lui	t5,0xab5f
    2fb4:	35ad9b60 	ori	t5,t5,0x9b60
    2fb8:	24100000 	li	s0,0
    2fbc:	10000012 	b	3008 <n33_blez_test+0x3008>
    2fc0:	24120000 	li	s2,0
    2fc4:	00000000 	nop
    2fc8:	3c102eee 	lui	s0,0x2eee
    2fcc:	19000019 	blez	t0,3034 <n33_blez_test+0x3034>
    2fd0:	36105b14 	ori	s0,s0,0x5b14
    2fd4:	10000019 	b	303c <n33_blez_test+0x303c>
    2fd8:	00000000 	nop
    2fdc:	00000000 	nop
    2fe0:	00000021 	move	zero,zero
    2fe4:	00000021 	move	zero,zero
    2fe8:	00000021 	move	zero,zero
    2fec:	00000021 	move	zero,zero
    2ff0:	00000021 	move	zero,zero
    2ff4:	00000021 	move	zero,zero
    2ff8:	00000021 	move	zero,zero
    2ffc:	00000021 	move	zero,zero
    3000:	00000021 	move	zero,zero
    3004:	00000021 	move	zero,zero
    3008:	3c0818bc 	lui	t0,0x18bc
    300c:	35082f30 	ori	t0,t0,0x2f30
    3010:	1900ffed 	blez	t0,2fc8 <n33_blez_test+0x2fc8>
    3014:	00000000 	nop
    3018:	10000008 	b	303c <n33_blez_test+0x303c>
    301c:	00000000 	nop
    3020:	00000000 	nop
    3024:	00000021 	move	zero,zero
    3028:	00000021 	move	zero,zero
    302c:	00000021 	move	zero,zero
    3030:	00000021 	move	zero,zero
    3034:	3c12ab5f 	lui	s2,0xab5f
    3038:	36529b60 	ori	s2,s2,0x9b60
    303c:	00000000 	nop
    3040:	24140000 	li	s4,0
    3044:	161418ce 	bne	s0,s4,9380 <inst_error>
    3048:	00000000 	nop
    304c:	00000000 	nop
    3050:	24150000 	li	s5,0
    3054:	165518ca 	bne	s2,s5,9380 <inst_error>
    3058:	00000000 	nop
    305c:	00000000 	nop
    3060:	3c0c4397 	lui	t4,0x4397
    3064:	358c2480 	ori	t4,t4,0x2480
    3068:	3c0d91b3 	lui	t5,0x91b3
    306c:	35ad69d8 	ori	t5,t5,0x69d8
    3070:	24100000 	li	s0,0
    3074:	10000012 	b	30c0 <n33_blez_test+0x30c0>
    3078:	24120000 	li	s2,0
    307c:	00000000 	nop
    3080:	3c104397 	lui	s0,0x4397
    3084:	19000019 	blez	t0,30ec <n33_blez_test+0x30ec>
    3088:	36102480 	ori	s0,s0,0x2480
    308c:	10000019 	b	30f4 <n33_blez_test+0x30f4>
    3090:	00000000 	nop
    3094:	00000000 	nop
    3098:	00000021 	move	zero,zero
    309c:	00000021 	move	zero,zero
    30a0:	00000021 	move	zero,zero
    30a4:	00000021 	move	zero,zero
    30a8:	00000021 	move	zero,zero
    30ac:	00000021 	move	zero,zero
    30b0:	00000021 	move	zero,zero
    30b4:	00000021 	move	zero,zero
    30b8:	00000021 	move	zero,zero
    30bc:	00000021 	move	zero,zero
    30c0:	3c083cc6 	lui	t0,0x3cc6
    30c4:	3508c742 	ori	t0,t0,0xc742
    30c8:	1900ffed 	blez	t0,3080 <n33_blez_test+0x3080>
    30cc:	00000000 	nop
    30d0:	10000008 	b	30f4 <n33_blez_test+0x30f4>
    30d4:	00000000 	nop
    30d8:	00000000 	nop
    30dc:	00000021 	move	zero,zero
    30e0:	00000021 	move	zero,zero
    30e4:	00000021 	move	zero,zero
    30e8:	00000021 	move	zero,zero
    30ec:	3c1291b3 	lui	s2,0x91b3
    30f0:	365269d8 	ori	s2,s2,0x69d8
    30f4:	00000000 	nop
    30f8:	24140000 	li	s4,0
    30fc:	161418a0 	bne	s0,s4,9380 <inst_error>
    3100:	00000000 	nop
    3104:	00000000 	nop
    3108:	24150000 	li	s5,0
    310c:	1655189c 	bne	s2,s5,9380 <inst_error>
    3110:	00000000 	nop
    3114:	00000000 	nop
    3118:	3c0c86a8 	lui	t4,0x86a8
    311c:	358c3afc 	ori	t4,t4,0x3afc
    3120:	3c0dce1a 	lui	t5,0xce1a
    3124:	35ad5b3c 	ori	t5,t5,0x5b3c
    3128:	24100000 	li	s0,0
    312c:	10000012 	b	3178 <n33_blez_test+0x3178>
    3130:	24120000 	li	s2,0
    3134:	00000000 	nop
    3138:	3c1086a8 	lui	s0,0x86a8
    313c:	19000019 	blez	t0,31a4 <n33_blez_test+0x31a4>
    3140:	36103afc 	ori	s0,s0,0x3afc
    3144:	10000019 	b	31ac <n33_blez_test+0x31ac>
    3148:	00000000 	nop
    314c:	00000000 	nop
    3150:	00000021 	move	zero,zero
    3154:	00000021 	move	zero,zero
    3158:	00000021 	move	zero,zero
    315c:	00000021 	move	zero,zero
    3160:	00000021 	move	zero,zero
    3164:	00000021 	move	zero,zero
    3168:	00000021 	move	zero,zero
    316c:	00000021 	move	zero,zero
    3170:	00000021 	move	zero,zero
    3174:	00000021 	move	zero,zero
    3178:	3c08bd93 	lui	t0,0xbd93
    317c:	35080ae0 	ori	t0,t0,0xae0
    3180:	1900ffed 	blez	t0,3138 <n33_blez_test+0x3138>
    3184:	00000000 	nop
    3188:	10000008 	b	31ac <n33_blez_test+0x31ac>
    318c:	00000000 	nop
    3190:	00000000 	nop
    3194:	00000021 	move	zero,zero
    3198:	00000021 	move	zero,zero
    319c:	00000021 	move	zero,zero
    31a0:	00000021 	move	zero,zero
    31a4:	3c12ce1a 	lui	s2,0xce1a
    31a8:	36525b3c 	ori	s2,s2,0x5b3c
    31ac:	00000000 	nop
    31b0:	3c1486a8 	lui	s4,0x86a8
    31b4:	36943afc 	ori	s4,s4,0x3afc
    31b8:	16141871 	bne	s0,s4,9380 <inst_error>
    31bc:	00000000 	nop
    31c0:	00000000 	nop
    31c4:	3c15ce1a 	lui	s5,0xce1a
    31c8:	36b55b3c 	ori	s5,s5,0x5b3c
    31cc:	1655186c 	bne	s2,s5,9380 <inst_error>
    31d0:	00000000 	nop
    31d4:	00000000 	nop
    31d8:	3c0c8e3e 	lui	t4,0x8e3e
    31dc:	358c2bde 	ori	t4,t4,0x2bde
    31e0:	3c0d70e5 	lui	t5,0x70e5
    31e4:	35adcc74 	ori	t5,t5,0xcc74
    31e8:	24100000 	li	s0,0
    31ec:	10000012 	b	3238 <n33_blez_test+0x3238>
    31f0:	24120000 	li	s2,0
    31f4:	00000000 	nop
    31f8:	3c108e3e 	lui	s0,0x8e3e
    31fc:	19000019 	blez	t0,3264 <n33_blez_test+0x3264>
    3200:	36102bde 	ori	s0,s0,0x2bde
    3204:	10000019 	b	326c <n33_blez_test+0x326c>
    3208:	00000000 	nop
    320c:	00000000 	nop
    3210:	00000021 	move	zero,zero
    3214:	00000021 	move	zero,zero
    3218:	00000021 	move	zero,zero
    321c:	00000021 	move	zero,zero
    3220:	00000021 	move	zero,zero
    3224:	00000021 	move	zero,zero
    3228:	00000021 	move	zero,zero
    322c:	00000021 	move	zero,zero
    3230:	00000021 	move	zero,zero
    3234:	00000021 	move	zero,zero
    3238:	3c081355 	lui	t0,0x1355
    323c:	35084e80 	ori	t0,t0,0x4e80
    3240:	1900ffed 	blez	t0,31f8 <n33_blez_test+0x31f8>
    3244:	00000000 	nop
    3248:	10000008 	b	326c <n33_blez_test+0x326c>
    324c:	00000000 	nop
    3250:	00000000 	nop
    3254:	00000021 	move	zero,zero
    3258:	00000021 	move	zero,zero
    325c:	00000021 	move	zero,zero
    3260:	00000021 	move	zero,zero
    3264:	3c1270e5 	lui	s2,0x70e5
    3268:	3652cc74 	ori	s2,s2,0xcc74
    326c:	00000000 	nop
    3270:	24140000 	li	s4,0
    3274:	16141842 	bne	s0,s4,9380 <inst_error>
    3278:	00000000 	nop
    327c:	00000000 	nop
    3280:	24150000 	li	s5,0
    3284:	1655183e 	bne	s2,s5,9380 <inst_error>
    3288:	00000000 	nop
    328c:	00000000 	nop
    3290:	3c0cf42a 	lui	t4,0xf42a
    3294:	358c3336 	ori	t4,t4,0x3336
    3298:	3c0ded40 	lui	t5,0xed40
    329c:	35ad81fe 	ori	t5,t5,0x81fe
    32a0:	24100000 	li	s0,0
    32a4:	10000012 	b	32f0 <n33_blez_test+0x32f0>
    32a8:	24120000 	li	s2,0
    32ac:	00000000 	nop
    32b0:	3c10f42a 	lui	s0,0xf42a
    32b4:	19000019 	blez	t0,331c <n33_blez_test+0x331c>
    32b8:	36103336 	ori	s0,s0,0x3336
    32bc:	10000019 	b	3324 <n33_blez_test+0x3324>
    32c0:	00000000 	nop
    32c4:	00000000 	nop
    32c8:	00000021 	move	zero,zero
    32cc:	00000021 	move	zero,zero
    32d0:	00000021 	move	zero,zero
    32d4:	00000021 	move	zero,zero
    32d8:	00000021 	move	zero,zero
    32dc:	00000021 	move	zero,zero
    32e0:	00000021 	move	zero,zero
    32e4:	00000021 	move	zero,zero
    32e8:	00000021 	move	zero,zero
    32ec:	00000021 	move	zero,zero
    32f0:	3c08aa20 	lui	t0,0xaa20
    32f4:	350805c0 	ori	t0,t0,0x5c0
    32f8:	1900ffed 	blez	t0,32b0 <n33_blez_test+0x32b0>
    32fc:	00000000 	nop
    3300:	10000008 	b	3324 <n33_blez_test+0x3324>
    3304:	00000000 	nop
    3308:	00000000 	nop
    330c:	00000021 	move	zero,zero
    3310:	00000021 	move	zero,zero
    3314:	00000021 	move	zero,zero
    3318:	00000021 	move	zero,zero
    331c:	3c12ed40 	lui	s2,0xed40
    3320:	365281fe 	ori	s2,s2,0x81fe
    3324:	00000000 	nop
    3328:	3c14f42a 	lui	s4,0xf42a
    332c:	36943336 	ori	s4,s4,0x3336
    3330:	16141813 	bne	s0,s4,9380 <inst_error>
    3334:	00000000 	nop
    3338:	00000000 	nop
    333c:	3c15ed40 	lui	s5,0xed40
    3340:	36b581fe 	ori	s5,s5,0x81fe
    3344:	1655180e 	bne	s2,s5,9380 <inst_error>
    3348:	00000000 	nop
    334c:	00000000 	nop
    3350:	3c0c4f05 	lui	t4,0x4f05
    3354:	358cb73c 	ori	t4,t4,0xb73c
    3358:	3c0d32b5 	lui	t5,0x32b5
    335c:	35ad5baa 	ori	t5,t5,0x5baa
    3360:	24100000 	li	s0,0
    3364:	10000012 	b	33b0 <n33_blez_test+0x33b0>
    3368:	24120000 	li	s2,0
    336c:	00000000 	nop
    3370:	3c104f05 	lui	s0,0x4f05
    3374:	19000019 	blez	t0,33dc <n33_blez_test+0x33dc>
    3378:	3610b73c 	ori	s0,s0,0xb73c
    337c:	10000019 	b	33e4 <n33_blez_test+0x33e4>
    3380:	00000000 	nop
    3384:	00000000 	nop
    3388:	00000021 	move	zero,zero
    338c:	00000021 	move	zero,zero
    3390:	00000021 	move	zero,zero
    3394:	00000021 	move	zero,zero
    3398:	00000021 	move	zero,zero
    339c:	00000021 	move	zero,zero
    33a0:	00000021 	move	zero,zero
    33a4:	00000021 	move	zero,zero
    33a8:	00000021 	move	zero,zero
    33ac:	00000021 	move	zero,zero
    33b0:	3c0897e9 	lui	t0,0x97e9
    33b4:	3508c124 	ori	t0,t0,0xc124
    33b8:	1900ffed 	blez	t0,3370 <n33_blez_test+0x3370>
    33bc:	00000000 	nop
    33c0:	10000008 	b	33e4 <n33_blez_test+0x33e4>
    33c4:	00000000 	nop
    33c8:	00000000 	nop
    33cc:	00000021 	move	zero,zero
    33d0:	00000021 	move	zero,zero
    33d4:	00000021 	move	zero,zero
    33d8:	00000021 	move	zero,zero
    33dc:	3c1232b5 	lui	s2,0x32b5
    33e0:	36525baa 	ori	s2,s2,0x5baa
    33e4:	00000000 	nop
    33e8:	3c144f05 	lui	s4,0x4f05
    33ec:	3694b73c 	ori	s4,s4,0xb73c
    33f0:	161417e3 	bne	s0,s4,9380 <inst_error>
    33f4:	00000000 	nop
    33f8:	00000000 	nop
    33fc:	3c1532b5 	lui	s5,0x32b5
    3400:	36b55baa 	ori	s5,s5,0x5baa
    3404:	165517de 	bne	s2,s5,9380 <inst_error>
    3408:	00000000 	nop
    340c:	00000000 	nop
    3410:	3c0cb974 	lui	t4,0xb974
    3414:	358c3552 	ori	t4,t4,0x3552
    3418:	3c0d8331 	lui	t5,0x8331
    341c:	35adb3e4 	ori	t5,t5,0xb3e4
    3420:	24100000 	li	s0,0
    3424:	10000012 	b	3470 <n33_blez_test+0x3470>
    3428:	24120000 	li	s2,0
    342c:	00000000 	nop
    3430:	3c10b974 	lui	s0,0xb974
    3434:	19000019 	blez	t0,349c <n33_blez_test+0x349c>
    3438:	36103552 	ori	s0,s0,0x3552
    343c:	10000019 	b	34a4 <n33_blez_test+0x34a4>
    3440:	00000000 	nop
    3444:	00000000 	nop
    3448:	00000021 	move	zero,zero
    344c:	00000021 	move	zero,zero
    3450:	00000021 	move	zero,zero
    3454:	00000021 	move	zero,zero
    3458:	00000021 	move	zero,zero
    345c:	00000021 	move	zero,zero
    3460:	00000021 	move	zero,zero
    3464:	00000021 	move	zero,zero
    3468:	00000021 	move	zero,zero
    346c:	00000021 	move	zero,zero
    3470:	3c0837a1 	lui	t0,0x37a1
    3474:	35087580 	ori	t0,t0,0x7580
    3478:	1900ffed 	blez	t0,3430 <n33_blez_test+0x3430>
    347c:	00000000 	nop
    3480:	10000008 	b	34a4 <n33_blez_test+0x34a4>
    3484:	00000000 	nop
    3488:	00000000 	nop
    348c:	00000021 	move	zero,zero
    3490:	00000021 	move	zero,zero
    3494:	00000021 	move	zero,zero
    3498:	00000021 	move	zero,zero
    349c:	3c128331 	lui	s2,0x8331
    34a0:	3652b3e4 	ori	s2,s2,0xb3e4
    34a4:	00000000 	nop
    34a8:	24140000 	li	s4,0
    34ac:	161417b4 	bne	s0,s4,9380 <inst_error>
    34b0:	00000000 	nop
    34b4:	00000000 	nop
    34b8:	24150000 	li	s5,0
    34bc:	165517b0 	bne	s2,s5,9380 <inst_error>
    34c0:	00000000 	nop
    34c4:	00000000 	nop
    34c8:	3c0c7a60 	lui	t4,0x7a60
    34cc:	358cc600 	ori	t4,t4,0xc600
    34d0:	3c0d5f37 	lui	t5,0x5f37
    34d4:	35ad0104 	ori	t5,t5,0x104
    34d8:	24100000 	li	s0,0
    34dc:	10000012 	b	3528 <n33_blez_test+0x3528>
    34e0:	24120000 	li	s2,0
    34e4:	00000000 	nop
    34e8:	3c107a60 	lui	s0,0x7a60
    34ec:	19000019 	blez	t0,3554 <n33_blez_test+0x3554>
    34f0:	3610c600 	ori	s0,s0,0xc600
    34f4:	10000019 	b	355c <n33_blez_test+0x355c>
    34f8:	00000000 	nop
    34fc:	00000000 	nop
    3500:	00000021 	move	zero,zero
    3504:	00000021 	move	zero,zero
    3508:	00000021 	move	zero,zero
    350c:	00000021 	move	zero,zero
    3510:	00000021 	move	zero,zero
    3514:	00000021 	move	zero,zero
    3518:	00000021 	move	zero,zero
    351c:	00000021 	move	zero,zero
    3520:	00000021 	move	zero,zero
    3524:	00000021 	move	zero,zero
    3528:	3c088362 	lui	t0,0x8362
    352c:	3508c950 	ori	t0,t0,0xc950
    3530:	1900ffed 	blez	t0,34e8 <n33_blez_test+0x34e8>
    3534:	00000000 	nop
    3538:	10000008 	b	355c <n33_blez_test+0x355c>
    353c:	00000000 	nop
    3540:	00000000 	nop
    3544:	00000021 	move	zero,zero
    3548:	00000021 	move	zero,zero
    354c:	00000021 	move	zero,zero
    3550:	00000021 	move	zero,zero
    3554:	3c125f37 	lui	s2,0x5f37
    3558:	36520104 	ori	s2,s2,0x104
    355c:	00000000 	nop
    3560:	3c147a60 	lui	s4,0x7a60
    3564:	3694c600 	ori	s4,s4,0xc600
    3568:	16141785 	bne	s0,s4,9380 <inst_error>
    356c:	00000000 	nop
    3570:	00000000 	nop
    3574:	3c155f37 	lui	s5,0x5f37
    3578:	36b50104 	ori	s5,s5,0x104
    357c:	16551780 	bne	s2,s5,9380 <inst_error>
    3580:	00000000 	nop
    3584:	00000000 	nop
    3588:	3c0ca3fa 	lui	t4,0xa3fa
    358c:	358c22e6 	ori	t4,t4,0x22e6
    3590:	3c0d6a27 	lui	t5,0x6a27
    3594:	35adabc6 	ori	t5,t5,0xabc6
    3598:	24100000 	li	s0,0
    359c:	10000012 	b	35e8 <n33_blez_test+0x35e8>
    35a0:	24120000 	li	s2,0
    35a4:	00000000 	nop
    35a8:	3c10a3fa 	lui	s0,0xa3fa
    35ac:	19000019 	blez	t0,3614 <n33_blez_test+0x3614>
    35b0:	361022e6 	ori	s0,s0,0x22e6
    35b4:	10000019 	b	361c <n33_blez_test+0x361c>
    35b8:	00000000 	nop
    35bc:	00000000 	nop
    35c0:	00000021 	move	zero,zero
    35c4:	00000021 	move	zero,zero
    35c8:	00000021 	move	zero,zero
    35cc:	00000021 	move	zero,zero
    35d0:	00000021 	move	zero,zero
    35d4:	00000021 	move	zero,zero
    35d8:	00000021 	move	zero,zero
    35dc:	00000021 	move	zero,zero
    35e0:	00000021 	move	zero,zero
    35e4:	00000021 	move	zero,zero
    35e8:	3c089085 	lui	t0,0x9085
    35ec:	35086db8 	ori	t0,t0,0x6db8
    35f0:	1900ffed 	blez	t0,35a8 <n33_blez_test+0x35a8>
    35f4:	00000000 	nop
    35f8:	10000008 	b	361c <n33_blez_test+0x361c>
    35fc:	00000000 	nop
    3600:	00000000 	nop
    3604:	00000021 	move	zero,zero
    3608:	00000021 	move	zero,zero
    360c:	00000021 	move	zero,zero
    3610:	00000021 	move	zero,zero
    3614:	3c126a27 	lui	s2,0x6a27
    3618:	3652abc6 	ori	s2,s2,0xabc6
    361c:	00000000 	nop
    3620:	3c14a3fa 	lui	s4,0xa3fa
    3624:	369422e6 	ori	s4,s4,0x22e6
    3628:	16141755 	bne	s0,s4,9380 <inst_error>
    362c:	00000000 	nop
    3630:	00000000 	nop
    3634:	3c156a27 	lui	s5,0x6a27
    3638:	36b5abc6 	ori	s5,s5,0xabc6
    363c:	16551750 	bne	s2,s5,9380 <inst_error>
    3640:	00000000 	nop
    3644:	00000000 	nop
    3648:	3c0c2b46 	lui	t4,0x2b46
    364c:	358c2220 	ori	t4,t4,0x2220
    3650:	3c0dcc7f 	lui	t5,0xcc7f
    3654:	35ad8e40 	ori	t5,t5,0x8e40
    3658:	24100000 	li	s0,0
    365c:	10000012 	b	36a8 <n33_blez_test+0x36a8>
    3660:	24120000 	li	s2,0
    3664:	00000000 	nop
    3668:	3c102b46 	lui	s0,0x2b46
    366c:	19000019 	blez	t0,36d4 <n33_blez_test+0x36d4>
    3670:	36102220 	ori	s0,s0,0x2220
    3674:	10000019 	b	36dc <n33_blez_test+0x36dc>
    3678:	00000000 	nop
    367c:	00000000 	nop
    3680:	00000021 	move	zero,zero
    3684:	00000021 	move	zero,zero
    3688:	00000021 	move	zero,zero
    368c:	00000021 	move	zero,zero
    3690:	00000021 	move	zero,zero
    3694:	00000021 	move	zero,zero
    3698:	00000021 	move	zero,zero
    369c:	00000021 	move	zero,zero
    36a0:	00000021 	move	zero,zero
    36a4:	00000021 	move	zero,zero
    36a8:	3c08beaf 	lui	t0,0xbeaf
    36ac:	3508dd2a 	ori	t0,t0,0xdd2a
    36b0:	1900ffed 	blez	t0,3668 <n33_blez_test+0x3668>
    36b4:	00000000 	nop
    36b8:	10000008 	b	36dc <n33_blez_test+0x36dc>
    36bc:	00000000 	nop
    36c0:	00000000 	nop
    36c4:	00000021 	move	zero,zero
    36c8:	00000021 	move	zero,zero
    36cc:	00000021 	move	zero,zero
    36d0:	00000021 	move	zero,zero
    36d4:	3c12cc7f 	lui	s2,0xcc7f
    36d8:	36528e40 	ori	s2,s2,0x8e40
    36dc:	00000000 	nop
    36e0:	3c142b46 	lui	s4,0x2b46
    36e4:	36942220 	ori	s4,s4,0x2220
    36e8:	16141725 	bne	s0,s4,9380 <inst_error>
    36ec:	00000000 	nop
    36f0:	00000000 	nop
    36f4:	3c15cc7f 	lui	s5,0xcc7f
    36f8:	36b58e40 	ori	s5,s5,0x8e40
    36fc:	16551720 	bne	s2,s5,9380 <inst_error>
    3700:	00000000 	nop
    3704:	00000000 	nop
    3708:	3c0c79d3 	lui	t4,0x79d3
    370c:	358c83d4 	ori	t4,t4,0x83d4
    3710:	3c0d27cb 	lui	t5,0x27cb
    3714:	35ad1dfe 	ori	t5,t5,0x1dfe
    3718:	24100000 	li	s0,0
    371c:	10000012 	b	3768 <n33_blez_test+0x3768>
    3720:	24120000 	li	s2,0
    3724:	00000000 	nop
    3728:	3c1079d3 	lui	s0,0x79d3
    372c:	19000019 	blez	t0,3794 <n33_blez_test+0x3794>
    3730:	361083d4 	ori	s0,s0,0x83d4
    3734:	10000019 	b	379c <n33_blez_test+0x379c>
    3738:	00000000 	nop
    373c:	00000000 	nop
    3740:	00000021 	move	zero,zero
    3744:	00000021 	move	zero,zero
    3748:	00000021 	move	zero,zero
    374c:	00000021 	move	zero,zero
    3750:	00000021 	move	zero,zero
    3754:	00000021 	move	zero,zero
    3758:	00000021 	move	zero,zero
    375c:	00000021 	move	zero,zero
    3760:	00000021 	move	zero,zero
    3764:	00000021 	move	zero,zero
    3768:	3c08e595 	lui	t0,0xe595
    376c:	3508a157 	ori	t0,t0,0xa157
    3770:	1900ffed 	blez	t0,3728 <n33_blez_test+0x3728>
    3774:	00000000 	nop
    3778:	10000008 	b	379c <n33_blez_test+0x379c>
    377c:	00000000 	nop
    3780:	00000000 	nop
    3784:	00000021 	move	zero,zero
    3788:	00000021 	move	zero,zero
    378c:	00000021 	move	zero,zero
    3790:	00000021 	move	zero,zero
    3794:	3c1227cb 	lui	s2,0x27cb
    3798:	36521dfe 	ori	s2,s2,0x1dfe
    379c:	00000000 	nop
    37a0:	3c1479d3 	lui	s4,0x79d3
    37a4:	369483d4 	ori	s4,s4,0x83d4
    37a8:	161416f5 	bne	s0,s4,9380 <inst_error>
    37ac:	00000000 	nop
    37b0:	00000000 	nop
    37b4:	3c1527cb 	lui	s5,0x27cb
    37b8:	36b51dfe 	ori	s5,s5,0x1dfe
    37bc:	165516f0 	bne	s2,s5,9380 <inst_error>
    37c0:	00000000 	nop
    37c4:	00000000 	nop
    37c8:	3c0c2e26 	lui	t4,0x2e26
    37cc:	358ccbc8 	ori	t4,t4,0xcbc8
    37d0:	3c0db498 	lui	t5,0xb498
    37d4:	35ad2052 	ori	t5,t5,0x2052
    37d8:	24100000 	li	s0,0
    37dc:	10000012 	b	3828 <n33_blez_test+0x3828>
    37e0:	24120000 	li	s2,0
    37e4:	00000000 	nop
    37e8:	3c102e26 	lui	s0,0x2e26
    37ec:	19000019 	blez	t0,3854 <n33_blez_test+0x3854>
    37f0:	3610cbc8 	ori	s0,s0,0xcbc8
    37f4:	10000019 	b	385c <n33_blez_test+0x385c>
    37f8:	00000000 	nop
    37fc:	00000000 	nop
    3800:	00000021 	move	zero,zero
    3804:	00000021 	move	zero,zero
    3808:	00000021 	move	zero,zero
    380c:	00000021 	move	zero,zero
    3810:	00000021 	move	zero,zero
    3814:	00000021 	move	zero,zero
    3818:	00000021 	move	zero,zero
    381c:	00000021 	move	zero,zero
    3820:	00000021 	move	zero,zero
    3824:	00000021 	move	zero,zero
    3828:	3c081a12 	lui	t0,0x1a12
    382c:	3508957a 	ori	t0,t0,0x957a
    3830:	1900ffed 	blez	t0,37e8 <n33_blez_test+0x37e8>
    3834:	00000000 	nop
    3838:	10000008 	b	385c <n33_blez_test+0x385c>
    383c:	00000000 	nop
    3840:	00000000 	nop
    3844:	00000021 	move	zero,zero
    3848:	00000021 	move	zero,zero
    384c:	00000021 	move	zero,zero
    3850:	00000021 	move	zero,zero
    3854:	3c12b498 	lui	s2,0xb498
    3858:	36522052 	ori	s2,s2,0x2052
    385c:	00000000 	nop
    3860:	24140000 	li	s4,0
    3864:	161416c6 	bne	s0,s4,9380 <inst_error>
    3868:	00000000 	nop
    386c:	00000000 	nop
    3870:	24150000 	li	s5,0
    3874:	165516c2 	bne	s2,s5,9380 <inst_error>
    3878:	00000000 	nop
    387c:	00000000 	nop
    3880:	3c0c9be9 	lui	t4,0x9be9
    3884:	358ca801 	ori	t4,t4,0xa801
    3888:	3c0dc089 	lui	t5,0xc089
    388c:	35ad3889 	ori	t5,t5,0x3889
    3890:	24100000 	li	s0,0
    3894:	10000012 	b	38e0 <n33_blez_test+0x38e0>
    3898:	24120000 	li	s2,0
    389c:	00000000 	nop
    38a0:	3c109be9 	lui	s0,0x9be9
    38a4:	19000019 	blez	t0,390c <n33_blez_test+0x390c>
    38a8:	3610a801 	ori	s0,s0,0xa801
    38ac:	10000019 	b	3914 <n33_blez_test+0x3914>
    38b0:	00000000 	nop
    38b4:	00000000 	nop
    38b8:	00000021 	move	zero,zero
    38bc:	00000021 	move	zero,zero
    38c0:	00000021 	move	zero,zero
    38c4:	00000021 	move	zero,zero
    38c8:	00000021 	move	zero,zero
    38cc:	00000021 	move	zero,zero
    38d0:	00000021 	move	zero,zero
    38d4:	00000021 	move	zero,zero
    38d8:	00000021 	move	zero,zero
    38dc:	00000021 	move	zero,zero
    38e0:	3c0851fe 	lui	t0,0x51fe
    38e4:	35085cb0 	ori	t0,t0,0x5cb0
    38e8:	1900ffed 	blez	t0,38a0 <n33_blez_test+0x38a0>
    38ec:	00000000 	nop
    38f0:	10000008 	b	3914 <n33_blez_test+0x3914>
    38f4:	00000000 	nop
    38f8:	00000000 	nop
    38fc:	00000021 	move	zero,zero
    3900:	00000021 	move	zero,zero
    3904:	00000021 	move	zero,zero
    3908:	00000021 	move	zero,zero
    390c:	3c12c089 	lui	s2,0xc089
    3910:	36523889 	ori	s2,s2,0x3889
    3914:	00000000 	nop
    3918:	24140000 	li	s4,0
    391c:	16141698 	bne	s0,s4,9380 <inst_error>
    3920:	00000000 	nop
    3924:	00000000 	nop
    3928:	24150000 	li	s5,0
    392c:	16551694 	bne	s2,s5,9380 <inst_error>
    3930:	00000000 	nop
    3934:	00000000 	nop
    3938:	3c0c0e67 	lui	t4,0xe67
    393c:	358c9c00 	ori	t4,t4,0x9c00
    3940:	3c0d8708 	lui	t5,0x8708
    3944:	35ad7ca8 	ori	t5,t5,0x7ca8
    3948:	24100000 	li	s0,0
    394c:	10000012 	b	3998 <n33_blez_test+0x3998>
    3950:	24120000 	li	s2,0
    3954:	00000000 	nop
    3958:	3c100e67 	lui	s0,0xe67
    395c:	19000019 	blez	t0,39c4 <n33_blez_test+0x39c4>
    3960:	36109c00 	ori	s0,s0,0x9c00
    3964:	10000019 	b	39cc <n33_blez_test+0x39cc>
    3968:	00000000 	nop
    396c:	00000000 	nop
    3970:	00000021 	move	zero,zero
    3974:	00000021 	move	zero,zero
    3978:	00000021 	move	zero,zero
    397c:	00000021 	move	zero,zero
    3980:	00000021 	move	zero,zero
    3984:	00000021 	move	zero,zero
    3988:	00000021 	move	zero,zero
    398c:	00000021 	move	zero,zero
    3990:	00000021 	move	zero,zero
    3994:	00000021 	move	zero,zero
    3998:	3c08c89a 	lui	t0,0xc89a
    399c:	35083f80 	ori	t0,t0,0x3f80
    39a0:	1900ffed 	blez	t0,3958 <n33_blez_test+0x3958>
    39a4:	00000000 	nop
    39a8:	10000008 	b	39cc <n33_blez_test+0x39cc>
    39ac:	00000000 	nop
    39b0:	00000000 	nop
    39b4:	00000021 	move	zero,zero
    39b8:	00000021 	move	zero,zero
    39bc:	00000021 	move	zero,zero
    39c0:	00000021 	move	zero,zero
    39c4:	3c128708 	lui	s2,0x8708
    39c8:	36527ca8 	ori	s2,s2,0x7ca8
    39cc:	00000000 	nop
    39d0:	3c140e67 	lui	s4,0xe67
    39d4:	36949c00 	ori	s4,s4,0x9c00
    39d8:	16141669 	bne	s0,s4,9380 <inst_error>
    39dc:	00000000 	nop
    39e0:	00000000 	nop
    39e4:	3c158708 	lui	s5,0x8708
    39e8:	36b57ca8 	ori	s5,s5,0x7ca8
    39ec:	16551664 	bne	s2,s5,9380 <inst_error>
    39f0:	00000000 	nop
    39f4:	00000000 	nop
    39f8:	3c0cde42 	lui	t4,0xde42
    39fc:	358ce4dc 	ori	t4,t4,0xe4dc
    3a00:	3c0dffa0 	lui	t5,0xffa0
    3a04:	35ad8270 	ori	t5,t5,0x8270
    3a08:	24100000 	li	s0,0
    3a0c:	10000012 	b	3a58 <n33_blez_test+0x3a58>
    3a10:	24120000 	li	s2,0
    3a14:	00000000 	nop
    3a18:	3c10de42 	lui	s0,0xde42
    3a1c:	19000019 	blez	t0,3a84 <n33_blez_test+0x3a84>
    3a20:	3610e4dc 	ori	s0,s0,0xe4dc
    3a24:	10000019 	b	3a8c <n33_blez_test+0x3a8c>
    3a28:	00000000 	nop
    3a2c:	00000000 	nop
    3a30:	00000021 	move	zero,zero
    3a34:	00000021 	move	zero,zero
    3a38:	00000021 	move	zero,zero
    3a3c:	00000021 	move	zero,zero
    3a40:	00000021 	move	zero,zero
    3a44:	00000021 	move	zero,zero
    3a48:	00000021 	move	zero,zero
    3a4c:	00000021 	move	zero,zero
    3a50:	00000021 	move	zero,zero
    3a54:	00000021 	move	zero,zero
    3a58:	3c089e99 	lui	t0,0x9e99
    3a5c:	35088ff0 	ori	t0,t0,0x8ff0
    3a60:	1900ffed 	blez	t0,3a18 <n33_blez_test+0x3a18>
    3a64:	00000000 	nop
    3a68:	10000008 	b	3a8c <n33_blez_test+0x3a8c>
    3a6c:	00000000 	nop
    3a70:	00000000 	nop
    3a74:	00000021 	move	zero,zero
    3a78:	00000021 	move	zero,zero
    3a7c:	00000021 	move	zero,zero
    3a80:	00000021 	move	zero,zero
    3a84:	3c12ffa0 	lui	s2,0xffa0
    3a88:	36528270 	ori	s2,s2,0x8270
    3a8c:	00000000 	nop
    3a90:	3c14de42 	lui	s4,0xde42
    3a94:	3694e4dc 	ori	s4,s4,0xe4dc
    3a98:	16141639 	bne	s0,s4,9380 <inst_error>
    3a9c:	00000000 	nop
    3aa0:	00000000 	nop
    3aa4:	3c15ffa0 	lui	s5,0xffa0
    3aa8:	36b58270 	ori	s5,s5,0x8270
    3aac:	16551634 	bne	s2,s5,9380 <inst_error>
    3ab0:	00000000 	nop
    3ab4:	00000000 	nop
    3ab8:	3c0cc3e4 	lui	t4,0xc3e4
    3abc:	358ccf24 	ori	t4,t4,0xcf24
    3ac0:	3c0d78d8 	lui	t5,0x78d8
    3ac4:	35ada4f0 	ori	t5,t5,0xa4f0
    3ac8:	24100000 	li	s0,0
    3acc:	10000012 	b	3b18 <n33_blez_test+0x3b18>
    3ad0:	24120000 	li	s2,0
    3ad4:	00000000 	nop
    3ad8:	3c10c3e4 	lui	s0,0xc3e4
    3adc:	19000019 	blez	t0,3b44 <n33_blez_test+0x3b44>
    3ae0:	3610cf24 	ori	s0,s0,0xcf24
    3ae4:	10000019 	b	3b4c <n33_blez_test+0x3b4c>
    3ae8:	00000000 	nop
    3aec:	00000000 	nop
    3af0:	00000021 	move	zero,zero
    3af4:	00000021 	move	zero,zero
    3af8:	00000021 	move	zero,zero
    3afc:	00000021 	move	zero,zero
    3b00:	00000021 	move	zero,zero
    3b04:	00000021 	move	zero,zero
    3b08:	00000021 	move	zero,zero
    3b0c:	00000021 	move	zero,zero
    3b10:	00000021 	move	zero,zero
    3b14:	00000021 	move	zero,zero
    3b18:	3c089be1 	lui	t0,0x9be1
    3b1c:	3508f200 	ori	t0,t0,0xf200
    3b20:	1900ffed 	blez	t0,3ad8 <n33_blez_test+0x3ad8>
    3b24:	00000000 	nop
    3b28:	10000008 	b	3b4c <n33_blez_test+0x3b4c>
    3b2c:	00000000 	nop
    3b30:	00000000 	nop
    3b34:	00000021 	move	zero,zero
    3b38:	00000021 	move	zero,zero
    3b3c:	00000021 	move	zero,zero
    3b40:	00000021 	move	zero,zero
    3b44:	3c1278d8 	lui	s2,0x78d8
    3b48:	3652a4f0 	ori	s2,s2,0xa4f0
    3b4c:	00000000 	nop
    3b50:	3c14c3e4 	lui	s4,0xc3e4
    3b54:	3694cf24 	ori	s4,s4,0xcf24
    3b58:	16141609 	bne	s0,s4,9380 <inst_error>
    3b5c:	00000000 	nop
    3b60:	00000000 	nop
    3b64:	3c1578d8 	lui	s5,0x78d8
    3b68:	36b5a4f0 	ori	s5,s5,0xa4f0
    3b6c:	16551604 	bne	s2,s5,9380 <inst_error>
    3b70:	00000000 	nop
    3b74:	00000000 	nop
    3b78:	3c0c3d11 	lui	t4,0x3d11
    3b7c:	358c00a0 	ori	t4,t4,0xa0
    3b80:	3c0dfd4d 	lui	t5,0xfd4d
    3b84:	35adfbaa 	ori	t5,t5,0xfbaa
    3b88:	24100000 	li	s0,0
    3b8c:	10000012 	b	3bd8 <n33_blez_test+0x3bd8>
    3b90:	24120000 	li	s2,0
    3b94:	00000000 	nop
    3b98:	3c103d11 	lui	s0,0x3d11
    3b9c:	19000019 	blez	t0,3c04 <n33_blez_test+0x3c04>
    3ba0:	361000a0 	ori	s0,s0,0xa0
    3ba4:	10000019 	b	3c0c <n33_blez_test+0x3c0c>
    3ba8:	00000000 	nop
    3bac:	00000000 	nop
    3bb0:	00000021 	move	zero,zero
    3bb4:	00000021 	move	zero,zero
    3bb8:	00000021 	move	zero,zero
    3bbc:	00000021 	move	zero,zero
    3bc0:	00000021 	move	zero,zero
    3bc4:	00000021 	move	zero,zero
    3bc8:	00000021 	move	zero,zero
    3bcc:	00000021 	move	zero,zero
    3bd0:	00000021 	move	zero,zero
    3bd4:	00000021 	move	zero,zero
    3bd8:	3c0849a6 	lui	t0,0x49a6
    3bdc:	350824a4 	ori	t0,t0,0x24a4
    3be0:	1900ffed 	blez	t0,3b98 <n33_blez_test+0x3b98>
    3be4:	00000000 	nop
    3be8:	10000008 	b	3c0c <n33_blez_test+0x3c0c>
    3bec:	00000000 	nop
    3bf0:	00000000 	nop
    3bf4:	00000021 	move	zero,zero
    3bf8:	00000021 	move	zero,zero
    3bfc:	00000021 	move	zero,zero
    3c00:	00000021 	move	zero,zero
    3c04:	3c12fd4d 	lui	s2,0xfd4d
    3c08:	3652fbaa 	ori	s2,s2,0xfbaa
    3c0c:	00000000 	nop
    3c10:	24140000 	li	s4,0
    3c14:	161415da 	bne	s0,s4,9380 <inst_error>
    3c18:	00000000 	nop
    3c1c:	00000000 	nop
    3c20:	24150000 	li	s5,0
    3c24:	165515d6 	bne	s2,s5,9380 <inst_error>
    3c28:	00000000 	nop
    3c2c:	00000000 	nop
    3c30:	3c0c8182 	lui	t4,0x8182
    3c34:	358c77d7 	ori	t4,t4,0x77d7
    3c38:	3c0d96d4 	lui	t5,0x96d4
    3c3c:	35ad2172 	ori	t5,t5,0x2172
    3c40:	24100000 	li	s0,0
    3c44:	10000012 	b	3c90 <n33_blez_test+0x3c90>
    3c48:	24120000 	li	s2,0
    3c4c:	00000000 	nop
    3c50:	3c108182 	lui	s0,0x8182
    3c54:	19000019 	blez	t0,3cbc <n33_blez_test+0x3cbc>
    3c58:	361077d7 	ori	s0,s0,0x77d7
    3c5c:	10000019 	b	3cc4 <n33_blez_test+0x3cc4>
    3c60:	00000000 	nop
    3c64:	00000000 	nop
    3c68:	00000021 	move	zero,zero
    3c6c:	00000021 	move	zero,zero
    3c70:	00000021 	move	zero,zero
    3c74:	00000021 	move	zero,zero
    3c78:	00000021 	move	zero,zero
    3c7c:	00000021 	move	zero,zero
    3c80:	00000021 	move	zero,zero
    3c84:	00000021 	move	zero,zero
    3c88:	00000021 	move	zero,zero
    3c8c:	00000021 	move	zero,zero
    3c90:	3c080d5b 	lui	t0,0xd5b
    3c94:	35085fc4 	ori	t0,t0,0x5fc4
    3c98:	1900ffed 	blez	t0,3c50 <n33_blez_test+0x3c50>
    3c9c:	00000000 	nop
    3ca0:	10000008 	b	3cc4 <n33_blez_test+0x3cc4>
    3ca4:	00000000 	nop
    3ca8:	00000000 	nop
    3cac:	00000021 	move	zero,zero
    3cb0:	00000021 	move	zero,zero
    3cb4:	00000021 	move	zero,zero
    3cb8:	00000021 	move	zero,zero
    3cbc:	3c1296d4 	lui	s2,0x96d4
    3cc0:	36522172 	ori	s2,s2,0x2172
    3cc4:	00000000 	nop
    3cc8:	24140000 	li	s4,0
    3ccc:	161415ac 	bne	s0,s4,9380 <inst_error>
    3cd0:	00000000 	nop
    3cd4:	00000000 	nop
    3cd8:	24150000 	li	s5,0
    3cdc:	165515a8 	bne	s2,s5,9380 <inst_error>
    3ce0:	00000000 	nop
    3ce4:	00000000 	nop
    3ce8:	3c0c2e6c 	lui	t4,0x2e6c
    3cec:	358c244c 	ori	t4,t4,0x244c
    3cf0:	3c0d9f5f 	lui	t5,0x9f5f
    3cf4:	35ad1880 	ori	t5,t5,0x1880
    3cf8:	24100000 	li	s0,0
    3cfc:	10000012 	b	3d48 <n33_blez_test+0x3d48>
    3d00:	24120000 	li	s2,0
    3d04:	00000000 	nop
    3d08:	3c102e6c 	lui	s0,0x2e6c
    3d0c:	19000019 	blez	t0,3d74 <n33_blez_test+0x3d74>
    3d10:	3610244c 	ori	s0,s0,0x244c
    3d14:	10000019 	b	3d7c <n33_blez_test+0x3d7c>
    3d18:	00000000 	nop
    3d1c:	00000000 	nop
    3d20:	00000021 	move	zero,zero
    3d24:	00000021 	move	zero,zero
    3d28:	00000021 	move	zero,zero
    3d2c:	00000021 	move	zero,zero
    3d30:	00000021 	move	zero,zero
    3d34:	00000021 	move	zero,zero
    3d38:	00000021 	move	zero,zero
    3d3c:	00000021 	move	zero,zero
    3d40:	00000021 	move	zero,zero
    3d44:	00000021 	move	zero,zero
    3d48:	3c08fdcf 	lui	t0,0xfdcf
    3d4c:	35084418 	ori	t0,t0,0x4418
    3d50:	1900ffed 	blez	t0,3d08 <n33_blez_test+0x3d08>
    3d54:	00000000 	nop
    3d58:	10000008 	b	3d7c <n33_blez_test+0x3d7c>
    3d5c:	00000000 	nop
    3d60:	00000000 	nop
    3d64:	00000021 	move	zero,zero
    3d68:	00000021 	move	zero,zero
    3d6c:	00000021 	move	zero,zero
    3d70:	00000021 	move	zero,zero
    3d74:	3c129f5f 	lui	s2,0x9f5f
    3d78:	36521880 	ori	s2,s2,0x1880
    3d7c:	00000000 	nop
    3d80:	3c142e6c 	lui	s4,0x2e6c
    3d84:	3694244c 	ori	s4,s4,0x244c
    3d88:	1614157d 	bne	s0,s4,9380 <inst_error>
    3d8c:	00000000 	nop
    3d90:	00000000 	nop
    3d94:	3c159f5f 	lui	s5,0x9f5f
    3d98:	36b51880 	ori	s5,s5,0x1880
    3d9c:	16551578 	bne	s2,s5,9380 <inst_error>
    3da0:	00000000 	nop
    3da4:	00000000 	nop
    3da8:	3c0c952c 	lui	t4,0x952c
    3dac:	358c1842 	ori	t4,t4,0x1842
    3db0:	3c0d8de5 	lui	t5,0x8de5
    3db4:	35adfb68 	ori	t5,t5,0xfb68
    3db8:	24100000 	li	s0,0
    3dbc:	10000012 	b	3e08 <n33_blez_test+0x3e08>
    3dc0:	24120000 	li	s2,0
    3dc4:	00000000 	nop
    3dc8:	3c10952c 	lui	s0,0x952c
    3dcc:	19000019 	blez	t0,3e34 <n33_blez_test+0x3e34>
    3dd0:	36101842 	ori	s0,s0,0x1842
    3dd4:	10000019 	b	3e3c <n33_blez_test+0x3e3c>
    3dd8:	00000000 	nop
    3ddc:	00000000 	nop
    3de0:	00000021 	move	zero,zero
    3de4:	00000021 	move	zero,zero
    3de8:	00000021 	move	zero,zero
    3dec:	00000021 	move	zero,zero
    3df0:	00000021 	move	zero,zero
    3df4:	00000021 	move	zero,zero
    3df8:	00000021 	move	zero,zero
    3dfc:	00000021 	move	zero,zero
    3e00:	00000021 	move	zero,zero
    3e04:	00000021 	move	zero,zero
    3e08:	3c08b7c0 	lui	t0,0xb7c0
    3e0c:	35089260 	ori	t0,t0,0x9260
    3e10:	1900ffed 	blez	t0,3dc8 <n33_blez_test+0x3dc8>
    3e14:	00000000 	nop
    3e18:	10000008 	b	3e3c <n33_blez_test+0x3e3c>
    3e1c:	00000000 	nop
    3e20:	00000000 	nop
    3e24:	00000021 	move	zero,zero
    3e28:	00000021 	move	zero,zero
    3e2c:	00000021 	move	zero,zero
    3e30:	00000021 	move	zero,zero
    3e34:	3c128de5 	lui	s2,0x8de5
    3e38:	3652fb68 	ori	s2,s2,0xfb68
    3e3c:	00000000 	nop
    3e40:	3c14952c 	lui	s4,0x952c
    3e44:	36941842 	ori	s4,s4,0x1842
    3e48:	1614154d 	bne	s0,s4,9380 <inst_error>
    3e4c:	00000000 	nop
    3e50:	00000000 	nop
    3e54:	3c158de5 	lui	s5,0x8de5
    3e58:	36b5fb68 	ori	s5,s5,0xfb68
    3e5c:	16551548 	bne	s2,s5,9380 <inst_error>
    3e60:	00000000 	nop
    3e64:	00000000 	nop
    3e68:	3c0cc824 	lui	t4,0xc824
    3e6c:	358ca130 	ori	t4,t4,0xa130
    3e70:	3c0d96d2 	lui	t5,0x96d2
    3e74:	35ad4278 	ori	t5,t5,0x4278
    3e78:	24100000 	li	s0,0
    3e7c:	10000012 	b	3ec8 <n33_blez_test+0x3ec8>
    3e80:	24120000 	li	s2,0
    3e84:	00000000 	nop
    3e88:	3c10c824 	lui	s0,0xc824
    3e8c:	19000019 	blez	t0,3ef4 <n33_blez_test+0x3ef4>
    3e90:	3610a130 	ori	s0,s0,0xa130
    3e94:	10000019 	b	3efc <n33_blez_test+0x3efc>
    3e98:	00000000 	nop
    3e9c:	00000000 	nop
    3ea0:	00000021 	move	zero,zero
    3ea4:	00000021 	move	zero,zero
    3ea8:	00000021 	move	zero,zero
    3eac:	00000021 	move	zero,zero
    3eb0:	00000021 	move	zero,zero
    3eb4:	00000021 	move	zero,zero
    3eb8:	00000021 	move	zero,zero
    3ebc:	00000021 	move	zero,zero
    3ec0:	00000021 	move	zero,zero
    3ec4:	00000021 	move	zero,zero
    3ec8:	3c085c96 	lui	t0,0x5c96
    3ecc:	35082200 	ori	t0,t0,0x2200
    3ed0:	1900ffed 	blez	t0,3e88 <n33_blez_test+0x3e88>
    3ed4:	00000000 	nop
    3ed8:	10000008 	b	3efc <n33_blez_test+0x3efc>
    3edc:	00000000 	nop
    3ee0:	00000000 	nop
    3ee4:	00000021 	move	zero,zero
    3ee8:	00000021 	move	zero,zero
    3eec:	00000021 	move	zero,zero
    3ef0:	00000021 	move	zero,zero
    3ef4:	3c1296d2 	lui	s2,0x96d2
    3ef8:	36524278 	ori	s2,s2,0x4278
    3efc:	00000000 	nop
    3f00:	24140000 	li	s4,0
    3f04:	1614151e 	bne	s0,s4,9380 <inst_error>
    3f08:	00000000 	nop
    3f0c:	00000000 	nop
    3f10:	24150000 	li	s5,0
    3f14:	1655151a 	bne	s2,s5,9380 <inst_error>
    3f18:	00000000 	nop
    3f1c:	00000000 	nop
    3f20:	3c0c4a10 	lui	t4,0x4a10
    3f24:	358c8f7e 	ori	t4,t4,0x8f7e
    3f28:	3c0dc62c 	lui	t5,0xc62c
    3f2c:	35ada571 	ori	t5,t5,0xa571
    3f30:	24100000 	li	s0,0
    3f34:	10000012 	b	3f80 <n33_blez_test+0x3f80>
    3f38:	24120000 	li	s2,0
    3f3c:	00000000 	nop
    3f40:	3c104a10 	lui	s0,0x4a10
    3f44:	19000019 	blez	t0,3fac <n33_blez_test+0x3fac>
    3f48:	36108f7e 	ori	s0,s0,0x8f7e
    3f4c:	10000019 	b	3fb4 <n33_blez_test+0x3fb4>
    3f50:	00000000 	nop
    3f54:	00000000 	nop
    3f58:	00000021 	move	zero,zero
    3f5c:	00000021 	move	zero,zero
    3f60:	00000021 	move	zero,zero
    3f64:	00000021 	move	zero,zero
    3f68:	00000021 	move	zero,zero
    3f6c:	00000021 	move	zero,zero
    3f70:	00000021 	move	zero,zero
    3f74:	00000021 	move	zero,zero
    3f78:	00000021 	move	zero,zero
    3f7c:	00000021 	move	zero,zero
    3f80:	3c0815bb 	lui	t0,0x15bb
    3f84:	350813a8 	ori	t0,t0,0x13a8
    3f88:	1900ffed 	blez	t0,3f40 <n33_blez_test+0x3f40>
    3f8c:	00000000 	nop
    3f90:	10000008 	b	3fb4 <n33_blez_test+0x3fb4>
    3f94:	00000000 	nop
    3f98:	00000000 	nop
    3f9c:	00000021 	move	zero,zero
    3fa0:	00000021 	move	zero,zero
    3fa4:	00000021 	move	zero,zero
    3fa8:	00000021 	move	zero,zero
    3fac:	3c12c62c 	lui	s2,0xc62c
    3fb0:	3652a571 	ori	s2,s2,0xa571
    3fb4:	00000000 	nop
    3fb8:	24140000 	li	s4,0
    3fbc:	161414f0 	bne	s0,s4,9380 <inst_error>
    3fc0:	00000000 	nop
    3fc4:	00000000 	nop
    3fc8:	24150000 	li	s5,0
    3fcc:	165514ec 	bne	s2,s5,9380 <inst_error>
    3fd0:	00000000 	nop
    3fd4:	00000000 	nop
    3fd8:	3c0cf114 	lui	t4,0xf114
    3fdc:	358c26c6 	ori	t4,t4,0x26c6
    3fe0:	3c0d51e6 	lui	t5,0x51e6
    3fe4:	35ad261e 	ori	t5,t5,0x261e
    3fe8:	24100000 	li	s0,0
    3fec:	10000012 	b	4038 <n33_blez_test+0x4038>
    3ff0:	24120000 	li	s2,0
    3ff4:	00000000 	nop
    3ff8:	3c10f114 	lui	s0,0xf114
    3ffc:	19000019 	blez	t0,4064 <n33_blez_test+0x4064>
    4000:	361026c6 	ori	s0,s0,0x26c6
    4004:	10000019 	b	406c <n33_blez_test+0x406c>
    4008:	00000000 	nop
    400c:	00000000 	nop
    4010:	00000021 	move	zero,zero
    4014:	00000021 	move	zero,zero
    4018:	00000021 	move	zero,zero
    401c:	00000021 	move	zero,zero
    4020:	00000021 	move	zero,zero
    4024:	00000021 	move	zero,zero
    4028:	00000021 	move	zero,zero
    402c:	00000021 	move	zero,zero
    4030:	00000021 	move	zero,zero
    4034:	00000021 	move	zero,zero
    4038:	3c08c482 	lui	t0,0xc482
    403c:	350872e0 	ori	t0,t0,0x72e0
    4040:	1900ffed 	blez	t0,3ff8 <n33_blez_test+0x3ff8>
    4044:	00000000 	nop
    4048:	10000008 	b	406c <n33_blez_test+0x406c>
    404c:	00000000 	nop
    4050:	00000000 	nop
    4054:	00000021 	move	zero,zero
    4058:	00000021 	move	zero,zero
    405c:	00000021 	move	zero,zero
    4060:	00000021 	move	zero,zero
    4064:	3c1251e6 	lui	s2,0x51e6
    4068:	3652261e 	ori	s2,s2,0x261e
    406c:	00000000 	nop
    4070:	3c14f114 	lui	s4,0xf114
    4074:	369426c6 	ori	s4,s4,0x26c6
    4078:	161414c1 	bne	s0,s4,9380 <inst_error>
    407c:	00000000 	nop
    4080:	00000000 	nop
    4084:	3c1551e6 	lui	s5,0x51e6
    4088:	36b5261e 	ori	s5,s5,0x261e
    408c:	165514bc 	bne	s2,s5,9380 <inst_error>
    4090:	00000000 	nop
    4094:	00000000 	nop
    4098:	3c0c1d3e 	lui	t4,0x1d3e
    409c:	358c5368 	ori	t4,t4,0x5368
    40a0:	3c0d9e44 	lui	t5,0x9e44
    40a4:	35ad5690 	ori	t5,t5,0x5690
    40a8:	24100000 	li	s0,0
    40ac:	10000012 	b	40f8 <n33_blez_test+0x40f8>
    40b0:	24120000 	li	s2,0
    40b4:	00000000 	nop
    40b8:	3c101d3e 	lui	s0,0x1d3e
    40bc:	19000019 	blez	t0,4124 <n33_blez_test+0x4124>
    40c0:	36105368 	ori	s0,s0,0x5368
    40c4:	10000019 	b	412c <n33_blez_test+0x412c>
    40c8:	00000000 	nop
    40cc:	00000000 	nop
    40d0:	00000021 	move	zero,zero
    40d4:	00000021 	move	zero,zero
    40d8:	00000021 	move	zero,zero
    40dc:	00000021 	move	zero,zero
    40e0:	00000021 	move	zero,zero
    40e4:	00000021 	move	zero,zero
    40e8:	00000021 	move	zero,zero
    40ec:	00000021 	move	zero,zero
    40f0:	00000021 	move	zero,zero
    40f4:	00000021 	move	zero,zero
    40f8:	3c080eaf 	lui	t0,0xeaf
    40fc:	3508c4fc 	ori	t0,t0,0xc4fc
    4100:	1900ffed 	blez	t0,40b8 <n33_blez_test+0x40b8>
    4104:	00000000 	nop
    4108:	10000008 	b	412c <n33_blez_test+0x412c>
    410c:	00000000 	nop
    4110:	00000000 	nop
    4114:	00000021 	move	zero,zero
    4118:	00000021 	move	zero,zero
    411c:	00000021 	move	zero,zero
    4120:	00000021 	move	zero,zero
    4124:	3c129e44 	lui	s2,0x9e44
    4128:	36525690 	ori	s2,s2,0x5690
    412c:	00000000 	nop
    4130:	24140000 	li	s4,0
    4134:	16141492 	bne	s0,s4,9380 <inst_error>
    4138:	00000000 	nop
    413c:	00000000 	nop
    4140:	24150000 	li	s5,0
    4144:	1655148e 	bne	s2,s5,9380 <inst_error>
    4148:	00000000 	nop
    414c:	00000000 	nop
    4150:	3c0c8c34 	lui	t4,0x8c34
    4154:	358c482a 	ori	t4,t4,0x482a
    4158:	3c0de163 	lui	t5,0xe163
    415c:	35ad6980 	ori	t5,t5,0x6980
    4160:	24100000 	li	s0,0
    4164:	10000012 	b	41b0 <n33_blez_test+0x41b0>
    4168:	24120000 	li	s2,0
    416c:	00000000 	nop
    4170:	3c108c34 	lui	s0,0x8c34
    4174:	19000019 	blez	t0,41dc <n33_blez_test+0x41dc>
    4178:	3610482a 	ori	s0,s0,0x482a
    417c:	10000019 	b	41e4 <n33_blez_test+0x41e4>
    4180:	00000000 	nop
    4184:	00000000 	nop
    4188:	00000021 	move	zero,zero
    418c:	00000021 	move	zero,zero
    4190:	00000021 	move	zero,zero
    4194:	00000021 	move	zero,zero
    4198:	00000021 	move	zero,zero
    419c:	00000021 	move	zero,zero
    41a0:	00000021 	move	zero,zero
    41a4:	00000021 	move	zero,zero
    41a8:	00000021 	move	zero,zero
    41ac:	00000021 	move	zero,zero
    41b0:	3c0877ce 	lui	t0,0x77ce
    41b4:	3508d790 	ori	t0,t0,0xd790
    41b8:	1900ffed 	blez	t0,4170 <n33_blez_test+0x4170>
    41bc:	00000000 	nop
    41c0:	10000008 	b	41e4 <n33_blez_test+0x41e4>
    41c4:	00000000 	nop
    41c8:	00000000 	nop
    41cc:	00000021 	move	zero,zero
    41d0:	00000021 	move	zero,zero
    41d4:	00000021 	move	zero,zero
    41d8:	00000021 	move	zero,zero
    41dc:	3c12e163 	lui	s2,0xe163
    41e0:	36526980 	ori	s2,s2,0x6980
    41e4:	00000000 	nop
    41e8:	24140000 	li	s4,0
    41ec:	16141464 	bne	s0,s4,9380 <inst_error>
    41f0:	00000000 	nop
    41f4:	00000000 	nop
    41f8:	24150000 	li	s5,0
    41fc:	16551460 	bne	s2,s5,9380 <inst_error>
    4200:	00000000 	nop
    4204:	00000000 	nop
    4208:	3c0c1428 	lui	t4,0x1428
    420c:	358c5356 	ori	t4,t4,0x5356
    4210:	3c0d3158 	lui	t5,0x3158
    4214:	35ad41de 	ori	t5,t5,0x41de
    4218:	24100000 	li	s0,0
    421c:	10000012 	b	4268 <n33_blez_test+0x4268>
    4220:	24120000 	li	s2,0
    4224:	00000000 	nop
    4228:	3c101428 	lui	s0,0x1428
    422c:	19000019 	blez	t0,4294 <n33_blez_test+0x4294>
    4230:	36105356 	ori	s0,s0,0x5356
    4234:	10000019 	b	429c <n33_blez_test+0x429c>
    4238:	00000000 	nop
    423c:	00000000 	nop
    4240:	00000021 	move	zero,zero
    4244:	00000021 	move	zero,zero
    4248:	00000021 	move	zero,zero
    424c:	00000021 	move	zero,zero
    4250:	00000021 	move	zero,zero
    4254:	00000021 	move	zero,zero
    4258:	00000021 	move	zero,zero
    425c:	00000021 	move	zero,zero
    4260:	00000021 	move	zero,zero
    4264:	00000021 	move	zero,zero
    4268:	3c08fcb0 	lui	t0,0xfcb0
    426c:	35084740 	ori	t0,t0,0x4740
    4270:	1900ffed 	blez	t0,4228 <n33_blez_test+0x4228>
    4274:	00000000 	nop
    4278:	10000008 	b	429c <n33_blez_test+0x429c>
    427c:	00000000 	nop
    4280:	00000000 	nop
    4284:	00000021 	move	zero,zero
    4288:	00000021 	move	zero,zero
    428c:	00000021 	move	zero,zero
    4290:	00000021 	move	zero,zero
    4294:	3c123158 	lui	s2,0x3158
    4298:	365241de 	ori	s2,s2,0x41de
    429c:	00000000 	nop
    42a0:	3c141428 	lui	s4,0x1428
    42a4:	36945356 	ori	s4,s4,0x5356
    42a8:	16141435 	bne	s0,s4,9380 <inst_error>
    42ac:	00000000 	nop
    42b0:	00000000 	nop
    42b4:	3c153158 	lui	s5,0x3158
    42b8:	36b541de 	ori	s5,s5,0x41de
    42bc:	16551430 	bne	s2,s5,9380 <inst_error>
    42c0:	00000000 	nop
    42c4:	00000000 	nop
    42c8:	3c0c6d02 	lui	t4,0x6d02
    42cc:	358ca228 	ori	t4,t4,0xa228
    42d0:	3c0dac79 	lui	t5,0xac79
    42d4:	35ad0995 	ori	t5,t5,0x995
    42d8:	24100000 	li	s0,0
    42dc:	10000012 	b	4328 <n33_blez_test+0x4328>
    42e0:	24120000 	li	s2,0
    42e4:	00000000 	nop
    42e8:	3c106d02 	lui	s0,0x6d02
    42ec:	19000019 	blez	t0,4354 <n33_blez_test+0x4354>
    42f0:	3610a228 	ori	s0,s0,0xa228
    42f4:	10000019 	b	435c <n33_blez_test+0x435c>
    42f8:	00000000 	nop
    42fc:	00000000 	nop
    4300:	00000021 	move	zero,zero
    4304:	00000021 	move	zero,zero
    4308:	00000021 	move	zero,zero
    430c:	00000021 	move	zero,zero
    4310:	00000021 	move	zero,zero
    4314:	00000021 	move	zero,zero
    4318:	00000021 	move	zero,zero
    431c:	00000021 	move	zero,zero
    4320:	00000021 	move	zero,zero
    4324:	00000021 	move	zero,zero
    4328:	3c085be2 	lui	t0,0x5be2
    432c:	350815d5 	ori	t0,t0,0x15d5
    4330:	1900ffed 	blez	t0,42e8 <n33_blez_test+0x42e8>
    4334:	00000000 	nop
    4338:	10000008 	b	435c <n33_blez_test+0x435c>
    433c:	00000000 	nop
    4340:	00000000 	nop
    4344:	00000021 	move	zero,zero
    4348:	00000021 	move	zero,zero
    434c:	00000021 	move	zero,zero
    4350:	00000021 	move	zero,zero
    4354:	3c12ac79 	lui	s2,0xac79
    4358:	36520995 	ori	s2,s2,0x995
    435c:	00000000 	nop
    4360:	24140000 	li	s4,0
    4364:	16141406 	bne	s0,s4,9380 <inst_error>
    4368:	00000000 	nop
    436c:	00000000 	nop
    4370:	24150000 	li	s5,0
    4374:	16551402 	bne	s2,s5,9380 <inst_error>
    4378:	00000000 	nop
    437c:	00000000 	nop
    4380:	3c0c1fb3 	lui	t4,0x1fb3
    4384:	358c04a0 	ori	t4,t4,0x4a0
    4388:	3c0dbeb2 	lui	t5,0xbeb2
    438c:	35ad80f4 	ori	t5,t5,0x80f4
    4390:	24100000 	li	s0,0
    4394:	10000012 	b	43e0 <n33_blez_test+0x43e0>
    4398:	24120000 	li	s2,0
    439c:	00000000 	nop
    43a0:	3c101fb3 	lui	s0,0x1fb3
    43a4:	19000019 	blez	t0,440c <n33_blez_test+0x440c>
    43a8:	361004a0 	ori	s0,s0,0x4a0
    43ac:	10000019 	b	4414 <n33_blez_test+0x4414>
    43b0:	00000000 	nop
    43b4:	00000000 	nop
    43b8:	00000021 	move	zero,zero
    43bc:	00000021 	move	zero,zero
    43c0:	00000021 	move	zero,zero
    43c4:	00000021 	move	zero,zero
    43c8:	00000021 	move	zero,zero
    43cc:	00000021 	move	zero,zero
    43d0:	00000021 	move	zero,zero
    43d4:	00000021 	move	zero,zero
    43d8:	00000021 	move	zero,zero
    43dc:	00000021 	move	zero,zero
    43e0:	3c089b7e 	lui	t0,0x9b7e
    43e4:	3508c798 	ori	t0,t0,0xc798
    43e8:	1900ffed 	blez	t0,43a0 <n33_blez_test+0x43a0>
    43ec:	00000000 	nop
    43f0:	10000008 	b	4414 <n33_blez_test+0x4414>
    43f4:	00000000 	nop
    43f8:	00000000 	nop
    43fc:	00000021 	move	zero,zero
    4400:	00000021 	move	zero,zero
    4404:	00000021 	move	zero,zero
    4408:	00000021 	move	zero,zero
    440c:	3c12beb2 	lui	s2,0xbeb2
    4410:	365280f4 	ori	s2,s2,0x80f4
    4414:	00000000 	nop
    4418:	3c141fb3 	lui	s4,0x1fb3
    441c:	369404a0 	ori	s4,s4,0x4a0
    4420:	161413d7 	bne	s0,s4,9380 <inst_error>
    4424:	00000000 	nop
    4428:	00000000 	nop
    442c:	3c15beb2 	lui	s5,0xbeb2
    4430:	36b580f4 	ori	s5,s5,0x80f4
    4434:	165513d2 	bne	s2,s5,9380 <inst_error>
    4438:	00000000 	nop
    443c:	00000000 	nop
    4440:	3c0c3d1d 	lui	t4,0x3d1d
    4444:	358ca630 	ori	t4,t4,0xa630
    4448:	3c0d76c5 	lui	t5,0x76c5
    444c:	35ad95b2 	ori	t5,t5,0x95b2
    4450:	24100000 	li	s0,0
    4454:	10000012 	b	44a0 <n33_blez_test+0x44a0>
    4458:	24120000 	li	s2,0
    445c:	00000000 	nop
    4460:	3c103d1d 	lui	s0,0x3d1d
    4464:	19000019 	blez	t0,44cc <n33_blez_test+0x44cc>
    4468:	3610a630 	ori	s0,s0,0xa630
    446c:	10000019 	b	44d4 <n33_blez_test+0x44d4>
    4470:	00000000 	nop
    4474:	00000000 	nop
    4478:	00000021 	move	zero,zero
    447c:	00000021 	move	zero,zero
    4480:	00000021 	move	zero,zero
    4484:	00000021 	move	zero,zero
    4488:	00000021 	move	zero,zero
    448c:	00000021 	move	zero,zero
    4490:	00000021 	move	zero,zero
    4494:	00000021 	move	zero,zero
    4498:	00000021 	move	zero,zero
    449c:	00000021 	move	zero,zero
    44a0:	3c080563 	lui	t0,0x563
    44a4:	3508cc5c 	ori	t0,t0,0xcc5c
    44a8:	1900ffed 	blez	t0,4460 <n33_blez_test+0x4460>
    44ac:	00000000 	nop
    44b0:	10000008 	b	44d4 <n33_blez_test+0x44d4>
    44b4:	00000000 	nop
    44b8:	00000000 	nop
    44bc:	00000021 	move	zero,zero
    44c0:	00000021 	move	zero,zero
    44c4:	00000021 	move	zero,zero
    44c8:	00000021 	move	zero,zero
    44cc:	3c1276c5 	lui	s2,0x76c5
    44d0:	365295b2 	ori	s2,s2,0x95b2
    44d4:	00000000 	nop
    44d8:	24140000 	li	s4,0
    44dc:	161413a8 	bne	s0,s4,9380 <inst_error>
    44e0:	00000000 	nop
    44e4:	00000000 	nop
    44e8:	24150000 	li	s5,0
    44ec:	165513a4 	bne	s2,s5,9380 <inst_error>
    44f0:	00000000 	nop
    44f4:	00000000 	nop
    44f8:	3c0c9317 	lui	t4,0x9317
    44fc:	358c9354 	ori	t4,t4,0x9354
    4500:	3c0daf9a 	lui	t5,0xaf9a
    4504:	35add73c 	ori	t5,t5,0xd73c
    4508:	24100000 	li	s0,0
    450c:	10000012 	b	4558 <n33_blez_test+0x4558>
    4510:	24120000 	li	s2,0
    4514:	00000000 	nop
    4518:	3c109317 	lui	s0,0x9317
    451c:	19000019 	blez	t0,4584 <n33_blez_test+0x4584>
    4520:	36109354 	ori	s0,s0,0x9354
    4524:	10000019 	b	458c <n33_blez_test+0x458c>
    4528:	00000000 	nop
    452c:	00000000 	nop
    4530:	00000021 	move	zero,zero
    4534:	00000021 	move	zero,zero
    4538:	00000021 	move	zero,zero
    453c:	00000021 	move	zero,zero
    4540:	00000021 	move	zero,zero
    4544:	00000021 	move	zero,zero
    4548:	00000021 	move	zero,zero
    454c:	00000021 	move	zero,zero
    4550:	00000021 	move	zero,zero
    4554:	00000021 	move	zero,zero
    4558:	3c084aeb 	lui	t0,0x4aeb
    455c:	35082cb0 	ori	t0,t0,0x2cb0
    4560:	1900ffed 	blez	t0,4518 <n33_blez_test+0x4518>
    4564:	00000000 	nop
    4568:	10000008 	b	458c <n33_blez_test+0x458c>
    456c:	00000000 	nop
    4570:	00000000 	nop
    4574:	00000021 	move	zero,zero
    4578:	00000021 	move	zero,zero
    457c:	00000021 	move	zero,zero
    4580:	00000021 	move	zero,zero
    4584:	3c12af9a 	lui	s2,0xaf9a
    4588:	3652d73c 	ori	s2,s2,0xd73c
    458c:	00000000 	nop
    4590:	24140000 	li	s4,0
    4594:	1614137a 	bne	s0,s4,9380 <inst_error>
    4598:	00000000 	nop
    459c:	00000000 	nop
    45a0:	24150000 	li	s5,0
    45a4:	16551376 	bne	s2,s5,9380 <inst_error>
    45a8:	00000000 	nop
    45ac:	00000000 	nop
    45b0:	3c0cb3e9 	lui	t4,0xb3e9
    45b4:	358cd820 	ori	t4,t4,0xd820
    45b8:	3c0d786d 	lui	t5,0x786d
    45bc:	35addb38 	ori	t5,t5,0xdb38
    45c0:	24100000 	li	s0,0
    45c4:	10000012 	b	4610 <n33_blez_test+0x4610>
    45c8:	24120000 	li	s2,0
    45cc:	00000000 	nop
    45d0:	3c10b3e9 	lui	s0,0xb3e9
    45d4:	19000019 	blez	t0,463c <n33_blez_test+0x463c>
    45d8:	3610d820 	ori	s0,s0,0xd820
    45dc:	10000019 	b	4644 <n33_blez_test+0x4644>
    45e0:	00000000 	nop
    45e4:	00000000 	nop
    45e8:	00000021 	move	zero,zero
    45ec:	00000021 	move	zero,zero
    45f0:	00000021 	move	zero,zero
    45f4:	00000021 	move	zero,zero
    45f8:	00000021 	move	zero,zero
    45fc:	00000021 	move	zero,zero
    4600:	00000021 	move	zero,zero
    4604:	00000021 	move	zero,zero
    4608:	00000021 	move	zero,zero
    460c:	00000021 	move	zero,zero
    4610:	3c087cef 	lui	t0,0x7cef
    4614:	35084170 	ori	t0,t0,0x4170
    4618:	1900ffed 	blez	t0,45d0 <n33_blez_test+0x45d0>
    461c:	00000000 	nop
    4620:	10000008 	b	4644 <n33_blez_test+0x4644>
    4624:	00000000 	nop
    4628:	00000000 	nop
    462c:	00000021 	move	zero,zero
    4630:	00000021 	move	zero,zero
    4634:	00000021 	move	zero,zero
    4638:	00000021 	move	zero,zero
    463c:	3c12786d 	lui	s2,0x786d
    4640:	3652db38 	ori	s2,s2,0xdb38
    4644:	00000000 	nop
    4648:	24140000 	li	s4,0
    464c:	1614134c 	bne	s0,s4,9380 <inst_error>
    4650:	00000000 	nop
    4654:	00000000 	nop
    4658:	24150000 	li	s5,0
    465c:	16551348 	bne	s2,s5,9380 <inst_error>
    4660:	00000000 	nop
    4664:	00000000 	nop
    4668:	3c0c34f9 	lui	t4,0x34f9
    466c:	358c80ac 	ori	t4,t4,0x80ac
    4670:	3c0de047 	lui	t5,0xe047
    4674:	35ad87c0 	ori	t5,t5,0x87c0
    4678:	24100000 	li	s0,0
    467c:	10000012 	b	46c8 <n33_blez_test+0x46c8>
    4680:	24120000 	li	s2,0
    4684:	00000000 	nop
    4688:	3c1034f9 	lui	s0,0x34f9
    468c:	19000019 	blez	t0,46f4 <n33_blez_test+0x46f4>
    4690:	361080ac 	ori	s0,s0,0x80ac
    4694:	10000019 	b	46fc <n33_blez_test+0x46fc>
    4698:	00000000 	nop
    469c:	00000000 	nop
    46a0:	00000021 	move	zero,zero
    46a4:	00000021 	move	zero,zero
    46a8:	00000021 	move	zero,zero
    46ac:	00000021 	move	zero,zero
    46b0:	00000021 	move	zero,zero
    46b4:	00000021 	move	zero,zero
    46b8:	00000021 	move	zero,zero
    46bc:	00000021 	move	zero,zero
    46c0:	00000021 	move	zero,zero
    46c4:	00000021 	move	zero,zero
    46c8:	3c081b8c 	lui	t0,0x1b8c
    46cc:	3508c576 	ori	t0,t0,0xc576
    46d0:	1900ffed 	blez	t0,4688 <n33_blez_test+0x4688>
    46d4:	00000000 	nop
    46d8:	10000008 	b	46fc <n33_blez_test+0x46fc>
    46dc:	00000000 	nop
    46e0:	00000000 	nop
    46e4:	00000021 	move	zero,zero
    46e8:	00000021 	move	zero,zero
    46ec:	00000021 	move	zero,zero
    46f0:	00000021 	move	zero,zero
    46f4:	3c12e047 	lui	s2,0xe047
    46f8:	365287c0 	ori	s2,s2,0x87c0
    46fc:	00000000 	nop
    4700:	24140000 	li	s4,0
    4704:	1614131e 	bne	s0,s4,9380 <inst_error>
    4708:	00000000 	nop
    470c:	00000000 	nop
    4710:	24150000 	li	s5,0
    4714:	1655131a 	bne	s2,s5,9380 <inst_error>
    4718:	00000000 	nop
    471c:	00000000 	nop
    4720:	3c0c24c7 	lui	t4,0x24c7
    4724:	358c6233 	ori	t4,t4,0x6233
    4728:	3c0da4c0 	lui	t5,0xa4c0
    472c:	35ad6ad8 	ori	t5,t5,0x6ad8
    4730:	24100000 	li	s0,0
    4734:	10000012 	b	4780 <n33_blez_test+0x4780>
    4738:	24120000 	li	s2,0
    473c:	00000000 	nop
    4740:	3c1024c7 	lui	s0,0x24c7
    4744:	19000019 	blez	t0,47ac <n33_blez_test+0x47ac>
    4748:	36106233 	ori	s0,s0,0x6233
    474c:	10000019 	b	47b4 <n33_blez_test+0x47b4>
    4750:	00000000 	nop
    4754:	00000000 	nop
    4758:	00000021 	move	zero,zero
    475c:	00000021 	move	zero,zero
    4760:	00000021 	move	zero,zero
    4764:	00000021 	move	zero,zero
    4768:	00000021 	move	zero,zero
    476c:	00000021 	move	zero,zero
    4770:	00000021 	move	zero,zero
    4774:	00000021 	move	zero,zero
    4778:	00000021 	move	zero,zero
    477c:	00000021 	move	zero,zero
    4780:	3c08f0ad 	lui	t0,0xf0ad
    4784:	350869c4 	ori	t0,t0,0x69c4
    4788:	1900ffed 	blez	t0,4740 <n33_blez_test+0x4740>
    478c:	00000000 	nop
    4790:	10000008 	b	47b4 <n33_blez_test+0x47b4>
    4794:	00000000 	nop
    4798:	00000000 	nop
    479c:	00000021 	move	zero,zero
    47a0:	00000021 	move	zero,zero
    47a4:	00000021 	move	zero,zero
    47a8:	00000021 	move	zero,zero
    47ac:	3c12a4c0 	lui	s2,0xa4c0
    47b0:	36526ad8 	ori	s2,s2,0x6ad8
    47b4:	00000000 	nop
    47b8:	3c1424c7 	lui	s4,0x24c7
    47bc:	36946233 	ori	s4,s4,0x6233
    47c0:	161412ef 	bne	s0,s4,9380 <inst_error>
    47c4:	00000000 	nop
    47c8:	00000000 	nop
    47cc:	3c15a4c0 	lui	s5,0xa4c0
    47d0:	36b56ad8 	ori	s5,s5,0x6ad8
    47d4:	165512ea 	bne	s2,s5,9380 <inst_error>
    47d8:	00000000 	nop
    47dc:	00000000 	nop
    47e0:	3c0c696e 	lui	t4,0x696e
    47e4:	358cf32e 	ori	t4,t4,0xf32e
    47e8:	3c0d040b 	lui	t5,0x40b
    47ec:	35ad5bf5 	ori	t5,t5,0x5bf5
    47f0:	24100000 	li	s0,0
    47f4:	10000012 	b	4840 <n33_blez_test+0x4840>
    47f8:	24120000 	li	s2,0
    47fc:	00000000 	nop
    4800:	3c10696e 	lui	s0,0x696e
    4804:	19000019 	blez	t0,486c <n33_blez_test+0x486c>
    4808:	3610f32e 	ori	s0,s0,0xf32e
    480c:	10000019 	b	4874 <n33_blez_test+0x4874>
    4810:	00000000 	nop
    4814:	00000000 	nop
    4818:	00000021 	move	zero,zero
    481c:	00000021 	move	zero,zero
    4820:	00000021 	move	zero,zero
    4824:	00000021 	move	zero,zero
    4828:	00000021 	move	zero,zero
    482c:	00000021 	move	zero,zero
    4830:	00000021 	move	zero,zero
    4834:	00000021 	move	zero,zero
    4838:	00000021 	move	zero,zero
    483c:	00000021 	move	zero,zero
    4840:	3c08275b 	lui	t0,0x275b
    4844:	35085e48 	ori	t0,t0,0x5e48
    4848:	1900ffed 	blez	t0,4800 <n33_blez_test+0x4800>
    484c:	00000000 	nop
    4850:	10000008 	b	4874 <n33_blez_test+0x4874>
    4854:	00000000 	nop
    4858:	00000000 	nop
    485c:	00000021 	move	zero,zero
    4860:	00000021 	move	zero,zero
    4864:	00000021 	move	zero,zero
    4868:	00000021 	move	zero,zero
    486c:	3c12040b 	lui	s2,0x40b
    4870:	36525bf5 	ori	s2,s2,0x5bf5
    4874:	00000000 	nop
    4878:	24140000 	li	s4,0
    487c:	161412c0 	bne	s0,s4,9380 <inst_error>
    4880:	00000000 	nop
    4884:	00000000 	nop
    4888:	24150000 	li	s5,0
    488c:	165512bc 	bne	s2,s5,9380 <inst_error>
    4890:	00000000 	nop
    4894:	00000000 	nop
    4898:	3c0c59c4 	lui	t4,0x59c4
    489c:	358c05e8 	ori	t4,t4,0x5e8
    48a0:	3c0dab48 	lui	t5,0xab48
    48a4:	35ad3c80 	ori	t5,t5,0x3c80
    48a8:	24100000 	li	s0,0
    48ac:	10000012 	b	48f8 <n33_blez_test+0x48f8>
    48b0:	24120000 	li	s2,0
    48b4:	00000000 	nop
    48b8:	3c1059c4 	lui	s0,0x59c4
    48bc:	19000019 	blez	t0,4924 <n33_blez_test+0x4924>
    48c0:	361005e8 	ori	s0,s0,0x5e8
    48c4:	10000019 	b	492c <n33_blez_test+0x492c>
    48c8:	00000000 	nop
    48cc:	00000000 	nop
    48d0:	00000021 	move	zero,zero
    48d4:	00000021 	move	zero,zero
    48d8:	00000021 	move	zero,zero
    48dc:	00000021 	move	zero,zero
    48e0:	00000021 	move	zero,zero
    48e4:	00000021 	move	zero,zero
    48e8:	00000021 	move	zero,zero
    48ec:	00000021 	move	zero,zero
    48f0:	00000021 	move	zero,zero
    48f4:	00000021 	move	zero,zero
    48f8:	3c087577 	lui	t0,0x7577
    48fc:	35083b3f 	ori	t0,t0,0x3b3f
    4900:	1900ffed 	blez	t0,48b8 <n33_blez_test+0x48b8>
    4904:	00000000 	nop
    4908:	10000008 	b	492c <n33_blez_test+0x492c>
    490c:	00000000 	nop
    4910:	00000000 	nop
    4914:	00000021 	move	zero,zero
    4918:	00000021 	move	zero,zero
    491c:	00000021 	move	zero,zero
    4920:	00000021 	move	zero,zero
    4924:	3c12ab48 	lui	s2,0xab48
    4928:	36523c80 	ori	s2,s2,0x3c80
    492c:	00000000 	nop
    4930:	24140000 	li	s4,0
    4934:	16141292 	bne	s0,s4,9380 <inst_error>
    4938:	00000000 	nop
    493c:	00000000 	nop
    4940:	24150000 	li	s5,0
    4944:	1655128e 	bne	s2,s5,9380 <inst_error>
    4948:	00000000 	nop
    494c:	00000000 	nop
    4950:	3c0c1e86 	lui	t4,0x1e86
    4954:	358c071b 	ori	t4,t4,0x71b
    4958:	3c0dd097 	lui	t5,0xd097
    495c:	35add70c 	ori	t5,t5,0xd70c
    4960:	24100000 	li	s0,0
    4964:	10000012 	b	49b0 <n33_blez_test+0x49b0>
    4968:	24120000 	li	s2,0
    496c:	00000000 	nop
    4970:	3c101e86 	lui	s0,0x1e86
    4974:	19000019 	blez	t0,49dc <n33_blez_test+0x49dc>
    4978:	3610071b 	ori	s0,s0,0x71b
    497c:	10000019 	b	49e4 <n33_blez_test+0x49e4>
    4980:	00000000 	nop
    4984:	00000000 	nop
    4988:	00000021 	move	zero,zero
    498c:	00000021 	move	zero,zero
    4990:	00000021 	move	zero,zero
    4994:	00000021 	move	zero,zero
    4998:	00000021 	move	zero,zero
    499c:	00000021 	move	zero,zero
    49a0:	00000021 	move	zero,zero
    49a4:	00000021 	move	zero,zero
    49a8:	00000021 	move	zero,zero
    49ac:	00000021 	move	zero,zero
    49b0:	3c08dabd 	lui	t0,0xdabd
    49b4:	35086b80 	ori	t0,t0,0x6b80
    49b8:	1900ffed 	blez	t0,4970 <n33_blez_test+0x4970>
    49bc:	00000000 	nop
    49c0:	10000008 	b	49e4 <n33_blez_test+0x49e4>
    49c4:	00000000 	nop
    49c8:	00000000 	nop
    49cc:	00000021 	move	zero,zero
    49d0:	00000021 	move	zero,zero
    49d4:	00000021 	move	zero,zero
    49d8:	00000021 	move	zero,zero
    49dc:	3c12d097 	lui	s2,0xd097
    49e0:	3652d70c 	ori	s2,s2,0xd70c
    49e4:	00000000 	nop
    49e8:	3c141e86 	lui	s4,0x1e86
    49ec:	3694071b 	ori	s4,s4,0x71b
    49f0:	16141263 	bne	s0,s4,9380 <inst_error>
    49f4:	00000000 	nop
    49f8:	00000000 	nop
    49fc:	3c15d097 	lui	s5,0xd097
    4a00:	36b5d70c 	ori	s5,s5,0xd70c
    4a04:	1655125e 	bne	s2,s5,9380 <inst_error>
    4a08:	00000000 	nop
    4a0c:	00000000 	nop
    4a10:	3c0c664a 	lui	t4,0x664a
    4a14:	358c8080 	ori	t4,t4,0x8080
    4a18:	3c0de773 	lui	t5,0xe773
    4a1c:	35ad0e6c 	ori	t5,t5,0xe6c
    4a20:	24100000 	li	s0,0
    4a24:	10000012 	b	4a70 <n33_blez_test+0x4a70>
    4a28:	24120000 	li	s2,0
    4a2c:	00000000 	nop
    4a30:	3c10664a 	lui	s0,0x664a
    4a34:	19000019 	blez	t0,4a9c <n33_blez_test+0x4a9c>
    4a38:	36108080 	ori	s0,s0,0x8080
    4a3c:	10000019 	b	4aa4 <n33_blez_test+0x4aa4>
    4a40:	00000000 	nop
    4a44:	00000000 	nop
    4a48:	00000021 	move	zero,zero
    4a4c:	00000021 	move	zero,zero
    4a50:	00000021 	move	zero,zero
    4a54:	00000021 	move	zero,zero
    4a58:	00000021 	move	zero,zero
    4a5c:	00000021 	move	zero,zero
    4a60:	00000021 	move	zero,zero
    4a64:	00000021 	move	zero,zero
    4a68:	00000021 	move	zero,zero
    4a6c:	00000021 	move	zero,zero
    4a70:	3c085640 	lui	t0,0x5640
    4a74:	3508c590 	ori	t0,t0,0xc590
    4a78:	1900ffed 	blez	t0,4a30 <n33_blez_test+0x4a30>
    4a7c:	00000000 	nop
    4a80:	10000008 	b	4aa4 <n33_blez_test+0x4aa4>
    4a84:	00000000 	nop
    4a88:	00000000 	nop
    4a8c:	00000021 	move	zero,zero
    4a90:	00000021 	move	zero,zero
    4a94:	00000021 	move	zero,zero
    4a98:	00000021 	move	zero,zero
    4a9c:	3c12e773 	lui	s2,0xe773
    4aa0:	36520e6c 	ori	s2,s2,0xe6c
    4aa4:	00000000 	nop
    4aa8:	24140000 	li	s4,0
    4aac:	16141234 	bne	s0,s4,9380 <inst_error>
    4ab0:	00000000 	nop
    4ab4:	00000000 	nop
    4ab8:	24150000 	li	s5,0
    4abc:	16551230 	bne	s2,s5,9380 <inst_error>
    4ac0:	00000000 	nop
    4ac4:	00000000 	nop
    4ac8:	3c0cb6e2 	lui	t4,0xb6e2
    4acc:	358c9ec0 	ori	t4,t4,0x9ec0
    4ad0:	3c0d6d57 	lui	t5,0x6d57
    4ad4:	35ad065d 	ori	t5,t5,0x65d
    4ad8:	24100000 	li	s0,0
    4adc:	10000012 	b	4b28 <n33_blez_test+0x4b28>
    4ae0:	24120000 	li	s2,0
    4ae4:	00000000 	nop
    4ae8:	3c10b6e2 	lui	s0,0xb6e2
    4aec:	19000019 	blez	t0,4b54 <n33_blez_test+0x4b54>
    4af0:	36109ec0 	ori	s0,s0,0x9ec0
    4af4:	10000019 	b	4b5c <n33_blez_test+0x4b5c>
    4af8:	00000000 	nop
    4afc:	00000000 	nop
    4b00:	00000021 	move	zero,zero
    4b04:	00000021 	move	zero,zero
    4b08:	00000021 	move	zero,zero
    4b0c:	00000021 	move	zero,zero
    4b10:	00000021 	move	zero,zero
    4b14:	00000021 	move	zero,zero
    4b18:	00000021 	move	zero,zero
    4b1c:	00000021 	move	zero,zero
    4b20:	00000021 	move	zero,zero
    4b24:	00000021 	move	zero,zero
    4b28:	3c082fe0 	lui	t0,0x2fe0
    4b2c:	35085383 	ori	t0,t0,0x5383
    4b30:	1900ffed 	blez	t0,4ae8 <n33_blez_test+0x4ae8>
    4b34:	00000000 	nop
    4b38:	10000008 	b	4b5c <n33_blez_test+0x4b5c>
    4b3c:	00000000 	nop
    4b40:	00000000 	nop
    4b44:	00000021 	move	zero,zero
    4b48:	00000021 	move	zero,zero
    4b4c:	00000021 	move	zero,zero
    4b50:	00000021 	move	zero,zero
    4b54:	3c126d57 	lui	s2,0x6d57
    4b58:	3652065d 	ori	s2,s2,0x65d
    4b5c:	00000000 	nop
    4b60:	24140000 	li	s4,0
    4b64:	16141206 	bne	s0,s4,9380 <inst_error>
    4b68:	00000000 	nop
    4b6c:	00000000 	nop
    4b70:	24150000 	li	s5,0
    4b74:	16551202 	bne	s2,s5,9380 <inst_error>
    4b78:	00000000 	nop
    4b7c:	00000000 	nop
    4b80:	3c0cefd8 	lui	t4,0xefd8
    4b84:	358c6630 	ori	t4,t4,0x6630
    4b88:	3c0d5b08 	lui	t5,0x5b08
    4b8c:	35adad7c 	ori	t5,t5,0xad7c
    4b90:	24100000 	li	s0,0
    4b94:	10000012 	b	4be0 <n33_blez_test+0x4be0>
    4b98:	24120000 	li	s2,0
    4b9c:	00000000 	nop
    4ba0:	3c10efd8 	lui	s0,0xefd8
    4ba4:	19000019 	blez	t0,4c0c <n33_blez_test+0x4c0c>
    4ba8:	36106630 	ori	s0,s0,0x6630
    4bac:	10000019 	b	4c14 <n33_blez_test+0x4c14>
    4bb0:	00000000 	nop
    4bb4:	00000000 	nop
    4bb8:	00000021 	move	zero,zero
    4bbc:	00000021 	move	zero,zero
    4bc0:	00000021 	move	zero,zero
    4bc4:	00000021 	move	zero,zero
    4bc8:	00000021 	move	zero,zero
    4bcc:	00000021 	move	zero,zero
    4bd0:	00000021 	move	zero,zero
    4bd4:	00000021 	move	zero,zero
    4bd8:	00000021 	move	zero,zero
    4bdc:	00000021 	move	zero,zero
    4be0:	3c089a90 	lui	t0,0x9a90
    4be4:	35083470 	ori	t0,t0,0x3470
    4be8:	1900ffed 	blez	t0,4ba0 <n33_blez_test+0x4ba0>
    4bec:	00000000 	nop
    4bf0:	10000008 	b	4c14 <n33_blez_test+0x4c14>
    4bf4:	00000000 	nop
    4bf8:	00000000 	nop
    4bfc:	00000021 	move	zero,zero
    4c00:	00000021 	move	zero,zero
    4c04:	00000021 	move	zero,zero
    4c08:	00000021 	move	zero,zero
    4c0c:	3c125b08 	lui	s2,0x5b08
    4c10:	3652ad7c 	ori	s2,s2,0xad7c
    4c14:	00000000 	nop
    4c18:	3c14efd8 	lui	s4,0xefd8
    4c1c:	36946630 	ori	s4,s4,0x6630
    4c20:	161411d7 	bne	s0,s4,9380 <inst_error>
    4c24:	00000000 	nop
    4c28:	00000000 	nop
    4c2c:	3c155b08 	lui	s5,0x5b08
    4c30:	36b5ad7c 	ori	s5,s5,0xad7c
    4c34:	165511d2 	bne	s2,s5,9380 <inst_error>
    4c38:	00000000 	nop
    4c3c:	00000000 	nop
    4c40:	3c0c0da1 	lui	t4,0xda1
    4c44:	358c1d60 	ori	t4,t4,0x1d60
    4c48:	3c0df6c2 	lui	t5,0xf6c2
    4c4c:	35ad7e00 	ori	t5,t5,0x7e00
    4c50:	24100000 	li	s0,0
    4c54:	10000012 	b	4ca0 <n33_blez_test+0x4ca0>
    4c58:	24120000 	li	s2,0
    4c5c:	00000000 	nop
    4c60:	3c100da1 	lui	s0,0xda1
    4c64:	19000019 	blez	t0,4ccc <n33_blez_test+0x4ccc>
    4c68:	36101d60 	ori	s0,s0,0x1d60
    4c6c:	10000019 	b	4cd4 <n33_blez_test+0x4cd4>
    4c70:	00000000 	nop
    4c74:	00000000 	nop
    4c78:	00000021 	move	zero,zero
    4c7c:	00000021 	move	zero,zero
    4c80:	00000021 	move	zero,zero
    4c84:	00000021 	move	zero,zero
    4c88:	00000021 	move	zero,zero
    4c8c:	00000021 	move	zero,zero
    4c90:	00000021 	move	zero,zero
    4c94:	00000021 	move	zero,zero
    4c98:	00000021 	move	zero,zero
    4c9c:	00000021 	move	zero,zero
    4ca0:	3c08808b 	lui	t0,0x808b
    4ca4:	3508b1b0 	ori	t0,t0,0xb1b0
    4ca8:	1900ffed 	blez	t0,4c60 <n33_blez_test+0x4c60>
    4cac:	00000000 	nop
    4cb0:	10000008 	b	4cd4 <n33_blez_test+0x4cd4>
    4cb4:	00000000 	nop
    4cb8:	00000000 	nop
    4cbc:	00000021 	move	zero,zero
    4cc0:	00000021 	move	zero,zero
    4cc4:	00000021 	move	zero,zero
    4cc8:	00000021 	move	zero,zero
    4ccc:	3c12f6c2 	lui	s2,0xf6c2
    4cd0:	36527e00 	ori	s2,s2,0x7e00
    4cd4:	00000000 	nop
    4cd8:	3c140da1 	lui	s4,0xda1
    4cdc:	36941d60 	ori	s4,s4,0x1d60
    4ce0:	161411a7 	bne	s0,s4,9380 <inst_error>
    4ce4:	00000000 	nop
    4ce8:	00000000 	nop
    4cec:	3c15f6c2 	lui	s5,0xf6c2
    4cf0:	36b57e00 	ori	s5,s5,0x7e00
    4cf4:	165511a2 	bne	s2,s5,9380 <inst_error>
    4cf8:	00000000 	nop
    4cfc:	00000000 	nop
    4d00:	3c0cd4f8 	lui	t4,0xd4f8
    4d04:	358c8718 	ori	t4,t4,0x8718
    4d08:	3c0d4396 	lui	t5,0x4396
    4d0c:	35ad6450 	ori	t5,t5,0x6450
    4d10:	24100000 	li	s0,0
    4d14:	10000012 	b	4d60 <n33_blez_test+0x4d60>
    4d18:	24120000 	li	s2,0
    4d1c:	00000000 	nop
    4d20:	3c10d4f8 	lui	s0,0xd4f8
    4d24:	19000019 	blez	t0,4d8c <n33_blez_test+0x4d8c>
    4d28:	36108718 	ori	s0,s0,0x8718
    4d2c:	10000019 	b	4d94 <n33_blez_test+0x4d94>
    4d30:	00000000 	nop
    4d34:	00000000 	nop
    4d38:	00000021 	move	zero,zero
    4d3c:	00000021 	move	zero,zero
    4d40:	00000021 	move	zero,zero
    4d44:	00000021 	move	zero,zero
    4d48:	00000021 	move	zero,zero
    4d4c:	00000021 	move	zero,zero
    4d50:	00000021 	move	zero,zero
    4d54:	00000021 	move	zero,zero
    4d58:	00000021 	move	zero,zero
    4d5c:	00000021 	move	zero,zero
    4d60:	3c0868f7 	lui	t0,0x68f7
    4d64:	35083642 	ori	t0,t0,0x3642
    4d68:	1900ffed 	blez	t0,4d20 <n33_blez_test+0x4d20>
    4d6c:	00000000 	nop
    4d70:	10000008 	b	4d94 <n33_blez_test+0x4d94>
    4d74:	00000000 	nop
    4d78:	00000000 	nop
    4d7c:	00000021 	move	zero,zero
    4d80:	00000021 	move	zero,zero
    4d84:	00000021 	move	zero,zero
    4d88:	00000021 	move	zero,zero
    4d8c:	3c124396 	lui	s2,0x4396
    4d90:	36526450 	ori	s2,s2,0x6450
    4d94:	00000000 	nop
    4d98:	24140000 	li	s4,0
    4d9c:	16141178 	bne	s0,s4,9380 <inst_error>
    4da0:	00000000 	nop
    4da4:	00000000 	nop
    4da8:	24150000 	li	s5,0
    4dac:	16551174 	bne	s2,s5,9380 <inst_error>
    4db0:	00000000 	nop
    4db4:	00000000 	nop
    4db8:	3c0c3176 	lui	t4,0x3176
    4dbc:	358c7808 	ori	t4,t4,0x7808
    4dc0:	3c0d0a5d 	lui	t5,0xa5d
    4dc4:	35ada390 	ori	t5,t5,0xa390
    4dc8:	24100000 	li	s0,0
    4dcc:	10000012 	b	4e18 <n33_blez_test+0x4e18>
    4dd0:	24120000 	li	s2,0
    4dd4:	00000000 	nop
    4dd8:	3c103176 	lui	s0,0x3176
    4ddc:	19000019 	blez	t0,4e44 <n33_blez_test+0x4e44>
    4de0:	36107808 	ori	s0,s0,0x7808
    4de4:	10000019 	b	4e4c <n33_blez_test+0x4e4c>
    4de8:	00000000 	nop
    4dec:	00000000 	nop
    4df0:	00000021 	move	zero,zero
    4df4:	00000021 	move	zero,zero
    4df8:	00000021 	move	zero,zero
    4dfc:	00000021 	move	zero,zero
    4e00:	00000021 	move	zero,zero
    4e04:	00000021 	move	zero,zero
    4e08:	00000021 	move	zero,zero
    4e0c:	00000021 	move	zero,zero
    4e10:	00000021 	move	zero,zero
    4e14:	00000021 	move	zero,zero
    4e18:	3c0807fd 	lui	t0,0x7fd
    4e1c:	350855aa 	ori	t0,t0,0x55aa
    4e20:	1900ffed 	blez	t0,4dd8 <n33_blez_test+0x4dd8>
    4e24:	00000000 	nop
    4e28:	10000008 	b	4e4c <n33_blez_test+0x4e4c>
    4e2c:	00000000 	nop
    4e30:	00000000 	nop
    4e34:	00000021 	move	zero,zero
    4e38:	00000021 	move	zero,zero
    4e3c:	00000021 	move	zero,zero
    4e40:	00000021 	move	zero,zero
    4e44:	3c120a5d 	lui	s2,0xa5d
    4e48:	3652a390 	ori	s2,s2,0xa390
    4e4c:	00000000 	nop
    4e50:	24140000 	li	s4,0
    4e54:	1614114a 	bne	s0,s4,9380 <inst_error>
    4e58:	00000000 	nop
    4e5c:	00000000 	nop
    4e60:	24150000 	li	s5,0
    4e64:	16551146 	bne	s2,s5,9380 <inst_error>
    4e68:	00000000 	nop
    4e6c:	00000000 	nop
    4e70:	3c0ca758 	lui	t4,0xa758
    4e74:	358c3a00 	ori	t4,t4,0x3a00
    4e78:	3c0db4b4 	lui	t5,0xb4b4
    4e7c:	35adb4b4 	ori	t5,t5,0xb4b4
    4e80:	24100000 	li	s0,0
    4e84:	10000012 	b	4ed0 <n33_blez_test+0x4ed0>
    4e88:	24120000 	li	s2,0
    4e8c:	00000000 	nop
    4e90:	3c10a758 	lui	s0,0xa758
    4e94:	19000019 	blez	t0,4efc <n33_blez_test+0x4efc>
    4e98:	36103a00 	ori	s0,s0,0x3a00
    4e9c:	10000019 	b	4f04 <n33_blez_test+0x4f04>
    4ea0:	00000000 	nop
    4ea4:	00000000 	nop
    4ea8:	00000021 	move	zero,zero
    4eac:	00000021 	move	zero,zero
    4eb0:	00000021 	move	zero,zero
    4eb4:	00000021 	move	zero,zero
    4eb8:	00000021 	move	zero,zero
    4ebc:	00000021 	move	zero,zero
    4ec0:	00000021 	move	zero,zero
    4ec4:	00000021 	move	zero,zero
    4ec8:	00000021 	move	zero,zero
    4ecc:	00000021 	move	zero,zero
    4ed0:	3c0816bb 	lui	t0,0x16bb
    4ed4:	35088e40 	ori	t0,t0,0x8e40
    4ed8:	1900ffed 	blez	t0,4e90 <n33_blez_test+0x4e90>
    4edc:	00000000 	nop
    4ee0:	10000008 	b	4f04 <n33_blez_test+0x4f04>
    4ee4:	00000000 	nop
    4ee8:	00000000 	nop
    4eec:	00000021 	move	zero,zero
    4ef0:	00000021 	move	zero,zero
    4ef4:	00000021 	move	zero,zero
    4ef8:	00000021 	move	zero,zero
    4efc:	3c12b4b4 	lui	s2,0xb4b4
    4f00:	3652b4b4 	ori	s2,s2,0xb4b4
    4f04:	00000000 	nop
    4f08:	24140000 	li	s4,0
    4f0c:	1614111c 	bne	s0,s4,9380 <inst_error>
    4f10:	00000000 	nop
    4f14:	00000000 	nop
    4f18:	24150000 	li	s5,0
    4f1c:	16551118 	bne	s2,s5,9380 <inst_error>
    4f20:	00000000 	nop
    4f24:	00000000 	nop
    4f28:	3c0cb753 	lui	t4,0xb753
    4f2c:	358c2635 	ori	t4,t4,0x2635
    4f30:	3c0dae95 	lui	t5,0xae95
    4f34:	35adfbf8 	ori	t5,t5,0xfbf8
    4f38:	24100000 	li	s0,0
    4f3c:	10000012 	b	4f88 <n33_blez_test+0x4f88>
    4f40:	24120000 	li	s2,0
    4f44:	00000000 	nop
    4f48:	3c10b753 	lui	s0,0xb753
    4f4c:	19000019 	blez	t0,4fb4 <n33_blez_test+0x4fb4>
    4f50:	36102635 	ori	s0,s0,0x2635
    4f54:	10000019 	b	4fbc <n33_blez_test+0x4fbc>
    4f58:	00000000 	nop
    4f5c:	00000000 	nop
    4f60:	00000021 	move	zero,zero
    4f64:	00000021 	move	zero,zero
    4f68:	00000021 	move	zero,zero
    4f6c:	00000021 	move	zero,zero
    4f70:	00000021 	move	zero,zero
    4f74:	00000021 	move	zero,zero
    4f78:	00000021 	move	zero,zero
    4f7c:	00000021 	move	zero,zero
    4f80:	00000021 	move	zero,zero
    4f84:	00000021 	move	zero,zero
    4f88:	3c085a06 	lui	t0,0x5a06
    4f8c:	3508e0f0 	ori	t0,t0,0xe0f0
    4f90:	1900ffed 	blez	t0,4f48 <n33_blez_test+0x4f48>
    4f94:	00000000 	nop
    4f98:	10000008 	b	4fbc <n33_blez_test+0x4fbc>
    4f9c:	00000000 	nop
    4fa0:	00000000 	nop
    4fa4:	00000021 	move	zero,zero
    4fa8:	00000021 	move	zero,zero
    4fac:	00000021 	move	zero,zero
    4fb0:	00000021 	move	zero,zero
    4fb4:	3c12ae95 	lui	s2,0xae95
    4fb8:	3652fbf8 	ori	s2,s2,0xfbf8
    4fbc:	00000000 	nop
    4fc0:	24140000 	li	s4,0
    4fc4:	161410ee 	bne	s0,s4,9380 <inst_error>
    4fc8:	00000000 	nop
    4fcc:	00000000 	nop
    4fd0:	24150000 	li	s5,0
    4fd4:	165510ea 	bne	s2,s5,9380 <inst_error>
    4fd8:	00000000 	nop
    4fdc:	00000000 	nop
    4fe0:	3c0cc4e3 	lui	t4,0xc4e3
    4fe4:	358cdf56 	ori	t4,t4,0xdf56
    4fe8:	3c0d2c32 	lui	t5,0x2c32
    4fec:	35adb8cc 	ori	t5,t5,0xb8cc
    4ff0:	24100000 	li	s0,0
    4ff4:	10000012 	b	5040 <n33_blez_test+0x5040>
    4ff8:	24120000 	li	s2,0
    4ffc:	00000000 	nop
    5000:	3c10c4e3 	lui	s0,0xc4e3
    5004:	19000019 	blez	t0,506c <n33_blez_test+0x506c>
    5008:	3610df56 	ori	s0,s0,0xdf56
    500c:	10000019 	b	5074 <n33_blez_test+0x5074>
    5010:	00000000 	nop
    5014:	00000000 	nop
    5018:	00000021 	move	zero,zero
    501c:	00000021 	move	zero,zero
    5020:	00000021 	move	zero,zero
    5024:	00000021 	move	zero,zero
    5028:	00000021 	move	zero,zero
    502c:	00000021 	move	zero,zero
    5030:	00000021 	move	zero,zero
    5034:	00000021 	move	zero,zero
    5038:	00000021 	move	zero,zero
    503c:	00000021 	move	zero,zero
    5040:	3c08a77f 	lui	t0,0xa77f
    5044:	3508f1d2 	ori	t0,t0,0xf1d2
    5048:	1900ffed 	blez	t0,5000 <n33_blez_test+0x5000>
    504c:	00000000 	nop
    5050:	10000008 	b	5074 <n33_blez_test+0x5074>
    5054:	00000000 	nop
    5058:	00000000 	nop
    505c:	00000021 	move	zero,zero
    5060:	00000021 	move	zero,zero
    5064:	00000021 	move	zero,zero
    5068:	00000021 	move	zero,zero
    506c:	3c122c32 	lui	s2,0x2c32
    5070:	3652b8cc 	ori	s2,s2,0xb8cc
    5074:	00000000 	nop
    5078:	3c14c4e3 	lui	s4,0xc4e3
    507c:	3694df56 	ori	s4,s4,0xdf56
    5080:	161410bf 	bne	s0,s4,9380 <inst_error>
    5084:	00000000 	nop
    5088:	00000000 	nop
    508c:	3c152c32 	lui	s5,0x2c32
    5090:	36b5b8cc 	ori	s5,s5,0xb8cc
    5094:	165510ba 	bne	s2,s5,9380 <inst_error>
    5098:	00000000 	nop
    509c:	00000000 	nop
    50a0:	3c0cb8e1 	lui	t4,0xb8e1
    50a4:	358c7e80 	ori	t4,t4,0x7e80
    50a8:	3c0d17c2 	lui	t5,0x17c2
    50ac:	35ad9a30 	ori	t5,t5,0x9a30
    50b0:	24100000 	li	s0,0
    50b4:	10000012 	b	5100 <n33_blez_test+0x5100>
    50b8:	24120000 	li	s2,0
    50bc:	00000000 	nop
    50c0:	3c10b8e1 	lui	s0,0xb8e1
    50c4:	19000019 	blez	t0,512c <n33_blez_test+0x512c>
    50c8:	36107e80 	ori	s0,s0,0x7e80
    50cc:	10000019 	b	5134 <n33_blez_test+0x5134>
    50d0:	00000000 	nop
    50d4:	00000000 	nop
    50d8:	00000021 	move	zero,zero
    50dc:	00000021 	move	zero,zero
    50e0:	00000021 	move	zero,zero
    50e4:	00000021 	move	zero,zero
    50e8:	00000021 	move	zero,zero
    50ec:	00000021 	move	zero,zero
    50f0:	00000021 	move	zero,zero
    50f4:	00000021 	move	zero,zero
    50f8:	00000021 	move	zero,zero
    50fc:	00000021 	move	zero,zero
    5100:	3c08524f 	lui	t0,0x524f
    5104:	3508086e 	ori	t0,t0,0x86e
    5108:	1900ffed 	blez	t0,50c0 <n33_blez_test+0x50c0>
    510c:	00000000 	nop
    5110:	10000008 	b	5134 <n33_blez_test+0x5134>
    5114:	00000000 	nop
    5118:	00000000 	nop
    511c:	00000021 	move	zero,zero
    5120:	00000021 	move	zero,zero
    5124:	00000021 	move	zero,zero
    5128:	00000021 	move	zero,zero
    512c:	3c1217c2 	lui	s2,0x17c2
    5130:	36529a30 	ori	s2,s2,0x9a30
    5134:	00000000 	nop
    5138:	24140000 	li	s4,0
    513c:	16141090 	bne	s0,s4,9380 <inst_error>
    5140:	00000000 	nop
    5144:	00000000 	nop
    5148:	24150000 	li	s5,0
    514c:	1655108c 	bne	s2,s5,9380 <inst_error>
    5150:	00000000 	nop
    5154:	00000000 	nop
    5158:	3c0ccd69 	lui	t4,0xcd69
    515c:	358cf000 	ori	t4,t4,0xf000
    5160:	3c0dd551 	lui	t5,0xd551
    5164:	35ad659c 	ori	t5,t5,0x659c
    5168:	24100000 	li	s0,0
    516c:	10000012 	b	51b8 <n33_blez_test+0x51b8>
    5170:	24120000 	li	s2,0
    5174:	00000000 	nop
    5178:	3c10cd69 	lui	s0,0xcd69
    517c:	19000019 	blez	t0,51e4 <n33_blez_test+0x51e4>
    5180:	3610f000 	ori	s0,s0,0xf000
    5184:	10000019 	b	51ec <n33_blez_test+0x51ec>
    5188:	00000000 	nop
    518c:	00000000 	nop
    5190:	00000021 	move	zero,zero
    5194:	00000021 	move	zero,zero
    5198:	00000021 	move	zero,zero
    519c:	00000021 	move	zero,zero
    51a0:	00000021 	move	zero,zero
    51a4:	00000021 	move	zero,zero
    51a8:	00000021 	move	zero,zero
    51ac:	00000021 	move	zero,zero
    51b0:	00000021 	move	zero,zero
    51b4:	00000021 	move	zero,zero
    51b8:	3c08f11c 	lui	t0,0xf11c
    51bc:	3508b410 	ori	t0,t0,0xb410
    51c0:	1900ffed 	blez	t0,5178 <n33_blez_test+0x5178>
    51c4:	00000000 	nop
    51c8:	10000008 	b	51ec <n33_blez_test+0x51ec>
    51cc:	00000000 	nop
    51d0:	00000000 	nop
    51d4:	00000021 	move	zero,zero
    51d8:	00000021 	move	zero,zero
    51dc:	00000021 	move	zero,zero
    51e0:	00000021 	move	zero,zero
    51e4:	3c12d551 	lui	s2,0xd551
    51e8:	3652659c 	ori	s2,s2,0x659c
    51ec:	00000000 	nop
    51f0:	3c14cd69 	lui	s4,0xcd69
    51f4:	3694f000 	ori	s4,s4,0xf000
    51f8:	16141061 	bne	s0,s4,9380 <inst_error>
    51fc:	00000000 	nop
    5200:	00000000 	nop
    5204:	3c15d551 	lui	s5,0xd551
    5208:	36b5659c 	ori	s5,s5,0x659c
    520c:	1655105c 	bne	s2,s5,9380 <inst_error>
    5210:	00000000 	nop
    5214:	00000000 	nop
    5218:	3c0c5e83 	lui	t4,0x5e83
    521c:	358cb720 	ori	t4,t4,0xb720
    5220:	3c0df6f8 	lui	t5,0xf6f8
    5224:	35ad7f00 	ori	t5,t5,0x7f00
    5228:	24100000 	li	s0,0
    522c:	10000012 	b	5278 <n33_blez_test+0x5278>
    5230:	24120000 	li	s2,0
    5234:	00000000 	nop
    5238:	3c105e83 	lui	s0,0x5e83
    523c:	19000019 	blez	t0,52a4 <n33_blez_test+0x52a4>
    5240:	3610b720 	ori	s0,s0,0xb720
    5244:	10000019 	b	52ac <n33_blez_test+0x52ac>
    5248:	00000000 	nop
    524c:	00000000 	nop
    5250:	00000021 	move	zero,zero
    5254:	00000021 	move	zero,zero
    5258:	00000021 	move	zero,zero
    525c:	00000021 	move	zero,zero
    5260:	00000021 	move	zero,zero
    5264:	00000021 	move	zero,zero
    5268:	00000021 	move	zero,zero
    526c:	00000021 	move	zero,zero
    5270:	00000021 	move	zero,zero
    5274:	00000021 	move	zero,zero
    5278:	3c08c3d1 	lui	t0,0xc3d1
    527c:	35085830 	ori	t0,t0,0x5830
    5280:	1900ffed 	blez	t0,5238 <n33_blez_test+0x5238>
    5284:	00000000 	nop
    5288:	10000008 	b	52ac <n33_blez_test+0x52ac>
    528c:	00000000 	nop
    5290:	00000000 	nop
    5294:	00000021 	move	zero,zero
    5298:	00000021 	move	zero,zero
    529c:	00000021 	move	zero,zero
    52a0:	00000021 	move	zero,zero
    52a4:	3c12f6f8 	lui	s2,0xf6f8
    52a8:	36527f00 	ori	s2,s2,0x7f00
    52ac:	00000000 	nop
    52b0:	3c145e83 	lui	s4,0x5e83
    52b4:	3694b720 	ori	s4,s4,0xb720
    52b8:	16141031 	bne	s0,s4,9380 <inst_error>
    52bc:	00000000 	nop
    52c0:	00000000 	nop
    52c4:	3c15f6f8 	lui	s5,0xf6f8
    52c8:	36b57f00 	ori	s5,s5,0x7f00
    52cc:	1655102c 	bne	s2,s5,9380 <inst_error>
    52d0:	00000000 	nop
    52d4:	00000000 	nop
    52d8:	3c0ccf93 	lui	t4,0xcf93
    52dc:	358c6450 	ori	t4,t4,0x6450
    52e0:	3c0d3a60 	lui	t5,0x3a60
    52e4:	35ad92ac 	ori	t5,t5,0x92ac
    52e8:	24100000 	li	s0,0
    52ec:	10000012 	b	5338 <n33_blez_test+0x5338>
    52f0:	24120000 	li	s2,0
    52f4:	00000000 	nop
    52f8:	3c10cf93 	lui	s0,0xcf93
    52fc:	19000019 	blez	t0,5364 <n33_blez_test+0x5364>
    5300:	36106450 	ori	s0,s0,0x6450
    5304:	10000019 	b	536c <n33_blez_test+0x536c>
    5308:	00000000 	nop
    530c:	00000000 	nop
    5310:	00000021 	move	zero,zero
    5314:	00000021 	move	zero,zero
    5318:	00000021 	move	zero,zero
    531c:	00000021 	move	zero,zero
    5320:	00000021 	move	zero,zero
    5324:	00000021 	move	zero,zero
    5328:	00000021 	move	zero,zero
    532c:	00000021 	move	zero,zero
    5330:	00000021 	move	zero,zero
    5334:	00000021 	move	zero,zero
    5338:	3c08468e 	lui	t0,0x468e
    533c:	350863a5 	ori	t0,t0,0x63a5
    5340:	1900ffed 	blez	t0,52f8 <n33_blez_test+0x52f8>
    5344:	00000000 	nop
    5348:	10000008 	b	536c <n33_blez_test+0x536c>
    534c:	00000000 	nop
    5350:	00000000 	nop
    5354:	00000021 	move	zero,zero
    5358:	00000021 	move	zero,zero
    535c:	00000021 	move	zero,zero
    5360:	00000021 	move	zero,zero
    5364:	3c123a60 	lui	s2,0x3a60
    5368:	365292ac 	ori	s2,s2,0x92ac
    536c:	00000000 	nop
    5370:	24140000 	li	s4,0
    5374:	16141002 	bne	s0,s4,9380 <inst_error>
    5378:	00000000 	nop
    537c:	00000000 	nop
    5380:	24150000 	li	s5,0
    5384:	16550ffe 	bne	s2,s5,9380 <inst_error>
    5388:	00000000 	nop
    538c:	00000000 	nop
    5390:	3c0cd3e3 	lui	t4,0xd3e3
    5394:	358c0300 	ori	t4,t4,0x300
    5398:	3c0dc0cc 	lui	t5,0xc0cc
    539c:	35ad5af0 	ori	t5,t5,0x5af0
    53a0:	24100000 	li	s0,0
    53a4:	10000012 	b	53f0 <n33_blez_test+0x53f0>
    53a8:	24120000 	li	s2,0
    53ac:	00000000 	nop
    53b0:	3c10d3e3 	lui	s0,0xd3e3
    53b4:	19000019 	blez	t0,541c <n33_blez_test+0x541c>
    53b8:	36100300 	ori	s0,s0,0x300
    53bc:	10000019 	b	5424 <n33_blez_test+0x5424>
    53c0:	00000000 	nop
    53c4:	00000000 	nop
    53c8:	00000021 	move	zero,zero
    53cc:	00000021 	move	zero,zero
    53d0:	00000021 	move	zero,zero
    53d4:	00000021 	move	zero,zero
    53d8:	00000021 	move	zero,zero
    53dc:	00000021 	move	zero,zero
    53e0:	00000021 	move	zero,zero
    53e4:	00000021 	move	zero,zero
    53e8:	00000021 	move	zero,zero
    53ec:	00000021 	move	zero,zero
    53f0:	3c08c9f4 	lui	t0,0xc9f4
    53f4:	3508180f 	ori	t0,t0,0x180f
    53f8:	1900ffed 	blez	t0,53b0 <n33_blez_test+0x53b0>
    53fc:	00000000 	nop
    5400:	10000008 	b	5424 <n33_blez_test+0x5424>
    5404:	00000000 	nop
    5408:	00000000 	nop
    540c:	00000021 	move	zero,zero
    5410:	00000021 	move	zero,zero
    5414:	00000021 	move	zero,zero
    5418:	00000021 	move	zero,zero
    541c:	3c12c0cc 	lui	s2,0xc0cc
    5420:	36525af0 	ori	s2,s2,0x5af0
    5424:	00000000 	nop
    5428:	3c14d3e3 	lui	s4,0xd3e3
    542c:	36940300 	ori	s4,s4,0x300
    5430:	16140fd3 	bne	s0,s4,9380 <inst_error>
    5434:	00000000 	nop
    5438:	00000000 	nop
    543c:	3c15c0cc 	lui	s5,0xc0cc
    5440:	36b55af0 	ori	s5,s5,0x5af0
    5444:	16550fce 	bne	s2,s5,9380 <inst_error>
    5448:	00000000 	nop
    544c:	00000000 	nop
    5450:	3c0c8a18 	lui	t4,0x8a18
    5454:	358cf159 	ori	t4,t4,0xf159
    5458:	3c0d3495 	lui	t5,0x3495
    545c:	35ad2370 	ori	t5,t5,0x2370
    5460:	24100000 	li	s0,0
    5464:	10000012 	b	54b0 <n33_blez_test+0x54b0>
    5468:	24120000 	li	s2,0
    546c:	00000000 	nop
    5470:	3c108a18 	lui	s0,0x8a18
    5474:	19000019 	blez	t0,54dc <n33_blez_test+0x54dc>
    5478:	3610f159 	ori	s0,s0,0xf159
    547c:	10000019 	b	54e4 <n33_blez_test+0x54e4>
    5480:	00000000 	nop
    5484:	00000000 	nop
    5488:	00000021 	move	zero,zero
    548c:	00000021 	move	zero,zero
    5490:	00000021 	move	zero,zero
    5494:	00000021 	move	zero,zero
    5498:	00000021 	move	zero,zero
    549c:	00000021 	move	zero,zero
    54a0:	00000021 	move	zero,zero
    54a4:	00000021 	move	zero,zero
    54a8:	00000021 	move	zero,zero
    54ac:	00000021 	move	zero,zero
    54b0:	3c088d7a 	lui	t0,0x8d7a
    54b4:	35080320 	ori	t0,t0,0x320
    54b8:	1900ffed 	blez	t0,5470 <n33_blez_test+0x5470>
    54bc:	00000000 	nop
    54c0:	10000008 	b	54e4 <n33_blez_test+0x54e4>
    54c4:	00000000 	nop
    54c8:	00000000 	nop
    54cc:	00000021 	move	zero,zero
    54d0:	00000021 	move	zero,zero
    54d4:	00000021 	move	zero,zero
    54d8:	00000021 	move	zero,zero
    54dc:	3c123495 	lui	s2,0x3495
    54e0:	36522370 	ori	s2,s2,0x2370
    54e4:	00000000 	nop
    54e8:	3c148a18 	lui	s4,0x8a18
    54ec:	3694f159 	ori	s4,s4,0xf159
    54f0:	16140fa3 	bne	s0,s4,9380 <inst_error>
    54f4:	00000000 	nop
    54f8:	00000000 	nop
    54fc:	3c153495 	lui	s5,0x3495
    5500:	36b52370 	ori	s5,s5,0x2370
    5504:	16550f9e 	bne	s2,s5,9380 <inst_error>
    5508:	00000000 	nop
    550c:	00000000 	nop
    5510:	3c0c45cf 	lui	t4,0x45cf
    5514:	358cce80 	ori	t4,t4,0xce80
    5518:	3c0d827f 	lui	t5,0x827f
    551c:	35ada060 	ori	t5,t5,0xa060
    5520:	24100000 	li	s0,0
    5524:	10000012 	b	5570 <n33_blez_test+0x5570>
    5528:	24120000 	li	s2,0
    552c:	00000000 	nop
    5530:	3c1045cf 	lui	s0,0x45cf
    5534:	19000019 	blez	t0,559c <n33_blez_test+0x559c>
    5538:	3610ce80 	ori	s0,s0,0xce80
    553c:	10000019 	b	55a4 <n33_blez_test+0x55a4>
    5540:	00000000 	nop
    5544:	00000000 	nop
    5548:	00000021 	move	zero,zero
    554c:	00000021 	move	zero,zero
    5550:	00000021 	move	zero,zero
    5554:	00000021 	move	zero,zero
    5558:	00000021 	move	zero,zero
    555c:	00000021 	move	zero,zero
    5560:	00000021 	move	zero,zero
    5564:	00000021 	move	zero,zero
    5568:	00000021 	move	zero,zero
    556c:	00000021 	move	zero,zero
    5570:	3c087b2e 	lui	t0,0x7b2e
    5574:	35083980 	ori	t0,t0,0x3980
    5578:	1900ffed 	blez	t0,5530 <n33_blez_test+0x5530>
    557c:	00000000 	nop
    5580:	10000008 	b	55a4 <n33_blez_test+0x55a4>
    5584:	00000000 	nop
    5588:	00000000 	nop
    558c:	00000021 	move	zero,zero
    5590:	00000021 	move	zero,zero
    5594:	00000021 	move	zero,zero
    5598:	00000021 	move	zero,zero
    559c:	3c12827f 	lui	s2,0x827f
    55a0:	3652a060 	ori	s2,s2,0xa060
    55a4:	00000000 	nop
    55a8:	24140000 	li	s4,0
    55ac:	16140f74 	bne	s0,s4,9380 <inst_error>
    55b0:	00000000 	nop
    55b4:	00000000 	nop
    55b8:	24150000 	li	s5,0
    55bc:	16550f70 	bne	s2,s5,9380 <inst_error>
    55c0:	00000000 	nop
    55c4:	00000000 	nop
    55c8:	3c0cfe7b 	lui	t4,0xfe7b
    55cc:	358ccfc6 	ori	t4,t4,0xcfc6
    55d0:	3c0de41f 	lui	t5,0xe41f
    55d4:	35ade171 	ori	t5,t5,0xe171
    55d8:	24100000 	li	s0,0
    55dc:	10000012 	b	5628 <n33_blez_test+0x5628>
    55e0:	24120000 	li	s2,0
    55e4:	00000000 	nop
    55e8:	3c10fe7b 	lui	s0,0xfe7b
    55ec:	19000019 	blez	t0,5654 <n33_blez_test+0x5654>
    55f0:	3610cfc6 	ori	s0,s0,0xcfc6
    55f4:	10000019 	b	565c <n33_blez_test+0x565c>
    55f8:	00000000 	nop
    55fc:	00000000 	nop
    5600:	00000021 	move	zero,zero
    5604:	00000021 	move	zero,zero
    5608:	00000021 	move	zero,zero
    560c:	00000021 	move	zero,zero
    5610:	00000021 	move	zero,zero
    5614:	00000021 	move	zero,zero
    5618:	00000021 	move	zero,zero
    561c:	00000021 	move	zero,zero
    5620:	00000021 	move	zero,zero
    5624:	00000021 	move	zero,zero
    5628:	3c08ec92 	lui	t0,0xec92
    562c:	35087780 	ori	t0,t0,0x7780
    5630:	1900ffed 	blez	t0,55e8 <n33_blez_test+0x55e8>
    5634:	00000000 	nop
    5638:	10000008 	b	565c <n33_blez_test+0x565c>
    563c:	00000000 	nop
    5640:	00000000 	nop
    5644:	00000021 	move	zero,zero
    5648:	00000021 	move	zero,zero
    564c:	00000021 	move	zero,zero
    5650:	00000021 	move	zero,zero
    5654:	3c12e41f 	lui	s2,0xe41f
    5658:	3652e171 	ori	s2,s2,0xe171
    565c:	00000000 	nop
    5660:	3c14fe7b 	lui	s4,0xfe7b
    5664:	3694cfc6 	ori	s4,s4,0xcfc6
    5668:	16140f45 	bne	s0,s4,9380 <inst_error>
    566c:	00000000 	nop
    5670:	00000000 	nop
    5674:	3c15e41f 	lui	s5,0xe41f
    5678:	36b5e171 	ori	s5,s5,0xe171
    567c:	16550f40 	bne	s2,s5,9380 <inst_error>
    5680:	00000000 	nop
    5684:	00000000 	nop
    5688:	3c0ca2af 	lui	t4,0xa2af
    568c:	358cd67f 	ori	t4,t4,0xd67f
    5690:	3c0d5afa 	lui	t5,0x5afa
    5694:	35ad056c 	ori	t5,t5,0x56c
    5698:	24100000 	li	s0,0
    569c:	10000012 	b	56e8 <n33_blez_test+0x56e8>
    56a0:	24120000 	li	s2,0
    56a4:	00000000 	nop
    56a8:	3c10a2af 	lui	s0,0xa2af
    56ac:	19000019 	blez	t0,5714 <n33_blez_test+0x5714>
    56b0:	3610d67f 	ori	s0,s0,0xd67f
    56b4:	10000019 	b	571c <n33_blez_test+0x571c>
    56b8:	00000000 	nop
    56bc:	00000000 	nop
    56c0:	00000021 	move	zero,zero
    56c4:	00000021 	move	zero,zero
    56c8:	00000021 	move	zero,zero
    56cc:	00000021 	move	zero,zero
    56d0:	00000021 	move	zero,zero
    56d4:	00000021 	move	zero,zero
    56d8:	00000021 	move	zero,zero
    56dc:	00000021 	move	zero,zero
    56e0:	00000021 	move	zero,zero
    56e4:	00000021 	move	zero,zero
    56e8:	3c08e1d4 	lui	t0,0xe1d4
    56ec:	3508d41e 	ori	t0,t0,0xd41e
    56f0:	1900ffed 	blez	t0,56a8 <n33_blez_test+0x56a8>
    56f4:	00000000 	nop
    56f8:	10000008 	b	571c <n33_blez_test+0x571c>
    56fc:	00000000 	nop
    5700:	00000000 	nop
    5704:	00000021 	move	zero,zero
    5708:	00000021 	move	zero,zero
    570c:	00000021 	move	zero,zero
    5710:	00000021 	move	zero,zero
    5714:	3c125afa 	lui	s2,0x5afa
    5718:	3652056c 	ori	s2,s2,0x56c
    571c:	00000000 	nop
    5720:	3c14a2af 	lui	s4,0xa2af
    5724:	3694d67f 	ori	s4,s4,0xd67f
    5728:	16140f15 	bne	s0,s4,9380 <inst_error>
    572c:	00000000 	nop
    5730:	00000000 	nop
    5734:	3c155afa 	lui	s5,0x5afa
    5738:	36b5056c 	ori	s5,s5,0x56c
    573c:	16550f10 	bne	s2,s5,9380 <inst_error>
    5740:	00000000 	nop
    5744:	00000000 	nop
    5748:	3c0c35be 	lui	t4,0x35be
    574c:	358c98ae 	ori	t4,t4,0x98ae
    5750:	3c0d157d 	lui	t5,0x157d
    5754:	35adec7c 	ori	t5,t5,0xec7c
    5758:	24100000 	li	s0,0
    575c:	10000012 	b	57a8 <n33_blez_test+0x57a8>
    5760:	24120000 	li	s2,0
    5764:	00000000 	nop
    5768:	3c1035be 	lui	s0,0x35be
    576c:	19000019 	blez	t0,57d4 <n33_blez_test+0x57d4>
    5770:	361098ae 	ori	s0,s0,0x98ae
    5774:	10000019 	b	57dc <n33_blez_test+0x57dc>
    5778:	00000000 	nop
    577c:	00000000 	nop
    5780:	00000021 	move	zero,zero
    5784:	00000021 	move	zero,zero
    5788:	00000021 	move	zero,zero
    578c:	00000021 	move	zero,zero
    5790:	00000021 	move	zero,zero
    5794:	00000021 	move	zero,zero
    5798:	00000021 	move	zero,zero
    579c:	00000021 	move	zero,zero
    57a0:	00000021 	move	zero,zero
    57a4:	00000021 	move	zero,zero
    57a8:	3c08fdc9 	lui	t0,0xfdc9
    57ac:	35085ce0 	ori	t0,t0,0x5ce0
    57b0:	1900ffed 	blez	t0,5768 <n33_blez_test+0x5768>
    57b4:	00000000 	nop
    57b8:	10000008 	b	57dc <n33_blez_test+0x57dc>
    57bc:	00000000 	nop
    57c0:	00000000 	nop
    57c4:	00000021 	move	zero,zero
    57c8:	00000021 	move	zero,zero
    57cc:	00000021 	move	zero,zero
    57d0:	00000021 	move	zero,zero
    57d4:	3c12157d 	lui	s2,0x157d
    57d8:	3652ec7c 	ori	s2,s2,0xec7c
    57dc:	00000000 	nop
    57e0:	3c1435be 	lui	s4,0x35be
    57e4:	369498ae 	ori	s4,s4,0x98ae
    57e8:	16140ee5 	bne	s0,s4,9380 <inst_error>
    57ec:	00000000 	nop
    57f0:	00000000 	nop
    57f4:	3c15157d 	lui	s5,0x157d
    57f8:	36b5ec7c 	ori	s5,s5,0xec7c
    57fc:	16550ee0 	bne	s2,s5,9380 <inst_error>
    5800:	00000000 	nop
    5804:	00000000 	nop
    5808:	3c0c89c4 	lui	t4,0x89c4
    580c:	358c4f40 	ori	t4,t4,0x4f40
    5810:	3c0d6063 	lui	t5,0x6063
    5814:	35ad7e46 	ori	t5,t5,0x7e46
    5818:	24100000 	li	s0,0
    581c:	10000012 	b	5868 <n33_blez_test+0x5868>
    5820:	24120000 	li	s2,0
    5824:	00000000 	nop
    5828:	3c1089c4 	lui	s0,0x89c4
    582c:	19000019 	blez	t0,5894 <n33_blez_test+0x5894>
    5830:	36104f40 	ori	s0,s0,0x4f40
    5834:	10000019 	b	589c <n33_blez_test+0x589c>
    5838:	00000000 	nop
    583c:	00000000 	nop
    5840:	00000021 	move	zero,zero
    5844:	00000021 	move	zero,zero
    5848:	00000021 	move	zero,zero
    584c:	00000021 	move	zero,zero
    5850:	00000021 	move	zero,zero
    5854:	00000021 	move	zero,zero
    5858:	00000021 	move	zero,zero
    585c:	00000021 	move	zero,zero
    5860:	00000021 	move	zero,zero
    5864:	00000021 	move	zero,zero
    5868:	3c089483 	lui	t0,0x9483
    586c:	3508e85f 	ori	t0,t0,0xe85f
    5870:	1900ffed 	blez	t0,5828 <n33_blez_test+0x5828>
    5874:	00000000 	nop
    5878:	10000008 	b	589c <n33_blez_test+0x589c>
    587c:	00000000 	nop
    5880:	00000000 	nop
    5884:	00000021 	move	zero,zero
    5888:	00000021 	move	zero,zero
    588c:	00000021 	move	zero,zero
    5890:	00000021 	move	zero,zero
    5894:	3c126063 	lui	s2,0x6063
    5898:	36527e46 	ori	s2,s2,0x7e46
    589c:	00000000 	nop
    58a0:	3c1489c4 	lui	s4,0x89c4
    58a4:	36944f40 	ori	s4,s4,0x4f40
    58a8:	16140eb5 	bne	s0,s4,9380 <inst_error>
    58ac:	00000000 	nop
    58b0:	00000000 	nop
    58b4:	3c156063 	lui	s5,0x6063
    58b8:	36b57e46 	ori	s5,s5,0x7e46
    58bc:	16550eb0 	bne	s2,s5,9380 <inst_error>
    58c0:	00000000 	nop
    58c4:	00000000 	nop
    58c8:	3c0c4f7c 	lui	t4,0x4f7c
    58cc:	358c3640 	ori	t4,t4,0x3640
    58d0:	3c0da2f4 	lui	t5,0xa2f4
    58d4:	35ad70c8 	ori	t5,t5,0x70c8
    58d8:	24100000 	li	s0,0
    58dc:	10000012 	b	5928 <n33_blez_test+0x5928>
    58e0:	24120000 	li	s2,0
    58e4:	00000000 	nop
    58e8:	3c104f7c 	lui	s0,0x4f7c
    58ec:	19000019 	blez	t0,5954 <n33_blez_test+0x5954>
    58f0:	36103640 	ori	s0,s0,0x3640
    58f4:	10000019 	b	595c <n33_blez_test+0x595c>
    58f8:	00000000 	nop
    58fc:	00000000 	nop
    5900:	00000021 	move	zero,zero
    5904:	00000021 	move	zero,zero
    5908:	00000021 	move	zero,zero
    590c:	00000021 	move	zero,zero
    5910:	00000021 	move	zero,zero
    5914:	00000021 	move	zero,zero
    5918:	00000021 	move	zero,zero
    591c:	00000021 	move	zero,zero
    5920:	00000021 	move	zero,zero
    5924:	00000021 	move	zero,zero
    5928:	3c08c0de 	lui	t0,0xc0de
    592c:	35084c64 	ori	t0,t0,0x4c64
    5930:	1900ffed 	blez	t0,58e8 <n33_blez_test+0x58e8>
    5934:	00000000 	nop
    5938:	10000008 	b	595c <n33_blez_test+0x595c>
    593c:	00000000 	nop
    5940:	00000000 	nop
    5944:	00000021 	move	zero,zero
    5948:	00000021 	move	zero,zero
    594c:	00000021 	move	zero,zero
    5950:	00000021 	move	zero,zero
    5954:	3c12a2f4 	lui	s2,0xa2f4
    5958:	365270c8 	ori	s2,s2,0x70c8
    595c:	00000000 	nop
    5960:	3c144f7c 	lui	s4,0x4f7c
    5964:	36943640 	ori	s4,s4,0x3640
    5968:	16140e85 	bne	s0,s4,9380 <inst_error>
    596c:	00000000 	nop
    5970:	00000000 	nop
    5974:	3c15a2f4 	lui	s5,0xa2f4
    5978:	36b570c8 	ori	s5,s5,0x70c8
    597c:	16550e80 	bne	s2,s5,9380 <inst_error>
    5980:	00000000 	nop
    5984:	00000000 	nop
    5988:	3c0c50d2 	lui	t4,0x50d2
    598c:	358c757c 	ori	t4,t4,0x757c
    5990:	3c0db928 	lui	t5,0xb928
    5994:	35ad5670 	ori	t5,t5,0x5670
    5998:	24100000 	li	s0,0
    599c:	10000012 	b	59e8 <n33_blez_test+0x59e8>
    59a0:	24120000 	li	s2,0
    59a4:	00000000 	nop
    59a8:	3c1050d2 	lui	s0,0x50d2
    59ac:	19000019 	blez	t0,5a14 <n33_blez_test+0x5a14>
    59b0:	3610757c 	ori	s0,s0,0x757c
    59b4:	10000019 	b	5a1c <n33_blez_test+0x5a1c>
    59b8:	00000000 	nop
    59bc:	00000000 	nop
    59c0:	00000021 	move	zero,zero
    59c4:	00000021 	move	zero,zero
    59c8:	00000021 	move	zero,zero
    59cc:	00000021 	move	zero,zero
    59d0:	00000021 	move	zero,zero
    59d4:	00000021 	move	zero,zero
    59d8:	00000021 	move	zero,zero
    59dc:	00000021 	move	zero,zero
    59e0:	00000021 	move	zero,zero
    59e4:	00000021 	move	zero,zero
    59e8:	3c08a27a 	lui	t0,0xa27a
    59ec:	35084d9c 	ori	t0,t0,0x4d9c
    59f0:	1900ffed 	blez	t0,59a8 <n33_blez_test+0x59a8>
    59f4:	00000000 	nop
    59f8:	10000008 	b	5a1c <n33_blez_test+0x5a1c>
    59fc:	00000000 	nop
    5a00:	00000000 	nop
    5a04:	00000021 	move	zero,zero
    5a08:	00000021 	move	zero,zero
    5a0c:	00000021 	move	zero,zero
    5a10:	00000021 	move	zero,zero
    5a14:	3c12b928 	lui	s2,0xb928
    5a18:	36525670 	ori	s2,s2,0x5670
    5a1c:	00000000 	nop
    5a20:	3c1450d2 	lui	s4,0x50d2
    5a24:	3694757c 	ori	s4,s4,0x757c
    5a28:	16140e55 	bne	s0,s4,9380 <inst_error>
    5a2c:	00000000 	nop
    5a30:	00000000 	nop
    5a34:	3c15b928 	lui	s5,0xb928
    5a38:	36b55670 	ori	s5,s5,0x5670
    5a3c:	16550e50 	bne	s2,s5,9380 <inst_error>
    5a40:	00000000 	nop
    5a44:	00000000 	nop
    5a48:	3c0cc242 	lui	t4,0xc242
    5a4c:	358c1be0 	ori	t4,t4,0x1be0
    5a50:	3c0dbabb 	lui	t5,0xbabb
    5a54:	35ad8e77 	ori	t5,t5,0x8e77
    5a58:	24100000 	li	s0,0
    5a5c:	10000012 	b	5aa8 <n33_blez_test+0x5aa8>
    5a60:	24120000 	li	s2,0
    5a64:	00000000 	nop
    5a68:	3c10c242 	lui	s0,0xc242
    5a6c:	19000019 	blez	t0,5ad4 <n33_blez_test+0x5ad4>
    5a70:	36101be0 	ori	s0,s0,0x1be0
    5a74:	10000019 	b	5adc <n33_blez_test+0x5adc>
    5a78:	00000000 	nop
    5a7c:	00000000 	nop
    5a80:	00000021 	move	zero,zero
    5a84:	00000021 	move	zero,zero
    5a88:	00000021 	move	zero,zero
    5a8c:	00000021 	move	zero,zero
    5a90:	00000021 	move	zero,zero
    5a94:	00000021 	move	zero,zero
    5a98:	00000021 	move	zero,zero
    5a9c:	00000021 	move	zero,zero
    5aa0:	00000021 	move	zero,zero
    5aa4:	00000021 	move	zero,zero
    5aa8:	3c081cef 	lui	t0,0x1cef
    5aac:	35086038 	ori	t0,t0,0x6038
    5ab0:	1900ffed 	blez	t0,5a68 <n33_blez_test+0x5a68>
    5ab4:	00000000 	nop
    5ab8:	10000008 	b	5adc <n33_blez_test+0x5adc>
    5abc:	00000000 	nop
    5ac0:	00000000 	nop
    5ac4:	00000021 	move	zero,zero
    5ac8:	00000021 	move	zero,zero
    5acc:	00000021 	move	zero,zero
    5ad0:	00000021 	move	zero,zero
    5ad4:	3c12babb 	lui	s2,0xbabb
    5ad8:	36528e77 	ori	s2,s2,0x8e77
    5adc:	00000000 	nop
    5ae0:	24140000 	li	s4,0
    5ae4:	16140e26 	bne	s0,s4,9380 <inst_error>
    5ae8:	00000000 	nop
    5aec:	00000000 	nop
    5af0:	24150000 	li	s5,0
    5af4:	16550e22 	bne	s2,s5,9380 <inst_error>
    5af8:	00000000 	nop
    5afc:	00000000 	nop
    5b00:	3c0c695c 	lui	t4,0x695c
    5b04:	358cfda0 	ori	t4,t4,0xfda0
    5b08:	3c0da71b 	lui	t5,0xa71b
    5b0c:	35adc078 	ori	t5,t5,0xc078
    5b10:	24100000 	li	s0,0
    5b14:	10000012 	b	5b60 <n33_blez_test+0x5b60>
    5b18:	24120000 	li	s2,0
    5b1c:	00000000 	nop
    5b20:	3c10695c 	lui	s0,0x695c
    5b24:	19000019 	blez	t0,5b8c <n33_blez_test+0x5b8c>
    5b28:	3610fda0 	ori	s0,s0,0xfda0
    5b2c:	10000019 	b	5b94 <n33_blez_test+0x5b94>
    5b30:	00000000 	nop
    5b34:	00000000 	nop
    5b38:	00000021 	move	zero,zero
    5b3c:	00000021 	move	zero,zero
    5b40:	00000021 	move	zero,zero
    5b44:	00000021 	move	zero,zero
    5b48:	00000021 	move	zero,zero
    5b4c:	00000021 	move	zero,zero
    5b50:	00000021 	move	zero,zero
    5b54:	00000021 	move	zero,zero
    5b58:	00000021 	move	zero,zero
    5b5c:	00000021 	move	zero,zero
    5b60:	3c089be6 	lui	t0,0x9be6
    5b64:	35088840 	ori	t0,t0,0x8840
    5b68:	1900ffed 	blez	t0,5b20 <n33_blez_test+0x5b20>
    5b6c:	00000000 	nop
    5b70:	10000008 	b	5b94 <n33_blez_test+0x5b94>
    5b74:	00000000 	nop
    5b78:	00000000 	nop
    5b7c:	00000021 	move	zero,zero
    5b80:	00000021 	move	zero,zero
    5b84:	00000021 	move	zero,zero
    5b88:	00000021 	move	zero,zero
    5b8c:	3c12a71b 	lui	s2,0xa71b
    5b90:	3652c078 	ori	s2,s2,0xc078
    5b94:	00000000 	nop
    5b98:	3c14695c 	lui	s4,0x695c
    5b9c:	3694fda0 	ori	s4,s4,0xfda0
    5ba0:	16140df7 	bne	s0,s4,9380 <inst_error>
    5ba4:	00000000 	nop
    5ba8:	00000000 	nop
    5bac:	3c15a71b 	lui	s5,0xa71b
    5bb0:	36b5c078 	ori	s5,s5,0xc078
    5bb4:	16550df2 	bne	s2,s5,9380 <inst_error>
    5bb8:	00000000 	nop
    5bbc:	00000000 	nop
    5bc0:	3c0cf8b2 	lui	t4,0xf8b2
    5bc4:	358c3c1a 	ori	t4,t4,0x3c1a
    5bc8:	3c0db9ac 	lui	t5,0xb9ac
    5bcc:	35ad4d90 	ori	t5,t5,0x4d90
    5bd0:	24100000 	li	s0,0
    5bd4:	10000012 	b	5c20 <n33_blez_test+0x5c20>
    5bd8:	24120000 	li	s2,0
    5bdc:	00000000 	nop
    5be0:	3c10f8b2 	lui	s0,0xf8b2
    5be4:	19000019 	blez	t0,5c4c <n33_blez_test+0x5c4c>
    5be8:	36103c1a 	ori	s0,s0,0x3c1a
    5bec:	10000019 	b	5c54 <n33_blez_test+0x5c54>
    5bf0:	00000000 	nop
    5bf4:	00000000 	nop
    5bf8:	00000021 	move	zero,zero
    5bfc:	00000021 	move	zero,zero
    5c00:	00000021 	move	zero,zero
    5c04:	00000021 	move	zero,zero
    5c08:	00000021 	move	zero,zero
    5c0c:	00000021 	move	zero,zero
    5c10:	00000021 	move	zero,zero
    5c14:	00000021 	move	zero,zero
    5c18:	00000021 	move	zero,zero
    5c1c:	00000021 	move	zero,zero
    5c20:	3c08ccca 	lui	t0,0xccca
    5c24:	35083490 	ori	t0,t0,0x3490
    5c28:	1900ffed 	blez	t0,5be0 <n33_blez_test+0x5be0>
    5c2c:	00000000 	nop
    5c30:	10000008 	b	5c54 <n33_blez_test+0x5c54>
    5c34:	00000000 	nop
    5c38:	00000000 	nop
    5c3c:	00000021 	move	zero,zero
    5c40:	00000021 	move	zero,zero
    5c44:	00000021 	move	zero,zero
    5c48:	00000021 	move	zero,zero
    5c4c:	3c12b9ac 	lui	s2,0xb9ac
    5c50:	36524d90 	ori	s2,s2,0x4d90
    5c54:	00000000 	nop
    5c58:	3c14f8b2 	lui	s4,0xf8b2
    5c5c:	36943c1a 	ori	s4,s4,0x3c1a
    5c60:	16140dc7 	bne	s0,s4,9380 <inst_error>
    5c64:	00000000 	nop
    5c68:	00000000 	nop
    5c6c:	3c15b9ac 	lui	s5,0xb9ac
    5c70:	36b54d90 	ori	s5,s5,0x4d90
    5c74:	16550dc2 	bne	s2,s5,9380 <inst_error>
    5c78:	00000000 	nop
    5c7c:	00000000 	nop
    5c80:	3c0c71bf 	lui	t4,0x71bf
    5c84:	358c8368 	ori	t4,t4,0x8368
    5c88:	3c0d0154 	lui	t5,0x154
    5c8c:	35ad8108 	ori	t5,t5,0x8108
    5c90:	24100000 	li	s0,0
    5c94:	10000012 	b	5ce0 <n33_blez_test+0x5ce0>
    5c98:	24120000 	li	s2,0
    5c9c:	00000000 	nop
    5ca0:	3c1071bf 	lui	s0,0x71bf
    5ca4:	19000019 	blez	t0,5d0c <n33_blez_test+0x5d0c>
    5ca8:	36108368 	ori	s0,s0,0x8368
    5cac:	10000019 	b	5d14 <n33_blez_test+0x5d14>
    5cb0:	00000000 	nop
    5cb4:	00000000 	nop
    5cb8:	00000021 	move	zero,zero
    5cbc:	00000021 	move	zero,zero
    5cc0:	00000021 	move	zero,zero
    5cc4:	00000021 	move	zero,zero
    5cc8:	00000021 	move	zero,zero
    5ccc:	00000021 	move	zero,zero
    5cd0:	00000021 	move	zero,zero
    5cd4:	00000021 	move	zero,zero
    5cd8:	00000021 	move	zero,zero
    5cdc:	00000021 	move	zero,zero
    5ce0:	3c08da31 	lui	t0,0xda31
    5ce4:	35083724 	ori	t0,t0,0x3724
    5ce8:	1900ffed 	blez	t0,5ca0 <n33_blez_test+0x5ca0>
    5cec:	00000000 	nop
    5cf0:	10000008 	b	5d14 <n33_blez_test+0x5d14>
    5cf4:	00000000 	nop
    5cf8:	00000000 	nop
    5cfc:	00000021 	move	zero,zero
    5d00:	00000021 	move	zero,zero
    5d04:	00000021 	move	zero,zero
    5d08:	00000021 	move	zero,zero
    5d0c:	3c120154 	lui	s2,0x154
    5d10:	36528108 	ori	s2,s2,0x8108
    5d14:	00000000 	nop
    5d18:	3c1471bf 	lui	s4,0x71bf
    5d1c:	36948368 	ori	s4,s4,0x8368
    5d20:	16140d97 	bne	s0,s4,9380 <inst_error>
    5d24:	00000000 	nop
    5d28:	00000000 	nop
    5d2c:	3c150154 	lui	s5,0x154
    5d30:	36b58108 	ori	s5,s5,0x8108
    5d34:	16550d92 	bne	s2,s5,9380 <inst_error>
    5d38:	00000000 	nop
    5d3c:	00000000 	nop
    5d40:	3c0cbdbe 	lui	t4,0xbdbe
    5d44:	358caa7c 	ori	t4,t4,0xaa7c
    5d48:	3c0d7b9d 	lui	t5,0x7b9d
    5d4c:	35ad3200 	ori	t5,t5,0x3200
    5d50:	24100000 	li	s0,0
    5d54:	10000012 	b	5da0 <n33_blez_test+0x5da0>
    5d58:	24120000 	li	s2,0
    5d5c:	00000000 	nop
    5d60:	3c10bdbe 	lui	s0,0xbdbe
    5d64:	19000019 	blez	t0,5dcc <n33_blez_test+0x5dcc>
    5d68:	3610aa7c 	ori	s0,s0,0xaa7c
    5d6c:	10000019 	b	5dd4 <n33_blez_test+0x5dd4>
    5d70:	00000000 	nop
    5d74:	00000000 	nop
    5d78:	00000021 	move	zero,zero
    5d7c:	00000021 	move	zero,zero
    5d80:	00000021 	move	zero,zero
    5d84:	00000021 	move	zero,zero
    5d88:	00000021 	move	zero,zero
    5d8c:	00000021 	move	zero,zero
    5d90:	00000021 	move	zero,zero
    5d94:	00000021 	move	zero,zero
    5d98:	00000021 	move	zero,zero
    5d9c:	00000021 	move	zero,zero
    5da0:	3c080262 	lui	t0,0x262
    5da4:	35081df8 	ori	t0,t0,0x1df8
    5da8:	1900ffed 	blez	t0,5d60 <n33_blez_test+0x5d60>
    5dac:	00000000 	nop
    5db0:	10000008 	b	5dd4 <n33_blez_test+0x5dd4>
    5db4:	00000000 	nop
    5db8:	00000000 	nop
    5dbc:	00000021 	move	zero,zero
    5dc0:	00000021 	move	zero,zero
    5dc4:	00000021 	move	zero,zero
    5dc8:	00000021 	move	zero,zero
    5dcc:	3c127b9d 	lui	s2,0x7b9d
    5dd0:	36523200 	ori	s2,s2,0x3200
    5dd4:	00000000 	nop
    5dd8:	24140000 	li	s4,0
    5ddc:	16140d68 	bne	s0,s4,9380 <inst_error>
    5de0:	00000000 	nop
    5de4:	00000000 	nop
    5de8:	24150000 	li	s5,0
    5dec:	16550d64 	bne	s2,s5,9380 <inst_error>
    5df0:	00000000 	nop
    5df4:	00000000 	nop
    5df8:	3c0cb7fe 	lui	t4,0xb7fe
    5dfc:	358c9960 	ori	t4,t4,0x9960
    5e00:	3c0d1ce5 	lui	t5,0x1ce5
    5e04:	35ad20fe 	ori	t5,t5,0x20fe
    5e08:	24100000 	li	s0,0
    5e0c:	10000012 	b	5e58 <n33_blez_test+0x5e58>
    5e10:	24120000 	li	s2,0
    5e14:	00000000 	nop
    5e18:	3c10b7fe 	lui	s0,0xb7fe
    5e1c:	19000019 	blez	t0,5e84 <n33_blez_test+0x5e84>
    5e20:	36109960 	ori	s0,s0,0x9960
    5e24:	10000019 	b	5e8c <n33_blez_test+0x5e8c>
    5e28:	00000000 	nop
    5e2c:	00000000 	nop
    5e30:	00000021 	move	zero,zero
    5e34:	00000021 	move	zero,zero
    5e38:	00000021 	move	zero,zero
    5e3c:	00000021 	move	zero,zero
    5e40:	00000021 	move	zero,zero
    5e44:	00000021 	move	zero,zero
    5e48:	00000021 	move	zero,zero
    5e4c:	00000021 	move	zero,zero
    5e50:	00000021 	move	zero,zero
    5e54:	00000021 	move	zero,zero
    5e58:	3c0801eb 	lui	t0,0x1eb
    5e5c:	35083db0 	ori	t0,t0,0x3db0
    5e60:	1900ffed 	blez	t0,5e18 <n33_blez_test+0x5e18>
    5e64:	00000000 	nop
    5e68:	10000008 	b	5e8c <n33_blez_test+0x5e8c>
    5e6c:	00000000 	nop
    5e70:	00000000 	nop
    5e74:	00000021 	move	zero,zero
    5e78:	00000021 	move	zero,zero
    5e7c:	00000021 	move	zero,zero
    5e80:	00000021 	move	zero,zero
    5e84:	3c121ce5 	lui	s2,0x1ce5
    5e88:	365220fe 	ori	s2,s2,0x20fe
    5e8c:	00000000 	nop
    5e90:	24140000 	li	s4,0
    5e94:	16140d3a 	bne	s0,s4,9380 <inst_error>
    5e98:	00000000 	nop
    5e9c:	00000000 	nop
    5ea0:	24150000 	li	s5,0
    5ea4:	16550d36 	bne	s2,s5,9380 <inst_error>
    5ea8:	00000000 	nop
    5eac:	00000000 	nop
    5eb0:	3c0c88ae 	lui	t4,0x88ae
    5eb4:	358c7dee 	ori	t4,t4,0x7dee
    5eb8:	3c0df3ac 	lui	t5,0xf3ac
    5ebc:	35add260 	ori	t5,t5,0xd260
    5ec0:	24100000 	li	s0,0
    5ec4:	10000012 	b	5f10 <n33_blez_test+0x5f10>
    5ec8:	24120000 	li	s2,0
    5ecc:	00000000 	nop
    5ed0:	3c1088ae 	lui	s0,0x88ae
    5ed4:	19000019 	blez	t0,5f3c <n33_blez_test+0x5f3c>
    5ed8:	36107dee 	ori	s0,s0,0x7dee
    5edc:	10000019 	b	5f44 <n33_blez_test+0x5f44>
    5ee0:	00000000 	nop
    5ee4:	00000000 	nop
    5ee8:	00000021 	move	zero,zero
    5eec:	00000021 	move	zero,zero
    5ef0:	00000021 	move	zero,zero
    5ef4:	00000021 	move	zero,zero
    5ef8:	00000021 	move	zero,zero
    5efc:	00000021 	move	zero,zero
    5f00:	00000021 	move	zero,zero
    5f04:	00000021 	move	zero,zero
    5f08:	00000021 	move	zero,zero
    5f0c:	00000021 	move	zero,zero
    5f10:	3c084b18 	lui	t0,0x4b18
    5f14:	3508d264 	ori	t0,t0,0xd264
    5f18:	1900ffed 	blez	t0,5ed0 <n33_blez_test+0x5ed0>
    5f1c:	00000000 	nop
    5f20:	10000008 	b	5f44 <n33_blez_test+0x5f44>
    5f24:	00000000 	nop
    5f28:	00000000 	nop
    5f2c:	00000021 	move	zero,zero
    5f30:	00000021 	move	zero,zero
    5f34:	00000021 	move	zero,zero
    5f38:	00000021 	move	zero,zero
    5f3c:	3c12f3ac 	lui	s2,0xf3ac
    5f40:	3652d260 	ori	s2,s2,0xd260
    5f44:	00000000 	nop
    5f48:	24140000 	li	s4,0
    5f4c:	16140d0c 	bne	s0,s4,9380 <inst_error>
    5f50:	00000000 	nop
    5f54:	00000000 	nop
    5f58:	24150000 	li	s5,0
    5f5c:	16550d08 	bne	s2,s5,9380 <inst_error>
    5f60:	00000000 	nop
    5f64:	00000000 	nop
    5f68:	3c0c41dc 	lui	t4,0x41dc
    5f6c:	358c5a50 	ori	t4,t4,0x5a50
    5f70:	3c0d828a 	lui	t5,0x828a
    5f74:	35addbaa 	ori	t5,t5,0xdbaa
    5f78:	24100000 	li	s0,0
    5f7c:	10000012 	b	5fc8 <n33_blez_test+0x5fc8>
    5f80:	24120000 	li	s2,0
    5f84:	00000000 	nop
    5f88:	3c1041dc 	lui	s0,0x41dc
    5f8c:	19000019 	blez	t0,5ff4 <n33_blez_test+0x5ff4>
    5f90:	36105a50 	ori	s0,s0,0x5a50
    5f94:	10000019 	b	5ffc <n33_blez_test+0x5ffc>
    5f98:	00000000 	nop
    5f9c:	00000000 	nop
    5fa0:	00000021 	move	zero,zero
    5fa4:	00000021 	move	zero,zero
    5fa8:	00000021 	move	zero,zero
    5fac:	00000021 	move	zero,zero
    5fb0:	00000021 	move	zero,zero
    5fb4:	00000021 	move	zero,zero
    5fb8:	00000021 	move	zero,zero
    5fbc:	00000021 	move	zero,zero
    5fc0:	00000021 	move	zero,zero
    5fc4:	00000021 	move	zero,zero
    5fc8:	3c08143a 	lui	t0,0x143a
    5fcc:	3508ae48 	ori	t0,t0,0xae48
    5fd0:	1900ffed 	blez	t0,5f88 <n33_blez_test+0x5f88>
    5fd4:	00000000 	nop
    5fd8:	10000008 	b	5ffc <n33_blez_test+0x5ffc>
    5fdc:	00000000 	nop
    5fe0:	00000000 	nop
    5fe4:	00000021 	move	zero,zero
    5fe8:	00000021 	move	zero,zero
    5fec:	00000021 	move	zero,zero
    5ff0:	00000021 	move	zero,zero
    5ff4:	3c12828a 	lui	s2,0x828a
    5ff8:	3652dbaa 	ori	s2,s2,0xdbaa
    5ffc:	00000000 	nop
    6000:	24140000 	li	s4,0
    6004:	16140cde 	bne	s0,s4,9380 <inst_error>
    6008:	00000000 	nop
    600c:	00000000 	nop
    6010:	24150000 	li	s5,0
    6014:	16550cda 	bne	s2,s5,9380 <inst_error>
    6018:	00000000 	nop
    601c:	00000000 	nop
    6020:	3c0cf427 	lui	t4,0xf427
    6024:	358c12e6 	ori	t4,t4,0x12e6
    6028:	3c0d4b9a 	lui	t5,0x4b9a
    602c:	35adad60 	ori	t5,t5,0xad60
    6030:	24100000 	li	s0,0
    6034:	10000012 	b	6080 <n33_blez_test+0x6080>
    6038:	24120000 	li	s2,0
    603c:	00000000 	nop
    6040:	3c10f427 	lui	s0,0xf427
    6044:	19000019 	blez	t0,60ac <n33_blez_test+0x60ac>
    6048:	361012e6 	ori	s0,s0,0x12e6
    604c:	10000019 	b	60b4 <n33_blez_test+0x60b4>
    6050:	00000000 	nop
    6054:	00000000 	nop
    6058:	00000021 	move	zero,zero
    605c:	00000021 	move	zero,zero
    6060:	00000021 	move	zero,zero
    6064:	00000021 	move	zero,zero
    6068:	00000021 	move	zero,zero
    606c:	00000021 	move	zero,zero
    6070:	00000021 	move	zero,zero
    6074:	00000021 	move	zero,zero
    6078:	00000021 	move	zero,zero
    607c:	00000021 	move	zero,zero
    6080:	3c08366c 	lui	t0,0x366c
    6084:	35083c2c 	ori	t0,t0,0x3c2c
    6088:	1900ffed 	blez	t0,6040 <n33_blez_test+0x6040>
    608c:	00000000 	nop
    6090:	10000008 	b	60b4 <n33_blez_test+0x60b4>
    6094:	00000000 	nop
    6098:	00000000 	nop
    609c:	00000021 	move	zero,zero
    60a0:	00000021 	move	zero,zero
    60a4:	00000021 	move	zero,zero
    60a8:	00000021 	move	zero,zero
    60ac:	3c124b9a 	lui	s2,0x4b9a
    60b0:	3652ad60 	ori	s2,s2,0xad60
    60b4:	00000000 	nop
    60b8:	24140000 	li	s4,0
    60bc:	16140cb0 	bne	s0,s4,9380 <inst_error>
    60c0:	00000000 	nop
    60c4:	00000000 	nop
    60c8:	24150000 	li	s5,0
    60cc:	16550cac 	bne	s2,s5,9380 <inst_error>
    60d0:	00000000 	nop
    60d4:	00000000 	nop
    60d8:	3c0c056b 	lui	t4,0x56b
    60dc:	358c4fe2 	ori	t4,t4,0x4fe2
    60e0:	3c0d49f5 	lui	t5,0x49f5
    60e4:	35adabe6 	ori	t5,t5,0xabe6
    60e8:	24100000 	li	s0,0
    60ec:	10000012 	b	6138 <n33_blez_test+0x6138>
    60f0:	24120000 	li	s2,0
    60f4:	00000000 	nop
    60f8:	3c10056b 	lui	s0,0x56b
    60fc:	19000019 	blez	t0,6164 <n33_blez_test+0x6164>
    6100:	36104fe2 	ori	s0,s0,0x4fe2
    6104:	10000019 	b	616c <n33_blez_test+0x616c>
    6108:	00000000 	nop
    610c:	00000000 	nop
    6110:	00000021 	move	zero,zero
    6114:	00000021 	move	zero,zero
    6118:	00000021 	move	zero,zero
    611c:	00000021 	move	zero,zero
    6120:	00000021 	move	zero,zero
    6124:	00000021 	move	zero,zero
    6128:	00000021 	move	zero,zero
    612c:	00000021 	move	zero,zero
    6130:	00000021 	move	zero,zero
    6134:	00000021 	move	zero,zero
    6138:	3c08e771 	lui	t0,0xe771
    613c:	35081093 	ori	t0,t0,0x1093
    6140:	1900ffed 	blez	t0,60f8 <n33_blez_test+0x60f8>
    6144:	00000000 	nop
    6148:	10000008 	b	616c <n33_blez_test+0x616c>
    614c:	00000000 	nop
    6150:	00000000 	nop
    6154:	00000021 	move	zero,zero
    6158:	00000021 	move	zero,zero
    615c:	00000021 	move	zero,zero
    6160:	00000021 	move	zero,zero
    6164:	3c1249f5 	lui	s2,0x49f5
    6168:	3652abe6 	ori	s2,s2,0xabe6
    616c:	00000000 	nop
    6170:	3c14056b 	lui	s4,0x56b
    6174:	36944fe2 	ori	s4,s4,0x4fe2
    6178:	16140c81 	bne	s0,s4,9380 <inst_error>
    617c:	00000000 	nop
    6180:	00000000 	nop
    6184:	3c1549f5 	lui	s5,0x49f5
    6188:	36b5abe6 	ori	s5,s5,0xabe6
    618c:	16550c7c 	bne	s2,s5,9380 <inst_error>
    6190:	00000000 	nop
    6194:	00000000 	nop
    6198:	3c0c2324 	lui	t4,0x2324
    619c:	358c0c39 	ori	t4,t4,0xc39
    61a0:	3c0d7944 	lui	t5,0x7944
    61a4:	35adbbb0 	ori	t5,t5,0xbbb0
    61a8:	24100000 	li	s0,0
    61ac:	10000012 	b	61f8 <n33_blez_test+0x61f8>
    61b0:	24120000 	li	s2,0
    61b4:	00000000 	nop
    61b8:	3c102324 	lui	s0,0x2324
    61bc:	19000019 	blez	t0,6224 <n33_blez_test+0x6224>
    61c0:	36100c39 	ori	s0,s0,0xc39
    61c4:	10000019 	b	622c <n33_blez_test+0x622c>
    61c8:	00000000 	nop
    61cc:	00000000 	nop
    61d0:	00000021 	move	zero,zero
    61d4:	00000021 	move	zero,zero
    61d8:	00000021 	move	zero,zero
    61dc:	00000021 	move	zero,zero
    61e0:	00000021 	move	zero,zero
    61e4:	00000021 	move	zero,zero
    61e8:	00000021 	move	zero,zero
    61ec:	00000021 	move	zero,zero
    61f0:	00000021 	move	zero,zero
    61f4:	00000021 	move	zero,zero
    61f8:	3c08138b 	lui	t0,0x138b
    61fc:	3508c958 	ori	t0,t0,0xc958
    6200:	1900ffed 	blez	t0,61b8 <n33_blez_test+0x61b8>
    6204:	00000000 	nop
    6208:	10000008 	b	622c <n33_blez_test+0x622c>
    620c:	00000000 	nop
    6210:	00000000 	nop
    6214:	00000021 	move	zero,zero
    6218:	00000021 	move	zero,zero
    621c:	00000021 	move	zero,zero
    6220:	00000021 	move	zero,zero
    6224:	3c127944 	lui	s2,0x7944
    6228:	3652bbb0 	ori	s2,s2,0xbbb0
    622c:	00000000 	nop
    6230:	24140000 	li	s4,0
    6234:	16140c52 	bne	s0,s4,9380 <inst_error>
    6238:	00000000 	nop
    623c:	00000000 	nop
    6240:	24150000 	li	s5,0
    6244:	16550c4e 	bne	s2,s5,9380 <inst_error>
    6248:	00000000 	nop
    624c:	00000000 	nop
    6250:	3c0cc40b 	lui	t4,0xc40b
    6254:	358c105f 	ori	t4,t4,0x105f
    6258:	3c0daeb9 	lui	t5,0xaeb9
    625c:	35ad27cc 	ori	t5,t5,0x27cc
    6260:	24100000 	li	s0,0
    6264:	10000012 	b	62b0 <n33_blez_test+0x62b0>
    6268:	24120000 	li	s2,0
    626c:	00000000 	nop
    6270:	3c10c40b 	lui	s0,0xc40b
    6274:	19000019 	blez	t0,62dc <n33_blez_test+0x62dc>
    6278:	3610105f 	ori	s0,s0,0x105f
    627c:	10000019 	b	62e4 <n33_blez_test+0x62e4>
    6280:	00000000 	nop
    6284:	00000000 	nop
    6288:	00000021 	move	zero,zero
    628c:	00000021 	move	zero,zero
    6290:	00000021 	move	zero,zero
    6294:	00000021 	move	zero,zero
    6298:	00000021 	move	zero,zero
    629c:	00000021 	move	zero,zero
    62a0:	00000021 	move	zero,zero
    62a4:	00000021 	move	zero,zero
    62a8:	00000021 	move	zero,zero
    62ac:	00000021 	move	zero,zero
    62b0:	3c084b6e 	lui	t0,0x4b6e
    62b4:	35082452 	ori	t0,t0,0x2452
    62b8:	1900ffed 	blez	t0,6270 <n33_blez_test+0x6270>
    62bc:	00000000 	nop
    62c0:	10000008 	b	62e4 <n33_blez_test+0x62e4>
    62c4:	00000000 	nop
    62c8:	00000000 	nop
    62cc:	00000021 	move	zero,zero
    62d0:	00000021 	move	zero,zero
    62d4:	00000021 	move	zero,zero
    62d8:	00000021 	move	zero,zero
    62dc:	3c12aeb9 	lui	s2,0xaeb9
    62e0:	365227cc 	ori	s2,s2,0x27cc
    62e4:	00000000 	nop
    62e8:	24140000 	li	s4,0
    62ec:	16140c24 	bne	s0,s4,9380 <inst_error>
    62f0:	00000000 	nop
    62f4:	00000000 	nop
    62f8:	24150000 	li	s5,0
    62fc:	16550c20 	bne	s2,s5,9380 <inst_error>
    6300:	00000000 	nop
    6304:	00000000 	nop
    6308:	3c0cd55e 	lui	t4,0xd55e
    630c:	358cf4f0 	ori	t4,t4,0xf4f0
    6310:	3c0d3eff 	lui	t5,0x3eff
    6314:	35add5dd 	ori	t5,t5,0xd5dd
    6318:	24100000 	li	s0,0
    631c:	10000012 	b	6368 <n33_blez_test+0x6368>
    6320:	24120000 	li	s2,0
    6324:	00000000 	nop
    6328:	3c10d55e 	lui	s0,0xd55e
    632c:	19000019 	blez	t0,6394 <n33_blez_test+0x6394>
    6330:	3610f4f0 	ori	s0,s0,0xf4f0
    6334:	10000019 	b	639c <n33_blez_test+0x639c>
    6338:	00000000 	nop
    633c:	00000000 	nop
    6340:	00000021 	move	zero,zero
    6344:	00000021 	move	zero,zero
    6348:	00000021 	move	zero,zero
    634c:	00000021 	move	zero,zero
    6350:	00000021 	move	zero,zero
    6354:	00000021 	move	zero,zero
    6358:	00000021 	move	zero,zero
    635c:	00000021 	move	zero,zero
    6360:	00000021 	move	zero,zero
    6364:	00000021 	move	zero,zero
    6368:	3c08e77d 	lui	t0,0xe77d
    636c:	3508d0e0 	ori	t0,t0,0xd0e0
    6370:	1900ffed 	blez	t0,6328 <n33_blez_test+0x6328>
    6374:	00000000 	nop
    6378:	10000008 	b	639c <n33_blez_test+0x639c>
    637c:	00000000 	nop
    6380:	00000000 	nop
    6384:	00000021 	move	zero,zero
    6388:	00000021 	move	zero,zero
    638c:	00000021 	move	zero,zero
    6390:	00000021 	move	zero,zero
    6394:	3c123eff 	lui	s2,0x3eff
    6398:	3652d5dd 	ori	s2,s2,0xd5dd
    639c:	00000000 	nop
    63a0:	3c14d55e 	lui	s4,0xd55e
    63a4:	3694f4f0 	ori	s4,s4,0xf4f0
    63a8:	16140bf5 	bne	s0,s4,9380 <inst_error>
    63ac:	00000000 	nop
    63b0:	00000000 	nop
    63b4:	3c153eff 	lui	s5,0x3eff
    63b8:	36b5d5dd 	ori	s5,s5,0xd5dd
    63bc:	16550bf0 	bne	s2,s5,9380 <inst_error>
    63c0:	00000000 	nop
    63c4:	00000000 	nop
    63c8:	3c0c2d2f 	lui	t4,0x2d2f
    63cc:	358cade4 	ori	t4,t4,0xade4
    63d0:	3c0d0d72 	lui	t5,0xd72
    63d4:	35ad1da1 	ori	t5,t5,0x1da1
    63d8:	24100000 	li	s0,0
    63dc:	10000012 	b	6428 <n33_blez_test+0x6428>
    63e0:	24120000 	li	s2,0
    63e4:	00000000 	nop
    63e8:	3c102d2f 	lui	s0,0x2d2f
    63ec:	19000019 	blez	t0,6454 <n33_blez_test+0x6454>
    63f0:	3610ade4 	ori	s0,s0,0xade4
    63f4:	10000019 	b	645c <n33_blez_test+0x645c>
    63f8:	00000000 	nop
    63fc:	00000000 	nop
    6400:	00000021 	move	zero,zero
    6404:	00000021 	move	zero,zero
    6408:	00000021 	move	zero,zero
    640c:	00000021 	move	zero,zero
    6410:	00000021 	move	zero,zero
    6414:	00000021 	move	zero,zero
    6418:	00000021 	move	zero,zero
    641c:	00000021 	move	zero,zero
    6420:	00000021 	move	zero,zero
    6424:	00000021 	move	zero,zero
    6428:	3c08d51d 	lui	t0,0xd51d
    642c:	35080a50 	ori	t0,t0,0xa50
    6430:	1900ffed 	blez	t0,63e8 <n33_blez_test+0x63e8>
    6434:	00000000 	nop
    6438:	10000008 	b	645c <n33_blez_test+0x645c>
    643c:	00000000 	nop
    6440:	00000000 	nop
    6444:	00000021 	move	zero,zero
    6448:	00000021 	move	zero,zero
    644c:	00000021 	move	zero,zero
    6450:	00000021 	move	zero,zero
    6454:	3c120d72 	lui	s2,0xd72
    6458:	36521da1 	ori	s2,s2,0x1da1
    645c:	00000000 	nop
    6460:	3c142d2f 	lui	s4,0x2d2f
    6464:	3694ade4 	ori	s4,s4,0xade4
    6468:	16140bc5 	bne	s0,s4,9380 <inst_error>
    646c:	00000000 	nop
    6470:	00000000 	nop
    6474:	3c150d72 	lui	s5,0xd72
    6478:	36b51da1 	ori	s5,s5,0x1da1
    647c:	16550bc0 	bne	s2,s5,9380 <inst_error>
    6480:	00000000 	nop
    6484:	00000000 	nop
    6488:	3c0cf931 	lui	t4,0xf931
    648c:	358cb650 	ori	t4,t4,0xb650
    6490:	3c0dcd9c 	lui	t5,0xcd9c
    6494:	35addb8a 	ori	t5,t5,0xdb8a
    6498:	24100000 	li	s0,0
    649c:	10000012 	b	64e8 <n33_blez_test+0x64e8>
    64a0:	24120000 	li	s2,0
    64a4:	00000000 	nop
    64a8:	3c10f931 	lui	s0,0xf931
    64ac:	19000019 	blez	t0,6514 <n33_blez_test+0x6514>
    64b0:	3610b650 	ori	s0,s0,0xb650
    64b4:	10000019 	b	651c <n33_blez_test+0x651c>
    64b8:	00000000 	nop
    64bc:	00000000 	nop
    64c0:	00000021 	move	zero,zero
    64c4:	00000021 	move	zero,zero
    64c8:	00000021 	move	zero,zero
    64cc:	00000021 	move	zero,zero
    64d0:	00000021 	move	zero,zero
    64d4:	00000021 	move	zero,zero
    64d8:	00000021 	move	zero,zero
    64dc:	00000021 	move	zero,zero
    64e0:	00000021 	move	zero,zero
    64e4:	00000021 	move	zero,zero
    64e8:	3c08520e 	lui	t0,0x520e
    64ec:	35086cdd 	ori	t0,t0,0x6cdd
    64f0:	1900ffed 	blez	t0,64a8 <n33_blez_test+0x64a8>
    64f4:	00000000 	nop
    64f8:	10000008 	b	651c <n33_blez_test+0x651c>
    64fc:	00000000 	nop
    6500:	00000000 	nop
    6504:	00000021 	move	zero,zero
    6508:	00000021 	move	zero,zero
    650c:	00000021 	move	zero,zero
    6510:	00000021 	move	zero,zero
    6514:	3c12cd9c 	lui	s2,0xcd9c
    6518:	3652db8a 	ori	s2,s2,0xdb8a
    651c:	00000000 	nop
    6520:	24140000 	li	s4,0
    6524:	16140b96 	bne	s0,s4,9380 <inst_error>
    6528:	00000000 	nop
    652c:	00000000 	nop
    6530:	24150000 	li	s5,0
    6534:	16550b92 	bne	s2,s5,9380 <inst_error>
    6538:	00000000 	nop
    653c:	00000000 	nop
    6540:	3c0c1062 	lui	t4,0x1062
    6544:	358ce6de 	ori	t4,t4,0xe6de
    6548:	3c0df0a4 	lui	t5,0xf0a4
    654c:	35ad8a34 	ori	t5,t5,0x8a34
    6550:	24100000 	li	s0,0
    6554:	10000012 	b	65a0 <n33_blez_test+0x65a0>
    6558:	24120000 	li	s2,0
    655c:	00000000 	nop
    6560:	3c101062 	lui	s0,0x1062
    6564:	19000019 	blez	t0,65cc <n33_blez_test+0x65cc>
    6568:	3610e6de 	ori	s0,s0,0xe6de
    656c:	10000019 	b	65d4 <n33_blez_test+0x65d4>
    6570:	00000000 	nop
    6574:	00000000 	nop
    6578:	00000021 	move	zero,zero
    657c:	00000021 	move	zero,zero
    6580:	00000021 	move	zero,zero
    6584:	00000021 	move	zero,zero
    6588:	00000021 	move	zero,zero
    658c:	00000021 	move	zero,zero
    6590:	00000021 	move	zero,zero
    6594:	00000021 	move	zero,zero
    6598:	00000021 	move	zero,zero
    659c:	00000021 	move	zero,zero
    65a0:	3c08a0c7 	lui	t0,0xa0c7
    65a4:	3508dbb0 	ori	t0,t0,0xdbb0
    65a8:	1900ffed 	blez	t0,6560 <n33_blez_test+0x6560>
    65ac:	00000000 	nop
    65b0:	10000008 	b	65d4 <n33_blez_test+0x65d4>
    65b4:	00000000 	nop
    65b8:	00000000 	nop
    65bc:	00000021 	move	zero,zero
    65c0:	00000021 	move	zero,zero
    65c4:	00000021 	move	zero,zero
    65c8:	00000021 	move	zero,zero
    65cc:	3c12f0a4 	lui	s2,0xf0a4
    65d0:	36528a34 	ori	s2,s2,0x8a34
    65d4:	00000000 	nop
    65d8:	3c141062 	lui	s4,0x1062
    65dc:	3694e6de 	ori	s4,s4,0xe6de
    65e0:	16140b67 	bne	s0,s4,9380 <inst_error>
    65e4:	00000000 	nop
    65e8:	00000000 	nop
    65ec:	3c15f0a4 	lui	s5,0xf0a4
    65f0:	36b58a34 	ori	s5,s5,0x8a34
    65f4:	16550b62 	bne	s2,s5,9380 <inst_error>
    65f8:	00000000 	nop
    65fc:	00000000 	nop
    6600:	3c0c3845 	lui	t4,0x3845
    6604:	358c6eec 	ori	t4,t4,0x6eec
    6608:	3c0d472d 	lui	t5,0x472d
    660c:	35adb7c1 	ori	t5,t5,0xb7c1
    6610:	24100000 	li	s0,0
    6614:	10000012 	b	6660 <n33_blez_test+0x6660>
    6618:	24120000 	li	s2,0
    661c:	00000000 	nop
    6620:	3c103845 	lui	s0,0x3845
    6624:	19000019 	blez	t0,668c <n33_blez_test+0x668c>
    6628:	36106eec 	ori	s0,s0,0x6eec
    662c:	10000019 	b	6694 <n33_blez_test+0x6694>
    6630:	00000000 	nop
    6634:	00000000 	nop
    6638:	00000021 	move	zero,zero
    663c:	00000021 	move	zero,zero
    6640:	00000021 	move	zero,zero
    6644:	00000021 	move	zero,zero
    6648:	00000021 	move	zero,zero
    664c:	00000021 	move	zero,zero
    6650:	00000021 	move	zero,zero
    6654:	00000021 	move	zero,zero
    6658:	00000021 	move	zero,zero
    665c:	00000021 	move	zero,zero
    6660:	3c08ae6b 	lui	t0,0xae6b
    6664:	3508eae0 	ori	t0,t0,0xeae0
    6668:	1900ffed 	blez	t0,6620 <n33_blez_test+0x6620>
    666c:	00000000 	nop
    6670:	10000008 	b	6694 <n33_blez_test+0x6694>
    6674:	00000000 	nop
    6678:	00000000 	nop
    667c:	00000021 	move	zero,zero
    6680:	00000021 	move	zero,zero
    6684:	00000021 	move	zero,zero
    6688:	00000021 	move	zero,zero
    668c:	3c12472d 	lui	s2,0x472d
    6690:	3652b7c1 	ori	s2,s2,0xb7c1
    6694:	00000000 	nop
    6698:	3c143845 	lui	s4,0x3845
    669c:	36946eec 	ori	s4,s4,0x6eec
    66a0:	16140b37 	bne	s0,s4,9380 <inst_error>
    66a4:	00000000 	nop
    66a8:	00000000 	nop
    66ac:	3c15472d 	lui	s5,0x472d
    66b0:	36b5b7c1 	ori	s5,s5,0xb7c1
    66b4:	16550b32 	bne	s2,s5,9380 <inst_error>
    66b8:	00000000 	nop
    66bc:	00000000 	nop
    66c0:	3c0cd4e1 	lui	t4,0xd4e1
    66c4:	358c944a 	ori	t4,t4,0x944a
    66c8:	3c0d5174 	lui	t5,0x5174
    66cc:	35adeba4 	ori	t5,t5,0xeba4
    66d0:	24100000 	li	s0,0
    66d4:	10000012 	b	6720 <n33_blez_test+0x6720>
    66d8:	24120000 	li	s2,0
    66dc:	00000000 	nop
    66e0:	3c10d4e1 	lui	s0,0xd4e1
    66e4:	19000019 	blez	t0,674c <n33_blez_test+0x674c>
    66e8:	3610944a 	ori	s0,s0,0x944a
    66ec:	10000019 	b	6754 <n33_blez_test+0x6754>
    66f0:	00000000 	nop
    66f4:	00000000 	nop
    66f8:	00000021 	move	zero,zero
    66fc:	00000021 	move	zero,zero
    6700:	00000021 	move	zero,zero
    6704:	00000021 	move	zero,zero
    6708:	00000021 	move	zero,zero
    670c:	00000021 	move	zero,zero
    6710:	00000021 	move	zero,zero
    6714:	00000021 	move	zero,zero
    6718:	00000021 	move	zero,zero
    671c:	00000021 	move	zero,zero
    6720:	3c082ef8 	lui	t0,0x2ef8
    6724:	35088884 	ori	t0,t0,0x8884
    6728:	1900ffed 	blez	t0,66e0 <n33_blez_test+0x66e0>
    672c:	00000000 	nop
    6730:	10000008 	b	6754 <n33_blez_test+0x6754>
    6734:	00000000 	nop
    6738:	00000000 	nop
    673c:	00000021 	move	zero,zero
    6740:	00000021 	move	zero,zero
    6744:	00000021 	move	zero,zero
    6748:	00000021 	move	zero,zero
    674c:	3c125174 	lui	s2,0x5174
    6750:	3652eba4 	ori	s2,s2,0xeba4
    6754:	00000000 	nop
    6758:	24140000 	li	s4,0
    675c:	16140b08 	bne	s0,s4,9380 <inst_error>
    6760:	00000000 	nop
    6764:	00000000 	nop
    6768:	24150000 	li	s5,0
    676c:	16550b04 	bne	s2,s5,9380 <inst_error>
    6770:	00000000 	nop
    6774:	00000000 	nop
    6778:	3c0c96d0 	lui	t4,0x96d0
    677c:	358c634c 	ori	t4,t4,0x634c
    6780:	3c0da2f2 	lui	t5,0xa2f2
    6784:	35adbe02 	ori	t5,t5,0xbe02
    6788:	24100000 	li	s0,0
    678c:	10000012 	b	67d8 <n33_blez_test+0x67d8>
    6790:	24120000 	li	s2,0
    6794:	00000000 	nop
    6798:	3c1096d0 	lui	s0,0x96d0
    679c:	19000019 	blez	t0,6804 <n33_blez_test+0x6804>
    67a0:	3610634c 	ori	s0,s0,0x634c
    67a4:	10000019 	b	680c <n33_blez_test+0x680c>
    67a8:	00000000 	nop
    67ac:	00000000 	nop
    67b0:	00000021 	move	zero,zero
    67b4:	00000021 	move	zero,zero
    67b8:	00000021 	move	zero,zero
    67bc:	00000021 	move	zero,zero
    67c0:	00000021 	move	zero,zero
    67c4:	00000021 	move	zero,zero
    67c8:	00000021 	move	zero,zero
    67cc:	00000021 	move	zero,zero
    67d0:	00000021 	move	zero,zero
    67d4:	00000021 	move	zero,zero
    67d8:	3c082a1d 	lui	t0,0x2a1d
    67dc:	3508efe0 	ori	t0,t0,0xefe0
    67e0:	1900ffed 	blez	t0,6798 <n33_blez_test+0x6798>
    67e4:	00000000 	nop
    67e8:	10000008 	b	680c <n33_blez_test+0x680c>
    67ec:	00000000 	nop
    67f0:	00000000 	nop
    67f4:	00000021 	move	zero,zero
    67f8:	00000021 	move	zero,zero
    67fc:	00000021 	move	zero,zero
    6800:	00000021 	move	zero,zero
    6804:	3c12a2f2 	lui	s2,0xa2f2
    6808:	3652be02 	ori	s2,s2,0xbe02
    680c:	00000000 	nop
    6810:	24140000 	li	s4,0
    6814:	16140ada 	bne	s0,s4,9380 <inst_error>
    6818:	00000000 	nop
    681c:	00000000 	nop
    6820:	24150000 	li	s5,0
    6824:	16550ad6 	bne	s2,s5,9380 <inst_error>
    6828:	00000000 	nop
    682c:	00000000 	nop
    6830:	3c0c71b3 	lui	t4,0x71b3
    6834:	358cc7cc 	ori	t4,t4,0xc7cc
    6838:	3c0d89f3 	lui	t5,0x89f3
    683c:	35ad48b8 	ori	t5,t5,0x48b8
    6840:	24100000 	li	s0,0
    6844:	10000012 	b	6890 <n33_blez_test+0x6890>
    6848:	24120000 	li	s2,0
    684c:	00000000 	nop
    6850:	3c1071b3 	lui	s0,0x71b3
    6854:	19000019 	blez	t0,68bc <n33_blez_test+0x68bc>
    6858:	3610c7cc 	ori	s0,s0,0xc7cc
    685c:	10000019 	b	68c4 <n33_blez_test+0x68c4>
    6860:	00000000 	nop
    6864:	00000000 	nop
    6868:	00000021 	move	zero,zero
    686c:	00000021 	move	zero,zero
    6870:	00000021 	move	zero,zero
    6874:	00000021 	move	zero,zero
    6878:	00000021 	move	zero,zero
    687c:	00000021 	move	zero,zero
    6880:	00000021 	move	zero,zero
    6884:	00000021 	move	zero,zero
    6888:	00000021 	move	zero,zero
    688c:	00000021 	move	zero,zero
    6890:	3c08a9bb 	lui	t0,0xa9bb
    6894:	3508b9e0 	ori	t0,t0,0xb9e0
    6898:	1900ffed 	blez	t0,6850 <n33_blez_test+0x6850>
    689c:	00000000 	nop
    68a0:	10000008 	b	68c4 <n33_blez_test+0x68c4>
    68a4:	00000000 	nop
    68a8:	00000000 	nop
    68ac:	00000021 	move	zero,zero
    68b0:	00000021 	move	zero,zero
    68b4:	00000021 	move	zero,zero
    68b8:	00000021 	move	zero,zero
    68bc:	3c1289f3 	lui	s2,0x89f3
    68c0:	365248b8 	ori	s2,s2,0x48b8
    68c4:	00000000 	nop
    68c8:	3c1471b3 	lui	s4,0x71b3
    68cc:	3694c7cc 	ori	s4,s4,0xc7cc
    68d0:	16140aab 	bne	s0,s4,9380 <inst_error>
    68d4:	00000000 	nop
    68d8:	00000000 	nop
    68dc:	3c1589f3 	lui	s5,0x89f3
    68e0:	36b548b8 	ori	s5,s5,0x48b8
    68e4:	16550aa6 	bne	s2,s5,9380 <inst_error>
    68e8:	00000000 	nop
    68ec:	00000000 	nop
    68f0:	3c0ccd65 	lui	t4,0xcd65
    68f4:	358c20c8 	ori	t4,t4,0x20c8
    68f8:	3c0db1ce 	lui	t5,0xb1ce
    68fc:	35adff00 	ori	t5,t5,0xff00
    6900:	24100000 	li	s0,0
    6904:	10000012 	b	6950 <n33_blez_test+0x6950>
    6908:	24120000 	li	s2,0
    690c:	00000000 	nop
    6910:	3c10cd65 	lui	s0,0xcd65
    6914:	19000019 	blez	t0,697c <n33_blez_test+0x697c>
    6918:	361020c8 	ori	s0,s0,0x20c8
    691c:	10000019 	b	6984 <n33_blez_test+0x6984>
    6920:	00000000 	nop
    6924:	00000000 	nop
    6928:	00000021 	move	zero,zero
    692c:	00000021 	move	zero,zero
    6930:	00000021 	move	zero,zero
    6934:	00000021 	move	zero,zero
    6938:	00000021 	move	zero,zero
    693c:	00000021 	move	zero,zero
    6940:	00000021 	move	zero,zero
    6944:	00000021 	move	zero,zero
    6948:	00000021 	move	zero,zero
    694c:	00000021 	move	zero,zero
    6950:	3c08a854 	lui	t0,0xa854
    6954:	35089800 	ori	t0,t0,0x9800
    6958:	1900ffed 	blez	t0,6910 <n33_blez_test+0x6910>
    695c:	00000000 	nop
    6960:	10000008 	b	6984 <n33_blez_test+0x6984>
    6964:	00000000 	nop
    6968:	00000000 	nop
    696c:	00000021 	move	zero,zero
    6970:	00000021 	move	zero,zero
    6974:	00000021 	move	zero,zero
    6978:	00000021 	move	zero,zero
    697c:	3c12b1ce 	lui	s2,0xb1ce
    6980:	3652ff00 	ori	s2,s2,0xff00
    6984:	00000000 	nop
    6988:	3c14cd65 	lui	s4,0xcd65
    698c:	369420c8 	ori	s4,s4,0x20c8
    6990:	16140a7b 	bne	s0,s4,9380 <inst_error>
    6994:	00000000 	nop
    6998:	00000000 	nop
    699c:	3c15b1ce 	lui	s5,0xb1ce
    69a0:	36b5ff00 	ori	s5,s5,0xff00
    69a4:	16550a76 	bne	s2,s5,9380 <inst_error>
    69a8:	00000000 	nop
    69ac:	00000000 	nop
    69b0:	3c0c223e 	lui	t4,0x223e
    69b4:	358c2ce3 	ori	t4,t4,0x2ce3
    69b8:	3c0dcb32 	lui	t5,0xcb32
    69bc:	35adecfc 	ori	t5,t5,0xecfc
    69c0:	24100000 	li	s0,0
    69c4:	10000012 	b	6a10 <n33_blez_test+0x6a10>
    69c8:	24120000 	li	s2,0
    69cc:	00000000 	nop
    69d0:	3c10223e 	lui	s0,0x223e
    69d4:	19000019 	blez	t0,6a3c <n33_blez_test+0x6a3c>
    69d8:	36102ce3 	ori	s0,s0,0x2ce3
    69dc:	10000019 	b	6a44 <n33_blez_test+0x6a44>
    69e0:	00000000 	nop
    69e4:	00000000 	nop
    69e8:	00000021 	move	zero,zero
    69ec:	00000021 	move	zero,zero
    69f0:	00000021 	move	zero,zero
    69f4:	00000021 	move	zero,zero
    69f8:	00000021 	move	zero,zero
    69fc:	00000021 	move	zero,zero
    6a00:	00000021 	move	zero,zero
    6a04:	00000021 	move	zero,zero
    6a08:	00000021 	move	zero,zero
    6a0c:	00000021 	move	zero,zero
    6a10:	3c08b80d 	lui	t0,0xb80d
    6a14:	35088e28 	ori	t0,t0,0x8e28
    6a18:	1900ffed 	blez	t0,69d0 <n33_blez_test+0x69d0>
    6a1c:	00000000 	nop
    6a20:	10000008 	b	6a44 <n33_blez_test+0x6a44>
    6a24:	00000000 	nop
    6a28:	00000000 	nop
    6a2c:	00000021 	move	zero,zero
    6a30:	00000021 	move	zero,zero
    6a34:	00000021 	move	zero,zero
    6a38:	00000021 	move	zero,zero
    6a3c:	3c12cb32 	lui	s2,0xcb32
    6a40:	3652ecfc 	ori	s2,s2,0xecfc
    6a44:	00000000 	nop
    6a48:	3c14223e 	lui	s4,0x223e
    6a4c:	36942ce3 	ori	s4,s4,0x2ce3
    6a50:	16140a4b 	bne	s0,s4,9380 <inst_error>
    6a54:	00000000 	nop
    6a58:	00000000 	nop
    6a5c:	3c15cb32 	lui	s5,0xcb32
    6a60:	36b5ecfc 	ori	s5,s5,0xecfc
    6a64:	16550a46 	bne	s2,s5,9380 <inst_error>
    6a68:	00000000 	nop
    6a6c:	00000000 	nop
    6a70:	3c0c72fa 	lui	t4,0x72fa
    6a74:	358c6330 	ori	t4,t4,0x6330
    6a78:	3c0d25d2 	lui	t5,0x25d2
    6a7c:	35ad801a 	ori	t5,t5,0x801a
    6a80:	24100000 	li	s0,0
    6a84:	10000012 	b	6ad0 <n33_blez_test+0x6ad0>
    6a88:	24120000 	li	s2,0
    6a8c:	00000000 	nop
    6a90:	3c1072fa 	lui	s0,0x72fa
    6a94:	19000019 	blez	t0,6afc <n33_blez_test+0x6afc>
    6a98:	36106330 	ori	s0,s0,0x6330
    6a9c:	10000019 	b	6b04 <n33_blez_test+0x6b04>
    6aa0:	00000000 	nop
    6aa4:	00000000 	nop
    6aa8:	00000021 	move	zero,zero
    6aac:	00000021 	move	zero,zero
    6ab0:	00000021 	move	zero,zero
    6ab4:	00000021 	move	zero,zero
    6ab8:	00000021 	move	zero,zero
    6abc:	00000021 	move	zero,zero
    6ac0:	00000021 	move	zero,zero
    6ac4:	00000021 	move	zero,zero
    6ac8:	00000021 	move	zero,zero
    6acc:	00000021 	move	zero,zero
    6ad0:	3c088635 	lui	t0,0x8635
    6ad4:	3508f602 	ori	t0,t0,0xf602
    6ad8:	1900ffed 	blez	t0,6a90 <n33_blez_test+0x6a90>
    6adc:	00000000 	nop
    6ae0:	10000008 	b	6b04 <n33_blez_test+0x6b04>
    6ae4:	00000000 	nop
    6ae8:	00000000 	nop
    6aec:	00000021 	move	zero,zero
    6af0:	00000021 	move	zero,zero
    6af4:	00000021 	move	zero,zero
    6af8:	00000021 	move	zero,zero
    6afc:	3c1225d2 	lui	s2,0x25d2
    6b00:	3652801a 	ori	s2,s2,0x801a
    6b04:	00000000 	nop
    6b08:	3c1472fa 	lui	s4,0x72fa
    6b0c:	36946330 	ori	s4,s4,0x6330
    6b10:	16140a1b 	bne	s0,s4,9380 <inst_error>
    6b14:	00000000 	nop
    6b18:	00000000 	nop
    6b1c:	3c1525d2 	lui	s5,0x25d2
    6b20:	36b5801a 	ori	s5,s5,0x801a
    6b24:	16550a16 	bne	s2,s5,9380 <inst_error>
    6b28:	00000000 	nop
    6b2c:	00000000 	nop
    6b30:	3c0c2de6 	lui	t4,0x2de6
    6b34:	358cfb00 	ori	t4,t4,0xfb00
    6b38:	3c0dc14a 	lui	t5,0xc14a
    6b3c:	35ad318a 	ori	t5,t5,0x318a
    6b40:	24100000 	li	s0,0
    6b44:	10000012 	b	6b90 <n33_blez_test+0x6b90>
    6b48:	24120000 	li	s2,0
    6b4c:	00000000 	nop
    6b50:	3c102de6 	lui	s0,0x2de6
    6b54:	19000019 	blez	t0,6bbc <n33_blez_test+0x6bbc>
    6b58:	3610fb00 	ori	s0,s0,0xfb00
    6b5c:	10000019 	b	6bc4 <n33_blez_test+0x6bc4>
    6b60:	00000000 	nop
    6b64:	00000000 	nop
    6b68:	00000021 	move	zero,zero
    6b6c:	00000021 	move	zero,zero
    6b70:	00000021 	move	zero,zero
    6b74:	00000021 	move	zero,zero
    6b78:	00000021 	move	zero,zero
    6b7c:	00000021 	move	zero,zero
    6b80:	00000021 	move	zero,zero
    6b84:	00000021 	move	zero,zero
    6b88:	00000021 	move	zero,zero
    6b8c:	00000021 	move	zero,zero
    6b90:	3c08a090 	lui	t0,0xa090
    6b94:	3508c24a 	ori	t0,t0,0xc24a
    6b98:	1900ffed 	blez	t0,6b50 <n33_blez_test+0x6b50>
    6b9c:	00000000 	nop
    6ba0:	10000008 	b	6bc4 <n33_blez_test+0x6bc4>
    6ba4:	00000000 	nop
    6ba8:	00000000 	nop
    6bac:	00000021 	move	zero,zero
    6bb0:	00000021 	move	zero,zero
    6bb4:	00000021 	move	zero,zero
    6bb8:	00000021 	move	zero,zero
    6bbc:	3c12c14a 	lui	s2,0xc14a
    6bc0:	3652318a 	ori	s2,s2,0x318a
    6bc4:	00000000 	nop
    6bc8:	3c142de6 	lui	s4,0x2de6
    6bcc:	3694fb00 	ori	s4,s4,0xfb00
    6bd0:	161409eb 	bne	s0,s4,9380 <inst_error>
    6bd4:	00000000 	nop
    6bd8:	00000000 	nop
    6bdc:	3c15c14a 	lui	s5,0xc14a
    6be0:	36b5318a 	ori	s5,s5,0x318a
    6be4:	165509e6 	bne	s2,s5,9380 <inst_error>
    6be8:	00000000 	nop
    6bec:	00000000 	nop
    6bf0:	3c0c0774 	lui	t4,0x774
    6bf4:	358cf390 	ori	t4,t4,0xf390
    6bf8:	3c0d73c6 	lui	t5,0x73c6
    6bfc:	35ad4745 	ori	t5,t5,0x4745
    6c00:	24100000 	li	s0,0
    6c04:	10000012 	b	6c50 <n33_blez_test+0x6c50>
    6c08:	24120000 	li	s2,0
    6c0c:	00000000 	nop
    6c10:	3c100774 	lui	s0,0x774
    6c14:	19000019 	blez	t0,6c7c <n33_blez_test+0x6c7c>
    6c18:	3610f390 	ori	s0,s0,0xf390
    6c1c:	10000019 	b	6c84 <n33_blez_test+0x6c84>
    6c20:	00000000 	nop
    6c24:	00000000 	nop
    6c28:	00000021 	move	zero,zero
    6c2c:	00000021 	move	zero,zero
    6c30:	00000021 	move	zero,zero
    6c34:	00000021 	move	zero,zero
    6c38:	00000021 	move	zero,zero
    6c3c:	00000021 	move	zero,zero
    6c40:	00000021 	move	zero,zero
    6c44:	00000021 	move	zero,zero
    6c48:	00000021 	move	zero,zero
    6c4c:	00000021 	move	zero,zero
    6c50:	3c08bc55 	lui	t0,0xbc55
    6c54:	35087042 	ori	t0,t0,0x7042
    6c58:	1900ffed 	blez	t0,6c10 <n33_blez_test+0x6c10>
    6c5c:	00000000 	nop
    6c60:	10000008 	b	6c84 <n33_blez_test+0x6c84>
    6c64:	00000000 	nop
    6c68:	00000000 	nop
    6c6c:	00000021 	move	zero,zero
    6c70:	00000021 	move	zero,zero
    6c74:	00000021 	move	zero,zero
    6c78:	00000021 	move	zero,zero
    6c7c:	3c1273c6 	lui	s2,0x73c6
    6c80:	36524745 	ori	s2,s2,0x4745
    6c84:	00000000 	nop
    6c88:	3c140774 	lui	s4,0x774
    6c8c:	3694f390 	ori	s4,s4,0xf390
    6c90:	161409bb 	bne	s0,s4,9380 <inst_error>
    6c94:	00000000 	nop
    6c98:	00000000 	nop
    6c9c:	3c1573c6 	lui	s5,0x73c6
    6ca0:	36b54745 	ori	s5,s5,0x4745
    6ca4:	165509b6 	bne	s2,s5,9380 <inst_error>
    6ca8:	00000000 	nop
    6cac:	00000000 	nop
    6cb0:	3c0c8a3b 	lui	t4,0x8a3b
    6cb4:	358c6daa 	ori	t4,t4,0x6daa
    6cb8:	3c0df313 	lui	t5,0xf313
    6cbc:	35ad6500 	ori	t5,t5,0x6500
    6cc0:	24100000 	li	s0,0
    6cc4:	10000012 	b	6d10 <n33_blez_test+0x6d10>
    6cc8:	24120000 	li	s2,0
    6ccc:	00000000 	nop
    6cd0:	3c108a3b 	lui	s0,0x8a3b
    6cd4:	19000019 	blez	t0,6d3c <n33_blez_test+0x6d3c>
    6cd8:	36106daa 	ori	s0,s0,0x6daa
    6cdc:	10000019 	b	6d44 <n33_blez_test+0x6d44>
    6ce0:	00000000 	nop
    6ce4:	00000000 	nop
    6ce8:	00000021 	move	zero,zero
    6cec:	00000021 	move	zero,zero
    6cf0:	00000021 	move	zero,zero
    6cf4:	00000021 	move	zero,zero
    6cf8:	00000021 	move	zero,zero
    6cfc:	00000021 	move	zero,zero
    6d00:	00000021 	move	zero,zero
    6d04:	00000021 	move	zero,zero
    6d08:	00000021 	move	zero,zero
    6d0c:	00000021 	move	zero,zero
    6d10:	3c08dae2 	lui	t0,0xdae2
    6d14:	35088800 	ori	t0,t0,0x8800
    6d18:	1900ffed 	blez	t0,6cd0 <n33_blez_test+0x6cd0>
    6d1c:	00000000 	nop
    6d20:	10000008 	b	6d44 <n33_blez_test+0x6d44>
    6d24:	00000000 	nop
    6d28:	00000000 	nop
    6d2c:	00000021 	move	zero,zero
    6d30:	00000021 	move	zero,zero
    6d34:	00000021 	move	zero,zero
    6d38:	00000021 	move	zero,zero
    6d3c:	3c12f313 	lui	s2,0xf313
    6d40:	36526500 	ori	s2,s2,0x6500
    6d44:	00000000 	nop
    6d48:	3c148a3b 	lui	s4,0x8a3b
    6d4c:	36946daa 	ori	s4,s4,0x6daa
    6d50:	1614098b 	bne	s0,s4,9380 <inst_error>
    6d54:	00000000 	nop
    6d58:	00000000 	nop
    6d5c:	3c15f313 	lui	s5,0xf313
    6d60:	36b56500 	ori	s5,s5,0x6500
    6d64:	16550986 	bne	s2,s5,9380 <inst_error>
    6d68:	00000000 	nop
    6d6c:	00000000 	nop
    6d70:	3c0ca02c 	lui	t4,0xa02c
    6d74:	358c26b6 	ori	t4,t4,0x26b6
    6d78:	3c0dfdf6 	lui	t5,0xfdf6
    6d7c:	35ad2090 	ori	t5,t5,0x2090
    6d80:	24100000 	li	s0,0
    6d84:	10000012 	b	6dd0 <n33_blez_test+0x6dd0>
    6d88:	24120000 	li	s2,0
    6d8c:	00000000 	nop
    6d90:	3c10a02c 	lui	s0,0xa02c
    6d94:	19000019 	blez	t0,6dfc <n33_blez_test+0x6dfc>
    6d98:	361026b6 	ori	s0,s0,0x26b6
    6d9c:	10000019 	b	6e04 <n33_blez_test+0x6e04>
    6da0:	00000000 	nop
    6da4:	00000000 	nop
    6da8:	00000021 	move	zero,zero
    6dac:	00000021 	move	zero,zero
    6db0:	00000021 	move	zero,zero
    6db4:	00000021 	move	zero,zero
    6db8:	00000021 	move	zero,zero
    6dbc:	00000021 	move	zero,zero
    6dc0:	00000021 	move	zero,zero
    6dc4:	00000021 	move	zero,zero
    6dc8:	00000021 	move	zero,zero
    6dcc:	00000021 	move	zero,zero
    6dd0:	3c0824a6 	lui	t0,0x24a6
    6dd4:	35082776 	ori	t0,t0,0x2776
    6dd8:	1900ffed 	blez	t0,6d90 <n33_blez_test+0x6d90>
    6ddc:	00000000 	nop
    6de0:	10000008 	b	6e04 <n33_blez_test+0x6e04>
    6de4:	00000000 	nop
    6de8:	00000000 	nop
    6dec:	00000021 	move	zero,zero
    6df0:	00000021 	move	zero,zero
    6df4:	00000021 	move	zero,zero
    6df8:	00000021 	move	zero,zero
    6dfc:	3c12fdf6 	lui	s2,0xfdf6
    6e00:	36522090 	ori	s2,s2,0x2090
    6e04:	00000000 	nop
    6e08:	24140000 	li	s4,0
    6e0c:	1614095c 	bne	s0,s4,9380 <inst_error>
    6e10:	00000000 	nop
    6e14:	00000000 	nop
    6e18:	24150000 	li	s5,0
    6e1c:	16550958 	bne	s2,s5,9380 <inst_error>
    6e20:	00000000 	nop
    6e24:	00000000 	nop
    6e28:	3c0ced77 	lui	t4,0xed77
    6e2c:	358c14b0 	ori	t4,t4,0x14b0
    6e30:	3c0d6629 	lui	t5,0x6629
    6e34:	35adee00 	ori	t5,t5,0xee00
    6e38:	24100000 	li	s0,0
    6e3c:	10000012 	b	6e88 <n33_blez_test+0x6e88>
    6e40:	24120000 	li	s2,0
    6e44:	00000000 	nop
    6e48:	3c10ed77 	lui	s0,0xed77
    6e4c:	19000019 	blez	t0,6eb4 <n33_blez_test+0x6eb4>
    6e50:	361014b0 	ori	s0,s0,0x14b0
    6e54:	10000019 	b	6ebc <n33_blez_test+0x6ebc>
    6e58:	00000000 	nop
    6e5c:	00000000 	nop
    6e60:	00000021 	move	zero,zero
    6e64:	00000021 	move	zero,zero
    6e68:	00000021 	move	zero,zero
    6e6c:	00000021 	move	zero,zero
    6e70:	00000021 	move	zero,zero
    6e74:	00000021 	move	zero,zero
    6e78:	00000021 	move	zero,zero
    6e7c:	00000021 	move	zero,zero
    6e80:	00000021 	move	zero,zero
    6e84:	00000021 	move	zero,zero
    6e88:	3c083692 	lui	t0,0x3692
    6e8c:	35085ac4 	ori	t0,t0,0x5ac4
    6e90:	1900ffed 	blez	t0,6e48 <n33_blez_test+0x6e48>
    6e94:	00000000 	nop
    6e98:	10000008 	b	6ebc <n33_blez_test+0x6ebc>
    6e9c:	00000000 	nop
    6ea0:	00000000 	nop
    6ea4:	00000021 	move	zero,zero
    6ea8:	00000021 	move	zero,zero
    6eac:	00000021 	move	zero,zero
    6eb0:	00000021 	move	zero,zero
    6eb4:	3c126629 	lui	s2,0x6629
    6eb8:	3652ee00 	ori	s2,s2,0xee00
    6ebc:	00000000 	nop
    6ec0:	24140000 	li	s4,0
    6ec4:	1614092e 	bne	s0,s4,9380 <inst_error>
    6ec8:	00000000 	nop
    6ecc:	00000000 	nop
    6ed0:	24150000 	li	s5,0
    6ed4:	1655092a 	bne	s2,s5,9380 <inst_error>
    6ed8:	00000000 	nop
    6edc:	00000000 	nop
    6ee0:	3c0c71bb 	lui	t4,0x71bb
    6ee4:	358cded0 	ori	t4,t4,0xded0
    6ee8:	3c0d3fee 	lui	t5,0x3fee
    6eec:	35ad6160 	ori	t5,t5,0x6160
    6ef0:	24100000 	li	s0,0
    6ef4:	10000012 	b	6f40 <n33_blez_test+0x6f40>
    6ef8:	24120000 	li	s2,0
    6efc:	00000000 	nop
    6f00:	3c1071bb 	lui	s0,0x71bb
    6f04:	19000019 	blez	t0,6f6c <n33_blez_test+0x6f6c>
    6f08:	3610ded0 	ori	s0,s0,0xded0
    6f0c:	10000019 	b	6f74 <n33_blez_test+0x6f74>
    6f10:	00000000 	nop
    6f14:	00000000 	nop
    6f18:	00000021 	move	zero,zero
    6f1c:	00000021 	move	zero,zero
    6f20:	00000021 	move	zero,zero
    6f24:	00000021 	move	zero,zero
    6f28:	00000021 	move	zero,zero
    6f2c:	00000021 	move	zero,zero
    6f30:	00000021 	move	zero,zero
    6f34:	00000021 	move	zero,zero
    6f38:	00000021 	move	zero,zero
    6f3c:	00000021 	move	zero,zero
    6f40:	3c0867ab 	lui	t0,0x67ab
    6f44:	3508bfc0 	ori	t0,t0,0xbfc0
    6f48:	1900ffed 	blez	t0,6f00 <n33_blez_test+0x6f00>
    6f4c:	00000000 	nop
    6f50:	10000008 	b	6f74 <n33_blez_test+0x6f74>
    6f54:	00000000 	nop
    6f58:	00000000 	nop
    6f5c:	00000021 	move	zero,zero
    6f60:	00000021 	move	zero,zero
    6f64:	00000021 	move	zero,zero
    6f68:	00000021 	move	zero,zero
    6f6c:	3c123fee 	lui	s2,0x3fee
    6f70:	36526160 	ori	s2,s2,0x6160
    6f74:	00000000 	nop
    6f78:	24140000 	li	s4,0
    6f7c:	16140900 	bne	s0,s4,9380 <inst_error>
    6f80:	00000000 	nop
    6f84:	00000000 	nop
    6f88:	24150000 	li	s5,0
    6f8c:	165508fc 	bne	s2,s5,9380 <inst_error>
    6f90:	00000000 	nop
    6f94:	00000000 	nop
    6f98:	3c0c3d8f 	lui	t4,0x3d8f
    6f9c:	358c1a8a 	ori	t4,t4,0x1a8a
    6fa0:	3c0d0441 	lui	t5,0x441
    6fa4:	35ad92d0 	ori	t5,t5,0x92d0
    6fa8:	24100000 	li	s0,0
    6fac:	10000012 	b	6ff8 <n33_blez_test+0x6ff8>
    6fb0:	24120000 	li	s2,0
    6fb4:	00000000 	nop
    6fb8:	3c103d8f 	lui	s0,0x3d8f
    6fbc:	19000019 	blez	t0,7024 <n33_blez_test+0x7024>
    6fc0:	36101a8a 	ori	s0,s0,0x1a8a
    6fc4:	10000019 	b	702c <n33_blez_test+0x702c>
    6fc8:	00000000 	nop
    6fcc:	00000000 	nop
    6fd0:	00000021 	move	zero,zero
    6fd4:	00000021 	move	zero,zero
    6fd8:	00000021 	move	zero,zero
    6fdc:	00000021 	move	zero,zero
    6fe0:	00000021 	move	zero,zero
    6fe4:	00000021 	move	zero,zero
    6fe8:	00000021 	move	zero,zero
    6fec:	00000021 	move	zero,zero
    6ff0:	00000021 	move	zero,zero
    6ff4:	00000021 	move	zero,zero
    6ff8:	3c0864bb 	lui	t0,0x64bb
    6ffc:	35080041 	ori	t0,t0,0x41
    7000:	1900ffed 	blez	t0,6fb8 <n33_blez_test+0x6fb8>
    7004:	00000000 	nop
    7008:	10000008 	b	702c <n33_blez_test+0x702c>
    700c:	00000000 	nop
    7010:	00000000 	nop
    7014:	00000021 	move	zero,zero
    7018:	00000021 	move	zero,zero
    701c:	00000021 	move	zero,zero
    7020:	00000021 	move	zero,zero
    7024:	3c120441 	lui	s2,0x441
    7028:	365292d0 	ori	s2,s2,0x92d0
    702c:	00000000 	nop
    7030:	24140000 	li	s4,0
    7034:	161408d2 	bne	s0,s4,9380 <inst_error>
    7038:	00000000 	nop
    703c:	00000000 	nop
    7040:	24150000 	li	s5,0
    7044:	165508ce 	bne	s2,s5,9380 <inst_error>
    7048:	00000000 	nop
    704c:	00000000 	nop
    7050:	3c0c6fb6 	lui	t4,0x6fb6
    7054:	358c8600 	ori	t4,t4,0x8600
    7058:	3c0dde3b 	lui	t5,0xde3b
    705c:	35ade459 	ori	t5,t5,0xe459
    7060:	24100000 	li	s0,0
    7064:	10000012 	b	70b0 <n33_blez_test+0x70b0>
    7068:	24120000 	li	s2,0
    706c:	00000000 	nop
    7070:	3c106fb6 	lui	s0,0x6fb6
    7074:	19000019 	blez	t0,70dc <n33_blez_test+0x70dc>
    7078:	36108600 	ori	s0,s0,0x8600
    707c:	10000019 	b	70e4 <n33_blez_test+0x70e4>
    7080:	00000000 	nop
    7084:	00000000 	nop
    7088:	00000021 	move	zero,zero
    708c:	00000021 	move	zero,zero
    7090:	00000021 	move	zero,zero
    7094:	00000021 	move	zero,zero
    7098:	00000021 	move	zero,zero
    709c:	00000021 	move	zero,zero
    70a0:	00000021 	move	zero,zero
    70a4:	00000021 	move	zero,zero
    70a8:	00000021 	move	zero,zero
    70ac:	00000021 	move	zero,zero
    70b0:	3c08ef5e 	lui	t0,0xef5e
    70b4:	350836ec 	ori	t0,t0,0x36ec
    70b8:	1900ffed 	blez	t0,7070 <n33_blez_test+0x7070>
    70bc:	00000000 	nop
    70c0:	10000008 	b	70e4 <n33_blez_test+0x70e4>
    70c4:	00000000 	nop
    70c8:	00000000 	nop
    70cc:	00000021 	move	zero,zero
    70d0:	00000021 	move	zero,zero
    70d4:	00000021 	move	zero,zero
    70d8:	00000021 	move	zero,zero
    70dc:	3c12de3b 	lui	s2,0xde3b
    70e0:	3652e459 	ori	s2,s2,0xe459
    70e4:	00000000 	nop
    70e8:	3c146fb6 	lui	s4,0x6fb6
    70ec:	36948600 	ori	s4,s4,0x8600
    70f0:	161408a3 	bne	s0,s4,9380 <inst_error>
    70f4:	00000000 	nop
    70f8:	00000000 	nop
    70fc:	3c15de3b 	lui	s5,0xde3b
    7100:	36b5e459 	ori	s5,s5,0xe459
    7104:	1655089e 	bne	s2,s5,9380 <inst_error>
    7108:	00000000 	nop
    710c:	00000000 	nop
    7110:	3c0c1e47 	lui	t4,0x1e47
    7114:	358c5e98 	ori	t4,t4,0x5e98
    7118:	3c0dd25d 	lui	t5,0xd25d
    711c:	35ad3c80 	ori	t5,t5,0x3c80
    7120:	24100000 	li	s0,0
    7124:	10000012 	b	7170 <n33_blez_test+0x7170>
    7128:	24120000 	li	s2,0
    712c:	00000000 	nop
    7130:	3c101e47 	lui	s0,0x1e47
    7134:	19000019 	blez	t0,719c <n33_blez_test+0x719c>
    7138:	36105e98 	ori	s0,s0,0x5e98
    713c:	10000019 	b	71a4 <n33_blez_test+0x71a4>
    7140:	00000000 	nop
    7144:	00000000 	nop
    7148:	00000021 	move	zero,zero
    714c:	00000021 	move	zero,zero
    7150:	00000021 	move	zero,zero
    7154:	00000021 	move	zero,zero
    7158:	00000021 	move	zero,zero
    715c:	00000021 	move	zero,zero
    7160:	00000021 	move	zero,zero
    7164:	00000021 	move	zero,zero
    7168:	00000021 	move	zero,zero
    716c:	00000021 	move	zero,zero
    7170:	3c085861 	lui	t0,0x5861
    7174:	35087c0c 	ori	t0,t0,0x7c0c
    7178:	1900ffed 	blez	t0,7130 <n33_blez_test+0x7130>
    717c:	00000000 	nop
    7180:	10000008 	b	71a4 <n33_blez_test+0x71a4>
    7184:	00000000 	nop
    7188:	00000000 	nop
    718c:	00000021 	move	zero,zero
    7190:	00000021 	move	zero,zero
    7194:	00000021 	move	zero,zero
    7198:	00000021 	move	zero,zero
    719c:	3c12d25d 	lui	s2,0xd25d
    71a0:	36523c80 	ori	s2,s2,0x3c80
    71a4:	00000000 	nop
    71a8:	24140000 	li	s4,0
    71ac:	16140874 	bne	s0,s4,9380 <inst_error>
    71b0:	00000000 	nop
    71b4:	00000000 	nop
    71b8:	24150000 	li	s5,0
    71bc:	16550870 	bne	s2,s5,9380 <inst_error>
    71c0:	00000000 	nop
    71c4:	00000000 	nop
    71c8:	3c0cfed4 	lui	t4,0xfed4
    71cc:	358cacc0 	ori	t4,t4,0xacc0
    71d0:	3c0d94e2 	lui	t5,0x94e2
    71d4:	35ad90c0 	ori	t5,t5,0x90c0
    71d8:	24100000 	li	s0,0
    71dc:	10000012 	b	7228 <n33_blez_test+0x7228>
    71e0:	24120000 	li	s2,0
    71e4:	00000000 	nop
    71e8:	3c10fed4 	lui	s0,0xfed4
    71ec:	19000019 	blez	t0,7254 <n33_blez_test+0x7254>
    71f0:	3610acc0 	ori	s0,s0,0xacc0
    71f4:	10000019 	b	725c <n33_blez_test+0x725c>
    71f8:	00000000 	nop
    71fc:	00000000 	nop
    7200:	00000021 	move	zero,zero
    7204:	00000021 	move	zero,zero
    7208:	00000021 	move	zero,zero
    720c:	00000021 	move	zero,zero
    7210:	00000021 	move	zero,zero
    7214:	00000021 	move	zero,zero
    7218:	00000021 	move	zero,zero
    721c:	00000021 	move	zero,zero
    7220:	00000021 	move	zero,zero
    7224:	00000021 	move	zero,zero
    7228:	3c084f5a 	lui	t0,0x4f5a
    722c:	3508a540 	ori	t0,t0,0xa540
    7230:	1900ffed 	blez	t0,71e8 <n33_blez_test+0x71e8>
    7234:	00000000 	nop
    7238:	10000008 	b	725c <n33_blez_test+0x725c>
    723c:	00000000 	nop
    7240:	00000000 	nop
    7244:	00000021 	move	zero,zero
    7248:	00000021 	move	zero,zero
    724c:	00000021 	move	zero,zero
    7250:	00000021 	move	zero,zero
    7254:	3c1294e2 	lui	s2,0x94e2
    7258:	365290c0 	ori	s2,s2,0x90c0
    725c:	00000000 	nop
    7260:	24140000 	li	s4,0
    7264:	16140846 	bne	s0,s4,9380 <inst_error>
    7268:	00000000 	nop
    726c:	00000000 	nop
    7270:	24150000 	li	s5,0
    7274:	16550842 	bne	s2,s5,9380 <inst_error>
    7278:	00000000 	nop
    727c:	00000000 	nop
    7280:	3c0cd41b 	lui	t4,0xd41b
    7284:	358c1e8e 	ori	t4,t4,0x1e8e
    7288:	3c0d107e 	lui	t5,0x107e
    728c:	35adc850 	ori	t5,t5,0xc850
    7290:	24100000 	li	s0,0
    7294:	10000012 	b	72e0 <n33_blez_test+0x72e0>
    7298:	24120000 	li	s2,0
    729c:	00000000 	nop
    72a0:	3c10d41b 	lui	s0,0xd41b
    72a4:	19000019 	blez	t0,730c <n33_blez_test+0x730c>
    72a8:	36101e8e 	ori	s0,s0,0x1e8e
    72ac:	10000019 	b	7314 <n33_blez_test+0x7314>
    72b0:	00000000 	nop
    72b4:	00000000 	nop
    72b8:	00000021 	move	zero,zero
    72bc:	00000021 	move	zero,zero
    72c0:	00000021 	move	zero,zero
    72c4:	00000021 	move	zero,zero
    72c8:	00000021 	move	zero,zero
    72cc:	00000021 	move	zero,zero
    72d0:	00000021 	move	zero,zero
    72d4:	00000021 	move	zero,zero
    72d8:	00000021 	move	zero,zero
    72dc:	00000021 	move	zero,zero
    72e0:	3c0815c8 	lui	t0,0x15c8
    72e4:	3508a6a4 	ori	t0,t0,0xa6a4
    72e8:	1900ffed 	blez	t0,72a0 <n33_blez_test+0x72a0>
    72ec:	00000000 	nop
    72f0:	10000008 	b	7314 <n33_blez_test+0x7314>
    72f4:	00000000 	nop
    72f8:	00000000 	nop
    72fc:	00000021 	move	zero,zero
    7300:	00000021 	move	zero,zero
    7304:	00000021 	move	zero,zero
    7308:	00000021 	move	zero,zero
    730c:	3c12107e 	lui	s2,0x107e
    7310:	3652c850 	ori	s2,s2,0xc850
    7314:	00000000 	nop
    7318:	24140000 	li	s4,0
    731c:	16140818 	bne	s0,s4,9380 <inst_error>
    7320:	00000000 	nop
    7324:	00000000 	nop
    7328:	24150000 	li	s5,0
    732c:	16550814 	bne	s2,s5,9380 <inst_error>
    7330:	00000000 	nop
    7334:	00000000 	nop
    7338:	3c0c180f 	lui	t4,0x180f
    733c:	358cc230 	ori	t4,t4,0xc230
    7340:	3c0d0f6b 	lui	t5,0xf6b
    7344:	35ad277c 	ori	t5,t5,0x277c
    7348:	24100000 	li	s0,0
    734c:	10000012 	b	7398 <n33_blez_test+0x7398>
    7350:	24120000 	li	s2,0
    7354:	00000000 	nop
    7358:	3c10180f 	lui	s0,0x180f
    735c:	19000019 	blez	t0,73c4 <n33_blez_test+0x73c4>
    7360:	3610c230 	ori	s0,s0,0xc230
    7364:	10000019 	b	73cc <n33_blez_test+0x73cc>
    7368:	00000000 	nop
    736c:	00000000 	nop
    7370:	00000021 	move	zero,zero
    7374:	00000021 	move	zero,zero
    7378:	00000021 	move	zero,zero
    737c:	00000021 	move	zero,zero
    7380:	00000021 	move	zero,zero
    7384:	00000021 	move	zero,zero
    7388:	00000021 	move	zero,zero
    738c:	00000021 	move	zero,zero
    7390:	00000021 	move	zero,zero
    7394:	00000021 	move	zero,zero
    7398:	3c0884ae 	lui	t0,0x84ae
    739c:	3508b3d1 	ori	t0,t0,0xb3d1
    73a0:	1900ffed 	blez	t0,7358 <n33_blez_test+0x7358>
    73a4:	00000000 	nop
    73a8:	10000008 	b	73cc <n33_blez_test+0x73cc>
    73ac:	00000000 	nop
    73b0:	00000000 	nop
    73b4:	00000021 	move	zero,zero
    73b8:	00000021 	move	zero,zero
    73bc:	00000021 	move	zero,zero
    73c0:	00000021 	move	zero,zero
    73c4:	3c120f6b 	lui	s2,0xf6b
    73c8:	3652277c 	ori	s2,s2,0x277c
    73cc:	00000000 	nop
    73d0:	3c14180f 	lui	s4,0x180f
    73d4:	3694c230 	ori	s4,s4,0xc230
    73d8:	161407e9 	bne	s0,s4,9380 <inst_error>
    73dc:	00000000 	nop
    73e0:	00000000 	nop
    73e4:	3c150f6b 	lui	s5,0xf6b
    73e8:	36b5277c 	ori	s5,s5,0x277c
    73ec:	165507e4 	bne	s2,s5,9380 <inst_error>
    73f0:	00000000 	nop
    73f4:	00000000 	nop
    73f8:	3c0cd46d 	lui	t4,0xd46d
    73fc:	358cc404 	ori	t4,t4,0xc404
    7400:	3c0d8a0c 	lui	t5,0x8a0c
    7404:	35ad2f80 	ori	t5,t5,0x2f80
    7408:	24100000 	li	s0,0
    740c:	10000012 	b	7458 <n33_blez_test+0x7458>
    7410:	24120000 	li	s2,0
    7414:	00000000 	nop
    7418:	3c10d46d 	lui	s0,0xd46d
    741c:	19000019 	blez	t0,7484 <n33_blez_test+0x7484>
    7420:	3610c404 	ori	s0,s0,0xc404
    7424:	10000019 	b	748c <n33_blez_test+0x748c>
    7428:	00000000 	nop
    742c:	00000000 	nop
    7430:	00000021 	move	zero,zero
    7434:	00000021 	move	zero,zero
    7438:	00000021 	move	zero,zero
    743c:	00000021 	move	zero,zero
    7440:	00000021 	move	zero,zero
    7444:	00000021 	move	zero,zero
    7448:	00000021 	move	zero,zero
    744c:	00000021 	move	zero,zero
    7450:	00000021 	move	zero,zero
    7454:	00000021 	move	zero,zero
    7458:	3c0875f1 	lui	t0,0x75f1
    745c:	3508e8ec 	ori	t0,t0,0xe8ec
    7460:	1900ffed 	blez	t0,7418 <n33_blez_test+0x7418>
    7464:	00000000 	nop
    7468:	10000008 	b	748c <n33_blez_test+0x748c>
    746c:	00000000 	nop
    7470:	00000000 	nop
    7474:	00000021 	move	zero,zero
    7478:	00000021 	move	zero,zero
    747c:	00000021 	move	zero,zero
    7480:	00000021 	move	zero,zero
    7484:	3c128a0c 	lui	s2,0x8a0c
    7488:	36522f80 	ori	s2,s2,0x2f80
    748c:	00000000 	nop
    7490:	24140000 	li	s4,0
    7494:	161407ba 	bne	s0,s4,9380 <inst_error>
    7498:	00000000 	nop
    749c:	00000000 	nop
    74a0:	24150000 	li	s5,0
    74a4:	165507b6 	bne	s2,s5,9380 <inst_error>
    74a8:	00000000 	nop
    74ac:	00000000 	nop
    74b0:	3c0c9dbd 	lui	t4,0x9dbd
    74b4:	358c96ba 	ori	t4,t4,0x96ba
    74b8:	3c0dc34f 	lui	t5,0xc34f
    74bc:	35ad1395 	ori	t5,t5,0x1395
    74c0:	24100000 	li	s0,0
    74c4:	10000012 	b	7510 <n33_blez_test+0x7510>
    74c8:	24120000 	li	s2,0
    74cc:	00000000 	nop
    74d0:	3c109dbd 	lui	s0,0x9dbd
    74d4:	19000019 	blez	t0,753c <n33_blez_test+0x753c>
    74d8:	361096ba 	ori	s0,s0,0x96ba
    74dc:	10000019 	b	7544 <n33_blez_test+0x7544>
    74e0:	00000000 	nop
    74e4:	00000000 	nop
    74e8:	00000021 	move	zero,zero
    74ec:	00000021 	move	zero,zero
    74f0:	00000021 	move	zero,zero
    74f4:	00000021 	move	zero,zero
    74f8:	00000021 	move	zero,zero
    74fc:	00000021 	move	zero,zero
    7500:	00000021 	move	zero,zero
    7504:	00000021 	move	zero,zero
    7508:	00000021 	move	zero,zero
    750c:	00000021 	move	zero,zero
    7510:	3c08a71d 	lui	t0,0xa71d
    7514:	3508f424 	ori	t0,t0,0xf424
    7518:	1900ffed 	blez	t0,74d0 <n33_blez_test+0x74d0>
    751c:	00000000 	nop
    7520:	10000008 	b	7544 <n33_blez_test+0x7544>
    7524:	00000000 	nop
    7528:	00000000 	nop
    752c:	00000021 	move	zero,zero
    7530:	00000021 	move	zero,zero
    7534:	00000021 	move	zero,zero
    7538:	00000021 	move	zero,zero
    753c:	3c12c34f 	lui	s2,0xc34f
    7540:	36521395 	ori	s2,s2,0x1395
    7544:	00000000 	nop
    7548:	3c149dbd 	lui	s4,0x9dbd
    754c:	369496ba 	ori	s4,s4,0x96ba
    7550:	1614078b 	bne	s0,s4,9380 <inst_error>
    7554:	00000000 	nop
    7558:	00000000 	nop
    755c:	3c15c34f 	lui	s5,0xc34f
    7560:	36b51395 	ori	s5,s5,0x1395
    7564:	16550786 	bne	s2,s5,9380 <inst_error>
    7568:	00000000 	nop
    756c:	00000000 	nop
    7570:	3c0c6ca5 	lui	t4,0x6ca5
    7574:	358c1928 	ori	t4,t4,0x1928
    7578:	3c0d4963 	lui	t5,0x4963
    757c:	35ad1ed4 	ori	t5,t5,0x1ed4
    7580:	24100000 	li	s0,0
    7584:	10000012 	b	75d0 <n33_blez_test+0x75d0>
    7588:	24120000 	li	s2,0
    758c:	00000000 	nop
    7590:	3c106ca5 	lui	s0,0x6ca5
    7594:	19000019 	blez	t0,75fc <n33_blez_test+0x75fc>
    7598:	36101928 	ori	s0,s0,0x1928
    759c:	10000019 	b	7604 <n33_blez_test+0x7604>
    75a0:	00000000 	nop
    75a4:	00000000 	nop
    75a8:	00000021 	move	zero,zero
    75ac:	00000021 	move	zero,zero
    75b0:	00000021 	move	zero,zero
    75b4:	00000021 	move	zero,zero
    75b8:	00000021 	move	zero,zero
    75bc:	00000021 	move	zero,zero
    75c0:	00000021 	move	zero,zero
    75c4:	00000021 	move	zero,zero
    75c8:	00000021 	move	zero,zero
    75cc:	00000021 	move	zero,zero
    75d0:	3c086a49 	lui	t0,0x6a49
    75d4:	35087260 	ori	t0,t0,0x7260
    75d8:	1900ffed 	blez	t0,7590 <n33_blez_test+0x7590>
    75dc:	00000000 	nop
    75e0:	10000008 	b	7604 <n33_blez_test+0x7604>
    75e4:	00000000 	nop
    75e8:	00000000 	nop
    75ec:	00000021 	move	zero,zero
    75f0:	00000021 	move	zero,zero
    75f4:	00000021 	move	zero,zero
    75f8:	00000021 	move	zero,zero
    75fc:	3c124963 	lui	s2,0x4963
    7600:	36521ed4 	ori	s2,s2,0x1ed4
    7604:	00000000 	nop
    7608:	24140000 	li	s4,0
    760c:	1614075c 	bne	s0,s4,9380 <inst_error>
    7610:	00000000 	nop
    7614:	00000000 	nop
    7618:	24150000 	li	s5,0
    761c:	16550758 	bne	s2,s5,9380 <inst_error>
    7620:	00000000 	nop
    7624:	00000000 	nop
    7628:	3c0c03ee 	lui	t4,0x3ee
    762c:	358ca8a0 	ori	t4,t4,0xa8a0
    7630:	3c0d75a8 	lui	t5,0x75a8
    7634:	35ad8f70 	ori	t5,t5,0x8f70
    7638:	24100000 	li	s0,0
    763c:	10000012 	b	7688 <n33_blez_test+0x7688>
    7640:	24120000 	li	s2,0
    7644:	00000000 	nop
    7648:	3c1003ee 	lui	s0,0x3ee
    764c:	19000019 	blez	t0,76b4 <n33_blez_test+0x76b4>
    7650:	3610a8a0 	ori	s0,s0,0xa8a0
    7654:	10000019 	b	76bc <n33_blez_test+0x76bc>
    7658:	00000000 	nop
    765c:	00000000 	nop
    7660:	00000021 	move	zero,zero
    7664:	00000021 	move	zero,zero
    7668:	00000021 	move	zero,zero
    766c:	00000021 	move	zero,zero
    7670:	00000021 	move	zero,zero
    7674:	00000021 	move	zero,zero
    7678:	00000021 	move	zero,zero
    767c:	00000021 	move	zero,zero
    7680:	00000021 	move	zero,zero
    7684:	00000021 	move	zero,zero
    7688:	3c08de46 	lui	t0,0xde46
    768c:	35085880 	ori	t0,t0,0x5880
    7690:	1900ffed 	blez	t0,7648 <n33_blez_test+0x7648>
    7694:	00000000 	nop
    7698:	10000008 	b	76bc <n33_blez_test+0x76bc>
    769c:	00000000 	nop
    76a0:	00000000 	nop
    76a4:	00000021 	move	zero,zero
    76a8:	00000021 	move	zero,zero
    76ac:	00000021 	move	zero,zero
    76b0:	00000021 	move	zero,zero
    76b4:	3c1275a8 	lui	s2,0x75a8
    76b8:	36528f70 	ori	s2,s2,0x8f70
    76bc:	00000000 	nop
    76c0:	3c1403ee 	lui	s4,0x3ee
    76c4:	3694a8a0 	ori	s4,s4,0xa8a0
    76c8:	1614072d 	bne	s0,s4,9380 <inst_error>
    76cc:	00000000 	nop
    76d0:	00000000 	nop
    76d4:	3c1575a8 	lui	s5,0x75a8
    76d8:	36b58f70 	ori	s5,s5,0x8f70
    76dc:	16550728 	bne	s2,s5,9380 <inst_error>
    76e0:	00000000 	nop
    76e4:	00000000 	nop
    76e8:	3c0c0710 	lui	t4,0x710
    76ec:	358cf698 	ori	t4,t4,0xf698
    76f0:	3c0d5d48 	lui	t5,0x5d48
    76f4:	35ad8830 	ori	t5,t5,0x8830
    76f8:	24100000 	li	s0,0
    76fc:	10000012 	b	7748 <n33_blez_test+0x7748>
    7700:	24120000 	li	s2,0
    7704:	00000000 	nop
    7708:	3c100710 	lui	s0,0x710
    770c:	19000019 	blez	t0,7774 <n33_blez_test+0x7774>
    7710:	3610f698 	ori	s0,s0,0xf698
    7714:	10000019 	b	777c <n33_blez_test+0x777c>
    7718:	00000000 	nop
    771c:	00000000 	nop
    7720:	00000021 	move	zero,zero
    7724:	00000021 	move	zero,zero
    7728:	00000021 	move	zero,zero
    772c:	00000021 	move	zero,zero
    7730:	00000021 	move	zero,zero
    7734:	00000021 	move	zero,zero
    7738:	00000021 	move	zero,zero
    773c:	00000021 	move	zero,zero
    7740:	00000021 	move	zero,zero
    7744:	00000021 	move	zero,zero
    7748:	3c0862b8 	lui	t0,0x62b8
    774c:	35084868 	ori	t0,t0,0x4868
    7750:	1900ffed 	blez	t0,7708 <n33_blez_test+0x7708>
    7754:	00000000 	nop
    7758:	10000008 	b	777c <n33_blez_test+0x777c>
    775c:	00000000 	nop
    7760:	00000000 	nop
    7764:	00000021 	move	zero,zero
    7768:	00000021 	move	zero,zero
    776c:	00000021 	move	zero,zero
    7770:	00000021 	move	zero,zero
    7774:	3c125d48 	lui	s2,0x5d48
    7778:	36528830 	ori	s2,s2,0x8830
    777c:	00000000 	nop
    7780:	24140000 	li	s4,0
    7784:	161406fe 	bne	s0,s4,9380 <inst_error>
    7788:	00000000 	nop
    778c:	00000000 	nop
    7790:	24150000 	li	s5,0
    7794:	165506fa 	bne	s2,s5,9380 <inst_error>
    7798:	00000000 	nop
    779c:	00000000 	nop
    77a0:	3c0c6736 	lui	t4,0x6736
    77a4:	358ccbdc 	ori	t4,t4,0xcbdc
    77a8:	3c0db410 	lui	t5,0xb410
    77ac:	35ad4e66 	ori	t5,t5,0x4e66
    77b0:	24100000 	li	s0,0
    77b4:	10000012 	b	7800 <n33_blez_test+0x7800>
    77b8:	24120000 	li	s2,0
    77bc:	00000000 	nop
    77c0:	3c106736 	lui	s0,0x6736
    77c4:	19000019 	blez	t0,782c <n33_blez_test+0x782c>
    77c8:	3610cbdc 	ori	s0,s0,0xcbdc
    77cc:	10000019 	b	7834 <n33_blez_test+0x7834>
    77d0:	00000000 	nop
    77d4:	00000000 	nop
    77d8:	00000021 	move	zero,zero
    77dc:	00000021 	move	zero,zero
    77e0:	00000021 	move	zero,zero
    77e4:	00000021 	move	zero,zero
    77e8:	00000021 	move	zero,zero
    77ec:	00000021 	move	zero,zero
    77f0:	00000021 	move	zero,zero
    77f4:	00000021 	move	zero,zero
    77f8:	00000021 	move	zero,zero
    77fc:	00000021 	move	zero,zero
    7800:	3c086f0b 	lui	t0,0x6f0b
    7804:	35085010 	ori	t0,t0,0x5010
    7808:	1900ffed 	blez	t0,77c0 <n33_blez_test+0x77c0>
    780c:	00000000 	nop
    7810:	10000008 	b	7834 <n33_blez_test+0x7834>
    7814:	00000000 	nop
    7818:	00000000 	nop
    781c:	00000021 	move	zero,zero
    7820:	00000021 	move	zero,zero
    7824:	00000021 	move	zero,zero
    7828:	00000021 	move	zero,zero
    782c:	3c12b410 	lui	s2,0xb410
    7830:	36524e66 	ori	s2,s2,0x4e66
    7834:	00000000 	nop
    7838:	24140000 	li	s4,0
    783c:	161406d0 	bne	s0,s4,9380 <inst_error>
    7840:	00000000 	nop
    7844:	00000000 	nop
    7848:	24150000 	li	s5,0
    784c:	165506cc 	bne	s2,s5,9380 <inst_error>
    7850:	00000000 	nop
    7854:	00000000 	nop
    7858:	3c0c7cd6 	lui	t4,0x7cd6
    785c:	358ce57c 	ori	t4,t4,0xe57c
    7860:	3c0d0372 	lui	t5,0x372
    7864:	35ade4e8 	ori	t5,t5,0xe4e8
    7868:	24100000 	li	s0,0
    786c:	10000012 	b	78b8 <n33_blez_test+0x78b8>
    7870:	24120000 	li	s2,0
    7874:	00000000 	nop
    7878:	3c107cd6 	lui	s0,0x7cd6
    787c:	19000019 	blez	t0,78e4 <n33_blez_test+0x78e4>
    7880:	3610e57c 	ori	s0,s0,0xe57c
    7884:	10000019 	b	78ec <n33_blez_test+0x78ec>
    7888:	00000000 	nop
    788c:	00000000 	nop
    7890:	00000021 	move	zero,zero
    7894:	00000021 	move	zero,zero
    7898:	00000021 	move	zero,zero
    789c:	00000021 	move	zero,zero
    78a0:	00000021 	move	zero,zero
    78a4:	00000021 	move	zero,zero
    78a8:	00000021 	move	zero,zero
    78ac:	00000021 	move	zero,zero
    78b0:	00000021 	move	zero,zero
    78b4:	00000021 	move	zero,zero
    78b8:	3c086268 	lui	t0,0x6268
    78bc:	3508d97e 	ori	t0,t0,0xd97e
    78c0:	1900ffed 	blez	t0,7878 <n33_blez_test+0x7878>
    78c4:	00000000 	nop
    78c8:	10000008 	b	78ec <n33_blez_test+0x78ec>
    78cc:	00000000 	nop
    78d0:	00000000 	nop
    78d4:	00000021 	move	zero,zero
    78d8:	00000021 	move	zero,zero
    78dc:	00000021 	move	zero,zero
    78e0:	00000021 	move	zero,zero
    78e4:	3c120372 	lui	s2,0x372
    78e8:	3652e4e8 	ori	s2,s2,0xe4e8
    78ec:	00000000 	nop
    78f0:	24140000 	li	s4,0
    78f4:	161406a2 	bne	s0,s4,9380 <inst_error>
    78f8:	00000000 	nop
    78fc:	00000000 	nop
    7900:	24150000 	li	s5,0
    7904:	1655069e 	bne	s2,s5,9380 <inst_error>
    7908:	00000000 	nop
    790c:	00000000 	nop
    7910:	3c0cd741 	lui	t4,0xd741
    7914:	358c8070 	ori	t4,t4,0x8070
    7918:	3c0d22dd 	lui	t5,0x22dd
    791c:	35adbf82 	ori	t5,t5,0xbf82
    7920:	24100000 	li	s0,0
    7924:	10000012 	b	7970 <n33_blez_test+0x7970>
    7928:	24120000 	li	s2,0
    792c:	00000000 	nop
    7930:	3c10d741 	lui	s0,0xd741
    7934:	19000019 	blez	t0,799c <n33_blez_test+0x799c>
    7938:	36108070 	ori	s0,s0,0x8070
    793c:	10000019 	b	79a4 <n33_blez_test+0x79a4>
    7940:	00000000 	nop
    7944:	00000000 	nop
    7948:	00000021 	move	zero,zero
    794c:	00000021 	move	zero,zero
    7950:	00000021 	move	zero,zero
    7954:	00000021 	move	zero,zero
    7958:	00000021 	move	zero,zero
    795c:	00000021 	move	zero,zero
    7960:	00000021 	move	zero,zero
    7964:	00000021 	move	zero,zero
    7968:	00000021 	move	zero,zero
    796c:	00000021 	move	zero,zero
    7970:	3c08bdf6 	lui	t0,0xbdf6
    7974:	350815ac 	ori	t0,t0,0x15ac
    7978:	1900ffed 	blez	t0,7930 <n33_blez_test+0x7930>
    797c:	00000000 	nop
    7980:	10000008 	b	79a4 <n33_blez_test+0x79a4>
    7984:	00000000 	nop
    7988:	00000000 	nop
    798c:	00000021 	move	zero,zero
    7990:	00000021 	move	zero,zero
    7994:	00000021 	move	zero,zero
    7998:	00000021 	move	zero,zero
    799c:	3c1222dd 	lui	s2,0x22dd
    79a0:	3652bf82 	ori	s2,s2,0xbf82
    79a4:	00000000 	nop
    79a8:	3c14d741 	lui	s4,0xd741
    79ac:	36948070 	ori	s4,s4,0x8070
    79b0:	16140673 	bne	s0,s4,9380 <inst_error>
    79b4:	00000000 	nop
    79b8:	00000000 	nop
    79bc:	3c1522dd 	lui	s5,0x22dd
    79c0:	36b5bf82 	ori	s5,s5,0xbf82
    79c4:	1655066e 	bne	s2,s5,9380 <inst_error>
    79c8:	00000000 	nop
    79cc:	00000000 	nop
    79d0:	3c0cdced 	lui	t4,0xdced
    79d4:	358c0c38 	ori	t4,t4,0xc38
    79d8:	3c0d5818 	lui	t5,0x5818
    79dc:	35ad8fe0 	ori	t5,t5,0x8fe0
    79e0:	24100000 	li	s0,0
    79e4:	10000012 	b	7a30 <n33_blez_test+0x7a30>
    79e8:	24120000 	li	s2,0
    79ec:	00000000 	nop
    79f0:	3c10dced 	lui	s0,0xdced
    79f4:	19000019 	blez	t0,7a5c <n33_blez_test+0x7a5c>
    79f8:	36100c38 	ori	s0,s0,0xc38
    79fc:	10000019 	b	7a64 <n33_blez_test+0x7a64>
    7a00:	00000000 	nop
    7a04:	00000000 	nop
    7a08:	00000021 	move	zero,zero
    7a0c:	00000021 	move	zero,zero
    7a10:	00000021 	move	zero,zero
    7a14:	00000021 	move	zero,zero
    7a18:	00000021 	move	zero,zero
    7a1c:	00000021 	move	zero,zero
    7a20:	00000021 	move	zero,zero
    7a24:	00000021 	move	zero,zero
    7a28:	00000021 	move	zero,zero
    7a2c:	00000021 	move	zero,zero
    7a30:	3c085f8e 	lui	t0,0x5f8e
    7a34:	35089c47 	ori	t0,t0,0x9c47
    7a38:	1900ffed 	blez	t0,79f0 <n33_blez_test+0x79f0>
    7a3c:	00000000 	nop
    7a40:	10000008 	b	7a64 <n33_blez_test+0x7a64>
    7a44:	00000000 	nop
    7a48:	00000000 	nop
    7a4c:	00000021 	move	zero,zero
    7a50:	00000021 	move	zero,zero
    7a54:	00000021 	move	zero,zero
    7a58:	00000021 	move	zero,zero
    7a5c:	3c125818 	lui	s2,0x5818
    7a60:	36528fe0 	ori	s2,s2,0x8fe0
    7a64:	00000000 	nop
    7a68:	24140000 	li	s4,0
    7a6c:	16140644 	bne	s0,s4,9380 <inst_error>
    7a70:	00000000 	nop
    7a74:	00000000 	nop
    7a78:	24150000 	li	s5,0
    7a7c:	16550640 	bne	s2,s5,9380 <inst_error>
    7a80:	00000000 	nop
    7a84:	00000000 	nop
    7a88:	3c0c3f59 	lui	t4,0x3f59
    7a8c:	358c9ee0 	ori	t4,t4,0x9ee0
    7a90:	3c0dc9a4 	lui	t5,0xc9a4
    7a94:	35ad16ac 	ori	t5,t5,0x16ac
    7a98:	24100000 	li	s0,0
    7a9c:	10000012 	b	7ae8 <n33_blez_test+0x7ae8>
    7aa0:	24120000 	li	s2,0
    7aa4:	00000000 	nop
    7aa8:	3c103f59 	lui	s0,0x3f59
    7aac:	19000019 	blez	t0,7b14 <n33_blez_test+0x7b14>
    7ab0:	36109ee0 	ori	s0,s0,0x9ee0
    7ab4:	10000019 	b	7b1c <n33_blez_test+0x7b1c>
    7ab8:	00000000 	nop
    7abc:	00000000 	nop
    7ac0:	00000021 	move	zero,zero
    7ac4:	00000021 	move	zero,zero
    7ac8:	00000021 	move	zero,zero
    7acc:	00000021 	move	zero,zero
    7ad0:	00000021 	move	zero,zero
    7ad4:	00000021 	move	zero,zero
    7ad8:	00000021 	move	zero,zero
    7adc:	00000021 	move	zero,zero
    7ae0:	00000021 	move	zero,zero
    7ae4:	00000021 	move	zero,zero
    7ae8:	3c08200a 	lui	t0,0x200a
    7aec:	35081580 	ori	t0,t0,0x1580
    7af0:	1900ffed 	blez	t0,7aa8 <n33_blez_test+0x7aa8>
    7af4:	00000000 	nop
    7af8:	10000008 	b	7b1c <n33_blez_test+0x7b1c>
    7afc:	00000000 	nop
    7b00:	00000000 	nop
    7b04:	00000021 	move	zero,zero
    7b08:	00000021 	move	zero,zero
    7b0c:	00000021 	move	zero,zero
    7b10:	00000021 	move	zero,zero
    7b14:	3c12c9a4 	lui	s2,0xc9a4
    7b18:	365216ac 	ori	s2,s2,0x16ac
    7b1c:	00000000 	nop
    7b20:	24140000 	li	s4,0
    7b24:	16140616 	bne	s0,s4,9380 <inst_error>
    7b28:	00000000 	nop
    7b2c:	00000000 	nop
    7b30:	24150000 	li	s5,0
    7b34:	16550612 	bne	s2,s5,9380 <inst_error>
    7b38:	00000000 	nop
    7b3c:	00000000 	nop
    7b40:	3c0ccfa4 	lui	t4,0xcfa4
    7b44:	358cbe8b 	ori	t4,t4,0xbe8b
    7b48:	3c0d5fb8 	lui	t5,0x5fb8
    7b4c:	35adc0f6 	ori	t5,t5,0xc0f6
    7b50:	24100000 	li	s0,0
    7b54:	10000012 	b	7ba0 <n33_blez_test+0x7ba0>
    7b58:	24120000 	li	s2,0
    7b5c:	00000000 	nop
    7b60:	3c10cfa4 	lui	s0,0xcfa4
    7b64:	19000019 	blez	t0,7bcc <n33_blez_test+0x7bcc>
    7b68:	3610be8b 	ori	s0,s0,0xbe8b
    7b6c:	10000019 	b	7bd4 <n33_blez_test+0x7bd4>
    7b70:	00000000 	nop
    7b74:	00000000 	nop
    7b78:	00000021 	move	zero,zero
    7b7c:	00000021 	move	zero,zero
    7b80:	00000021 	move	zero,zero
    7b84:	00000021 	move	zero,zero
    7b88:	00000021 	move	zero,zero
    7b8c:	00000021 	move	zero,zero
    7b90:	00000021 	move	zero,zero
    7b94:	00000021 	move	zero,zero
    7b98:	00000021 	move	zero,zero
    7b9c:	00000021 	move	zero,zero
    7ba0:	3c08c483 	lui	t0,0xc483
    7ba4:	3508b8a4 	ori	t0,t0,0xb8a4
    7ba8:	1900ffed 	blez	t0,7b60 <n33_blez_test+0x7b60>
    7bac:	00000000 	nop
    7bb0:	10000008 	b	7bd4 <n33_blez_test+0x7bd4>
    7bb4:	00000000 	nop
    7bb8:	00000000 	nop
    7bbc:	00000021 	move	zero,zero
    7bc0:	00000021 	move	zero,zero
    7bc4:	00000021 	move	zero,zero
    7bc8:	00000021 	move	zero,zero
    7bcc:	3c125fb8 	lui	s2,0x5fb8
    7bd0:	3652c0f6 	ori	s2,s2,0xc0f6
    7bd4:	00000000 	nop
    7bd8:	3c14cfa4 	lui	s4,0xcfa4
    7bdc:	3694be8b 	ori	s4,s4,0xbe8b
    7be0:	161405e7 	bne	s0,s4,9380 <inst_error>
    7be4:	00000000 	nop
    7be8:	00000000 	nop
    7bec:	3c155fb8 	lui	s5,0x5fb8
    7bf0:	36b5c0f6 	ori	s5,s5,0xc0f6
    7bf4:	165505e2 	bne	s2,s5,9380 <inst_error>
    7bf8:	00000000 	nop
    7bfc:	00000000 	nop
    7c00:	3c0c5deb 	lui	t4,0x5deb
    7c04:	358c5e4c 	ori	t4,t4,0x5e4c
    7c08:	3c0d512f 	lui	t5,0x512f
    7c0c:	35ad3cea 	ori	t5,t5,0x3cea
    7c10:	24100000 	li	s0,0
    7c14:	10000012 	b	7c60 <n33_blez_test+0x7c60>
    7c18:	24120000 	li	s2,0
    7c1c:	00000000 	nop
    7c20:	3c105deb 	lui	s0,0x5deb
    7c24:	19000019 	blez	t0,7c8c <n33_blez_test+0x7c8c>
    7c28:	36105e4c 	ori	s0,s0,0x5e4c
    7c2c:	10000019 	b	7c94 <n33_blez_test+0x7c94>
    7c30:	00000000 	nop
    7c34:	00000000 	nop
    7c38:	00000021 	move	zero,zero
    7c3c:	00000021 	move	zero,zero
    7c40:	00000021 	move	zero,zero
    7c44:	00000021 	move	zero,zero
    7c48:	00000021 	move	zero,zero
    7c4c:	00000021 	move	zero,zero
    7c50:	00000021 	move	zero,zero
    7c54:	00000021 	move	zero,zero
    7c58:	00000021 	move	zero,zero
    7c5c:	00000021 	move	zero,zero
    7c60:	3c08cd79 	lui	t0,0xcd79
    7c64:	35083200 	ori	t0,t0,0x3200
    7c68:	1900ffed 	blez	t0,7c20 <n33_blez_test+0x7c20>
    7c6c:	00000000 	nop
    7c70:	10000008 	b	7c94 <n33_blez_test+0x7c94>
    7c74:	00000000 	nop
    7c78:	00000000 	nop
    7c7c:	00000021 	move	zero,zero
    7c80:	00000021 	move	zero,zero
    7c84:	00000021 	move	zero,zero
    7c88:	00000021 	move	zero,zero
    7c8c:	3c12512f 	lui	s2,0x512f
    7c90:	36523cea 	ori	s2,s2,0x3cea
    7c94:	00000000 	nop
    7c98:	3c145deb 	lui	s4,0x5deb
    7c9c:	36945e4c 	ori	s4,s4,0x5e4c
    7ca0:	161405b7 	bne	s0,s4,9380 <inst_error>
    7ca4:	00000000 	nop
    7ca8:	00000000 	nop
    7cac:	3c15512f 	lui	s5,0x512f
    7cb0:	36b53cea 	ori	s5,s5,0x3cea
    7cb4:	165505b2 	bne	s2,s5,9380 <inst_error>
    7cb8:	00000000 	nop
    7cbc:	00000000 	nop
    7cc0:	3c0c6203 	lui	t4,0x6203
    7cc4:	358c5890 	ori	t4,t4,0x5890
    7cc8:	3c0d9722 	lui	t5,0x9722
    7ccc:	35adfa12 	ori	t5,t5,0xfa12
    7cd0:	24100000 	li	s0,0
    7cd4:	10000012 	b	7d20 <n33_blez_test+0x7d20>
    7cd8:	24120000 	li	s2,0
    7cdc:	00000000 	nop
    7ce0:	3c106203 	lui	s0,0x6203
    7ce4:	19000019 	blez	t0,7d4c <n33_blez_test+0x7d4c>
    7ce8:	36105890 	ori	s0,s0,0x5890
    7cec:	10000019 	b	7d54 <n33_blez_test+0x7d54>
    7cf0:	00000000 	nop
    7cf4:	00000000 	nop
    7cf8:	00000021 	move	zero,zero
    7cfc:	00000021 	move	zero,zero
    7d00:	00000021 	move	zero,zero
    7d04:	00000021 	move	zero,zero
    7d08:	00000021 	move	zero,zero
    7d0c:	00000021 	move	zero,zero
    7d10:	00000021 	move	zero,zero
    7d14:	00000021 	move	zero,zero
    7d18:	00000021 	move	zero,zero
    7d1c:	00000021 	move	zero,zero
    7d20:	3c083308 	lui	t0,0x3308
    7d24:	3508ef00 	ori	t0,t0,0xef00
    7d28:	1900ffed 	blez	t0,7ce0 <n33_blez_test+0x7ce0>
    7d2c:	00000000 	nop
    7d30:	10000008 	b	7d54 <n33_blez_test+0x7d54>
    7d34:	00000000 	nop
    7d38:	00000000 	nop
    7d3c:	00000021 	move	zero,zero
    7d40:	00000021 	move	zero,zero
    7d44:	00000021 	move	zero,zero
    7d48:	00000021 	move	zero,zero
    7d4c:	3c129722 	lui	s2,0x9722
    7d50:	3652fa12 	ori	s2,s2,0xfa12
    7d54:	00000000 	nop
    7d58:	24140000 	li	s4,0
    7d5c:	16140588 	bne	s0,s4,9380 <inst_error>
    7d60:	00000000 	nop
    7d64:	00000000 	nop
    7d68:	24150000 	li	s5,0
    7d6c:	16550584 	bne	s2,s5,9380 <inst_error>
    7d70:	00000000 	nop
    7d74:	00000000 	nop
    7d78:	3c0cc02e 	lui	t4,0xc02e
    7d7c:	358cde0d 	ori	t4,t4,0xde0d
    7d80:	3c0d9bbe 	lui	t5,0x9bbe
    7d84:	35adf21a 	ori	t5,t5,0xf21a
    7d88:	24100000 	li	s0,0
    7d8c:	10000012 	b	7dd8 <n33_blez_test+0x7dd8>
    7d90:	24120000 	li	s2,0
    7d94:	00000000 	nop
    7d98:	3c10c02e 	lui	s0,0xc02e
    7d9c:	19000019 	blez	t0,7e04 <n33_blez_test+0x7e04>
    7da0:	3610de0d 	ori	s0,s0,0xde0d
    7da4:	10000019 	b	7e0c <n33_blez_test+0x7e0c>
    7da8:	00000000 	nop
    7dac:	00000000 	nop
    7db0:	00000021 	move	zero,zero
    7db4:	00000021 	move	zero,zero
    7db8:	00000021 	move	zero,zero
    7dbc:	00000021 	move	zero,zero
    7dc0:	00000021 	move	zero,zero
    7dc4:	00000021 	move	zero,zero
    7dc8:	00000021 	move	zero,zero
    7dcc:	00000021 	move	zero,zero
    7dd0:	00000021 	move	zero,zero
    7dd4:	00000021 	move	zero,zero
    7dd8:	3c085938 	lui	t0,0x5938
    7ddc:	3508314e 	ori	t0,t0,0x314e
    7de0:	1900ffed 	blez	t0,7d98 <n33_blez_test+0x7d98>
    7de4:	00000000 	nop
    7de8:	10000008 	b	7e0c <n33_blez_test+0x7e0c>
    7dec:	00000000 	nop
    7df0:	00000000 	nop
    7df4:	00000021 	move	zero,zero
    7df8:	00000021 	move	zero,zero
    7dfc:	00000021 	move	zero,zero
    7e00:	00000021 	move	zero,zero
    7e04:	3c129bbe 	lui	s2,0x9bbe
    7e08:	3652f21a 	ori	s2,s2,0xf21a
    7e0c:	00000000 	nop
    7e10:	24140000 	li	s4,0
    7e14:	1614055a 	bne	s0,s4,9380 <inst_error>
    7e18:	00000000 	nop
    7e1c:	00000000 	nop
    7e20:	24150000 	li	s5,0
    7e24:	16550556 	bne	s2,s5,9380 <inst_error>
    7e28:	00000000 	nop
    7e2c:	00000000 	nop
    7e30:	3c0c4a6e 	lui	t4,0x4a6e
    7e34:	358c0b42 	ori	t4,t4,0xb42
    7e38:	3c0d6c5c 	lui	t5,0x6c5c
    7e3c:	35addeb0 	ori	t5,t5,0xdeb0
    7e40:	24100000 	li	s0,0
    7e44:	10000012 	b	7e90 <n33_blez_test+0x7e90>
    7e48:	24120000 	li	s2,0
    7e4c:	00000000 	nop
    7e50:	3c104a6e 	lui	s0,0x4a6e
    7e54:	19000019 	blez	t0,7ebc <n33_blez_test+0x7ebc>
    7e58:	36100b42 	ori	s0,s0,0xb42
    7e5c:	10000019 	b	7ec4 <n33_blez_test+0x7ec4>
    7e60:	00000000 	nop
    7e64:	00000000 	nop
    7e68:	00000021 	move	zero,zero
    7e6c:	00000021 	move	zero,zero
    7e70:	00000021 	move	zero,zero
    7e74:	00000021 	move	zero,zero
    7e78:	00000021 	move	zero,zero
    7e7c:	00000021 	move	zero,zero
    7e80:	00000021 	move	zero,zero
    7e84:	00000021 	move	zero,zero
    7e88:	00000021 	move	zero,zero
    7e8c:	00000021 	move	zero,zero
    7e90:	3c0858dc 	lui	t0,0x58dc
    7e94:	35089f26 	ori	t0,t0,0x9f26
    7e98:	1900ffed 	blez	t0,7e50 <n33_blez_test+0x7e50>
    7e9c:	00000000 	nop
    7ea0:	10000008 	b	7ec4 <n33_blez_test+0x7ec4>
    7ea4:	00000000 	nop
    7ea8:	00000000 	nop
    7eac:	00000021 	move	zero,zero
    7eb0:	00000021 	move	zero,zero
    7eb4:	00000021 	move	zero,zero
    7eb8:	00000021 	move	zero,zero
    7ebc:	3c126c5c 	lui	s2,0x6c5c
    7ec0:	3652deb0 	ori	s2,s2,0xdeb0
    7ec4:	00000000 	nop
    7ec8:	24140000 	li	s4,0
    7ecc:	1614052c 	bne	s0,s4,9380 <inst_error>
    7ed0:	00000000 	nop
    7ed4:	00000000 	nop
    7ed8:	24150000 	li	s5,0
    7edc:	16550528 	bne	s2,s5,9380 <inst_error>
    7ee0:	00000000 	nop
    7ee4:	00000000 	nop
    7ee8:	3c0cafa5 	lui	t4,0xafa5
    7eec:	358c358e 	ori	t4,t4,0x358e
    7ef0:	3c0db5c9 	lui	t5,0xb5c9
    7ef4:	35ad4626 	ori	t5,t5,0x4626
    7ef8:	24100000 	li	s0,0
    7efc:	10000012 	b	7f48 <n33_blez_test+0x7f48>
    7f00:	24120000 	li	s2,0
    7f04:	00000000 	nop
    7f08:	3c10afa5 	lui	s0,0xafa5
    7f0c:	19000019 	blez	t0,7f74 <n33_blez_test+0x7f74>
    7f10:	3610358e 	ori	s0,s0,0x358e
    7f14:	10000019 	b	7f7c <n33_blez_test+0x7f7c>
    7f18:	00000000 	nop
    7f1c:	00000000 	nop
    7f20:	00000021 	move	zero,zero
    7f24:	00000021 	move	zero,zero
    7f28:	00000021 	move	zero,zero
    7f2c:	00000021 	move	zero,zero
    7f30:	00000021 	move	zero,zero
    7f34:	00000021 	move	zero,zero
    7f38:	00000021 	move	zero,zero
    7f3c:	00000021 	move	zero,zero
    7f40:	00000021 	move	zero,zero
    7f44:	00000021 	move	zero,zero
    7f48:	3c082bbb 	lui	t0,0x2bbb
    7f4c:	35088200 	ori	t0,t0,0x8200
    7f50:	1900ffed 	blez	t0,7f08 <n33_blez_test+0x7f08>
    7f54:	00000000 	nop
    7f58:	10000008 	b	7f7c <n33_blez_test+0x7f7c>
    7f5c:	00000000 	nop
    7f60:	00000000 	nop
    7f64:	00000021 	move	zero,zero
    7f68:	00000021 	move	zero,zero
    7f6c:	00000021 	move	zero,zero
    7f70:	00000021 	move	zero,zero
    7f74:	3c12b5c9 	lui	s2,0xb5c9
    7f78:	36524626 	ori	s2,s2,0x4626
    7f7c:	00000000 	nop
    7f80:	24140000 	li	s4,0
    7f84:	161404fe 	bne	s0,s4,9380 <inst_error>
    7f88:	00000000 	nop
    7f8c:	00000000 	nop
    7f90:	24150000 	li	s5,0
    7f94:	165504fa 	bne	s2,s5,9380 <inst_error>
    7f98:	00000000 	nop
    7f9c:	00000000 	nop
    7fa0:	3c0c5caf 	lui	t4,0x5caf
    7fa4:	358c581c 	ori	t4,t4,0x581c
    7fa8:	3c0de20e 	lui	t5,0xe20e
    7fac:	35ad8a18 	ori	t5,t5,0x8a18
    7fb0:	24100000 	li	s0,0
    7fb4:	10000012 	b	8000 <n33_blez_test+0x8000>
    7fb8:	24120000 	li	s2,0
    7fbc:	00000000 	nop
    7fc0:	3c105caf 	lui	s0,0x5caf
    7fc4:	19000019 	blez	t0,802c <n33_blez_test+0x802c>
    7fc8:	3610581c 	ori	s0,s0,0x581c
    7fcc:	10000019 	b	8034 <n33_blez_test+0x8034>
    7fd0:	00000000 	nop
    7fd4:	00000000 	nop
    7fd8:	00000021 	move	zero,zero
    7fdc:	00000021 	move	zero,zero
    7fe0:	00000021 	move	zero,zero
    7fe4:	00000021 	move	zero,zero
    7fe8:	00000021 	move	zero,zero
    7fec:	00000021 	move	zero,zero
    7ff0:	00000021 	move	zero,zero
    7ff4:	00000021 	move	zero,zero
    7ff8:	00000021 	move	zero,zero
    7ffc:	00000021 	move	zero,zero
    8000:	3c08c04e 	lui	t0,0xc04e
    8004:	350853a0 	ori	t0,t0,0x53a0
    8008:	1900ffed 	blez	t0,7fc0 <n33_blez_test+0x7fc0>
    800c:	00000000 	nop
    8010:	10000008 	b	8034 <n33_blez_test+0x8034>
    8014:	00000000 	nop
    8018:	00000000 	nop
    801c:	00000021 	move	zero,zero
    8020:	00000021 	move	zero,zero
    8024:	00000021 	move	zero,zero
    8028:	00000021 	move	zero,zero
    802c:	3c12e20e 	lui	s2,0xe20e
    8030:	36528a18 	ori	s2,s2,0x8a18
    8034:	00000000 	nop
    8038:	3c145caf 	lui	s4,0x5caf
    803c:	3694581c 	ori	s4,s4,0x581c
    8040:	161404cf 	bne	s0,s4,9380 <inst_error>
    8044:	00000000 	nop
    8048:	00000000 	nop
    804c:	3c15e20e 	lui	s5,0xe20e
    8050:	36b58a18 	ori	s5,s5,0x8a18
    8054:	165504ca 	bne	s2,s5,9380 <inst_error>
    8058:	00000000 	nop
    805c:	00000000 	nop
    8060:	3c0cbee2 	lui	t4,0xbee2
    8064:	358ca7c6 	ori	t4,t4,0xa7c6
    8068:	3c0dee1d 	lui	t5,0xee1d
    806c:	35ad4d60 	ori	t5,t5,0x4d60
    8070:	24100000 	li	s0,0
    8074:	10000012 	b	80c0 <n33_blez_test+0x80c0>
    8078:	24120000 	li	s2,0
    807c:	00000000 	nop
    8080:	3c10bee2 	lui	s0,0xbee2
    8084:	19000019 	blez	t0,80ec <n33_blez_test+0x80ec>
    8088:	3610a7c6 	ori	s0,s0,0xa7c6
    808c:	10000019 	b	80f4 <n33_blez_test+0x80f4>
    8090:	00000000 	nop
    8094:	00000000 	nop
    8098:	00000021 	move	zero,zero
    809c:	00000021 	move	zero,zero
    80a0:	00000021 	move	zero,zero
    80a4:	00000021 	move	zero,zero
    80a8:	00000021 	move	zero,zero
    80ac:	00000021 	move	zero,zero
    80b0:	00000021 	move	zero,zero
    80b4:	00000021 	move	zero,zero
    80b8:	00000021 	move	zero,zero
    80bc:	00000021 	move	zero,zero
    80c0:	3c08c5a2 	lui	t0,0xc5a2
    80c4:	350891b6 	ori	t0,t0,0x91b6
    80c8:	1900ffed 	blez	t0,8080 <n33_blez_test+0x8080>
    80cc:	00000000 	nop
    80d0:	10000008 	b	80f4 <n33_blez_test+0x80f4>
    80d4:	00000000 	nop
    80d8:	00000000 	nop
    80dc:	00000021 	move	zero,zero
    80e0:	00000021 	move	zero,zero
    80e4:	00000021 	move	zero,zero
    80e8:	00000021 	move	zero,zero
    80ec:	3c12ee1d 	lui	s2,0xee1d
    80f0:	36524d60 	ori	s2,s2,0x4d60
    80f4:	00000000 	nop
    80f8:	3c14bee2 	lui	s4,0xbee2
    80fc:	3694a7c6 	ori	s4,s4,0xa7c6
    8100:	1614049f 	bne	s0,s4,9380 <inst_error>
    8104:	00000000 	nop
    8108:	00000000 	nop
    810c:	3c15ee1d 	lui	s5,0xee1d
    8110:	36b54d60 	ori	s5,s5,0x4d60
    8114:	1655049a 	bne	s2,s5,9380 <inst_error>
    8118:	00000000 	nop
    811c:	00000000 	nop
    8120:	3c0c5a12 	lui	t4,0x5a12
    8124:	358c65a6 	ori	t4,t4,0x65a6
    8128:	3c0d0791 	lui	t5,0x791
    812c:	35ad4eb2 	ori	t5,t5,0x4eb2
    8130:	24100000 	li	s0,0
    8134:	10000012 	b	8180 <n33_blez_test+0x8180>
    8138:	24120000 	li	s2,0
    813c:	00000000 	nop
    8140:	3c105a12 	lui	s0,0x5a12
    8144:	19000019 	blez	t0,81ac <n33_blez_test+0x81ac>
    8148:	361065a6 	ori	s0,s0,0x65a6
    814c:	10000019 	b	81b4 <n33_blez_test+0x81b4>
    8150:	00000000 	nop
    8154:	00000000 	nop
    8158:	00000021 	move	zero,zero
    815c:	00000021 	move	zero,zero
    8160:	00000021 	move	zero,zero
    8164:	00000021 	move	zero,zero
    8168:	00000021 	move	zero,zero
    816c:	00000021 	move	zero,zero
    8170:	00000021 	move	zero,zero
    8174:	00000021 	move	zero,zero
    8178:	00000021 	move	zero,zero
    817c:	00000021 	move	zero,zero
    8180:	3c08b01a 	lui	t0,0xb01a
    8184:	3508b8d0 	ori	t0,t0,0xb8d0
    8188:	1900ffed 	blez	t0,8140 <n33_blez_test+0x8140>
    818c:	00000000 	nop
    8190:	10000008 	b	81b4 <n33_blez_test+0x81b4>
    8194:	00000000 	nop
    8198:	00000000 	nop
    819c:	00000021 	move	zero,zero
    81a0:	00000021 	move	zero,zero
    81a4:	00000021 	move	zero,zero
    81a8:	00000021 	move	zero,zero
    81ac:	3c120791 	lui	s2,0x791
    81b0:	36524eb2 	ori	s2,s2,0x4eb2
    81b4:	00000000 	nop
    81b8:	3c145a12 	lui	s4,0x5a12
    81bc:	369465a6 	ori	s4,s4,0x65a6
    81c0:	1614046f 	bne	s0,s4,9380 <inst_error>
    81c4:	00000000 	nop
    81c8:	00000000 	nop
    81cc:	3c150791 	lui	s5,0x791
    81d0:	36b54eb2 	ori	s5,s5,0x4eb2
    81d4:	1655046a 	bne	s2,s5,9380 <inst_error>
    81d8:	00000000 	nop
    81dc:	00000000 	nop
    81e0:	3c0c6810 	lui	t4,0x6810
    81e4:	358ce584 	ori	t4,t4,0xe584
    81e8:	3c0d1a4a 	lui	t5,0x1a4a
    81ec:	35add589 	ori	t5,t5,0xd589
    81f0:	24100000 	li	s0,0
    81f4:	10000012 	b	8240 <n33_blez_test+0x8240>
    81f8:	24120000 	li	s2,0
    81fc:	00000000 	nop
    8200:	3c106810 	lui	s0,0x6810
    8204:	19000019 	blez	t0,826c <n33_blez_test+0x826c>
    8208:	3610e584 	ori	s0,s0,0xe584
    820c:	10000019 	b	8274 <n33_blez_test+0x8274>
    8210:	00000000 	nop
    8214:	00000000 	nop
    8218:	00000021 	move	zero,zero
    821c:	00000021 	move	zero,zero
    8220:	00000021 	move	zero,zero
    8224:	00000021 	move	zero,zero
    8228:	00000021 	move	zero,zero
    822c:	00000021 	move	zero,zero
    8230:	00000021 	move	zero,zero
    8234:	00000021 	move	zero,zero
    8238:	00000021 	move	zero,zero
    823c:	00000021 	move	zero,zero
    8240:	3c089d16 	lui	t0,0x9d16
    8244:	35080dfc 	ori	t0,t0,0xdfc
    8248:	1900ffed 	blez	t0,8200 <n33_blez_test+0x8200>
    824c:	00000000 	nop
    8250:	10000008 	b	8274 <n33_blez_test+0x8274>
    8254:	00000000 	nop
    8258:	00000000 	nop
    825c:	00000021 	move	zero,zero
    8260:	00000021 	move	zero,zero
    8264:	00000021 	move	zero,zero
    8268:	00000021 	move	zero,zero
    826c:	3c121a4a 	lui	s2,0x1a4a
    8270:	3652d589 	ori	s2,s2,0xd589
    8274:	00000000 	nop
    8278:	3c146810 	lui	s4,0x6810
    827c:	3694e584 	ori	s4,s4,0xe584
    8280:	1614043f 	bne	s0,s4,9380 <inst_error>
    8284:	00000000 	nop
    8288:	00000000 	nop
    828c:	3c151a4a 	lui	s5,0x1a4a
    8290:	36b5d589 	ori	s5,s5,0xd589
    8294:	1655043a 	bne	s2,s5,9380 <inst_error>
    8298:	00000000 	nop
    829c:	00000000 	nop
    82a0:	3c0c10d1 	lui	t4,0x10d1
    82a4:	358c1628 	ori	t4,t4,0x1628
    82a8:	3c0d3875 	lui	t5,0x3875
    82ac:	35ad3511 	ori	t5,t5,0x3511
    82b0:	24100000 	li	s0,0
    82b4:	10000012 	b	8300 <n33_blez_test+0x8300>
    82b8:	24120000 	li	s2,0
    82bc:	00000000 	nop
    82c0:	3c1010d1 	lui	s0,0x10d1
    82c4:	19000019 	blez	t0,832c <n33_blez_test+0x832c>
    82c8:	36101628 	ori	s0,s0,0x1628
    82cc:	10000019 	b	8334 <n33_blez_test+0x8334>
    82d0:	00000000 	nop
    82d4:	00000000 	nop
    82d8:	00000021 	move	zero,zero
    82dc:	00000021 	move	zero,zero
    82e0:	00000021 	move	zero,zero
    82e4:	00000021 	move	zero,zero
    82e8:	00000021 	move	zero,zero
    82ec:	00000021 	move	zero,zero
    82f0:	00000021 	move	zero,zero
    82f4:	00000021 	move	zero,zero
    82f8:	00000021 	move	zero,zero
    82fc:	00000021 	move	zero,zero
    8300:	3c081f0b 	lui	t0,0x1f0b
    8304:	3508a8e4 	ori	t0,t0,0xa8e4
    8308:	1900ffed 	blez	t0,82c0 <n33_blez_test+0x82c0>
    830c:	00000000 	nop
    8310:	10000008 	b	8334 <n33_blez_test+0x8334>
    8314:	00000000 	nop
    8318:	00000000 	nop
    831c:	00000021 	move	zero,zero
    8320:	00000021 	move	zero,zero
    8324:	00000021 	move	zero,zero
    8328:	00000021 	move	zero,zero
    832c:	3c123875 	lui	s2,0x3875
    8330:	36523511 	ori	s2,s2,0x3511
    8334:	00000000 	nop
    8338:	24140000 	li	s4,0
    833c:	16140410 	bne	s0,s4,9380 <inst_error>
    8340:	00000000 	nop
    8344:	00000000 	nop
    8348:	24150000 	li	s5,0
    834c:	1655040c 	bne	s2,s5,9380 <inst_error>
    8350:	00000000 	nop
    8354:	00000000 	nop
    8358:	3c0cea5f 	lui	t4,0xea5f
    835c:	358c9140 	ori	t4,t4,0x9140
    8360:	3c0d17f2 	lui	t5,0x17f2
    8364:	35ad1988 	ori	t5,t5,0x1988
    8368:	24100000 	li	s0,0
    836c:	10000012 	b	83b8 <n33_blez_test+0x83b8>
    8370:	24120000 	li	s2,0
    8374:	00000000 	nop
    8378:	3c10ea5f 	lui	s0,0xea5f
    837c:	19000019 	blez	t0,83e4 <n33_blez_test+0x83e4>
    8380:	36109140 	ori	s0,s0,0x9140
    8384:	10000019 	b	83ec <n33_blez_test+0x83ec>
    8388:	00000000 	nop
    838c:	00000000 	nop
    8390:	00000021 	move	zero,zero
    8394:	00000021 	move	zero,zero
    8398:	00000021 	move	zero,zero
    839c:	00000021 	move	zero,zero
    83a0:	00000021 	move	zero,zero
    83a4:	00000021 	move	zero,zero
    83a8:	00000021 	move	zero,zero
    83ac:	00000021 	move	zero,zero
    83b0:	00000021 	move	zero,zero
    83b4:	00000021 	move	zero,zero
    83b8:	3c086507 	lui	t0,0x6507
    83bc:	3508ec40 	ori	t0,t0,0xec40
    83c0:	1900ffed 	blez	t0,8378 <n33_blez_test+0x8378>
    83c4:	00000000 	nop
    83c8:	10000008 	b	83ec <n33_blez_test+0x83ec>
    83cc:	00000000 	nop
    83d0:	00000000 	nop
    83d4:	00000021 	move	zero,zero
    83d8:	00000021 	move	zero,zero
    83dc:	00000021 	move	zero,zero
    83e0:	00000021 	move	zero,zero
    83e4:	3c1217f2 	lui	s2,0x17f2
    83e8:	36521988 	ori	s2,s2,0x1988
    83ec:	00000000 	nop
    83f0:	24140000 	li	s4,0
    83f4:	161403e2 	bne	s0,s4,9380 <inst_error>
    83f8:	00000000 	nop
    83fc:	00000000 	nop
    8400:	24150000 	li	s5,0
    8404:	165503de 	bne	s2,s5,9380 <inst_error>
    8408:	00000000 	nop
    840c:	00000000 	nop
    8410:	3c0ca932 	lui	t4,0xa932
    8414:	358cda00 	ori	t4,t4,0xda00
    8418:	3c0d1f46 	lui	t5,0x1f46
    841c:	35ad6b40 	ori	t5,t5,0x6b40
    8420:	24100000 	li	s0,0
    8424:	10000012 	b	8470 <n33_blez_test+0x8470>
    8428:	24120000 	li	s2,0
    842c:	00000000 	nop
    8430:	3c10a932 	lui	s0,0xa932
    8434:	19000019 	blez	t0,849c <n33_blez_test+0x849c>
    8438:	3610da00 	ori	s0,s0,0xda00
    843c:	10000019 	b	84a4 <n33_blez_test+0x84a4>
    8440:	00000000 	nop
    8444:	00000000 	nop
    8448:	00000021 	move	zero,zero
    844c:	00000021 	move	zero,zero
    8450:	00000021 	move	zero,zero
    8454:	00000021 	move	zero,zero
    8458:	00000021 	move	zero,zero
    845c:	00000021 	move	zero,zero
    8460:	00000021 	move	zero,zero
    8464:	00000021 	move	zero,zero
    8468:	00000021 	move	zero,zero
    846c:	00000021 	move	zero,zero
    8470:	3c081868 	lui	t0,0x1868
    8474:	3508a42b 	ori	t0,t0,0xa42b
    8478:	1900ffed 	blez	t0,8430 <n33_blez_test+0x8430>
    847c:	00000000 	nop
    8480:	10000008 	b	84a4 <n33_blez_test+0x84a4>
    8484:	00000000 	nop
    8488:	00000000 	nop
    848c:	00000021 	move	zero,zero
    8490:	00000021 	move	zero,zero
    8494:	00000021 	move	zero,zero
    8498:	00000021 	move	zero,zero
    849c:	3c121f46 	lui	s2,0x1f46
    84a0:	36526b40 	ori	s2,s2,0x6b40
    84a4:	00000000 	nop
    84a8:	24140000 	li	s4,0
    84ac:	161403b4 	bne	s0,s4,9380 <inst_error>
    84b0:	00000000 	nop
    84b4:	00000000 	nop
    84b8:	24150000 	li	s5,0
    84bc:	165503b0 	bne	s2,s5,9380 <inst_error>
    84c0:	00000000 	nop
    84c4:	00000000 	nop
    84c8:	3c0c3830 	lui	t4,0x3830
    84cc:	358cc310 	ori	t4,t4,0xc310
    84d0:	3c0d9a19 	lui	t5,0x9a19
    84d4:	35ad49a8 	ori	t5,t5,0x49a8
    84d8:	24100000 	li	s0,0
    84dc:	10000012 	b	8528 <n33_blez_test+0x8528>
    84e0:	24120000 	li	s2,0
    84e4:	00000000 	nop
    84e8:	3c103830 	lui	s0,0x3830
    84ec:	19000019 	blez	t0,8554 <n33_blez_test+0x8554>
    84f0:	3610c310 	ori	s0,s0,0xc310
    84f4:	10000019 	b	855c <n33_blez_test+0x855c>
    84f8:	00000000 	nop
    84fc:	00000000 	nop
    8500:	00000021 	move	zero,zero
    8504:	00000021 	move	zero,zero
    8508:	00000021 	move	zero,zero
    850c:	00000021 	move	zero,zero
    8510:	00000021 	move	zero,zero
    8514:	00000021 	move	zero,zero
    8518:	00000021 	move	zero,zero
    851c:	00000021 	move	zero,zero
    8520:	00000021 	move	zero,zero
    8524:	00000021 	move	zero,zero
    8528:	3c08b857 	lui	t0,0xb857
    852c:	35088598 	ori	t0,t0,0x8598
    8530:	1900ffed 	blez	t0,84e8 <n33_blez_test+0x84e8>
    8534:	00000000 	nop
    8538:	10000008 	b	855c <n33_blez_test+0x855c>
    853c:	00000000 	nop
    8540:	00000000 	nop
    8544:	00000021 	move	zero,zero
    8548:	00000021 	move	zero,zero
    854c:	00000021 	move	zero,zero
    8550:	00000021 	move	zero,zero
    8554:	3c129a19 	lui	s2,0x9a19
    8558:	365249a8 	ori	s2,s2,0x49a8
    855c:	00000000 	nop
    8560:	3c143830 	lui	s4,0x3830
    8564:	3694c310 	ori	s4,s4,0xc310
    8568:	16140385 	bne	s0,s4,9380 <inst_error>
    856c:	00000000 	nop
    8570:	00000000 	nop
    8574:	3c159a19 	lui	s5,0x9a19
    8578:	36b549a8 	ori	s5,s5,0x49a8
    857c:	16550380 	bne	s2,s5,9380 <inst_error>
    8580:	00000000 	nop
    8584:	00000000 	nop
    8588:	3c0cf1ce 	lui	t4,0xf1ce
    858c:	358c7584 	ori	t4,t4,0x7584
    8590:	3c0db008 	lui	t5,0xb008
    8594:	35ad118b 	ori	t5,t5,0x118b
    8598:	24100000 	li	s0,0
    859c:	10000012 	b	85e8 <n33_blez_test+0x85e8>
    85a0:	24120000 	li	s2,0
    85a4:	00000000 	nop
    85a8:	3c10f1ce 	lui	s0,0xf1ce
    85ac:	19000019 	blez	t0,8614 <n33_blez_test+0x8614>
    85b0:	36107584 	ori	s0,s0,0x7584
    85b4:	10000019 	b	861c <n33_blez_test+0x861c>
    85b8:	00000000 	nop
    85bc:	00000000 	nop
    85c0:	00000021 	move	zero,zero
    85c4:	00000021 	move	zero,zero
    85c8:	00000021 	move	zero,zero
    85cc:	00000021 	move	zero,zero
    85d0:	00000021 	move	zero,zero
    85d4:	00000021 	move	zero,zero
    85d8:	00000021 	move	zero,zero
    85dc:	00000021 	move	zero,zero
    85e0:	00000021 	move	zero,zero
    85e4:	00000021 	move	zero,zero
    85e8:	3c083dbf 	lui	t0,0x3dbf
    85ec:	35089e34 	ori	t0,t0,0x9e34
    85f0:	1900ffed 	blez	t0,85a8 <n33_blez_test+0x85a8>
    85f4:	00000000 	nop
    85f8:	10000008 	b	861c <n33_blez_test+0x861c>
    85fc:	00000000 	nop
    8600:	00000000 	nop
    8604:	00000021 	move	zero,zero
    8608:	00000021 	move	zero,zero
    860c:	00000021 	move	zero,zero
    8610:	00000021 	move	zero,zero
    8614:	3c12b008 	lui	s2,0xb008
    8618:	3652118b 	ori	s2,s2,0x118b
    861c:	00000000 	nop
    8620:	24140000 	li	s4,0
    8624:	16140356 	bne	s0,s4,9380 <inst_error>
    8628:	00000000 	nop
    862c:	00000000 	nop
    8630:	24150000 	li	s5,0
    8634:	16550352 	bne	s2,s5,9380 <inst_error>
    8638:	00000000 	nop
    863c:	00000000 	nop
    8640:	3c0cb8e0 	lui	t4,0xb8e0
    8644:	358c06b2 	ori	t4,t4,0x6b2
    8648:	3c0d7fc5 	lui	t5,0x7fc5
    864c:	35ad2652 	ori	t5,t5,0x2652
    8650:	24100000 	li	s0,0
    8654:	10000012 	b	86a0 <n33_blez_test+0x86a0>
    8658:	24120000 	li	s2,0
    865c:	00000000 	nop
    8660:	3c10b8e0 	lui	s0,0xb8e0
    8664:	19000019 	blez	t0,86cc <n33_blez_test+0x86cc>
    8668:	361006b2 	ori	s0,s0,0x6b2
    866c:	10000019 	b	86d4 <n33_blez_test+0x86d4>
    8670:	00000000 	nop
    8674:	00000000 	nop
    8678:	00000021 	move	zero,zero
    867c:	00000021 	move	zero,zero
    8680:	00000021 	move	zero,zero
    8684:	00000021 	move	zero,zero
    8688:	00000021 	move	zero,zero
    868c:	00000021 	move	zero,zero
    8690:	00000021 	move	zero,zero
    8694:	00000021 	move	zero,zero
    8698:	00000021 	move	zero,zero
    869c:	00000021 	move	zero,zero
    86a0:	3c080fe6 	lui	t0,0xfe6
    86a4:	35086641 	ori	t0,t0,0x6641
    86a8:	1900ffed 	blez	t0,8660 <n33_blez_test+0x8660>
    86ac:	00000000 	nop
    86b0:	10000008 	b	86d4 <n33_blez_test+0x86d4>
    86b4:	00000000 	nop
    86b8:	00000000 	nop
    86bc:	00000021 	move	zero,zero
    86c0:	00000021 	move	zero,zero
    86c4:	00000021 	move	zero,zero
    86c8:	00000021 	move	zero,zero
    86cc:	3c127fc5 	lui	s2,0x7fc5
    86d0:	36522652 	ori	s2,s2,0x2652
    86d4:	00000000 	nop
    86d8:	24140000 	li	s4,0
    86dc:	16140328 	bne	s0,s4,9380 <inst_error>
    86e0:	00000000 	nop
    86e4:	00000000 	nop
    86e8:	24150000 	li	s5,0
    86ec:	16550324 	bne	s2,s5,9380 <inst_error>
    86f0:	00000000 	nop
    86f4:	00000000 	nop
    86f8:	3c0ccd12 	lui	t4,0xcd12
    86fc:	358cd338 	ori	t4,t4,0xd338
    8700:	3c0dbba7 	lui	t5,0xbba7
    8704:	35add90c 	ori	t5,t5,0xd90c
    8708:	24100000 	li	s0,0
    870c:	10000012 	b	8758 <n33_blez_test+0x8758>
    8710:	24120000 	li	s2,0
    8714:	00000000 	nop
    8718:	3c10cd12 	lui	s0,0xcd12
    871c:	19000019 	blez	t0,8784 <n33_blez_test+0x8784>
    8720:	3610d338 	ori	s0,s0,0xd338
    8724:	10000019 	b	878c <n33_blez_test+0x878c>
    8728:	00000000 	nop
    872c:	00000000 	nop
    8730:	00000021 	move	zero,zero
    8734:	00000021 	move	zero,zero
    8738:	00000021 	move	zero,zero
    873c:	00000021 	move	zero,zero
    8740:	00000021 	move	zero,zero
    8744:	00000021 	move	zero,zero
    8748:	00000021 	move	zero,zero
    874c:	00000021 	move	zero,zero
    8750:	00000021 	move	zero,zero
    8754:	00000021 	move	zero,zero
    8758:	3c08306d 	lui	t0,0x306d
    875c:	3508c10e 	ori	t0,t0,0xc10e
    8760:	1900ffed 	blez	t0,8718 <n33_blez_test+0x8718>
    8764:	00000000 	nop
    8768:	10000008 	b	878c <n33_blez_test+0x878c>
    876c:	00000000 	nop
    8770:	00000000 	nop
    8774:	00000021 	move	zero,zero
    8778:	00000021 	move	zero,zero
    877c:	00000021 	move	zero,zero
    8780:	00000021 	move	zero,zero
    8784:	3c12bba7 	lui	s2,0xbba7
    8788:	3652d90c 	ori	s2,s2,0xd90c
    878c:	00000000 	nop
    8790:	24140000 	li	s4,0
    8794:	161402fa 	bne	s0,s4,9380 <inst_error>
    8798:	00000000 	nop
    879c:	00000000 	nop
    87a0:	24150000 	li	s5,0
    87a4:	165502f6 	bne	s2,s5,9380 <inst_error>
    87a8:	00000000 	nop
    87ac:	00000000 	nop
    87b0:	3c0ceec3 	lui	t4,0xeec3
    87b4:	358c6fc0 	ori	t4,t4,0x6fc0
    87b8:	3c0d7405 	lui	t5,0x7405
    87bc:	35adfca0 	ori	t5,t5,0xfca0
    87c0:	24100000 	li	s0,0
    87c4:	10000012 	b	8810 <n33_blez_test+0x8810>
    87c8:	24120000 	li	s2,0
    87cc:	00000000 	nop
    87d0:	3c10eec3 	lui	s0,0xeec3
    87d4:	19000019 	blez	t0,883c <n33_blez_test+0x883c>
    87d8:	36106fc0 	ori	s0,s0,0x6fc0
    87dc:	10000019 	b	8844 <n33_blez_test+0x8844>
    87e0:	00000000 	nop
    87e4:	00000000 	nop
    87e8:	00000021 	move	zero,zero
    87ec:	00000021 	move	zero,zero
    87f0:	00000021 	move	zero,zero
    87f4:	00000021 	move	zero,zero
    87f8:	00000021 	move	zero,zero
    87fc:	00000021 	move	zero,zero
    8800:	00000021 	move	zero,zero
    8804:	00000021 	move	zero,zero
    8808:	00000021 	move	zero,zero
    880c:	00000021 	move	zero,zero
    8810:	3c08540d 	lui	t0,0x540d
    8814:	3508c4a4 	ori	t0,t0,0xc4a4
    8818:	1900ffed 	blez	t0,87d0 <n33_blez_test+0x87d0>
    881c:	00000000 	nop
    8820:	10000008 	b	8844 <n33_blez_test+0x8844>
    8824:	00000000 	nop
    8828:	00000000 	nop
    882c:	00000021 	move	zero,zero
    8830:	00000021 	move	zero,zero
    8834:	00000021 	move	zero,zero
    8838:	00000021 	move	zero,zero
    883c:	3c127405 	lui	s2,0x7405
    8840:	3652fca0 	ori	s2,s2,0xfca0
    8844:	00000000 	nop
    8848:	24140000 	li	s4,0
    884c:	161402cc 	bne	s0,s4,9380 <inst_error>
    8850:	00000000 	nop
    8854:	00000000 	nop
    8858:	24150000 	li	s5,0
    885c:	165502c8 	bne	s2,s5,9380 <inst_error>
    8860:	00000000 	nop
    8864:	00000000 	nop
    8868:	3c0ccfe8 	lui	t4,0xcfe8
    886c:	358cef46 	ori	t4,t4,0xef46
    8870:	3c0d4ca6 	lui	t5,0x4ca6
    8874:	35ad1163 	ori	t5,t5,0x1163
    8878:	24100000 	li	s0,0
    887c:	10000012 	b	88c8 <n33_blez_test+0x88c8>
    8880:	24120000 	li	s2,0
    8884:	00000000 	nop
    8888:	3c10cfe8 	lui	s0,0xcfe8
    888c:	19000019 	blez	t0,88f4 <n33_blez_test+0x88f4>
    8890:	3610ef46 	ori	s0,s0,0xef46
    8894:	10000019 	b	88fc <n33_blez_test+0x88fc>
    8898:	00000000 	nop
    889c:	00000000 	nop
    88a0:	00000021 	move	zero,zero
    88a4:	00000021 	move	zero,zero
    88a8:	00000021 	move	zero,zero
    88ac:	00000021 	move	zero,zero
    88b0:	00000021 	move	zero,zero
    88b4:	00000021 	move	zero,zero
    88b8:	00000021 	move	zero,zero
    88bc:	00000021 	move	zero,zero
    88c0:	00000021 	move	zero,zero
    88c4:	00000021 	move	zero,zero
    88c8:	3c08a437 	lui	t0,0xa437
    88cc:	35080260 	ori	t0,t0,0x260
    88d0:	1900ffed 	blez	t0,8888 <n33_blez_test+0x8888>
    88d4:	00000000 	nop
    88d8:	10000008 	b	88fc <n33_blez_test+0x88fc>
    88dc:	00000000 	nop
    88e0:	00000000 	nop
    88e4:	00000021 	move	zero,zero
    88e8:	00000021 	move	zero,zero
    88ec:	00000021 	move	zero,zero
    88f0:	00000021 	move	zero,zero
    88f4:	3c124ca6 	lui	s2,0x4ca6
    88f8:	36521163 	ori	s2,s2,0x1163
    88fc:	00000000 	nop
    8900:	3c14cfe8 	lui	s4,0xcfe8
    8904:	3694ef46 	ori	s4,s4,0xef46
    8908:	1614029d 	bne	s0,s4,9380 <inst_error>
    890c:	00000000 	nop
    8910:	00000000 	nop
    8914:	3c154ca6 	lui	s5,0x4ca6
    8918:	36b51163 	ori	s5,s5,0x1163
    891c:	16550298 	bne	s2,s5,9380 <inst_error>
    8920:	00000000 	nop
    8924:	00000000 	nop
    8928:	3c0c1097 	lui	t4,0x1097
    892c:	358c0080 	ori	t4,t4,0x80
    8930:	3c0d24e4 	lui	t5,0x24e4
    8934:	35ad393d 	ori	t5,t5,0x393d
    8938:	24100000 	li	s0,0
    893c:	10000012 	b	8988 <n33_blez_test+0x8988>
    8940:	24120000 	li	s2,0
    8944:	00000000 	nop
    8948:	3c101097 	lui	s0,0x1097
    894c:	19000019 	blez	t0,89b4 <n33_blez_test+0x89b4>
    8950:	36100080 	ori	s0,s0,0x80
    8954:	10000019 	b	89bc <n33_blez_test+0x89bc>
    8958:	00000000 	nop
    895c:	00000000 	nop
    8960:	00000021 	move	zero,zero
    8964:	00000021 	move	zero,zero
    8968:	00000021 	move	zero,zero
    896c:	00000021 	move	zero,zero
    8970:	00000021 	move	zero,zero
    8974:	00000021 	move	zero,zero
    8978:	00000021 	move	zero,zero
    897c:	00000021 	move	zero,zero
    8980:	00000021 	move	zero,zero
    8984:	00000021 	move	zero,zero
    8988:	3c085e23 	lui	t0,0x5e23
    898c:	3508d148 	ori	t0,t0,0xd148
    8990:	1900ffed 	blez	t0,8948 <n33_blez_test+0x8948>
    8994:	00000000 	nop
    8998:	10000008 	b	89bc <n33_blez_test+0x89bc>
    899c:	00000000 	nop
    89a0:	00000000 	nop
    89a4:	00000021 	move	zero,zero
    89a8:	00000021 	move	zero,zero
    89ac:	00000021 	move	zero,zero
    89b0:	00000021 	move	zero,zero
    89b4:	3c1224e4 	lui	s2,0x24e4
    89b8:	3652393d 	ori	s2,s2,0x393d
    89bc:	00000000 	nop
    89c0:	24140000 	li	s4,0
    89c4:	1614026e 	bne	s0,s4,9380 <inst_error>
    89c8:	00000000 	nop
    89cc:	00000000 	nop
    89d0:	24150000 	li	s5,0
    89d4:	1655026a 	bne	s2,s5,9380 <inst_error>
    89d8:	00000000 	nop
    89dc:	00000000 	nop
    89e0:	3c0cf7ef 	lui	t4,0xf7ef
    89e4:	358ca088 	ori	t4,t4,0xa088
    89e8:	3c0dfff8 	lui	t5,0xfff8
    89ec:	35ad14d0 	ori	t5,t5,0x14d0
    89f0:	24100000 	li	s0,0
    89f4:	10000012 	b	8a40 <n33_blez_test+0x8a40>
    89f8:	24120000 	li	s2,0
    89fc:	00000000 	nop
    8a00:	3c10f7ef 	lui	s0,0xf7ef
    8a04:	19000019 	blez	t0,8a6c <n33_blez_test+0x8a6c>
    8a08:	3610a088 	ori	s0,s0,0xa088
    8a0c:	10000019 	b	8a74 <n33_blez_test+0x8a74>
    8a10:	00000000 	nop
    8a14:	00000000 	nop
    8a18:	00000021 	move	zero,zero
    8a1c:	00000021 	move	zero,zero
    8a20:	00000021 	move	zero,zero
    8a24:	00000021 	move	zero,zero
    8a28:	00000021 	move	zero,zero
    8a2c:	00000021 	move	zero,zero
    8a30:	00000021 	move	zero,zero
    8a34:	00000021 	move	zero,zero
    8a38:	00000021 	move	zero,zero
    8a3c:	00000021 	move	zero,zero
    8a40:	3c08e886 	lui	t0,0xe886
    8a44:	3508dcfa 	ori	t0,t0,0xdcfa
    8a48:	1900ffed 	blez	t0,8a00 <n33_blez_test+0x8a00>
    8a4c:	00000000 	nop
    8a50:	10000008 	b	8a74 <n33_blez_test+0x8a74>
    8a54:	00000000 	nop
    8a58:	00000000 	nop
    8a5c:	00000021 	move	zero,zero
    8a60:	00000021 	move	zero,zero
    8a64:	00000021 	move	zero,zero
    8a68:	00000021 	move	zero,zero
    8a6c:	3c12fff8 	lui	s2,0xfff8
    8a70:	365214d0 	ori	s2,s2,0x14d0
    8a74:	00000000 	nop
    8a78:	3c14f7ef 	lui	s4,0xf7ef
    8a7c:	3694a088 	ori	s4,s4,0xa088
    8a80:	1614023f 	bne	s0,s4,9380 <inst_error>
    8a84:	00000000 	nop
    8a88:	00000000 	nop
    8a8c:	3c15fff8 	lui	s5,0xfff8
    8a90:	36b514d0 	ori	s5,s5,0x14d0
    8a94:	1655023a 	bne	s2,s5,9380 <inst_error>
    8a98:	00000000 	nop
    8a9c:	00000000 	nop
    8aa0:	3c0c09e3 	lui	t4,0x9e3
    8aa4:	358cf920 	ori	t4,t4,0xf920
    8aa8:	3c0d19f2 	lui	t5,0x19f2
    8aac:	35ad27c0 	ori	t5,t5,0x27c0
    8ab0:	24100000 	li	s0,0
    8ab4:	10000012 	b	8b00 <n33_blez_test+0x8b00>
    8ab8:	24120000 	li	s2,0
    8abc:	00000000 	nop
    8ac0:	3c1009e3 	lui	s0,0x9e3
    8ac4:	19000019 	blez	t0,8b2c <n33_blez_test+0x8b2c>
    8ac8:	3610f920 	ori	s0,s0,0xf920
    8acc:	10000019 	b	8b34 <n33_blez_test+0x8b34>
    8ad0:	00000000 	nop
    8ad4:	00000000 	nop
    8ad8:	00000021 	move	zero,zero
    8adc:	00000021 	move	zero,zero
    8ae0:	00000021 	move	zero,zero
    8ae4:	00000021 	move	zero,zero
    8ae8:	00000021 	move	zero,zero
    8aec:	00000021 	move	zero,zero
    8af0:	00000021 	move	zero,zero
    8af4:	00000021 	move	zero,zero
    8af8:	00000021 	move	zero,zero
    8afc:	00000021 	move	zero,zero
    8b00:	3c080e73 	lui	t0,0xe73
    8b04:	3508e9d5 	ori	t0,t0,0xe9d5
    8b08:	1900ffed 	blez	t0,8ac0 <n33_blez_test+0x8ac0>
    8b0c:	00000000 	nop
    8b10:	10000008 	b	8b34 <n33_blez_test+0x8b34>
    8b14:	00000000 	nop
    8b18:	00000000 	nop
    8b1c:	00000021 	move	zero,zero
    8b20:	00000021 	move	zero,zero
    8b24:	00000021 	move	zero,zero
    8b28:	00000021 	move	zero,zero
    8b2c:	3c1219f2 	lui	s2,0x19f2
    8b30:	365227c0 	ori	s2,s2,0x27c0
    8b34:	00000000 	nop
    8b38:	24140000 	li	s4,0
    8b3c:	16140210 	bne	s0,s4,9380 <inst_error>
    8b40:	00000000 	nop
    8b44:	00000000 	nop
    8b48:	24150000 	li	s5,0
    8b4c:	1655020c 	bne	s2,s5,9380 <inst_error>
    8b50:	00000000 	nop
    8b54:	00000000 	nop
    8b58:	3c0cb4b7 	lui	t4,0xb4b7
    8b5c:	358c8c80 	ori	t4,t4,0x8c80
    8b60:	3c0dea25 	lui	t5,0xea25
    8b64:	35ad8bd0 	ori	t5,t5,0x8bd0
    8b68:	24100000 	li	s0,0
    8b6c:	10000012 	b	8bb8 <n33_blez_test+0x8bb8>
    8b70:	24120000 	li	s2,0
    8b74:	00000000 	nop
    8b78:	3c10b4b7 	lui	s0,0xb4b7
    8b7c:	19000019 	blez	t0,8be4 <n33_blez_test+0x8be4>
    8b80:	36108c80 	ori	s0,s0,0x8c80
    8b84:	10000019 	b	8bec <n33_blez_test+0x8bec>
    8b88:	00000000 	nop
    8b8c:	00000000 	nop
    8b90:	00000021 	move	zero,zero
    8b94:	00000021 	move	zero,zero
    8b98:	00000021 	move	zero,zero
    8b9c:	00000021 	move	zero,zero
    8ba0:	00000021 	move	zero,zero
    8ba4:	00000021 	move	zero,zero
    8ba8:	00000021 	move	zero,zero
    8bac:	00000021 	move	zero,zero
    8bb0:	00000021 	move	zero,zero
    8bb4:	00000021 	move	zero,zero
    8bb8:	3c0875eb 	lui	t0,0x75eb
    8bbc:	350813ea 	ori	t0,t0,0x13ea
    8bc0:	1900ffed 	blez	t0,8b78 <n33_blez_test+0x8b78>
    8bc4:	00000000 	nop
    8bc8:	10000008 	b	8bec <n33_blez_test+0x8bec>
    8bcc:	00000000 	nop
    8bd0:	00000000 	nop
    8bd4:	00000021 	move	zero,zero
    8bd8:	00000021 	move	zero,zero
    8bdc:	00000021 	move	zero,zero
    8be0:	00000021 	move	zero,zero
    8be4:	3c12ea25 	lui	s2,0xea25
    8be8:	36528bd0 	ori	s2,s2,0x8bd0
    8bec:	00000000 	nop
    8bf0:	24140000 	li	s4,0
    8bf4:	161401e2 	bne	s0,s4,9380 <inst_error>
    8bf8:	00000000 	nop
    8bfc:	00000000 	nop
    8c00:	24150000 	li	s5,0
    8c04:	165501de 	bne	s2,s5,9380 <inst_error>
    8c08:	00000000 	nop
    8c0c:	00000000 	nop
    8c10:	3c0c4e19 	lui	t4,0x4e19
    8c14:	358c40fc 	ori	t4,t4,0x40fc
    8c18:	3c0d38e2 	lui	t5,0x38e2
    8c1c:	35ad0270 	ori	t5,t5,0x270
    8c20:	24100000 	li	s0,0
    8c24:	10000012 	b	8c70 <n33_blez_test+0x8c70>
    8c28:	24120000 	li	s2,0
    8c2c:	00000000 	nop
    8c30:	3c104e19 	lui	s0,0x4e19
    8c34:	19000019 	blez	t0,8c9c <n33_blez_test+0x8c9c>
    8c38:	361040fc 	ori	s0,s0,0x40fc
    8c3c:	10000019 	b	8ca4 <n33_blez_test+0x8ca4>
    8c40:	00000000 	nop
    8c44:	00000000 	nop
    8c48:	00000021 	move	zero,zero
    8c4c:	00000021 	move	zero,zero
    8c50:	00000021 	move	zero,zero
    8c54:	00000021 	move	zero,zero
    8c58:	00000021 	move	zero,zero
    8c5c:	00000021 	move	zero,zero
    8c60:	00000021 	move	zero,zero
    8c64:	00000021 	move	zero,zero
    8c68:	00000021 	move	zero,zero
    8c6c:	00000021 	move	zero,zero
    8c70:	3c081901 	lui	t0,0x1901
    8c74:	35085b8e 	ori	t0,t0,0x5b8e
    8c78:	1900ffed 	blez	t0,8c30 <n33_blez_test+0x8c30>
    8c7c:	00000000 	nop
    8c80:	10000008 	b	8ca4 <n33_blez_test+0x8ca4>
    8c84:	00000000 	nop
    8c88:	00000000 	nop
    8c8c:	00000021 	move	zero,zero
    8c90:	00000021 	move	zero,zero
    8c94:	00000021 	move	zero,zero
    8c98:	00000021 	move	zero,zero
    8c9c:	3c1238e2 	lui	s2,0x38e2
    8ca0:	36520270 	ori	s2,s2,0x270
    8ca4:	00000000 	nop
    8ca8:	24140000 	li	s4,0
    8cac:	161401b4 	bne	s0,s4,9380 <inst_error>
    8cb0:	00000000 	nop
    8cb4:	00000000 	nop
    8cb8:	24150000 	li	s5,0
    8cbc:	165501b0 	bne	s2,s5,9380 <inst_error>
    8cc0:	00000000 	nop
    8cc4:	00000000 	nop
    8cc8:	3c0c4aaf 	lui	t4,0x4aaf
    8ccc:	358cc444 	ori	t4,t4,0xc444
    8cd0:	3c0da570 	lui	t5,0xa570
    8cd4:	35adefa8 	ori	t5,t5,0xefa8
    8cd8:	24100000 	li	s0,0
    8cdc:	10000012 	b	8d28 <n33_blez_test+0x8d28>
    8ce0:	24120000 	li	s2,0
    8ce4:	00000000 	nop
    8ce8:	3c104aaf 	lui	s0,0x4aaf
    8cec:	19000019 	blez	t0,8d54 <n33_blez_test+0x8d54>
    8cf0:	3610c444 	ori	s0,s0,0xc444
    8cf4:	10000019 	b	8d5c <n33_blez_test+0x8d5c>
    8cf8:	00000000 	nop
    8cfc:	00000000 	nop
    8d00:	00000021 	move	zero,zero
    8d04:	00000021 	move	zero,zero
    8d08:	00000021 	move	zero,zero
    8d0c:	00000021 	move	zero,zero
    8d10:	00000021 	move	zero,zero
    8d14:	00000021 	move	zero,zero
    8d18:	00000021 	move	zero,zero
    8d1c:	00000021 	move	zero,zero
    8d20:	00000021 	move	zero,zero
    8d24:	00000021 	move	zero,zero
    8d28:	3c08972d 	lui	t0,0x972d
    8d2c:	3508e888 	ori	t0,t0,0xe888
    8d30:	1900ffed 	blez	t0,8ce8 <n33_blez_test+0x8ce8>
    8d34:	00000000 	nop
    8d38:	10000008 	b	8d5c <n33_blez_test+0x8d5c>
    8d3c:	00000000 	nop
    8d40:	00000000 	nop
    8d44:	00000021 	move	zero,zero
    8d48:	00000021 	move	zero,zero
    8d4c:	00000021 	move	zero,zero
    8d50:	00000021 	move	zero,zero
    8d54:	3c12a570 	lui	s2,0xa570
    8d58:	3652efa8 	ori	s2,s2,0xefa8
    8d5c:	00000000 	nop
    8d60:	3c144aaf 	lui	s4,0x4aaf
    8d64:	3694c444 	ori	s4,s4,0xc444
    8d68:	16140185 	bne	s0,s4,9380 <inst_error>
    8d6c:	00000000 	nop
    8d70:	00000000 	nop
    8d74:	3c15a570 	lui	s5,0xa570
    8d78:	36b5efa8 	ori	s5,s5,0xefa8
    8d7c:	16550180 	bne	s2,s5,9380 <inst_error>
    8d80:	00000000 	nop
    8d84:	00000000 	nop
    8d88:	3c0cf0d7 	lui	t4,0xf0d7
    8d8c:	358c500c 	ori	t4,t4,0x500c
    8d90:	3c0d1757 	lui	t5,0x1757
    8d94:	35ada2b8 	ori	t5,t5,0xa2b8
    8d98:	24100000 	li	s0,0
    8d9c:	10000012 	b	8de8 <n33_blez_test+0x8de8>
    8da0:	24120000 	li	s2,0
    8da4:	00000000 	nop
    8da8:	3c10f0d7 	lui	s0,0xf0d7
    8dac:	19000019 	blez	t0,8e14 <n33_blez_test+0x8e14>
    8db0:	3610500c 	ori	s0,s0,0x500c
    8db4:	10000019 	b	8e1c <n33_blez_test+0x8e1c>
    8db8:	00000000 	nop
    8dbc:	00000000 	nop
    8dc0:	00000021 	move	zero,zero
    8dc4:	00000021 	move	zero,zero
    8dc8:	00000021 	move	zero,zero
    8dcc:	00000021 	move	zero,zero
    8dd0:	00000021 	move	zero,zero
    8dd4:	00000021 	move	zero,zero
    8dd8:	00000021 	move	zero,zero
    8ddc:	00000021 	move	zero,zero
    8de0:	00000021 	move	zero,zero
    8de4:	00000021 	move	zero,zero
    8de8:	3c08ee1a 	lui	t0,0xee1a
    8dec:	35082edc 	ori	t0,t0,0x2edc
    8df0:	1900ffed 	blez	t0,8da8 <n33_blez_test+0x8da8>
    8df4:	00000000 	nop
    8df8:	10000008 	b	8e1c <n33_blez_test+0x8e1c>
    8dfc:	00000000 	nop
    8e00:	00000000 	nop
    8e04:	00000021 	move	zero,zero
    8e08:	00000021 	move	zero,zero
    8e0c:	00000021 	move	zero,zero
    8e10:	00000021 	move	zero,zero
    8e14:	3c121757 	lui	s2,0x1757
    8e18:	3652a2b8 	ori	s2,s2,0xa2b8
    8e1c:	00000000 	nop
    8e20:	3c14f0d7 	lui	s4,0xf0d7
    8e24:	3694500c 	ori	s4,s4,0x500c
    8e28:	16140155 	bne	s0,s4,9380 <inst_error>
    8e2c:	00000000 	nop
    8e30:	00000000 	nop
    8e34:	3c151757 	lui	s5,0x1757
    8e38:	36b5a2b8 	ori	s5,s5,0xa2b8
    8e3c:	16550150 	bne	s2,s5,9380 <inst_error>
    8e40:	00000000 	nop
    8e44:	00000000 	nop
    8e48:	3c0c3e94 	lui	t4,0x3e94
    8e4c:	358c3321 	ori	t4,t4,0x3321
    8e50:	3c0df4a1 	lui	t5,0xf4a1
    8e54:	35ad52a0 	ori	t5,t5,0x52a0
    8e58:	24100000 	li	s0,0
    8e5c:	10000012 	b	8ea8 <n33_blez_test+0x8ea8>
    8e60:	24120000 	li	s2,0
    8e64:	00000000 	nop
    8e68:	3c103e94 	lui	s0,0x3e94
    8e6c:	19000019 	blez	t0,8ed4 <n33_blez_test+0x8ed4>
    8e70:	36103321 	ori	s0,s0,0x3321
    8e74:	10000019 	b	8edc <n33_blez_test+0x8edc>
    8e78:	00000000 	nop
    8e7c:	00000000 	nop
    8e80:	00000021 	move	zero,zero
    8e84:	00000021 	move	zero,zero
    8e88:	00000021 	move	zero,zero
    8e8c:	00000021 	move	zero,zero
    8e90:	00000021 	move	zero,zero
    8e94:	00000021 	move	zero,zero
    8e98:	00000021 	move	zero,zero
    8e9c:	00000021 	move	zero,zero
    8ea0:	00000021 	move	zero,zero
    8ea4:	00000021 	move	zero,zero
    8ea8:	3c08443c 	lui	t0,0x443c
    8eac:	35087e4e 	ori	t0,t0,0x7e4e
    8eb0:	1900ffed 	blez	t0,8e68 <n33_blez_test+0x8e68>
    8eb4:	00000000 	nop
    8eb8:	10000008 	b	8edc <n33_blez_test+0x8edc>
    8ebc:	00000000 	nop
    8ec0:	00000000 	nop
    8ec4:	00000021 	move	zero,zero
    8ec8:	00000021 	move	zero,zero
    8ecc:	00000021 	move	zero,zero
    8ed0:	00000021 	move	zero,zero
    8ed4:	3c12f4a1 	lui	s2,0xf4a1
    8ed8:	365252a0 	ori	s2,s2,0x52a0
    8edc:	00000000 	nop
    8ee0:	24140000 	li	s4,0
    8ee4:	16140126 	bne	s0,s4,9380 <inst_error>
    8ee8:	00000000 	nop
    8eec:	00000000 	nop
    8ef0:	24150000 	li	s5,0
    8ef4:	16550122 	bne	s2,s5,9380 <inst_error>
    8ef8:	00000000 	nop
    8efc:	00000000 	nop
    8f00:	3c0cbabf 	lui	t4,0xbabf
    8f04:	358c26a8 	ori	t4,t4,0x26a8
    8f08:	3c0d9c06 	lui	t5,0x9c06
    8f0c:	35adc0c0 	ori	t5,t5,0xc0c0
    8f10:	24100000 	li	s0,0
    8f14:	10000012 	b	8f60 <n33_blez_test+0x8f60>
    8f18:	24120000 	li	s2,0
    8f1c:	00000000 	nop
    8f20:	3c10babf 	lui	s0,0xbabf
    8f24:	19000019 	blez	t0,8f8c <n33_blez_test+0x8f8c>
    8f28:	361026a8 	ori	s0,s0,0x26a8
    8f2c:	10000019 	b	8f94 <n33_blez_test+0x8f94>
    8f30:	00000000 	nop
    8f34:	00000000 	nop
    8f38:	00000021 	move	zero,zero
    8f3c:	00000021 	move	zero,zero
    8f40:	00000021 	move	zero,zero
    8f44:	00000021 	move	zero,zero
    8f48:	00000021 	move	zero,zero
    8f4c:	00000021 	move	zero,zero
    8f50:	00000021 	move	zero,zero
    8f54:	00000021 	move	zero,zero
    8f58:	00000021 	move	zero,zero
    8f5c:	00000021 	move	zero,zero
    8f60:	3c08117e 	lui	t0,0x117e
    8f64:	35088344 	ori	t0,t0,0x8344
    8f68:	1900ffed 	blez	t0,8f20 <n33_blez_test+0x8f20>
    8f6c:	00000000 	nop
    8f70:	10000008 	b	8f94 <n33_blez_test+0x8f94>
    8f74:	00000000 	nop
    8f78:	00000000 	nop
    8f7c:	00000021 	move	zero,zero
    8f80:	00000021 	move	zero,zero
    8f84:	00000021 	move	zero,zero
    8f88:	00000021 	move	zero,zero
    8f8c:	3c129c06 	lui	s2,0x9c06
    8f90:	3652c0c0 	ori	s2,s2,0xc0c0
    8f94:	00000000 	nop
    8f98:	24140000 	li	s4,0
    8f9c:	161400f8 	bne	s0,s4,9380 <inst_error>
    8fa0:	00000000 	nop
    8fa4:	00000000 	nop
    8fa8:	24150000 	li	s5,0
    8fac:	165500f4 	bne	s2,s5,9380 <inst_error>
    8fb0:	00000000 	nop
    8fb4:	00000000 	nop
    8fb8:	3c0cea86 	lui	t4,0xea86
    8fbc:	358c7f00 	ori	t4,t4,0x7f00
    8fc0:	3c0d6d76 	lui	t5,0x6d76
    8fc4:	35ad50e5 	ori	t5,t5,0x50e5
    8fc8:	24100000 	li	s0,0
    8fcc:	10000012 	b	9018 <n33_blez_test+0x9018>
    8fd0:	24120000 	li	s2,0
    8fd4:	00000000 	nop
    8fd8:	3c10ea86 	lui	s0,0xea86
    8fdc:	19000019 	blez	t0,9044 <n33_blez_test+0x9044>
    8fe0:	36107f00 	ori	s0,s0,0x7f00
    8fe4:	10000019 	b	904c <n33_blez_test+0x904c>
    8fe8:	00000000 	nop
    8fec:	00000000 	nop
    8ff0:	00000021 	move	zero,zero
    8ff4:	00000021 	move	zero,zero
    8ff8:	00000021 	move	zero,zero
    8ffc:	00000021 	move	zero,zero
    9000:	00000021 	move	zero,zero
    9004:	00000021 	move	zero,zero
    9008:	00000021 	move	zero,zero
    900c:	00000021 	move	zero,zero
    9010:	00000021 	move	zero,zero
    9014:	00000021 	move	zero,zero
    9018:	3c08dab5 	lui	t0,0xdab5
    901c:	350862ac 	ori	t0,t0,0x62ac
    9020:	1900ffed 	blez	t0,8fd8 <n33_blez_test+0x8fd8>
    9024:	00000000 	nop
    9028:	10000008 	b	904c <n33_blez_test+0x904c>
    902c:	00000000 	nop
    9030:	00000000 	nop
    9034:	00000021 	move	zero,zero
    9038:	00000021 	move	zero,zero
    903c:	00000021 	move	zero,zero
    9040:	00000021 	move	zero,zero
    9044:	3c126d76 	lui	s2,0x6d76
    9048:	365250e5 	ori	s2,s2,0x50e5
    904c:	00000000 	nop
    9050:	3c14ea86 	lui	s4,0xea86
    9054:	36947f00 	ori	s4,s4,0x7f00
    9058:	161400c9 	bne	s0,s4,9380 <inst_error>
    905c:	00000000 	nop
    9060:	00000000 	nop
    9064:	3c156d76 	lui	s5,0x6d76
    9068:	36b550e5 	ori	s5,s5,0x50e5
    906c:	165500c4 	bne	s2,s5,9380 <inst_error>
    9070:	00000000 	nop
    9074:	00000000 	nop
    9078:	3c0cd052 	lui	t4,0xd052
    907c:	358c2db0 	ori	t4,t4,0x2db0
    9080:	3c0dd10a 	lui	t5,0xd10a
    9084:	35ad197c 	ori	t5,t5,0x197c
    9088:	24100000 	li	s0,0
    908c:	10000012 	b	90d8 <n33_blez_test+0x90d8>
    9090:	24120000 	li	s2,0
    9094:	00000000 	nop
    9098:	3c10d052 	lui	s0,0xd052
    909c:	19000019 	blez	t0,9104 <n33_blez_test+0x9104>
    90a0:	36102db0 	ori	s0,s0,0x2db0
    90a4:	10000019 	b	910c <n33_blez_test+0x910c>
    90a8:	00000000 	nop
    90ac:	00000000 	nop
    90b0:	00000021 	move	zero,zero
    90b4:	00000021 	move	zero,zero
    90b8:	00000021 	move	zero,zero
    90bc:	00000021 	move	zero,zero
    90c0:	00000021 	move	zero,zero
    90c4:	00000021 	move	zero,zero
    90c8:	00000021 	move	zero,zero
    90cc:	00000021 	move	zero,zero
    90d0:	00000021 	move	zero,zero
    90d4:	00000021 	move	zero,zero
    90d8:	3c088d7e 	lui	t0,0x8d7e
    90dc:	35089274 	ori	t0,t0,0x9274
    90e0:	1900ffed 	blez	t0,9098 <n33_blez_test+0x9098>
    90e4:	00000000 	nop
    90e8:	10000008 	b	910c <n33_blez_test+0x910c>
    90ec:	00000000 	nop
    90f0:	00000000 	nop
    90f4:	00000021 	move	zero,zero
    90f8:	00000021 	move	zero,zero
    90fc:	00000021 	move	zero,zero
    9100:	00000021 	move	zero,zero
    9104:	3c12d10a 	lui	s2,0xd10a
    9108:	3652197c 	ori	s2,s2,0x197c
    910c:	00000000 	nop
    9110:	3c14d052 	lui	s4,0xd052
    9114:	36942db0 	ori	s4,s4,0x2db0
    9118:	16140099 	bne	s0,s4,9380 <inst_error>
    911c:	00000000 	nop
    9120:	00000000 	nop
    9124:	3c15d10a 	lui	s5,0xd10a
    9128:	36b5197c 	ori	s5,s5,0x197c
    912c:	16550094 	bne	s2,s5,9380 <inst_error>
    9130:	00000000 	nop
    9134:	00000000 	nop
    9138:	3c0c2a46 	lui	t4,0x2a46
    913c:	358c001d 	ori	t4,t4,0x1d
    9140:	3c0d05fa 	lui	t5,0x5fa
    9144:	35ad2efa 	ori	t5,t5,0x2efa
    9148:	24100000 	li	s0,0
    914c:	10000012 	b	9198 <n33_blez_test+0x9198>
    9150:	24120000 	li	s2,0
    9154:	00000000 	nop
    9158:	3c102a46 	lui	s0,0x2a46
    915c:	19000019 	blez	t0,91c4 <n33_blez_test+0x91c4>
    9160:	3610001d 	ori	s0,s0,0x1d
    9164:	10000019 	b	91cc <n33_blez_test+0x91cc>
    9168:	00000000 	nop
    916c:	00000000 	nop
    9170:	00000021 	move	zero,zero
    9174:	00000021 	move	zero,zero
    9178:	00000021 	move	zero,zero
    917c:	00000021 	move	zero,zero
    9180:	00000021 	move	zero,zero
    9184:	00000021 	move	zero,zero
    9188:	00000021 	move	zero,zero
    918c:	00000021 	move	zero,zero
    9190:	00000021 	move	zero,zero
    9194:	00000021 	move	zero,zero
    9198:	3c08dcfa 	lui	t0,0xdcfa
    919c:	3508fe3c 	ori	t0,t0,0xfe3c
    91a0:	1900ffed 	blez	t0,9158 <n33_blez_test+0x9158>
    91a4:	00000000 	nop
    91a8:	10000008 	b	91cc <n33_blez_test+0x91cc>
    91ac:	00000000 	nop
    91b0:	00000000 	nop
    91b4:	00000021 	move	zero,zero
    91b8:	00000021 	move	zero,zero
    91bc:	00000021 	move	zero,zero
    91c0:	00000021 	move	zero,zero
    91c4:	3c1205fa 	lui	s2,0x5fa
    91c8:	36522efa 	ori	s2,s2,0x2efa
    91cc:	00000000 	nop
    91d0:	3c142a46 	lui	s4,0x2a46
    91d4:	3694001d 	ori	s4,s4,0x1d
    91d8:	16140069 	bne	s0,s4,9380 <inst_error>
    91dc:	00000000 	nop
    91e0:	00000000 	nop
    91e4:	3c1505fa 	lui	s5,0x5fa
    91e8:	36b52efa 	ori	s5,s5,0x2efa
    91ec:	16550064 	bne	s2,s5,9380 <inst_error>
    91f0:	00000000 	nop
    91f4:	00000000 	nop
    91f8:	3c0c207b 	lui	t4,0x207b
    91fc:	358cd558 	ori	t4,t4,0xd558
    9200:	3c0daacf 	lui	t5,0xaacf
    9204:	35adecf0 	ori	t5,t5,0xecf0
    9208:	24100000 	li	s0,0
    920c:	10000012 	b	9258 <n33_blez_test+0x9258>
    9210:	24120000 	li	s2,0
    9214:	00000000 	nop
    9218:	3c10207b 	lui	s0,0x207b
    921c:	19000019 	blez	t0,9284 <n33_blez_test+0x9284>
    9220:	3610d558 	ori	s0,s0,0xd558
    9224:	10000019 	b	928c <n33_blez_test+0x928c>
    9228:	00000000 	nop
    922c:	00000000 	nop
    9230:	00000021 	move	zero,zero
    9234:	00000021 	move	zero,zero
    9238:	00000021 	move	zero,zero
    923c:	00000021 	move	zero,zero
    9240:	00000021 	move	zero,zero
    9244:	00000021 	move	zero,zero
    9248:	00000021 	move	zero,zero
    924c:	00000021 	move	zero,zero
    9250:	00000021 	move	zero,zero
    9254:	00000021 	move	zero,zero
    9258:	3c08f293 	lui	t0,0xf293
    925c:	35088d4c 	ori	t0,t0,0x8d4c
    9260:	1900ffed 	blez	t0,9218 <n33_blez_test+0x9218>
    9264:	00000000 	nop
    9268:	10000008 	b	928c <n33_blez_test+0x928c>
    926c:	00000000 	nop
    9270:	00000000 	nop
    9274:	00000021 	move	zero,zero
    9278:	00000021 	move	zero,zero
    927c:	00000021 	move	zero,zero
    9280:	00000021 	move	zero,zero
    9284:	3c12aacf 	lui	s2,0xaacf
    9288:	3652ecf0 	ori	s2,s2,0xecf0
    928c:	00000000 	nop
    9290:	3c14207b 	lui	s4,0x207b
    9294:	3694d558 	ori	s4,s4,0xd558
    9298:	16140039 	bne	s0,s4,9380 <inst_error>
    929c:	00000000 	nop
    92a0:	00000000 	nop
    92a4:	3c15aacf 	lui	s5,0xaacf
    92a8:	36b5ecf0 	ori	s5,s5,0xecf0
    92ac:	16550034 	bne	s2,s5,9380 <inst_error>
    92b0:	00000000 	nop
    92b4:	00000000 	nop
    92b8:	3c0cbb97 	lui	t4,0xbb97
    92bc:	358c34a0 	ori	t4,t4,0x34a0
    92c0:	3c0dff0a 	lui	t5,0xff0a
    92c4:	35adf084 	ori	t5,t5,0xf084
    92c8:	24100000 	li	s0,0
    92cc:	10000012 	b	9318 <n33_blez_test+0x9318>
    92d0:	24120000 	li	s2,0
    92d4:	00000000 	nop
    92d8:	3c10bb97 	lui	s0,0xbb97
    92dc:	19000018 	blez	t0,9340 <n33_blez_test+0x9340>
    92e0:	361034a0 	ori	s0,s0,0x34a0
    92e4:	10000018 	b	9348 <n33_blez_test+0x9348>
    92e8:	00000000 	nop
    92ec:	00000000 	nop
    92f0:	00000021 	move	zero,zero
    92f4:	00000021 	move	zero,zero
    92f8:	00000021 	move	zero,zero
    92fc:	00000021 	move	zero,zero
    9300:	00000021 	move	zero,zero
    9304:	00000021 	move	zero,zero
    9308:	00000021 	move	zero,zero
    930c:	00000021 	move	zero,zero
    9310:	00000021 	move	zero,zero
    9314:	00000021 	move	zero,zero
    9318:	24080000 	li	t0,0
    931c:	1900ffee 	blez	t0,92d8 <n33_blez_test+0x92d8>
    9320:	00000000 	nop
    9324:	10000008 	b	9348 <n33_blez_test+0x9348>
    9328:	00000000 	nop
    932c:	00000000 	nop
    9330:	00000021 	move	zero,zero
    9334:	00000021 	move	zero,zero
    9338:	00000021 	move	zero,zero
    933c:	00000021 	move	zero,zero
    9340:	3c12ff0a 	lui	s2,0xff0a
    9344:	3652f084 	ori	s2,s2,0xf084
    9348:	00000000 	nop
    934c:	3c14bb97 	lui	s4,0xbb97
    9350:	369434a0 	ori	s4,s4,0x34a0
    9354:	1614000a 	bne	s0,s4,9380 <inst_error>
    9358:	00000000 	nop
    935c:	00000000 	nop
    9360:	3c15ff0a 	lui	s5,0xff0a
    9364:	36b5f084 	ori	s5,s5,0xf084
    9368:	16550005 	bne	s2,s5,9380 <inst_error>
    936c:	00000000 	nop
    9370:	14400003 	bnez	v0,9380 <inst_error>
    9374:	00000000 	nop
    9378:	00000000 	nop
    937c:	26730001 	addiu	s3,s3,1

00009380 <inst_error>:
    9380:	00934025 	or	t0,a0,s3
    9384:	03e00008 	jr	ra
    9388:	ae280000 	sw	t0,0(s1)
    938c:	00000000 	nop
