       0:	3c042200 	lui	a0,0x2200
       4:	24020000 	li	v0,0
       8:	3c0c933a 	lui	t4,0x933a
       c:	358c7610 	ori	t4,t4,0x7610
      10:	3c0dee03 	lui	t5,0xee03
      14:	35ad4360 	ori	t5,t5,0x4360
      18:	24100000 	li	s0,0
      1c:	10000011 	b	64 <n34_bltz_test+0x64>
      20:	24120000 	li	s2,0
      24:	00000000 	nop
      28:	3c10933a 	lui	s0,0x933a
      2c:	05000021 	bltz	t0,b4 <n34_bltz_test+0xb4>
      30:	36107610 	ori	s0,s0,0x7610
      34:	10000021 	b	bc <n34_bltz_test+0xbc>
      38:	00000000 	nop
      3c:	00000000 	nop
      40:	00000021 	move	zero,zero
      44:	00000021 	move	zero,zero
      48:	00000021 	move	zero,zero
      4c:	00000021 	move	zero,zero
      50:	00000021 	move	zero,zero
      54:	00000021 	move	zero,zero
      58:	00000021 	move	zero,zero
      5c:	00000021 	move	zero,zero
      60:	00000021 	move	zero,zero
      64:	3c089e0d 	lui	t0,0x9e0d
      68:	35087d08 	ori	t0,t0,0x7d08
      6c:	0500ffee 	bltz	t0,28 <n34_bltz_test+0x28>
      70:	00000000 	nop
      74:	10000011 	b	bc <n34_bltz_test+0xbc>
      78:	00000000 	nop
      7c:	00000000 	nop
      80:	00000021 	move	zero,zero
      84:	00000021 	move	zero,zero
      88:	00000021 	move	zero,zero
      8c:	00000021 	move	zero,zero
      90:	00000021 	move	zero,zero
      94:	00000021 	move	zero,zero
      98:	00000021 	move	zero,zero
      9c:	00000021 	move	zero,zero
      a0:	00000021 	move	zero,zero
      a4:	00000021 	move	zero,zero
      a8:	00000021 	move	zero,zero
      ac:	00000021 	move	zero,zero
      b0:	00000021 	move	zero,zero
      b4:	3c12ee03 	lui	s2,0xee03
      b8:	36524360 	ori	s2,s2,0x4360
      bc:	00000000 	nop
      c0:	3c14933a 	lui	s4,0x933a
      c4:	36947610 	ori	s4,s4,0x7610
      c8:	16142af9 	bne	s0,s4,acb0 <inst_error>
      cc:	00000000 	nop
      d0:	00000000 	nop
      d4:	3c15ee03 	lui	s5,0xee03
      d8:	36b54360 	ori	s5,s5,0x4360
      dc:	16552af4 	bne	s2,s5,acb0 <inst_error>
      e0:	00000000 	nop
      e4:	00000000 	nop
      e8:	3c0c0f16 	lui	t4,0xf16
      ec:	358cb74f 	ori	t4,t4,0xb74f
      f0:	3c0d686b 	lui	t5,0x686b
      f4:	35ad1250 	ori	t5,t5,0x1250
      f8:	24100000 	li	s0,0
      fc:	10000011 	b	144 <n34_bltz_test+0x144>
     100:	24120000 	li	s2,0
     104:	00000000 	nop
     108:	3c100f16 	lui	s0,0xf16
     10c:	05000021 	bltz	t0,194 <n34_bltz_test+0x194>
     110:	3610b74f 	ori	s0,s0,0xb74f
     114:	10000021 	b	19c <n34_bltz_test+0x19c>
     118:	00000000 	nop
     11c:	00000000 	nop
     120:	00000021 	move	zero,zero
     124:	00000021 	move	zero,zero
     128:	00000021 	move	zero,zero
     12c:	00000021 	move	zero,zero
     130:	00000021 	move	zero,zero
     134:	00000021 	move	zero,zero
     138:	00000021 	move	zero,zero
     13c:	00000021 	move	zero,zero
     140:	00000021 	move	zero,zero
     144:	3c089d45 	lui	t0,0x9d45
     148:	35089300 	ori	t0,t0,0x9300
     14c:	0500ffee 	bltz	t0,108 <n34_bltz_test+0x108>
     150:	00000000 	nop
     154:	10000011 	b	19c <n34_bltz_test+0x19c>
     158:	00000000 	nop
     15c:	00000000 	nop
     160:	00000021 	move	zero,zero
     164:	00000021 	move	zero,zero
     168:	00000021 	move	zero,zero
     16c:	00000021 	move	zero,zero
     170:	00000021 	move	zero,zero
     174:	00000021 	move	zero,zero
     178:	00000021 	move	zero,zero
     17c:	00000021 	move	zero,zero
     180:	00000021 	move	zero,zero
     184:	00000021 	move	zero,zero
     188:	00000021 	move	zero,zero
     18c:	00000021 	move	zero,zero
     190:	00000021 	move	zero,zero
     194:	3c12686b 	lui	s2,0x686b
     198:	36521250 	ori	s2,s2,0x1250
     19c:	00000000 	nop
     1a0:	3c140f16 	lui	s4,0xf16
     1a4:	3694b74f 	ori	s4,s4,0xb74f
     1a8:	16142ac1 	bne	s0,s4,acb0 <inst_error>
     1ac:	00000000 	nop
     1b0:	00000000 	nop
     1b4:	3c15686b 	lui	s5,0x686b
     1b8:	36b51250 	ori	s5,s5,0x1250
     1bc:	16552abc 	bne	s2,s5,acb0 <inst_error>
     1c0:	00000000 	nop
     1c4:	00000000 	nop
     1c8:	3c0cf8a3 	lui	t4,0xf8a3
     1cc:	358c7ee5 	ori	t4,t4,0x7ee5
     1d0:	3c0d61e9 	lui	t5,0x61e9
     1d4:	35ad6814 	ori	t5,t5,0x6814
     1d8:	24100000 	li	s0,0
     1dc:	10000011 	b	224 <n34_bltz_test+0x224>
     1e0:	24120000 	li	s2,0
     1e4:	00000000 	nop
     1e8:	3c10f8a3 	lui	s0,0xf8a3
     1ec:	05000021 	bltz	t0,274 <n34_bltz_test+0x274>
     1f0:	36107ee5 	ori	s0,s0,0x7ee5
     1f4:	10000021 	b	27c <n34_bltz_test+0x27c>
     1f8:	00000000 	nop
     1fc:	00000000 	nop
     200:	00000021 	move	zero,zero
     204:	00000021 	move	zero,zero
     208:	00000021 	move	zero,zero
     20c:	00000021 	move	zero,zero
     210:	00000021 	move	zero,zero
     214:	00000021 	move	zero,zero
     218:	00000021 	move	zero,zero
     21c:	00000021 	move	zero,zero
     220:	00000021 	move	zero,zero
     224:	3c08f98d 	lui	t0,0xf98d
     228:	35085680 	ori	t0,t0,0x5680
     22c:	0500ffee 	bltz	t0,1e8 <n34_bltz_test+0x1e8>
     230:	00000000 	nop
     234:	10000011 	b	27c <n34_bltz_test+0x27c>
     238:	00000000 	nop
     23c:	00000000 	nop
     240:	00000021 	move	zero,zero
     244:	00000021 	move	zero,zero
     248:	00000021 	move	zero,zero
     24c:	00000021 	move	zero,zero
     250:	00000021 	move	zero,zero
     254:	00000021 	move	zero,zero
     258:	00000021 	move	zero,zero
     25c:	00000021 	move	zero,zero
     260:	00000021 	move	zero,zero
     264:	00000021 	move	zero,zero
     268:	00000021 	move	zero,zero
     26c:	00000021 	move	zero,zero
     270:	00000021 	move	zero,zero
     274:	3c1261e9 	lui	s2,0x61e9
     278:	36526814 	ori	s2,s2,0x6814
     27c:	00000000 	nop
     280:	3c14f8a3 	lui	s4,0xf8a3
     284:	36947ee5 	ori	s4,s4,0x7ee5
     288:	16142a89 	bne	s0,s4,acb0 <inst_error>
     28c:	00000000 	nop
     290:	00000000 	nop
     294:	3c1561e9 	lui	s5,0x61e9
     298:	36b56814 	ori	s5,s5,0x6814
     29c:	16552a84 	bne	s2,s5,acb0 <inst_error>
     2a0:	00000000 	nop
     2a4:	00000000 	nop
     2a8:	3c0c2af9 	lui	t4,0x2af9
     2ac:	358c336b 	ori	t4,t4,0x336b
     2b0:	3c0de374 	lui	t5,0xe374
     2b4:	35ada4a0 	ori	t5,t5,0xa4a0
     2b8:	24100000 	li	s0,0
     2bc:	10000011 	b	304 <n34_bltz_test+0x304>
     2c0:	24120000 	li	s2,0
     2c4:	00000000 	nop
     2c8:	3c102af9 	lui	s0,0x2af9
     2cc:	05000021 	bltz	t0,354 <n34_bltz_test+0x354>
     2d0:	3610336b 	ori	s0,s0,0x336b
     2d4:	10000021 	b	35c <n34_bltz_test+0x35c>
     2d8:	00000000 	nop
     2dc:	00000000 	nop
     2e0:	00000021 	move	zero,zero
     2e4:	00000021 	move	zero,zero
     2e8:	00000021 	move	zero,zero
     2ec:	00000021 	move	zero,zero
     2f0:	00000021 	move	zero,zero
     2f4:	00000021 	move	zero,zero
     2f8:	00000021 	move	zero,zero
     2fc:	00000021 	move	zero,zero
     300:	00000021 	move	zero,zero
     304:	3c08d981 	lui	t0,0xd981
     308:	35080ae0 	ori	t0,t0,0xae0
     30c:	0500ffee 	bltz	t0,2c8 <n34_bltz_test+0x2c8>
     310:	00000000 	nop
     314:	10000011 	b	35c <n34_bltz_test+0x35c>
     318:	00000000 	nop
     31c:	00000000 	nop
     320:	00000021 	move	zero,zero
     324:	00000021 	move	zero,zero
     328:	00000021 	move	zero,zero
     32c:	00000021 	move	zero,zero
     330:	00000021 	move	zero,zero
     334:	00000021 	move	zero,zero
     338:	00000021 	move	zero,zero
     33c:	00000021 	move	zero,zero
     340:	00000021 	move	zero,zero
     344:	00000021 	move	zero,zero
     348:	00000021 	move	zero,zero
     34c:	00000021 	move	zero,zero
     350:	00000021 	move	zero,zero
     354:	3c12e374 	lui	s2,0xe374
     358:	3652a4a0 	ori	s2,s2,0xa4a0
     35c:	00000000 	nop
     360:	3c142af9 	lui	s4,0x2af9
     364:	3694336b 	ori	s4,s4,0x336b
     368:	16142a51 	bne	s0,s4,acb0 <inst_error>
     36c:	00000000 	nop
     370:	00000000 	nop
     374:	3c15e374 	lui	s5,0xe374
     378:	36b5a4a0 	ori	s5,s5,0xa4a0
     37c:	16552a4c 	bne	s2,s5,acb0 <inst_error>
     380:	00000000 	nop
     384:	00000000 	nop
     388:	3c0cf04d 	lui	t4,0xf04d
     38c:	358cfb04 	ori	t4,t4,0xfb04
     390:	3c0d7517 	lui	t5,0x7517
     394:	35ad5792 	ori	t5,t5,0x5792
     398:	24100000 	li	s0,0
     39c:	10000011 	b	3e4 <n34_bltz_test+0x3e4>
     3a0:	24120000 	li	s2,0
     3a4:	00000000 	nop
     3a8:	3c10f04d 	lui	s0,0xf04d
     3ac:	05000021 	bltz	t0,434 <n34_bltz_test+0x434>
     3b0:	3610fb04 	ori	s0,s0,0xfb04
     3b4:	10000021 	b	43c <n34_bltz_test+0x43c>
     3b8:	00000000 	nop
     3bc:	00000000 	nop
     3c0:	00000021 	move	zero,zero
     3c4:	00000021 	move	zero,zero
     3c8:	00000021 	move	zero,zero
     3cc:	00000021 	move	zero,zero
     3d0:	00000021 	move	zero,zero
     3d4:	00000021 	move	zero,zero
     3d8:	00000021 	move	zero,zero
     3dc:	00000021 	move	zero,zero
     3e0:	00000021 	move	zero,zero
     3e4:	3c088832 	lui	t0,0x8832
     3e8:	35088c48 	ori	t0,t0,0x8c48
     3ec:	0500ffee 	bltz	t0,3a8 <n34_bltz_test+0x3a8>
     3f0:	00000000 	nop
     3f4:	10000011 	b	43c <n34_bltz_test+0x43c>
     3f8:	00000000 	nop
     3fc:	00000000 	nop
     400:	00000021 	move	zero,zero
     404:	00000021 	move	zero,zero
     408:	00000021 	move	zero,zero
     40c:	00000021 	move	zero,zero
     410:	00000021 	move	zero,zero
     414:	00000021 	move	zero,zero
     418:	00000021 	move	zero,zero
     41c:	00000021 	move	zero,zero
     420:	00000021 	move	zero,zero
     424:	00000021 	move	zero,zero
     428:	00000021 	move	zero,zero
     42c:	00000021 	move	zero,zero
     430:	00000021 	move	zero,zero
     434:	3c127517 	lui	s2,0x7517
     438:	36525792 	ori	s2,s2,0x5792
     43c:	00000000 	nop
     440:	3c14f04d 	lui	s4,0xf04d
     444:	3694fb04 	ori	s4,s4,0xfb04
     448:	16142a19 	bne	s0,s4,acb0 <inst_error>
     44c:	00000000 	nop
     450:	00000000 	nop
     454:	3c157517 	lui	s5,0x7517
     458:	36b55792 	ori	s5,s5,0x5792
     45c:	16552a14 	bne	s2,s5,acb0 <inst_error>
     460:	00000000 	nop
     464:	00000000 	nop
     468:	3c0c39f5 	lui	t4,0x39f5
     46c:	358c9b62 	ori	t4,t4,0x9b62
     470:	3c0d23c9 	lui	t5,0x23c9
     474:	35ad8d99 	ori	t5,t5,0x8d99
     478:	24100000 	li	s0,0
     47c:	10000011 	b	4c4 <n34_bltz_test+0x4c4>
     480:	24120000 	li	s2,0
     484:	00000000 	nop
     488:	3c1039f5 	lui	s0,0x39f5
     48c:	05000021 	bltz	t0,514 <n34_bltz_test+0x514>
     490:	36109b62 	ori	s0,s0,0x9b62
     494:	10000021 	b	51c <n34_bltz_test+0x51c>
     498:	00000000 	nop
     49c:	00000000 	nop
     4a0:	00000021 	move	zero,zero
     4a4:	00000021 	move	zero,zero
     4a8:	00000021 	move	zero,zero
     4ac:	00000021 	move	zero,zero
     4b0:	00000021 	move	zero,zero
     4b4:	00000021 	move	zero,zero
     4b8:	00000021 	move	zero,zero
     4bc:	00000021 	move	zero,zero
     4c0:	00000021 	move	zero,zero
     4c4:	3c08cf66 	lui	t0,0xcf66
     4c8:	350884e0 	ori	t0,t0,0x84e0
     4cc:	0500ffee 	bltz	t0,488 <n34_bltz_test+0x488>
     4d0:	00000000 	nop
     4d4:	10000011 	b	51c <n34_bltz_test+0x51c>
     4d8:	00000000 	nop
     4dc:	00000000 	nop
     4e0:	00000021 	move	zero,zero
     4e4:	00000021 	move	zero,zero
     4e8:	00000021 	move	zero,zero
     4ec:	00000021 	move	zero,zero
     4f0:	00000021 	move	zero,zero
     4f4:	00000021 	move	zero,zero
     4f8:	00000021 	move	zero,zero
     4fc:	00000021 	move	zero,zero
     500:	00000021 	move	zero,zero
     504:	00000021 	move	zero,zero
     508:	00000021 	move	zero,zero
     50c:	00000021 	move	zero,zero
     510:	00000021 	move	zero,zero
     514:	3c1223c9 	lui	s2,0x23c9
     518:	36528d99 	ori	s2,s2,0x8d99
     51c:	00000000 	nop
     520:	3c1439f5 	lui	s4,0x39f5
     524:	36949b62 	ori	s4,s4,0x9b62
     528:	161429e1 	bne	s0,s4,acb0 <inst_error>
     52c:	00000000 	nop
     530:	00000000 	nop
     534:	3c1523c9 	lui	s5,0x23c9
     538:	36b58d99 	ori	s5,s5,0x8d99
     53c:	165529dc 	bne	s2,s5,acb0 <inst_error>
     540:	00000000 	nop
     544:	00000000 	nop
     548:	3c0c6a2f 	lui	t4,0x6a2f
     54c:	358c7d7c 	ori	t4,t4,0x7d7c
     550:	3c0dc275 	lui	t5,0xc275
     554:	35adfd82 	ori	t5,t5,0xfd82
     558:	24100000 	li	s0,0
     55c:	10000011 	b	5a4 <n34_bltz_test+0x5a4>
     560:	24120000 	li	s2,0
     564:	00000000 	nop
     568:	3c106a2f 	lui	s0,0x6a2f
     56c:	05000021 	bltz	t0,5f4 <n34_bltz_test+0x5f4>
     570:	36107d7c 	ori	s0,s0,0x7d7c
     574:	10000021 	b	5fc <n34_bltz_test+0x5fc>
     578:	00000000 	nop
     57c:	00000000 	nop
     580:	00000021 	move	zero,zero
     584:	00000021 	move	zero,zero
     588:	00000021 	move	zero,zero
     58c:	00000021 	move	zero,zero
     590:	00000021 	move	zero,zero
     594:	00000021 	move	zero,zero
     598:	00000021 	move	zero,zero
     59c:	00000021 	move	zero,zero
     5a0:	00000021 	move	zero,zero
     5a4:	3c08fff9 	lui	t0,0xfff9
     5a8:	35080290 	ori	t0,t0,0x290
     5ac:	0500ffee 	bltz	t0,568 <n34_bltz_test+0x568>
     5b0:	00000000 	nop
     5b4:	10000011 	b	5fc <n34_bltz_test+0x5fc>
     5b8:	00000000 	nop
     5bc:	00000000 	nop
     5c0:	00000021 	move	zero,zero
     5c4:	00000021 	move	zero,zero
     5c8:	00000021 	move	zero,zero
     5cc:	00000021 	move	zero,zero
     5d0:	00000021 	move	zero,zero
     5d4:	00000021 	move	zero,zero
     5d8:	00000021 	move	zero,zero
     5dc:	00000021 	move	zero,zero
     5e0:	00000021 	move	zero,zero
     5e4:	00000021 	move	zero,zero
     5e8:	00000021 	move	zero,zero
     5ec:	00000021 	move	zero,zero
     5f0:	00000021 	move	zero,zero
     5f4:	3c12c275 	lui	s2,0xc275
     5f8:	3652fd82 	ori	s2,s2,0xfd82
     5fc:	00000000 	nop
     600:	3c146a2f 	lui	s4,0x6a2f
     604:	36947d7c 	ori	s4,s4,0x7d7c
     608:	161429a9 	bne	s0,s4,acb0 <inst_error>
     60c:	00000000 	nop
     610:	00000000 	nop
     614:	3c15c275 	lui	s5,0xc275
     618:	36b5fd82 	ori	s5,s5,0xfd82
     61c:	165529a4 	bne	s2,s5,acb0 <inst_error>
     620:	00000000 	nop
     624:	00000000 	nop
     628:	3c0c291a 	lui	t4,0x291a
     62c:	358c3374 	ori	t4,t4,0x3374
     630:	3c0d60d2 	lui	t5,0x60d2
     634:	35ad8110 	ori	t5,t5,0x8110
     638:	24100000 	li	s0,0
     63c:	10000011 	b	684 <n34_bltz_test+0x684>
     640:	24120000 	li	s2,0
     644:	00000000 	nop
     648:	3c10291a 	lui	s0,0x291a
     64c:	05000021 	bltz	t0,6d4 <n34_bltz_test+0x6d4>
     650:	36103374 	ori	s0,s0,0x3374
     654:	10000021 	b	6dc <n34_bltz_test+0x6dc>
     658:	00000000 	nop
     65c:	00000000 	nop
     660:	00000021 	move	zero,zero
     664:	00000021 	move	zero,zero
     668:	00000021 	move	zero,zero
     66c:	00000021 	move	zero,zero
     670:	00000021 	move	zero,zero
     674:	00000021 	move	zero,zero
     678:	00000021 	move	zero,zero
     67c:	00000021 	move	zero,zero
     680:	00000021 	move	zero,zero
     684:	3c0835ae 	lui	t0,0x35ae
     688:	35088150 	ori	t0,t0,0x8150
     68c:	0500ffee 	bltz	t0,648 <n34_bltz_test+0x648>
     690:	00000000 	nop
     694:	10000011 	b	6dc <n34_bltz_test+0x6dc>
     698:	00000000 	nop
     69c:	00000000 	nop
     6a0:	00000021 	move	zero,zero
     6a4:	00000021 	move	zero,zero
     6a8:	00000021 	move	zero,zero
     6ac:	00000021 	move	zero,zero
     6b0:	00000021 	move	zero,zero
     6b4:	00000021 	move	zero,zero
     6b8:	00000021 	move	zero,zero
     6bc:	00000021 	move	zero,zero
     6c0:	00000021 	move	zero,zero
     6c4:	00000021 	move	zero,zero
     6c8:	00000021 	move	zero,zero
     6cc:	00000021 	move	zero,zero
     6d0:	00000021 	move	zero,zero
     6d4:	3c1260d2 	lui	s2,0x60d2
     6d8:	36528110 	ori	s2,s2,0x8110
     6dc:	00000000 	nop
     6e0:	24140000 	li	s4,0
     6e4:	16142972 	bne	s0,s4,acb0 <inst_error>
     6e8:	00000000 	nop
     6ec:	00000000 	nop
     6f0:	24150000 	li	s5,0
     6f4:	1655296e 	bne	s2,s5,acb0 <inst_error>
     6f8:	00000000 	nop
     6fc:	00000000 	nop
     700:	3c0cb861 	lui	t4,0xb861
     704:	358cba80 	ori	t4,t4,0xba80
     708:	3c0d480d 	lui	t5,0x480d
     70c:	35adae66 	ori	t5,t5,0xae66
     710:	24100000 	li	s0,0
     714:	10000011 	b	75c <n34_bltz_test+0x75c>
     718:	24120000 	li	s2,0
     71c:	00000000 	nop
     720:	3c10b861 	lui	s0,0xb861
     724:	05000021 	bltz	t0,7ac <n34_bltz_test+0x7ac>
     728:	3610ba80 	ori	s0,s0,0xba80
     72c:	10000021 	b	7b4 <n34_bltz_test+0x7b4>
     730:	00000000 	nop
     734:	00000000 	nop
     738:	00000021 	move	zero,zero
     73c:	00000021 	move	zero,zero
     740:	00000021 	move	zero,zero
     744:	00000021 	move	zero,zero
     748:	00000021 	move	zero,zero
     74c:	00000021 	move	zero,zero
     750:	00000021 	move	zero,zero
     754:	00000021 	move	zero,zero
     758:	00000021 	move	zero,zero
     75c:	3c08ad6e 	lui	t0,0xad6e
     760:	3508c7b4 	ori	t0,t0,0xc7b4
     764:	0500ffee 	bltz	t0,720 <n34_bltz_test+0x720>
     768:	00000000 	nop
     76c:	10000011 	b	7b4 <n34_bltz_test+0x7b4>
     770:	00000000 	nop
     774:	00000000 	nop
     778:	00000021 	move	zero,zero
     77c:	00000021 	move	zero,zero
     780:	00000021 	move	zero,zero
     784:	00000021 	move	zero,zero
     788:	00000021 	move	zero,zero
     78c:	00000021 	move	zero,zero
     790:	00000021 	move	zero,zero
     794:	00000021 	move	zero,zero
     798:	00000021 	move	zero,zero
     79c:	00000021 	move	zero,zero
     7a0:	00000021 	move	zero,zero
     7a4:	00000021 	move	zero,zero
     7a8:	00000021 	move	zero,zero
     7ac:	3c12480d 	lui	s2,0x480d
     7b0:	3652ae66 	ori	s2,s2,0xae66
     7b4:	00000000 	nop
     7b8:	3c14b861 	lui	s4,0xb861
     7bc:	3694ba80 	ori	s4,s4,0xba80
     7c0:	1614293b 	bne	s0,s4,acb0 <inst_error>
     7c4:	00000000 	nop
     7c8:	00000000 	nop
     7cc:	3c15480d 	lui	s5,0x480d
     7d0:	36b5ae66 	ori	s5,s5,0xae66
     7d4:	16552936 	bne	s2,s5,acb0 <inst_error>
     7d8:	00000000 	nop
     7dc:	00000000 	nop
     7e0:	3c0c26c4 	lui	t4,0x26c4
     7e4:	358cc128 	ori	t4,t4,0xc128
     7e8:	3c0da2a6 	lui	t5,0xa2a6
     7ec:	35ad4340 	ori	t5,t5,0x4340
     7f0:	24100000 	li	s0,0
     7f4:	10000011 	b	83c <n34_bltz_test+0x83c>
     7f8:	24120000 	li	s2,0
     7fc:	00000000 	nop
     800:	3c1026c4 	lui	s0,0x26c4
     804:	05000021 	bltz	t0,88c <n34_bltz_test+0x88c>
     808:	3610c128 	ori	s0,s0,0xc128
     80c:	10000021 	b	894 <n34_bltz_test+0x894>
     810:	00000000 	nop
     814:	00000000 	nop
     818:	00000021 	move	zero,zero
     81c:	00000021 	move	zero,zero
     820:	00000021 	move	zero,zero
     824:	00000021 	move	zero,zero
     828:	00000021 	move	zero,zero
     82c:	00000021 	move	zero,zero
     830:	00000021 	move	zero,zero
     834:	00000021 	move	zero,zero
     838:	00000021 	move	zero,zero
     83c:	3c080d86 	lui	t0,0xd86
     840:	35082630 	ori	t0,t0,0x2630
     844:	0500ffee 	bltz	t0,800 <n34_bltz_test+0x800>
     848:	00000000 	nop
     84c:	10000011 	b	894 <n34_bltz_test+0x894>
     850:	00000000 	nop
     854:	00000000 	nop
     858:	00000021 	move	zero,zero
     85c:	00000021 	move	zero,zero
     860:	00000021 	move	zero,zero
     864:	00000021 	move	zero,zero
     868:	00000021 	move	zero,zero
     86c:	00000021 	move	zero,zero
     870:	00000021 	move	zero,zero
     874:	00000021 	move	zero,zero
     878:	00000021 	move	zero,zero
     87c:	00000021 	move	zero,zero
     880:	00000021 	move	zero,zero
     884:	00000021 	move	zero,zero
     888:	00000021 	move	zero,zero
     88c:	3c12a2a6 	lui	s2,0xa2a6
     890:	36524340 	ori	s2,s2,0x4340
     894:	00000000 	nop
     898:	24140000 	li	s4,0
     89c:	16142904 	bne	s0,s4,acb0 <inst_error>
     8a0:	00000000 	nop
     8a4:	00000000 	nop
     8a8:	24150000 	li	s5,0
     8ac:	16552900 	bne	s2,s5,acb0 <inst_error>
     8b0:	00000000 	nop
     8b4:	00000000 	nop
     8b8:	3c0cc02c 	lui	t4,0xc02c
     8bc:	358c3d48 	ori	t4,t4,0x3d48
     8c0:	3c0d82d0 	lui	t5,0x82d0
     8c4:	35ad9792 	ori	t5,t5,0x9792
     8c8:	24100000 	li	s0,0
     8cc:	10000011 	b	914 <n34_bltz_test+0x914>
     8d0:	24120000 	li	s2,0
     8d4:	00000000 	nop
     8d8:	3c10c02c 	lui	s0,0xc02c
     8dc:	05000021 	bltz	t0,964 <n34_bltz_test+0x964>
     8e0:	36103d48 	ori	s0,s0,0x3d48
     8e4:	10000021 	b	96c <n34_bltz_test+0x96c>
     8e8:	00000000 	nop
     8ec:	00000000 	nop
     8f0:	00000021 	move	zero,zero
     8f4:	00000021 	move	zero,zero
     8f8:	00000021 	move	zero,zero
     8fc:	00000021 	move	zero,zero
     900:	00000021 	move	zero,zero
     904:	00000021 	move	zero,zero
     908:	00000021 	move	zero,zero
     90c:	00000021 	move	zero,zero
     910:	00000021 	move	zero,zero
     914:	3c0819d4 	lui	t0,0x19d4
     918:	3508b730 	ori	t0,t0,0xb730
     91c:	0500ffee 	bltz	t0,8d8 <n34_bltz_test+0x8d8>
     920:	00000000 	nop
     924:	10000011 	b	96c <n34_bltz_test+0x96c>
     928:	00000000 	nop
     92c:	00000000 	nop
     930:	00000021 	move	zero,zero
     934:	00000021 	move	zero,zero
     938:	00000021 	move	zero,zero
     93c:	00000021 	move	zero,zero
     940:	00000021 	move	zero,zero
     944:	00000021 	move	zero,zero
     948:	00000021 	move	zero,zero
     94c:	00000021 	move	zero,zero
     950:	00000021 	move	zero,zero
     954:	00000021 	move	zero,zero
     958:	00000021 	move	zero,zero
     95c:	00000021 	move	zero,zero
     960:	00000021 	move	zero,zero
     964:	3c1282d0 	lui	s2,0x82d0
     968:	36529792 	ori	s2,s2,0x9792
     96c:	00000000 	nop
     970:	24140000 	li	s4,0
     974:	161428ce 	bne	s0,s4,acb0 <inst_error>
     978:	00000000 	nop
     97c:	00000000 	nop
     980:	24150000 	li	s5,0
     984:	165528ca 	bne	s2,s5,acb0 <inst_error>
     988:	00000000 	nop
     98c:	00000000 	nop
     990:	3c0c761f 	lui	t4,0x761f
     994:	358c36aa 	ori	t4,t4,0x36aa
     998:	3c0d5809 	lui	t5,0x5809
     99c:	35ad4d78 	ori	t5,t5,0x4d78
     9a0:	24100000 	li	s0,0
     9a4:	10000011 	b	9ec <n34_bltz_test+0x9ec>
     9a8:	24120000 	li	s2,0
     9ac:	00000000 	nop
     9b0:	3c10761f 	lui	s0,0x761f
     9b4:	05000021 	bltz	t0,a3c <n34_bltz_test+0xa3c>
     9b8:	361036aa 	ori	s0,s0,0x36aa
     9bc:	10000021 	b	a44 <n34_bltz_test+0xa44>
     9c0:	00000000 	nop
     9c4:	00000000 	nop
     9c8:	00000021 	move	zero,zero
     9cc:	00000021 	move	zero,zero
     9d0:	00000021 	move	zero,zero
     9d4:	00000021 	move	zero,zero
     9d8:	00000021 	move	zero,zero
     9dc:	00000021 	move	zero,zero
     9e0:	00000021 	move	zero,zero
     9e4:	00000021 	move	zero,zero
     9e8:	00000021 	move	zero,zero
     9ec:	3c08735f 	lui	t0,0x735f
     9f0:	35087026 	ori	t0,t0,0x7026
     9f4:	0500ffee 	bltz	t0,9b0 <n34_bltz_test+0x9b0>
     9f8:	00000000 	nop
     9fc:	10000011 	b	a44 <n34_bltz_test+0xa44>
     a00:	00000000 	nop
     a04:	00000000 	nop
     a08:	00000021 	move	zero,zero
     a0c:	00000021 	move	zero,zero
     a10:	00000021 	move	zero,zero
     a14:	00000021 	move	zero,zero
     a18:	00000021 	move	zero,zero
     a1c:	00000021 	move	zero,zero
     a20:	00000021 	move	zero,zero
     a24:	00000021 	move	zero,zero
     a28:	00000021 	move	zero,zero
     a2c:	00000021 	move	zero,zero
     a30:	00000021 	move	zero,zero
     a34:	00000021 	move	zero,zero
     a38:	00000021 	move	zero,zero
     a3c:	3c125809 	lui	s2,0x5809
     a40:	36524d78 	ori	s2,s2,0x4d78
     a44:	00000000 	nop
     a48:	24140000 	li	s4,0
     a4c:	16142898 	bne	s0,s4,acb0 <inst_error>
     a50:	00000000 	nop
     a54:	00000000 	nop
     a58:	24150000 	li	s5,0
     a5c:	16552894 	bne	s2,s5,acb0 <inst_error>
     a60:	00000000 	nop
     a64:	00000000 	nop
     a68:	3c0c0d77 	lui	t4,0xd77
     a6c:	358c4c5c 	ori	t4,t4,0x4c5c
     a70:	3c0d02b2 	lui	t5,0x2b2
     a74:	35ad3fb0 	ori	t5,t5,0x3fb0
     a78:	24100000 	li	s0,0
     a7c:	10000011 	b	ac4 <n34_bltz_test+0xac4>
     a80:	24120000 	li	s2,0
     a84:	00000000 	nop
     a88:	3c100d77 	lui	s0,0xd77
     a8c:	05000021 	bltz	t0,b14 <n34_bltz_test+0xb14>
     a90:	36104c5c 	ori	s0,s0,0x4c5c
     a94:	10000021 	b	b1c <n34_bltz_test+0xb1c>
     a98:	00000000 	nop
     a9c:	00000000 	nop
     aa0:	00000021 	move	zero,zero
     aa4:	00000021 	move	zero,zero
     aa8:	00000021 	move	zero,zero
     aac:	00000021 	move	zero,zero
     ab0:	00000021 	move	zero,zero
     ab4:	00000021 	move	zero,zero
     ab8:	00000021 	move	zero,zero
     abc:	00000021 	move	zero,zero
     ac0:	00000021 	move	zero,zero
     ac4:	3c08a22e 	lui	t0,0xa22e
     ac8:	35085194 	ori	t0,t0,0x5194
     acc:	0500ffee 	bltz	t0,a88 <n34_bltz_test+0xa88>
     ad0:	00000000 	nop
     ad4:	10000011 	b	b1c <n34_bltz_test+0xb1c>
     ad8:	00000000 	nop
     adc:	00000000 	nop
     ae0:	00000021 	move	zero,zero
     ae4:	00000021 	move	zero,zero
     ae8:	00000021 	move	zero,zero
     aec:	00000021 	move	zero,zero
     af0:	00000021 	move	zero,zero
     af4:	00000021 	move	zero,zero
     af8:	00000021 	move	zero,zero
     afc:	00000021 	move	zero,zero
     b00:	00000021 	move	zero,zero
     b04:	00000021 	move	zero,zero
     b08:	00000021 	move	zero,zero
     b0c:	00000021 	move	zero,zero
     b10:	00000021 	move	zero,zero
     b14:	3c1202b2 	lui	s2,0x2b2
     b18:	36523fb0 	ori	s2,s2,0x3fb0
     b1c:	00000000 	nop
     b20:	3c140d77 	lui	s4,0xd77
     b24:	36944c5c 	ori	s4,s4,0x4c5c
     b28:	16142861 	bne	s0,s4,acb0 <inst_error>
     b2c:	00000000 	nop
     b30:	00000000 	nop
     b34:	3c1502b2 	lui	s5,0x2b2
     b38:	36b53fb0 	ori	s5,s5,0x3fb0
     b3c:	1655285c 	bne	s2,s5,acb0 <inst_error>
     b40:	00000000 	nop
     b44:	00000000 	nop
     b48:	3c0c0cd9 	lui	t4,0xcd9
     b4c:	358c5b8c 	ori	t4,t4,0x5b8c
     b50:	3c0d9aff 	lui	t5,0x9aff
     b54:	35adb004 	ori	t5,t5,0xb004
     b58:	24100000 	li	s0,0
     b5c:	10000011 	b	ba4 <n34_bltz_test+0xba4>
     b60:	24120000 	li	s2,0
     b64:	00000000 	nop
     b68:	3c100cd9 	lui	s0,0xcd9
     b6c:	05000021 	bltz	t0,bf4 <n34_bltz_test+0xbf4>
     b70:	36105b8c 	ori	s0,s0,0x5b8c
     b74:	10000021 	b	bfc <n34_bltz_test+0xbfc>
     b78:	00000000 	nop
     b7c:	00000000 	nop
     b80:	00000021 	move	zero,zero
     b84:	00000021 	move	zero,zero
     b88:	00000021 	move	zero,zero
     b8c:	00000021 	move	zero,zero
     b90:	00000021 	move	zero,zero
     b94:	00000021 	move	zero,zero
     b98:	00000021 	move	zero,zero
     b9c:	00000021 	move	zero,zero
     ba0:	00000021 	move	zero,zero
     ba4:	3c08a810 	lui	t0,0xa810
     ba8:	3508d7b5 	ori	t0,t0,0xd7b5
     bac:	0500ffee 	bltz	t0,b68 <n34_bltz_test+0xb68>
     bb0:	00000000 	nop
     bb4:	10000011 	b	bfc <n34_bltz_test+0xbfc>
     bb8:	00000000 	nop
     bbc:	00000000 	nop
     bc0:	00000021 	move	zero,zero
     bc4:	00000021 	move	zero,zero
     bc8:	00000021 	move	zero,zero
     bcc:	00000021 	move	zero,zero
     bd0:	00000021 	move	zero,zero
     bd4:	00000021 	move	zero,zero
     bd8:	00000021 	move	zero,zero
     bdc:	00000021 	move	zero,zero
     be0:	00000021 	move	zero,zero
     be4:	00000021 	move	zero,zero
     be8:	00000021 	move	zero,zero
     bec:	00000021 	move	zero,zero
     bf0:	00000021 	move	zero,zero
     bf4:	3c129aff 	lui	s2,0x9aff
     bf8:	3652b004 	ori	s2,s2,0xb004
     bfc:	00000000 	nop
     c00:	3c140cd9 	lui	s4,0xcd9
     c04:	36945b8c 	ori	s4,s4,0x5b8c
     c08:	16142829 	bne	s0,s4,acb0 <inst_error>
     c0c:	00000000 	nop
     c10:	00000000 	nop
     c14:	3c159aff 	lui	s5,0x9aff
     c18:	36b5b004 	ori	s5,s5,0xb004
     c1c:	16552824 	bne	s2,s5,acb0 <inst_error>
     c20:	00000000 	nop
     c24:	00000000 	nop
     c28:	3c0cf9a3 	lui	t4,0xf9a3
     c2c:	358c3110 	ori	t4,t4,0x3110
     c30:	3c0d82cd 	lui	t5,0x82cd
     c34:	35adf204 	ori	t5,t5,0xf204
     c38:	24100000 	li	s0,0
     c3c:	10000011 	b	c84 <n34_bltz_test+0xc84>
     c40:	24120000 	li	s2,0
     c44:	00000000 	nop
     c48:	3c10f9a3 	lui	s0,0xf9a3
     c4c:	05000021 	bltz	t0,cd4 <n34_bltz_test+0xcd4>
     c50:	36103110 	ori	s0,s0,0x3110
     c54:	10000021 	b	cdc <n34_bltz_test+0xcdc>
     c58:	00000000 	nop
     c5c:	00000000 	nop
     c60:	00000021 	move	zero,zero
     c64:	00000021 	move	zero,zero
     c68:	00000021 	move	zero,zero
     c6c:	00000021 	move	zero,zero
     c70:	00000021 	move	zero,zero
     c74:	00000021 	move	zero,zero
     c78:	00000021 	move	zero,zero
     c7c:	00000021 	move	zero,zero
     c80:	00000021 	move	zero,zero
     c84:	3c083f58 	lui	t0,0x3f58
     c88:	3508d900 	ori	t0,t0,0xd900
     c8c:	0500ffee 	bltz	t0,c48 <n34_bltz_test+0xc48>
     c90:	00000000 	nop
     c94:	10000011 	b	cdc <n34_bltz_test+0xcdc>
     c98:	00000000 	nop
     c9c:	00000000 	nop
     ca0:	00000021 	move	zero,zero
     ca4:	00000021 	move	zero,zero
     ca8:	00000021 	move	zero,zero
     cac:	00000021 	move	zero,zero
     cb0:	00000021 	move	zero,zero
     cb4:	00000021 	move	zero,zero
     cb8:	00000021 	move	zero,zero
     cbc:	00000021 	move	zero,zero
     cc0:	00000021 	move	zero,zero
     cc4:	00000021 	move	zero,zero
     cc8:	00000021 	move	zero,zero
     ccc:	00000021 	move	zero,zero
     cd0:	00000021 	move	zero,zero
     cd4:	3c1282cd 	lui	s2,0x82cd
     cd8:	3652f204 	ori	s2,s2,0xf204
     cdc:	00000000 	nop
     ce0:	24140000 	li	s4,0
     ce4:	161427f2 	bne	s0,s4,acb0 <inst_error>
     ce8:	00000000 	nop
     cec:	00000000 	nop
     cf0:	24150000 	li	s5,0
     cf4:	165527ee 	bne	s2,s5,acb0 <inst_error>
     cf8:	00000000 	nop
     cfc:	00000000 	nop
     d00:	3c0cf2ba 	lui	t4,0xf2ba
     d04:	358c053c 	ori	t4,t4,0x53c
     d08:	3c0d20d4 	lui	t5,0x20d4
     d0c:	35adb030 	ori	t5,t5,0xb030
     d10:	24100000 	li	s0,0
     d14:	10000011 	b	d5c <n34_bltz_test+0xd5c>
     d18:	24120000 	li	s2,0
     d1c:	00000000 	nop
     d20:	3c10f2ba 	lui	s0,0xf2ba
     d24:	05000021 	bltz	t0,dac <n34_bltz_test+0xdac>
     d28:	3610053c 	ori	s0,s0,0x53c
     d2c:	10000021 	b	db4 <n34_bltz_test+0xdb4>
     d30:	00000000 	nop
     d34:	00000000 	nop
     d38:	00000021 	move	zero,zero
     d3c:	00000021 	move	zero,zero
     d40:	00000021 	move	zero,zero
     d44:	00000021 	move	zero,zero
     d48:	00000021 	move	zero,zero
     d4c:	00000021 	move	zero,zero
     d50:	00000021 	move	zero,zero
     d54:	00000021 	move	zero,zero
     d58:	00000021 	move	zero,zero
     d5c:	3c089e43 	lui	t0,0x9e43
     d60:	35081baa 	ori	t0,t0,0x1baa
     d64:	0500ffee 	bltz	t0,d20 <n34_bltz_test+0xd20>
     d68:	00000000 	nop
     d6c:	10000011 	b	db4 <n34_bltz_test+0xdb4>
     d70:	00000000 	nop
     d74:	00000000 	nop
     d78:	00000021 	move	zero,zero
     d7c:	00000021 	move	zero,zero
     d80:	00000021 	move	zero,zero
     d84:	00000021 	move	zero,zero
     d88:	00000021 	move	zero,zero
     d8c:	00000021 	move	zero,zero
     d90:	00000021 	move	zero,zero
     d94:	00000021 	move	zero,zero
     d98:	00000021 	move	zero,zero
     d9c:	00000021 	move	zero,zero
     da0:	00000021 	move	zero,zero
     da4:	00000021 	move	zero,zero
     da8:	00000021 	move	zero,zero
     dac:	3c1220d4 	lui	s2,0x20d4
     db0:	3652b030 	ori	s2,s2,0xb030
     db4:	00000000 	nop
     db8:	3c14f2ba 	lui	s4,0xf2ba
     dbc:	3694053c 	ori	s4,s4,0x53c
     dc0:	161427bb 	bne	s0,s4,acb0 <inst_error>
     dc4:	00000000 	nop
     dc8:	00000000 	nop
     dcc:	3c1520d4 	lui	s5,0x20d4
     dd0:	36b5b030 	ori	s5,s5,0xb030
     dd4:	165527b6 	bne	s2,s5,acb0 <inst_error>
     dd8:	00000000 	nop
     ddc:	00000000 	nop
     de0:	3c0ccf79 	lui	t4,0xcf79
     de4:	358c696e 	ori	t4,t4,0x696e
     de8:	3c0ddcd5 	lui	t5,0xdcd5
     dec:	35ad0e00 	ori	t5,t5,0xe00
     df0:	24100000 	li	s0,0
     df4:	10000011 	b	e3c <n34_bltz_test+0xe3c>
     df8:	24120000 	li	s2,0
     dfc:	00000000 	nop
     e00:	3c10cf79 	lui	s0,0xcf79
     e04:	05000021 	bltz	t0,e8c <n34_bltz_test+0xe8c>
     e08:	3610696e 	ori	s0,s0,0x696e
     e0c:	10000021 	b	e94 <n34_bltz_test+0xe94>
     e10:	00000000 	nop
     e14:	00000000 	nop
     e18:	00000021 	move	zero,zero
     e1c:	00000021 	move	zero,zero
     e20:	00000021 	move	zero,zero
     e24:	00000021 	move	zero,zero
     e28:	00000021 	move	zero,zero
     e2c:	00000021 	move	zero,zero
     e30:	00000021 	move	zero,zero
     e34:	00000021 	move	zero,zero
     e38:	00000021 	move	zero,zero
     e3c:	3c08b541 	lui	t0,0xb541
     e40:	3508b79a 	ori	t0,t0,0xb79a
     e44:	0500ffee 	bltz	t0,e00 <n34_bltz_test+0xe00>
     e48:	00000000 	nop
     e4c:	10000011 	b	e94 <n34_bltz_test+0xe94>
     e50:	00000000 	nop
     e54:	00000000 	nop
     e58:	00000021 	move	zero,zero
     e5c:	00000021 	move	zero,zero
     e60:	00000021 	move	zero,zero
     e64:	00000021 	move	zero,zero
     e68:	00000021 	move	zero,zero
     e6c:	00000021 	move	zero,zero
     e70:	00000021 	move	zero,zero
     e74:	00000021 	move	zero,zero
     e78:	00000021 	move	zero,zero
     e7c:	00000021 	move	zero,zero
     e80:	00000021 	move	zero,zero
     e84:	00000021 	move	zero,zero
     e88:	00000021 	move	zero,zero
     e8c:	3c12dcd5 	lui	s2,0xdcd5
     e90:	36520e00 	ori	s2,s2,0xe00
     e94:	00000000 	nop
     e98:	3c14cf79 	lui	s4,0xcf79
     e9c:	3694696e 	ori	s4,s4,0x696e
     ea0:	16142783 	bne	s0,s4,acb0 <inst_error>
     ea4:	00000000 	nop
     ea8:	00000000 	nop
     eac:	3c15dcd5 	lui	s5,0xdcd5
     eb0:	36b50e00 	ori	s5,s5,0xe00
     eb4:	1655277e 	bne	s2,s5,acb0 <inst_error>
     eb8:	00000000 	nop
     ebc:	00000000 	nop
     ec0:	3c0c2c88 	lui	t4,0x2c88
     ec4:	358c3e20 	ori	t4,t4,0x3e20
     ec8:	3c0de15b 	lui	t5,0xe15b
     ecc:	35adff7c 	ori	t5,t5,0xff7c
     ed0:	24100000 	li	s0,0
     ed4:	10000011 	b	f1c <n34_bltz_test+0xf1c>
     ed8:	24120000 	li	s2,0
     edc:	00000000 	nop
     ee0:	3c102c88 	lui	s0,0x2c88
     ee4:	05000021 	bltz	t0,f6c <n34_bltz_test+0xf6c>
     ee8:	36103e20 	ori	s0,s0,0x3e20
     eec:	10000021 	b	f74 <n34_bltz_test+0xf74>
     ef0:	00000000 	nop
     ef4:	00000000 	nop
     ef8:	00000021 	move	zero,zero
     efc:	00000021 	move	zero,zero
     f00:	00000021 	move	zero,zero
     f04:	00000021 	move	zero,zero
     f08:	00000021 	move	zero,zero
     f0c:	00000021 	move	zero,zero
     f10:	00000021 	move	zero,zero
     f14:	00000021 	move	zero,zero
     f18:	00000021 	move	zero,zero
     f1c:	3c08834c 	lui	t0,0x834c
     f20:	35082020 	ori	t0,t0,0x2020
     f24:	0500ffee 	bltz	t0,ee0 <n34_bltz_test+0xee0>
     f28:	00000000 	nop
     f2c:	10000011 	b	f74 <n34_bltz_test+0xf74>
     f30:	00000000 	nop
     f34:	00000000 	nop
     f38:	00000021 	move	zero,zero
     f3c:	00000021 	move	zero,zero
     f40:	00000021 	move	zero,zero
     f44:	00000021 	move	zero,zero
     f48:	00000021 	move	zero,zero
     f4c:	00000021 	move	zero,zero
     f50:	00000021 	move	zero,zero
     f54:	00000021 	move	zero,zero
     f58:	00000021 	move	zero,zero
     f5c:	00000021 	move	zero,zero
     f60:	00000021 	move	zero,zero
     f64:	00000021 	move	zero,zero
     f68:	00000021 	move	zero,zero
     f6c:	3c12e15b 	lui	s2,0xe15b
     f70:	3652ff7c 	ori	s2,s2,0xff7c
     f74:	00000000 	nop
     f78:	3c142c88 	lui	s4,0x2c88
     f7c:	36943e20 	ori	s4,s4,0x3e20
     f80:	1614274b 	bne	s0,s4,acb0 <inst_error>
     f84:	00000000 	nop
     f88:	00000000 	nop
     f8c:	3c15e15b 	lui	s5,0xe15b
     f90:	36b5ff7c 	ori	s5,s5,0xff7c
     f94:	16552746 	bne	s2,s5,acb0 <inst_error>
     f98:	00000000 	nop
     f9c:	00000000 	nop
     fa0:	3c0c7343 	lui	t4,0x7343
     fa4:	358c996a 	ori	t4,t4,0x996a
     fa8:	3c0db90c 	lui	t5,0xb90c
     fac:	35ada064 	ori	t5,t5,0xa064
     fb0:	24100000 	li	s0,0
     fb4:	10000011 	b	ffc <n34_bltz_test+0xffc>
     fb8:	24120000 	li	s2,0
     fbc:	00000000 	nop
     fc0:	3c107343 	lui	s0,0x7343
     fc4:	05000021 	bltz	t0,104c <n34_bltz_test+0x104c>
     fc8:	3610996a 	ori	s0,s0,0x996a
     fcc:	10000021 	b	1054 <n34_bltz_test+0x1054>
     fd0:	00000000 	nop
     fd4:	00000000 	nop
     fd8:	00000021 	move	zero,zero
     fdc:	00000021 	move	zero,zero
     fe0:	00000021 	move	zero,zero
     fe4:	00000021 	move	zero,zero
     fe8:	00000021 	move	zero,zero
     fec:	00000021 	move	zero,zero
     ff0:	00000021 	move	zero,zero
     ff4:	00000021 	move	zero,zero
     ff8:	00000021 	move	zero,zero
     ffc:	3c080b79 	lui	t0,0xb79
    1000:	35087cdc 	ori	t0,t0,0x7cdc
    1004:	0500ffee 	bltz	t0,fc0 <n34_bltz_test+0xfc0>
    1008:	00000000 	nop
    100c:	10000011 	b	1054 <n34_bltz_test+0x1054>
    1010:	00000000 	nop
    1014:	00000000 	nop
    1018:	00000021 	move	zero,zero
    101c:	00000021 	move	zero,zero
    1020:	00000021 	move	zero,zero
    1024:	00000021 	move	zero,zero
    1028:	00000021 	move	zero,zero
    102c:	00000021 	move	zero,zero
    1030:	00000021 	move	zero,zero
    1034:	00000021 	move	zero,zero
    1038:	00000021 	move	zero,zero
    103c:	00000021 	move	zero,zero
    1040:	00000021 	move	zero,zero
    1044:	00000021 	move	zero,zero
    1048:	00000021 	move	zero,zero
    104c:	3c12b90c 	lui	s2,0xb90c
    1050:	3652a064 	ori	s2,s2,0xa064
    1054:	00000000 	nop
    1058:	24140000 	li	s4,0
    105c:	16142714 	bne	s0,s4,acb0 <inst_error>
    1060:	00000000 	nop
    1064:	00000000 	nop
    1068:	24150000 	li	s5,0
    106c:	16552710 	bne	s2,s5,acb0 <inst_error>
    1070:	00000000 	nop
    1074:	00000000 	nop
    1078:	3c0c5444 	lui	t4,0x5444
    107c:	358ce1a0 	ori	t4,t4,0xe1a0
    1080:	3c0d3e83 	lui	t5,0x3e83
    1084:	35ad0400 	ori	t5,t5,0x400
    1088:	24100000 	li	s0,0
    108c:	10000011 	b	10d4 <n34_bltz_test+0x10d4>
    1090:	24120000 	li	s2,0
    1094:	00000000 	nop
    1098:	3c105444 	lui	s0,0x5444
    109c:	05000021 	bltz	t0,1124 <n34_bltz_test+0x1124>
    10a0:	3610e1a0 	ori	s0,s0,0xe1a0
    10a4:	10000021 	b	112c <n34_bltz_test+0x112c>
    10a8:	00000000 	nop
    10ac:	00000000 	nop
    10b0:	00000021 	move	zero,zero
    10b4:	00000021 	move	zero,zero
    10b8:	00000021 	move	zero,zero
    10bc:	00000021 	move	zero,zero
    10c0:	00000021 	move	zero,zero
    10c4:	00000021 	move	zero,zero
    10c8:	00000021 	move	zero,zero
    10cc:	00000021 	move	zero,zero
    10d0:	00000021 	move	zero,zero
    10d4:	3c08962a 	lui	t0,0x962a
    10d8:	350845f8 	ori	t0,t0,0x45f8
    10dc:	0500ffee 	bltz	t0,1098 <n34_bltz_test+0x1098>
    10e0:	00000000 	nop
    10e4:	10000011 	b	112c <n34_bltz_test+0x112c>
    10e8:	00000000 	nop
    10ec:	00000000 	nop
    10f0:	00000021 	move	zero,zero
    10f4:	00000021 	move	zero,zero
    10f8:	00000021 	move	zero,zero
    10fc:	00000021 	move	zero,zero
    1100:	00000021 	move	zero,zero
    1104:	00000021 	move	zero,zero
    1108:	00000021 	move	zero,zero
    110c:	00000021 	move	zero,zero
    1110:	00000021 	move	zero,zero
    1114:	00000021 	move	zero,zero
    1118:	00000021 	move	zero,zero
    111c:	00000021 	move	zero,zero
    1120:	00000021 	move	zero,zero
    1124:	3c123e83 	lui	s2,0x3e83
    1128:	36520400 	ori	s2,s2,0x400
    112c:	00000000 	nop
    1130:	3c145444 	lui	s4,0x5444
    1134:	3694e1a0 	ori	s4,s4,0xe1a0
    1138:	161426dd 	bne	s0,s4,acb0 <inst_error>
    113c:	00000000 	nop
    1140:	00000000 	nop
    1144:	3c153e83 	lui	s5,0x3e83
    1148:	36b50400 	ori	s5,s5,0x400
    114c:	165526d8 	bne	s2,s5,acb0 <inst_error>
    1150:	00000000 	nop
    1154:	00000000 	nop
    1158:	3c0cd1be 	lui	t4,0xd1be
    115c:	358ce2c0 	ori	t4,t4,0xe2c0
    1160:	3c0d8900 	lui	t5,0x8900
    1164:	35ad8130 	ori	t5,t5,0x8130
    1168:	24100000 	li	s0,0
    116c:	10000011 	b	11b4 <n34_bltz_test+0x11b4>
    1170:	24120000 	li	s2,0
    1174:	00000000 	nop
    1178:	3c10d1be 	lui	s0,0xd1be
    117c:	05000021 	bltz	t0,1204 <n34_bltz_test+0x1204>
    1180:	3610e2c0 	ori	s0,s0,0xe2c0
    1184:	10000021 	b	120c <n34_bltz_test+0x120c>
    1188:	00000000 	nop
    118c:	00000000 	nop
    1190:	00000021 	move	zero,zero
    1194:	00000021 	move	zero,zero
    1198:	00000021 	move	zero,zero
    119c:	00000021 	move	zero,zero
    11a0:	00000021 	move	zero,zero
    11a4:	00000021 	move	zero,zero
    11a8:	00000021 	move	zero,zero
    11ac:	00000021 	move	zero,zero
    11b0:	00000021 	move	zero,zero
    11b4:	3c08f5a6 	lui	t0,0xf5a6
    11b8:	35084820 	ori	t0,t0,0x4820
    11bc:	0500ffee 	bltz	t0,1178 <n34_bltz_test+0x1178>
    11c0:	00000000 	nop
    11c4:	10000011 	b	120c <n34_bltz_test+0x120c>
    11c8:	00000000 	nop
    11cc:	00000000 	nop
    11d0:	00000021 	move	zero,zero
    11d4:	00000021 	move	zero,zero
    11d8:	00000021 	move	zero,zero
    11dc:	00000021 	move	zero,zero
    11e0:	00000021 	move	zero,zero
    11e4:	00000021 	move	zero,zero
    11e8:	00000021 	move	zero,zero
    11ec:	00000021 	move	zero,zero
    11f0:	00000021 	move	zero,zero
    11f4:	00000021 	move	zero,zero
    11f8:	00000021 	move	zero,zero
    11fc:	00000021 	move	zero,zero
    1200:	00000021 	move	zero,zero
    1204:	3c128900 	lui	s2,0x8900
    1208:	36528130 	ori	s2,s2,0x8130
    120c:	00000000 	nop
    1210:	3c14d1be 	lui	s4,0xd1be
    1214:	3694e2c0 	ori	s4,s4,0xe2c0
    1218:	161426a5 	bne	s0,s4,acb0 <inst_error>
    121c:	00000000 	nop
    1220:	00000000 	nop
    1224:	3c158900 	lui	s5,0x8900
    1228:	36b58130 	ori	s5,s5,0x8130
    122c:	165526a0 	bne	s2,s5,acb0 <inst_error>
    1230:	00000000 	nop
    1234:	00000000 	nop
    1238:	3c0c197e 	lui	t4,0x197e
    123c:	358c96a8 	ori	t4,t4,0x96a8
    1240:	3c0d398e 	lui	t5,0x398e
    1244:	35ad59dc 	ori	t5,t5,0x59dc
    1248:	24100000 	li	s0,0
    124c:	10000011 	b	1294 <n34_bltz_test+0x1294>
    1250:	24120000 	li	s2,0
    1254:	00000000 	nop
    1258:	3c10197e 	lui	s0,0x197e
    125c:	05000021 	bltz	t0,12e4 <n34_bltz_test+0x12e4>
    1260:	361096a8 	ori	s0,s0,0x96a8
    1264:	10000021 	b	12ec <n34_bltz_test+0x12ec>
    1268:	00000000 	nop
    126c:	00000000 	nop
    1270:	00000021 	move	zero,zero
    1274:	00000021 	move	zero,zero
    1278:	00000021 	move	zero,zero
    127c:	00000021 	move	zero,zero
    1280:	00000021 	move	zero,zero
    1284:	00000021 	move	zero,zero
    1288:	00000021 	move	zero,zero
    128c:	00000021 	move	zero,zero
    1290:	00000021 	move	zero,zero
    1294:	3c08d0c5 	lui	t0,0xd0c5
    1298:	35087308 	ori	t0,t0,0x7308
    129c:	0500ffee 	bltz	t0,1258 <n34_bltz_test+0x1258>
    12a0:	00000000 	nop
    12a4:	10000011 	b	12ec <n34_bltz_test+0x12ec>
    12a8:	00000000 	nop
    12ac:	00000000 	nop
    12b0:	00000021 	move	zero,zero
    12b4:	00000021 	move	zero,zero
    12b8:	00000021 	move	zero,zero
    12bc:	00000021 	move	zero,zero
    12c0:	00000021 	move	zero,zero
    12c4:	00000021 	move	zero,zero
    12c8:	00000021 	move	zero,zero
    12cc:	00000021 	move	zero,zero
    12d0:	00000021 	move	zero,zero
    12d4:	00000021 	move	zero,zero
    12d8:	00000021 	move	zero,zero
    12dc:	00000021 	move	zero,zero
    12e0:	00000021 	move	zero,zero
    12e4:	3c12398e 	lui	s2,0x398e
    12e8:	365259dc 	ori	s2,s2,0x59dc
    12ec:	00000000 	nop
    12f0:	3c14197e 	lui	s4,0x197e
    12f4:	369496a8 	ori	s4,s4,0x96a8
    12f8:	1614266d 	bne	s0,s4,acb0 <inst_error>
    12fc:	00000000 	nop
    1300:	00000000 	nop
    1304:	3c15398e 	lui	s5,0x398e
    1308:	36b559dc 	ori	s5,s5,0x59dc
    130c:	16552668 	bne	s2,s5,acb0 <inst_error>
    1310:	00000000 	nop
    1314:	00000000 	nop
    1318:	3c0c9bf3 	lui	t4,0x9bf3
    131c:	358c70aa 	ori	t4,t4,0x70aa
    1320:	3c0dfc5d 	lui	t5,0xfc5d
    1324:	35ad24b8 	ori	t5,t5,0x24b8
    1328:	24100000 	li	s0,0
    132c:	10000011 	b	1374 <n34_bltz_test+0x1374>
    1330:	24120000 	li	s2,0
    1334:	00000000 	nop
    1338:	3c109bf3 	lui	s0,0x9bf3
    133c:	05000021 	bltz	t0,13c4 <n34_bltz_test+0x13c4>
    1340:	361070aa 	ori	s0,s0,0x70aa
    1344:	10000021 	b	13cc <n34_bltz_test+0x13cc>
    1348:	00000000 	nop
    134c:	00000000 	nop
    1350:	00000021 	move	zero,zero
    1354:	00000021 	move	zero,zero
    1358:	00000021 	move	zero,zero
    135c:	00000021 	move	zero,zero
    1360:	00000021 	move	zero,zero
    1364:	00000021 	move	zero,zero
    1368:	00000021 	move	zero,zero
    136c:	00000021 	move	zero,zero
    1370:	00000021 	move	zero,zero
    1374:	3c08802b 	lui	t0,0x802b
    1378:	3508ce60 	ori	t0,t0,0xce60
    137c:	0500ffee 	bltz	t0,1338 <n34_bltz_test+0x1338>
    1380:	00000000 	nop
    1384:	10000011 	b	13cc <n34_bltz_test+0x13cc>
    1388:	00000000 	nop
    138c:	00000000 	nop
    1390:	00000021 	move	zero,zero
    1394:	00000021 	move	zero,zero
    1398:	00000021 	move	zero,zero
    139c:	00000021 	move	zero,zero
    13a0:	00000021 	move	zero,zero
    13a4:	00000021 	move	zero,zero
    13a8:	00000021 	move	zero,zero
    13ac:	00000021 	move	zero,zero
    13b0:	00000021 	move	zero,zero
    13b4:	00000021 	move	zero,zero
    13b8:	00000021 	move	zero,zero
    13bc:	00000021 	move	zero,zero
    13c0:	00000021 	move	zero,zero
    13c4:	3c12fc5d 	lui	s2,0xfc5d
    13c8:	365224b8 	ori	s2,s2,0x24b8
    13cc:	00000000 	nop
    13d0:	3c149bf3 	lui	s4,0x9bf3
    13d4:	369470aa 	ori	s4,s4,0x70aa
    13d8:	16142635 	bne	s0,s4,acb0 <inst_error>
    13dc:	00000000 	nop
    13e0:	00000000 	nop
    13e4:	3c15fc5d 	lui	s5,0xfc5d
    13e8:	36b524b8 	ori	s5,s5,0x24b8
    13ec:	16552630 	bne	s2,s5,acb0 <inst_error>
    13f0:	00000000 	nop
    13f4:	00000000 	nop
    13f8:	3c0c1c3d 	lui	t4,0x1c3d
    13fc:	358c27ba 	ori	t4,t4,0x27ba
    1400:	3c0d64d7 	lui	t5,0x64d7
    1404:	35adf4c2 	ori	t5,t5,0xf4c2
    1408:	24100000 	li	s0,0
    140c:	10000011 	b	1454 <n34_bltz_test+0x1454>
    1410:	24120000 	li	s2,0
    1414:	00000000 	nop
    1418:	3c101c3d 	lui	s0,0x1c3d
    141c:	05000021 	bltz	t0,14a4 <n34_bltz_test+0x14a4>
    1420:	361027ba 	ori	s0,s0,0x27ba
    1424:	10000021 	b	14ac <n34_bltz_test+0x14ac>
    1428:	00000000 	nop
    142c:	00000000 	nop
    1430:	00000021 	move	zero,zero
    1434:	00000021 	move	zero,zero
    1438:	00000021 	move	zero,zero
    143c:	00000021 	move	zero,zero
    1440:	00000021 	move	zero,zero
    1444:	00000021 	move	zero,zero
    1448:	00000021 	move	zero,zero
    144c:	00000021 	move	zero,zero
    1450:	00000021 	move	zero,zero
    1454:	3c080ca6 	lui	t0,0xca6
    1458:	35084003 	ori	t0,t0,0x4003
    145c:	0500ffee 	bltz	t0,1418 <n34_bltz_test+0x1418>
    1460:	00000000 	nop
    1464:	10000011 	b	14ac <n34_bltz_test+0x14ac>
    1468:	00000000 	nop
    146c:	00000000 	nop
    1470:	00000021 	move	zero,zero
    1474:	00000021 	move	zero,zero
    1478:	00000021 	move	zero,zero
    147c:	00000021 	move	zero,zero
    1480:	00000021 	move	zero,zero
    1484:	00000021 	move	zero,zero
    1488:	00000021 	move	zero,zero
    148c:	00000021 	move	zero,zero
    1490:	00000021 	move	zero,zero
    1494:	00000021 	move	zero,zero
    1498:	00000021 	move	zero,zero
    149c:	00000021 	move	zero,zero
    14a0:	00000021 	move	zero,zero
    14a4:	3c1264d7 	lui	s2,0x64d7
    14a8:	3652f4c2 	ori	s2,s2,0xf4c2
    14ac:	00000000 	nop
    14b0:	24140000 	li	s4,0
    14b4:	161425fe 	bne	s0,s4,acb0 <inst_error>
    14b8:	00000000 	nop
    14bc:	00000000 	nop
    14c0:	24150000 	li	s5,0
    14c4:	165525fa 	bne	s2,s5,acb0 <inst_error>
    14c8:	00000000 	nop
    14cc:	00000000 	nop
    14d0:	3c0c1370 	lui	t4,0x1370
    14d4:	358cd877 	ori	t4,t4,0xd877
    14d8:	3c0d86f7 	lui	t5,0x86f7
    14dc:	35ad6c50 	ori	t5,t5,0x6c50
    14e0:	24100000 	li	s0,0
    14e4:	10000011 	b	152c <n34_bltz_test+0x152c>
    14e8:	24120000 	li	s2,0
    14ec:	00000000 	nop
    14f0:	3c101370 	lui	s0,0x1370
    14f4:	05000021 	bltz	t0,157c <n34_bltz_test+0x157c>
    14f8:	3610d877 	ori	s0,s0,0xd877
    14fc:	10000021 	b	1584 <n34_bltz_test+0x1584>
    1500:	00000000 	nop
    1504:	00000000 	nop
    1508:	00000021 	move	zero,zero
    150c:	00000021 	move	zero,zero
    1510:	00000021 	move	zero,zero
    1514:	00000021 	move	zero,zero
    1518:	00000021 	move	zero,zero
    151c:	00000021 	move	zero,zero
    1520:	00000021 	move	zero,zero
    1524:	00000021 	move	zero,zero
    1528:	00000021 	move	zero,zero
    152c:	3c08b418 	lui	t0,0xb418
    1530:	3508df98 	ori	t0,t0,0xdf98
    1534:	0500ffee 	bltz	t0,14f0 <n34_bltz_test+0x14f0>
    1538:	00000000 	nop
    153c:	10000011 	b	1584 <n34_bltz_test+0x1584>
    1540:	00000000 	nop
    1544:	00000000 	nop
    1548:	00000021 	move	zero,zero
    154c:	00000021 	move	zero,zero
    1550:	00000021 	move	zero,zero
    1554:	00000021 	move	zero,zero
    1558:	00000021 	move	zero,zero
    155c:	00000021 	move	zero,zero
    1560:	00000021 	move	zero,zero
    1564:	00000021 	move	zero,zero
    1568:	00000021 	move	zero,zero
    156c:	00000021 	move	zero,zero
    1570:	00000021 	move	zero,zero
    1574:	00000021 	move	zero,zero
    1578:	00000021 	move	zero,zero
    157c:	3c1286f7 	lui	s2,0x86f7
    1580:	36526c50 	ori	s2,s2,0x6c50
    1584:	00000000 	nop
    1588:	3c141370 	lui	s4,0x1370
    158c:	3694d877 	ori	s4,s4,0xd877
    1590:	161425c7 	bne	s0,s4,acb0 <inst_error>
    1594:	00000000 	nop
    1598:	00000000 	nop
    159c:	3c1586f7 	lui	s5,0x86f7
    15a0:	36b56c50 	ori	s5,s5,0x6c50
    15a4:	165525c2 	bne	s2,s5,acb0 <inst_error>
    15a8:	00000000 	nop
    15ac:	00000000 	nop
    15b0:	3c0c187a 	lui	t4,0x187a
    15b4:	358c7fa0 	ori	t4,t4,0x7fa0
    15b8:	3c0da6a7 	lui	t5,0xa6a7
    15bc:	35ad5f45 	ori	t5,t5,0x5f45
    15c0:	24100000 	li	s0,0
    15c4:	10000011 	b	160c <n34_bltz_test+0x160c>
    15c8:	24120000 	li	s2,0
    15cc:	00000000 	nop
    15d0:	3c10187a 	lui	s0,0x187a
    15d4:	05000021 	bltz	t0,165c <n34_bltz_test+0x165c>
    15d8:	36107fa0 	ori	s0,s0,0x7fa0
    15dc:	10000021 	b	1664 <n34_bltz_test+0x1664>
    15e0:	00000000 	nop
    15e4:	00000000 	nop
    15e8:	00000021 	move	zero,zero
    15ec:	00000021 	move	zero,zero
    15f0:	00000021 	move	zero,zero
    15f4:	00000021 	move	zero,zero
    15f8:	00000021 	move	zero,zero
    15fc:	00000021 	move	zero,zero
    1600:	00000021 	move	zero,zero
    1604:	00000021 	move	zero,zero
    1608:	00000021 	move	zero,zero
    160c:	3c0804b8 	lui	t0,0x4b8
    1610:	3508fd80 	ori	t0,t0,0xfd80
    1614:	0500ffee 	bltz	t0,15d0 <n34_bltz_test+0x15d0>
    1618:	00000000 	nop
    161c:	10000011 	b	1664 <n34_bltz_test+0x1664>
    1620:	00000000 	nop
    1624:	00000000 	nop
    1628:	00000021 	move	zero,zero
    162c:	00000021 	move	zero,zero
    1630:	00000021 	move	zero,zero
    1634:	00000021 	move	zero,zero
    1638:	00000021 	move	zero,zero
    163c:	00000021 	move	zero,zero
    1640:	00000021 	move	zero,zero
    1644:	00000021 	move	zero,zero
    1648:	00000021 	move	zero,zero
    164c:	00000021 	move	zero,zero
    1650:	00000021 	move	zero,zero
    1654:	00000021 	move	zero,zero
    1658:	00000021 	move	zero,zero
    165c:	3c12a6a7 	lui	s2,0xa6a7
    1660:	36525f45 	ori	s2,s2,0x5f45
    1664:	00000000 	nop
    1668:	24140000 	li	s4,0
    166c:	16142590 	bne	s0,s4,acb0 <inst_error>
    1670:	00000000 	nop
    1674:	00000000 	nop
    1678:	24150000 	li	s5,0
    167c:	1655258c 	bne	s2,s5,acb0 <inst_error>
    1680:	00000000 	nop
    1684:	00000000 	nop
    1688:	3c0cb6a4 	lui	t4,0xb6a4
    168c:	358caa54 	ori	t4,t4,0xaa54
    1690:	3c0dfd28 	lui	t5,0xfd28
    1694:	35ad9d08 	ori	t5,t5,0x9d08
    1698:	24100000 	li	s0,0
    169c:	10000011 	b	16e4 <n34_bltz_test+0x16e4>
    16a0:	24120000 	li	s2,0
    16a4:	00000000 	nop
    16a8:	3c10b6a4 	lui	s0,0xb6a4
    16ac:	05000021 	bltz	t0,1734 <n34_bltz_test+0x1734>
    16b0:	3610aa54 	ori	s0,s0,0xaa54
    16b4:	10000021 	b	173c <n34_bltz_test+0x173c>
    16b8:	00000000 	nop
    16bc:	00000000 	nop
    16c0:	00000021 	move	zero,zero
    16c4:	00000021 	move	zero,zero
    16c8:	00000021 	move	zero,zero
    16cc:	00000021 	move	zero,zero
    16d0:	00000021 	move	zero,zero
    16d4:	00000021 	move	zero,zero
    16d8:	00000021 	move	zero,zero
    16dc:	00000021 	move	zero,zero
    16e0:	00000021 	move	zero,zero
    16e4:	3c088c7a 	lui	t0,0x8c7a
    16e8:	3508540a 	ori	t0,t0,0x540a
    16ec:	0500ffee 	bltz	t0,16a8 <n34_bltz_test+0x16a8>
    16f0:	00000000 	nop
    16f4:	10000011 	b	173c <n34_bltz_test+0x173c>
    16f8:	00000000 	nop
    16fc:	00000000 	nop
    1700:	00000021 	move	zero,zero
    1704:	00000021 	move	zero,zero
    1708:	00000021 	move	zero,zero
    170c:	00000021 	move	zero,zero
    1710:	00000021 	move	zero,zero
    1714:	00000021 	move	zero,zero
    1718:	00000021 	move	zero,zero
    171c:	00000021 	move	zero,zero
    1720:	00000021 	move	zero,zero
    1724:	00000021 	move	zero,zero
    1728:	00000021 	move	zero,zero
    172c:	00000021 	move	zero,zero
    1730:	00000021 	move	zero,zero
    1734:	3c12fd28 	lui	s2,0xfd28
    1738:	36529d08 	ori	s2,s2,0x9d08
    173c:	00000000 	nop
    1740:	3c14b6a4 	lui	s4,0xb6a4
    1744:	3694aa54 	ori	s4,s4,0xaa54
    1748:	16142559 	bne	s0,s4,acb0 <inst_error>
    174c:	00000000 	nop
    1750:	00000000 	nop
    1754:	3c15fd28 	lui	s5,0xfd28
    1758:	36b59d08 	ori	s5,s5,0x9d08
    175c:	16552554 	bne	s2,s5,acb0 <inst_error>
    1760:	00000000 	nop
    1764:	00000000 	nop
    1768:	3c0c2d31 	lui	t4,0x2d31
    176c:	358c3870 	ori	t4,t4,0x3870
    1770:	3c0d7e3b 	lui	t5,0x7e3b
    1774:	35ad2a5c 	ori	t5,t5,0x2a5c
    1778:	24100000 	li	s0,0
    177c:	10000011 	b	17c4 <n34_bltz_test+0x17c4>
    1780:	24120000 	li	s2,0
    1784:	00000000 	nop
    1788:	3c102d31 	lui	s0,0x2d31
    178c:	05000021 	bltz	t0,1814 <n34_bltz_test+0x1814>
    1790:	36103870 	ori	s0,s0,0x3870
    1794:	10000021 	b	181c <n34_bltz_test+0x181c>
    1798:	00000000 	nop
    179c:	00000000 	nop
    17a0:	00000021 	move	zero,zero
    17a4:	00000021 	move	zero,zero
    17a8:	00000021 	move	zero,zero
    17ac:	00000021 	move	zero,zero
    17b0:	00000021 	move	zero,zero
    17b4:	00000021 	move	zero,zero
    17b8:	00000021 	move	zero,zero
    17bc:	00000021 	move	zero,zero
    17c0:	00000021 	move	zero,zero
    17c4:	3c0829d1 	lui	t0,0x29d1
    17c8:	35083168 	ori	t0,t0,0x3168
    17cc:	0500ffee 	bltz	t0,1788 <n34_bltz_test+0x1788>
    17d0:	00000000 	nop
    17d4:	10000011 	b	181c <n34_bltz_test+0x181c>
    17d8:	00000000 	nop
    17dc:	00000000 	nop
    17e0:	00000021 	move	zero,zero
    17e4:	00000021 	move	zero,zero
    17e8:	00000021 	move	zero,zero
    17ec:	00000021 	move	zero,zero
    17f0:	00000021 	move	zero,zero
    17f4:	00000021 	move	zero,zero
    17f8:	00000021 	move	zero,zero
    17fc:	00000021 	move	zero,zero
    1800:	00000021 	move	zero,zero
    1804:	00000021 	move	zero,zero
    1808:	00000021 	move	zero,zero
    180c:	00000021 	move	zero,zero
    1810:	00000021 	move	zero,zero
    1814:	3c127e3b 	lui	s2,0x7e3b
    1818:	36522a5c 	ori	s2,s2,0x2a5c
    181c:	00000000 	nop
    1820:	24140000 	li	s4,0
    1824:	16142522 	bne	s0,s4,acb0 <inst_error>
    1828:	00000000 	nop
    182c:	00000000 	nop
    1830:	24150000 	li	s5,0
    1834:	1655251e 	bne	s2,s5,acb0 <inst_error>
    1838:	00000000 	nop
    183c:	00000000 	nop
    1840:	3c0cc7d9 	lui	t4,0xc7d9
    1844:	358ce5e0 	ori	t4,t4,0xe5e0
    1848:	3c0de5df 	lui	t5,0xe5df
    184c:	35adcb74 	ori	t5,t5,0xcb74
    1850:	24100000 	li	s0,0
    1854:	10000011 	b	189c <n34_bltz_test+0x189c>
    1858:	24120000 	li	s2,0
    185c:	00000000 	nop
    1860:	3c10c7d9 	lui	s0,0xc7d9
    1864:	05000021 	bltz	t0,18ec <n34_bltz_test+0x18ec>
    1868:	3610e5e0 	ori	s0,s0,0xe5e0
    186c:	10000021 	b	18f4 <n34_bltz_test+0x18f4>
    1870:	00000000 	nop
    1874:	00000000 	nop
    1878:	00000021 	move	zero,zero
    187c:	00000021 	move	zero,zero
    1880:	00000021 	move	zero,zero
    1884:	00000021 	move	zero,zero
    1888:	00000021 	move	zero,zero
    188c:	00000021 	move	zero,zero
    1890:	00000021 	move	zero,zero
    1894:	00000021 	move	zero,zero
    1898:	00000021 	move	zero,zero
    189c:	3c08847c 	lui	t0,0x847c
    18a0:	35081c31 	ori	t0,t0,0x1c31
    18a4:	0500ffee 	bltz	t0,1860 <n34_bltz_test+0x1860>
    18a8:	00000000 	nop
    18ac:	10000011 	b	18f4 <n34_bltz_test+0x18f4>
    18b0:	00000000 	nop
    18b4:	00000000 	nop
    18b8:	00000021 	move	zero,zero
    18bc:	00000021 	move	zero,zero
    18c0:	00000021 	move	zero,zero
    18c4:	00000021 	move	zero,zero
    18c8:	00000021 	move	zero,zero
    18cc:	00000021 	move	zero,zero
    18d0:	00000021 	move	zero,zero
    18d4:	00000021 	move	zero,zero
    18d8:	00000021 	move	zero,zero
    18dc:	00000021 	move	zero,zero
    18e0:	00000021 	move	zero,zero
    18e4:	00000021 	move	zero,zero
    18e8:	00000021 	move	zero,zero
    18ec:	3c12e5df 	lui	s2,0xe5df
    18f0:	3652cb74 	ori	s2,s2,0xcb74
    18f4:	00000000 	nop
    18f8:	3c14c7d9 	lui	s4,0xc7d9
    18fc:	3694e5e0 	ori	s4,s4,0xe5e0
    1900:	161424eb 	bne	s0,s4,acb0 <inst_error>
    1904:	00000000 	nop
    1908:	00000000 	nop
    190c:	3c15e5df 	lui	s5,0xe5df
    1910:	36b5cb74 	ori	s5,s5,0xcb74
    1914:	165524e6 	bne	s2,s5,acb0 <inst_error>
    1918:	00000000 	nop
    191c:	00000000 	nop
    1920:	3c0c1906 	lui	t4,0x1906
    1924:	358c7280 	ori	t4,t4,0x7280
    1928:	3c0d6622 	lui	t5,0x6622
    192c:	35adb824 	ori	t5,t5,0xb824
    1930:	24100000 	li	s0,0
    1934:	10000011 	b	197c <n34_bltz_test+0x197c>
    1938:	24120000 	li	s2,0
    193c:	00000000 	nop
    1940:	3c101906 	lui	s0,0x1906
    1944:	05000021 	bltz	t0,19cc <n34_bltz_test+0x19cc>
    1948:	36107280 	ori	s0,s0,0x7280
    194c:	10000021 	b	19d4 <n34_bltz_test+0x19d4>
    1950:	00000000 	nop
    1954:	00000000 	nop
    1958:	00000021 	move	zero,zero
    195c:	00000021 	move	zero,zero
    1960:	00000021 	move	zero,zero
    1964:	00000021 	move	zero,zero
    1968:	00000021 	move	zero,zero
    196c:	00000021 	move	zero,zero
    1970:	00000021 	move	zero,zero
    1974:	00000021 	move	zero,zero
    1978:	00000021 	move	zero,zero
    197c:	3c08bc68 	lui	t0,0xbc68
    1980:	3508c0b3 	ori	t0,t0,0xc0b3
    1984:	0500ffee 	bltz	t0,1940 <n34_bltz_test+0x1940>
    1988:	00000000 	nop
    198c:	10000011 	b	19d4 <n34_bltz_test+0x19d4>
    1990:	00000000 	nop
    1994:	00000000 	nop
    1998:	00000021 	move	zero,zero
    199c:	00000021 	move	zero,zero
    19a0:	00000021 	move	zero,zero
    19a4:	00000021 	move	zero,zero
    19a8:	00000021 	move	zero,zero
    19ac:	00000021 	move	zero,zero
    19b0:	00000021 	move	zero,zero
    19b4:	00000021 	move	zero,zero
    19b8:	00000021 	move	zero,zero
    19bc:	00000021 	move	zero,zero
    19c0:	00000021 	move	zero,zero
    19c4:	00000021 	move	zero,zero
    19c8:	00000021 	move	zero,zero
    19cc:	3c126622 	lui	s2,0x6622
    19d0:	3652b824 	ori	s2,s2,0xb824
    19d4:	00000000 	nop
    19d8:	3c141906 	lui	s4,0x1906
    19dc:	36947280 	ori	s4,s4,0x7280
    19e0:	161424b3 	bne	s0,s4,acb0 <inst_error>
    19e4:	00000000 	nop
    19e8:	00000000 	nop
    19ec:	3c156622 	lui	s5,0x6622
    19f0:	36b5b824 	ori	s5,s5,0xb824
    19f4:	165524ae 	bne	s2,s5,acb0 <inst_error>
    19f8:	00000000 	nop
    19fc:	00000000 	nop
    1a00:	3c0c9839 	lui	t4,0x9839
    1a04:	358c7888 	ori	t4,t4,0x7888
    1a08:	3c0d3bef 	lui	t5,0x3bef
    1a0c:	35ad4814 	ori	t5,t5,0x4814
    1a10:	24100000 	li	s0,0
    1a14:	10000011 	b	1a5c <n34_bltz_test+0x1a5c>
    1a18:	24120000 	li	s2,0
    1a1c:	00000000 	nop
    1a20:	3c109839 	lui	s0,0x9839
    1a24:	05000021 	bltz	t0,1aac <n34_bltz_test+0x1aac>
    1a28:	36107888 	ori	s0,s0,0x7888
    1a2c:	10000021 	b	1ab4 <n34_bltz_test+0x1ab4>
    1a30:	00000000 	nop
    1a34:	00000000 	nop
    1a38:	00000021 	move	zero,zero
    1a3c:	00000021 	move	zero,zero
    1a40:	00000021 	move	zero,zero
    1a44:	00000021 	move	zero,zero
    1a48:	00000021 	move	zero,zero
    1a4c:	00000021 	move	zero,zero
    1a50:	00000021 	move	zero,zero
    1a54:	00000021 	move	zero,zero
    1a58:	00000021 	move	zero,zero
    1a5c:	3c08c89a 	lui	t0,0xc89a
    1a60:	3508fa42 	ori	t0,t0,0xfa42
    1a64:	0500ffee 	bltz	t0,1a20 <n34_bltz_test+0x1a20>
    1a68:	00000000 	nop
    1a6c:	10000011 	b	1ab4 <n34_bltz_test+0x1ab4>
    1a70:	00000000 	nop
    1a74:	00000000 	nop
    1a78:	00000021 	move	zero,zero
    1a7c:	00000021 	move	zero,zero
    1a80:	00000021 	move	zero,zero
    1a84:	00000021 	move	zero,zero
    1a88:	00000021 	move	zero,zero
    1a8c:	00000021 	move	zero,zero
    1a90:	00000021 	move	zero,zero
    1a94:	00000021 	move	zero,zero
    1a98:	00000021 	move	zero,zero
    1a9c:	00000021 	move	zero,zero
    1aa0:	00000021 	move	zero,zero
    1aa4:	00000021 	move	zero,zero
    1aa8:	00000021 	move	zero,zero
    1aac:	3c123bef 	lui	s2,0x3bef
    1ab0:	36524814 	ori	s2,s2,0x4814
    1ab4:	00000000 	nop
    1ab8:	3c149839 	lui	s4,0x9839
    1abc:	36947888 	ori	s4,s4,0x7888
    1ac0:	1614247b 	bne	s0,s4,acb0 <inst_error>
    1ac4:	00000000 	nop
    1ac8:	00000000 	nop
    1acc:	3c153bef 	lui	s5,0x3bef
    1ad0:	36b54814 	ori	s5,s5,0x4814
    1ad4:	16552476 	bne	s2,s5,acb0 <inst_error>
    1ad8:	00000000 	nop
    1adc:	00000000 	nop
    1ae0:	3c0c3499 	lui	t4,0x3499
    1ae4:	358cda1a 	ori	t4,t4,0xda1a
    1ae8:	3c0d0db7 	lui	t5,0xdb7
    1aec:	35ad2217 	ori	t5,t5,0x2217
    1af0:	24100000 	li	s0,0
    1af4:	10000011 	b	1b3c <n34_bltz_test+0x1b3c>
    1af8:	24120000 	li	s2,0
    1afc:	00000000 	nop
    1b00:	3c103499 	lui	s0,0x3499
    1b04:	05000021 	bltz	t0,1b8c <n34_bltz_test+0x1b8c>
    1b08:	3610da1a 	ori	s0,s0,0xda1a
    1b0c:	10000021 	b	1b94 <n34_bltz_test+0x1b94>
    1b10:	00000000 	nop
    1b14:	00000000 	nop
    1b18:	00000021 	move	zero,zero
    1b1c:	00000021 	move	zero,zero
    1b20:	00000021 	move	zero,zero
    1b24:	00000021 	move	zero,zero
    1b28:	00000021 	move	zero,zero
    1b2c:	00000021 	move	zero,zero
    1b30:	00000021 	move	zero,zero
    1b34:	00000021 	move	zero,zero
    1b38:	00000021 	move	zero,zero
    1b3c:	3c08eb72 	lui	t0,0xeb72
    1b40:	35081458 	ori	t0,t0,0x1458
    1b44:	0500ffee 	bltz	t0,1b00 <n34_bltz_test+0x1b00>
    1b48:	00000000 	nop
    1b4c:	10000011 	b	1b94 <n34_bltz_test+0x1b94>
    1b50:	00000000 	nop
    1b54:	00000000 	nop
    1b58:	00000021 	move	zero,zero
    1b5c:	00000021 	move	zero,zero
    1b60:	00000021 	move	zero,zero
    1b64:	00000021 	move	zero,zero
    1b68:	00000021 	move	zero,zero
    1b6c:	00000021 	move	zero,zero
    1b70:	00000021 	move	zero,zero
    1b74:	00000021 	move	zero,zero
    1b78:	00000021 	move	zero,zero
    1b7c:	00000021 	move	zero,zero
    1b80:	00000021 	move	zero,zero
    1b84:	00000021 	move	zero,zero
    1b88:	00000021 	move	zero,zero
    1b8c:	3c120db7 	lui	s2,0xdb7
    1b90:	36522217 	ori	s2,s2,0x2217
    1b94:	00000000 	nop
    1b98:	3c143499 	lui	s4,0x3499
    1b9c:	3694da1a 	ori	s4,s4,0xda1a
    1ba0:	16142443 	bne	s0,s4,acb0 <inst_error>
    1ba4:	00000000 	nop
    1ba8:	00000000 	nop
    1bac:	3c150db7 	lui	s5,0xdb7
    1bb0:	36b52217 	ori	s5,s5,0x2217
    1bb4:	1655243e 	bne	s2,s5,acb0 <inst_error>
    1bb8:	00000000 	nop
    1bbc:	00000000 	nop
    1bc0:	3c0cc86a 	lui	t4,0xc86a
    1bc4:	358c8a68 	ori	t4,t4,0x8a68
    1bc8:	3c0db2b4 	lui	t5,0xb2b4
    1bcc:	35adcbc0 	ori	t5,t5,0xcbc0
    1bd0:	24100000 	li	s0,0
    1bd4:	10000011 	b	1c1c <n34_bltz_test+0x1c1c>
    1bd8:	24120000 	li	s2,0
    1bdc:	00000000 	nop
    1be0:	3c10c86a 	lui	s0,0xc86a
    1be4:	05000021 	bltz	t0,1c6c <n34_bltz_test+0x1c6c>
    1be8:	36108a68 	ori	s0,s0,0x8a68
    1bec:	10000021 	b	1c74 <n34_bltz_test+0x1c74>
    1bf0:	00000000 	nop
    1bf4:	00000000 	nop
    1bf8:	00000021 	move	zero,zero
    1bfc:	00000021 	move	zero,zero
    1c00:	00000021 	move	zero,zero
    1c04:	00000021 	move	zero,zero
    1c08:	00000021 	move	zero,zero
    1c0c:	00000021 	move	zero,zero
    1c10:	00000021 	move	zero,zero
    1c14:	00000021 	move	zero,zero
    1c18:	00000021 	move	zero,zero
    1c1c:	3c08370d 	lui	t0,0x370d
    1c20:	35088474 	ori	t0,t0,0x8474
    1c24:	0500ffee 	bltz	t0,1be0 <n34_bltz_test+0x1be0>
    1c28:	00000000 	nop
    1c2c:	10000011 	b	1c74 <n34_bltz_test+0x1c74>
    1c30:	00000000 	nop
    1c34:	00000000 	nop
    1c38:	00000021 	move	zero,zero
    1c3c:	00000021 	move	zero,zero
    1c40:	00000021 	move	zero,zero
    1c44:	00000021 	move	zero,zero
    1c48:	00000021 	move	zero,zero
    1c4c:	00000021 	move	zero,zero
    1c50:	00000021 	move	zero,zero
    1c54:	00000021 	move	zero,zero
    1c58:	00000021 	move	zero,zero
    1c5c:	00000021 	move	zero,zero
    1c60:	00000021 	move	zero,zero
    1c64:	00000021 	move	zero,zero
    1c68:	00000021 	move	zero,zero
    1c6c:	3c12b2b4 	lui	s2,0xb2b4
    1c70:	3652cbc0 	ori	s2,s2,0xcbc0
    1c74:	00000000 	nop
    1c78:	24140000 	li	s4,0
    1c7c:	1614240c 	bne	s0,s4,acb0 <inst_error>
    1c80:	00000000 	nop
    1c84:	00000000 	nop
    1c88:	24150000 	li	s5,0
    1c8c:	16552408 	bne	s2,s5,acb0 <inst_error>
    1c90:	00000000 	nop
    1c94:	00000000 	nop
    1c98:	3c0c3522 	lui	t4,0x3522
    1c9c:	358c8984 	ori	t4,t4,0x8984
    1ca0:	3c0d8e18 	lui	t5,0x8e18
    1ca4:	35ad7210 	ori	t5,t5,0x7210
    1ca8:	24100000 	li	s0,0
    1cac:	10000011 	b	1cf4 <n34_bltz_test+0x1cf4>
    1cb0:	24120000 	li	s2,0
    1cb4:	00000000 	nop
    1cb8:	3c103522 	lui	s0,0x3522
    1cbc:	05000021 	bltz	t0,1d44 <n34_bltz_test+0x1d44>
    1cc0:	36108984 	ori	s0,s0,0x8984
    1cc4:	10000021 	b	1d4c <n34_bltz_test+0x1d4c>
    1cc8:	00000000 	nop
    1ccc:	00000000 	nop
    1cd0:	00000021 	move	zero,zero
    1cd4:	00000021 	move	zero,zero
    1cd8:	00000021 	move	zero,zero
    1cdc:	00000021 	move	zero,zero
    1ce0:	00000021 	move	zero,zero
    1ce4:	00000021 	move	zero,zero
    1ce8:	00000021 	move	zero,zero
    1cec:	00000021 	move	zero,zero
    1cf0:	00000021 	move	zero,zero
    1cf4:	3c08bac9 	lui	t0,0xbac9
    1cf8:	35085a80 	ori	t0,t0,0x5a80
    1cfc:	0500ffee 	bltz	t0,1cb8 <n34_bltz_test+0x1cb8>
    1d00:	00000000 	nop
    1d04:	10000011 	b	1d4c <n34_bltz_test+0x1d4c>
    1d08:	00000000 	nop
    1d0c:	00000000 	nop
    1d10:	00000021 	move	zero,zero
    1d14:	00000021 	move	zero,zero
    1d18:	00000021 	move	zero,zero
    1d1c:	00000021 	move	zero,zero
    1d20:	00000021 	move	zero,zero
    1d24:	00000021 	move	zero,zero
    1d28:	00000021 	move	zero,zero
    1d2c:	00000021 	move	zero,zero
    1d30:	00000021 	move	zero,zero
    1d34:	00000021 	move	zero,zero
    1d38:	00000021 	move	zero,zero
    1d3c:	00000021 	move	zero,zero
    1d40:	00000021 	move	zero,zero
    1d44:	3c128e18 	lui	s2,0x8e18
    1d48:	36527210 	ori	s2,s2,0x7210
    1d4c:	00000000 	nop
    1d50:	3c143522 	lui	s4,0x3522
    1d54:	36948984 	ori	s4,s4,0x8984
    1d58:	161423d5 	bne	s0,s4,acb0 <inst_error>
    1d5c:	00000000 	nop
    1d60:	00000000 	nop
    1d64:	3c158e18 	lui	s5,0x8e18
    1d68:	36b57210 	ori	s5,s5,0x7210
    1d6c:	165523d0 	bne	s2,s5,acb0 <inst_error>
    1d70:	00000000 	nop
    1d74:	00000000 	nop
    1d78:	3c0c9c99 	lui	t4,0x9c99
    1d7c:	358c3ef6 	ori	t4,t4,0x3ef6
    1d80:	3c0dd1d9 	lui	t5,0xd1d9
    1d84:	35adc170 	ori	t5,t5,0xc170
    1d88:	24100000 	li	s0,0
    1d8c:	10000011 	b	1dd4 <n34_bltz_test+0x1dd4>
    1d90:	24120000 	li	s2,0
    1d94:	00000000 	nop
    1d98:	3c109c99 	lui	s0,0x9c99
    1d9c:	05000021 	bltz	t0,1e24 <n34_bltz_test+0x1e24>
    1da0:	36103ef6 	ori	s0,s0,0x3ef6
    1da4:	10000021 	b	1e2c <n34_bltz_test+0x1e2c>
    1da8:	00000000 	nop
    1dac:	00000000 	nop
    1db0:	00000021 	move	zero,zero
    1db4:	00000021 	move	zero,zero
    1db8:	00000021 	move	zero,zero
    1dbc:	00000021 	move	zero,zero
    1dc0:	00000021 	move	zero,zero
    1dc4:	00000021 	move	zero,zero
    1dc8:	00000021 	move	zero,zero
    1dcc:	00000021 	move	zero,zero
    1dd0:	00000021 	move	zero,zero
    1dd4:	3c08fc60 	lui	t0,0xfc60
    1dd8:	35086368 	ori	t0,t0,0x6368
    1ddc:	0500ffee 	bltz	t0,1d98 <n34_bltz_test+0x1d98>
    1de0:	00000000 	nop
    1de4:	10000011 	b	1e2c <n34_bltz_test+0x1e2c>
    1de8:	00000000 	nop
    1dec:	00000000 	nop
    1df0:	00000021 	move	zero,zero
    1df4:	00000021 	move	zero,zero
    1df8:	00000021 	move	zero,zero
    1dfc:	00000021 	move	zero,zero
    1e00:	00000021 	move	zero,zero
    1e04:	00000021 	move	zero,zero
    1e08:	00000021 	move	zero,zero
    1e0c:	00000021 	move	zero,zero
    1e10:	00000021 	move	zero,zero
    1e14:	00000021 	move	zero,zero
    1e18:	00000021 	move	zero,zero
    1e1c:	00000021 	move	zero,zero
    1e20:	00000021 	move	zero,zero
    1e24:	3c12d1d9 	lui	s2,0xd1d9
    1e28:	3652c170 	ori	s2,s2,0xc170
    1e2c:	00000000 	nop
    1e30:	3c149c99 	lui	s4,0x9c99
    1e34:	36943ef6 	ori	s4,s4,0x3ef6
    1e38:	1614239d 	bne	s0,s4,acb0 <inst_error>
    1e3c:	00000000 	nop
    1e40:	00000000 	nop
    1e44:	3c15d1d9 	lui	s5,0xd1d9
    1e48:	36b5c170 	ori	s5,s5,0xc170
    1e4c:	16552398 	bne	s2,s5,acb0 <inst_error>
    1e50:	00000000 	nop
    1e54:	00000000 	nop
    1e58:	3c0c2a34 	lui	t4,0x2a34
    1e5c:	358cebe0 	ori	t4,t4,0xebe0
    1e60:	3c0d2b45 	lui	t5,0x2b45
    1e64:	35ad4d30 	ori	t5,t5,0x4d30
    1e68:	24100000 	li	s0,0
    1e6c:	10000011 	b	1eb4 <n34_bltz_test+0x1eb4>
    1e70:	24120000 	li	s2,0
    1e74:	00000000 	nop
    1e78:	3c102a34 	lui	s0,0x2a34
    1e7c:	05000021 	bltz	t0,1f04 <n34_bltz_test+0x1f04>
    1e80:	3610ebe0 	ori	s0,s0,0xebe0
    1e84:	10000021 	b	1f0c <n34_bltz_test+0x1f0c>
    1e88:	00000000 	nop
    1e8c:	00000000 	nop
    1e90:	00000021 	move	zero,zero
    1e94:	00000021 	move	zero,zero
    1e98:	00000021 	move	zero,zero
    1e9c:	00000021 	move	zero,zero
    1ea0:	00000021 	move	zero,zero
    1ea4:	00000021 	move	zero,zero
    1ea8:	00000021 	move	zero,zero
    1eac:	00000021 	move	zero,zero
    1eb0:	00000021 	move	zero,zero
    1eb4:	3c08d3aa 	lui	t0,0xd3aa
    1eb8:	35089850 	ori	t0,t0,0x9850
    1ebc:	0500ffee 	bltz	t0,1e78 <n34_bltz_test+0x1e78>
    1ec0:	00000000 	nop
    1ec4:	10000011 	b	1f0c <n34_bltz_test+0x1f0c>
    1ec8:	00000000 	nop
    1ecc:	00000000 	nop
    1ed0:	00000021 	move	zero,zero
    1ed4:	00000021 	move	zero,zero
    1ed8:	00000021 	move	zero,zero
    1edc:	00000021 	move	zero,zero
    1ee0:	00000021 	move	zero,zero
    1ee4:	00000021 	move	zero,zero
    1ee8:	00000021 	move	zero,zero
    1eec:	00000021 	move	zero,zero
    1ef0:	00000021 	move	zero,zero
    1ef4:	00000021 	move	zero,zero
    1ef8:	00000021 	move	zero,zero
    1efc:	00000021 	move	zero,zero
    1f00:	00000021 	move	zero,zero
    1f04:	3c122b45 	lui	s2,0x2b45
    1f08:	36524d30 	ori	s2,s2,0x4d30
    1f0c:	00000000 	nop
    1f10:	3c142a34 	lui	s4,0x2a34
    1f14:	3694ebe0 	ori	s4,s4,0xebe0
    1f18:	16142365 	bne	s0,s4,acb0 <inst_error>
    1f1c:	00000000 	nop
    1f20:	00000000 	nop
    1f24:	3c152b45 	lui	s5,0x2b45
    1f28:	36b54d30 	ori	s5,s5,0x4d30
    1f2c:	16552360 	bne	s2,s5,acb0 <inst_error>
    1f30:	00000000 	nop
    1f34:	00000000 	nop
    1f38:	3c0c44ec 	lui	t4,0x44ec
    1f3c:	358c073e 	ori	t4,t4,0x73e
    1f40:	3c0daa5a 	lui	t5,0xaa5a
    1f44:	35adcce8 	ori	t5,t5,0xcce8
    1f48:	24100000 	li	s0,0
    1f4c:	10000011 	b	1f94 <n34_bltz_test+0x1f94>
    1f50:	24120000 	li	s2,0
    1f54:	00000000 	nop
    1f58:	3c1044ec 	lui	s0,0x44ec
    1f5c:	05000021 	bltz	t0,1fe4 <n34_bltz_test+0x1fe4>
    1f60:	3610073e 	ori	s0,s0,0x73e
    1f64:	10000021 	b	1fec <n34_bltz_test+0x1fec>
    1f68:	00000000 	nop
    1f6c:	00000000 	nop
    1f70:	00000021 	move	zero,zero
    1f74:	00000021 	move	zero,zero
    1f78:	00000021 	move	zero,zero
    1f7c:	00000021 	move	zero,zero
    1f80:	00000021 	move	zero,zero
    1f84:	00000021 	move	zero,zero
    1f88:	00000021 	move	zero,zero
    1f8c:	00000021 	move	zero,zero
    1f90:	00000021 	move	zero,zero
    1f94:	3c08f514 	lui	t0,0xf514
    1f98:	3508ca00 	ori	t0,t0,0xca00
    1f9c:	0500ffee 	bltz	t0,1f58 <n34_bltz_test+0x1f58>
    1fa0:	00000000 	nop
    1fa4:	10000011 	b	1fec <n34_bltz_test+0x1fec>
    1fa8:	00000000 	nop
    1fac:	00000000 	nop
    1fb0:	00000021 	move	zero,zero
    1fb4:	00000021 	move	zero,zero
    1fb8:	00000021 	move	zero,zero
    1fbc:	00000021 	move	zero,zero
    1fc0:	00000021 	move	zero,zero
    1fc4:	00000021 	move	zero,zero
    1fc8:	00000021 	move	zero,zero
    1fcc:	00000021 	move	zero,zero
    1fd0:	00000021 	move	zero,zero
    1fd4:	00000021 	move	zero,zero
    1fd8:	00000021 	move	zero,zero
    1fdc:	00000021 	move	zero,zero
    1fe0:	00000021 	move	zero,zero
    1fe4:	3c12aa5a 	lui	s2,0xaa5a
    1fe8:	3652cce8 	ori	s2,s2,0xcce8
    1fec:	00000000 	nop
    1ff0:	3c1444ec 	lui	s4,0x44ec
    1ff4:	3694073e 	ori	s4,s4,0x73e
    1ff8:	1614232d 	bne	s0,s4,acb0 <inst_error>
    1ffc:	00000000 	nop
    2000:	00000000 	nop
    2004:	3c15aa5a 	lui	s5,0xaa5a
    2008:	36b5cce8 	ori	s5,s5,0xcce8
    200c:	16552328 	bne	s2,s5,acb0 <inst_error>
    2010:	00000000 	nop
    2014:	00000000 	nop
    2018:	3c0c7a0a 	lui	t4,0x7a0a
    201c:	358c8f78 	ori	t4,t4,0x8f78
    2020:	3c0d4d14 	lui	t5,0x4d14
    2024:	35ad6d4a 	ori	t5,t5,0x6d4a
    2028:	24100000 	li	s0,0
    202c:	10000011 	b	2074 <n34_bltz_test+0x2074>
    2030:	24120000 	li	s2,0
    2034:	00000000 	nop
    2038:	3c107a0a 	lui	s0,0x7a0a
    203c:	05000021 	bltz	t0,20c4 <n34_bltz_test+0x20c4>
    2040:	36108f78 	ori	s0,s0,0x8f78
    2044:	10000021 	b	20cc <n34_bltz_test+0x20cc>
    2048:	00000000 	nop
    204c:	00000000 	nop
    2050:	00000021 	move	zero,zero
    2054:	00000021 	move	zero,zero
    2058:	00000021 	move	zero,zero
    205c:	00000021 	move	zero,zero
    2060:	00000021 	move	zero,zero
    2064:	00000021 	move	zero,zero
    2068:	00000021 	move	zero,zero
    206c:	00000021 	move	zero,zero
    2070:	00000021 	move	zero,zero
    2074:	3c08ed67 	lui	t0,0xed67
    2078:	3508e0d0 	ori	t0,t0,0xe0d0
    207c:	0500ffee 	bltz	t0,2038 <n34_bltz_test+0x2038>
    2080:	00000000 	nop
    2084:	10000011 	b	20cc <n34_bltz_test+0x20cc>
    2088:	00000000 	nop
    208c:	00000000 	nop
    2090:	00000021 	move	zero,zero
    2094:	00000021 	move	zero,zero
    2098:	00000021 	move	zero,zero
    209c:	00000021 	move	zero,zero
    20a0:	00000021 	move	zero,zero
    20a4:	00000021 	move	zero,zero
    20a8:	00000021 	move	zero,zero
    20ac:	00000021 	move	zero,zero
    20b0:	00000021 	move	zero,zero
    20b4:	00000021 	move	zero,zero
    20b8:	00000021 	move	zero,zero
    20bc:	00000021 	move	zero,zero
    20c0:	00000021 	move	zero,zero
    20c4:	3c124d14 	lui	s2,0x4d14
    20c8:	36526d4a 	ori	s2,s2,0x6d4a
    20cc:	00000000 	nop
    20d0:	3c147a0a 	lui	s4,0x7a0a
    20d4:	36948f78 	ori	s4,s4,0x8f78
    20d8:	161422f5 	bne	s0,s4,acb0 <inst_error>
    20dc:	00000000 	nop
    20e0:	00000000 	nop
    20e4:	3c154d14 	lui	s5,0x4d14
    20e8:	36b56d4a 	ori	s5,s5,0x6d4a
    20ec:	165522f0 	bne	s2,s5,acb0 <inst_error>
    20f0:	00000000 	nop
    20f4:	00000000 	nop
    20f8:	3c0c1f0b 	lui	t4,0x1f0b
    20fc:	358cc790 	ori	t4,t4,0xc790
    2100:	3c0df96c 	lui	t5,0xf96c
    2104:	35ad03ba 	ori	t5,t5,0x3ba
    2108:	24100000 	li	s0,0
    210c:	10000011 	b	2154 <n34_bltz_test+0x2154>
    2110:	24120000 	li	s2,0
    2114:	00000000 	nop
    2118:	3c101f0b 	lui	s0,0x1f0b
    211c:	05000021 	bltz	t0,21a4 <n34_bltz_test+0x21a4>
    2120:	3610c790 	ori	s0,s0,0xc790
    2124:	10000021 	b	21ac <n34_bltz_test+0x21ac>
    2128:	00000000 	nop
    212c:	00000000 	nop
    2130:	00000021 	move	zero,zero
    2134:	00000021 	move	zero,zero
    2138:	00000021 	move	zero,zero
    213c:	00000021 	move	zero,zero
    2140:	00000021 	move	zero,zero
    2144:	00000021 	move	zero,zero
    2148:	00000021 	move	zero,zero
    214c:	00000021 	move	zero,zero
    2150:	00000021 	move	zero,zero
    2154:	3c08ab11 	lui	t0,0xab11
    2158:	350821c6 	ori	t0,t0,0x21c6
    215c:	0500ffee 	bltz	t0,2118 <n34_bltz_test+0x2118>
    2160:	00000000 	nop
    2164:	10000011 	b	21ac <n34_bltz_test+0x21ac>
    2168:	00000000 	nop
    216c:	00000000 	nop
    2170:	00000021 	move	zero,zero
    2174:	00000021 	move	zero,zero
    2178:	00000021 	move	zero,zero
    217c:	00000021 	move	zero,zero
    2180:	00000021 	move	zero,zero
    2184:	00000021 	move	zero,zero
    2188:	00000021 	move	zero,zero
    218c:	00000021 	move	zero,zero
    2190:	00000021 	move	zero,zero
    2194:	00000021 	move	zero,zero
    2198:	00000021 	move	zero,zero
    219c:	00000021 	move	zero,zero
    21a0:	00000021 	move	zero,zero
    21a4:	3c12f96c 	lui	s2,0xf96c
    21a8:	365203ba 	ori	s2,s2,0x3ba
    21ac:	00000000 	nop
    21b0:	3c141f0b 	lui	s4,0x1f0b
    21b4:	3694c790 	ori	s4,s4,0xc790
    21b8:	161422bd 	bne	s0,s4,acb0 <inst_error>
    21bc:	00000000 	nop
    21c0:	00000000 	nop
    21c4:	3c15f96c 	lui	s5,0xf96c
    21c8:	36b503ba 	ori	s5,s5,0x3ba
    21cc:	165522b8 	bne	s2,s5,acb0 <inst_error>
    21d0:	00000000 	nop
    21d4:	00000000 	nop
    21d8:	3c0c93b0 	lui	t4,0x93b0
    21dc:	358c2957 	ori	t4,t4,0x2957
    21e0:	3c0d10f1 	lui	t5,0x10f1
    21e4:	35ad978c 	ori	t5,t5,0x978c
    21e8:	24100000 	li	s0,0
    21ec:	10000011 	b	2234 <n34_bltz_test+0x2234>
    21f0:	24120000 	li	s2,0
    21f4:	00000000 	nop
    21f8:	3c1093b0 	lui	s0,0x93b0
    21fc:	05000021 	bltz	t0,2284 <n34_bltz_test+0x2284>
    2200:	36102957 	ori	s0,s0,0x2957
    2204:	10000021 	b	228c <n34_bltz_test+0x228c>
    2208:	00000000 	nop
    220c:	00000000 	nop
    2210:	00000021 	move	zero,zero
    2214:	00000021 	move	zero,zero
    2218:	00000021 	move	zero,zero
    221c:	00000021 	move	zero,zero
    2220:	00000021 	move	zero,zero
    2224:	00000021 	move	zero,zero
    2228:	00000021 	move	zero,zero
    222c:	00000021 	move	zero,zero
    2230:	00000021 	move	zero,zero
    2234:	3c089b72 	lui	t0,0x9b72
    2238:	35082e24 	ori	t0,t0,0x2e24
    223c:	0500ffee 	bltz	t0,21f8 <n34_bltz_test+0x21f8>
    2240:	00000000 	nop
    2244:	10000011 	b	228c <n34_bltz_test+0x228c>
    2248:	00000000 	nop
    224c:	00000000 	nop
    2250:	00000021 	move	zero,zero
    2254:	00000021 	move	zero,zero
    2258:	00000021 	move	zero,zero
    225c:	00000021 	move	zero,zero
    2260:	00000021 	move	zero,zero
    2264:	00000021 	move	zero,zero
    2268:	00000021 	move	zero,zero
    226c:	00000021 	move	zero,zero
    2270:	00000021 	move	zero,zero
    2274:	00000021 	move	zero,zero
    2278:	00000021 	move	zero,zero
    227c:	00000021 	move	zero,zero
    2280:	00000021 	move	zero,zero
    2284:	3c1210f1 	lui	s2,0x10f1
    2288:	3652978c 	ori	s2,s2,0x978c
    228c:	00000000 	nop
    2290:	3c1493b0 	lui	s4,0x93b0
    2294:	36942957 	ori	s4,s4,0x2957
    2298:	16142285 	bne	s0,s4,acb0 <inst_error>
    229c:	00000000 	nop
    22a0:	00000000 	nop
    22a4:	3c1510f1 	lui	s5,0x10f1
    22a8:	36b5978c 	ori	s5,s5,0x978c
    22ac:	16552280 	bne	s2,s5,acb0 <inst_error>
    22b0:	00000000 	nop
    22b4:	00000000 	nop
    22b8:	3c0c4cce 	lui	t4,0x4cce
    22bc:	358c3f9c 	ori	t4,t4,0x3f9c
    22c0:	3c0d0aa1 	lui	t5,0xaa1
    22c4:	35ad1dfb 	ori	t5,t5,0x1dfb
    22c8:	24100000 	li	s0,0
    22cc:	10000011 	b	2314 <n34_bltz_test+0x2314>
    22d0:	24120000 	li	s2,0
    22d4:	00000000 	nop
    22d8:	3c104cce 	lui	s0,0x4cce
    22dc:	05000021 	bltz	t0,2364 <n34_bltz_test+0x2364>
    22e0:	36103f9c 	ori	s0,s0,0x3f9c
    22e4:	10000021 	b	236c <n34_bltz_test+0x236c>
    22e8:	00000000 	nop
    22ec:	00000000 	nop
    22f0:	00000021 	move	zero,zero
    22f4:	00000021 	move	zero,zero
    22f8:	00000021 	move	zero,zero
    22fc:	00000021 	move	zero,zero
    2300:	00000021 	move	zero,zero
    2304:	00000021 	move	zero,zero
    2308:	00000021 	move	zero,zero
    230c:	00000021 	move	zero,zero
    2310:	00000021 	move	zero,zero
    2314:	3c08342b 	lui	t0,0x342b
    2318:	3508d0e8 	ori	t0,t0,0xd0e8
    231c:	0500ffee 	bltz	t0,22d8 <n34_bltz_test+0x22d8>
    2320:	00000000 	nop
    2324:	10000011 	b	236c <n34_bltz_test+0x236c>
    2328:	00000000 	nop
    232c:	00000000 	nop
    2330:	00000021 	move	zero,zero
    2334:	00000021 	move	zero,zero
    2338:	00000021 	move	zero,zero
    233c:	00000021 	move	zero,zero
    2340:	00000021 	move	zero,zero
    2344:	00000021 	move	zero,zero
    2348:	00000021 	move	zero,zero
    234c:	00000021 	move	zero,zero
    2350:	00000021 	move	zero,zero
    2354:	00000021 	move	zero,zero
    2358:	00000021 	move	zero,zero
    235c:	00000021 	move	zero,zero
    2360:	00000021 	move	zero,zero
    2364:	3c120aa1 	lui	s2,0xaa1
    2368:	36521dfb 	ori	s2,s2,0x1dfb
    236c:	00000000 	nop
    2370:	24140000 	li	s4,0
    2374:	1614224e 	bne	s0,s4,acb0 <inst_error>
    2378:	00000000 	nop
    237c:	00000000 	nop
    2380:	24150000 	li	s5,0
    2384:	1655224a 	bne	s2,s5,acb0 <inst_error>
    2388:	00000000 	nop
    238c:	00000000 	nop
    2390:	3c0cc037 	lui	t4,0xc037
    2394:	358c0a6b 	ori	t4,t4,0xa6b
    2398:	3c0de834 	lui	t5,0xe834
    239c:	35adc9ae 	ori	t5,t5,0xc9ae
    23a0:	24100000 	li	s0,0
    23a4:	10000011 	b	23ec <n34_bltz_test+0x23ec>
    23a8:	24120000 	li	s2,0
    23ac:	00000000 	nop
    23b0:	3c10c037 	lui	s0,0xc037
    23b4:	05000021 	bltz	t0,243c <n34_bltz_test+0x243c>
    23b8:	36100a6b 	ori	s0,s0,0xa6b
    23bc:	10000021 	b	2444 <n34_bltz_test+0x2444>
    23c0:	00000000 	nop
    23c4:	00000000 	nop
    23c8:	00000021 	move	zero,zero
    23cc:	00000021 	move	zero,zero
    23d0:	00000021 	move	zero,zero
    23d4:	00000021 	move	zero,zero
    23d8:	00000021 	move	zero,zero
    23dc:	00000021 	move	zero,zero
    23e0:	00000021 	move	zero,zero
    23e4:	00000021 	move	zero,zero
    23e8:	00000021 	move	zero,zero
    23ec:	3c083fd5 	lui	t0,0x3fd5
    23f0:	35081db4 	ori	t0,t0,0x1db4
    23f4:	0500ffee 	bltz	t0,23b0 <n34_bltz_test+0x23b0>
    23f8:	00000000 	nop
    23fc:	10000011 	b	2444 <n34_bltz_test+0x2444>
    2400:	00000000 	nop
    2404:	00000000 	nop
    2408:	00000021 	move	zero,zero
    240c:	00000021 	move	zero,zero
    2410:	00000021 	move	zero,zero
    2414:	00000021 	move	zero,zero
    2418:	00000021 	move	zero,zero
    241c:	00000021 	move	zero,zero
    2420:	00000021 	move	zero,zero
    2424:	00000021 	move	zero,zero
    2428:	00000021 	move	zero,zero
    242c:	00000021 	move	zero,zero
    2430:	00000021 	move	zero,zero
    2434:	00000021 	move	zero,zero
    2438:	00000021 	move	zero,zero
    243c:	3c12e834 	lui	s2,0xe834
    2440:	3652c9ae 	ori	s2,s2,0xc9ae
    2444:	00000000 	nop
    2448:	24140000 	li	s4,0
    244c:	16142218 	bne	s0,s4,acb0 <inst_error>
    2450:	00000000 	nop
    2454:	00000000 	nop
    2458:	24150000 	li	s5,0
    245c:	16552214 	bne	s2,s5,acb0 <inst_error>
    2460:	00000000 	nop
    2464:	00000000 	nop
    2468:	3c0cc42c 	lui	t4,0xc42c
    246c:	358c843a 	ori	t4,t4,0x843a
    2470:	3c0d0ced 	lui	t5,0xced
    2474:	35ad4500 	ori	t5,t5,0x4500
    2478:	24100000 	li	s0,0
    247c:	10000011 	b	24c4 <n34_bltz_test+0x24c4>
    2480:	24120000 	li	s2,0
    2484:	00000000 	nop
    2488:	3c10c42c 	lui	s0,0xc42c
    248c:	05000021 	bltz	t0,2514 <n34_bltz_test+0x2514>
    2490:	3610843a 	ori	s0,s0,0x843a
    2494:	10000021 	b	251c <n34_bltz_test+0x251c>
    2498:	00000000 	nop
    249c:	00000000 	nop
    24a0:	00000021 	move	zero,zero
    24a4:	00000021 	move	zero,zero
    24a8:	00000021 	move	zero,zero
    24ac:	00000021 	move	zero,zero
    24b0:	00000021 	move	zero,zero
    24b4:	00000021 	move	zero,zero
    24b8:	00000021 	move	zero,zero
    24bc:	00000021 	move	zero,zero
    24c0:	00000021 	move	zero,zero
    24c4:	3c083d30 	lui	t0,0x3d30
    24c8:	3508b3e0 	ori	t0,t0,0xb3e0
    24cc:	0500ffee 	bltz	t0,2488 <n34_bltz_test+0x2488>
    24d0:	00000000 	nop
    24d4:	10000011 	b	251c <n34_bltz_test+0x251c>
    24d8:	00000000 	nop
    24dc:	00000000 	nop
    24e0:	00000021 	move	zero,zero
    24e4:	00000021 	move	zero,zero
    24e8:	00000021 	move	zero,zero
    24ec:	00000021 	move	zero,zero
    24f0:	00000021 	move	zero,zero
    24f4:	00000021 	move	zero,zero
    24f8:	00000021 	move	zero,zero
    24fc:	00000021 	move	zero,zero
    2500:	00000021 	move	zero,zero
    2504:	00000021 	move	zero,zero
    2508:	00000021 	move	zero,zero
    250c:	00000021 	move	zero,zero
    2510:	00000021 	move	zero,zero
    2514:	3c120ced 	lui	s2,0xced
    2518:	36524500 	ori	s2,s2,0x4500
    251c:	00000000 	nop
    2520:	24140000 	li	s4,0
    2524:	161421e2 	bne	s0,s4,acb0 <inst_error>
    2528:	00000000 	nop
    252c:	00000000 	nop
    2530:	24150000 	li	s5,0
    2534:	165521de 	bne	s2,s5,acb0 <inst_error>
    2538:	00000000 	nop
    253c:	00000000 	nop
    2540:	3c0c3b65 	lui	t4,0x3b65
    2544:	358c7b4a 	ori	t4,t4,0x7b4a
    2548:	3c0dcf8a 	lui	t5,0xcf8a
    254c:	35ad96e8 	ori	t5,t5,0x96e8
    2550:	24100000 	li	s0,0
    2554:	10000011 	b	259c <n34_bltz_test+0x259c>
    2558:	24120000 	li	s2,0
    255c:	00000000 	nop
    2560:	3c103b65 	lui	s0,0x3b65
    2564:	05000021 	bltz	t0,25ec <n34_bltz_test+0x25ec>
    2568:	36107b4a 	ori	s0,s0,0x7b4a
    256c:	10000021 	b	25f4 <n34_bltz_test+0x25f4>
    2570:	00000000 	nop
    2574:	00000000 	nop
    2578:	00000021 	move	zero,zero
    257c:	00000021 	move	zero,zero
    2580:	00000021 	move	zero,zero
    2584:	00000021 	move	zero,zero
    2588:	00000021 	move	zero,zero
    258c:	00000021 	move	zero,zero
    2590:	00000021 	move	zero,zero
    2594:	00000021 	move	zero,zero
    2598:	00000021 	move	zero,zero
    259c:	3c08142f 	lui	t0,0x142f
    25a0:	350895b8 	ori	t0,t0,0x95b8
    25a4:	0500ffee 	bltz	t0,2560 <n34_bltz_test+0x2560>
    25a8:	00000000 	nop
    25ac:	10000011 	b	25f4 <n34_bltz_test+0x25f4>
    25b0:	00000000 	nop
    25b4:	00000000 	nop
    25b8:	00000021 	move	zero,zero
    25bc:	00000021 	move	zero,zero
    25c0:	00000021 	move	zero,zero
    25c4:	00000021 	move	zero,zero
    25c8:	00000021 	move	zero,zero
    25cc:	00000021 	move	zero,zero
    25d0:	00000021 	move	zero,zero
    25d4:	00000021 	move	zero,zero
    25d8:	00000021 	move	zero,zero
    25dc:	00000021 	move	zero,zero
    25e0:	00000021 	move	zero,zero
    25e4:	00000021 	move	zero,zero
    25e8:	00000021 	move	zero,zero
    25ec:	3c12cf8a 	lui	s2,0xcf8a
    25f0:	365296e8 	ori	s2,s2,0x96e8
    25f4:	00000000 	nop
    25f8:	24140000 	li	s4,0
    25fc:	161421ac 	bne	s0,s4,acb0 <inst_error>
    2600:	00000000 	nop
    2604:	00000000 	nop
    2608:	24150000 	li	s5,0
    260c:	165521a8 	bne	s2,s5,acb0 <inst_error>
    2610:	00000000 	nop
    2614:	00000000 	nop
    2618:	3c0c1a86 	lui	t4,0x1a86
    261c:	358c2b05 	ori	t4,t4,0x2b05
    2620:	3c0da43d 	lui	t5,0xa43d
    2624:	35adcd50 	ori	t5,t5,0xcd50
    2628:	24100000 	li	s0,0
    262c:	10000011 	b	2674 <n34_bltz_test+0x2674>
    2630:	24120000 	li	s2,0
    2634:	00000000 	nop
    2638:	3c101a86 	lui	s0,0x1a86
    263c:	05000021 	bltz	t0,26c4 <n34_bltz_test+0x26c4>
    2640:	36102b05 	ori	s0,s0,0x2b05
    2644:	10000021 	b	26cc <n34_bltz_test+0x26cc>
    2648:	00000000 	nop
    264c:	00000000 	nop
    2650:	00000021 	move	zero,zero
    2654:	00000021 	move	zero,zero
    2658:	00000021 	move	zero,zero
    265c:	00000021 	move	zero,zero
    2660:	00000021 	move	zero,zero
    2664:	00000021 	move	zero,zero
    2668:	00000021 	move	zero,zero
    266c:	00000021 	move	zero,zero
    2670:	00000021 	move	zero,zero
    2674:	3c084ebb 	lui	t0,0x4ebb
    2678:	35086310 	ori	t0,t0,0x6310
    267c:	0500ffee 	bltz	t0,2638 <n34_bltz_test+0x2638>
    2680:	00000000 	nop
    2684:	10000011 	b	26cc <n34_bltz_test+0x26cc>
    2688:	00000000 	nop
    268c:	00000000 	nop
    2690:	00000021 	move	zero,zero
    2694:	00000021 	move	zero,zero
    2698:	00000021 	move	zero,zero
    269c:	00000021 	move	zero,zero
    26a0:	00000021 	move	zero,zero
    26a4:	00000021 	move	zero,zero
    26a8:	00000021 	move	zero,zero
    26ac:	00000021 	move	zero,zero
    26b0:	00000021 	move	zero,zero
    26b4:	00000021 	move	zero,zero
    26b8:	00000021 	move	zero,zero
    26bc:	00000021 	move	zero,zero
    26c0:	00000021 	move	zero,zero
    26c4:	3c12a43d 	lui	s2,0xa43d
    26c8:	3652cd50 	ori	s2,s2,0xcd50
    26cc:	00000000 	nop
    26d0:	24140000 	li	s4,0
    26d4:	16142176 	bne	s0,s4,acb0 <inst_error>
    26d8:	00000000 	nop
    26dc:	00000000 	nop
    26e0:	24150000 	li	s5,0
    26e4:	16552172 	bne	s2,s5,acb0 <inst_error>
    26e8:	00000000 	nop
    26ec:	00000000 	nop
    26f0:	3c0ccca8 	lui	t4,0xcca8
    26f4:	358ca2cc 	ori	t4,t4,0xa2cc
    26f8:	3c0dbcb2 	lui	t5,0xbcb2
    26fc:	35ad7a30 	ori	t5,t5,0x7a30
    2700:	24100000 	li	s0,0
    2704:	10000011 	b	274c <n34_bltz_test+0x274c>
    2708:	24120000 	li	s2,0
    270c:	00000000 	nop
    2710:	3c10cca8 	lui	s0,0xcca8
    2714:	05000021 	bltz	t0,279c <n34_bltz_test+0x279c>
    2718:	3610a2cc 	ori	s0,s0,0xa2cc
    271c:	10000021 	b	27a4 <n34_bltz_test+0x27a4>
    2720:	00000000 	nop
    2724:	00000000 	nop
    2728:	00000021 	move	zero,zero
    272c:	00000021 	move	zero,zero
    2730:	00000021 	move	zero,zero
    2734:	00000021 	move	zero,zero
    2738:	00000021 	move	zero,zero
    273c:	00000021 	move	zero,zero
    2740:	00000021 	move	zero,zero
    2744:	00000021 	move	zero,zero
    2748:	00000021 	move	zero,zero
    274c:	3c08385c 	lui	t0,0x385c
    2750:	35089c98 	ori	t0,t0,0x9c98
    2754:	0500ffee 	bltz	t0,2710 <n34_bltz_test+0x2710>
    2758:	00000000 	nop
    275c:	10000011 	b	27a4 <n34_bltz_test+0x27a4>
    2760:	00000000 	nop
    2764:	00000000 	nop
    2768:	00000021 	move	zero,zero
    276c:	00000021 	move	zero,zero
    2770:	00000021 	move	zero,zero
    2774:	00000021 	move	zero,zero
    2778:	00000021 	move	zero,zero
    277c:	00000021 	move	zero,zero
    2780:	00000021 	move	zero,zero
    2784:	00000021 	move	zero,zero
    2788:	00000021 	move	zero,zero
    278c:	00000021 	move	zero,zero
    2790:	00000021 	move	zero,zero
    2794:	00000021 	move	zero,zero
    2798:	00000021 	move	zero,zero
    279c:	3c12bcb2 	lui	s2,0xbcb2
    27a0:	36527a30 	ori	s2,s2,0x7a30
    27a4:	00000000 	nop
    27a8:	24140000 	li	s4,0
    27ac:	16142140 	bne	s0,s4,acb0 <inst_error>
    27b0:	00000000 	nop
    27b4:	00000000 	nop
    27b8:	24150000 	li	s5,0
    27bc:	1655213c 	bne	s2,s5,acb0 <inst_error>
    27c0:	00000000 	nop
    27c4:	00000000 	nop
    27c8:	3c0cc030 	lui	t4,0xc030
    27cc:	358c6cba 	ori	t4,t4,0x6cba
    27d0:	3c0d115c 	lui	t5,0x115c
    27d4:	35ad2724 	ori	t5,t5,0x2724
    27d8:	24100000 	li	s0,0
    27dc:	10000011 	b	2824 <n34_bltz_test+0x2824>
    27e0:	24120000 	li	s2,0
    27e4:	00000000 	nop
    27e8:	3c10c030 	lui	s0,0xc030
    27ec:	05000021 	bltz	t0,2874 <n34_bltz_test+0x2874>
    27f0:	36106cba 	ori	s0,s0,0x6cba
    27f4:	10000021 	b	287c <n34_bltz_test+0x287c>
    27f8:	00000000 	nop
    27fc:	00000000 	nop
    2800:	00000021 	move	zero,zero
    2804:	00000021 	move	zero,zero
    2808:	00000021 	move	zero,zero
    280c:	00000021 	move	zero,zero
    2810:	00000021 	move	zero,zero
    2814:	00000021 	move	zero,zero
    2818:	00000021 	move	zero,zero
    281c:	00000021 	move	zero,zero
    2820:	00000021 	move	zero,zero
    2824:	3c080f97 	lui	t0,0xf97
    2828:	35084160 	ori	t0,t0,0x4160
    282c:	0500ffee 	bltz	t0,27e8 <n34_bltz_test+0x27e8>
    2830:	00000000 	nop
    2834:	10000011 	b	287c <n34_bltz_test+0x287c>
    2838:	00000000 	nop
    283c:	00000000 	nop
    2840:	00000021 	move	zero,zero
    2844:	00000021 	move	zero,zero
    2848:	00000021 	move	zero,zero
    284c:	00000021 	move	zero,zero
    2850:	00000021 	move	zero,zero
    2854:	00000021 	move	zero,zero
    2858:	00000021 	move	zero,zero
    285c:	00000021 	move	zero,zero
    2860:	00000021 	move	zero,zero
    2864:	00000021 	move	zero,zero
    2868:	00000021 	move	zero,zero
    286c:	00000021 	move	zero,zero
    2870:	00000021 	move	zero,zero
    2874:	3c12115c 	lui	s2,0x115c
    2878:	36522724 	ori	s2,s2,0x2724
    287c:	00000000 	nop
    2880:	24140000 	li	s4,0
    2884:	1614210a 	bne	s0,s4,acb0 <inst_error>
    2888:	00000000 	nop
    288c:	00000000 	nop
    2890:	24150000 	li	s5,0
    2894:	16552106 	bne	s2,s5,acb0 <inst_error>
    2898:	00000000 	nop
    289c:	00000000 	nop
    28a0:	3c0ca8e9 	lui	t4,0xa8e9
    28a4:	358c8e80 	ori	t4,t4,0x8e80
    28a8:	3c0df05a 	lui	t5,0xf05a
    28ac:	35ad67d4 	ori	t5,t5,0x67d4
    28b0:	24100000 	li	s0,0
    28b4:	10000011 	b	28fc <n34_bltz_test+0x28fc>
    28b8:	24120000 	li	s2,0
    28bc:	00000000 	nop
    28c0:	3c10a8e9 	lui	s0,0xa8e9
    28c4:	05000021 	bltz	t0,294c <n34_bltz_test+0x294c>
    28c8:	36108e80 	ori	s0,s0,0x8e80
    28cc:	10000021 	b	2954 <n34_bltz_test+0x2954>
    28d0:	00000000 	nop
    28d4:	00000000 	nop
    28d8:	00000021 	move	zero,zero
    28dc:	00000021 	move	zero,zero
    28e0:	00000021 	move	zero,zero
    28e4:	00000021 	move	zero,zero
    28e8:	00000021 	move	zero,zero
    28ec:	00000021 	move	zero,zero
    28f0:	00000021 	move	zero,zero
    28f4:	00000021 	move	zero,zero
    28f8:	00000021 	move	zero,zero
    28fc:	3c0805f4 	lui	t0,0x5f4
    2900:	3508e1d3 	ori	t0,t0,0xe1d3
    2904:	0500ffee 	bltz	t0,28c0 <n34_bltz_test+0x28c0>
    2908:	00000000 	nop
    290c:	10000011 	b	2954 <n34_bltz_test+0x2954>
    2910:	00000000 	nop
    2914:	00000000 	nop
    2918:	00000021 	move	zero,zero
    291c:	00000021 	move	zero,zero
    2920:	00000021 	move	zero,zero
    2924:	00000021 	move	zero,zero
    2928:	00000021 	move	zero,zero
    292c:	00000021 	move	zero,zero
    2930:	00000021 	move	zero,zero
    2934:	00000021 	move	zero,zero
    2938:	00000021 	move	zero,zero
    293c:	00000021 	move	zero,zero
    2940:	00000021 	move	zero,zero
    2944:	00000021 	move	zero,zero
    2948:	00000021 	move	zero,zero
    294c:	3c12f05a 	lui	s2,0xf05a
    2950:	365267d4 	ori	s2,s2,0x67d4
    2954:	00000000 	nop
    2958:	24140000 	li	s4,0
    295c:	161420d4 	bne	s0,s4,acb0 <inst_error>
    2960:	00000000 	nop
    2964:	00000000 	nop
    2968:	24150000 	li	s5,0
    296c:	165520d0 	bne	s2,s5,acb0 <inst_error>
    2970:	00000000 	nop
    2974:	00000000 	nop
    2978:	3c0cdc8a 	lui	t4,0xdc8a
    297c:	358cca06 	ori	t4,t4,0xca06
    2980:	3c0d9b1f 	lui	t5,0x9b1f
    2984:	35adc024 	ori	t5,t5,0xc024
    2988:	24100000 	li	s0,0
    298c:	10000011 	b	29d4 <n34_bltz_test+0x29d4>
    2990:	24120000 	li	s2,0
    2994:	00000000 	nop
    2998:	3c10dc8a 	lui	s0,0xdc8a
    299c:	05000021 	bltz	t0,2a24 <n34_bltz_test+0x2a24>
    29a0:	3610ca06 	ori	s0,s0,0xca06
    29a4:	10000021 	b	2a2c <n34_bltz_test+0x2a2c>
    29a8:	00000000 	nop
    29ac:	00000000 	nop
    29b0:	00000021 	move	zero,zero
    29b4:	00000021 	move	zero,zero
    29b8:	00000021 	move	zero,zero
    29bc:	00000021 	move	zero,zero
    29c0:	00000021 	move	zero,zero
    29c4:	00000021 	move	zero,zero
    29c8:	00000021 	move	zero,zero
    29cc:	00000021 	move	zero,zero
    29d0:	00000021 	move	zero,zero
    29d4:	3c085818 	lui	t0,0x5818
    29d8:	35085fe8 	ori	t0,t0,0x5fe8
    29dc:	0500ffee 	bltz	t0,2998 <n34_bltz_test+0x2998>
    29e0:	00000000 	nop
    29e4:	10000011 	b	2a2c <n34_bltz_test+0x2a2c>
    29e8:	00000000 	nop
    29ec:	00000000 	nop
    29f0:	00000021 	move	zero,zero
    29f4:	00000021 	move	zero,zero
    29f8:	00000021 	move	zero,zero
    29fc:	00000021 	move	zero,zero
    2a00:	00000021 	move	zero,zero
    2a04:	00000021 	move	zero,zero
    2a08:	00000021 	move	zero,zero
    2a0c:	00000021 	move	zero,zero
    2a10:	00000021 	move	zero,zero
    2a14:	00000021 	move	zero,zero
    2a18:	00000021 	move	zero,zero
    2a1c:	00000021 	move	zero,zero
    2a20:	00000021 	move	zero,zero
    2a24:	3c129b1f 	lui	s2,0x9b1f
    2a28:	3652c024 	ori	s2,s2,0xc024
    2a2c:	00000000 	nop
    2a30:	24140000 	li	s4,0
    2a34:	1614209e 	bne	s0,s4,acb0 <inst_error>
    2a38:	00000000 	nop
    2a3c:	00000000 	nop
    2a40:	24150000 	li	s5,0
    2a44:	1655209a 	bne	s2,s5,acb0 <inst_error>
    2a48:	00000000 	nop
    2a4c:	00000000 	nop
    2a50:	3c0c9c95 	lui	t4,0x9c95
    2a54:	358cc54e 	ori	t4,t4,0xc54e
    2a58:	3c0d4c8f 	lui	t5,0x4c8f
    2a5c:	35ad4d10 	ori	t5,t5,0x4d10
    2a60:	24100000 	li	s0,0
    2a64:	10000011 	b	2aac <n34_bltz_test+0x2aac>
    2a68:	24120000 	li	s2,0
    2a6c:	00000000 	nop
    2a70:	3c109c95 	lui	s0,0x9c95
    2a74:	05000021 	bltz	t0,2afc <n34_bltz_test+0x2afc>
    2a78:	3610c54e 	ori	s0,s0,0xc54e
    2a7c:	10000021 	b	2b04 <n34_bltz_test+0x2b04>
    2a80:	00000000 	nop
    2a84:	00000000 	nop
    2a88:	00000021 	move	zero,zero
    2a8c:	00000021 	move	zero,zero
    2a90:	00000021 	move	zero,zero
    2a94:	00000021 	move	zero,zero
    2a98:	00000021 	move	zero,zero
    2a9c:	00000021 	move	zero,zero
    2aa0:	00000021 	move	zero,zero
    2aa4:	00000021 	move	zero,zero
    2aa8:	00000021 	move	zero,zero
    2aac:	3c0876e4 	lui	t0,0x76e4
    2ab0:	35084284 	ori	t0,t0,0x4284
    2ab4:	0500ffee 	bltz	t0,2a70 <n34_bltz_test+0x2a70>
    2ab8:	00000000 	nop
    2abc:	10000011 	b	2b04 <n34_bltz_test+0x2b04>
    2ac0:	00000000 	nop
    2ac4:	00000000 	nop
    2ac8:	00000021 	move	zero,zero
    2acc:	00000021 	move	zero,zero
    2ad0:	00000021 	move	zero,zero
    2ad4:	00000021 	move	zero,zero
    2ad8:	00000021 	move	zero,zero
    2adc:	00000021 	move	zero,zero
    2ae0:	00000021 	move	zero,zero
    2ae4:	00000021 	move	zero,zero
    2ae8:	00000021 	move	zero,zero
    2aec:	00000021 	move	zero,zero
    2af0:	00000021 	move	zero,zero
    2af4:	00000021 	move	zero,zero
    2af8:	00000021 	move	zero,zero
    2afc:	3c124c8f 	lui	s2,0x4c8f
    2b00:	36524d10 	ori	s2,s2,0x4d10
    2b04:	00000000 	nop
    2b08:	24140000 	li	s4,0
    2b0c:	16142068 	bne	s0,s4,acb0 <inst_error>
    2b10:	00000000 	nop
    2b14:	00000000 	nop
    2b18:	24150000 	li	s5,0
    2b1c:	16552064 	bne	s2,s5,acb0 <inst_error>
    2b20:	00000000 	nop
    2b24:	00000000 	nop
    2b28:	3c0cf959 	lui	t4,0xf959
    2b2c:	358ca600 	ori	t4,t4,0xa600
    2b30:	3c0d3695 	lui	t5,0x3695
    2b34:	35adbd49 	ori	t5,t5,0xbd49
    2b38:	24100000 	li	s0,0
    2b3c:	10000011 	b	2b84 <n34_bltz_test+0x2b84>
    2b40:	24120000 	li	s2,0
    2b44:	00000000 	nop
    2b48:	3c10f959 	lui	s0,0xf959
    2b4c:	05000021 	bltz	t0,2bd4 <n34_bltz_test+0x2bd4>
    2b50:	3610a600 	ori	s0,s0,0xa600
    2b54:	10000021 	b	2bdc <n34_bltz_test+0x2bdc>
    2b58:	00000000 	nop
    2b5c:	00000000 	nop
    2b60:	00000021 	move	zero,zero
    2b64:	00000021 	move	zero,zero
    2b68:	00000021 	move	zero,zero
    2b6c:	00000021 	move	zero,zero
    2b70:	00000021 	move	zero,zero
    2b74:	00000021 	move	zero,zero
    2b78:	00000021 	move	zero,zero
    2b7c:	00000021 	move	zero,zero
    2b80:	00000021 	move	zero,zero
    2b84:	3c08ed95 	lui	t0,0xed95
    2b88:	35083f80 	ori	t0,t0,0x3f80
    2b8c:	0500ffee 	bltz	t0,2b48 <n34_bltz_test+0x2b48>
    2b90:	00000000 	nop
    2b94:	10000011 	b	2bdc <n34_bltz_test+0x2bdc>
    2b98:	00000000 	nop
    2b9c:	00000000 	nop
    2ba0:	00000021 	move	zero,zero
    2ba4:	00000021 	move	zero,zero
    2ba8:	00000021 	move	zero,zero
    2bac:	00000021 	move	zero,zero
    2bb0:	00000021 	move	zero,zero
    2bb4:	00000021 	move	zero,zero
    2bb8:	00000021 	move	zero,zero
    2bbc:	00000021 	move	zero,zero
    2bc0:	00000021 	move	zero,zero
    2bc4:	00000021 	move	zero,zero
    2bc8:	00000021 	move	zero,zero
    2bcc:	00000021 	move	zero,zero
    2bd0:	00000021 	move	zero,zero
    2bd4:	3c123695 	lui	s2,0x3695
    2bd8:	3652bd49 	ori	s2,s2,0xbd49
    2bdc:	00000000 	nop
    2be0:	3c14f959 	lui	s4,0xf959
    2be4:	3694a600 	ori	s4,s4,0xa600
    2be8:	16142031 	bne	s0,s4,acb0 <inst_error>
    2bec:	00000000 	nop
    2bf0:	00000000 	nop
    2bf4:	3c153695 	lui	s5,0x3695
    2bf8:	36b5bd49 	ori	s5,s5,0xbd49
    2bfc:	1655202c 	bne	s2,s5,acb0 <inst_error>
    2c00:	00000000 	nop
    2c04:	00000000 	nop
    2c08:	3c0c9b54 	lui	t4,0x9b54
    2c0c:	358c59cc 	ori	t4,t4,0x59cc
    2c10:	3c0d9e00 	lui	t5,0x9e00
    2c14:	35adac82 	ori	t5,t5,0xac82
    2c18:	24100000 	li	s0,0
    2c1c:	10000011 	b	2c64 <n34_bltz_test+0x2c64>
    2c20:	24120000 	li	s2,0
    2c24:	00000000 	nop
    2c28:	3c109b54 	lui	s0,0x9b54
    2c2c:	05000021 	bltz	t0,2cb4 <n34_bltz_test+0x2cb4>
    2c30:	361059cc 	ori	s0,s0,0x59cc
    2c34:	10000021 	b	2cbc <n34_bltz_test+0x2cbc>
    2c38:	00000000 	nop
    2c3c:	00000000 	nop
    2c40:	00000021 	move	zero,zero
    2c44:	00000021 	move	zero,zero
    2c48:	00000021 	move	zero,zero
    2c4c:	00000021 	move	zero,zero
    2c50:	00000021 	move	zero,zero
    2c54:	00000021 	move	zero,zero
    2c58:	00000021 	move	zero,zero
    2c5c:	00000021 	move	zero,zero
    2c60:	00000021 	move	zero,zero
    2c64:	3c0849f2 	lui	t0,0x49f2
    2c68:	35082705 	ori	t0,t0,0x2705
    2c6c:	0500ffee 	bltz	t0,2c28 <n34_bltz_test+0x2c28>
    2c70:	00000000 	nop
    2c74:	10000011 	b	2cbc <n34_bltz_test+0x2cbc>
    2c78:	00000000 	nop
    2c7c:	00000000 	nop
    2c80:	00000021 	move	zero,zero
    2c84:	00000021 	move	zero,zero
    2c88:	00000021 	move	zero,zero
    2c8c:	00000021 	move	zero,zero
    2c90:	00000021 	move	zero,zero
    2c94:	00000021 	move	zero,zero
    2c98:	00000021 	move	zero,zero
    2c9c:	00000021 	move	zero,zero
    2ca0:	00000021 	move	zero,zero
    2ca4:	00000021 	move	zero,zero
    2ca8:	00000021 	move	zero,zero
    2cac:	00000021 	move	zero,zero
    2cb0:	00000021 	move	zero,zero
    2cb4:	3c129e00 	lui	s2,0x9e00
    2cb8:	3652ac82 	ori	s2,s2,0xac82
    2cbc:	00000000 	nop
    2cc0:	24140000 	li	s4,0
    2cc4:	16141ffa 	bne	s0,s4,acb0 <inst_error>
    2cc8:	00000000 	nop
    2ccc:	00000000 	nop
    2cd0:	24150000 	li	s5,0
    2cd4:	16551ff6 	bne	s2,s5,acb0 <inst_error>
    2cd8:	00000000 	nop
    2cdc:	00000000 	nop
    2ce0:	3c0c234d 	lui	t4,0x234d
    2ce4:	358ca0c0 	ori	t4,t4,0xa0c0
    2ce8:	3c0dbcd7 	lui	t5,0xbcd7
    2cec:	35adf8dc 	ori	t5,t5,0xf8dc
    2cf0:	24100000 	li	s0,0
    2cf4:	10000011 	b	2d3c <n34_bltz_test+0x2d3c>
    2cf8:	24120000 	li	s2,0
    2cfc:	00000000 	nop
    2d00:	3c10234d 	lui	s0,0x234d
    2d04:	05000021 	bltz	t0,2d8c <n34_bltz_test+0x2d8c>
    2d08:	3610a0c0 	ori	s0,s0,0xa0c0
    2d0c:	10000021 	b	2d94 <n34_bltz_test+0x2d94>
    2d10:	00000000 	nop
    2d14:	00000000 	nop
    2d18:	00000021 	move	zero,zero
    2d1c:	00000021 	move	zero,zero
    2d20:	00000021 	move	zero,zero
    2d24:	00000021 	move	zero,zero
    2d28:	00000021 	move	zero,zero
    2d2c:	00000021 	move	zero,zero
    2d30:	00000021 	move	zero,zero
    2d34:	00000021 	move	zero,zero
    2d38:	00000021 	move	zero,zero
    2d3c:	3c086337 	lui	t0,0x6337
    2d40:	3508ad50 	ori	t0,t0,0xad50
    2d44:	0500ffee 	bltz	t0,2d00 <n34_bltz_test+0x2d00>
    2d48:	00000000 	nop
    2d4c:	10000011 	b	2d94 <n34_bltz_test+0x2d94>
    2d50:	00000000 	nop
    2d54:	00000000 	nop
    2d58:	00000021 	move	zero,zero
    2d5c:	00000021 	move	zero,zero
    2d60:	00000021 	move	zero,zero
    2d64:	00000021 	move	zero,zero
    2d68:	00000021 	move	zero,zero
    2d6c:	00000021 	move	zero,zero
    2d70:	00000021 	move	zero,zero
    2d74:	00000021 	move	zero,zero
    2d78:	00000021 	move	zero,zero
    2d7c:	00000021 	move	zero,zero
    2d80:	00000021 	move	zero,zero
    2d84:	00000021 	move	zero,zero
    2d88:	00000021 	move	zero,zero
    2d8c:	3c12bcd7 	lui	s2,0xbcd7
    2d90:	3652f8dc 	ori	s2,s2,0xf8dc
    2d94:	00000000 	nop
    2d98:	24140000 	li	s4,0
    2d9c:	16141fc4 	bne	s0,s4,acb0 <inst_error>
    2da0:	00000000 	nop
    2da4:	00000000 	nop
    2da8:	24150000 	li	s5,0
    2dac:	16551fc0 	bne	s2,s5,acb0 <inst_error>
    2db0:	00000000 	nop
    2db4:	00000000 	nop
    2db8:	3c0c0fb6 	lui	t4,0xfb6
    2dbc:	358ca53c 	ori	t4,t4,0xa53c
    2dc0:	3c0dbe70 	lui	t5,0xbe70
    2dc4:	35ad9a00 	ori	t5,t5,0x9a00
    2dc8:	24100000 	li	s0,0
    2dcc:	10000011 	b	2e14 <n34_bltz_test+0x2e14>
    2dd0:	24120000 	li	s2,0
    2dd4:	00000000 	nop
    2dd8:	3c100fb6 	lui	s0,0xfb6
    2ddc:	05000021 	bltz	t0,2e64 <n34_bltz_test+0x2e64>
    2de0:	3610a53c 	ori	s0,s0,0xa53c
    2de4:	10000021 	b	2e6c <n34_bltz_test+0x2e6c>
    2de8:	00000000 	nop
    2dec:	00000000 	nop
    2df0:	00000021 	move	zero,zero
    2df4:	00000021 	move	zero,zero
    2df8:	00000021 	move	zero,zero
    2dfc:	00000021 	move	zero,zero
    2e00:	00000021 	move	zero,zero
    2e04:	00000021 	move	zero,zero
    2e08:	00000021 	move	zero,zero
    2e0c:	00000021 	move	zero,zero
    2e10:	00000021 	move	zero,zero
    2e14:	3c089c2d 	lui	t0,0x9c2d
    2e18:	35082880 	ori	t0,t0,0x2880
    2e1c:	0500ffee 	bltz	t0,2dd8 <n34_bltz_test+0x2dd8>
    2e20:	00000000 	nop
    2e24:	10000011 	b	2e6c <n34_bltz_test+0x2e6c>
    2e28:	00000000 	nop
    2e2c:	00000000 	nop
    2e30:	00000021 	move	zero,zero
    2e34:	00000021 	move	zero,zero
    2e38:	00000021 	move	zero,zero
    2e3c:	00000021 	move	zero,zero
    2e40:	00000021 	move	zero,zero
    2e44:	00000021 	move	zero,zero
    2e48:	00000021 	move	zero,zero
    2e4c:	00000021 	move	zero,zero
    2e50:	00000021 	move	zero,zero
    2e54:	00000021 	move	zero,zero
    2e58:	00000021 	move	zero,zero
    2e5c:	00000021 	move	zero,zero
    2e60:	00000021 	move	zero,zero
    2e64:	3c12be70 	lui	s2,0xbe70
    2e68:	36529a00 	ori	s2,s2,0x9a00
    2e6c:	00000000 	nop
    2e70:	3c140fb6 	lui	s4,0xfb6
    2e74:	3694a53c 	ori	s4,s4,0xa53c
    2e78:	16141f8d 	bne	s0,s4,acb0 <inst_error>
    2e7c:	00000000 	nop
    2e80:	00000000 	nop
    2e84:	3c15be70 	lui	s5,0xbe70
    2e88:	36b59a00 	ori	s5,s5,0x9a00
    2e8c:	16551f88 	bne	s2,s5,acb0 <inst_error>
    2e90:	00000000 	nop
    2e94:	00000000 	nop
    2e98:	3c0c7655 	lui	t4,0x7655
    2e9c:	358c2200 	ori	t4,t4,0x2200
    2ea0:	3c0d71de 	lui	t5,0x71de
    2ea4:	35adf7ea 	ori	t5,t5,0xf7ea
    2ea8:	24100000 	li	s0,0
    2eac:	10000011 	b	2ef4 <n34_bltz_test+0x2ef4>
    2eb0:	24120000 	li	s2,0
    2eb4:	00000000 	nop
    2eb8:	3c107655 	lui	s0,0x7655
    2ebc:	05000021 	bltz	t0,2f44 <n34_bltz_test+0x2f44>
    2ec0:	36102200 	ori	s0,s0,0x2200
    2ec4:	10000021 	b	2f4c <n34_bltz_test+0x2f4c>
    2ec8:	00000000 	nop
    2ecc:	00000000 	nop
    2ed0:	00000021 	move	zero,zero
    2ed4:	00000021 	move	zero,zero
    2ed8:	00000021 	move	zero,zero
    2edc:	00000021 	move	zero,zero
    2ee0:	00000021 	move	zero,zero
    2ee4:	00000021 	move	zero,zero
    2ee8:	00000021 	move	zero,zero
    2eec:	00000021 	move	zero,zero
    2ef0:	00000021 	move	zero,zero
    2ef4:	3c089c28 	lui	t0,0x9c28
    2ef8:	35085348 	ori	t0,t0,0x5348
    2efc:	0500ffee 	bltz	t0,2eb8 <n34_bltz_test+0x2eb8>
    2f00:	00000000 	nop
    2f04:	10000011 	b	2f4c <n34_bltz_test+0x2f4c>
    2f08:	00000000 	nop
    2f0c:	00000000 	nop
    2f10:	00000021 	move	zero,zero
    2f14:	00000021 	move	zero,zero
    2f18:	00000021 	move	zero,zero
    2f1c:	00000021 	move	zero,zero
    2f20:	00000021 	move	zero,zero
    2f24:	00000021 	move	zero,zero
    2f28:	00000021 	move	zero,zero
    2f2c:	00000021 	move	zero,zero
    2f30:	00000021 	move	zero,zero
    2f34:	00000021 	move	zero,zero
    2f38:	00000021 	move	zero,zero
    2f3c:	00000021 	move	zero,zero
    2f40:	00000021 	move	zero,zero
    2f44:	3c1271de 	lui	s2,0x71de
    2f48:	3652f7ea 	ori	s2,s2,0xf7ea
    2f4c:	00000000 	nop
    2f50:	3c147655 	lui	s4,0x7655
    2f54:	36942200 	ori	s4,s4,0x2200
    2f58:	16141f55 	bne	s0,s4,acb0 <inst_error>
    2f5c:	00000000 	nop
    2f60:	00000000 	nop
    2f64:	3c1571de 	lui	s5,0x71de
    2f68:	36b5f7ea 	ori	s5,s5,0xf7ea
    2f6c:	16551f50 	bne	s2,s5,acb0 <inst_error>
    2f70:	00000000 	nop
    2f74:	00000000 	nop
    2f78:	3c0cb968 	lui	t4,0xb968
    2f7c:	358ccad0 	ori	t4,t4,0xcad0
    2f80:	3c0d3baa 	lui	t5,0x3baa
    2f84:	35ad7f58 	ori	t5,t5,0x7f58
    2f88:	24100000 	li	s0,0
    2f8c:	10000011 	b	2fd4 <n34_bltz_test+0x2fd4>
    2f90:	24120000 	li	s2,0
    2f94:	00000000 	nop
    2f98:	3c10b968 	lui	s0,0xb968
    2f9c:	05000021 	bltz	t0,3024 <n34_bltz_test+0x3024>
    2fa0:	3610cad0 	ori	s0,s0,0xcad0
    2fa4:	10000021 	b	302c <n34_bltz_test+0x302c>
    2fa8:	00000000 	nop
    2fac:	00000000 	nop
    2fb0:	00000021 	move	zero,zero
    2fb4:	00000021 	move	zero,zero
    2fb8:	00000021 	move	zero,zero
    2fbc:	00000021 	move	zero,zero
    2fc0:	00000021 	move	zero,zero
    2fc4:	00000021 	move	zero,zero
    2fc8:	00000021 	move	zero,zero
    2fcc:	00000021 	move	zero,zero
    2fd0:	00000021 	move	zero,zero
    2fd4:	3c08cf6e 	lui	t0,0xcf6e
    2fd8:	35083cec 	ori	t0,t0,0x3cec
    2fdc:	0500ffee 	bltz	t0,2f98 <n34_bltz_test+0x2f98>
    2fe0:	00000000 	nop
    2fe4:	10000011 	b	302c <n34_bltz_test+0x302c>
    2fe8:	00000000 	nop
    2fec:	00000000 	nop
    2ff0:	00000021 	move	zero,zero
    2ff4:	00000021 	move	zero,zero
    2ff8:	00000021 	move	zero,zero
    2ffc:	00000021 	move	zero,zero
    3000:	00000021 	move	zero,zero
    3004:	00000021 	move	zero,zero
    3008:	00000021 	move	zero,zero
    300c:	00000021 	move	zero,zero
    3010:	00000021 	move	zero,zero
    3014:	00000021 	move	zero,zero
    3018:	00000021 	move	zero,zero
    301c:	00000021 	move	zero,zero
    3020:	00000021 	move	zero,zero
    3024:	3c123baa 	lui	s2,0x3baa
    3028:	36527f58 	ori	s2,s2,0x7f58
    302c:	00000000 	nop
    3030:	3c14b968 	lui	s4,0xb968
    3034:	3694cad0 	ori	s4,s4,0xcad0
    3038:	16141f1d 	bne	s0,s4,acb0 <inst_error>
    303c:	00000000 	nop
    3040:	00000000 	nop
    3044:	3c153baa 	lui	s5,0x3baa
    3048:	36b57f58 	ori	s5,s5,0x7f58
    304c:	16551f18 	bne	s2,s5,acb0 <inst_error>
    3050:	00000000 	nop
    3054:	00000000 	nop
    3058:	3c0c5a41 	lui	t4,0x5a41
    305c:	358c7840 	ori	t4,t4,0x7840
    3060:	3c0d5194 	lui	t5,0x5194
    3064:	35ad0d88 	ori	t5,t5,0xd88
    3068:	24100000 	li	s0,0
    306c:	10000011 	b	30b4 <n34_bltz_test+0x30b4>
    3070:	24120000 	li	s2,0
    3074:	00000000 	nop
    3078:	3c105a41 	lui	s0,0x5a41
    307c:	05000021 	bltz	t0,3104 <n34_bltz_test+0x3104>
    3080:	36107840 	ori	s0,s0,0x7840
    3084:	10000021 	b	310c <n34_bltz_test+0x310c>
    3088:	00000000 	nop
    308c:	00000000 	nop
    3090:	00000021 	move	zero,zero
    3094:	00000021 	move	zero,zero
    3098:	00000021 	move	zero,zero
    309c:	00000021 	move	zero,zero
    30a0:	00000021 	move	zero,zero
    30a4:	00000021 	move	zero,zero
    30a8:	00000021 	move	zero,zero
    30ac:	00000021 	move	zero,zero
    30b0:	00000021 	move	zero,zero
    30b4:	3c08ab3c 	lui	t0,0xab3c
    30b8:	3508a7e0 	ori	t0,t0,0xa7e0
    30bc:	0500ffee 	bltz	t0,3078 <n34_bltz_test+0x3078>
    30c0:	00000000 	nop
    30c4:	10000011 	b	310c <n34_bltz_test+0x310c>
    30c8:	00000000 	nop
    30cc:	00000000 	nop
    30d0:	00000021 	move	zero,zero
    30d4:	00000021 	move	zero,zero
    30d8:	00000021 	move	zero,zero
    30dc:	00000021 	move	zero,zero
    30e0:	00000021 	move	zero,zero
    30e4:	00000021 	move	zero,zero
    30e8:	00000021 	move	zero,zero
    30ec:	00000021 	move	zero,zero
    30f0:	00000021 	move	zero,zero
    30f4:	00000021 	move	zero,zero
    30f8:	00000021 	move	zero,zero
    30fc:	00000021 	move	zero,zero
    3100:	00000021 	move	zero,zero
    3104:	3c125194 	lui	s2,0x5194
    3108:	36520d88 	ori	s2,s2,0xd88
    310c:	00000000 	nop
    3110:	3c145a41 	lui	s4,0x5a41
    3114:	36947840 	ori	s4,s4,0x7840
    3118:	16141ee5 	bne	s0,s4,acb0 <inst_error>
    311c:	00000000 	nop
    3120:	00000000 	nop
    3124:	3c155194 	lui	s5,0x5194
    3128:	36b50d88 	ori	s5,s5,0xd88
    312c:	16551ee0 	bne	s2,s5,acb0 <inst_error>
    3130:	00000000 	nop
    3134:	00000000 	nop
    3138:	3c0cd8f3 	lui	t4,0xd8f3
    313c:	358ca680 	ori	t4,t4,0xa680
    3140:	3c0d49c5 	lui	t5,0x49c5
    3144:	35adfb92 	ori	t5,t5,0xfb92
    3148:	24100000 	li	s0,0
    314c:	10000011 	b	3194 <n34_bltz_test+0x3194>
    3150:	24120000 	li	s2,0
    3154:	00000000 	nop
    3158:	3c10d8f3 	lui	s0,0xd8f3
    315c:	05000021 	bltz	t0,31e4 <n34_bltz_test+0x31e4>
    3160:	3610a680 	ori	s0,s0,0xa680
    3164:	10000021 	b	31ec <n34_bltz_test+0x31ec>
    3168:	00000000 	nop
    316c:	00000000 	nop
    3170:	00000021 	move	zero,zero
    3174:	00000021 	move	zero,zero
    3178:	00000021 	move	zero,zero
    317c:	00000021 	move	zero,zero
    3180:	00000021 	move	zero,zero
    3184:	00000021 	move	zero,zero
    3188:	00000021 	move	zero,zero
    318c:	00000021 	move	zero,zero
    3190:	00000021 	move	zero,zero
    3194:	3c0885ed 	lui	t0,0x85ed
    3198:	35088d20 	ori	t0,t0,0x8d20
    319c:	0500ffee 	bltz	t0,3158 <n34_bltz_test+0x3158>
    31a0:	00000000 	nop
    31a4:	10000011 	b	31ec <n34_bltz_test+0x31ec>
    31a8:	00000000 	nop
    31ac:	00000000 	nop
    31b0:	00000021 	move	zero,zero
    31b4:	00000021 	move	zero,zero
    31b8:	00000021 	move	zero,zero
    31bc:	00000021 	move	zero,zero
    31c0:	00000021 	move	zero,zero
    31c4:	00000021 	move	zero,zero
    31c8:	00000021 	move	zero,zero
    31cc:	00000021 	move	zero,zero
    31d0:	00000021 	move	zero,zero
    31d4:	00000021 	move	zero,zero
    31d8:	00000021 	move	zero,zero
    31dc:	00000021 	move	zero,zero
    31e0:	00000021 	move	zero,zero
    31e4:	3c1249c5 	lui	s2,0x49c5
    31e8:	3652fb92 	ori	s2,s2,0xfb92
    31ec:	00000000 	nop
    31f0:	3c14d8f3 	lui	s4,0xd8f3
    31f4:	3694a680 	ori	s4,s4,0xa680
    31f8:	16141ead 	bne	s0,s4,acb0 <inst_error>
    31fc:	00000000 	nop
    3200:	00000000 	nop
    3204:	3c1549c5 	lui	s5,0x49c5
    3208:	36b5fb92 	ori	s5,s5,0xfb92
    320c:	16551ea8 	bne	s2,s5,acb0 <inst_error>
    3210:	00000000 	nop
    3214:	00000000 	nop
    3218:	3c0c751d 	lui	t4,0x751d
    321c:	358c23bc 	ori	t4,t4,0x23bc
    3220:	3c0d18b9 	lui	t5,0x18b9
    3224:	35adaa1c 	ori	t5,t5,0xaa1c
    3228:	24100000 	li	s0,0
    322c:	10000011 	b	3274 <n34_bltz_test+0x3274>
    3230:	24120000 	li	s2,0
    3234:	00000000 	nop
    3238:	3c10751d 	lui	s0,0x751d
    323c:	05000021 	bltz	t0,32c4 <n34_bltz_test+0x32c4>
    3240:	361023bc 	ori	s0,s0,0x23bc
    3244:	10000021 	b	32cc <n34_bltz_test+0x32cc>
    3248:	00000000 	nop
    324c:	00000000 	nop
    3250:	00000021 	move	zero,zero
    3254:	00000021 	move	zero,zero
    3258:	00000021 	move	zero,zero
    325c:	00000021 	move	zero,zero
    3260:	00000021 	move	zero,zero
    3264:	00000021 	move	zero,zero
    3268:	00000021 	move	zero,zero
    326c:	00000021 	move	zero,zero
    3270:	00000021 	move	zero,zero
    3274:	3c08d5a7 	lui	t0,0xd5a7
    3278:	350819d8 	ori	t0,t0,0x19d8
    327c:	0500ffee 	bltz	t0,3238 <n34_bltz_test+0x3238>
    3280:	00000000 	nop
    3284:	10000011 	b	32cc <n34_bltz_test+0x32cc>
    3288:	00000000 	nop
    328c:	00000000 	nop
    3290:	00000021 	move	zero,zero
    3294:	00000021 	move	zero,zero
    3298:	00000021 	move	zero,zero
    329c:	00000021 	move	zero,zero
    32a0:	00000021 	move	zero,zero
    32a4:	00000021 	move	zero,zero
    32a8:	00000021 	move	zero,zero
    32ac:	00000021 	move	zero,zero
    32b0:	00000021 	move	zero,zero
    32b4:	00000021 	move	zero,zero
    32b8:	00000021 	move	zero,zero
    32bc:	00000021 	move	zero,zero
    32c0:	00000021 	move	zero,zero
    32c4:	3c1218b9 	lui	s2,0x18b9
    32c8:	3652aa1c 	ori	s2,s2,0xaa1c
    32cc:	00000000 	nop
    32d0:	3c14751d 	lui	s4,0x751d
    32d4:	369423bc 	ori	s4,s4,0x23bc
    32d8:	16141e75 	bne	s0,s4,acb0 <inst_error>
    32dc:	00000000 	nop
    32e0:	00000000 	nop
    32e4:	3c1518b9 	lui	s5,0x18b9
    32e8:	36b5aa1c 	ori	s5,s5,0xaa1c
    32ec:	16551e70 	bne	s2,s5,acb0 <inst_error>
    32f0:	00000000 	nop
    32f4:	00000000 	nop
    32f8:	3c0c442e 	lui	t4,0x442e
    32fc:	358cf2d8 	ori	t4,t4,0xf2d8
    3300:	3c0dc490 	lui	t5,0xc490
    3304:	35ad25b4 	ori	t5,t5,0x25b4
    3308:	24100000 	li	s0,0
    330c:	10000011 	b	3354 <n34_bltz_test+0x3354>
    3310:	24120000 	li	s2,0
    3314:	00000000 	nop
    3318:	3c10442e 	lui	s0,0x442e
    331c:	05000021 	bltz	t0,33a4 <n34_bltz_test+0x33a4>
    3320:	3610f2d8 	ori	s0,s0,0xf2d8
    3324:	10000021 	b	33ac <n34_bltz_test+0x33ac>
    3328:	00000000 	nop
    332c:	00000000 	nop
    3330:	00000021 	move	zero,zero
    3334:	00000021 	move	zero,zero
    3338:	00000021 	move	zero,zero
    333c:	00000021 	move	zero,zero
    3340:	00000021 	move	zero,zero
    3344:	00000021 	move	zero,zero
    3348:	00000021 	move	zero,zero
    334c:	00000021 	move	zero,zero
    3350:	00000021 	move	zero,zero
    3354:	3c086af7 	lui	t0,0x6af7
    3358:	35081036 	ori	t0,t0,0x1036
    335c:	0500ffee 	bltz	t0,3318 <n34_bltz_test+0x3318>
    3360:	00000000 	nop
    3364:	10000011 	b	33ac <n34_bltz_test+0x33ac>
    3368:	00000000 	nop
    336c:	00000000 	nop
    3370:	00000021 	move	zero,zero
    3374:	00000021 	move	zero,zero
    3378:	00000021 	move	zero,zero
    337c:	00000021 	move	zero,zero
    3380:	00000021 	move	zero,zero
    3384:	00000021 	move	zero,zero
    3388:	00000021 	move	zero,zero
    338c:	00000021 	move	zero,zero
    3390:	00000021 	move	zero,zero
    3394:	00000021 	move	zero,zero
    3398:	00000021 	move	zero,zero
    339c:	00000021 	move	zero,zero
    33a0:	00000021 	move	zero,zero
    33a4:	3c12c490 	lui	s2,0xc490
    33a8:	365225b4 	ori	s2,s2,0x25b4
    33ac:	00000000 	nop
    33b0:	24140000 	li	s4,0
    33b4:	16141e3e 	bne	s0,s4,acb0 <inst_error>
    33b8:	00000000 	nop
    33bc:	00000000 	nop
    33c0:	24150000 	li	s5,0
    33c4:	16551e3a 	bne	s2,s5,acb0 <inst_error>
    33c8:	00000000 	nop
    33cc:	00000000 	nop
    33d0:	3c0c0191 	lui	t4,0x191
    33d4:	358ce080 	ori	t4,t4,0xe080
    33d8:	3c0d642e 	lui	t5,0x642e
    33dc:	35ad4740 	ori	t5,t5,0x4740
    33e0:	24100000 	li	s0,0
    33e4:	10000011 	b	342c <n34_bltz_test+0x342c>
    33e8:	24120000 	li	s2,0
    33ec:	00000000 	nop
    33f0:	3c100191 	lui	s0,0x191
    33f4:	05000021 	bltz	t0,347c <n34_bltz_test+0x347c>
    33f8:	3610e080 	ori	s0,s0,0xe080
    33fc:	10000021 	b	3484 <n34_bltz_test+0x3484>
    3400:	00000000 	nop
    3404:	00000000 	nop
    3408:	00000021 	move	zero,zero
    340c:	00000021 	move	zero,zero
    3410:	00000021 	move	zero,zero
    3414:	00000021 	move	zero,zero
    3418:	00000021 	move	zero,zero
    341c:	00000021 	move	zero,zero
    3420:	00000021 	move	zero,zero
    3424:	00000021 	move	zero,zero
    3428:	00000021 	move	zero,zero
    342c:	3c08ea96 	lui	t0,0xea96
    3430:	35082a7c 	ori	t0,t0,0x2a7c
    3434:	0500ffee 	bltz	t0,33f0 <n34_bltz_test+0x33f0>
    3438:	00000000 	nop
    343c:	10000011 	b	3484 <n34_bltz_test+0x3484>
    3440:	00000000 	nop
    3444:	00000000 	nop
    3448:	00000021 	move	zero,zero
    344c:	00000021 	move	zero,zero
    3450:	00000021 	move	zero,zero
    3454:	00000021 	move	zero,zero
    3458:	00000021 	move	zero,zero
    345c:	00000021 	move	zero,zero
    3460:	00000021 	move	zero,zero
    3464:	00000021 	move	zero,zero
    3468:	00000021 	move	zero,zero
    346c:	00000021 	move	zero,zero
    3470:	00000021 	move	zero,zero
    3474:	00000021 	move	zero,zero
    3478:	00000021 	move	zero,zero
    347c:	3c12642e 	lui	s2,0x642e
    3480:	36524740 	ori	s2,s2,0x4740
    3484:	00000000 	nop
    3488:	3c140191 	lui	s4,0x191
    348c:	3694e080 	ori	s4,s4,0xe080
    3490:	16141e07 	bne	s0,s4,acb0 <inst_error>
    3494:	00000000 	nop
    3498:	00000000 	nop
    349c:	3c15642e 	lui	s5,0x642e
    34a0:	36b54740 	ori	s5,s5,0x4740
    34a4:	16551e02 	bne	s2,s5,acb0 <inst_error>
    34a8:	00000000 	nop
    34ac:	00000000 	nop
    34b0:	3c0ce5ab 	lui	t4,0xe5ab
    34b4:	358c6ce8 	ori	t4,t4,0x6ce8
    34b8:	3c0d6acc 	lui	t5,0x6acc
    34bc:	35ad6cd0 	ori	t5,t5,0x6cd0
    34c0:	24100000 	li	s0,0
    34c4:	10000011 	b	350c <n34_bltz_test+0x350c>
    34c8:	24120000 	li	s2,0
    34cc:	00000000 	nop
    34d0:	3c10e5ab 	lui	s0,0xe5ab
    34d4:	05000021 	bltz	t0,355c <n34_bltz_test+0x355c>
    34d8:	36106ce8 	ori	s0,s0,0x6ce8
    34dc:	10000021 	b	3564 <n34_bltz_test+0x3564>
    34e0:	00000000 	nop
    34e4:	00000000 	nop
    34e8:	00000021 	move	zero,zero
    34ec:	00000021 	move	zero,zero
    34f0:	00000021 	move	zero,zero
    34f4:	00000021 	move	zero,zero
    34f8:	00000021 	move	zero,zero
    34fc:	00000021 	move	zero,zero
    3500:	00000021 	move	zero,zero
    3504:	00000021 	move	zero,zero
    3508:	00000021 	move	zero,zero
    350c:	3c0847ae 	lui	t0,0x47ae
    3510:	3508c030 	ori	t0,t0,0xc030
    3514:	0500ffee 	bltz	t0,34d0 <n34_bltz_test+0x34d0>
    3518:	00000000 	nop
    351c:	10000011 	b	3564 <n34_bltz_test+0x3564>
    3520:	00000000 	nop
    3524:	00000000 	nop
    3528:	00000021 	move	zero,zero
    352c:	00000021 	move	zero,zero
    3530:	00000021 	move	zero,zero
    3534:	00000021 	move	zero,zero
    3538:	00000021 	move	zero,zero
    353c:	00000021 	move	zero,zero
    3540:	00000021 	move	zero,zero
    3544:	00000021 	move	zero,zero
    3548:	00000021 	move	zero,zero
    354c:	00000021 	move	zero,zero
    3550:	00000021 	move	zero,zero
    3554:	00000021 	move	zero,zero
    3558:	00000021 	move	zero,zero
    355c:	3c126acc 	lui	s2,0x6acc
    3560:	36526cd0 	ori	s2,s2,0x6cd0
    3564:	00000000 	nop
    3568:	24140000 	li	s4,0
    356c:	16141dd0 	bne	s0,s4,acb0 <inst_error>
    3570:	00000000 	nop
    3574:	00000000 	nop
    3578:	24150000 	li	s5,0
    357c:	16551dcc 	bne	s2,s5,acb0 <inst_error>
    3580:	00000000 	nop
    3584:	00000000 	nop
    3588:	3c0c1e23 	lui	t4,0x1e23
    358c:	358c78ee 	ori	t4,t4,0x78ee
    3590:	3c0d127c 	lui	t5,0x127c
    3594:	35adcd50 	ori	t5,t5,0xcd50
    3598:	24100000 	li	s0,0
    359c:	10000011 	b	35e4 <n34_bltz_test+0x35e4>
    35a0:	24120000 	li	s2,0
    35a4:	00000000 	nop
    35a8:	3c101e23 	lui	s0,0x1e23
    35ac:	05000021 	bltz	t0,3634 <n34_bltz_test+0x3634>
    35b0:	361078ee 	ori	s0,s0,0x78ee
    35b4:	10000021 	b	363c <n34_bltz_test+0x363c>
    35b8:	00000000 	nop
    35bc:	00000000 	nop
    35c0:	00000021 	move	zero,zero
    35c4:	00000021 	move	zero,zero
    35c8:	00000021 	move	zero,zero
    35cc:	00000021 	move	zero,zero
    35d0:	00000021 	move	zero,zero
    35d4:	00000021 	move	zero,zero
    35d8:	00000021 	move	zero,zero
    35dc:	00000021 	move	zero,zero
    35e0:	00000021 	move	zero,zero
    35e4:	3c08f3a9 	lui	t0,0xf3a9
    35e8:	350848e6 	ori	t0,t0,0x48e6
    35ec:	0500ffee 	bltz	t0,35a8 <n34_bltz_test+0x35a8>
    35f0:	00000000 	nop
    35f4:	10000011 	b	363c <n34_bltz_test+0x363c>
    35f8:	00000000 	nop
    35fc:	00000000 	nop
    3600:	00000021 	move	zero,zero
    3604:	00000021 	move	zero,zero
    3608:	00000021 	move	zero,zero
    360c:	00000021 	move	zero,zero
    3610:	00000021 	move	zero,zero
    3614:	00000021 	move	zero,zero
    3618:	00000021 	move	zero,zero
    361c:	00000021 	move	zero,zero
    3620:	00000021 	move	zero,zero
    3624:	00000021 	move	zero,zero
    3628:	00000021 	move	zero,zero
    362c:	00000021 	move	zero,zero
    3630:	00000021 	move	zero,zero
    3634:	3c12127c 	lui	s2,0x127c
    3638:	3652cd50 	ori	s2,s2,0xcd50
    363c:	00000000 	nop
    3640:	3c141e23 	lui	s4,0x1e23
    3644:	369478ee 	ori	s4,s4,0x78ee
    3648:	16141d99 	bne	s0,s4,acb0 <inst_error>
    364c:	00000000 	nop
    3650:	00000000 	nop
    3654:	3c15127c 	lui	s5,0x127c
    3658:	36b5cd50 	ori	s5,s5,0xcd50
    365c:	16551d94 	bne	s2,s5,acb0 <inst_error>
    3660:	00000000 	nop
    3664:	00000000 	nop
    3668:	3c0c41f8 	lui	t4,0x41f8
    366c:	358cf4b8 	ori	t4,t4,0xf4b8
    3670:	3c0de980 	lui	t5,0xe980
    3674:	35adda38 	ori	t5,t5,0xda38
    3678:	24100000 	li	s0,0
    367c:	10000011 	b	36c4 <n34_bltz_test+0x36c4>
    3680:	24120000 	li	s2,0
    3684:	00000000 	nop
    3688:	3c1041f8 	lui	s0,0x41f8
    368c:	05000021 	bltz	t0,3714 <n34_bltz_test+0x3714>
    3690:	3610f4b8 	ori	s0,s0,0xf4b8
    3694:	10000021 	b	371c <n34_bltz_test+0x371c>
    3698:	00000000 	nop
    369c:	00000000 	nop
    36a0:	00000021 	move	zero,zero
    36a4:	00000021 	move	zero,zero
    36a8:	00000021 	move	zero,zero
    36ac:	00000021 	move	zero,zero
    36b0:	00000021 	move	zero,zero
    36b4:	00000021 	move	zero,zero
    36b8:	00000021 	move	zero,zero
    36bc:	00000021 	move	zero,zero
    36c0:	00000021 	move	zero,zero
    36c4:	3c084e07 	lui	t0,0x4e07
    36c8:	35089da0 	ori	t0,t0,0x9da0
    36cc:	0500ffee 	bltz	t0,3688 <n34_bltz_test+0x3688>
    36d0:	00000000 	nop
    36d4:	10000011 	b	371c <n34_bltz_test+0x371c>
    36d8:	00000000 	nop
    36dc:	00000000 	nop
    36e0:	00000021 	move	zero,zero
    36e4:	00000021 	move	zero,zero
    36e8:	00000021 	move	zero,zero
    36ec:	00000021 	move	zero,zero
    36f0:	00000021 	move	zero,zero
    36f4:	00000021 	move	zero,zero
    36f8:	00000021 	move	zero,zero
    36fc:	00000021 	move	zero,zero
    3700:	00000021 	move	zero,zero
    3704:	00000021 	move	zero,zero
    3708:	00000021 	move	zero,zero
    370c:	00000021 	move	zero,zero
    3710:	00000021 	move	zero,zero
    3714:	3c12e980 	lui	s2,0xe980
    3718:	3652da38 	ori	s2,s2,0xda38
    371c:	00000000 	nop
    3720:	24140000 	li	s4,0
    3724:	16141d62 	bne	s0,s4,acb0 <inst_error>
    3728:	00000000 	nop
    372c:	00000000 	nop
    3730:	24150000 	li	s5,0
    3734:	16551d5e 	bne	s2,s5,acb0 <inst_error>
    3738:	00000000 	nop
    373c:	00000000 	nop
    3740:	3c0cd021 	lui	t4,0xd021
    3744:	358c08c0 	ori	t4,t4,0x8c0
    3748:	3c0d416f 	lui	t5,0x416f
    374c:	35ad6238 	ori	t5,t5,0x6238
    3750:	24100000 	li	s0,0
    3754:	10000011 	b	379c <n34_bltz_test+0x379c>
    3758:	24120000 	li	s2,0
    375c:	00000000 	nop
    3760:	3c10d021 	lui	s0,0xd021
    3764:	05000021 	bltz	t0,37ec <n34_bltz_test+0x37ec>
    3768:	361008c0 	ori	s0,s0,0x8c0
    376c:	10000021 	b	37f4 <n34_bltz_test+0x37f4>
    3770:	00000000 	nop
    3774:	00000000 	nop
    3778:	00000021 	move	zero,zero
    377c:	00000021 	move	zero,zero
    3780:	00000021 	move	zero,zero
    3784:	00000021 	move	zero,zero
    3788:	00000021 	move	zero,zero
    378c:	00000021 	move	zero,zero
    3790:	00000021 	move	zero,zero
    3794:	00000021 	move	zero,zero
    3798:	00000021 	move	zero,zero
    379c:	3c08e1fa 	lui	t0,0xe1fa
    37a0:	35086bc0 	ori	t0,t0,0x6bc0
    37a4:	0500ffee 	bltz	t0,3760 <n34_bltz_test+0x3760>
    37a8:	00000000 	nop
    37ac:	10000011 	b	37f4 <n34_bltz_test+0x37f4>
    37b0:	00000000 	nop
    37b4:	00000000 	nop
    37b8:	00000021 	move	zero,zero
    37bc:	00000021 	move	zero,zero
    37c0:	00000021 	move	zero,zero
    37c4:	00000021 	move	zero,zero
    37c8:	00000021 	move	zero,zero
    37cc:	00000021 	move	zero,zero
    37d0:	00000021 	move	zero,zero
    37d4:	00000021 	move	zero,zero
    37d8:	00000021 	move	zero,zero
    37dc:	00000021 	move	zero,zero
    37e0:	00000021 	move	zero,zero
    37e4:	00000021 	move	zero,zero
    37e8:	00000021 	move	zero,zero
    37ec:	3c12416f 	lui	s2,0x416f
    37f0:	36526238 	ori	s2,s2,0x6238
    37f4:	00000000 	nop
    37f8:	3c14d021 	lui	s4,0xd021
    37fc:	369408c0 	ori	s4,s4,0x8c0
    3800:	16141d2b 	bne	s0,s4,acb0 <inst_error>
    3804:	00000000 	nop
    3808:	00000000 	nop
    380c:	3c15416f 	lui	s5,0x416f
    3810:	36b56238 	ori	s5,s5,0x6238
    3814:	16551d26 	bne	s2,s5,acb0 <inst_error>
    3818:	00000000 	nop
    381c:	00000000 	nop
    3820:	3c0c9c4c 	lui	t4,0x9c4c
    3824:	358cc2dc 	ori	t4,t4,0xc2dc
    3828:	3c0d6cdf 	lui	t5,0x6cdf
    382c:	35ad9664 	ori	t5,t5,0x9664
    3830:	24100000 	li	s0,0
    3834:	10000011 	b	387c <n34_bltz_test+0x387c>
    3838:	24120000 	li	s2,0
    383c:	00000000 	nop
    3840:	3c109c4c 	lui	s0,0x9c4c
    3844:	05000021 	bltz	t0,38cc <n34_bltz_test+0x38cc>
    3848:	3610c2dc 	ori	s0,s0,0xc2dc
    384c:	10000021 	b	38d4 <n34_bltz_test+0x38d4>
    3850:	00000000 	nop
    3854:	00000000 	nop
    3858:	00000021 	move	zero,zero
    385c:	00000021 	move	zero,zero
    3860:	00000021 	move	zero,zero
    3864:	00000021 	move	zero,zero
    3868:	00000021 	move	zero,zero
    386c:	00000021 	move	zero,zero
    3870:	00000021 	move	zero,zero
    3874:	00000021 	move	zero,zero
    3878:	00000021 	move	zero,zero
    387c:	3c087ebc 	lui	t0,0x7ebc
    3880:	3508f3bc 	ori	t0,t0,0xf3bc
    3884:	0500ffee 	bltz	t0,3840 <n34_bltz_test+0x3840>
    3888:	00000000 	nop
    388c:	10000011 	b	38d4 <n34_bltz_test+0x38d4>
    3890:	00000000 	nop
    3894:	00000000 	nop
    3898:	00000021 	move	zero,zero
    389c:	00000021 	move	zero,zero
    38a0:	00000021 	move	zero,zero
    38a4:	00000021 	move	zero,zero
    38a8:	00000021 	move	zero,zero
    38ac:	00000021 	move	zero,zero
    38b0:	00000021 	move	zero,zero
    38b4:	00000021 	move	zero,zero
    38b8:	00000021 	move	zero,zero
    38bc:	00000021 	move	zero,zero
    38c0:	00000021 	move	zero,zero
    38c4:	00000021 	move	zero,zero
    38c8:	00000021 	move	zero,zero
    38cc:	3c126cdf 	lui	s2,0x6cdf
    38d0:	36529664 	ori	s2,s2,0x9664
    38d4:	00000000 	nop
    38d8:	24140000 	li	s4,0
    38dc:	16141cf4 	bne	s0,s4,acb0 <inst_error>
    38e0:	00000000 	nop
    38e4:	00000000 	nop
    38e8:	24150000 	li	s5,0
    38ec:	16551cf0 	bne	s2,s5,acb0 <inst_error>
    38f0:	00000000 	nop
    38f4:	00000000 	nop
    38f8:	3c0c27c6 	lui	t4,0x27c6
    38fc:	358ca7a0 	ori	t4,t4,0xa7a0
    3900:	3c0da780 	lui	t5,0xa780
    3904:	35ada0d0 	ori	t5,t5,0xa0d0
    3908:	24100000 	li	s0,0
    390c:	10000011 	b	3954 <n34_bltz_test+0x3954>
    3910:	24120000 	li	s2,0
    3914:	00000000 	nop
    3918:	3c1027c6 	lui	s0,0x27c6
    391c:	05000021 	bltz	t0,39a4 <n34_bltz_test+0x39a4>
    3920:	3610a7a0 	ori	s0,s0,0xa7a0
    3924:	10000021 	b	39ac <n34_bltz_test+0x39ac>
    3928:	00000000 	nop
    392c:	00000000 	nop
    3930:	00000021 	move	zero,zero
    3934:	00000021 	move	zero,zero
    3938:	00000021 	move	zero,zero
    393c:	00000021 	move	zero,zero
    3940:	00000021 	move	zero,zero
    3944:	00000021 	move	zero,zero
    3948:	00000021 	move	zero,zero
    394c:	00000021 	move	zero,zero
    3950:	00000021 	move	zero,zero
    3954:	3c084752 	lui	t0,0x4752
    3958:	3508405d 	ori	t0,t0,0x405d
    395c:	0500ffee 	bltz	t0,3918 <n34_bltz_test+0x3918>
    3960:	00000000 	nop
    3964:	10000011 	b	39ac <n34_bltz_test+0x39ac>
    3968:	00000000 	nop
    396c:	00000000 	nop
    3970:	00000021 	move	zero,zero
    3974:	00000021 	move	zero,zero
    3978:	00000021 	move	zero,zero
    397c:	00000021 	move	zero,zero
    3980:	00000021 	move	zero,zero
    3984:	00000021 	move	zero,zero
    3988:	00000021 	move	zero,zero
    398c:	00000021 	move	zero,zero
    3990:	00000021 	move	zero,zero
    3994:	00000021 	move	zero,zero
    3998:	00000021 	move	zero,zero
    399c:	00000021 	move	zero,zero
    39a0:	00000021 	move	zero,zero
    39a4:	3c12a780 	lui	s2,0xa780
    39a8:	3652a0d0 	ori	s2,s2,0xa0d0
    39ac:	00000000 	nop
    39b0:	24140000 	li	s4,0
    39b4:	16141cbe 	bne	s0,s4,acb0 <inst_error>
    39b8:	00000000 	nop
    39bc:	00000000 	nop
    39c0:	24150000 	li	s5,0
    39c4:	16551cba 	bne	s2,s5,acb0 <inst_error>
    39c8:	00000000 	nop
    39cc:	00000000 	nop
    39d0:	3c0c62a9 	lui	t4,0x62a9
    39d4:	358c1540 	ori	t4,t4,0x1540
    39d8:	3c0d1c42 	lui	t5,0x1c42
    39dc:	35ad8b4d 	ori	t5,t5,0x8b4d
    39e0:	24100000 	li	s0,0
    39e4:	10000011 	b	3a2c <n34_bltz_test+0x3a2c>
    39e8:	24120000 	li	s2,0
    39ec:	00000000 	nop
    39f0:	3c1062a9 	lui	s0,0x62a9
    39f4:	05000021 	bltz	t0,3a7c <n34_bltz_test+0x3a7c>
    39f8:	36101540 	ori	s0,s0,0x1540
    39fc:	10000021 	b	3a84 <n34_bltz_test+0x3a84>
    3a00:	00000000 	nop
    3a04:	00000000 	nop
    3a08:	00000021 	move	zero,zero
    3a0c:	00000021 	move	zero,zero
    3a10:	00000021 	move	zero,zero
    3a14:	00000021 	move	zero,zero
    3a18:	00000021 	move	zero,zero
    3a1c:	00000021 	move	zero,zero
    3a20:	00000021 	move	zero,zero
    3a24:	00000021 	move	zero,zero
    3a28:	00000021 	move	zero,zero
    3a2c:	3c08184c 	lui	t0,0x184c
    3a30:	3508ac40 	ori	t0,t0,0xac40
    3a34:	0500ffee 	bltz	t0,39f0 <n34_bltz_test+0x39f0>
    3a38:	00000000 	nop
    3a3c:	10000011 	b	3a84 <n34_bltz_test+0x3a84>
    3a40:	00000000 	nop
    3a44:	00000000 	nop
    3a48:	00000021 	move	zero,zero
    3a4c:	00000021 	move	zero,zero
    3a50:	00000021 	move	zero,zero
    3a54:	00000021 	move	zero,zero
    3a58:	00000021 	move	zero,zero
    3a5c:	00000021 	move	zero,zero
    3a60:	00000021 	move	zero,zero
    3a64:	00000021 	move	zero,zero
    3a68:	00000021 	move	zero,zero
    3a6c:	00000021 	move	zero,zero
    3a70:	00000021 	move	zero,zero
    3a74:	00000021 	move	zero,zero
    3a78:	00000021 	move	zero,zero
    3a7c:	3c121c42 	lui	s2,0x1c42
    3a80:	36528b4d 	ori	s2,s2,0x8b4d
    3a84:	00000000 	nop
    3a88:	24140000 	li	s4,0
    3a8c:	16141c88 	bne	s0,s4,acb0 <inst_error>
    3a90:	00000000 	nop
    3a94:	00000000 	nop
    3a98:	24150000 	li	s5,0
    3a9c:	16551c84 	bne	s2,s5,acb0 <inst_error>
    3aa0:	00000000 	nop
    3aa4:	00000000 	nop
    3aa8:	3c0c7a07 	lui	t4,0x7a07
    3aac:	358cee00 	ori	t4,t4,0xee00
    3ab0:	3c0def30 	lui	t5,0xef30
    3ab4:	35ada9f5 	ori	t5,t5,0xa9f5
    3ab8:	24100000 	li	s0,0
    3abc:	10000011 	b	3b04 <n34_bltz_test+0x3b04>
    3ac0:	24120000 	li	s2,0
    3ac4:	00000000 	nop
    3ac8:	3c107a07 	lui	s0,0x7a07
    3acc:	05000021 	bltz	t0,3b54 <n34_bltz_test+0x3b54>
    3ad0:	3610ee00 	ori	s0,s0,0xee00
    3ad4:	10000021 	b	3b5c <n34_bltz_test+0x3b5c>
    3ad8:	00000000 	nop
    3adc:	00000000 	nop
    3ae0:	00000021 	move	zero,zero
    3ae4:	00000021 	move	zero,zero
    3ae8:	00000021 	move	zero,zero
    3aec:	00000021 	move	zero,zero
    3af0:	00000021 	move	zero,zero
    3af4:	00000021 	move	zero,zero
    3af8:	00000021 	move	zero,zero
    3afc:	00000021 	move	zero,zero
    3b00:	00000021 	move	zero,zero
    3b04:	3c085243 	lui	t0,0x5243
    3b08:	3508716e 	ori	t0,t0,0x716e
    3b0c:	0500ffee 	bltz	t0,3ac8 <n34_bltz_test+0x3ac8>
    3b10:	00000000 	nop
    3b14:	10000011 	b	3b5c <n34_bltz_test+0x3b5c>
    3b18:	00000000 	nop
    3b1c:	00000000 	nop
    3b20:	00000021 	move	zero,zero
    3b24:	00000021 	move	zero,zero
    3b28:	00000021 	move	zero,zero
    3b2c:	00000021 	move	zero,zero
    3b30:	00000021 	move	zero,zero
    3b34:	00000021 	move	zero,zero
    3b38:	00000021 	move	zero,zero
    3b3c:	00000021 	move	zero,zero
    3b40:	00000021 	move	zero,zero
    3b44:	00000021 	move	zero,zero
    3b48:	00000021 	move	zero,zero
    3b4c:	00000021 	move	zero,zero
    3b50:	00000021 	move	zero,zero
    3b54:	3c12ef30 	lui	s2,0xef30
    3b58:	3652a9f5 	ori	s2,s2,0xa9f5
    3b5c:	00000000 	nop
    3b60:	24140000 	li	s4,0
    3b64:	16141c52 	bne	s0,s4,acb0 <inst_error>
    3b68:	00000000 	nop
    3b6c:	00000000 	nop
    3b70:	24150000 	li	s5,0
    3b74:	16551c4e 	bne	s2,s5,acb0 <inst_error>
    3b78:	00000000 	nop
    3b7c:	00000000 	nop
    3b80:	3c0c000f 	lui	t4,0xf
    3b84:	358c8ff0 	ori	t4,t4,0x8ff0
    3b88:	3c0ddc9b 	lui	t5,0xdc9b
    3b8c:	35adc7c0 	ori	t5,t5,0xc7c0
    3b90:	24100000 	li	s0,0
    3b94:	10000011 	b	3bdc <n34_bltz_test+0x3bdc>
    3b98:	24120000 	li	s2,0
    3b9c:	00000000 	nop
    3ba0:	3c10000f 	lui	s0,0xf
    3ba4:	05000021 	bltz	t0,3c2c <n34_bltz_test+0x3c2c>
    3ba8:	36108ff0 	ori	s0,s0,0x8ff0
    3bac:	10000021 	b	3c34 <n34_bltz_test+0x3c34>
    3bb0:	00000000 	nop
    3bb4:	00000000 	nop
    3bb8:	00000021 	move	zero,zero
    3bbc:	00000021 	move	zero,zero
    3bc0:	00000021 	move	zero,zero
    3bc4:	00000021 	move	zero,zero
    3bc8:	00000021 	move	zero,zero
    3bcc:	00000021 	move	zero,zero
    3bd0:	00000021 	move	zero,zero
    3bd4:	00000021 	move	zero,zero
    3bd8:	00000021 	move	zero,zero
    3bdc:	3c083c71 	lui	t0,0x3c71
    3be0:	3508a300 	ori	t0,t0,0xa300
    3be4:	0500ffee 	bltz	t0,3ba0 <n34_bltz_test+0x3ba0>
    3be8:	00000000 	nop
    3bec:	10000011 	b	3c34 <n34_bltz_test+0x3c34>
    3bf0:	00000000 	nop
    3bf4:	00000000 	nop
    3bf8:	00000021 	move	zero,zero
    3bfc:	00000021 	move	zero,zero
    3c00:	00000021 	move	zero,zero
    3c04:	00000021 	move	zero,zero
    3c08:	00000021 	move	zero,zero
    3c0c:	00000021 	move	zero,zero
    3c10:	00000021 	move	zero,zero
    3c14:	00000021 	move	zero,zero
    3c18:	00000021 	move	zero,zero
    3c1c:	00000021 	move	zero,zero
    3c20:	00000021 	move	zero,zero
    3c24:	00000021 	move	zero,zero
    3c28:	00000021 	move	zero,zero
    3c2c:	3c12dc9b 	lui	s2,0xdc9b
    3c30:	3652c7c0 	ori	s2,s2,0xc7c0
    3c34:	00000000 	nop
    3c38:	24140000 	li	s4,0
    3c3c:	16141c1c 	bne	s0,s4,acb0 <inst_error>
    3c40:	00000000 	nop
    3c44:	00000000 	nop
    3c48:	24150000 	li	s5,0
    3c4c:	16551c18 	bne	s2,s5,acb0 <inst_error>
    3c50:	00000000 	nop
    3c54:	00000000 	nop
    3c58:	3c0c75d6 	lui	t4,0x75d6
    3c5c:	358cdf00 	ori	t4,t4,0xdf00
    3c60:	3c0d9c8a 	lui	t5,0x9c8a
    3c64:	35ad095e 	ori	t5,t5,0x95e
    3c68:	24100000 	li	s0,0
    3c6c:	10000011 	b	3cb4 <n34_bltz_test+0x3cb4>
    3c70:	24120000 	li	s2,0
    3c74:	00000000 	nop
    3c78:	3c1075d6 	lui	s0,0x75d6
    3c7c:	05000021 	bltz	t0,3d04 <n34_bltz_test+0x3d04>
    3c80:	3610df00 	ori	s0,s0,0xdf00
    3c84:	10000021 	b	3d0c <n34_bltz_test+0x3d0c>
    3c88:	00000000 	nop
    3c8c:	00000000 	nop
    3c90:	00000021 	move	zero,zero
    3c94:	00000021 	move	zero,zero
    3c98:	00000021 	move	zero,zero
    3c9c:	00000021 	move	zero,zero
    3ca0:	00000021 	move	zero,zero
    3ca4:	00000021 	move	zero,zero
    3ca8:	00000021 	move	zero,zero
    3cac:	00000021 	move	zero,zero
    3cb0:	00000021 	move	zero,zero
    3cb4:	3c080cfd 	lui	t0,0xcfd
    3cb8:	35082a00 	ori	t0,t0,0x2a00
    3cbc:	0500ffee 	bltz	t0,3c78 <n34_bltz_test+0x3c78>
    3cc0:	00000000 	nop
    3cc4:	10000011 	b	3d0c <n34_bltz_test+0x3d0c>
    3cc8:	00000000 	nop
    3ccc:	00000000 	nop
    3cd0:	00000021 	move	zero,zero
    3cd4:	00000021 	move	zero,zero
    3cd8:	00000021 	move	zero,zero
    3cdc:	00000021 	move	zero,zero
    3ce0:	00000021 	move	zero,zero
    3ce4:	00000021 	move	zero,zero
    3ce8:	00000021 	move	zero,zero
    3cec:	00000021 	move	zero,zero
    3cf0:	00000021 	move	zero,zero
    3cf4:	00000021 	move	zero,zero
    3cf8:	00000021 	move	zero,zero
    3cfc:	00000021 	move	zero,zero
    3d00:	00000021 	move	zero,zero
    3d04:	3c129c8a 	lui	s2,0x9c8a
    3d08:	3652095e 	ori	s2,s2,0x95e
    3d0c:	00000000 	nop
    3d10:	24140000 	li	s4,0
    3d14:	16141be6 	bne	s0,s4,acb0 <inst_error>
    3d18:	00000000 	nop
    3d1c:	00000000 	nop
    3d20:	24150000 	li	s5,0
    3d24:	16551be2 	bne	s2,s5,acb0 <inst_error>
    3d28:	00000000 	nop
    3d2c:	00000000 	nop
    3d30:	3c0c8113 	lui	t4,0x8113
    3d34:	358c6168 	ori	t4,t4,0x6168
    3d38:	3c0d73d8 	lui	t5,0x73d8
    3d3c:	35ad50ad 	ori	t5,t5,0x50ad
    3d40:	24100000 	li	s0,0
    3d44:	10000011 	b	3d8c <n34_bltz_test+0x3d8c>
    3d48:	24120000 	li	s2,0
    3d4c:	00000000 	nop
    3d50:	3c108113 	lui	s0,0x8113
    3d54:	05000021 	bltz	t0,3ddc <n34_bltz_test+0x3ddc>
    3d58:	36106168 	ori	s0,s0,0x6168
    3d5c:	10000021 	b	3de4 <n34_bltz_test+0x3de4>
    3d60:	00000000 	nop
    3d64:	00000000 	nop
    3d68:	00000021 	move	zero,zero
    3d6c:	00000021 	move	zero,zero
    3d70:	00000021 	move	zero,zero
    3d74:	00000021 	move	zero,zero
    3d78:	00000021 	move	zero,zero
    3d7c:	00000021 	move	zero,zero
    3d80:	00000021 	move	zero,zero
    3d84:	00000021 	move	zero,zero
    3d88:	00000021 	move	zero,zero
    3d8c:	3c08eab5 	lui	t0,0xeab5
    3d90:	3508a598 	ori	t0,t0,0xa598
    3d94:	0500ffee 	bltz	t0,3d50 <n34_bltz_test+0x3d50>
    3d98:	00000000 	nop
    3d9c:	10000011 	b	3de4 <n34_bltz_test+0x3de4>
    3da0:	00000000 	nop
    3da4:	00000000 	nop
    3da8:	00000021 	move	zero,zero
    3dac:	00000021 	move	zero,zero
    3db0:	00000021 	move	zero,zero
    3db4:	00000021 	move	zero,zero
    3db8:	00000021 	move	zero,zero
    3dbc:	00000021 	move	zero,zero
    3dc0:	00000021 	move	zero,zero
    3dc4:	00000021 	move	zero,zero
    3dc8:	00000021 	move	zero,zero
    3dcc:	00000021 	move	zero,zero
    3dd0:	00000021 	move	zero,zero
    3dd4:	00000021 	move	zero,zero
    3dd8:	00000021 	move	zero,zero
    3ddc:	3c1273d8 	lui	s2,0x73d8
    3de0:	365250ad 	ori	s2,s2,0x50ad
    3de4:	00000000 	nop
    3de8:	3c148113 	lui	s4,0x8113
    3dec:	36946168 	ori	s4,s4,0x6168
    3df0:	16141baf 	bne	s0,s4,acb0 <inst_error>
    3df4:	00000000 	nop
    3df8:	00000000 	nop
    3dfc:	3c1573d8 	lui	s5,0x73d8
    3e00:	36b550ad 	ori	s5,s5,0x50ad
    3e04:	16551baa 	bne	s2,s5,acb0 <inst_error>
    3e08:	00000000 	nop
    3e0c:	00000000 	nop
    3e10:	3c0ce2fa 	lui	t4,0xe2fa
    3e14:	358c74c4 	ori	t4,t4,0x74c4
    3e18:	3c0d45c4 	lui	t5,0x45c4
    3e1c:	35ad9600 	ori	t5,t5,0x9600
    3e20:	24100000 	li	s0,0
    3e24:	10000011 	b	3e6c <n34_bltz_test+0x3e6c>
    3e28:	24120000 	li	s2,0
    3e2c:	00000000 	nop
    3e30:	3c10e2fa 	lui	s0,0xe2fa
    3e34:	05000021 	bltz	t0,3ebc <n34_bltz_test+0x3ebc>
    3e38:	361074c4 	ori	s0,s0,0x74c4
    3e3c:	10000021 	b	3ec4 <n34_bltz_test+0x3ec4>
    3e40:	00000000 	nop
    3e44:	00000000 	nop
    3e48:	00000021 	move	zero,zero
    3e4c:	00000021 	move	zero,zero
    3e50:	00000021 	move	zero,zero
    3e54:	00000021 	move	zero,zero
    3e58:	00000021 	move	zero,zero
    3e5c:	00000021 	move	zero,zero
    3e60:	00000021 	move	zero,zero
    3e64:	00000021 	move	zero,zero
    3e68:	00000021 	move	zero,zero
    3e6c:	3c08327f 	lui	t0,0x327f
    3e70:	3508d3c0 	ori	t0,t0,0xd3c0
    3e74:	0500ffee 	bltz	t0,3e30 <n34_bltz_test+0x3e30>
    3e78:	00000000 	nop
    3e7c:	10000011 	b	3ec4 <n34_bltz_test+0x3ec4>
    3e80:	00000000 	nop
    3e84:	00000000 	nop
    3e88:	00000021 	move	zero,zero
    3e8c:	00000021 	move	zero,zero
    3e90:	00000021 	move	zero,zero
    3e94:	00000021 	move	zero,zero
    3e98:	00000021 	move	zero,zero
    3e9c:	00000021 	move	zero,zero
    3ea0:	00000021 	move	zero,zero
    3ea4:	00000021 	move	zero,zero
    3ea8:	00000021 	move	zero,zero
    3eac:	00000021 	move	zero,zero
    3eb0:	00000021 	move	zero,zero
    3eb4:	00000021 	move	zero,zero
    3eb8:	00000021 	move	zero,zero
    3ebc:	3c1245c4 	lui	s2,0x45c4
    3ec0:	36529600 	ori	s2,s2,0x9600
    3ec4:	00000000 	nop
    3ec8:	24140000 	li	s4,0
    3ecc:	16141b78 	bne	s0,s4,acb0 <inst_error>
    3ed0:	00000000 	nop
    3ed4:	00000000 	nop
    3ed8:	24150000 	li	s5,0
    3edc:	16551b74 	bne	s2,s5,acb0 <inst_error>
    3ee0:	00000000 	nop
    3ee4:	00000000 	nop
    3ee8:	3c0c9e8e 	lui	t4,0x9e8e
    3eec:	358c7588 	ori	t4,t4,0x7588
    3ef0:	3c0d2d45 	lui	t5,0x2d45
    3ef4:	35adfd64 	ori	t5,t5,0xfd64
    3ef8:	24100000 	li	s0,0
    3efc:	10000011 	b	3f44 <n34_bltz_test+0x3f44>
    3f00:	24120000 	li	s2,0
    3f04:	00000000 	nop
    3f08:	3c109e8e 	lui	s0,0x9e8e
    3f0c:	05000021 	bltz	t0,3f94 <n34_bltz_test+0x3f94>
    3f10:	36107588 	ori	s0,s0,0x7588
    3f14:	10000021 	b	3f9c <n34_bltz_test+0x3f9c>
    3f18:	00000000 	nop
    3f1c:	00000000 	nop
    3f20:	00000021 	move	zero,zero
    3f24:	00000021 	move	zero,zero
    3f28:	00000021 	move	zero,zero
    3f2c:	00000021 	move	zero,zero
    3f30:	00000021 	move	zero,zero
    3f34:	00000021 	move	zero,zero
    3f38:	00000021 	move	zero,zero
    3f3c:	00000021 	move	zero,zero
    3f40:	00000021 	move	zero,zero
    3f44:	3c08fecd 	lui	t0,0xfecd
    3f48:	35088fe1 	ori	t0,t0,0x8fe1
    3f4c:	0500ffee 	bltz	t0,3f08 <n34_bltz_test+0x3f08>
    3f50:	00000000 	nop
    3f54:	10000011 	b	3f9c <n34_bltz_test+0x3f9c>
    3f58:	00000000 	nop
    3f5c:	00000000 	nop
    3f60:	00000021 	move	zero,zero
    3f64:	00000021 	move	zero,zero
    3f68:	00000021 	move	zero,zero
    3f6c:	00000021 	move	zero,zero
    3f70:	00000021 	move	zero,zero
    3f74:	00000021 	move	zero,zero
    3f78:	00000021 	move	zero,zero
    3f7c:	00000021 	move	zero,zero
    3f80:	00000021 	move	zero,zero
    3f84:	00000021 	move	zero,zero
    3f88:	00000021 	move	zero,zero
    3f8c:	00000021 	move	zero,zero
    3f90:	00000021 	move	zero,zero
    3f94:	3c122d45 	lui	s2,0x2d45
    3f98:	3652fd64 	ori	s2,s2,0xfd64
    3f9c:	00000000 	nop
    3fa0:	3c149e8e 	lui	s4,0x9e8e
    3fa4:	36947588 	ori	s4,s4,0x7588
    3fa8:	16141b41 	bne	s0,s4,acb0 <inst_error>
    3fac:	00000000 	nop
    3fb0:	00000000 	nop
    3fb4:	3c152d45 	lui	s5,0x2d45
    3fb8:	36b5fd64 	ori	s5,s5,0xfd64
    3fbc:	16551b3c 	bne	s2,s5,acb0 <inst_error>
    3fc0:	00000000 	nop
    3fc4:	00000000 	nop
    3fc8:	3c0ccbd2 	lui	t4,0xcbd2
    3fcc:	358c0698 	ori	t4,t4,0x698
    3fd0:	3c0d24e9 	lui	t5,0x24e9
    3fd4:	35ad9b20 	ori	t5,t5,0x9b20
    3fd8:	24100000 	li	s0,0
    3fdc:	10000011 	b	4024 <n34_bltz_test+0x4024>
    3fe0:	24120000 	li	s2,0
    3fe4:	00000000 	nop
    3fe8:	3c10cbd2 	lui	s0,0xcbd2
    3fec:	05000021 	bltz	t0,4074 <n34_bltz_test+0x4074>
    3ff0:	36100698 	ori	s0,s0,0x698
    3ff4:	10000021 	b	407c <n34_bltz_test+0x407c>
    3ff8:	00000000 	nop
    3ffc:	00000000 	nop
    4000:	00000021 	move	zero,zero
    4004:	00000021 	move	zero,zero
    4008:	00000021 	move	zero,zero
    400c:	00000021 	move	zero,zero
    4010:	00000021 	move	zero,zero
    4014:	00000021 	move	zero,zero
    4018:	00000021 	move	zero,zero
    401c:	00000021 	move	zero,zero
    4020:	00000021 	move	zero,zero
    4024:	3c08afb6 	lui	t0,0xafb6
    4028:	35082550 	ori	t0,t0,0x2550
    402c:	0500ffee 	bltz	t0,3fe8 <n34_bltz_test+0x3fe8>
    4030:	00000000 	nop
    4034:	10000011 	b	407c <n34_bltz_test+0x407c>
    4038:	00000000 	nop
    403c:	00000000 	nop
    4040:	00000021 	move	zero,zero
    4044:	00000021 	move	zero,zero
    4048:	00000021 	move	zero,zero
    404c:	00000021 	move	zero,zero
    4050:	00000021 	move	zero,zero
    4054:	00000021 	move	zero,zero
    4058:	00000021 	move	zero,zero
    405c:	00000021 	move	zero,zero
    4060:	00000021 	move	zero,zero
    4064:	00000021 	move	zero,zero
    4068:	00000021 	move	zero,zero
    406c:	00000021 	move	zero,zero
    4070:	00000021 	move	zero,zero
    4074:	3c1224e9 	lui	s2,0x24e9
    4078:	36529b20 	ori	s2,s2,0x9b20
    407c:	00000000 	nop
    4080:	3c14cbd2 	lui	s4,0xcbd2
    4084:	36940698 	ori	s4,s4,0x698
    4088:	16141b09 	bne	s0,s4,acb0 <inst_error>
    408c:	00000000 	nop
    4090:	00000000 	nop
    4094:	3c1524e9 	lui	s5,0x24e9
    4098:	36b59b20 	ori	s5,s5,0x9b20
    409c:	16551b04 	bne	s2,s5,acb0 <inst_error>
    40a0:	00000000 	nop
    40a4:	00000000 	nop
    40a8:	3c0c16af 	lui	t4,0x16af
    40ac:	358c26e4 	ori	t4,t4,0x26e4
    40b0:	3c0de559 	lui	t5,0xe559
    40b4:	35ad3070 	ori	t5,t5,0x3070
    40b8:	24100000 	li	s0,0
    40bc:	10000011 	b	4104 <n34_bltz_test+0x4104>
    40c0:	24120000 	li	s2,0
    40c4:	00000000 	nop
    40c8:	3c1016af 	lui	s0,0x16af
    40cc:	05000021 	bltz	t0,4154 <n34_bltz_test+0x4154>
    40d0:	361026e4 	ori	s0,s0,0x26e4
    40d4:	10000021 	b	415c <n34_bltz_test+0x415c>
    40d8:	00000000 	nop
    40dc:	00000000 	nop
    40e0:	00000021 	move	zero,zero
    40e4:	00000021 	move	zero,zero
    40e8:	00000021 	move	zero,zero
    40ec:	00000021 	move	zero,zero
    40f0:	00000021 	move	zero,zero
    40f4:	00000021 	move	zero,zero
    40f8:	00000021 	move	zero,zero
    40fc:	00000021 	move	zero,zero
    4100:	00000021 	move	zero,zero
    4104:	3c082cbf 	lui	t0,0x2cbf
    4108:	3508882a 	ori	t0,t0,0x882a
    410c:	0500ffee 	bltz	t0,40c8 <n34_bltz_test+0x40c8>
    4110:	00000000 	nop
    4114:	10000011 	b	415c <n34_bltz_test+0x415c>
    4118:	00000000 	nop
    411c:	00000000 	nop
    4120:	00000021 	move	zero,zero
    4124:	00000021 	move	zero,zero
    4128:	00000021 	move	zero,zero
    412c:	00000021 	move	zero,zero
    4130:	00000021 	move	zero,zero
    4134:	00000021 	move	zero,zero
    4138:	00000021 	move	zero,zero
    413c:	00000021 	move	zero,zero
    4140:	00000021 	move	zero,zero
    4144:	00000021 	move	zero,zero
    4148:	00000021 	move	zero,zero
    414c:	00000021 	move	zero,zero
    4150:	00000021 	move	zero,zero
    4154:	3c12e559 	lui	s2,0xe559
    4158:	36523070 	ori	s2,s2,0x3070
    415c:	00000000 	nop
    4160:	24140000 	li	s4,0
    4164:	16141ad2 	bne	s0,s4,acb0 <inst_error>
    4168:	00000000 	nop
    416c:	00000000 	nop
    4170:	24150000 	li	s5,0
    4174:	16551ace 	bne	s2,s5,acb0 <inst_error>
    4178:	00000000 	nop
    417c:	00000000 	nop
    4180:	3c0cb3b5 	lui	t4,0xb3b5
    4184:	358c25bd 	ori	t4,t4,0x25bd
    4188:	3c0de917 	lui	t5,0xe917
    418c:	35ad066a 	ori	t5,t5,0x66a
    4190:	24100000 	li	s0,0
    4194:	10000011 	b	41dc <n34_bltz_test+0x41dc>
    4198:	24120000 	li	s2,0
    419c:	00000000 	nop
    41a0:	3c10b3b5 	lui	s0,0xb3b5
    41a4:	05000021 	bltz	t0,422c <n34_bltz_test+0x422c>
    41a8:	361025bd 	ori	s0,s0,0x25bd
    41ac:	10000021 	b	4234 <n34_bltz_test+0x4234>
    41b0:	00000000 	nop
    41b4:	00000000 	nop
    41b8:	00000021 	move	zero,zero
    41bc:	00000021 	move	zero,zero
    41c0:	00000021 	move	zero,zero
    41c4:	00000021 	move	zero,zero
    41c8:	00000021 	move	zero,zero
    41cc:	00000021 	move	zero,zero
    41d0:	00000021 	move	zero,zero
    41d4:	00000021 	move	zero,zero
    41d8:	00000021 	move	zero,zero
    41dc:	3c080dc0 	lui	t0,0xdc0
    41e0:	35083c69 	ori	t0,t0,0x3c69
    41e4:	0500ffee 	bltz	t0,41a0 <n34_bltz_test+0x41a0>
    41e8:	00000000 	nop
    41ec:	10000011 	b	4234 <n34_bltz_test+0x4234>
    41f0:	00000000 	nop
    41f4:	00000000 	nop
    41f8:	00000021 	move	zero,zero
    41fc:	00000021 	move	zero,zero
    4200:	00000021 	move	zero,zero
    4204:	00000021 	move	zero,zero
    4208:	00000021 	move	zero,zero
    420c:	00000021 	move	zero,zero
    4210:	00000021 	move	zero,zero
    4214:	00000021 	move	zero,zero
    4218:	00000021 	move	zero,zero
    421c:	00000021 	move	zero,zero
    4220:	00000021 	move	zero,zero
    4224:	00000021 	move	zero,zero
    4228:	00000021 	move	zero,zero
    422c:	3c12e917 	lui	s2,0xe917
    4230:	3652066a 	ori	s2,s2,0x66a
    4234:	00000000 	nop
    4238:	24140000 	li	s4,0
    423c:	16141a9c 	bne	s0,s4,acb0 <inst_error>
    4240:	00000000 	nop
    4244:	00000000 	nop
    4248:	24150000 	li	s5,0
    424c:	16551a98 	bne	s2,s5,acb0 <inst_error>
    4250:	00000000 	nop
    4254:	00000000 	nop
    4258:	3c0ca5f2 	lui	t4,0xa5f2
    425c:	358ca950 	ori	t4,t4,0xa950
    4260:	3c0de511 	lui	t5,0xe511
    4264:	35ad2d82 	ori	t5,t5,0x2d82
    4268:	24100000 	li	s0,0
    426c:	10000011 	b	42b4 <n34_bltz_test+0x42b4>
    4270:	24120000 	li	s2,0
    4274:	00000000 	nop
    4278:	3c10a5f2 	lui	s0,0xa5f2
    427c:	05000021 	bltz	t0,4304 <n34_bltz_test+0x4304>
    4280:	3610a950 	ori	s0,s0,0xa950
    4284:	10000021 	b	430c <n34_bltz_test+0x430c>
    4288:	00000000 	nop
    428c:	00000000 	nop
    4290:	00000021 	move	zero,zero
    4294:	00000021 	move	zero,zero
    4298:	00000021 	move	zero,zero
    429c:	00000021 	move	zero,zero
    42a0:	00000021 	move	zero,zero
    42a4:	00000021 	move	zero,zero
    42a8:	00000021 	move	zero,zero
    42ac:	00000021 	move	zero,zero
    42b0:	00000021 	move	zero,zero
    42b4:	3c0878e2 	lui	t0,0x78e2
    42b8:	350813c8 	ori	t0,t0,0x13c8
    42bc:	0500ffee 	bltz	t0,4278 <n34_bltz_test+0x4278>
    42c0:	00000000 	nop
    42c4:	10000011 	b	430c <n34_bltz_test+0x430c>
    42c8:	00000000 	nop
    42cc:	00000000 	nop
    42d0:	00000021 	move	zero,zero
    42d4:	00000021 	move	zero,zero
    42d8:	00000021 	move	zero,zero
    42dc:	00000021 	move	zero,zero
    42e0:	00000021 	move	zero,zero
    42e4:	00000021 	move	zero,zero
    42e8:	00000021 	move	zero,zero
    42ec:	00000021 	move	zero,zero
    42f0:	00000021 	move	zero,zero
    42f4:	00000021 	move	zero,zero
    42f8:	00000021 	move	zero,zero
    42fc:	00000021 	move	zero,zero
    4300:	00000021 	move	zero,zero
    4304:	3c12e511 	lui	s2,0xe511
    4308:	36522d82 	ori	s2,s2,0x2d82
    430c:	00000000 	nop
    4310:	24140000 	li	s4,0
    4314:	16141a66 	bne	s0,s4,acb0 <inst_error>
    4318:	00000000 	nop
    431c:	00000000 	nop
    4320:	24150000 	li	s5,0
    4324:	16551a62 	bne	s2,s5,acb0 <inst_error>
    4328:	00000000 	nop
    432c:	00000000 	nop
    4330:	3c0c2dfd 	lui	t4,0x2dfd
    4334:	358ce0f8 	ori	t4,t4,0xe0f8
    4338:	3c0de0ef 	lui	t5,0xe0ef
    433c:	35add180 	ori	t5,t5,0xd180
    4340:	24100000 	li	s0,0
    4344:	10000011 	b	438c <n34_bltz_test+0x438c>
    4348:	24120000 	li	s2,0
    434c:	00000000 	nop
    4350:	3c102dfd 	lui	s0,0x2dfd
    4354:	05000021 	bltz	t0,43dc <n34_bltz_test+0x43dc>
    4358:	3610e0f8 	ori	s0,s0,0xe0f8
    435c:	10000021 	b	43e4 <n34_bltz_test+0x43e4>
    4360:	00000000 	nop
    4364:	00000000 	nop
    4368:	00000021 	move	zero,zero
    436c:	00000021 	move	zero,zero
    4370:	00000021 	move	zero,zero
    4374:	00000021 	move	zero,zero
    4378:	00000021 	move	zero,zero
    437c:	00000021 	move	zero,zero
    4380:	00000021 	move	zero,zero
    4384:	00000021 	move	zero,zero
    4388:	00000021 	move	zero,zero
    438c:	3c08e981 	lui	t0,0xe981
    4390:	3508ebd4 	ori	t0,t0,0xebd4
    4394:	0500ffee 	bltz	t0,4350 <n34_bltz_test+0x4350>
    4398:	00000000 	nop
    439c:	10000011 	b	43e4 <n34_bltz_test+0x43e4>
    43a0:	00000000 	nop
    43a4:	00000000 	nop
    43a8:	00000021 	move	zero,zero
    43ac:	00000021 	move	zero,zero
    43b0:	00000021 	move	zero,zero
    43b4:	00000021 	move	zero,zero
    43b8:	00000021 	move	zero,zero
    43bc:	00000021 	move	zero,zero
    43c0:	00000021 	move	zero,zero
    43c4:	00000021 	move	zero,zero
    43c8:	00000021 	move	zero,zero
    43cc:	00000021 	move	zero,zero
    43d0:	00000021 	move	zero,zero
    43d4:	00000021 	move	zero,zero
    43d8:	00000021 	move	zero,zero
    43dc:	3c12e0ef 	lui	s2,0xe0ef
    43e0:	3652d180 	ori	s2,s2,0xd180
    43e4:	00000000 	nop
    43e8:	3c142dfd 	lui	s4,0x2dfd
    43ec:	3694e0f8 	ori	s4,s4,0xe0f8
    43f0:	16141a2f 	bne	s0,s4,acb0 <inst_error>
    43f4:	00000000 	nop
    43f8:	00000000 	nop
    43fc:	3c15e0ef 	lui	s5,0xe0ef
    4400:	36b5d180 	ori	s5,s5,0xd180
    4404:	16551a2a 	bne	s2,s5,acb0 <inst_error>
    4408:	00000000 	nop
    440c:	00000000 	nop
    4410:	3c0cf5d6 	lui	t4,0xf5d6
    4414:	358c19b2 	ori	t4,t4,0x19b2
    4418:	3c0d9230 	lui	t5,0x9230
    441c:	35addad0 	ori	t5,t5,0xdad0
    4420:	24100000 	li	s0,0
    4424:	10000011 	b	446c <n34_bltz_test+0x446c>
    4428:	24120000 	li	s2,0
    442c:	00000000 	nop
    4430:	3c10f5d6 	lui	s0,0xf5d6
    4434:	05000021 	bltz	t0,44bc <n34_bltz_test+0x44bc>
    4438:	361019b2 	ori	s0,s0,0x19b2
    443c:	10000021 	b	44c4 <n34_bltz_test+0x44c4>
    4440:	00000000 	nop
    4444:	00000000 	nop
    4448:	00000021 	move	zero,zero
    444c:	00000021 	move	zero,zero
    4450:	00000021 	move	zero,zero
    4454:	00000021 	move	zero,zero
    4458:	00000021 	move	zero,zero
    445c:	00000021 	move	zero,zero
    4460:	00000021 	move	zero,zero
    4464:	00000021 	move	zero,zero
    4468:	00000021 	move	zero,zero
    446c:	3c08bc46 	lui	t0,0xbc46
    4470:	3508dabc 	ori	t0,t0,0xdabc
    4474:	0500ffee 	bltz	t0,4430 <n34_bltz_test+0x4430>
    4478:	00000000 	nop
    447c:	10000011 	b	44c4 <n34_bltz_test+0x44c4>
    4480:	00000000 	nop
    4484:	00000000 	nop
    4488:	00000021 	move	zero,zero
    448c:	00000021 	move	zero,zero
    4490:	00000021 	move	zero,zero
    4494:	00000021 	move	zero,zero
    4498:	00000021 	move	zero,zero
    449c:	00000021 	move	zero,zero
    44a0:	00000021 	move	zero,zero
    44a4:	00000021 	move	zero,zero
    44a8:	00000021 	move	zero,zero
    44ac:	00000021 	move	zero,zero
    44b0:	00000021 	move	zero,zero
    44b4:	00000021 	move	zero,zero
    44b8:	00000021 	move	zero,zero
    44bc:	3c129230 	lui	s2,0x9230
    44c0:	3652dad0 	ori	s2,s2,0xdad0
    44c4:	00000000 	nop
    44c8:	3c14f5d6 	lui	s4,0xf5d6
    44cc:	369419b2 	ori	s4,s4,0x19b2
    44d0:	161419f7 	bne	s0,s4,acb0 <inst_error>
    44d4:	00000000 	nop
    44d8:	00000000 	nop
    44dc:	3c159230 	lui	s5,0x9230
    44e0:	36b5dad0 	ori	s5,s5,0xdad0
    44e4:	165519f2 	bne	s2,s5,acb0 <inst_error>
    44e8:	00000000 	nop
    44ec:	00000000 	nop
    44f0:	3c0c629e 	lui	t4,0x629e
    44f4:	358c19be 	ori	t4,t4,0x19be
    44f8:	3c0d758a 	lui	t5,0x758a
    44fc:	35ad4540 	ori	t5,t5,0x4540
    4500:	24100000 	li	s0,0
    4504:	10000011 	b	454c <n34_bltz_test+0x454c>
    4508:	24120000 	li	s2,0
    450c:	00000000 	nop
    4510:	3c10629e 	lui	s0,0x629e
    4514:	05000021 	bltz	t0,459c <n34_bltz_test+0x459c>
    4518:	361019be 	ori	s0,s0,0x19be
    451c:	10000021 	b	45a4 <n34_bltz_test+0x45a4>
    4520:	00000000 	nop
    4524:	00000000 	nop
    4528:	00000021 	move	zero,zero
    452c:	00000021 	move	zero,zero
    4530:	00000021 	move	zero,zero
    4534:	00000021 	move	zero,zero
    4538:	00000021 	move	zero,zero
    453c:	00000021 	move	zero,zero
    4540:	00000021 	move	zero,zero
    4544:	00000021 	move	zero,zero
    4548:	00000021 	move	zero,zero
    454c:	3c089e4b 	lui	t0,0x9e4b
    4550:	35081610 	ori	t0,t0,0x1610
    4554:	0500ffee 	bltz	t0,4510 <n34_bltz_test+0x4510>
    4558:	00000000 	nop
    455c:	10000011 	b	45a4 <n34_bltz_test+0x45a4>
    4560:	00000000 	nop
    4564:	00000000 	nop
    4568:	00000021 	move	zero,zero
    456c:	00000021 	move	zero,zero
    4570:	00000021 	move	zero,zero
    4574:	00000021 	move	zero,zero
    4578:	00000021 	move	zero,zero
    457c:	00000021 	move	zero,zero
    4580:	00000021 	move	zero,zero
    4584:	00000021 	move	zero,zero
    4588:	00000021 	move	zero,zero
    458c:	00000021 	move	zero,zero
    4590:	00000021 	move	zero,zero
    4594:	00000021 	move	zero,zero
    4598:	00000021 	move	zero,zero
    459c:	3c12758a 	lui	s2,0x758a
    45a0:	36524540 	ori	s2,s2,0x4540
    45a4:	00000000 	nop
    45a8:	3c14629e 	lui	s4,0x629e
    45ac:	369419be 	ori	s4,s4,0x19be
    45b0:	161419bf 	bne	s0,s4,acb0 <inst_error>
    45b4:	00000000 	nop
    45b8:	00000000 	nop
    45bc:	3c15758a 	lui	s5,0x758a
    45c0:	36b54540 	ori	s5,s5,0x4540
    45c4:	165519ba 	bne	s2,s5,acb0 <inst_error>
    45c8:	00000000 	nop
    45cc:	00000000 	nop
    45d0:	3c0ccbe8 	lui	t4,0xcbe8
    45d4:	358cadea 	ori	t4,t4,0xadea
    45d8:	3c0d19c1 	lui	t5,0x19c1
    45dc:	35ad29ac 	ori	t5,t5,0x29ac
    45e0:	24100000 	li	s0,0
    45e4:	10000011 	b	462c <n34_bltz_test+0x462c>
    45e8:	24120000 	li	s2,0
    45ec:	00000000 	nop
    45f0:	3c10cbe8 	lui	s0,0xcbe8
    45f4:	05000021 	bltz	t0,467c <n34_bltz_test+0x467c>
    45f8:	3610adea 	ori	s0,s0,0xadea
    45fc:	10000021 	b	4684 <n34_bltz_test+0x4684>
    4600:	00000000 	nop
    4604:	00000000 	nop
    4608:	00000021 	move	zero,zero
    460c:	00000021 	move	zero,zero
    4610:	00000021 	move	zero,zero
    4614:	00000021 	move	zero,zero
    4618:	00000021 	move	zero,zero
    461c:	00000021 	move	zero,zero
    4620:	00000021 	move	zero,zero
    4624:	00000021 	move	zero,zero
    4628:	00000021 	move	zero,zero
    462c:	3c088b1b 	lui	t0,0x8b1b
    4630:	3508d002 	ori	t0,t0,0xd002
    4634:	0500ffee 	bltz	t0,45f0 <n34_bltz_test+0x45f0>
    4638:	00000000 	nop
    463c:	10000011 	b	4684 <n34_bltz_test+0x4684>
    4640:	00000000 	nop
    4644:	00000000 	nop
    4648:	00000021 	move	zero,zero
    464c:	00000021 	move	zero,zero
    4650:	00000021 	move	zero,zero
    4654:	00000021 	move	zero,zero
    4658:	00000021 	move	zero,zero
    465c:	00000021 	move	zero,zero
    4660:	00000021 	move	zero,zero
    4664:	00000021 	move	zero,zero
    4668:	00000021 	move	zero,zero
    466c:	00000021 	move	zero,zero
    4670:	00000021 	move	zero,zero
    4674:	00000021 	move	zero,zero
    4678:	00000021 	move	zero,zero
    467c:	3c1219c1 	lui	s2,0x19c1
    4680:	365229ac 	ori	s2,s2,0x29ac
    4684:	00000000 	nop
    4688:	3c14cbe8 	lui	s4,0xcbe8
    468c:	3694adea 	ori	s4,s4,0xadea
    4690:	16141987 	bne	s0,s4,acb0 <inst_error>
    4694:	00000000 	nop
    4698:	00000000 	nop
    469c:	3c1519c1 	lui	s5,0x19c1
    46a0:	36b529ac 	ori	s5,s5,0x29ac
    46a4:	16551982 	bne	s2,s5,acb0 <inst_error>
    46a8:	00000000 	nop
    46ac:	00000000 	nop
    46b0:	3c0c5167 	lui	t4,0x5167
    46b4:	358cbe58 	ori	t4,t4,0xbe58
    46b8:	3c0d6baa 	lui	t5,0x6baa
    46bc:	35ad804c 	ori	t5,t5,0x804c
    46c0:	24100000 	li	s0,0
    46c4:	10000011 	b	470c <n34_bltz_test+0x470c>
    46c8:	24120000 	li	s2,0
    46cc:	00000000 	nop
    46d0:	3c105167 	lui	s0,0x5167
    46d4:	05000021 	bltz	t0,475c <n34_bltz_test+0x475c>
    46d8:	3610be58 	ori	s0,s0,0xbe58
    46dc:	10000021 	b	4764 <n34_bltz_test+0x4764>
    46e0:	00000000 	nop
    46e4:	00000000 	nop
    46e8:	00000021 	move	zero,zero
    46ec:	00000021 	move	zero,zero
    46f0:	00000021 	move	zero,zero
    46f4:	00000021 	move	zero,zero
    46f8:	00000021 	move	zero,zero
    46fc:	00000021 	move	zero,zero
    4700:	00000021 	move	zero,zero
    4704:	00000021 	move	zero,zero
    4708:	00000021 	move	zero,zero
    470c:	3c082a9f 	lui	t0,0x2a9f
    4710:	35087c7a 	ori	t0,t0,0x7c7a
    4714:	0500ffee 	bltz	t0,46d0 <n34_bltz_test+0x46d0>
    4718:	00000000 	nop
    471c:	10000011 	b	4764 <n34_bltz_test+0x4764>
    4720:	00000000 	nop
    4724:	00000000 	nop
    4728:	00000021 	move	zero,zero
    472c:	00000021 	move	zero,zero
    4730:	00000021 	move	zero,zero
    4734:	00000021 	move	zero,zero
    4738:	00000021 	move	zero,zero
    473c:	00000021 	move	zero,zero
    4740:	00000021 	move	zero,zero
    4744:	00000021 	move	zero,zero
    4748:	00000021 	move	zero,zero
    474c:	00000021 	move	zero,zero
    4750:	00000021 	move	zero,zero
    4754:	00000021 	move	zero,zero
    4758:	00000021 	move	zero,zero
    475c:	3c126baa 	lui	s2,0x6baa
    4760:	3652804c 	ori	s2,s2,0x804c
    4764:	00000000 	nop
    4768:	24140000 	li	s4,0
    476c:	16141950 	bne	s0,s4,acb0 <inst_error>
    4770:	00000000 	nop
    4774:	00000000 	nop
    4778:	24150000 	li	s5,0
    477c:	1655194c 	bne	s2,s5,acb0 <inst_error>
    4780:	00000000 	nop
    4784:	00000000 	nop
    4788:	3c0cc8d1 	lui	t4,0xc8d1
    478c:	358c1c54 	ori	t4,t4,0x1c54
    4790:	3c0dc52b 	lui	t5,0xc52b
    4794:	35ad7fc0 	ori	t5,t5,0x7fc0
    4798:	24100000 	li	s0,0
    479c:	10000011 	b	47e4 <n34_bltz_test+0x47e4>
    47a0:	24120000 	li	s2,0
    47a4:	00000000 	nop
    47a8:	3c10c8d1 	lui	s0,0xc8d1
    47ac:	05000021 	bltz	t0,4834 <n34_bltz_test+0x4834>
    47b0:	36101c54 	ori	s0,s0,0x1c54
    47b4:	10000021 	b	483c <n34_bltz_test+0x483c>
    47b8:	00000000 	nop
    47bc:	00000000 	nop
    47c0:	00000021 	move	zero,zero
    47c4:	00000021 	move	zero,zero
    47c8:	00000021 	move	zero,zero
    47cc:	00000021 	move	zero,zero
    47d0:	00000021 	move	zero,zero
    47d4:	00000021 	move	zero,zero
    47d8:	00000021 	move	zero,zero
    47dc:	00000021 	move	zero,zero
    47e0:	00000021 	move	zero,zero
    47e4:	3c0869ee 	lui	t0,0x69ee
    47e8:	35083e24 	ori	t0,t0,0x3e24
    47ec:	0500ffee 	bltz	t0,47a8 <n34_bltz_test+0x47a8>
    47f0:	00000000 	nop
    47f4:	10000011 	b	483c <n34_bltz_test+0x483c>
    47f8:	00000000 	nop
    47fc:	00000000 	nop
    4800:	00000021 	move	zero,zero
    4804:	00000021 	move	zero,zero
    4808:	00000021 	move	zero,zero
    480c:	00000021 	move	zero,zero
    4810:	00000021 	move	zero,zero
    4814:	00000021 	move	zero,zero
    4818:	00000021 	move	zero,zero
    481c:	00000021 	move	zero,zero
    4820:	00000021 	move	zero,zero
    4824:	00000021 	move	zero,zero
    4828:	00000021 	move	zero,zero
    482c:	00000021 	move	zero,zero
    4830:	00000021 	move	zero,zero
    4834:	3c12c52b 	lui	s2,0xc52b
    4838:	36527fc0 	ori	s2,s2,0x7fc0
    483c:	00000000 	nop
    4840:	24140000 	li	s4,0
    4844:	1614191a 	bne	s0,s4,acb0 <inst_error>
    4848:	00000000 	nop
    484c:	00000000 	nop
    4850:	24150000 	li	s5,0
    4854:	16551916 	bne	s2,s5,acb0 <inst_error>
    4858:	00000000 	nop
    485c:	00000000 	nop
    4860:	3c0c7038 	lui	t4,0x7038
    4864:	358c2f80 	ori	t4,t4,0x2f80
    4868:	3c0d9078 	lui	t5,0x9078
    486c:	35adaa46 	ori	t5,t5,0xaa46
    4870:	24100000 	li	s0,0
    4874:	10000011 	b	48bc <n34_bltz_test+0x48bc>
    4878:	24120000 	li	s2,0
    487c:	00000000 	nop
    4880:	3c107038 	lui	s0,0x7038
    4884:	05000021 	bltz	t0,490c <n34_bltz_test+0x490c>
    4888:	36102f80 	ori	s0,s0,0x2f80
    488c:	10000021 	b	4914 <n34_bltz_test+0x4914>
    4890:	00000000 	nop
    4894:	00000000 	nop
    4898:	00000021 	move	zero,zero
    489c:	00000021 	move	zero,zero
    48a0:	00000021 	move	zero,zero
    48a4:	00000021 	move	zero,zero
    48a8:	00000021 	move	zero,zero
    48ac:	00000021 	move	zero,zero
    48b0:	00000021 	move	zero,zero
    48b4:	00000021 	move	zero,zero
    48b8:	00000021 	move	zero,zero
    48bc:	3c083742 	lui	t0,0x3742
    48c0:	35080a60 	ori	t0,t0,0xa60
    48c4:	0500ffee 	bltz	t0,4880 <n34_bltz_test+0x4880>
    48c8:	00000000 	nop
    48cc:	10000011 	b	4914 <n34_bltz_test+0x4914>
    48d0:	00000000 	nop
    48d4:	00000000 	nop
    48d8:	00000021 	move	zero,zero
    48dc:	00000021 	move	zero,zero
    48e0:	00000021 	move	zero,zero
    48e4:	00000021 	move	zero,zero
    48e8:	00000021 	move	zero,zero
    48ec:	00000021 	move	zero,zero
    48f0:	00000021 	move	zero,zero
    48f4:	00000021 	move	zero,zero
    48f8:	00000021 	move	zero,zero
    48fc:	00000021 	move	zero,zero
    4900:	00000021 	move	zero,zero
    4904:	00000021 	move	zero,zero
    4908:	00000021 	move	zero,zero
    490c:	3c129078 	lui	s2,0x9078
    4910:	3652aa46 	ori	s2,s2,0xaa46
    4914:	00000000 	nop
    4918:	24140000 	li	s4,0
    491c:	161418e4 	bne	s0,s4,acb0 <inst_error>
    4920:	00000000 	nop
    4924:	00000000 	nop
    4928:	24150000 	li	s5,0
    492c:	165518e0 	bne	s2,s5,acb0 <inst_error>
    4930:	00000000 	nop
    4934:	00000000 	nop
    4938:	3c0c1642 	lui	t4,0x1642
    493c:	358cc61c 	ori	t4,t4,0xc61c
    4940:	3c0da38d 	lui	t5,0xa38d
    4944:	35ad2e80 	ori	t5,t5,0x2e80
    4948:	24100000 	li	s0,0
    494c:	10000011 	b	4994 <n34_bltz_test+0x4994>
    4950:	24120000 	li	s2,0
    4954:	00000000 	nop
    4958:	3c101642 	lui	s0,0x1642
    495c:	05000021 	bltz	t0,49e4 <n34_bltz_test+0x49e4>
    4960:	3610c61c 	ori	s0,s0,0xc61c
    4964:	10000021 	b	49ec <n34_bltz_test+0x49ec>
    4968:	00000000 	nop
    496c:	00000000 	nop
    4970:	00000021 	move	zero,zero
    4974:	00000021 	move	zero,zero
    4978:	00000021 	move	zero,zero
    497c:	00000021 	move	zero,zero
    4980:	00000021 	move	zero,zero
    4984:	00000021 	move	zero,zero
    4988:	00000021 	move	zero,zero
    498c:	00000021 	move	zero,zero
    4990:	00000021 	move	zero,zero
    4994:	3c08f242 	lui	t0,0xf242
    4998:	3508e600 	ori	t0,t0,0xe600
    499c:	0500ffee 	bltz	t0,4958 <n34_bltz_test+0x4958>
    49a0:	00000000 	nop
    49a4:	10000011 	b	49ec <n34_bltz_test+0x49ec>
    49a8:	00000000 	nop
    49ac:	00000000 	nop
    49b0:	00000021 	move	zero,zero
    49b4:	00000021 	move	zero,zero
    49b8:	00000021 	move	zero,zero
    49bc:	00000021 	move	zero,zero
    49c0:	00000021 	move	zero,zero
    49c4:	00000021 	move	zero,zero
    49c8:	00000021 	move	zero,zero
    49cc:	00000021 	move	zero,zero
    49d0:	00000021 	move	zero,zero
    49d4:	00000021 	move	zero,zero
    49d8:	00000021 	move	zero,zero
    49dc:	00000021 	move	zero,zero
    49e0:	00000021 	move	zero,zero
    49e4:	3c12a38d 	lui	s2,0xa38d
    49e8:	36522e80 	ori	s2,s2,0x2e80
    49ec:	00000000 	nop
    49f0:	3c141642 	lui	s4,0x1642
    49f4:	3694c61c 	ori	s4,s4,0xc61c
    49f8:	161418ad 	bne	s0,s4,acb0 <inst_error>
    49fc:	00000000 	nop
    4a00:	00000000 	nop
    4a04:	3c15a38d 	lui	s5,0xa38d
    4a08:	36b52e80 	ori	s5,s5,0x2e80
    4a0c:	165518a8 	bne	s2,s5,acb0 <inst_error>
    4a10:	00000000 	nop
    4a14:	00000000 	nop
    4a18:	3c0c2e48 	lui	t4,0x2e48
    4a1c:	358cda70 	ori	t4,t4,0xda70
    4a20:	3c0df45c 	lui	t5,0xf45c
    4a24:	35add83c 	ori	t5,t5,0xd83c
    4a28:	24100000 	li	s0,0
    4a2c:	10000011 	b	4a74 <n34_bltz_test+0x4a74>
    4a30:	24120000 	li	s2,0
    4a34:	00000000 	nop
    4a38:	3c102e48 	lui	s0,0x2e48
    4a3c:	05000021 	bltz	t0,4ac4 <n34_bltz_test+0x4ac4>
    4a40:	3610da70 	ori	s0,s0,0xda70
    4a44:	10000021 	b	4acc <n34_bltz_test+0x4acc>
    4a48:	00000000 	nop
    4a4c:	00000000 	nop
    4a50:	00000021 	move	zero,zero
    4a54:	00000021 	move	zero,zero
    4a58:	00000021 	move	zero,zero
    4a5c:	00000021 	move	zero,zero
    4a60:	00000021 	move	zero,zero
    4a64:	00000021 	move	zero,zero
    4a68:	00000021 	move	zero,zero
    4a6c:	00000021 	move	zero,zero
    4a70:	00000021 	move	zero,zero
    4a74:	3c084516 	lui	t0,0x4516
    4a78:	3508dde0 	ori	t0,t0,0xdde0
    4a7c:	0500ffee 	bltz	t0,4a38 <n34_bltz_test+0x4a38>
    4a80:	00000000 	nop
    4a84:	10000011 	b	4acc <n34_bltz_test+0x4acc>
    4a88:	00000000 	nop
    4a8c:	00000000 	nop
    4a90:	00000021 	move	zero,zero
    4a94:	00000021 	move	zero,zero
    4a98:	00000021 	move	zero,zero
    4a9c:	00000021 	move	zero,zero
    4aa0:	00000021 	move	zero,zero
    4aa4:	00000021 	move	zero,zero
    4aa8:	00000021 	move	zero,zero
    4aac:	00000021 	move	zero,zero
    4ab0:	00000021 	move	zero,zero
    4ab4:	00000021 	move	zero,zero
    4ab8:	00000021 	move	zero,zero
    4abc:	00000021 	move	zero,zero
    4ac0:	00000021 	move	zero,zero
    4ac4:	3c12f45c 	lui	s2,0xf45c
    4ac8:	3652d83c 	ori	s2,s2,0xd83c
    4acc:	00000000 	nop
    4ad0:	24140000 	li	s4,0
    4ad4:	16141876 	bne	s0,s4,acb0 <inst_error>
    4ad8:	00000000 	nop
    4adc:	00000000 	nop
    4ae0:	24150000 	li	s5,0
    4ae4:	16551872 	bne	s2,s5,acb0 <inst_error>
    4ae8:	00000000 	nop
    4aec:	00000000 	nop
    4af0:	3c0c508a 	lui	t4,0x508a
    4af4:	358cb548 	ori	t4,t4,0xb548
    4af8:	3c0d4808 	lui	t5,0x4808
    4afc:	35ad7640 	ori	t5,t5,0x7640
    4b00:	24100000 	li	s0,0
    4b04:	10000011 	b	4b4c <n34_bltz_test+0x4b4c>
    4b08:	24120000 	li	s2,0
    4b0c:	00000000 	nop
    4b10:	3c10508a 	lui	s0,0x508a
    4b14:	05000021 	bltz	t0,4b9c <n34_bltz_test+0x4b9c>
    4b18:	3610b548 	ori	s0,s0,0xb548
    4b1c:	10000021 	b	4ba4 <n34_bltz_test+0x4ba4>
    4b20:	00000000 	nop
    4b24:	00000000 	nop
    4b28:	00000021 	move	zero,zero
    4b2c:	00000021 	move	zero,zero
    4b30:	00000021 	move	zero,zero
    4b34:	00000021 	move	zero,zero
    4b38:	00000021 	move	zero,zero
    4b3c:	00000021 	move	zero,zero
    4b40:	00000021 	move	zero,zero
    4b44:	00000021 	move	zero,zero
    4b48:	00000021 	move	zero,zero
    4b4c:	3c0841f5 	lui	t0,0x41f5
    4b50:	35089dd8 	ori	t0,t0,0x9dd8
    4b54:	0500ffee 	bltz	t0,4b10 <n34_bltz_test+0x4b10>
    4b58:	00000000 	nop
    4b5c:	10000011 	b	4ba4 <n34_bltz_test+0x4ba4>
    4b60:	00000000 	nop
    4b64:	00000000 	nop
    4b68:	00000021 	move	zero,zero
    4b6c:	00000021 	move	zero,zero
    4b70:	00000021 	move	zero,zero
    4b74:	00000021 	move	zero,zero
    4b78:	00000021 	move	zero,zero
    4b7c:	00000021 	move	zero,zero
    4b80:	00000021 	move	zero,zero
    4b84:	00000021 	move	zero,zero
    4b88:	00000021 	move	zero,zero
    4b8c:	00000021 	move	zero,zero
    4b90:	00000021 	move	zero,zero
    4b94:	00000021 	move	zero,zero
    4b98:	00000021 	move	zero,zero
    4b9c:	3c124808 	lui	s2,0x4808
    4ba0:	36527640 	ori	s2,s2,0x7640
    4ba4:	00000000 	nop
    4ba8:	24140000 	li	s4,0
    4bac:	16141840 	bne	s0,s4,acb0 <inst_error>
    4bb0:	00000000 	nop
    4bb4:	00000000 	nop
    4bb8:	24150000 	li	s5,0
    4bbc:	1655183c 	bne	s2,s5,acb0 <inst_error>
    4bc0:	00000000 	nop
    4bc4:	00000000 	nop
    4bc8:	3c0c09eb 	lui	t4,0x9eb
    4bcc:	358cf9c4 	ori	t4,t4,0xf9c4
    4bd0:	3c0d3f48 	lui	t5,0x3f48
    4bd4:	35ad3ef0 	ori	t5,t5,0x3ef0
    4bd8:	24100000 	li	s0,0
    4bdc:	10000011 	b	4c24 <n34_bltz_test+0x4c24>
    4be0:	24120000 	li	s2,0
    4be4:	00000000 	nop
    4be8:	3c1009eb 	lui	s0,0x9eb
    4bec:	05000021 	bltz	t0,4c74 <n34_bltz_test+0x4c74>
    4bf0:	3610f9c4 	ori	s0,s0,0xf9c4
    4bf4:	10000021 	b	4c7c <n34_bltz_test+0x4c7c>
    4bf8:	00000000 	nop
    4bfc:	00000000 	nop
    4c00:	00000021 	move	zero,zero
    4c04:	00000021 	move	zero,zero
    4c08:	00000021 	move	zero,zero
    4c0c:	00000021 	move	zero,zero
    4c10:	00000021 	move	zero,zero
    4c14:	00000021 	move	zero,zero
    4c18:	00000021 	move	zero,zero
    4c1c:	00000021 	move	zero,zero
    4c20:	00000021 	move	zero,zero
    4c24:	3c0865f2 	lui	t0,0x65f2
    4c28:	35081979 	ori	t0,t0,0x1979
    4c2c:	0500ffee 	bltz	t0,4be8 <n34_bltz_test+0x4be8>
    4c30:	00000000 	nop
    4c34:	10000011 	b	4c7c <n34_bltz_test+0x4c7c>
    4c38:	00000000 	nop
    4c3c:	00000000 	nop
    4c40:	00000021 	move	zero,zero
    4c44:	00000021 	move	zero,zero
    4c48:	00000021 	move	zero,zero
    4c4c:	00000021 	move	zero,zero
    4c50:	00000021 	move	zero,zero
    4c54:	00000021 	move	zero,zero
    4c58:	00000021 	move	zero,zero
    4c5c:	00000021 	move	zero,zero
    4c60:	00000021 	move	zero,zero
    4c64:	00000021 	move	zero,zero
    4c68:	00000021 	move	zero,zero
    4c6c:	00000021 	move	zero,zero
    4c70:	00000021 	move	zero,zero
    4c74:	3c123f48 	lui	s2,0x3f48
    4c78:	36523ef0 	ori	s2,s2,0x3ef0
    4c7c:	00000000 	nop
    4c80:	24140000 	li	s4,0
    4c84:	1614180a 	bne	s0,s4,acb0 <inst_error>
    4c88:	00000000 	nop
    4c8c:	00000000 	nop
    4c90:	24150000 	li	s5,0
    4c94:	16551806 	bne	s2,s5,acb0 <inst_error>
    4c98:	00000000 	nop
    4c9c:	00000000 	nop
    4ca0:	3c0c6e9d 	lui	t4,0x6e9d
    4ca4:	358c5cda 	ori	t4,t4,0x5cda
    4ca8:	3c0d5a8d 	lui	t5,0x5a8d
    4cac:	35ad1dfe 	ori	t5,t5,0x1dfe
    4cb0:	24100000 	li	s0,0
    4cb4:	10000011 	b	4cfc <n34_bltz_test+0x4cfc>
    4cb8:	24120000 	li	s2,0
    4cbc:	00000000 	nop
    4cc0:	3c106e9d 	lui	s0,0x6e9d
    4cc4:	05000021 	bltz	t0,4d4c <n34_bltz_test+0x4d4c>
    4cc8:	36105cda 	ori	s0,s0,0x5cda
    4ccc:	10000021 	b	4d54 <n34_bltz_test+0x4d54>
    4cd0:	00000000 	nop
    4cd4:	00000000 	nop
    4cd8:	00000021 	move	zero,zero
    4cdc:	00000021 	move	zero,zero
    4ce0:	00000021 	move	zero,zero
    4ce4:	00000021 	move	zero,zero
    4ce8:	00000021 	move	zero,zero
    4cec:	00000021 	move	zero,zero
    4cf0:	00000021 	move	zero,zero
    4cf4:	00000021 	move	zero,zero
    4cf8:	00000021 	move	zero,zero
    4cfc:	3c0865b5 	lui	t0,0x65b5
    4d00:	3508bef8 	ori	t0,t0,0xbef8
    4d04:	0500ffee 	bltz	t0,4cc0 <n34_bltz_test+0x4cc0>
    4d08:	00000000 	nop
    4d0c:	10000011 	b	4d54 <n34_bltz_test+0x4d54>
    4d10:	00000000 	nop
    4d14:	00000000 	nop
    4d18:	00000021 	move	zero,zero
    4d1c:	00000021 	move	zero,zero
    4d20:	00000021 	move	zero,zero
    4d24:	00000021 	move	zero,zero
    4d28:	00000021 	move	zero,zero
    4d2c:	00000021 	move	zero,zero
    4d30:	00000021 	move	zero,zero
    4d34:	00000021 	move	zero,zero
    4d38:	00000021 	move	zero,zero
    4d3c:	00000021 	move	zero,zero
    4d40:	00000021 	move	zero,zero
    4d44:	00000021 	move	zero,zero
    4d48:	00000021 	move	zero,zero
    4d4c:	3c125a8d 	lui	s2,0x5a8d
    4d50:	36521dfe 	ori	s2,s2,0x1dfe
    4d54:	00000000 	nop
    4d58:	24140000 	li	s4,0
    4d5c:	161417d4 	bne	s0,s4,acb0 <inst_error>
    4d60:	00000000 	nop
    4d64:	00000000 	nop
    4d68:	24150000 	li	s5,0
    4d6c:	165517d0 	bne	s2,s5,acb0 <inst_error>
    4d70:	00000000 	nop
    4d74:	00000000 	nop
    4d78:	3c0c2ef6 	lui	t4,0x2ef6
    4d7c:	358cffb2 	ori	t4,t4,0xffb2
    4d80:	3c0db22d 	lui	t5,0xb22d
    4d84:	35ad5dd0 	ori	t5,t5,0x5dd0
    4d88:	24100000 	li	s0,0
    4d8c:	10000011 	b	4dd4 <n34_bltz_test+0x4dd4>
    4d90:	24120000 	li	s2,0
    4d94:	00000000 	nop
    4d98:	3c102ef6 	lui	s0,0x2ef6
    4d9c:	05000021 	bltz	t0,4e24 <n34_bltz_test+0x4e24>
    4da0:	3610ffb2 	ori	s0,s0,0xffb2
    4da4:	10000021 	b	4e2c <n34_bltz_test+0x4e2c>
    4da8:	00000000 	nop
    4dac:	00000000 	nop
    4db0:	00000021 	move	zero,zero
    4db4:	00000021 	move	zero,zero
    4db8:	00000021 	move	zero,zero
    4dbc:	00000021 	move	zero,zero
    4dc0:	00000021 	move	zero,zero
    4dc4:	00000021 	move	zero,zero
    4dc8:	00000021 	move	zero,zero
    4dcc:	00000021 	move	zero,zero
    4dd0:	00000021 	move	zero,zero
    4dd4:	3c08d6e6 	lui	t0,0xd6e6
    4dd8:	3508b0ce 	ori	t0,t0,0xb0ce
    4ddc:	0500ffee 	bltz	t0,4d98 <n34_bltz_test+0x4d98>
    4de0:	00000000 	nop
    4de4:	10000011 	b	4e2c <n34_bltz_test+0x4e2c>
    4de8:	00000000 	nop
    4dec:	00000000 	nop
    4df0:	00000021 	move	zero,zero
    4df4:	00000021 	move	zero,zero
    4df8:	00000021 	move	zero,zero
    4dfc:	00000021 	move	zero,zero
    4e00:	00000021 	move	zero,zero
    4e04:	00000021 	move	zero,zero
    4e08:	00000021 	move	zero,zero
    4e0c:	00000021 	move	zero,zero
    4e10:	00000021 	move	zero,zero
    4e14:	00000021 	move	zero,zero
    4e18:	00000021 	move	zero,zero
    4e1c:	00000021 	move	zero,zero
    4e20:	00000021 	move	zero,zero
    4e24:	3c12b22d 	lui	s2,0xb22d
    4e28:	36525dd0 	ori	s2,s2,0x5dd0
    4e2c:	00000000 	nop
    4e30:	3c142ef6 	lui	s4,0x2ef6
    4e34:	3694ffb2 	ori	s4,s4,0xffb2
    4e38:	1614179d 	bne	s0,s4,acb0 <inst_error>
    4e3c:	00000000 	nop
    4e40:	00000000 	nop
    4e44:	3c15b22d 	lui	s5,0xb22d
    4e48:	36b55dd0 	ori	s5,s5,0x5dd0
    4e4c:	16551798 	bne	s2,s5,acb0 <inst_error>
    4e50:	00000000 	nop
    4e54:	00000000 	nop
    4e58:	3c0ce46f 	lui	t4,0xe46f
    4e5c:	358c4670 	ori	t4,t4,0x4670
    4e60:	3c0dc9e5 	lui	t5,0xc9e5
    4e64:	35ad4029 	ori	t5,t5,0x4029
    4e68:	24100000 	li	s0,0
    4e6c:	10000011 	b	4eb4 <n34_bltz_test+0x4eb4>
    4e70:	24120000 	li	s2,0
    4e74:	00000000 	nop
    4e78:	3c10e46f 	lui	s0,0xe46f
    4e7c:	05000021 	bltz	t0,4f04 <n34_bltz_test+0x4f04>
    4e80:	36104670 	ori	s0,s0,0x4670
    4e84:	10000021 	b	4f0c <n34_bltz_test+0x4f0c>
    4e88:	00000000 	nop
    4e8c:	00000000 	nop
    4e90:	00000021 	move	zero,zero
    4e94:	00000021 	move	zero,zero
    4e98:	00000021 	move	zero,zero
    4e9c:	00000021 	move	zero,zero
    4ea0:	00000021 	move	zero,zero
    4ea4:	00000021 	move	zero,zero
    4ea8:	00000021 	move	zero,zero
    4eac:	00000021 	move	zero,zero
    4eb0:	00000021 	move	zero,zero
    4eb4:	3c0862be 	lui	t0,0x62be
    4eb8:	350896bc 	ori	t0,t0,0x96bc
    4ebc:	0500ffee 	bltz	t0,4e78 <n34_bltz_test+0x4e78>
    4ec0:	00000000 	nop
    4ec4:	10000011 	b	4f0c <n34_bltz_test+0x4f0c>
    4ec8:	00000000 	nop
    4ecc:	00000000 	nop
    4ed0:	00000021 	move	zero,zero
    4ed4:	00000021 	move	zero,zero
    4ed8:	00000021 	move	zero,zero
    4edc:	00000021 	move	zero,zero
    4ee0:	00000021 	move	zero,zero
    4ee4:	00000021 	move	zero,zero
    4ee8:	00000021 	move	zero,zero
    4eec:	00000021 	move	zero,zero
    4ef0:	00000021 	move	zero,zero
    4ef4:	00000021 	move	zero,zero
    4ef8:	00000021 	move	zero,zero
    4efc:	00000021 	move	zero,zero
    4f00:	00000021 	move	zero,zero
    4f04:	3c12c9e5 	lui	s2,0xc9e5
    4f08:	36524029 	ori	s2,s2,0x4029
    4f0c:	00000000 	nop
    4f10:	24140000 	li	s4,0
    4f14:	16141766 	bne	s0,s4,acb0 <inst_error>
    4f18:	00000000 	nop
    4f1c:	00000000 	nop
    4f20:	24150000 	li	s5,0
    4f24:	16551762 	bne	s2,s5,acb0 <inst_error>
    4f28:	00000000 	nop
    4f2c:	00000000 	nop
    4f30:	3c0c3b77 	lui	t4,0x3b77
    4f34:	358c78a8 	ori	t4,t4,0x78a8
    4f38:	3c0df2ba 	lui	t5,0xf2ba
    4f3c:	35ade330 	ori	t5,t5,0xe330
    4f40:	24100000 	li	s0,0
    4f44:	10000011 	b	4f8c <n34_bltz_test+0x4f8c>
    4f48:	24120000 	li	s2,0
    4f4c:	00000000 	nop
    4f50:	3c103b77 	lui	s0,0x3b77
    4f54:	05000021 	bltz	t0,4fdc <n34_bltz_test+0x4fdc>
    4f58:	361078a8 	ori	s0,s0,0x78a8
    4f5c:	10000021 	b	4fe4 <n34_bltz_test+0x4fe4>
    4f60:	00000000 	nop
    4f64:	00000000 	nop
    4f68:	00000021 	move	zero,zero
    4f6c:	00000021 	move	zero,zero
    4f70:	00000021 	move	zero,zero
    4f74:	00000021 	move	zero,zero
    4f78:	00000021 	move	zero,zero
    4f7c:	00000021 	move	zero,zero
    4f80:	00000021 	move	zero,zero
    4f84:	00000021 	move	zero,zero
    4f88:	00000021 	move	zero,zero
    4f8c:	3c084aa8 	lui	t0,0x4aa8
    4f90:	35084010 	ori	t0,t0,0x4010
    4f94:	0500ffee 	bltz	t0,4f50 <n34_bltz_test+0x4f50>
    4f98:	00000000 	nop
    4f9c:	10000011 	b	4fe4 <n34_bltz_test+0x4fe4>
    4fa0:	00000000 	nop
    4fa4:	00000000 	nop
    4fa8:	00000021 	move	zero,zero
    4fac:	00000021 	move	zero,zero
    4fb0:	00000021 	move	zero,zero
    4fb4:	00000021 	move	zero,zero
    4fb8:	00000021 	move	zero,zero
    4fbc:	00000021 	move	zero,zero
    4fc0:	00000021 	move	zero,zero
    4fc4:	00000021 	move	zero,zero
    4fc8:	00000021 	move	zero,zero
    4fcc:	00000021 	move	zero,zero
    4fd0:	00000021 	move	zero,zero
    4fd4:	00000021 	move	zero,zero
    4fd8:	00000021 	move	zero,zero
    4fdc:	3c12f2ba 	lui	s2,0xf2ba
    4fe0:	3652e330 	ori	s2,s2,0xe330
    4fe4:	00000000 	nop
    4fe8:	24140000 	li	s4,0
    4fec:	16141730 	bne	s0,s4,acb0 <inst_error>
    4ff0:	00000000 	nop
    4ff4:	00000000 	nop
    4ff8:	24150000 	li	s5,0
    4ffc:	1655172c 	bne	s2,s5,acb0 <inst_error>
    5000:	00000000 	nop
    5004:	00000000 	nop
    5008:	3c0cd830 	lui	t4,0xd830
    500c:	358c3018 	ori	t4,t4,0x3018
    5010:	3c0db12c 	lui	t5,0xb12c
    5014:	35add314 	ori	t5,t5,0xd314
    5018:	24100000 	li	s0,0
    501c:	10000011 	b	5064 <n34_bltz_test+0x5064>
    5020:	24120000 	li	s2,0
    5024:	00000000 	nop
    5028:	3c10d830 	lui	s0,0xd830
    502c:	05000021 	bltz	t0,50b4 <n34_bltz_test+0x50b4>
    5030:	36103018 	ori	s0,s0,0x3018
    5034:	10000021 	b	50bc <n34_bltz_test+0x50bc>
    5038:	00000000 	nop
    503c:	00000000 	nop
    5040:	00000021 	move	zero,zero
    5044:	00000021 	move	zero,zero
    5048:	00000021 	move	zero,zero
    504c:	00000021 	move	zero,zero
    5050:	00000021 	move	zero,zero
    5054:	00000021 	move	zero,zero
    5058:	00000021 	move	zero,zero
    505c:	00000021 	move	zero,zero
    5060:	00000021 	move	zero,zero
    5064:	3c08a594 	lui	t0,0xa594
    5068:	35083217 	ori	t0,t0,0x3217
    506c:	0500ffee 	bltz	t0,5028 <n34_bltz_test+0x5028>
    5070:	00000000 	nop
    5074:	10000011 	b	50bc <n34_bltz_test+0x50bc>
    5078:	00000000 	nop
    507c:	00000000 	nop
    5080:	00000021 	move	zero,zero
    5084:	00000021 	move	zero,zero
    5088:	00000021 	move	zero,zero
    508c:	00000021 	move	zero,zero
    5090:	00000021 	move	zero,zero
    5094:	00000021 	move	zero,zero
    5098:	00000021 	move	zero,zero
    509c:	00000021 	move	zero,zero
    50a0:	00000021 	move	zero,zero
    50a4:	00000021 	move	zero,zero
    50a8:	00000021 	move	zero,zero
    50ac:	00000021 	move	zero,zero
    50b0:	00000021 	move	zero,zero
    50b4:	3c12b12c 	lui	s2,0xb12c
    50b8:	3652d314 	ori	s2,s2,0xd314
    50bc:	00000000 	nop
    50c0:	3c14d830 	lui	s4,0xd830
    50c4:	36943018 	ori	s4,s4,0x3018
    50c8:	161416f9 	bne	s0,s4,acb0 <inst_error>
    50cc:	00000000 	nop
    50d0:	00000000 	nop
    50d4:	3c15b12c 	lui	s5,0xb12c
    50d8:	36b5d314 	ori	s5,s5,0xd314
    50dc:	165516f4 	bne	s2,s5,acb0 <inst_error>
    50e0:	00000000 	nop
    50e4:	00000000 	nop
    50e8:	3c0c9799 	lui	t4,0x9799
    50ec:	358c30dc 	ori	t4,t4,0x30dc
    50f0:	3c0dfa05 	lui	t5,0xfa05
    50f4:	35ad8170 	ori	t5,t5,0x8170
    50f8:	24100000 	li	s0,0
    50fc:	10000011 	b	5144 <n34_bltz_test+0x5144>
    5100:	24120000 	li	s2,0
    5104:	00000000 	nop
    5108:	3c109799 	lui	s0,0x9799
    510c:	05000021 	bltz	t0,5194 <n34_bltz_test+0x5194>
    5110:	361030dc 	ori	s0,s0,0x30dc
    5114:	10000021 	b	519c <n34_bltz_test+0x519c>
    5118:	00000000 	nop
    511c:	00000000 	nop
    5120:	00000021 	move	zero,zero
    5124:	00000021 	move	zero,zero
    5128:	00000021 	move	zero,zero
    512c:	00000021 	move	zero,zero
    5130:	00000021 	move	zero,zero
    5134:	00000021 	move	zero,zero
    5138:	00000021 	move	zero,zero
    513c:	00000021 	move	zero,zero
    5140:	00000021 	move	zero,zero
    5144:	3c08ff88 	lui	t0,0xff88
    5148:	35084480 	ori	t0,t0,0x4480
    514c:	0500ffee 	bltz	t0,5108 <n34_bltz_test+0x5108>
    5150:	00000000 	nop
    5154:	10000011 	b	519c <n34_bltz_test+0x519c>
    5158:	00000000 	nop
    515c:	00000000 	nop
    5160:	00000021 	move	zero,zero
    5164:	00000021 	move	zero,zero
    5168:	00000021 	move	zero,zero
    516c:	00000021 	move	zero,zero
    5170:	00000021 	move	zero,zero
    5174:	00000021 	move	zero,zero
    5178:	00000021 	move	zero,zero
    517c:	00000021 	move	zero,zero
    5180:	00000021 	move	zero,zero
    5184:	00000021 	move	zero,zero
    5188:	00000021 	move	zero,zero
    518c:	00000021 	move	zero,zero
    5190:	00000021 	move	zero,zero
    5194:	3c12fa05 	lui	s2,0xfa05
    5198:	36528170 	ori	s2,s2,0x8170
    519c:	00000000 	nop
    51a0:	3c149799 	lui	s4,0x9799
    51a4:	369430dc 	ori	s4,s4,0x30dc
    51a8:	161416c1 	bne	s0,s4,acb0 <inst_error>
    51ac:	00000000 	nop
    51b0:	00000000 	nop
    51b4:	3c15fa05 	lui	s5,0xfa05
    51b8:	36b58170 	ori	s5,s5,0x8170
    51bc:	165516bc 	bne	s2,s5,acb0 <inst_error>
    51c0:	00000000 	nop
    51c4:	00000000 	nop
    51c8:	3c0cf7c6 	lui	t4,0xf7c6
    51cc:	358c1500 	ori	t4,t4,0x1500
    51d0:	3c0d0bbe 	lui	t5,0xbbe
    51d4:	35addddc 	ori	t5,t5,0xdddc
    51d8:	24100000 	li	s0,0
    51dc:	10000011 	b	5224 <n34_bltz_test+0x5224>
    51e0:	24120000 	li	s2,0
    51e4:	00000000 	nop
    51e8:	3c10f7c6 	lui	s0,0xf7c6
    51ec:	05000021 	bltz	t0,5274 <n34_bltz_test+0x5274>
    51f0:	36101500 	ori	s0,s0,0x1500
    51f4:	10000021 	b	527c <n34_bltz_test+0x527c>
    51f8:	00000000 	nop
    51fc:	00000000 	nop
    5200:	00000021 	move	zero,zero
    5204:	00000021 	move	zero,zero
    5208:	00000021 	move	zero,zero
    520c:	00000021 	move	zero,zero
    5210:	00000021 	move	zero,zero
    5214:	00000021 	move	zero,zero
    5218:	00000021 	move	zero,zero
    521c:	00000021 	move	zero,zero
    5220:	00000021 	move	zero,zero
    5224:	3c08b770 	lui	t0,0xb770
    5228:	35081bc6 	ori	t0,t0,0x1bc6
    522c:	0500ffee 	bltz	t0,51e8 <n34_bltz_test+0x51e8>
    5230:	00000000 	nop
    5234:	10000011 	b	527c <n34_bltz_test+0x527c>
    5238:	00000000 	nop
    523c:	00000000 	nop
    5240:	00000021 	move	zero,zero
    5244:	00000021 	move	zero,zero
    5248:	00000021 	move	zero,zero
    524c:	00000021 	move	zero,zero
    5250:	00000021 	move	zero,zero
    5254:	00000021 	move	zero,zero
    5258:	00000021 	move	zero,zero
    525c:	00000021 	move	zero,zero
    5260:	00000021 	move	zero,zero
    5264:	00000021 	move	zero,zero
    5268:	00000021 	move	zero,zero
    526c:	00000021 	move	zero,zero
    5270:	00000021 	move	zero,zero
    5274:	3c120bbe 	lui	s2,0xbbe
    5278:	3652dddc 	ori	s2,s2,0xdddc
    527c:	00000000 	nop
    5280:	3c14f7c6 	lui	s4,0xf7c6
    5284:	36941500 	ori	s4,s4,0x1500
    5288:	16141689 	bne	s0,s4,acb0 <inst_error>
    528c:	00000000 	nop
    5290:	00000000 	nop
    5294:	3c150bbe 	lui	s5,0xbbe
    5298:	36b5dddc 	ori	s5,s5,0xdddc
    529c:	16551684 	bne	s2,s5,acb0 <inst_error>
    52a0:	00000000 	nop
    52a4:	00000000 	nop
    52a8:	3c0c4a9a 	lui	t4,0x4a9a
    52ac:	358cb34c 	ori	t4,t4,0xb34c
    52b0:	3c0d7cb4 	lui	t5,0x7cb4
    52b4:	35ad0e1c 	ori	t5,t5,0xe1c
    52b8:	24100000 	li	s0,0
    52bc:	10000011 	b	5304 <n34_bltz_test+0x5304>
    52c0:	24120000 	li	s2,0
    52c4:	00000000 	nop
    52c8:	3c104a9a 	lui	s0,0x4a9a
    52cc:	05000021 	bltz	t0,5354 <n34_bltz_test+0x5354>
    52d0:	3610b34c 	ori	s0,s0,0xb34c
    52d4:	10000021 	b	535c <n34_bltz_test+0x535c>
    52d8:	00000000 	nop
    52dc:	00000000 	nop
    52e0:	00000021 	move	zero,zero
    52e4:	00000021 	move	zero,zero
    52e8:	00000021 	move	zero,zero
    52ec:	00000021 	move	zero,zero
    52f0:	00000021 	move	zero,zero
    52f4:	00000021 	move	zero,zero
    52f8:	00000021 	move	zero,zero
    52fc:	00000021 	move	zero,zero
    5300:	00000021 	move	zero,zero
    5304:	3c08cce1 	lui	t0,0xcce1
    5308:	3508c6fc 	ori	t0,t0,0xc6fc
    530c:	0500ffee 	bltz	t0,52c8 <n34_bltz_test+0x52c8>
    5310:	00000000 	nop
    5314:	10000011 	b	535c <n34_bltz_test+0x535c>
    5318:	00000000 	nop
    531c:	00000000 	nop
    5320:	00000021 	move	zero,zero
    5324:	00000021 	move	zero,zero
    5328:	00000021 	move	zero,zero
    532c:	00000021 	move	zero,zero
    5330:	00000021 	move	zero,zero
    5334:	00000021 	move	zero,zero
    5338:	00000021 	move	zero,zero
    533c:	00000021 	move	zero,zero
    5340:	00000021 	move	zero,zero
    5344:	00000021 	move	zero,zero
    5348:	00000021 	move	zero,zero
    534c:	00000021 	move	zero,zero
    5350:	00000021 	move	zero,zero
    5354:	3c127cb4 	lui	s2,0x7cb4
    5358:	36520e1c 	ori	s2,s2,0xe1c
    535c:	00000000 	nop
    5360:	3c144a9a 	lui	s4,0x4a9a
    5364:	3694b34c 	ori	s4,s4,0xb34c
    5368:	16141651 	bne	s0,s4,acb0 <inst_error>
    536c:	00000000 	nop
    5370:	00000000 	nop
    5374:	3c157cb4 	lui	s5,0x7cb4
    5378:	36b50e1c 	ori	s5,s5,0xe1c
    537c:	1655164c 	bne	s2,s5,acb0 <inst_error>
    5380:	00000000 	nop
    5384:	00000000 	nop
    5388:	3c0c2af3 	lui	t4,0x2af3
    538c:	358c319c 	ori	t4,t4,0x319c
    5390:	3c0d5340 	lui	t5,0x5340
    5394:	35ad1ab0 	ori	t5,t5,0x1ab0
    5398:	24100000 	li	s0,0
    539c:	10000011 	b	53e4 <n34_bltz_test+0x53e4>
    53a0:	24120000 	li	s2,0
    53a4:	00000000 	nop
    53a8:	3c102af3 	lui	s0,0x2af3
    53ac:	05000021 	bltz	t0,5434 <n34_bltz_test+0x5434>
    53b0:	3610319c 	ori	s0,s0,0x319c
    53b4:	10000021 	b	543c <n34_bltz_test+0x543c>
    53b8:	00000000 	nop
    53bc:	00000000 	nop
    53c0:	00000021 	move	zero,zero
    53c4:	00000021 	move	zero,zero
    53c8:	00000021 	move	zero,zero
    53cc:	00000021 	move	zero,zero
    53d0:	00000021 	move	zero,zero
    53d4:	00000021 	move	zero,zero
    53d8:	00000021 	move	zero,zero
    53dc:	00000021 	move	zero,zero
    53e0:	00000021 	move	zero,zero
    53e4:	3c0843b2 	lui	t0,0x43b2
    53e8:	3508fbcc 	ori	t0,t0,0xfbcc
    53ec:	0500ffee 	bltz	t0,53a8 <n34_bltz_test+0x53a8>
    53f0:	00000000 	nop
    53f4:	10000011 	b	543c <n34_bltz_test+0x543c>
    53f8:	00000000 	nop
    53fc:	00000000 	nop
    5400:	00000021 	move	zero,zero
    5404:	00000021 	move	zero,zero
    5408:	00000021 	move	zero,zero
    540c:	00000021 	move	zero,zero
    5410:	00000021 	move	zero,zero
    5414:	00000021 	move	zero,zero
    5418:	00000021 	move	zero,zero
    541c:	00000021 	move	zero,zero
    5420:	00000021 	move	zero,zero
    5424:	00000021 	move	zero,zero
    5428:	00000021 	move	zero,zero
    542c:	00000021 	move	zero,zero
    5430:	00000021 	move	zero,zero
    5434:	3c125340 	lui	s2,0x5340
    5438:	36521ab0 	ori	s2,s2,0x1ab0
    543c:	00000000 	nop
    5440:	24140000 	li	s4,0
    5444:	1614161a 	bne	s0,s4,acb0 <inst_error>
    5448:	00000000 	nop
    544c:	00000000 	nop
    5450:	24150000 	li	s5,0
    5454:	16551616 	bne	s2,s5,acb0 <inst_error>
    5458:	00000000 	nop
    545c:	00000000 	nop
    5460:	3c0c88d8 	lui	t4,0x88d8
    5464:	358c0444 	ori	t4,t4,0x444
    5468:	3c0d5f60 	lui	t5,0x5f60
    546c:	35ad63fd 	ori	t5,t5,0x63fd
    5470:	24100000 	li	s0,0
    5474:	10000011 	b	54bc <n34_bltz_test+0x54bc>
    5478:	24120000 	li	s2,0
    547c:	00000000 	nop
    5480:	3c1088d8 	lui	s0,0x88d8
    5484:	05000021 	bltz	t0,550c <n34_bltz_test+0x550c>
    5488:	36100444 	ori	s0,s0,0x444
    548c:	10000021 	b	5514 <n34_bltz_test+0x5514>
    5490:	00000000 	nop
    5494:	00000000 	nop
    5498:	00000021 	move	zero,zero
    549c:	00000021 	move	zero,zero
    54a0:	00000021 	move	zero,zero
    54a4:	00000021 	move	zero,zero
    54a8:	00000021 	move	zero,zero
    54ac:	00000021 	move	zero,zero
    54b0:	00000021 	move	zero,zero
    54b4:	00000021 	move	zero,zero
    54b8:	00000021 	move	zero,zero
    54bc:	3c0856ee 	lui	t0,0x56ee
    54c0:	3508e46f 	ori	t0,t0,0xe46f
    54c4:	0500ffee 	bltz	t0,5480 <n34_bltz_test+0x5480>
    54c8:	00000000 	nop
    54cc:	10000011 	b	5514 <n34_bltz_test+0x5514>
    54d0:	00000000 	nop
    54d4:	00000000 	nop
    54d8:	00000021 	move	zero,zero
    54dc:	00000021 	move	zero,zero
    54e0:	00000021 	move	zero,zero
    54e4:	00000021 	move	zero,zero
    54e8:	00000021 	move	zero,zero
    54ec:	00000021 	move	zero,zero
    54f0:	00000021 	move	zero,zero
    54f4:	00000021 	move	zero,zero
    54f8:	00000021 	move	zero,zero
    54fc:	00000021 	move	zero,zero
    5500:	00000021 	move	zero,zero
    5504:	00000021 	move	zero,zero
    5508:	00000021 	move	zero,zero
    550c:	3c125f60 	lui	s2,0x5f60
    5510:	365263fd 	ori	s2,s2,0x63fd
    5514:	00000000 	nop
    5518:	24140000 	li	s4,0
    551c:	161415e4 	bne	s0,s4,acb0 <inst_error>
    5520:	00000000 	nop
    5524:	00000000 	nop
    5528:	24150000 	li	s5,0
    552c:	165515e0 	bne	s2,s5,acb0 <inst_error>
    5530:	00000000 	nop
    5534:	00000000 	nop
    5538:	3c0c41f8 	lui	t4,0x41f8
    553c:	358c7d74 	ori	t4,t4,0x7d74
    5540:	3c0df104 	lui	t5,0xf104
    5544:	35ad1e93 	ori	t5,t5,0x1e93
    5548:	24100000 	li	s0,0
    554c:	10000011 	b	5594 <n34_bltz_test+0x5594>
    5550:	24120000 	li	s2,0
    5554:	00000000 	nop
    5558:	3c1041f8 	lui	s0,0x41f8
    555c:	05000021 	bltz	t0,55e4 <n34_bltz_test+0x55e4>
    5560:	36107d74 	ori	s0,s0,0x7d74
    5564:	10000021 	b	55ec <n34_bltz_test+0x55ec>
    5568:	00000000 	nop
    556c:	00000000 	nop
    5570:	00000021 	move	zero,zero
    5574:	00000021 	move	zero,zero
    5578:	00000021 	move	zero,zero
    557c:	00000021 	move	zero,zero
    5580:	00000021 	move	zero,zero
    5584:	00000021 	move	zero,zero
    5588:	00000021 	move	zero,zero
    558c:	00000021 	move	zero,zero
    5590:	00000021 	move	zero,zero
    5594:	3c082b3d 	lui	t0,0x2b3d
    5598:	3508a200 	ori	t0,t0,0xa200
    559c:	0500ffee 	bltz	t0,5558 <n34_bltz_test+0x5558>
    55a0:	00000000 	nop
    55a4:	10000011 	b	55ec <n34_bltz_test+0x55ec>
    55a8:	00000000 	nop
    55ac:	00000000 	nop
    55b0:	00000021 	move	zero,zero
    55b4:	00000021 	move	zero,zero
    55b8:	00000021 	move	zero,zero
    55bc:	00000021 	move	zero,zero
    55c0:	00000021 	move	zero,zero
    55c4:	00000021 	move	zero,zero
    55c8:	00000021 	move	zero,zero
    55cc:	00000021 	move	zero,zero
    55d0:	00000021 	move	zero,zero
    55d4:	00000021 	move	zero,zero
    55d8:	00000021 	move	zero,zero
    55dc:	00000021 	move	zero,zero
    55e0:	00000021 	move	zero,zero
    55e4:	3c12f104 	lui	s2,0xf104
    55e8:	36521e93 	ori	s2,s2,0x1e93
    55ec:	00000000 	nop
    55f0:	24140000 	li	s4,0
    55f4:	161415ae 	bne	s0,s4,acb0 <inst_error>
    55f8:	00000000 	nop
    55fc:	00000000 	nop
    5600:	24150000 	li	s5,0
    5604:	165515aa 	bne	s2,s5,acb0 <inst_error>
    5608:	00000000 	nop
    560c:	00000000 	nop
    5610:	3c0c5dc7 	lui	t4,0x5dc7
    5614:	358ce9d6 	ori	t4,t4,0xe9d6
    5618:	3c0dc9af 	lui	t5,0xc9af
    561c:	35adf608 	ori	t5,t5,0xf608
    5620:	24100000 	li	s0,0
    5624:	10000011 	b	566c <n34_bltz_test+0x566c>
    5628:	24120000 	li	s2,0
    562c:	00000000 	nop
    5630:	3c105dc7 	lui	s0,0x5dc7
    5634:	05000021 	bltz	t0,56bc <n34_bltz_test+0x56bc>
    5638:	3610e9d6 	ori	s0,s0,0xe9d6
    563c:	10000021 	b	56c4 <n34_bltz_test+0x56c4>
    5640:	00000000 	nop
    5644:	00000000 	nop
    5648:	00000021 	move	zero,zero
    564c:	00000021 	move	zero,zero
    5650:	00000021 	move	zero,zero
    5654:	00000021 	move	zero,zero
    5658:	00000021 	move	zero,zero
    565c:	00000021 	move	zero,zero
    5660:	00000021 	move	zero,zero
    5664:	00000021 	move	zero,zero
    5668:	00000021 	move	zero,zero
    566c:	3c08e89e 	lui	t0,0xe89e
    5670:	3508e957 	ori	t0,t0,0xe957
    5674:	0500ffee 	bltz	t0,5630 <n34_bltz_test+0x5630>
    5678:	00000000 	nop
    567c:	10000011 	b	56c4 <n34_bltz_test+0x56c4>
    5680:	00000000 	nop
    5684:	00000000 	nop
    5688:	00000021 	move	zero,zero
    568c:	00000021 	move	zero,zero
    5690:	00000021 	move	zero,zero
    5694:	00000021 	move	zero,zero
    5698:	00000021 	move	zero,zero
    569c:	00000021 	move	zero,zero
    56a0:	00000021 	move	zero,zero
    56a4:	00000021 	move	zero,zero
    56a8:	00000021 	move	zero,zero
    56ac:	00000021 	move	zero,zero
    56b0:	00000021 	move	zero,zero
    56b4:	00000021 	move	zero,zero
    56b8:	00000021 	move	zero,zero
    56bc:	3c12c9af 	lui	s2,0xc9af
    56c0:	3652f608 	ori	s2,s2,0xf608
    56c4:	00000000 	nop
    56c8:	3c145dc7 	lui	s4,0x5dc7
    56cc:	3694e9d6 	ori	s4,s4,0xe9d6
    56d0:	16141577 	bne	s0,s4,acb0 <inst_error>
    56d4:	00000000 	nop
    56d8:	00000000 	nop
    56dc:	3c15c9af 	lui	s5,0xc9af
    56e0:	36b5f608 	ori	s5,s5,0xf608
    56e4:	16551572 	bne	s2,s5,acb0 <inst_error>
    56e8:	00000000 	nop
    56ec:	00000000 	nop
    56f0:	3c0cbaa8 	lui	t4,0xbaa8
    56f4:	358ce578 	ori	t4,t4,0xe578
    56f8:	3c0d2bbc 	lui	t5,0x2bbc
    56fc:	35adae47 	ori	t5,t5,0xae47
    5700:	24100000 	li	s0,0
    5704:	10000011 	b	574c <n34_bltz_test+0x574c>
    5708:	24120000 	li	s2,0
    570c:	00000000 	nop
    5710:	3c10baa8 	lui	s0,0xbaa8
    5714:	05000021 	bltz	t0,579c <n34_bltz_test+0x579c>
    5718:	3610e578 	ori	s0,s0,0xe578
    571c:	10000021 	b	57a4 <n34_bltz_test+0x57a4>
    5720:	00000000 	nop
    5724:	00000000 	nop
    5728:	00000021 	move	zero,zero
    572c:	00000021 	move	zero,zero
    5730:	00000021 	move	zero,zero
    5734:	00000021 	move	zero,zero
    5738:	00000021 	move	zero,zero
    573c:	00000021 	move	zero,zero
    5740:	00000021 	move	zero,zero
    5744:	00000021 	move	zero,zero
    5748:	00000021 	move	zero,zero
    574c:	3c086b55 	lui	t0,0x6b55
    5750:	350849a0 	ori	t0,t0,0x49a0
    5754:	0500ffee 	bltz	t0,5710 <n34_bltz_test+0x5710>
    5758:	00000000 	nop
    575c:	10000011 	b	57a4 <n34_bltz_test+0x57a4>
    5760:	00000000 	nop
    5764:	00000000 	nop
    5768:	00000021 	move	zero,zero
    576c:	00000021 	move	zero,zero
    5770:	00000021 	move	zero,zero
    5774:	00000021 	move	zero,zero
    5778:	00000021 	move	zero,zero
    577c:	00000021 	move	zero,zero
    5780:	00000021 	move	zero,zero
    5784:	00000021 	move	zero,zero
    5788:	00000021 	move	zero,zero
    578c:	00000021 	move	zero,zero
    5790:	00000021 	move	zero,zero
    5794:	00000021 	move	zero,zero
    5798:	00000021 	move	zero,zero
    579c:	3c122bbc 	lui	s2,0x2bbc
    57a0:	3652ae47 	ori	s2,s2,0xae47
    57a4:	00000000 	nop
    57a8:	24140000 	li	s4,0
    57ac:	16141540 	bne	s0,s4,acb0 <inst_error>
    57b0:	00000000 	nop
    57b4:	00000000 	nop
    57b8:	24150000 	li	s5,0
    57bc:	1655153c 	bne	s2,s5,acb0 <inst_error>
    57c0:	00000000 	nop
    57c4:	00000000 	nop
    57c8:	3c0c83b9 	lui	t4,0x83b9
    57cc:	358cbf88 	ori	t4,t4,0xbf88
    57d0:	3c0d789e 	lui	t5,0x789e
    57d4:	35ad3a64 	ori	t5,t5,0x3a64
    57d8:	24100000 	li	s0,0
    57dc:	10000011 	b	5824 <n34_bltz_test+0x5824>
    57e0:	24120000 	li	s2,0
    57e4:	00000000 	nop
    57e8:	3c1083b9 	lui	s0,0x83b9
    57ec:	05000021 	bltz	t0,5874 <n34_bltz_test+0x5874>
    57f0:	3610bf88 	ori	s0,s0,0xbf88
    57f4:	10000021 	b	587c <n34_bltz_test+0x587c>
    57f8:	00000000 	nop
    57fc:	00000000 	nop
    5800:	00000021 	move	zero,zero
    5804:	00000021 	move	zero,zero
    5808:	00000021 	move	zero,zero
    580c:	00000021 	move	zero,zero
    5810:	00000021 	move	zero,zero
    5814:	00000021 	move	zero,zero
    5818:	00000021 	move	zero,zero
    581c:	00000021 	move	zero,zero
    5820:	00000021 	move	zero,zero
    5824:	3c081237 	lui	t0,0x1237
    5828:	35083880 	ori	t0,t0,0x3880
    582c:	0500ffee 	bltz	t0,57e8 <n34_bltz_test+0x57e8>
    5830:	00000000 	nop
    5834:	10000011 	b	587c <n34_bltz_test+0x587c>
    5838:	00000000 	nop
    583c:	00000000 	nop
    5840:	00000021 	move	zero,zero
    5844:	00000021 	move	zero,zero
    5848:	00000021 	move	zero,zero
    584c:	00000021 	move	zero,zero
    5850:	00000021 	move	zero,zero
    5854:	00000021 	move	zero,zero
    5858:	00000021 	move	zero,zero
    585c:	00000021 	move	zero,zero
    5860:	00000021 	move	zero,zero
    5864:	00000021 	move	zero,zero
    5868:	00000021 	move	zero,zero
    586c:	00000021 	move	zero,zero
    5870:	00000021 	move	zero,zero
    5874:	3c12789e 	lui	s2,0x789e
    5878:	36523a64 	ori	s2,s2,0x3a64
    587c:	00000000 	nop
    5880:	24140000 	li	s4,0
    5884:	1614150a 	bne	s0,s4,acb0 <inst_error>
    5888:	00000000 	nop
    588c:	00000000 	nop
    5890:	24150000 	li	s5,0
    5894:	16551506 	bne	s2,s5,acb0 <inst_error>
    5898:	00000000 	nop
    589c:	00000000 	nop
    58a0:	3c0c562b 	lui	t4,0x562b
    58a4:	358c9778 	ori	t4,t4,0x9778
    58a8:	3c0deb56 	lui	t5,0xeb56
    58ac:	35ad0a9c 	ori	t5,t5,0xa9c
    58b0:	24100000 	li	s0,0
    58b4:	10000011 	b	58fc <n34_bltz_test+0x58fc>
    58b8:	24120000 	li	s2,0
    58bc:	00000000 	nop
    58c0:	3c10562b 	lui	s0,0x562b
    58c4:	05000021 	bltz	t0,594c <n34_bltz_test+0x594c>
    58c8:	36109778 	ori	s0,s0,0x9778
    58cc:	10000021 	b	5954 <n34_bltz_test+0x5954>
    58d0:	00000000 	nop
    58d4:	00000000 	nop
    58d8:	00000021 	move	zero,zero
    58dc:	00000021 	move	zero,zero
    58e0:	00000021 	move	zero,zero
    58e4:	00000021 	move	zero,zero
    58e8:	00000021 	move	zero,zero
    58ec:	00000021 	move	zero,zero
    58f0:	00000021 	move	zero,zero
    58f4:	00000021 	move	zero,zero
    58f8:	00000021 	move	zero,zero
    58fc:	3c0809e7 	lui	t0,0x9e7
    5900:	35080922 	ori	t0,t0,0x922
    5904:	0500ffee 	bltz	t0,58c0 <n34_bltz_test+0x58c0>
    5908:	00000000 	nop
    590c:	10000011 	b	5954 <n34_bltz_test+0x5954>
    5910:	00000000 	nop
    5914:	00000000 	nop
    5918:	00000021 	move	zero,zero
    591c:	00000021 	move	zero,zero
    5920:	00000021 	move	zero,zero
    5924:	00000021 	move	zero,zero
    5928:	00000021 	move	zero,zero
    592c:	00000021 	move	zero,zero
    5930:	00000021 	move	zero,zero
    5934:	00000021 	move	zero,zero
    5938:	00000021 	move	zero,zero
    593c:	00000021 	move	zero,zero
    5940:	00000021 	move	zero,zero
    5944:	00000021 	move	zero,zero
    5948:	00000021 	move	zero,zero
    594c:	3c12eb56 	lui	s2,0xeb56
    5950:	36520a9c 	ori	s2,s2,0xa9c
    5954:	00000000 	nop
    5958:	24140000 	li	s4,0
    595c:	161414d4 	bne	s0,s4,acb0 <inst_error>
    5960:	00000000 	nop
    5964:	00000000 	nop
    5968:	24150000 	li	s5,0
    596c:	165514d0 	bne	s2,s5,acb0 <inst_error>
    5970:	00000000 	nop
    5974:	00000000 	nop
    5978:	3c0c57ff 	lui	t4,0x57ff
    597c:	358c0cf8 	ori	t4,t4,0xcf8
    5980:	3c0d73af 	lui	t5,0x73af
    5984:	35ad1b80 	ori	t5,t5,0x1b80
    5988:	24100000 	li	s0,0
    598c:	10000011 	b	59d4 <n34_bltz_test+0x59d4>
    5990:	24120000 	li	s2,0
    5994:	00000000 	nop
    5998:	3c1057ff 	lui	s0,0x57ff
    599c:	05000021 	bltz	t0,5a24 <n34_bltz_test+0x5a24>
    59a0:	36100cf8 	ori	s0,s0,0xcf8
    59a4:	10000021 	b	5a2c <n34_bltz_test+0x5a2c>
    59a8:	00000000 	nop
    59ac:	00000000 	nop
    59b0:	00000021 	move	zero,zero
    59b4:	00000021 	move	zero,zero
    59b8:	00000021 	move	zero,zero
    59bc:	00000021 	move	zero,zero
    59c0:	00000021 	move	zero,zero
    59c4:	00000021 	move	zero,zero
    59c8:	00000021 	move	zero,zero
    59cc:	00000021 	move	zero,zero
    59d0:	00000021 	move	zero,zero
    59d4:	3c088d56 	lui	t0,0x8d56
    59d8:	3508e0f2 	ori	t0,t0,0xe0f2
    59dc:	0500ffee 	bltz	t0,5998 <n34_bltz_test+0x5998>
    59e0:	00000000 	nop
    59e4:	10000011 	b	5a2c <n34_bltz_test+0x5a2c>
    59e8:	00000000 	nop
    59ec:	00000000 	nop
    59f0:	00000021 	move	zero,zero
    59f4:	00000021 	move	zero,zero
    59f8:	00000021 	move	zero,zero
    59fc:	00000021 	move	zero,zero
    5a00:	00000021 	move	zero,zero
    5a04:	00000021 	move	zero,zero
    5a08:	00000021 	move	zero,zero
    5a0c:	00000021 	move	zero,zero
    5a10:	00000021 	move	zero,zero
    5a14:	00000021 	move	zero,zero
    5a18:	00000021 	move	zero,zero
    5a1c:	00000021 	move	zero,zero
    5a20:	00000021 	move	zero,zero
    5a24:	3c1273af 	lui	s2,0x73af
    5a28:	36521b80 	ori	s2,s2,0x1b80
    5a2c:	00000000 	nop
    5a30:	3c1457ff 	lui	s4,0x57ff
    5a34:	36940cf8 	ori	s4,s4,0xcf8
    5a38:	1614149d 	bne	s0,s4,acb0 <inst_error>
    5a3c:	00000000 	nop
    5a40:	00000000 	nop
    5a44:	3c1573af 	lui	s5,0x73af
    5a48:	36b51b80 	ori	s5,s5,0x1b80
    5a4c:	16551498 	bne	s2,s5,acb0 <inst_error>
    5a50:	00000000 	nop
    5a54:	00000000 	nop
    5a58:	3c0c61fc 	lui	t4,0x61fc
    5a5c:	358cd0d4 	ori	t4,t4,0xd0d4
    5a60:	3c0d5606 	lui	t5,0x5606
    5a64:	35ad1ea0 	ori	t5,t5,0x1ea0
    5a68:	24100000 	li	s0,0
    5a6c:	10000011 	b	5ab4 <n34_bltz_test+0x5ab4>
    5a70:	24120000 	li	s2,0
    5a74:	00000000 	nop
    5a78:	3c1061fc 	lui	s0,0x61fc
    5a7c:	05000021 	bltz	t0,5b04 <n34_bltz_test+0x5b04>
    5a80:	3610d0d4 	ori	s0,s0,0xd0d4
    5a84:	10000021 	b	5b0c <n34_bltz_test+0x5b0c>
    5a88:	00000000 	nop
    5a8c:	00000000 	nop
    5a90:	00000021 	move	zero,zero
    5a94:	00000021 	move	zero,zero
    5a98:	00000021 	move	zero,zero
    5a9c:	00000021 	move	zero,zero
    5aa0:	00000021 	move	zero,zero
    5aa4:	00000021 	move	zero,zero
    5aa8:	00000021 	move	zero,zero
    5aac:	00000021 	move	zero,zero
    5ab0:	00000021 	move	zero,zero
    5ab4:	3c081034 	lui	t0,0x1034
    5ab8:	350851f7 	ori	t0,t0,0x51f7
    5abc:	0500ffee 	bltz	t0,5a78 <n34_bltz_test+0x5a78>
    5ac0:	00000000 	nop
    5ac4:	10000011 	b	5b0c <n34_bltz_test+0x5b0c>
    5ac8:	00000000 	nop
    5acc:	00000000 	nop
    5ad0:	00000021 	move	zero,zero
    5ad4:	00000021 	move	zero,zero
    5ad8:	00000021 	move	zero,zero
    5adc:	00000021 	move	zero,zero
    5ae0:	00000021 	move	zero,zero
    5ae4:	00000021 	move	zero,zero
    5ae8:	00000021 	move	zero,zero
    5aec:	00000021 	move	zero,zero
    5af0:	00000021 	move	zero,zero
    5af4:	00000021 	move	zero,zero
    5af8:	00000021 	move	zero,zero
    5afc:	00000021 	move	zero,zero
    5b00:	00000021 	move	zero,zero
    5b04:	3c125606 	lui	s2,0x5606
    5b08:	36521ea0 	ori	s2,s2,0x1ea0
    5b0c:	00000000 	nop
    5b10:	24140000 	li	s4,0
    5b14:	16141466 	bne	s0,s4,acb0 <inst_error>
    5b18:	00000000 	nop
    5b1c:	00000000 	nop
    5b20:	24150000 	li	s5,0
    5b24:	16551462 	bne	s2,s5,acb0 <inst_error>
    5b28:	00000000 	nop
    5b2c:	00000000 	nop
    5b30:	3c0c3809 	lui	t4,0x3809
    5b34:	358c112c 	ori	t4,t4,0x112c
    5b38:	3c0d2898 	lui	t5,0x2898
    5b3c:	35ad83b2 	ori	t5,t5,0x83b2
    5b40:	24100000 	li	s0,0
    5b44:	10000011 	b	5b8c <n34_bltz_test+0x5b8c>
    5b48:	24120000 	li	s2,0
    5b4c:	00000000 	nop
    5b50:	3c103809 	lui	s0,0x3809
    5b54:	05000021 	bltz	t0,5bdc <n34_bltz_test+0x5bdc>
    5b58:	3610112c 	ori	s0,s0,0x112c
    5b5c:	10000021 	b	5be4 <n34_bltz_test+0x5be4>
    5b60:	00000000 	nop
    5b64:	00000000 	nop
    5b68:	00000021 	move	zero,zero
    5b6c:	00000021 	move	zero,zero
    5b70:	00000021 	move	zero,zero
    5b74:	00000021 	move	zero,zero
    5b78:	00000021 	move	zero,zero
    5b7c:	00000021 	move	zero,zero
    5b80:	00000021 	move	zero,zero
    5b84:	00000021 	move	zero,zero
    5b88:	00000021 	move	zero,zero
    5b8c:	3c084a6f 	lui	t0,0x4a6f
    5b90:	3508a38c 	ori	t0,t0,0xa38c
    5b94:	0500ffee 	bltz	t0,5b50 <n34_bltz_test+0x5b50>
    5b98:	00000000 	nop
    5b9c:	10000011 	b	5be4 <n34_bltz_test+0x5be4>
    5ba0:	00000000 	nop
    5ba4:	00000000 	nop
    5ba8:	00000021 	move	zero,zero
    5bac:	00000021 	move	zero,zero
    5bb0:	00000021 	move	zero,zero
    5bb4:	00000021 	move	zero,zero
    5bb8:	00000021 	move	zero,zero
    5bbc:	00000021 	move	zero,zero
    5bc0:	00000021 	move	zero,zero
    5bc4:	00000021 	move	zero,zero
    5bc8:	00000021 	move	zero,zero
    5bcc:	00000021 	move	zero,zero
    5bd0:	00000021 	move	zero,zero
    5bd4:	00000021 	move	zero,zero
    5bd8:	00000021 	move	zero,zero
    5bdc:	3c122898 	lui	s2,0x2898
    5be0:	365283b2 	ori	s2,s2,0x83b2
    5be4:	00000000 	nop
    5be8:	24140000 	li	s4,0
    5bec:	16141430 	bne	s0,s4,acb0 <inst_error>
    5bf0:	00000000 	nop
    5bf4:	00000000 	nop
    5bf8:	24150000 	li	s5,0
    5bfc:	1655142c 	bne	s2,s5,acb0 <inst_error>
    5c00:	00000000 	nop
    5c04:	00000000 	nop
    5c08:	3c0c9f2a 	lui	t4,0x9f2a
    5c0c:	358cf260 	ori	t4,t4,0xf260
    5c10:	3c0d4a0f 	lui	t5,0x4a0f
    5c14:	35ad0974 	ori	t5,t5,0x974
    5c18:	24100000 	li	s0,0
    5c1c:	10000011 	b	5c64 <n34_bltz_test+0x5c64>
    5c20:	24120000 	li	s2,0
    5c24:	00000000 	nop
    5c28:	3c109f2a 	lui	s0,0x9f2a
    5c2c:	05000021 	bltz	t0,5cb4 <n34_bltz_test+0x5cb4>
    5c30:	3610f260 	ori	s0,s0,0xf260
    5c34:	10000021 	b	5cbc <n34_bltz_test+0x5cbc>
    5c38:	00000000 	nop
    5c3c:	00000000 	nop
    5c40:	00000021 	move	zero,zero
    5c44:	00000021 	move	zero,zero
    5c48:	00000021 	move	zero,zero
    5c4c:	00000021 	move	zero,zero
    5c50:	00000021 	move	zero,zero
    5c54:	00000021 	move	zero,zero
    5c58:	00000021 	move	zero,zero
    5c5c:	00000021 	move	zero,zero
    5c60:	00000021 	move	zero,zero
    5c64:	3c08ac33 	lui	t0,0xac33
    5c68:	35085600 	ori	t0,t0,0x5600
    5c6c:	0500ffee 	bltz	t0,5c28 <n34_bltz_test+0x5c28>
    5c70:	00000000 	nop
    5c74:	10000011 	b	5cbc <n34_bltz_test+0x5cbc>
    5c78:	00000000 	nop
    5c7c:	00000000 	nop
    5c80:	00000021 	move	zero,zero
    5c84:	00000021 	move	zero,zero
    5c88:	00000021 	move	zero,zero
    5c8c:	00000021 	move	zero,zero
    5c90:	00000021 	move	zero,zero
    5c94:	00000021 	move	zero,zero
    5c98:	00000021 	move	zero,zero
    5c9c:	00000021 	move	zero,zero
    5ca0:	00000021 	move	zero,zero
    5ca4:	00000021 	move	zero,zero
    5ca8:	00000021 	move	zero,zero
    5cac:	00000021 	move	zero,zero
    5cb0:	00000021 	move	zero,zero
    5cb4:	3c124a0f 	lui	s2,0x4a0f
    5cb8:	36520974 	ori	s2,s2,0x974
    5cbc:	00000000 	nop
    5cc0:	3c149f2a 	lui	s4,0x9f2a
    5cc4:	3694f260 	ori	s4,s4,0xf260
    5cc8:	161413f9 	bne	s0,s4,acb0 <inst_error>
    5ccc:	00000000 	nop
    5cd0:	00000000 	nop
    5cd4:	3c154a0f 	lui	s5,0x4a0f
    5cd8:	36b50974 	ori	s5,s5,0x974
    5cdc:	165513f4 	bne	s2,s5,acb0 <inst_error>
    5ce0:	00000000 	nop
    5ce4:	00000000 	nop
    5ce8:	3c0c3410 	lui	t4,0x3410
    5cec:	358c25a2 	ori	t4,t4,0x25a2
    5cf0:	3c0d9946 	lui	t5,0x9946
    5cf4:	35ad87d6 	ori	t5,t5,0x87d6
    5cf8:	24100000 	li	s0,0
    5cfc:	10000011 	b	5d44 <n34_bltz_test+0x5d44>
    5d00:	24120000 	li	s2,0
    5d04:	00000000 	nop
    5d08:	3c103410 	lui	s0,0x3410
    5d0c:	05000021 	bltz	t0,5d94 <n34_bltz_test+0x5d94>
    5d10:	361025a2 	ori	s0,s0,0x25a2
    5d14:	10000021 	b	5d9c <n34_bltz_test+0x5d9c>
    5d18:	00000000 	nop
    5d1c:	00000000 	nop
    5d20:	00000021 	move	zero,zero
    5d24:	00000021 	move	zero,zero
    5d28:	00000021 	move	zero,zero
    5d2c:	00000021 	move	zero,zero
    5d30:	00000021 	move	zero,zero
    5d34:	00000021 	move	zero,zero
    5d38:	00000021 	move	zero,zero
    5d3c:	00000021 	move	zero,zero
    5d40:	00000021 	move	zero,zero
    5d44:	3c089e9b 	lui	t0,0x9e9b
    5d48:	35080a69 	ori	t0,t0,0xa69
    5d4c:	0500ffee 	bltz	t0,5d08 <n34_bltz_test+0x5d08>
    5d50:	00000000 	nop
    5d54:	10000011 	b	5d9c <n34_bltz_test+0x5d9c>
    5d58:	00000000 	nop
    5d5c:	00000000 	nop
    5d60:	00000021 	move	zero,zero
    5d64:	00000021 	move	zero,zero
    5d68:	00000021 	move	zero,zero
    5d6c:	00000021 	move	zero,zero
    5d70:	00000021 	move	zero,zero
    5d74:	00000021 	move	zero,zero
    5d78:	00000021 	move	zero,zero
    5d7c:	00000021 	move	zero,zero
    5d80:	00000021 	move	zero,zero
    5d84:	00000021 	move	zero,zero
    5d88:	00000021 	move	zero,zero
    5d8c:	00000021 	move	zero,zero
    5d90:	00000021 	move	zero,zero
    5d94:	3c129946 	lui	s2,0x9946
    5d98:	365287d6 	ori	s2,s2,0x87d6
    5d9c:	00000000 	nop
    5da0:	3c143410 	lui	s4,0x3410
    5da4:	369425a2 	ori	s4,s4,0x25a2
    5da8:	161413c1 	bne	s0,s4,acb0 <inst_error>
    5dac:	00000000 	nop
    5db0:	00000000 	nop
    5db4:	3c159946 	lui	s5,0x9946
    5db8:	36b587d6 	ori	s5,s5,0x87d6
    5dbc:	165513bc 	bne	s2,s5,acb0 <inst_error>
    5dc0:	00000000 	nop
    5dc4:	00000000 	nop
    5dc8:	3c0c115d 	lui	t4,0x115d
    5dcc:	358c0c42 	ori	t4,t4,0xc42
    5dd0:	3c0dcada 	lui	t5,0xcada
    5dd4:	35ad9640 	ori	t5,t5,0x9640
    5dd8:	24100000 	li	s0,0
    5ddc:	10000011 	b	5e24 <n34_bltz_test+0x5e24>
    5de0:	24120000 	li	s2,0
    5de4:	00000000 	nop
    5de8:	3c10115d 	lui	s0,0x115d
    5dec:	05000021 	bltz	t0,5e74 <n34_bltz_test+0x5e74>
    5df0:	36100c42 	ori	s0,s0,0xc42
    5df4:	10000021 	b	5e7c <n34_bltz_test+0x5e7c>
    5df8:	00000000 	nop
    5dfc:	00000000 	nop
    5e00:	00000021 	move	zero,zero
    5e04:	00000021 	move	zero,zero
    5e08:	00000021 	move	zero,zero
    5e0c:	00000021 	move	zero,zero
    5e10:	00000021 	move	zero,zero
    5e14:	00000021 	move	zero,zero
    5e18:	00000021 	move	zero,zero
    5e1c:	00000021 	move	zero,zero
    5e20:	00000021 	move	zero,zero
    5e24:	3c088146 	lui	t0,0x8146
    5e28:	3508af42 	ori	t0,t0,0xaf42
    5e2c:	0500ffee 	bltz	t0,5de8 <n34_bltz_test+0x5de8>
    5e30:	00000000 	nop
    5e34:	10000011 	b	5e7c <n34_bltz_test+0x5e7c>
    5e38:	00000000 	nop
    5e3c:	00000000 	nop
    5e40:	00000021 	move	zero,zero
    5e44:	00000021 	move	zero,zero
    5e48:	00000021 	move	zero,zero
    5e4c:	00000021 	move	zero,zero
    5e50:	00000021 	move	zero,zero
    5e54:	00000021 	move	zero,zero
    5e58:	00000021 	move	zero,zero
    5e5c:	00000021 	move	zero,zero
    5e60:	00000021 	move	zero,zero
    5e64:	00000021 	move	zero,zero
    5e68:	00000021 	move	zero,zero
    5e6c:	00000021 	move	zero,zero
    5e70:	00000021 	move	zero,zero
    5e74:	3c12cada 	lui	s2,0xcada
    5e78:	36529640 	ori	s2,s2,0x9640
    5e7c:	00000000 	nop
    5e80:	3c14115d 	lui	s4,0x115d
    5e84:	36940c42 	ori	s4,s4,0xc42
    5e88:	16141389 	bne	s0,s4,acb0 <inst_error>
    5e8c:	00000000 	nop
    5e90:	00000000 	nop
    5e94:	3c15cada 	lui	s5,0xcada
    5e98:	36b59640 	ori	s5,s5,0x9640
    5e9c:	16551384 	bne	s2,s5,acb0 <inst_error>
    5ea0:	00000000 	nop
    5ea4:	00000000 	nop
    5ea8:	3c0c03a5 	lui	t4,0x3a5
    5eac:	358c2a2c 	ori	t4,t4,0x2a2c
    5eb0:	3c0da43c 	lui	t5,0xa43c
    5eb4:	35ad5d24 	ori	t5,t5,0x5d24
    5eb8:	24100000 	li	s0,0
    5ebc:	10000011 	b	5f04 <n34_bltz_test+0x5f04>
    5ec0:	24120000 	li	s2,0
    5ec4:	00000000 	nop
    5ec8:	3c1003a5 	lui	s0,0x3a5
    5ecc:	05000021 	bltz	t0,5f54 <n34_bltz_test+0x5f54>
    5ed0:	36102a2c 	ori	s0,s0,0x2a2c
    5ed4:	10000021 	b	5f5c <n34_bltz_test+0x5f5c>
    5ed8:	00000000 	nop
    5edc:	00000000 	nop
    5ee0:	00000021 	move	zero,zero
    5ee4:	00000021 	move	zero,zero
    5ee8:	00000021 	move	zero,zero
    5eec:	00000021 	move	zero,zero
    5ef0:	00000021 	move	zero,zero
    5ef4:	00000021 	move	zero,zero
    5ef8:	00000021 	move	zero,zero
    5efc:	00000021 	move	zero,zero
    5f00:	00000021 	move	zero,zero
    5f04:	3c08cf53 	lui	t0,0xcf53
    5f08:	35086e07 	ori	t0,t0,0x6e07
    5f0c:	0500ffee 	bltz	t0,5ec8 <n34_bltz_test+0x5ec8>
    5f10:	00000000 	nop
    5f14:	10000011 	b	5f5c <n34_bltz_test+0x5f5c>
    5f18:	00000000 	nop
    5f1c:	00000000 	nop
    5f20:	00000021 	move	zero,zero
    5f24:	00000021 	move	zero,zero
    5f28:	00000021 	move	zero,zero
    5f2c:	00000021 	move	zero,zero
    5f30:	00000021 	move	zero,zero
    5f34:	00000021 	move	zero,zero
    5f38:	00000021 	move	zero,zero
    5f3c:	00000021 	move	zero,zero
    5f40:	00000021 	move	zero,zero
    5f44:	00000021 	move	zero,zero
    5f48:	00000021 	move	zero,zero
    5f4c:	00000021 	move	zero,zero
    5f50:	00000021 	move	zero,zero
    5f54:	3c12a43c 	lui	s2,0xa43c
    5f58:	36525d24 	ori	s2,s2,0x5d24
    5f5c:	00000000 	nop
    5f60:	3c1403a5 	lui	s4,0x3a5
    5f64:	36942a2c 	ori	s4,s4,0x2a2c
    5f68:	16141351 	bne	s0,s4,acb0 <inst_error>
    5f6c:	00000000 	nop
    5f70:	00000000 	nop
    5f74:	3c15a43c 	lui	s5,0xa43c
    5f78:	36b55d24 	ori	s5,s5,0x5d24
    5f7c:	1655134c 	bne	s2,s5,acb0 <inst_error>
    5f80:	00000000 	nop
    5f84:	00000000 	nop
    5f88:	3c0c9e5e 	lui	t4,0x9e5e
    5f8c:	358c8d3c 	ori	t4,t4,0x8d3c
    5f90:	3c0d20d6 	lui	t5,0x20d6
    5f94:	35ad918a 	ori	t5,t5,0x918a
    5f98:	24100000 	li	s0,0
    5f9c:	10000011 	b	5fe4 <n34_bltz_test+0x5fe4>
    5fa0:	24120000 	li	s2,0
    5fa4:	00000000 	nop
    5fa8:	3c109e5e 	lui	s0,0x9e5e
    5fac:	05000021 	bltz	t0,6034 <n34_bltz_test+0x6034>
    5fb0:	36108d3c 	ori	s0,s0,0x8d3c
    5fb4:	10000021 	b	603c <n34_bltz_test+0x603c>
    5fb8:	00000000 	nop
    5fbc:	00000000 	nop
    5fc0:	00000021 	move	zero,zero
    5fc4:	00000021 	move	zero,zero
    5fc8:	00000021 	move	zero,zero
    5fcc:	00000021 	move	zero,zero
    5fd0:	00000021 	move	zero,zero
    5fd4:	00000021 	move	zero,zero
    5fd8:	00000021 	move	zero,zero
    5fdc:	00000021 	move	zero,zero
    5fe0:	00000021 	move	zero,zero
    5fe4:	3c0883ea 	lui	t0,0x83ea
    5fe8:	35083840 	ori	t0,t0,0x3840
    5fec:	0500ffee 	bltz	t0,5fa8 <n34_bltz_test+0x5fa8>
    5ff0:	00000000 	nop
    5ff4:	10000011 	b	603c <n34_bltz_test+0x603c>
    5ff8:	00000000 	nop
    5ffc:	00000000 	nop
    6000:	00000021 	move	zero,zero
    6004:	00000021 	move	zero,zero
    6008:	00000021 	move	zero,zero
    600c:	00000021 	move	zero,zero
    6010:	00000021 	move	zero,zero
    6014:	00000021 	move	zero,zero
    6018:	00000021 	move	zero,zero
    601c:	00000021 	move	zero,zero
    6020:	00000021 	move	zero,zero
    6024:	00000021 	move	zero,zero
    6028:	00000021 	move	zero,zero
    602c:	00000021 	move	zero,zero
    6030:	00000021 	move	zero,zero
    6034:	3c1220d6 	lui	s2,0x20d6
    6038:	3652918a 	ori	s2,s2,0x918a
    603c:	00000000 	nop
    6040:	3c149e5e 	lui	s4,0x9e5e
    6044:	36948d3c 	ori	s4,s4,0x8d3c
    6048:	16141319 	bne	s0,s4,acb0 <inst_error>
    604c:	00000000 	nop
    6050:	00000000 	nop
    6054:	3c1520d6 	lui	s5,0x20d6
    6058:	36b5918a 	ori	s5,s5,0x918a
    605c:	16551314 	bne	s2,s5,acb0 <inst_error>
    6060:	00000000 	nop
    6064:	00000000 	nop
    6068:	3c0cc104 	lui	t4,0xc104
    606c:	358c7530 	ori	t4,t4,0x7530
    6070:	3c0db013 	lui	t5,0xb013
    6074:	35ad3970 	ori	t5,t5,0x3970
    6078:	24100000 	li	s0,0
    607c:	10000011 	b	60c4 <n34_bltz_test+0x60c4>
    6080:	24120000 	li	s2,0
    6084:	00000000 	nop
    6088:	3c10c104 	lui	s0,0xc104
    608c:	05000021 	bltz	t0,6114 <n34_bltz_test+0x6114>
    6090:	36107530 	ori	s0,s0,0x7530
    6094:	10000021 	b	611c <n34_bltz_test+0x611c>
    6098:	00000000 	nop
    609c:	00000000 	nop
    60a0:	00000021 	move	zero,zero
    60a4:	00000021 	move	zero,zero
    60a8:	00000021 	move	zero,zero
    60ac:	00000021 	move	zero,zero
    60b0:	00000021 	move	zero,zero
    60b4:	00000021 	move	zero,zero
    60b8:	00000021 	move	zero,zero
    60bc:	00000021 	move	zero,zero
    60c0:	00000021 	move	zero,zero
    60c4:	3c08e192 	lui	t0,0xe192
    60c8:	35082ddb 	ori	t0,t0,0x2ddb
    60cc:	0500ffee 	bltz	t0,6088 <n34_bltz_test+0x6088>
    60d0:	00000000 	nop
    60d4:	10000011 	b	611c <n34_bltz_test+0x611c>
    60d8:	00000000 	nop
    60dc:	00000000 	nop
    60e0:	00000021 	move	zero,zero
    60e4:	00000021 	move	zero,zero
    60e8:	00000021 	move	zero,zero
    60ec:	00000021 	move	zero,zero
    60f0:	00000021 	move	zero,zero
    60f4:	00000021 	move	zero,zero
    60f8:	00000021 	move	zero,zero
    60fc:	00000021 	move	zero,zero
    6100:	00000021 	move	zero,zero
    6104:	00000021 	move	zero,zero
    6108:	00000021 	move	zero,zero
    610c:	00000021 	move	zero,zero
    6110:	00000021 	move	zero,zero
    6114:	3c12b013 	lui	s2,0xb013
    6118:	36523970 	ori	s2,s2,0x3970
    611c:	00000000 	nop
    6120:	3c14c104 	lui	s4,0xc104
    6124:	36947530 	ori	s4,s4,0x7530
    6128:	161412e1 	bne	s0,s4,acb0 <inst_error>
    612c:	00000000 	nop
    6130:	00000000 	nop
    6134:	3c15b013 	lui	s5,0xb013
    6138:	36b53970 	ori	s5,s5,0x3970
    613c:	165512dc 	bne	s2,s5,acb0 <inst_error>
    6140:	00000000 	nop
    6144:	00000000 	nop
    6148:	3c0c4ac7 	lui	t4,0x4ac7
    614c:	358c39fe 	ori	t4,t4,0x39fe
    6150:	3c0d0b1a 	lui	t5,0xb1a
    6154:	35adc9d2 	ori	t5,t5,0xc9d2
    6158:	24100000 	li	s0,0
    615c:	10000011 	b	61a4 <n34_bltz_test+0x61a4>
    6160:	24120000 	li	s2,0
    6164:	00000000 	nop
    6168:	3c104ac7 	lui	s0,0x4ac7
    616c:	05000021 	bltz	t0,61f4 <n34_bltz_test+0x61f4>
    6170:	361039fe 	ori	s0,s0,0x39fe
    6174:	10000021 	b	61fc <n34_bltz_test+0x61fc>
    6178:	00000000 	nop
    617c:	00000000 	nop
    6180:	00000021 	move	zero,zero
    6184:	00000021 	move	zero,zero
    6188:	00000021 	move	zero,zero
    618c:	00000021 	move	zero,zero
    6190:	00000021 	move	zero,zero
    6194:	00000021 	move	zero,zero
    6198:	00000021 	move	zero,zero
    619c:	00000021 	move	zero,zero
    61a0:	00000021 	move	zero,zero
    61a4:	3c0837bc 	lui	t0,0x37bc
    61a8:	3508e9a0 	ori	t0,t0,0xe9a0
    61ac:	0500ffee 	bltz	t0,6168 <n34_bltz_test+0x6168>
    61b0:	00000000 	nop
    61b4:	10000011 	b	61fc <n34_bltz_test+0x61fc>
    61b8:	00000000 	nop
    61bc:	00000000 	nop
    61c0:	00000021 	move	zero,zero
    61c4:	00000021 	move	zero,zero
    61c8:	00000021 	move	zero,zero
    61cc:	00000021 	move	zero,zero
    61d0:	00000021 	move	zero,zero
    61d4:	00000021 	move	zero,zero
    61d8:	00000021 	move	zero,zero
    61dc:	00000021 	move	zero,zero
    61e0:	00000021 	move	zero,zero
    61e4:	00000021 	move	zero,zero
    61e8:	00000021 	move	zero,zero
    61ec:	00000021 	move	zero,zero
    61f0:	00000021 	move	zero,zero
    61f4:	3c120b1a 	lui	s2,0xb1a
    61f8:	3652c9d2 	ori	s2,s2,0xc9d2
    61fc:	00000000 	nop
    6200:	24140000 	li	s4,0
    6204:	161412aa 	bne	s0,s4,acb0 <inst_error>
    6208:	00000000 	nop
    620c:	00000000 	nop
    6210:	24150000 	li	s5,0
    6214:	165512a6 	bne	s2,s5,acb0 <inst_error>
    6218:	00000000 	nop
    621c:	00000000 	nop
    6220:	3c0ca27c 	lui	t4,0xa27c
    6224:	358c7ffe 	ori	t4,t4,0x7ffe
    6228:	3c0daa35 	lui	t5,0xaa35
    622c:	35ad7018 	ori	t5,t5,0x7018
    6230:	24100000 	li	s0,0
    6234:	10000011 	b	627c <n34_bltz_test+0x627c>
    6238:	24120000 	li	s2,0
    623c:	00000000 	nop
    6240:	3c10a27c 	lui	s0,0xa27c
    6244:	05000021 	bltz	t0,62cc <n34_bltz_test+0x62cc>
    6248:	36107ffe 	ori	s0,s0,0x7ffe
    624c:	10000021 	b	62d4 <n34_bltz_test+0x62d4>
    6250:	00000000 	nop
    6254:	00000000 	nop
    6258:	00000021 	move	zero,zero
    625c:	00000021 	move	zero,zero
    6260:	00000021 	move	zero,zero
    6264:	00000021 	move	zero,zero
    6268:	00000021 	move	zero,zero
    626c:	00000021 	move	zero,zero
    6270:	00000021 	move	zero,zero
    6274:	00000021 	move	zero,zero
    6278:	00000021 	move	zero,zero
    627c:	3c08005d 	lui	t0,0x5d
    6280:	3508a753 	ori	t0,t0,0xa753
    6284:	0500ffee 	bltz	t0,6240 <n34_bltz_test+0x6240>
    6288:	00000000 	nop
    628c:	10000011 	b	62d4 <n34_bltz_test+0x62d4>
    6290:	00000000 	nop
    6294:	00000000 	nop
    6298:	00000021 	move	zero,zero
    629c:	00000021 	move	zero,zero
    62a0:	00000021 	move	zero,zero
    62a4:	00000021 	move	zero,zero
    62a8:	00000021 	move	zero,zero
    62ac:	00000021 	move	zero,zero
    62b0:	00000021 	move	zero,zero
    62b4:	00000021 	move	zero,zero
    62b8:	00000021 	move	zero,zero
    62bc:	00000021 	move	zero,zero
    62c0:	00000021 	move	zero,zero
    62c4:	00000021 	move	zero,zero
    62c8:	00000021 	move	zero,zero
    62cc:	3c12aa35 	lui	s2,0xaa35
    62d0:	36527018 	ori	s2,s2,0x7018
    62d4:	00000000 	nop
    62d8:	24140000 	li	s4,0
    62dc:	16141274 	bne	s0,s4,acb0 <inst_error>
    62e0:	00000000 	nop
    62e4:	00000000 	nop
    62e8:	24150000 	li	s5,0
    62ec:	16551270 	bne	s2,s5,acb0 <inst_error>
    62f0:	00000000 	nop
    62f4:	00000000 	nop
    62f8:	3c0c0130 	lui	t4,0x130
    62fc:	358c62e0 	ori	t4,t4,0x62e0
    6300:	3c0db19b 	lui	t5,0xb19b
    6304:	35ade310 	ori	t5,t5,0xe310
    6308:	24100000 	li	s0,0
    630c:	10000011 	b	6354 <n34_bltz_test+0x6354>
    6310:	24120000 	li	s2,0
    6314:	00000000 	nop
    6318:	3c100130 	lui	s0,0x130
    631c:	05000021 	bltz	t0,63a4 <n34_bltz_test+0x63a4>
    6320:	361062e0 	ori	s0,s0,0x62e0
    6324:	10000021 	b	63ac <n34_bltz_test+0x63ac>
    6328:	00000000 	nop
    632c:	00000000 	nop
    6330:	00000021 	move	zero,zero
    6334:	00000021 	move	zero,zero
    6338:	00000021 	move	zero,zero
    633c:	00000021 	move	zero,zero
    6340:	00000021 	move	zero,zero
    6344:	00000021 	move	zero,zero
    6348:	00000021 	move	zero,zero
    634c:	00000021 	move	zero,zero
    6350:	00000021 	move	zero,zero
    6354:	3c085327 	lui	t0,0x5327
    6358:	35086884 	ori	t0,t0,0x6884
    635c:	0500ffee 	bltz	t0,6318 <n34_bltz_test+0x6318>
    6360:	00000000 	nop
    6364:	10000011 	b	63ac <n34_bltz_test+0x63ac>
    6368:	00000000 	nop
    636c:	00000000 	nop
    6370:	00000021 	move	zero,zero
    6374:	00000021 	move	zero,zero
    6378:	00000021 	move	zero,zero
    637c:	00000021 	move	zero,zero
    6380:	00000021 	move	zero,zero
    6384:	00000021 	move	zero,zero
    6388:	00000021 	move	zero,zero
    638c:	00000021 	move	zero,zero
    6390:	00000021 	move	zero,zero
    6394:	00000021 	move	zero,zero
    6398:	00000021 	move	zero,zero
    639c:	00000021 	move	zero,zero
    63a0:	00000021 	move	zero,zero
    63a4:	3c12b19b 	lui	s2,0xb19b
    63a8:	3652e310 	ori	s2,s2,0xe310
    63ac:	00000000 	nop
    63b0:	24140000 	li	s4,0
    63b4:	1614123e 	bne	s0,s4,acb0 <inst_error>
    63b8:	00000000 	nop
    63bc:	00000000 	nop
    63c0:	24150000 	li	s5,0
    63c4:	1655123a 	bne	s2,s5,acb0 <inst_error>
    63c8:	00000000 	nop
    63cc:	00000000 	nop
    63d0:	3c0cec7a 	lui	t4,0xec7a
    63d4:	358cd2f0 	ori	t4,t4,0xd2f0
    63d8:	3c0d7739 	lui	t5,0x7739
    63dc:	35ad95f6 	ori	t5,t5,0x95f6
    63e0:	24100000 	li	s0,0
    63e4:	10000011 	b	642c <n34_bltz_test+0x642c>
    63e8:	24120000 	li	s2,0
    63ec:	00000000 	nop
    63f0:	3c10ec7a 	lui	s0,0xec7a
    63f4:	05000021 	bltz	t0,647c <n34_bltz_test+0x647c>
    63f8:	3610d2f0 	ori	s0,s0,0xd2f0
    63fc:	10000021 	b	6484 <n34_bltz_test+0x6484>
    6400:	00000000 	nop
    6404:	00000000 	nop
    6408:	00000021 	move	zero,zero
    640c:	00000021 	move	zero,zero
    6410:	00000021 	move	zero,zero
    6414:	00000021 	move	zero,zero
    6418:	00000021 	move	zero,zero
    641c:	00000021 	move	zero,zero
    6420:	00000021 	move	zero,zero
    6424:	00000021 	move	zero,zero
    6428:	00000021 	move	zero,zero
    642c:	3c085178 	lui	t0,0x5178
    6430:	35087348 	ori	t0,t0,0x7348
    6434:	0500ffee 	bltz	t0,63f0 <n34_bltz_test+0x63f0>
    6438:	00000000 	nop
    643c:	10000011 	b	6484 <n34_bltz_test+0x6484>
    6440:	00000000 	nop
    6444:	00000000 	nop
    6448:	00000021 	move	zero,zero
    644c:	00000021 	move	zero,zero
    6450:	00000021 	move	zero,zero
    6454:	00000021 	move	zero,zero
    6458:	00000021 	move	zero,zero
    645c:	00000021 	move	zero,zero
    6460:	00000021 	move	zero,zero
    6464:	00000021 	move	zero,zero
    6468:	00000021 	move	zero,zero
    646c:	00000021 	move	zero,zero
    6470:	00000021 	move	zero,zero
    6474:	00000021 	move	zero,zero
    6478:	00000021 	move	zero,zero
    647c:	3c127739 	lui	s2,0x7739
    6480:	365295f6 	ori	s2,s2,0x95f6
    6484:	00000000 	nop
    6488:	24140000 	li	s4,0
    648c:	16141208 	bne	s0,s4,acb0 <inst_error>
    6490:	00000000 	nop
    6494:	00000000 	nop
    6498:	24150000 	li	s5,0
    649c:	16551204 	bne	s2,s5,acb0 <inst_error>
    64a0:	00000000 	nop
    64a4:	00000000 	nop
    64a8:	3c0cfcec 	lui	t4,0xfcec
    64ac:	358cadd0 	ori	t4,t4,0xadd0
    64b0:	3c0d4ed4 	lui	t5,0x4ed4
    64b4:	35ad3c1a 	ori	t5,t5,0x3c1a
    64b8:	24100000 	li	s0,0
    64bc:	10000011 	b	6504 <n34_bltz_test+0x6504>
    64c0:	24120000 	li	s2,0
    64c4:	00000000 	nop
    64c8:	3c10fcec 	lui	s0,0xfcec
    64cc:	05000021 	bltz	t0,6554 <n34_bltz_test+0x6554>
    64d0:	3610add0 	ori	s0,s0,0xadd0
    64d4:	10000021 	b	655c <n34_bltz_test+0x655c>
    64d8:	00000000 	nop
    64dc:	00000000 	nop
    64e0:	00000021 	move	zero,zero
    64e4:	00000021 	move	zero,zero
    64e8:	00000021 	move	zero,zero
    64ec:	00000021 	move	zero,zero
    64f0:	00000021 	move	zero,zero
    64f4:	00000021 	move	zero,zero
    64f8:	00000021 	move	zero,zero
    64fc:	00000021 	move	zero,zero
    6500:	00000021 	move	zero,zero
    6504:	3c08ff34 	lui	t0,0xff34
    6508:	35082a8a 	ori	t0,t0,0x2a8a
    650c:	0500ffee 	bltz	t0,64c8 <n34_bltz_test+0x64c8>
    6510:	00000000 	nop
    6514:	10000011 	b	655c <n34_bltz_test+0x655c>
    6518:	00000000 	nop
    651c:	00000000 	nop
    6520:	00000021 	move	zero,zero
    6524:	00000021 	move	zero,zero
    6528:	00000021 	move	zero,zero
    652c:	00000021 	move	zero,zero
    6530:	00000021 	move	zero,zero
    6534:	00000021 	move	zero,zero
    6538:	00000021 	move	zero,zero
    653c:	00000021 	move	zero,zero
    6540:	00000021 	move	zero,zero
    6544:	00000021 	move	zero,zero
    6548:	00000021 	move	zero,zero
    654c:	00000021 	move	zero,zero
    6550:	00000021 	move	zero,zero
    6554:	3c124ed4 	lui	s2,0x4ed4
    6558:	36523c1a 	ori	s2,s2,0x3c1a
    655c:	00000000 	nop
    6560:	3c14fcec 	lui	s4,0xfcec
    6564:	3694add0 	ori	s4,s4,0xadd0
    6568:	161411d1 	bne	s0,s4,acb0 <inst_error>
    656c:	00000000 	nop
    6570:	00000000 	nop
    6574:	3c154ed4 	lui	s5,0x4ed4
    6578:	36b53c1a 	ori	s5,s5,0x3c1a
    657c:	165511cc 	bne	s2,s5,acb0 <inst_error>
    6580:	00000000 	nop
    6584:	00000000 	nop
    6588:	3c0ce2b5 	lui	t4,0xe2b5
    658c:	358cfdd8 	ori	t4,t4,0xfdd8
    6590:	3c0d9299 	lui	t5,0x9299
    6594:	35ad1dc6 	ori	t5,t5,0x1dc6
    6598:	24100000 	li	s0,0
    659c:	10000011 	b	65e4 <n34_bltz_test+0x65e4>
    65a0:	24120000 	li	s2,0
    65a4:	00000000 	nop
    65a8:	3c10e2b5 	lui	s0,0xe2b5
    65ac:	05000021 	bltz	t0,6634 <n34_bltz_test+0x6634>
    65b0:	3610fdd8 	ori	s0,s0,0xfdd8
    65b4:	10000021 	b	663c <n34_bltz_test+0x663c>
    65b8:	00000000 	nop
    65bc:	00000000 	nop
    65c0:	00000021 	move	zero,zero
    65c4:	00000021 	move	zero,zero
    65c8:	00000021 	move	zero,zero
    65cc:	00000021 	move	zero,zero
    65d0:	00000021 	move	zero,zero
    65d4:	00000021 	move	zero,zero
    65d8:	00000021 	move	zero,zero
    65dc:	00000021 	move	zero,zero
    65e0:	00000021 	move	zero,zero
    65e4:	3c084508 	lui	t0,0x4508
    65e8:	3508a810 	ori	t0,t0,0xa810
    65ec:	0500ffee 	bltz	t0,65a8 <n34_bltz_test+0x65a8>
    65f0:	00000000 	nop
    65f4:	10000011 	b	663c <n34_bltz_test+0x663c>
    65f8:	00000000 	nop
    65fc:	00000000 	nop
    6600:	00000021 	move	zero,zero
    6604:	00000021 	move	zero,zero
    6608:	00000021 	move	zero,zero
    660c:	00000021 	move	zero,zero
    6610:	00000021 	move	zero,zero
    6614:	00000021 	move	zero,zero
    6618:	00000021 	move	zero,zero
    661c:	00000021 	move	zero,zero
    6620:	00000021 	move	zero,zero
    6624:	00000021 	move	zero,zero
    6628:	00000021 	move	zero,zero
    662c:	00000021 	move	zero,zero
    6630:	00000021 	move	zero,zero
    6634:	3c129299 	lui	s2,0x9299
    6638:	36521dc6 	ori	s2,s2,0x1dc6
    663c:	00000000 	nop
    6640:	24140000 	li	s4,0
    6644:	1614119a 	bne	s0,s4,acb0 <inst_error>
    6648:	00000000 	nop
    664c:	00000000 	nop
    6650:	24150000 	li	s5,0
    6654:	16551196 	bne	s2,s5,acb0 <inst_error>
    6658:	00000000 	nop
    665c:	00000000 	nop
    6660:	3c0cfc91 	lui	t4,0xfc91
    6664:	358c1f64 	ori	t4,t4,0x1f64
    6668:	3c0d2061 	lui	t5,0x2061
    666c:	35adc4d0 	ori	t5,t5,0xc4d0
    6670:	24100000 	li	s0,0
    6674:	10000011 	b	66bc <n34_bltz_test+0x66bc>
    6678:	24120000 	li	s2,0
    667c:	00000000 	nop
    6680:	3c10fc91 	lui	s0,0xfc91
    6684:	05000021 	bltz	t0,670c <n34_bltz_test+0x670c>
    6688:	36101f64 	ori	s0,s0,0x1f64
    668c:	10000021 	b	6714 <n34_bltz_test+0x6714>
    6690:	00000000 	nop
    6694:	00000000 	nop
    6698:	00000021 	move	zero,zero
    669c:	00000021 	move	zero,zero
    66a0:	00000021 	move	zero,zero
    66a4:	00000021 	move	zero,zero
    66a8:	00000021 	move	zero,zero
    66ac:	00000021 	move	zero,zero
    66b0:	00000021 	move	zero,zero
    66b4:	00000021 	move	zero,zero
    66b8:	00000021 	move	zero,zero
    66bc:	3c08c2c1 	lui	t0,0xc2c1
    66c0:	35085004 	ori	t0,t0,0x5004
    66c4:	0500ffee 	bltz	t0,6680 <n34_bltz_test+0x6680>
    66c8:	00000000 	nop
    66cc:	10000011 	b	6714 <n34_bltz_test+0x6714>
    66d0:	00000000 	nop
    66d4:	00000000 	nop
    66d8:	00000021 	move	zero,zero
    66dc:	00000021 	move	zero,zero
    66e0:	00000021 	move	zero,zero
    66e4:	00000021 	move	zero,zero
    66e8:	00000021 	move	zero,zero
    66ec:	00000021 	move	zero,zero
    66f0:	00000021 	move	zero,zero
    66f4:	00000021 	move	zero,zero
    66f8:	00000021 	move	zero,zero
    66fc:	00000021 	move	zero,zero
    6700:	00000021 	move	zero,zero
    6704:	00000021 	move	zero,zero
    6708:	00000021 	move	zero,zero
    670c:	3c122061 	lui	s2,0x2061
    6710:	3652c4d0 	ori	s2,s2,0xc4d0
    6714:	00000000 	nop
    6718:	3c14fc91 	lui	s4,0xfc91
    671c:	36941f64 	ori	s4,s4,0x1f64
    6720:	16141163 	bne	s0,s4,acb0 <inst_error>
    6724:	00000000 	nop
    6728:	00000000 	nop
    672c:	3c152061 	lui	s5,0x2061
    6730:	36b5c4d0 	ori	s5,s5,0xc4d0
    6734:	1655115e 	bne	s2,s5,acb0 <inst_error>
    6738:	00000000 	nop
    673c:	00000000 	nop
    6740:	3c0c3f1d 	lui	t4,0x3f1d
    6744:	358c95dc 	ori	t4,t4,0x95dc
    6748:	3c0defe0 	lui	t5,0xefe0
    674c:	35ad0ff0 	ori	t5,t5,0xff0
    6750:	24100000 	li	s0,0
    6754:	10000011 	b	679c <n34_bltz_test+0x679c>
    6758:	24120000 	li	s2,0
    675c:	00000000 	nop
    6760:	3c103f1d 	lui	s0,0x3f1d
    6764:	05000021 	bltz	t0,67ec <n34_bltz_test+0x67ec>
    6768:	361095dc 	ori	s0,s0,0x95dc
    676c:	10000021 	b	67f4 <n34_bltz_test+0x67f4>
    6770:	00000000 	nop
    6774:	00000000 	nop
    6778:	00000021 	move	zero,zero
    677c:	00000021 	move	zero,zero
    6780:	00000021 	move	zero,zero
    6784:	00000021 	move	zero,zero
    6788:	00000021 	move	zero,zero
    678c:	00000021 	move	zero,zero
    6790:	00000021 	move	zero,zero
    6794:	00000021 	move	zero,zero
    6798:	00000021 	move	zero,zero
    679c:	3c086f27 	lui	t0,0x6f27
    67a0:	35084b3c 	ori	t0,t0,0x4b3c
    67a4:	0500ffee 	bltz	t0,6760 <n34_bltz_test+0x6760>
    67a8:	00000000 	nop
    67ac:	10000011 	b	67f4 <n34_bltz_test+0x67f4>
    67b0:	00000000 	nop
    67b4:	00000000 	nop
    67b8:	00000021 	move	zero,zero
    67bc:	00000021 	move	zero,zero
    67c0:	00000021 	move	zero,zero
    67c4:	00000021 	move	zero,zero
    67c8:	00000021 	move	zero,zero
    67cc:	00000021 	move	zero,zero
    67d0:	00000021 	move	zero,zero
    67d4:	00000021 	move	zero,zero
    67d8:	00000021 	move	zero,zero
    67dc:	00000021 	move	zero,zero
    67e0:	00000021 	move	zero,zero
    67e4:	00000021 	move	zero,zero
    67e8:	00000021 	move	zero,zero
    67ec:	3c12efe0 	lui	s2,0xefe0
    67f0:	36520ff0 	ori	s2,s2,0xff0
    67f4:	00000000 	nop
    67f8:	24140000 	li	s4,0
    67fc:	1614112c 	bne	s0,s4,acb0 <inst_error>
    6800:	00000000 	nop
    6804:	00000000 	nop
    6808:	24150000 	li	s5,0
    680c:	16551128 	bne	s2,s5,acb0 <inst_error>
    6810:	00000000 	nop
    6814:	00000000 	nop
    6818:	3c0ca298 	lui	t4,0xa298
    681c:	358cd40c 	ori	t4,t4,0xd40c
    6820:	3c0d2ba5 	lui	t5,0x2ba5
    6824:	35ad5f00 	ori	t5,t5,0x5f00
    6828:	24100000 	li	s0,0
    682c:	10000011 	b	6874 <n34_bltz_test+0x6874>
    6830:	24120000 	li	s2,0
    6834:	00000000 	nop
    6838:	3c10a298 	lui	s0,0xa298
    683c:	05000021 	bltz	t0,68c4 <n34_bltz_test+0x68c4>
    6840:	3610d40c 	ori	s0,s0,0xd40c
    6844:	10000021 	b	68cc <n34_bltz_test+0x68cc>
    6848:	00000000 	nop
    684c:	00000000 	nop
    6850:	00000021 	move	zero,zero
    6854:	00000021 	move	zero,zero
    6858:	00000021 	move	zero,zero
    685c:	00000021 	move	zero,zero
    6860:	00000021 	move	zero,zero
    6864:	00000021 	move	zero,zero
    6868:	00000021 	move	zero,zero
    686c:	00000021 	move	zero,zero
    6870:	00000021 	move	zero,zero
    6874:	3c08157f 	lui	t0,0x157f
    6878:	350897ce 	ori	t0,t0,0x97ce
    687c:	0500ffee 	bltz	t0,6838 <n34_bltz_test+0x6838>
    6880:	00000000 	nop
    6884:	10000011 	b	68cc <n34_bltz_test+0x68cc>
    6888:	00000000 	nop
    688c:	00000000 	nop
    6890:	00000021 	move	zero,zero
    6894:	00000021 	move	zero,zero
    6898:	00000021 	move	zero,zero
    689c:	00000021 	move	zero,zero
    68a0:	00000021 	move	zero,zero
    68a4:	00000021 	move	zero,zero
    68a8:	00000021 	move	zero,zero
    68ac:	00000021 	move	zero,zero
    68b0:	00000021 	move	zero,zero
    68b4:	00000021 	move	zero,zero
    68b8:	00000021 	move	zero,zero
    68bc:	00000021 	move	zero,zero
    68c0:	00000021 	move	zero,zero
    68c4:	3c122ba5 	lui	s2,0x2ba5
    68c8:	36525f00 	ori	s2,s2,0x5f00
    68cc:	00000000 	nop
    68d0:	24140000 	li	s4,0
    68d4:	161410f6 	bne	s0,s4,acb0 <inst_error>
    68d8:	00000000 	nop
    68dc:	00000000 	nop
    68e0:	24150000 	li	s5,0
    68e4:	165510f2 	bne	s2,s5,acb0 <inst_error>
    68e8:	00000000 	nop
    68ec:	00000000 	nop
    68f0:	3c0cbf4b 	lui	t4,0xbf4b
    68f4:	358cea12 	ori	t4,t4,0xea12
    68f8:	3c0d2ce5 	lui	t5,0x2ce5
    68fc:	35ad2246 	ori	t5,t5,0x2246
    6900:	24100000 	li	s0,0
    6904:	10000011 	b	694c <n34_bltz_test+0x694c>
    6908:	24120000 	li	s2,0
    690c:	00000000 	nop
    6910:	3c10bf4b 	lui	s0,0xbf4b
    6914:	05000021 	bltz	t0,699c <n34_bltz_test+0x699c>
    6918:	3610ea12 	ori	s0,s0,0xea12
    691c:	10000021 	b	69a4 <n34_bltz_test+0x69a4>
    6920:	00000000 	nop
    6924:	00000000 	nop
    6928:	00000021 	move	zero,zero
    692c:	00000021 	move	zero,zero
    6930:	00000021 	move	zero,zero
    6934:	00000021 	move	zero,zero
    6938:	00000021 	move	zero,zero
    693c:	00000021 	move	zero,zero
    6940:	00000021 	move	zero,zero
    6944:	00000021 	move	zero,zero
    6948:	00000021 	move	zero,zero
    694c:	3c087141 	lui	t0,0x7141
    6950:	35080cd0 	ori	t0,t0,0xcd0
    6954:	0500ffee 	bltz	t0,6910 <n34_bltz_test+0x6910>
    6958:	00000000 	nop
    695c:	10000011 	b	69a4 <n34_bltz_test+0x69a4>
    6960:	00000000 	nop
    6964:	00000000 	nop
    6968:	00000021 	move	zero,zero
    696c:	00000021 	move	zero,zero
    6970:	00000021 	move	zero,zero
    6974:	00000021 	move	zero,zero
    6978:	00000021 	move	zero,zero
    697c:	00000021 	move	zero,zero
    6980:	00000021 	move	zero,zero
    6984:	00000021 	move	zero,zero
    6988:	00000021 	move	zero,zero
    698c:	00000021 	move	zero,zero
    6990:	00000021 	move	zero,zero
    6994:	00000021 	move	zero,zero
    6998:	00000021 	move	zero,zero
    699c:	3c122ce5 	lui	s2,0x2ce5
    69a0:	36522246 	ori	s2,s2,0x2246
    69a4:	00000000 	nop
    69a8:	24140000 	li	s4,0
    69ac:	161410c0 	bne	s0,s4,acb0 <inst_error>
    69b0:	00000000 	nop
    69b4:	00000000 	nop
    69b8:	24150000 	li	s5,0
    69bc:	165510bc 	bne	s2,s5,acb0 <inst_error>
    69c0:	00000000 	nop
    69c4:	00000000 	nop
    69c8:	3c0c32ab 	lui	t4,0x32ab
    69cc:	358cbeef 	ori	t4,t4,0xbeef
    69d0:	3c0d9ef4 	lui	t5,0x9ef4
    69d4:	35ad12d2 	ori	t5,t5,0x12d2
    69d8:	24100000 	li	s0,0
    69dc:	10000011 	b	6a24 <n34_bltz_test+0x6a24>
    69e0:	24120000 	li	s2,0
    69e4:	00000000 	nop
    69e8:	3c1032ab 	lui	s0,0x32ab
    69ec:	05000021 	bltz	t0,6a74 <n34_bltz_test+0x6a74>
    69f0:	3610beef 	ori	s0,s0,0xbeef
    69f4:	10000021 	b	6a7c <n34_bltz_test+0x6a7c>
    69f8:	00000000 	nop
    69fc:	00000000 	nop
    6a00:	00000021 	move	zero,zero
    6a04:	00000021 	move	zero,zero
    6a08:	00000021 	move	zero,zero
    6a0c:	00000021 	move	zero,zero
    6a10:	00000021 	move	zero,zero
    6a14:	00000021 	move	zero,zero
    6a18:	00000021 	move	zero,zero
    6a1c:	00000021 	move	zero,zero
    6a20:	00000021 	move	zero,zero
    6a24:	3c08ee91 	lui	t0,0xee91
    6a28:	350853d0 	ori	t0,t0,0x53d0
    6a2c:	0500ffee 	bltz	t0,69e8 <n34_bltz_test+0x69e8>
    6a30:	00000000 	nop
    6a34:	10000011 	b	6a7c <n34_bltz_test+0x6a7c>
    6a38:	00000000 	nop
    6a3c:	00000000 	nop
    6a40:	00000021 	move	zero,zero
    6a44:	00000021 	move	zero,zero
    6a48:	00000021 	move	zero,zero
    6a4c:	00000021 	move	zero,zero
    6a50:	00000021 	move	zero,zero
    6a54:	00000021 	move	zero,zero
    6a58:	00000021 	move	zero,zero
    6a5c:	00000021 	move	zero,zero
    6a60:	00000021 	move	zero,zero
    6a64:	00000021 	move	zero,zero
    6a68:	00000021 	move	zero,zero
    6a6c:	00000021 	move	zero,zero
    6a70:	00000021 	move	zero,zero
    6a74:	3c129ef4 	lui	s2,0x9ef4
    6a78:	365212d2 	ori	s2,s2,0x12d2
    6a7c:	00000000 	nop
    6a80:	3c1432ab 	lui	s4,0x32ab
    6a84:	3694beef 	ori	s4,s4,0xbeef
    6a88:	16141089 	bne	s0,s4,acb0 <inst_error>
    6a8c:	00000000 	nop
    6a90:	00000000 	nop
    6a94:	3c159ef4 	lui	s5,0x9ef4
    6a98:	36b512d2 	ori	s5,s5,0x12d2
    6a9c:	16551084 	bne	s2,s5,acb0 <inst_error>
    6aa0:	00000000 	nop
    6aa4:	00000000 	nop
    6aa8:	3c0c088d 	lui	t4,0x88d
    6aac:	358c9976 	ori	t4,t4,0x9976
    6ab0:	3c0d6752 	lui	t5,0x6752
    6ab4:	35adb68b 	ori	t5,t5,0xb68b
    6ab8:	24100000 	li	s0,0
    6abc:	10000011 	b	6b04 <n34_bltz_test+0x6b04>
    6ac0:	24120000 	li	s2,0
    6ac4:	00000000 	nop
    6ac8:	3c10088d 	lui	s0,0x88d
    6acc:	05000021 	bltz	t0,6b54 <n34_bltz_test+0x6b54>
    6ad0:	36109976 	ori	s0,s0,0x9976
    6ad4:	10000021 	b	6b5c <n34_bltz_test+0x6b5c>
    6ad8:	00000000 	nop
    6adc:	00000000 	nop
    6ae0:	00000021 	move	zero,zero
    6ae4:	00000021 	move	zero,zero
    6ae8:	00000021 	move	zero,zero
    6aec:	00000021 	move	zero,zero
    6af0:	00000021 	move	zero,zero
    6af4:	00000021 	move	zero,zero
    6af8:	00000021 	move	zero,zero
    6afc:	00000021 	move	zero,zero
    6b00:	00000021 	move	zero,zero
    6b04:	3c08f0b4 	lui	t0,0xf0b4
    6b08:	350806c0 	ori	t0,t0,0x6c0
    6b0c:	0500ffee 	bltz	t0,6ac8 <n34_bltz_test+0x6ac8>
    6b10:	00000000 	nop
    6b14:	10000011 	b	6b5c <n34_bltz_test+0x6b5c>
    6b18:	00000000 	nop
    6b1c:	00000000 	nop
    6b20:	00000021 	move	zero,zero
    6b24:	00000021 	move	zero,zero
    6b28:	00000021 	move	zero,zero
    6b2c:	00000021 	move	zero,zero
    6b30:	00000021 	move	zero,zero
    6b34:	00000021 	move	zero,zero
    6b38:	00000021 	move	zero,zero
    6b3c:	00000021 	move	zero,zero
    6b40:	00000021 	move	zero,zero
    6b44:	00000021 	move	zero,zero
    6b48:	00000021 	move	zero,zero
    6b4c:	00000021 	move	zero,zero
    6b50:	00000021 	move	zero,zero
    6b54:	3c126752 	lui	s2,0x6752
    6b58:	3652b68b 	ori	s2,s2,0xb68b
    6b5c:	00000000 	nop
    6b60:	3c14088d 	lui	s4,0x88d
    6b64:	36949976 	ori	s4,s4,0x9976
    6b68:	16141051 	bne	s0,s4,acb0 <inst_error>
    6b6c:	00000000 	nop
    6b70:	00000000 	nop
    6b74:	3c156752 	lui	s5,0x6752
    6b78:	36b5b68b 	ori	s5,s5,0xb68b
    6b7c:	1655104c 	bne	s2,s5,acb0 <inst_error>
    6b80:	00000000 	nop
    6b84:	00000000 	nop
    6b88:	3c0cb342 	lui	t4,0xb342
    6b8c:	358cb124 	ori	t4,t4,0xb124
    6b90:	3c0d5956 	lui	t5,0x5956
    6b94:	35ad8070 	ori	t5,t5,0x8070
    6b98:	24100000 	li	s0,0
    6b9c:	10000011 	b	6be4 <n34_bltz_test+0x6be4>
    6ba0:	24120000 	li	s2,0
    6ba4:	00000000 	nop
    6ba8:	3c10b342 	lui	s0,0xb342
    6bac:	05000021 	bltz	t0,6c34 <n34_bltz_test+0x6c34>
    6bb0:	3610b124 	ori	s0,s0,0xb124
    6bb4:	10000021 	b	6c3c <n34_bltz_test+0x6c3c>
    6bb8:	00000000 	nop
    6bbc:	00000000 	nop
    6bc0:	00000021 	move	zero,zero
    6bc4:	00000021 	move	zero,zero
    6bc8:	00000021 	move	zero,zero
    6bcc:	00000021 	move	zero,zero
    6bd0:	00000021 	move	zero,zero
    6bd4:	00000021 	move	zero,zero
    6bd8:	00000021 	move	zero,zero
    6bdc:	00000021 	move	zero,zero
    6be0:	00000021 	move	zero,zero
    6be4:	3c08a33f 	lui	t0,0xa33f
    6be8:	350847d1 	ori	t0,t0,0x47d1
    6bec:	0500ffee 	bltz	t0,6ba8 <n34_bltz_test+0x6ba8>
    6bf0:	00000000 	nop
    6bf4:	10000011 	b	6c3c <n34_bltz_test+0x6c3c>
    6bf8:	00000000 	nop
    6bfc:	00000000 	nop
    6c00:	00000021 	move	zero,zero
    6c04:	00000021 	move	zero,zero
    6c08:	00000021 	move	zero,zero
    6c0c:	00000021 	move	zero,zero
    6c10:	00000021 	move	zero,zero
    6c14:	00000021 	move	zero,zero
    6c18:	00000021 	move	zero,zero
    6c1c:	00000021 	move	zero,zero
    6c20:	00000021 	move	zero,zero
    6c24:	00000021 	move	zero,zero
    6c28:	00000021 	move	zero,zero
    6c2c:	00000021 	move	zero,zero
    6c30:	00000021 	move	zero,zero
    6c34:	3c125956 	lui	s2,0x5956
    6c38:	36528070 	ori	s2,s2,0x8070
    6c3c:	00000000 	nop
    6c40:	3c14b342 	lui	s4,0xb342
    6c44:	3694b124 	ori	s4,s4,0xb124
    6c48:	16141019 	bne	s0,s4,acb0 <inst_error>
    6c4c:	00000000 	nop
    6c50:	00000000 	nop
    6c54:	3c155956 	lui	s5,0x5956
    6c58:	36b58070 	ori	s5,s5,0x8070
    6c5c:	16551014 	bne	s2,s5,acb0 <inst_error>
    6c60:	00000000 	nop
    6c64:	00000000 	nop
    6c68:	3c0c4c78 	lui	t4,0x4c78
    6c6c:	358c2eb0 	ori	t4,t4,0x2eb0
    6c70:	3c0d3491 	lui	t5,0x3491
    6c74:	35ade3fe 	ori	t5,t5,0xe3fe
    6c78:	24100000 	li	s0,0
    6c7c:	10000011 	b	6cc4 <n34_bltz_test+0x6cc4>
    6c80:	24120000 	li	s2,0
    6c84:	00000000 	nop
    6c88:	3c104c78 	lui	s0,0x4c78
    6c8c:	05000021 	bltz	t0,6d14 <n34_bltz_test+0x6d14>
    6c90:	36102eb0 	ori	s0,s0,0x2eb0
    6c94:	10000021 	b	6d1c <n34_bltz_test+0x6d1c>
    6c98:	00000000 	nop
    6c9c:	00000000 	nop
    6ca0:	00000021 	move	zero,zero
    6ca4:	00000021 	move	zero,zero
    6ca8:	00000021 	move	zero,zero
    6cac:	00000021 	move	zero,zero
    6cb0:	00000021 	move	zero,zero
    6cb4:	00000021 	move	zero,zero
    6cb8:	00000021 	move	zero,zero
    6cbc:	00000021 	move	zero,zero
    6cc0:	00000021 	move	zero,zero
    6cc4:	3c088d84 	lui	t0,0x8d84
    6cc8:	35088290 	ori	t0,t0,0x8290
    6ccc:	0500ffee 	bltz	t0,6c88 <n34_bltz_test+0x6c88>
    6cd0:	00000000 	nop
    6cd4:	10000011 	b	6d1c <n34_bltz_test+0x6d1c>
    6cd8:	00000000 	nop
    6cdc:	00000000 	nop
    6ce0:	00000021 	move	zero,zero
    6ce4:	00000021 	move	zero,zero
    6ce8:	00000021 	move	zero,zero
    6cec:	00000021 	move	zero,zero
    6cf0:	00000021 	move	zero,zero
    6cf4:	00000021 	move	zero,zero
    6cf8:	00000021 	move	zero,zero
    6cfc:	00000021 	move	zero,zero
    6d00:	00000021 	move	zero,zero
    6d04:	00000021 	move	zero,zero
    6d08:	00000021 	move	zero,zero
    6d0c:	00000021 	move	zero,zero
    6d10:	00000021 	move	zero,zero
    6d14:	3c123491 	lui	s2,0x3491
    6d18:	3652e3fe 	ori	s2,s2,0xe3fe
    6d1c:	00000000 	nop
    6d20:	3c144c78 	lui	s4,0x4c78
    6d24:	36942eb0 	ori	s4,s4,0x2eb0
    6d28:	16140fe1 	bne	s0,s4,acb0 <inst_error>
    6d2c:	00000000 	nop
    6d30:	00000000 	nop
    6d34:	3c153491 	lui	s5,0x3491
    6d38:	36b5e3fe 	ori	s5,s5,0xe3fe
    6d3c:	16550fdc 	bne	s2,s5,acb0 <inst_error>
    6d40:	00000000 	nop
    6d44:	00000000 	nop
    6d48:	3c0cfced 	lui	t4,0xfced
    6d4c:	358ca322 	ori	t4,t4,0xa322
    6d50:	3c0d987c 	lui	t5,0x987c
    6d54:	35ade552 	ori	t5,t5,0xe552
    6d58:	24100000 	li	s0,0
    6d5c:	10000011 	b	6da4 <n34_bltz_test+0x6da4>
    6d60:	24120000 	li	s2,0
    6d64:	00000000 	nop
    6d68:	3c10fced 	lui	s0,0xfced
    6d6c:	05000021 	bltz	t0,6df4 <n34_bltz_test+0x6df4>
    6d70:	3610a322 	ori	s0,s0,0xa322
    6d74:	10000021 	b	6dfc <n34_bltz_test+0x6dfc>
    6d78:	00000000 	nop
    6d7c:	00000000 	nop
    6d80:	00000021 	move	zero,zero
    6d84:	00000021 	move	zero,zero
    6d88:	00000021 	move	zero,zero
    6d8c:	00000021 	move	zero,zero
    6d90:	00000021 	move	zero,zero
    6d94:	00000021 	move	zero,zero
    6d98:	00000021 	move	zero,zero
    6d9c:	00000021 	move	zero,zero
    6da0:	00000021 	move	zero,zero
    6da4:	3c082209 	lui	t0,0x2209
    6da8:	35084f88 	ori	t0,t0,0x4f88
    6dac:	0500ffee 	bltz	t0,6d68 <n34_bltz_test+0x6d68>
    6db0:	00000000 	nop
    6db4:	10000011 	b	6dfc <n34_bltz_test+0x6dfc>
    6db8:	00000000 	nop
    6dbc:	00000000 	nop
    6dc0:	00000021 	move	zero,zero
    6dc4:	00000021 	move	zero,zero
    6dc8:	00000021 	move	zero,zero
    6dcc:	00000021 	move	zero,zero
    6dd0:	00000021 	move	zero,zero
    6dd4:	00000021 	move	zero,zero
    6dd8:	00000021 	move	zero,zero
    6ddc:	00000021 	move	zero,zero
    6de0:	00000021 	move	zero,zero
    6de4:	00000021 	move	zero,zero
    6de8:	00000021 	move	zero,zero
    6dec:	00000021 	move	zero,zero
    6df0:	00000021 	move	zero,zero
    6df4:	3c12987c 	lui	s2,0x987c
    6df8:	3652e552 	ori	s2,s2,0xe552
    6dfc:	00000000 	nop
    6e00:	24140000 	li	s4,0
    6e04:	16140faa 	bne	s0,s4,acb0 <inst_error>
    6e08:	00000000 	nop
    6e0c:	00000000 	nop
    6e10:	24150000 	li	s5,0
    6e14:	16550fa6 	bne	s2,s5,acb0 <inst_error>
    6e18:	00000000 	nop
    6e1c:	00000000 	nop
    6e20:	3c0c9a99 	lui	t4,0x9a99
    6e24:	358c84f4 	ori	t4,t4,0x84f4
    6e28:	3c0d95c7 	lui	t5,0x95c7
    6e2c:	35adcfb8 	ori	t5,t5,0xcfb8
    6e30:	24100000 	li	s0,0
    6e34:	10000011 	b	6e7c <n34_bltz_test+0x6e7c>
    6e38:	24120000 	li	s2,0
    6e3c:	00000000 	nop
    6e40:	3c109a99 	lui	s0,0x9a99
    6e44:	05000021 	bltz	t0,6ecc <n34_bltz_test+0x6ecc>
    6e48:	361084f4 	ori	s0,s0,0x84f4
    6e4c:	10000021 	b	6ed4 <n34_bltz_test+0x6ed4>
    6e50:	00000000 	nop
    6e54:	00000000 	nop
    6e58:	00000021 	move	zero,zero
    6e5c:	00000021 	move	zero,zero
    6e60:	00000021 	move	zero,zero
    6e64:	00000021 	move	zero,zero
    6e68:	00000021 	move	zero,zero
    6e6c:	00000021 	move	zero,zero
    6e70:	00000021 	move	zero,zero
    6e74:	00000021 	move	zero,zero
    6e78:	00000021 	move	zero,zero
    6e7c:	3c08dd5c 	lui	t0,0xdd5c
    6e80:	35084cdc 	ori	t0,t0,0x4cdc
    6e84:	0500ffee 	bltz	t0,6e40 <n34_bltz_test+0x6e40>
    6e88:	00000000 	nop
    6e8c:	10000011 	b	6ed4 <n34_bltz_test+0x6ed4>
    6e90:	00000000 	nop
    6e94:	00000000 	nop
    6e98:	00000021 	move	zero,zero
    6e9c:	00000021 	move	zero,zero
    6ea0:	00000021 	move	zero,zero
    6ea4:	00000021 	move	zero,zero
    6ea8:	00000021 	move	zero,zero
    6eac:	00000021 	move	zero,zero
    6eb0:	00000021 	move	zero,zero
    6eb4:	00000021 	move	zero,zero
    6eb8:	00000021 	move	zero,zero
    6ebc:	00000021 	move	zero,zero
    6ec0:	00000021 	move	zero,zero
    6ec4:	00000021 	move	zero,zero
    6ec8:	00000021 	move	zero,zero
    6ecc:	3c1295c7 	lui	s2,0x95c7
    6ed0:	3652cfb8 	ori	s2,s2,0xcfb8
    6ed4:	00000000 	nop
    6ed8:	3c149a99 	lui	s4,0x9a99
    6edc:	369484f4 	ori	s4,s4,0x84f4
    6ee0:	16140f73 	bne	s0,s4,acb0 <inst_error>
    6ee4:	00000000 	nop
    6ee8:	00000000 	nop
    6eec:	3c1595c7 	lui	s5,0x95c7
    6ef0:	36b5cfb8 	ori	s5,s5,0xcfb8
    6ef4:	16550f6e 	bne	s2,s5,acb0 <inst_error>
    6ef8:	00000000 	nop
    6efc:	00000000 	nop
    6f00:	3c0c859b 	lui	t4,0x859b
    6f04:	358ca710 	ori	t4,t4,0xa710
    6f08:	3c0dad5e 	lui	t5,0xad5e
    6f0c:	35adf580 	ori	t5,t5,0xf580
    6f10:	24100000 	li	s0,0
    6f14:	10000011 	b	6f5c <n34_bltz_test+0x6f5c>
    6f18:	24120000 	li	s2,0
    6f1c:	00000000 	nop
    6f20:	3c10859b 	lui	s0,0x859b
    6f24:	05000021 	bltz	t0,6fac <n34_bltz_test+0x6fac>
    6f28:	3610a710 	ori	s0,s0,0xa710
    6f2c:	10000021 	b	6fb4 <n34_bltz_test+0x6fb4>
    6f30:	00000000 	nop
    6f34:	00000000 	nop
    6f38:	00000021 	move	zero,zero
    6f3c:	00000021 	move	zero,zero
    6f40:	00000021 	move	zero,zero
    6f44:	00000021 	move	zero,zero
    6f48:	00000021 	move	zero,zero
    6f4c:	00000021 	move	zero,zero
    6f50:	00000021 	move	zero,zero
    6f54:	00000021 	move	zero,zero
    6f58:	00000021 	move	zero,zero
    6f5c:	3c08401b 	lui	t0,0x401b
    6f60:	3508f5ce 	ori	t0,t0,0xf5ce
    6f64:	0500ffee 	bltz	t0,6f20 <n34_bltz_test+0x6f20>
    6f68:	00000000 	nop
    6f6c:	10000011 	b	6fb4 <n34_bltz_test+0x6fb4>
    6f70:	00000000 	nop
    6f74:	00000000 	nop
    6f78:	00000021 	move	zero,zero
    6f7c:	00000021 	move	zero,zero
    6f80:	00000021 	move	zero,zero
    6f84:	00000021 	move	zero,zero
    6f88:	00000021 	move	zero,zero
    6f8c:	00000021 	move	zero,zero
    6f90:	00000021 	move	zero,zero
    6f94:	00000021 	move	zero,zero
    6f98:	00000021 	move	zero,zero
    6f9c:	00000021 	move	zero,zero
    6fa0:	00000021 	move	zero,zero
    6fa4:	00000021 	move	zero,zero
    6fa8:	00000021 	move	zero,zero
    6fac:	3c12ad5e 	lui	s2,0xad5e
    6fb0:	3652f580 	ori	s2,s2,0xf580
    6fb4:	00000000 	nop
    6fb8:	24140000 	li	s4,0
    6fbc:	16140f3c 	bne	s0,s4,acb0 <inst_error>
    6fc0:	00000000 	nop
    6fc4:	00000000 	nop
    6fc8:	24150000 	li	s5,0
    6fcc:	16550f38 	bne	s2,s5,acb0 <inst_error>
    6fd0:	00000000 	nop
    6fd4:	00000000 	nop
    6fd8:	3c0ce318 	lui	t4,0xe318
    6fdc:	358c60dc 	ori	t4,t4,0x60dc
    6fe0:	3c0d4d43 	lui	t5,0x4d43
    6fe4:	35adfd80 	ori	t5,t5,0xfd80
    6fe8:	24100000 	li	s0,0
    6fec:	10000011 	b	7034 <n34_bltz_test+0x7034>
    6ff0:	24120000 	li	s2,0
    6ff4:	00000000 	nop
    6ff8:	3c10e318 	lui	s0,0xe318
    6ffc:	05000021 	bltz	t0,7084 <n34_bltz_test+0x7084>
    7000:	361060dc 	ori	s0,s0,0x60dc
    7004:	10000021 	b	708c <n34_bltz_test+0x708c>
    7008:	00000000 	nop
    700c:	00000000 	nop
    7010:	00000021 	move	zero,zero
    7014:	00000021 	move	zero,zero
    7018:	00000021 	move	zero,zero
    701c:	00000021 	move	zero,zero
    7020:	00000021 	move	zero,zero
    7024:	00000021 	move	zero,zero
    7028:	00000021 	move	zero,zero
    702c:	00000021 	move	zero,zero
    7030:	00000021 	move	zero,zero
    7034:	3c0844a5 	lui	t0,0x44a5
    7038:	35086676 	ori	t0,t0,0x6676
    703c:	0500ffee 	bltz	t0,6ff8 <n34_bltz_test+0x6ff8>
    7040:	00000000 	nop
    7044:	10000011 	b	708c <n34_bltz_test+0x708c>
    7048:	00000000 	nop
    704c:	00000000 	nop
    7050:	00000021 	move	zero,zero
    7054:	00000021 	move	zero,zero
    7058:	00000021 	move	zero,zero
    705c:	00000021 	move	zero,zero
    7060:	00000021 	move	zero,zero
    7064:	00000021 	move	zero,zero
    7068:	00000021 	move	zero,zero
    706c:	00000021 	move	zero,zero
    7070:	00000021 	move	zero,zero
    7074:	00000021 	move	zero,zero
    7078:	00000021 	move	zero,zero
    707c:	00000021 	move	zero,zero
    7080:	00000021 	move	zero,zero
    7084:	3c124d43 	lui	s2,0x4d43
    7088:	3652fd80 	ori	s2,s2,0xfd80
    708c:	00000000 	nop
    7090:	24140000 	li	s4,0
    7094:	16140f06 	bne	s0,s4,acb0 <inst_error>
    7098:	00000000 	nop
    709c:	00000000 	nop
    70a0:	24150000 	li	s5,0
    70a4:	16550f02 	bne	s2,s5,acb0 <inst_error>
    70a8:	00000000 	nop
    70ac:	00000000 	nop
    70b0:	3c0c190a 	lui	t4,0x190a
    70b4:	358c1f10 	ori	t4,t4,0x1f10
    70b8:	3c0df22f 	lui	t5,0xf22f
    70bc:	35ad43cc 	ori	t5,t5,0x43cc
    70c0:	24100000 	li	s0,0
    70c4:	10000011 	b	710c <n34_bltz_test+0x710c>
    70c8:	24120000 	li	s2,0
    70cc:	00000000 	nop
    70d0:	3c10190a 	lui	s0,0x190a
    70d4:	05000021 	bltz	t0,715c <n34_bltz_test+0x715c>
    70d8:	36101f10 	ori	s0,s0,0x1f10
    70dc:	10000021 	b	7164 <n34_bltz_test+0x7164>
    70e0:	00000000 	nop
    70e4:	00000000 	nop
    70e8:	00000021 	move	zero,zero
    70ec:	00000021 	move	zero,zero
    70f0:	00000021 	move	zero,zero
    70f4:	00000021 	move	zero,zero
    70f8:	00000021 	move	zero,zero
    70fc:	00000021 	move	zero,zero
    7100:	00000021 	move	zero,zero
    7104:	00000021 	move	zero,zero
    7108:	00000021 	move	zero,zero
    710c:	3c0885b9 	lui	t0,0x85b9
    7110:	3508de28 	ori	t0,t0,0xde28
    7114:	0500ffee 	bltz	t0,70d0 <n34_bltz_test+0x70d0>
    7118:	00000000 	nop
    711c:	10000011 	b	7164 <n34_bltz_test+0x7164>
    7120:	00000000 	nop
    7124:	00000000 	nop
    7128:	00000021 	move	zero,zero
    712c:	00000021 	move	zero,zero
    7130:	00000021 	move	zero,zero
    7134:	00000021 	move	zero,zero
    7138:	00000021 	move	zero,zero
    713c:	00000021 	move	zero,zero
    7140:	00000021 	move	zero,zero
    7144:	00000021 	move	zero,zero
    7148:	00000021 	move	zero,zero
    714c:	00000021 	move	zero,zero
    7150:	00000021 	move	zero,zero
    7154:	00000021 	move	zero,zero
    7158:	00000021 	move	zero,zero
    715c:	3c12f22f 	lui	s2,0xf22f
    7160:	365243cc 	ori	s2,s2,0x43cc
    7164:	00000000 	nop
    7168:	3c14190a 	lui	s4,0x190a
    716c:	36941f10 	ori	s4,s4,0x1f10
    7170:	16140ecf 	bne	s0,s4,acb0 <inst_error>
    7174:	00000000 	nop
    7178:	00000000 	nop
    717c:	3c15f22f 	lui	s5,0xf22f
    7180:	36b543cc 	ori	s5,s5,0x43cc
    7184:	16550eca 	bne	s2,s5,acb0 <inst_error>
    7188:	00000000 	nop
    718c:	00000000 	nop
    7190:	3c0cedf5 	lui	t4,0xedf5
    7194:	358c72fa 	ori	t4,t4,0x72fa
    7198:	3c0df2ce 	lui	t5,0xf2ce
    719c:	35adc4fc 	ori	t5,t5,0xc4fc
    71a0:	24100000 	li	s0,0
    71a4:	10000011 	b	71ec <n34_bltz_test+0x71ec>
    71a8:	24120000 	li	s2,0
    71ac:	00000000 	nop
    71b0:	3c10edf5 	lui	s0,0xedf5
    71b4:	05000021 	bltz	t0,723c <n34_bltz_test+0x723c>
    71b8:	361072fa 	ori	s0,s0,0x72fa
    71bc:	10000021 	b	7244 <n34_bltz_test+0x7244>
    71c0:	00000000 	nop
    71c4:	00000000 	nop
    71c8:	00000021 	move	zero,zero
    71cc:	00000021 	move	zero,zero
    71d0:	00000021 	move	zero,zero
    71d4:	00000021 	move	zero,zero
    71d8:	00000021 	move	zero,zero
    71dc:	00000021 	move	zero,zero
    71e0:	00000021 	move	zero,zero
    71e4:	00000021 	move	zero,zero
    71e8:	00000021 	move	zero,zero
    71ec:	3c084ff3 	lui	t0,0x4ff3
    71f0:	35082d84 	ori	t0,t0,0x2d84
    71f4:	0500ffee 	bltz	t0,71b0 <n34_bltz_test+0x71b0>
    71f8:	00000000 	nop
    71fc:	10000011 	b	7244 <n34_bltz_test+0x7244>
    7200:	00000000 	nop
    7204:	00000000 	nop
    7208:	00000021 	move	zero,zero
    720c:	00000021 	move	zero,zero
    7210:	00000021 	move	zero,zero
    7214:	00000021 	move	zero,zero
    7218:	00000021 	move	zero,zero
    721c:	00000021 	move	zero,zero
    7220:	00000021 	move	zero,zero
    7224:	00000021 	move	zero,zero
    7228:	00000021 	move	zero,zero
    722c:	00000021 	move	zero,zero
    7230:	00000021 	move	zero,zero
    7234:	00000021 	move	zero,zero
    7238:	00000021 	move	zero,zero
    723c:	3c12f2ce 	lui	s2,0xf2ce
    7240:	3652c4fc 	ori	s2,s2,0xc4fc
    7244:	00000000 	nop
    7248:	24140000 	li	s4,0
    724c:	16140e98 	bne	s0,s4,acb0 <inst_error>
    7250:	00000000 	nop
    7254:	00000000 	nop
    7258:	24150000 	li	s5,0
    725c:	16550e94 	bne	s2,s5,acb0 <inst_error>
    7260:	00000000 	nop
    7264:	00000000 	nop
    7268:	3c0c613b 	lui	t4,0x613b
    726c:	358cfc20 	ori	t4,t4,0xfc20
    7270:	3c0d880b 	lui	t5,0x880b
    7274:	35ad8150 	ori	t5,t5,0x8150
    7278:	24100000 	li	s0,0
    727c:	10000011 	b	72c4 <n34_bltz_test+0x72c4>
    7280:	24120000 	li	s2,0
    7284:	00000000 	nop
    7288:	3c10613b 	lui	s0,0x613b
    728c:	05000021 	bltz	t0,7314 <n34_bltz_test+0x7314>
    7290:	3610fc20 	ori	s0,s0,0xfc20
    7294:	10000021 	b	731c <n34_bltz_test+0x731c>
    7298:	00000000 	nop
    729c:	00000000 	nop
    72a0:	00000021 	move	zero,zero
    72a4:	00000021 	move	zero,zero
    72a8:	00000021 	move	zero,zero
    72ac:	00000021 	move	zero,zero
    72b0:	00000021 	move	zero,zero
    72b4:	00000021 	move	zero,zero
    72b8:	00000021 	move	zero,zero
    72bc:	00000021 	move	zero,zero
    72c0:	00000021 	move	zero,zero
    72c4:	3c083185 	lui	t0,0x3185
    72c8:	35085688 	ori	t0,t0,0x5688
    72cc:	0500ffee 	bltz	t0,7288 <n34_bltz_test+0x7288>
    72d0:	00000000 	nop
    72d4:	10000011 	b	731c <n34_bltz_test+0x731c>
    72d8:	00000000 	nop
    72dc:	00000000 	nop
    72e0:	00000021 	move	zero,zero
    72e4:	00000021 	move	zero,zero
    72e8:	00000021 	move	zero,zero
    72ec:	00000021 	move	zero,zero
    72f0:	00000021 	move	zero,zero
    72f4:	00000021 	move	zero,zero
    72f8:	00000021 	move	zero,zero
    72fc:	00000021 	move	zero,zero
    7300:	00000021 	move	zero,zero
    7304:	00000021 	move	zero,zero
    7308:	00000021 	move	zero,zero
    730c:	00000021 	move	zero,zero
    7310:	00000021 	move	zero,zero
    7314:	3c12880b 	lui	s2,0x880b
    7318:	36528150 	ori	s2,s2,0x8150
    731c:	00000000 	nop
    7320:	24140000 	li	s4,0
    7324:	16140e62 	bne	s0,s4,acb0 <inst_error>
    7328:	00000000 	nop
    732c:	00000000 	nop
    7330:	24150000 	li	s5,0
    7334:	16550e5e 	bne	s2,s5,acb0 <inst_error>
    7338:	00000000 	nop
    733c:	00000000 	nop
    7340:	3c0c3fe0 	lui	t4,0x3fe0
    7344:	358cb906 	ori	t4,t4,0xb906
    7348:	3c0d81b9 	lui	t5,0x81b9
    734c:	35ad6b4a 	ori	t5,t5,0x6b4a
    7350:	24100000 	li	s0,0
    7354:	10000011 	b	739c <n34_bltz_test+0x739c>
    7358:	24120000 	li	s2,0
    735c:	00000000 	nop
    7360:	3c103fe0 	lui	s0,0x3fe0
    7364:	05000021 	bltz	t0,73ec <n34_bltz_test+0x73ec>
    7368:	3610b906 	ori	s0,s0,0xb906
    736c:	10000021 	b	73f4 <n34_bltz_test+0x73f4>
    7370:	00000000 	nop
    7374:	00000000 	nop
    7378:	00000021 	move	zero,zero
    737c:	00000021 	move	zero,zero
    7380:	00000021 	move	zero,zero
    7384:	00000021 	move	zero,zero
    7388:	00000021 	move	zero,zero
    738c:	00000021 	move	zero,zero
    7390:	00000021 	move	zero,zero
    7394:	00000021 	move	zero,zero
    7398:	00000021 	move	zero,zero
    739c:	3c08a086 	lui	t0,0xa086
    73a0:	3508eaa2 	ori	t0,t0,0xeaa2
    73a4:	0500ffee 	bltz	t0,7360 <n34_bltz_test+0x7360>
    73a8:	00000000 	nop
    73ac:	10000011 	b	73f4 <n34_bltz_test+0x73f4>
    73b0:	00000000 	nop
    73b4:	00000000 	nop
    73b8:	00000021 	move	zero,zero
    73bc:	00000021 	move	zero,zero
    73c0:	00000021 	move	zero,zero
    73c4:	00000021 	move	zero,zero
    73c8:	00000021 	move	zero,zero
    73cc:	00000021 	move	zero,zero
    73d0:	00000021 	move	zero,zero
    73d4:	00000021 	move	zero,zero
    73d8:	00000021 	move	zero,zero
    73dc:	00000021 	move	zero,zero
    73e0:	00000021 	move	zero,zero
    73e4:	00000021 	move	zero,zero
    73e8:	00000021 	move	zero,zero
    73ec:	3c1281b9 	lui	s2,0x81b9
    73f0:	36526b4a 	ori	s2,s2,0x6b4a
    73f4:	00000000 	nop
    73f8:	3c143fe0 	lui	s4,0x3fe0
    73fc:	3694b906 	ori	s4,s4,0xb906
    7400:	16140e2b 	bne	s0,s4,acb0 <inst_error>
    7404:	00000000 	nop
    7408:	00000000 	nop
    740c:	3c1581b9 	lui	s5,0x81b9
    7410:	36b56b4a 	ori	s5,s5,0x6b4a
    7414:	16550e26 	bne	s2,s5,acb0 <inst_error>
    7418:	00000000 	nop
    741c:	00000000 	nop
    7420:	3c0c2609 	lui	t4,0x2609
    7424:	358c357c 	ori	t4,t4,0x357c
    7428:	3c0dce8a 	lui	t5,0xce8a
    742c:	35adbd3f 	ori	t5,t5,0xbd3f
    7430:	24100000 	li	s0,0
    7434:	10000011 	b	747c <n34_bltz_test+0x747c>
    7438:	24120000 	li	s2,0
    743c:	00000000 	nop
    7440:	3c102609 	lui	s0,0x2609
    7444:	05000021 	bltz	t0,74cc <n34_bltz_test+0x74cc>
    7448:	3610357c 	ori	s0,s0,0x357c
    744c:	10000021 	b	74d4 <n34_bltz_test+0x74d4>
    7450:	00000000 	nop
    7454:	00000000 	nop
    7458:	00000021 	move	zero,zero
    745c:	00000021 	move	zero,zero
    7460:	00000021 	move	zero,zero
    7464:	00000021 	move	zero,zero
    7468:	00000021 	move	zero,zero
    746c:	00000021 	move	zero,zero
    7470:	00000021 	move	zero,zero
    7474:	00000021 	move	zero,zero
    7478:	00000021 	move	zero,zero
    747c:	3c084a9c 	lui	t0,0x4a9c
    7480:	3508f414 	ori	t0,t0,0xf414
    7484:	0500ffee 	bltz	t0,7440 <n34_bltz_test+0x7440>
    7488:	00000000 	nop
    748c:	10000011 	b	74d4 <n34_bltz_test+0x74d4>
    7490:	00000000 	nop
    7494:	00000000 	nop
    7498:	00000021 	move	zero,zero
    749c:	00000021 	move	zero,zero
    74a0:	00000021 	move	zero,zero
    74a4:	00000021 	move	zero,zero
    74a8:	00000021 	move	zero,zero
    74ac:	00000021 	move	zero,zero
    74b0:	00000021 	move	zero,zero
    74b4:	00000021 	move	zero,zero
    74b8:	00000021 	move	zero,zero
    74bc:	00000021 	move	zero,zero
    74c0:	00000021 	move	zero,zero
    74c4:	00000021 	move	zero,zero
    74c8:	00000021 	move	zero,zero
    74cc:	3c12ce8a 	lui	s2,0xce8a
    74d0:	3652bd3f 	ori	s2,s2,0xbd3f
    74d4:	00000000 	nop
    74d8:	24140000 	li	s4,0
    74dc:	16140df4 	bne	s0,s4,acb0 <inst_error>
    74e0:	00000000 	nop
    74e4:	00000000 	nop
    74e8:	24150000 	li	s5,0
    74ec:	16550df0 	bne	s2,s5,acb0 <inst_error>
    74f0:	00000000 	nop
    74f4:	00000000 	nop
    74f8:	3c0c8dfa 	lui	t4,0x8dfa
    74fc:	358ceaca 	ori	t4,t4,0xeaca
    7500:	3c0d36ee 	lui	t5,0x36ee
    7504:	35ad47e8 	ori	t5,t5,0x47e8
    7508:	24100000 	li	s0,0
    750c:	10000011 	b	7554 <n34_bltz_test+0x7554>
    7510:	24120000 	li	s2,0
    7514:	00000000 	nop
    7518:	3c108dfa 	lui	s0,0x8dfa
    751c:	05000021 	bltz	t0,75a4 <n34_bltz_test+0x75a4>
    7520:	3610eaca 	ori	s0,s0,0xeaca
    7524:	10000021 	b	75ac <n34_bltz_test+0x75ac>
    7528:	00000000 	nop
    752c:	00000000 	nop
    7530:	00000021 	move	zero,zero
    7534:	00000021 	move	zero,zero
    7538:	00000021 	move	zero,zero
    753c:	00000021 	move	zero,zero
    7540:	00000021 	move	zero,zero
    7544:	00000021 	move	zero,zero
    7548:	00000021 	move	zero,zero
    754c:	00000021 	move	zero,zero
    7550:	00000021 	move	zero,zero
    7554:	3c08badb 	lui	t0,0xbadb
    7558:	3508bfac 	ori	t0,t0,0xbfac
    755c:	0500ffee 	bltz	t0,7518 <n34_bltz_test+0x7518>
    7560:	00000000 	nop
    7564:	10000011 	b	75ac <n34_bltz_test+0x75ac>
    7568:	00000000 	nop
    756c:	00000000 	nop
    7570:	00000021 	move	zero,zero
    7574:	00000021 	move	zero,zero
    7578:	00000021 	move	zero,zero
    757c:	00000021 	move	zero,zero
    7580:	00000021 	move	zero,zero
    7584:	00000021 	move	zero,zero
    7588:	00000021 	move	zero,zero
    758c:	00000021 	move	zero,zero
    7590:	00000021 	move	zero,zero
    7594:	00000021 	move	zero,zero
    7598:	00000021 	move	zero,zero
    759c:	00000021 	move	zero,zero
    75a0:	00000021 	move	zero,zero
    75a4:	3c1236ee 	lui	s2,0x36ee
    75a8:	365247e8 	ori	s2,s2,0x47e8
    75ac:	00000000 	nop
    75b0:	3c148dfa 	lui	s4,0x8dfa
    75b4:	3694eaca 	ori	s4,s4,0xeaca
    75b8:	16140dbd 	bne	s0,s4,acb0 <inst_error>
    75bc:	00000000 	nop
    75c0:	00000000 	nop
    75c4:	3c1536ee 	lui	s5,0x36ee
    75c8:	36b547e8 	ori	s5,s5,0x47e8
    75cc:	16550db8 	bne	s2,s5,acb0 <inst_error>
    75d0:	00000000 	nop
    75d4:	00000000 	nop
    75d8:	3c0c9471 	lui	t4,0x9471
    75dc:	358cebb8 	ori	t4,t4,0xebb8
    75e0:	3c0dd6fd 	lui	t5,0xd6fd
    75e4:	35ad76d4 	ori	t5,t5,0x76d4
    75e8:	24100000 	li	s0,0
    75ec:	10000011 	b	7634 <n34_bltz_test+0x7634>
    75f0:	24120000 	li	s2,0
    75f4:	00000000 	nop
    75f8:	3c109471 	lui	s0,0x9471
    75fc:	05000021 	bltz	t0,7684 <n34_bltz_test+0x7684>
    7600:	3610ebb8 	ori	s0,s0,0xebb8
    7604:	10000021 	b	768c <n34_bltz_test+0x768c>
    7608:	00000000 	nop
    760c:	00000000 	nop
    7610:	00000021 	move	zero,zero
    7614:	00000021 	move	zero,zero
    7618:	00000021 	move	zero,zero
    761c:	00000021 	move	zero,zero
    7620:	00000021 	move	zero,zero
    7624:	00000021 	move	zero,zero
    7628:	00000021 	move	zero,zero
    762c:	00000021 	move	zero,zero
    7630:	00000021 	move	zero,zero
    7634:	3c08e5d1 	lui	t0,0xe5d1
    7638:	35083dc0 	ori	t0,t0,0x3dc0
    763c:	0500ffee 	bltz	t0,75f8 <n34_bltz_test+0x75f8>
    7640:	00000000 	nop
    7644:	10000011 	b	768c <n34_bltz_test+0x768c>
    7648:	00000000 	nop
    764c:	00000000 	nop
    7650:	00000021 	move	zero,zero
    7654:	00000021 	move	zero,zero
    7658:	00000021 	move	zero,zero
    765c:	00000021 	move	zero,zero
    7660:	00000021 	move	zero,zero
    7664:	00000021 	move	zero,zero
    7668:	00000021 	move	zero,zero
    766c:	00000021 	move	zero,zero
    7670:	00000021 	move	zero,zero
    7674:	00000021 	move	zero,zero
    7678:	00000021 	move	zero,zero
    767c:	00000021 	move	zero,zero
    7680:	00000021 	move	zero,zero
    7684:	3c12d6fd 	lui	s2,0xd6fd
    7688:	365276d4 	ori	s2,s2,0x76d4
    768c:	00000000 	nop
    7690:	3c149471 	lui	s4,0x9471
    7694:	3694ebb8 	ori	s4,s4,0xebb8
    7698:	16140d85 	bne	s0,s4,acb0 <inst_error>
    769c:	00000000 	nop
    76a0:	00000000 	nop
    76a4:	3c15d6fd 	lui	s5,0xd6fd
    76a8:	36b576d4 	ori	s5,s5,0x76d4
    76ac:	16550d80 	bne	s2,s5,acb0 <inst_error>
    76b0:	00000000 	nop
    76b4:	00000000 	nop
    76b8:	3c0c86e1 	lui	t4,0x86e1
    76bc:	358c2e78 	ori	t4,t4,0x2e78
    76c0:	3c0d659d 	lui	t5,0x659d
    76c4:	35ad7104 	ori	t5,t5,0x7104
    76c8:	24100000 	li	s0,0
    76cc:	10000011 	b	7714 <n34_bltz_test+0x7714>
    76d0:	24120000 	li	s2,0
    76d4:	00000000 	nop
    76d8:	3c1086e1 	lui	s0,0x86e1
    76dc:	05000021 	bltz	t0,7764 <n34_bltz_test+0x7764>
    76e0:	36102e78 	ori	s0,s0,0x2e78
    76e4:	10000021 	b	776c <n34_bltz_test+0x776c>
    76e8:	00000000 	nop
    76ec:	00000000 	nop
    76f0:	00000021 	move	zero,zero
    76f4:	00000021 	move	zero,zero
    76f8:	00000021 	move	zero,zero
    76fc:	00000021 	move	zero,zero
    7700:	00000021 	move	zero,zero
    7704:	00000021 	move	zero,zero
    7708:	00000021 	move	zero,zero
    770c:	00000021 	move	zero,zero
    7710:	00000021 	move	zero,zero
    7714:	3c08632c 	lui	t0,0x632c
    7718:	35085e60 	ori	t0,t0,0x5e60
    771c:	0500ffee 	bltz	t0,76d8 <n34_bltz_test+0x76d8>
    7720:	00000000 	nop
    7724:	10000011 	b	776c <n34_bltz_test+0x776c>
    7728:	00000000 	nop
    772c:	00000000 	nop
    7730:	00000021 	move	zero,zero
    7734:	00000021 	move	zero,zero
    7738:	00000021 	move	zero,zero
    773c:	00000021 	move	zero,zero
    7740:	00000021 	move	zero,zero
    7744:	00000021 	move	zero,zero
    7748:	00000021 	move	zero,zero
    774c:	00000021 	move	zero,zero
    7750:	00000021 	move	zero,zero
    7754:	00000021 	move	zero,zero
    7758:	00000021 	move	zero,zero
    775c:	00000021 	move	zero,zero
    7760:	00000021 	move	zero,zero
    7764:	3c12659d 	lui	s2,0x659d
    7768:	36527104 	ori	s2,s2,0x7104
    776c:	00000000 	nop
    7770:	24140000 	li	s4,0
    7774:	16140d4e 	bne	s0,s4,acb0 <inst_error>
    7778:	00000000 	nop
    777c:	00000000 	nop
    7780:	24150000 	li	s5,0
    7784:	16550d4a 	bne	s2,s5,acb0 <inst_error>
    7788:	00000000 	nop
    778c:	00000000 	nop
    7790:	3c0caa94 	lui	t4,0xaa94
    7794:	358cb69c 	ori	t4,t4,0xb69c
    7798:	3c0d2ac1 	lui	t5,0x2ac1
    779c:	35adf1d6 	ori	t5,t5,0xf1d6
    77a0:	24100000 	li	s0,0
    77a4:	10000011 	b	77ec <n34_bltz_test+0x77ec>
    77a8:	24120000 	li	s2,0
    77ac:	00000000 	nop
    77b0:	3c10aa94 	lui	s0,0xaa94
    77b4:	05000021 	bltz	t0,783c <n34_bltz_test+0x783c>
    77b8:	3610b69c 	ori	s0,s0,0xb69c
    77bc:	10000021 	b	7844 <n34_bltz_test+0x7844>
    77c0:	00000000 	nop
    77c4:	00000000 	nop
    77c8:	00000021 	move	zero,zero
    77cc:	00000021 	move	zero,zero
    77d0:	00000021 	move	zero,zero
    77d4:	00000021 	move	zero,zero
    77d8:	00000021 	move	zero,zero
    77dc:	00000021 	move	zero,zero
    77e0:	00000021 	move	zero,zero
    77e4:	00000021 	move	zero,zero
    77e8:	00000021 	move	zero,zero
    77ec:	3c08cf91 	lui	t0,0xcf91
    77f0:	3508a250 	ori	t0,t0,0xa250
    77f4:	0500ffee 	bltz	t0,77b0 <n34_bltz_test+0x77b0>
    77f8:	00000000 	nop
    77fc:	10000011 	b	7844 <n34_bltz_test+0x7844>
    7800:	00000000 	nop
    7804:	00000000 	nop
    7808:	00000021 	move	zero,zero
    780c:	00000021 	move	zero,zero
    7810:	00000021 	move	zero,zero
    7814:	00000021 	move	zero,zero
    7818:	00000021 	move	zero,zero
    781c:	00000021 	move	zero,zero
    7820:	00000021 	move	zero,zero
    7824:	00000021 	move	zero,zero
    7828:	00000021 	move	zero,zero
    782c:	00000021 	move	zero,zero
    7830:	00000021 	move	zero,zero
    7834:	00000021 	move	zero,zero
    7838:	00000021 	move	zero,zero
    783c:	3c122ac1 	lui	s2,0x2ac1
    7840:	3652f1d6 	ori	s2,s2,0xf1d6
    7844:	00000000 	nop
    7848:	3c14aa94 	lui	s4,0xaa94
    784c:	3694b69c 	ori	s4,s4,0xb69c
    7850:	16140d17 	bne	s0,s4,acb0 <inst_error>
    7854:	00000000 	nop
    7858:	00000000 	nop
    785c:	3c152ac1 	lui	s5,0x2ac1
    7860:	36b5f1d6 	ori	s5,s5,0xf1d6
    7864:	16550d12 	bne	s2,s5,acb0 <inst_error>
    7868:	00000000 	nop
    786c:	00000000 	nop
    7870:	3c0cfaa8 	lui	t4,0xfaa8
    7874:	358c1f0a 	ori	t4,t4,0x1f0a
    7878:	3c0df9e1 	lui	t5,0xf9e1
    787c:	35adadb0 	ori	t5,t5,0xadb0
    7880:	24100000 	li	s0,0
    7884:	10000011 	b	78cc <n34_bltz_test+0x78cc>
    7888:	24120000 	li	s2,0
    788c:	00000000 	nop
    7890:	3c10faa8 	lui	s0,0xfaa8
    7894:	05000021 	bltz	t0,791c <n34_bltz_test+0x791c>
    7898:	36101f0a 	ori	s0,s0,0x1f0a
    789c:	10000021 	b	7924 <n34_bltz_test+0x7924>
    78a0:	00000000 	nop
    78a4:	00000000 	nop
    78a8:	00000021 	move	zero,zero
    78ac:	00000021 	move	zero,zero
    78b0:	00000021 	move	zero,zero
    78b4:	00000021 	move	zero,zero
    78b8:	00000021 	move	zero,zero
    78bc:	00000021 	move	zero,zero
    78c0:	00000021 	move	zero,zero
    78c4:	00000021 	move	zero,zero
    78c8:	00000021 	move	zero,zero
    78cc:	3c0849d1 	lui	t0,0x49d1
    78d0:	350896fe 	ori	t0,t0,0x96fe
    78d4:	0500ffee 	bltz	t0,7890 <n34_bltz_test+0x7890>
    78d8:	00000000 	nop
    78dc:	10000011 	b	7924 <n34_bltz_test+0x7924>
    78e0:	00000000 	nop
    78e4:	00000000 	nop
    78e8:	00000021 	move	zero,zero
    78ec:	00000021 	move	zero,zero
    78f0:	00000021 	move	zero,zero
    78f4:	00000021 	move	zero,zero
    78f8:	00000021 	move	zero,zero
    78fc:	00000021 	move	zero,zero
    7900:	00000021 	move	zero,zero
    7904:	00000021 	move	zero,zero
    7908:	00000021 	move	zero,zero
    790c:	00000021 	move	zero,zero
    7910:	00000021 	move	zero,zero
    7914:	00000021 	move	zero,zero
    7918:	00000021 	move	zero,zero
    791c:	3c12f9e1 	lui	s2,0xf9e1
    7920:	3652adb0 	ori	s2,s2,0xadb0
    7924:	00000000 	nop
    7928:	24140000 	li	s4,0
    792c:	16140ce0 	bne	s0,s4,acb0 <inst_error>
    7930:	00000000 	nop
    7934:	00000000 	nop
    7938:	24150000 	li	s5,0
    793c:	16550cdc 	bne	s2,s5,acb0 <inst_error>
    7940:	00000000 	nop
    7944:	00000000 	nop
    7948:	3c0c41be 	lui	t4,0x41be
    794c:	358cd444 	ori	t4,t4,0xd444
    7950:	3c0d1652 	lui	t5,0x1652
    7954:	35ad560f 	ori	t5,t5,0x560f
    7958:	24100000 	li	s0,0
    795c:	10000011 	b	79a4 <n34_bltz_test+0x79a4>
    7960:	24120000 	li	s2,0
    7964:	00000000 	nop
    7968:	3c1041be 	lui	s0,0x41be
    796c:	05000021 	bltz	t0,79f4 <n34_bltz_test+0x79f4>
    7970:	3610d444 	ori	s0,s0,0xd444
    7974:	10000021 	b	79fc <n34_bltz_test+0x79fc>
    7978:	00000000 	nop
    797c:	00000000 	nop
    7980:	00000021 	move	zero,zero
    7984:	00000021 	move	zero,zero
    7988:	00000021 	move	zero,zero
    798c:	00000021 	move	zero,zero
    7990:	00000021 	move	zero,zero
    7994:	00000021 	move	zero,zero
    7998:	00000021 	move	zero,zero
    799c:	00000021 	move	zero,zero
    79a0:	00000021 	move	zero,zero
    79a4:	3c089ebe 	lui	t0,0x9ebe
    79a8:	35082784 	ori	t0,t0,0x2784
    79ac:	0500ffee 	bltz	t0,7968 <n34_bltz_test+0x7968>
    79b0:	00000000 	nop
    79b4:	10000011 	b	79fc <n34_bltz_test+0x79fc>
    79b8:	00000000 	nop
    79bc:	00000000 	nop
    79c0:	00000021 	move	zero,zero
    79c4:	00000021 	move	zero,zero
    79c8:	00000021 	move	zero,zero
    79cc:	00000021 	move	zero,zero
    79d0:	00000021 	move	zero,zero
    79d4:	00000021 	move	zero,zero
    79d8:	00000021 	move	zero,zero
    79dc:	00000021 	move	zero,zero
    79e0:	00000021 	move	zero,zero
    79e4:	00000021 	move	zero,zero
    79e8:	00000021 	move	zero,zero
    79ec:	00000021 	move	zero,zero
    79f0:	00000021 	move	zero,zero
    79f4:	3c121652 	lui	s2,0x1652
    79f8:	3652560f 	ori	s2,s2,0x560f
    79fc:	00000000 	nop
    7a00:	3c1441be 	lui	s4,0x41be
    7a04:	3694d444 	ori	s4,s4,0xd444
    7a08:	16140ca9 	bne	s0,s4,acb0 <inst_error>
    7a0c:	00000000 	nop
    7a10:	00000000 	nop
    7a14:	3c151652 	lui	s5,0x1652
    7a18:	36b5560f 	ori	s5,s5,0x560f
    7a1c:	16550ca4 	bne	s2,s5,acb0 <inst_error>
    7a20:	00000000 	nop
    7a24:	00000000 	nop
    7a28:	3c0c5b82 	lui	t4,0x5b82
    7a2c:	358c21e0 	ori	t4,t4,0x21e0
    7a30:	3c0d1289 	lui	t5,0x1289
    7a34:	35adbca0 	ori	t5,t5,0xbca0
    7a38:	24100000 	li	s0,0
    7a3c:	10000011 	b	7a84 <n34_bltz_test+0x7a84>
    7a40:	24120000 	li	s2,0
    7a44:	00000000 	nop
    7a48:	3c105b82 	lui	s0,0x5b82
    7a4c:	05000021 	bltz	t0,7ad4 <n34_bltz_test+0x7ad4>
    7a50:	361021e0 	ori	s0,s0,0x21e0
    7a54:	10000021 	b	7adc <n34_bltz_test+0x7adc>
    7a58:	00000000 	nop
    7a5c:	00000000 	nop
    7a60:	00000021 	move	zero,zero
    7a64:	00000021 	move	zero,zero
    7a68:	00000021 	move	zero,zero
    7a6c:	00000021 	move	zero,zero
    7a70:	00000021 	move	zero,zero
    7a74:	00000021 	move	zero,zero
    7a78:	00000021 	move	zero,zero
    7a7c:	00000021 	move	zero,zero
    7a80:	00000021 	move	zero,zero
    7a84:	3c08b322 	lui	t0,0xb322
    7a88:	3508d38c 	ori	t0,t0,0xd38c
    7a8c:	0500ffee 	bltz	t0,7a48 <n34_bltz_test+0x7a48>
    7a90:	00000000 	nop
    7a94:	10000011 	b	7adc <n34_bltz_test+0x7adc>
    7a98:	00000000 	nop
    7a9c:	00000000 	nop
    7aa0:	00000021 	move	zero,zero
    7aa4:	00000021 	move	zero,zero
    7aa8:	00000021 	move	zero,zero
    7aac:	00000021 	move	zero,zero
    7ab0:	00000021 	move	zero,zero
    7ab4:	00000021 	move	zero,zero
    7ab8:	00000021 	move	zero,zero
    7abc:	00000021 	move	zero,zero
    7ac0:	00000021 	move	zero,zero
    7ac4:	00000021 	move	zero,zero
    7ac8:	00000021 	move	zero,zero
    7acc:	00000021 	move	zero,zero
    7ad0:	00000021 	move	zero,zero
    7ad4:	3c121289 	lui	s2,0x1289
    7ad8:	3652bca0 	ori	s2,s2,0xbca0
    7adc:	00000000 	nop
    7ae0:	3c145b82 	lui	s4,0x5b82
    7ae4:	369421e0 	ori	s4,s4,0x21e0
    7ae8:	16140c71 	bne	s0,s4,acb0 <inst_error>
    7aec:	00000000 	nop
    7af0:	00000000 	nop
    7af4:	3c151289 	lui	s5,0x1289
    7af8:	36b5bca0 	ori	s5,s5,0xbca0
    7afc:	16550c6c 	bne	s2,s5,acb0 <inst_error>
    7b00:	00000000 	nop
    7b04:	00000000 	nop
    7b08:	3c0c8770 	lui	t4,0x8770
    7b0c:	358ccafc 	ori	t4,t4,0xcafc
    7b10:	3c0d439a 	lui	t5,0x439a
    7b14:	35adb537 	ori	t5,t5,0xb537
    7b18:	24100000 	li	s0,0
    7b1c:	10000011 	b	7b64 <n34_bltz_test+0x7b64>
    7b20:	24120000 	li	s2,0
    7b24:	00000000 	nop
    7b28:	3c108770 	lui	s0,0x8770
    7b2c:	05000021 	bltz	t0,7bb4 <n34_bltz_test+0x7bb4>
    7b30:	3610cafc 	ori	s0,s0,0xcafc
    7b34:	10000021 	b	7bbc <n34_bltz_test+0x7bbc>
    7b38:	00000000 	nop
    7b3c:	00000000 	nop
    7b40:	00000021 	move	zero,zero
    7b44:	00000021 	move	zero,zero
    7b48:	00000021 	move	zero,zero
    7b4c:	00000021 	move	zero,zero
    7b50:	00000021 	move	zero,zero
    7b54:	00000021 	move	zero,zero
    7b58:	00000021 	move	zero,zero
    7b5c:	00000021 	move	zero,zero
    7b60:	00000021 	move	zero,zero
    7b64:	3c0811b9 	lui	t0,0x11b9
    7b68:	35085797 	ori	t0,t0,0x5797
    7b6c:	0500ffee 	bltz	t0,7b28 <n34_bltz_test+0x7b28>
    7b70:	00000000 	nop
    7b74:	10000011 	b	7bbc <n34_bltz_test+0x7bbc>
    7b78:	00000000 	nop
    7b7c:	00000000 	nop
    7b80:	00000021 	move	zero,zero
    7b84:	00000021 	move	zero,zero
    7b88:	00000021 	move	zero,zero
    7b8c:	00000021 	move	zero,zero
    7b90:	00000021 	move	zero,zero
    7b94:	00000021 	move	zero,zero
    7b98:	00000021 	move	zero,zero
    7b9c:	00000021 	move	zero,zero
    7ba0:	00000021 	move	zero,zero
    7ba4:	00000021 	move	zero,zero
    7ba8:	00000021 	move	zero,zero
    7bac:	00000021 	move	zero,zero
    7bb0:	00000021 	move	zero,zero
    7bb4:	3c12439a 	lui	s2,0x439a
    7bb8:	3652b537 	ori	s2,s2,0xb537
    7bbc:	00000000 	nop
    7bc0:	24140000 	li	s4,0
    7bc4:	16140c3a 	bne	s0,s4,acb0 <inst_error>
    7bc8:	00000000 	nop
    7bcc:	00000000 	nop
    7bd0:	24150000 	li	s5,0
    7bd4:	16550c36 	bne	s2,s5,acb0 <inst_error>
    7bd8:	00000000 	nop
    7bdc:	00000000 	nop
    7be0:	3c0cccc5 	lui	t4,0xccc5
    7be4:	358ccb60 	ori	t4,t4,0xcb60
    7be8:	3c0dd991 	lui	t5,0xd991
    7bec:	35adfcb0 	ori	t5,t5,0xfcb0
    7bf0:	24100000 	li	s0,0
    7bf4:	10000011 	b	7c3c <n34_bltz_test+0x7c3c>
    7bf8:	24120000 	li	s2,0
    7bfc:	00000000 	nop
    7c00:	3c10ccc5 	lui	s0,0xccc5
    7c04:	05000021 	bltz	t0,7c8c <n34_bltz_test+0x7c8c>
    7c08:	3610cb60 	ori	s0,s0,0xcb60
    7c0c:	10000021 	b	7c94 <n34_bltz_test+0x7c94>
    7c10:	00000000 	nop
    7c14:	00000000 	nop
    7c18:	00000021 	move	zero,zero
    7c1c:	00000021 	move	zero,zero
    7c20:	00000021 	move	zero,zero
    7c24:	00000021 	move	zero,zero
    7c28:	00000021 	move	zero,zero
    7c2c:	00000021 	move	zero,zero
    7c30:	00000021 	move	zero,zero
    7c34:	00000021 	move	zero,zero
    7c38:	00000021 	move	zero,zero
    7c3c:	3c084bb0 	lui	t0,0x4bb0
    7c40:	35086da4 	ori	t0,t0,0x6da4
    7c44:	0500ffee 	bltz	t0,7c00 <n34_bltz_test+0x7c00>
    7c48:	00000000 	nop
    7c4c:	10000011 	b	7c94 <n34_bltz_test+0x7c94>
    7c50:	00000000 	nop
    7c54:	00000000 	nop
    7c58:	00000021 	move	zero,zero
    7c5c:	00000021 	move	zero,zero
    7c60:	00000021 	move	zero,zero
    7c64:	00000021 	move	zero,zero
    7c68:	00000021 	move	zero,zero
    7c6c:	00000021 	move	zero,zero
    7c70:	00000021 	move	zero,zero
    7c74:	00000021 	move	zero,zero
    7c78:	00000021 	move	zero,zero
    7c7c:	00000021 	move	zero,zero
    7c80:	00000021 	move	zero,zero
    7c84:	00000021 	move	zero,zero
    7c88:	00000021 	move	zero,zero
    7c8c:	3c12d991 	lui	s2,0xd991
    7c90:	3652fcb0 	ori	s2,s2,0xfcb0
    7c94:	00000000 	nop
    7c98:	24140000 	li	s4,0
    7c9c:	16140c04 	bne	s0,s4,acb0 <inst_error>
    7ca0:	00000000 	nop
    7ca4:	00000000 	nop
    7ca8:	24150000 	li	s5,0
    7cac:	16550c00 	bne	s2,s5,acb0 <inst_error>
    7cb0:	00000000 	nop
    7cb4:	00000000 	nop
    7cb8:	3c0c5585 	lui	t4,0x5585
    7cbc:	358c7404 	ori	t4,t4,0x7404
    7cc0:	3c0d37f8 	lui	t5,0x37f8
    7cc4:	35add0f0 	ori	t5,t5,0xd0f0
    7cc8:	24100000 	li	s0,0
    7ccc:	10000011 	b	7d14 <n34_bltz_test+0x7d14>
    7cd0:	24120000 	li	s2,0
    7cd4:	00000000 	nop
    7cd8:	3c105585 	lui	s0,0x5585
    7cdc:	05000021 	bltz	t0,7d64 <n34_bltz_test+0x7d64>
    7ce0:	36107404 	ori	s0,s0,0x7404
    7ce4:	10000021 	b	7d6c <n34_bltz_test+0x7d6c>
    7ce8:	00000000 	nop
    7cec:	00000000 	nop
    7cf0:	00000021 	move	zero,zero
    7cf4:	00000021 	move	zero,zero
    7cf8:	00000021 	move	zero,zero
    7cfc:	00000021 	move	zero,zero
    7d00:	00000021 	move	zero,zero
    7d04:	00000021 	move	zero,zero
    7d08:	00000021 	move	zero,zero
    7d0c:	00000021 	move	zero,zero
    7d10:	00000021 	move	zero,zero
    7d14:	3c0880a2 	lui	t0,0x80a2
    7d18:	3508b0e0 	ori	t0,t0,0xb0e0
    7d1c:	0500ffee 	bltz	t0,7cd8 <n34_bltz_test+0x7cd8>
    7d20:	00000000 	nop
    7d24:	10000011 	b	7d6c <n34_bltz_test+0x7d6c>
    7d28:	00000000 	nop
    7d2c:	00000000 	nop
    7d30:	00000021 	move	zero,zero
    7d34:	00000021 	move	zero,zero
    7d38:	00000021 	move	zero,zero
    7d3c:	00000021 	move	zero,zero
    7d40:	00000021 	move	zero,zero
    7d44:	00000021 	move	zero,zero
    7d48:	00000021 	move	zero,zero
    7d4c:	00000021 	move	zero,zero
    7d50:	00000021 	move	zero,zero
    7d54:	00000021 	move	zero,zero
    7d58:	00000021 	move	zero,zero
    7d5c:	00000021 	move	zero,zero
    7d60:	00000021 	move	zero,zero
    7d64:	3c1237f8 	lui	s2,0x37f8
    7d68:	3652d0f0 	ori	s2,s2,0xd0f0
    7d6c:	00000000 	nop
    7d70:	3c145585 	lui	s4,0x5585
    7d74:	36947404 	ori	s4,s4,0x7404
    7d78:	16140bcd 	bne	s0,s4,acb0 <inst_error>
    7d7c:	00000000 	nop
    7d80:	00000000 	nop
    7d84:	3c1537f8 	lui	s5,0x37f8
    7d88:	36b5d0f0 	ori	s5,s5,0xd0f0
    7d8c:	16550bc8 	bne	s2,s5,acb0 <inst_error>
    7d90:	00000000 	nop
    7d94:	00000000 	nop
    7d98:	3c0c2e74 	lui	t4,0x2e74
    7d9c:	358c626c 	ori	t4,t4,0x626c
    7da0:	3c0d17a6 	lui	t5,0x17a6
    7da4:	35ad5430 	ori	t5,t5,0x5430
    7da8:	24100000 	li	s0,0
    7dac:	10000011 	b	7df4 <n34_bltz_test+0x7df4>
    7db0:	24120000 	li	s2,0
    7db4:	00000000 	nop
    7db8:	3c102e74 	lui	s0,0x2e74
    7dbc:	05000021 	bltz	t0,7e44 <n34_bltz_test+0x7e44>
    7dc0:	3610626c 	ori	s0,s0,0x626c
    7dc4:	10000021 	b	7e4c <n34_bltz_test+0x7e4c>
    7dc8:	00000000 	nop
    7dcc:	00000000 	nop
    7dd0:	00000021 	move	zero,zero
    7dd4:	00000021 	move	zero,zero
    7dd8:	00000021 	move	zero,zero
    7ddc:	00000021 	move	zero,zero
    7de0:	00000021 	move	zero,zero
    7de4:	00000021 	move	zero,zero
    7de8:	00000021 	move	zero,zero
    7dec:	00000021 	move	zero,zero
    7df0:	00000021 	move	zero,zero
    7df4:	3c080872 	lui	t0,0x872
    7df8:	3508dd3e 	ori	t0,t0,0xdd3e
    7dfc:	0500ffee 	bltz	t0,7db8 <n34_bltz_test+0x7db8>
    7e00:	00000000 	nop
    7e04:	10000011 	b	7e4c <n34_bltz_test+0x7e4c>
    7e08:	00000000 	nop
    7e0c:	00000000 	nop
    7e10:	00000021 	move	zero,zero
    7e14:	00000021 	move	zero,zero
    7e18:	00000021 	move	zero,zero
    7e1c:	00000021 	move	zero,zero
    7e20:	00000021 	move	zero,zero
    7e24:	00000021 	move	zero,zero
    7e28:	00000021 	move	zero,zero
    7e2c:	00000021 	move	zero,zero
    7e30:	00000021 	move	zero,zero
    7e34:	00000021 	move	zero,zero
    7e38:	00000021 	move	zero,zero
    7e3c:	00000021 	move	zero,zero
    7e40:	00000021 	move	zero,zero
    7e44:	3c1217a6 	lui	s2,0x17a6
    7e48:	36525430 	ori	s2,s2,0x5430
    7e4c:	00000000 	nop
    7e50:	24140000 	li	s4,0
    7e54:	16140b96 	bne	s0,s4,acb0 <inst_error>
    7e58:	00000000 	nop
    7e5c:	00000000 	nop
    7e60:	24150000 	li	s5,0
    7e64:	16550b92 	bne	s2,s5,acb0 <inst_error>
    7e68:	00000000 	nop
    7e6c:	00000000 	nop
    7e70:	3c0c9676 	lui	t4,0x9676
    7e74:	358ce250 	ori	t4,t4,0xe250
    7e78:	3c0d755f 	lui	t5,0x755f
    7e7c:	35ad53a0 	ori	t5,t5,0x53a0
    7e80:	24100000 	li	s0,0
    7e84:	10000011 	b	7ecc <n34_bltz_test+0x7ecc>
    7e88:	24120000 	li	s2,0
    7e8c:	00000000 	nop
    7e90:	3c109676 	lui	s0,0x9676
    7e94:	05000021 	bltz	t0,7f1c <n34_bltz_test+0x7f1c>
    7e98:	3610e250 	ori	s0,s0,0xe250
    7e9c:	10000021 	b	7f24 <n34_bltz_test+0x7f24>
    7ea0:	00000000 	nop
    7ea4:	00000000 	nop
    7ea8:	00000021 	move	zero,zero
    7eac:	00000021 	move	zero,zero
    7eb0:	00000021 	move	zero,zero
    7eb4:	00000021 	move	zero,zero
    7eb8:	00000021 	move	zero,zero
    7ebc:	00000021 	move	zero,zero
    7ec0:	00000021 	move	zero,zero
    7ec4:	00000021 	move	zero,zero
    7ec8:	00000021 	move	zero,zero
    7ecc:	3c086a9e 	lui	t0,0x6a9e
    7ed0:	350876e0 	ori	t0,t0,0x76e0
    7ed4:	0500ffee 	bltz	t0,7e90 <n34_bltz_test+0x7e90>
    7ed8:	00000000 	nop
    7edc:	10000011 	b	7f24 <n34_bltz_test+0x7f24>
    7ee0:	00000000 	nop
    7ee4:	00000000 	nop
    7ee8:	00000021 	move	zero,zero
    7eec:	00000021 	move	zero,zero
    7ef0:	00000021 	move	zero,zero
    7ef4:	00000021 	move	zero,zero
    7ef8:	00000021 	move	zero,zero
    7efc:	00000021 	move	zero,zero
    7f00:	00000021 	move	zero,zero
    7f04:	00000021 	move	zero,zero
    7f08:	00000021 	move	zero,zero
    7f0c:	00000021 	move	zero,zero
    7f10:	00000021 	move	zero,zero
    7f14:	00000021 	move	zero,zero
    7f18:	00000021 	move	zero,zero
    7f1c:	3c12755f 	lui	s2,0x755f
    7f20:	365253a0 	ori	s2,s2,0x53a0
    7f24:	00000000 	nop
    7f28:	24140000 	li	s4,0
    7f2c:	16140b60 	bne	s0,s4,acb0 <inst_error>
    7f30:	00000000 	nop
    7f34:	00000000 	nop
    7f38:	24150000 	li	s5,0
    7f3c:	16550b5c 	bne	s2,s5,acb0 <inst_error>
    7f40:	00000000 	nop
    7f44:	00000000 	nop
    7f48:	3c0ca3ef 	lui	t4,0xa3ef
    7f4c:	358c67c8 	ori	t4,t4,0x67c8
    7f50:	3c0d9d58 	lui	t5,0x9d58
    7f54:	35ad8850 	ori	t5,t5,0x8850
    7f58:	24100000 	li	s0,0
    7f5c:	10000011 	b	7fa4 <n34_bltz_test+0x7fa4>
    7f60:	24120000 	li	s2,0
    7f64:	00000000 	nop
    7f68:	3c10a3ef 	lui	s0,0xa3ef
    7f6c:	05000021 	bltz	t0,7ff4 <n34_bltz_test+0x7ff4>
    7f70:	361067c8 	ori	s0,s0,0x67c8
    7f74:	10000021 	b	7ffc <n34_bltz_test+0x7ffc>
    7f78:	00000000 	nop
    7f7c:	00000000 	nop
    7f80:	00000021 	move	zero,zero
    7f84:	00000021 	move	zero,zero
    7f88:	00000021 	move	zero,zero
    7f8c:	00000021 	move	zero,zero
    7f90:	00000021 	move	zero,zero
    7f94:	00000021 	move	zero,zero
    7f98:	00000021 	move	zero,zero
    7f9c:	00000021 	move	zero,zero
    7fa0:	00000021 	move	zero,zero
    7fa4:	3c082761 	lui	t0,0x2761
    7fa8:	35086458 	ori	t0,t0,0x6458
    7fac:	0500ffee 	bltz	t0,7f68 <n34_bltz_test+0x7f68>
    7fb0:	00000000 	nop
    7fb4:	10000011 	b	7ffc <n34_bltz_test+0x7ffc>
    7fb8:	00000000 	nop
    7fbc:	00000000 	nop
    7fc0:	00000021 	move	zero,zero
    7fc4:	00000021 	move	zero,zero
    7fc8:	00000021 	move	zero,zero
    7fcc:	00000021 	move	zero,zero
    7fd0:	00000021 	move	zero,zero
    7fd4:	00000021 	move	zero,zero
    7fd8:	00000021 	move	zero,zero
    7fdc:	00000021 	move	zero,zero
    7fe0:	00000021 	move	zero,zero
    7fe4:	00000021 	move	zero,zero
    7fe8:	00000021 	move	zero,zero
    7fec:	00000021 	move	zero,zero
    7ff0:	00000021 	move	zero,zero
    7ff4:	3c129d58 	lui	s2,0x9d58
    7ff8:	36528850 	ori	s2,s2,0x8850
    7ffc:	00000000 	nop
    8000:	24140000 	li	s4,0
    8004:	16140b2a 	bne	s0,s4,acb0 <inst_error>
    8008:	00000000 	nop
    800c:	00000000 	nop
    8010:	24150000 	li	s5,0
    8014:	16550b26 	bne	s2,s5,acb0 <inst_error>
    8018:	00000000 	nop
    801c:	00000000 	nop
    8020:	3c0c9851 	lui	t4,0x9851
    8024:	358c7318 	ori	t4,t4,0x7318
    8028:	3c0db953 	lui	t5,0xb953
    802c:	35ade6ac 	ori	t5,t5,0xe6ac
    8030:	24100000 	li	s0,0
    8034:	10000011 	b	807c <n34_bltz_test+0x807c>
    8038:	24120000 	li	s2,0
    803c:	00000000 	nop
    8040:	3c109851 	lui	s0,0x9851
    8044:	05000021 	bltz	t0,80cc <n34_bltz_test+0x80cc>
    8048:	36107318 	ori	s0,s0,0x7318
    804c:	10000021 	b	80d4 <n34_bltz_test+0x80d4>
    8050:	00000000 	nop
    8054:	00000000 	nop
    8058:	00000021 	move	zero,zero
    805c:	00000021 	move	zero,zero
    8060:	00000021 	move	zero,zero
    8064:	00000021 	move	zero,zero
    8068:	00000021 	move	zero,zero
    806c:	00000021 	move	zero,zero
    8070:	00000021 	move	zero,zero
    8074:	00000021 	move	zero,zero
    8078:	00000021 	move	zero,zero
    807c:	3c0848cc 	lui	t0,0x48cc
    8080:	350805f0 	ori	t0,t0,0x5f0
    8084:	0500ffee 	bltz	t0,8040 <n34_bltz_test+0x8040>
    8088:	00000000 	nop
    808c:	10000011 	b	80d4 <n34_bltz_test+0x80d4>
    8090:	00000000 	nop
    8094:	00000000 	nop
    8098:	00000021 	move	zero,zero
    809c:	00000021 	move	zero,zero
    80a0:	00000021 	move	zero,zero
    80a4:	00000021 	move	zero,zero
    80a8:	00000021 	move	zero,zero
    80ac:	00000021 	move	zero,zero
    80b0:	00000021 	move	zero,zero
    80b4:	00000021 	move	zero,zero
    80b8:	00000021 	move	zero,zero
    80bc:	00000021 	move	zero,zero
    80c0:	00000021 	move	zero,zero
    80c4:	00000021 	move	zero,zero
    80c8:	00000021 	move	zero,zero
    80cc:	3c12b953 	lui	s2,0xb953
    80d0:	3652e6ac 	ori	s2,s2,0xe6ac
    80d4:	00000000 	nop
    80d8:	24140000 	li	s4,0
    80dc:	16140af4 	bne	s0,s4,acb0 <inst_error>
    80e0:	00000000 	nop
    80e4:	00000000 	nop
    80e8:	24150000 	li	s5,0
    80ec:	16550af0 	bne	s2,s5,acb0 <inst_error>
    80f0:	00000000 	nop
    80f4:	00000000 	nop
    80f8:	3c0cb332 	lui	t4,0xb332
    80fc:	358c6780 	ori	t4,t4,0x6780
    8100:	3c0dd62c 	lui	t5,0xd62c
    8104:	35ad64ba 	ori	t5,t5,0x64ba
    8108:	24100000 	li	s0,0
    810c:	10000011 	b	8154 <n34_bltz_test+0x8154>
    8110:	24120000 	li	s2,0
    8114:	00000000 	nop
    8118:	3c10b332 	lui	s0,0xb332
    811c:	05000021 	bltz	t0,81a4 <n34_bltz_test+0x81a4>
    8120:	36106780 	ori	s0,s0,0x6780
    8124:	10000021 	b	81ac <n34_bltz_test+0x81ac>
    8128:	00000000 	nop
    812c:	00000000 	nop
    8130:	00000021 	move	zero,zero
    8134:	00000021 	move	zero,zero
    8138:	00000021 	move	zero,zero
    813c:	00000021 	move	zero,zero
    8140:	00000021 	move	zero,zero
    8144:	00000021 	move	zero,zero
    8148:	00000021 	move	zero,zero
    814c:	00000021 	move	zero,zero
    8150:	00000021 	move	zero,zero
    8154:	3c08e0f0 	lui	t0,0xe0f0
    8158:	35085ce8 	ori	t0,t0,0x5ce8
    815c:	0500ffee 	bltz	t0,8118 <n34_bltz_test+0x8118>
    8160:	00000000 	nop
    8164:	10000011 	b	81ac <n34_bltz_test+0x81ac>
    8168:	00000000 	nop
    816c:	00000000 	nop
    8170:	00000021 	move	zero,zero
    8174:	00000021 	move	zero,zero
    8178:	00000021 	move	zero,zero
    817c:	00000021 	move	zero,zero
    8180:	00000021 	move	zero,zero
    8184:	00000021 	move	zero,zero
    8188:	00000021 	move	zero,zero
    818c:	00000021 	move	zero,zero
    8190:	00000021 	move	zero,zero
    8194:	00000021 	move	zero,zero
    8198:	00000021 	move	zero,zero
    819c:	00000021 	move	zero,zero
    81a0:	00000021 	move	zero,zero
    81a4:	3c12d62c 	lui	s2,0xd62c
    81a8:	365264ba 	ori	s2,s2,0x64ba
    81ac:	00000000 	nop
    81b0:	3c14b332 	lui	s4,0xb332
    81b4:	36946780 	ori	s4,s4,0x6780
    81b8:	16140abd 	bne	s0,s4,acb0 <inst_error>
    81bc:	00000000 	nop
    81c0:	00000000 	nop
    81c4:	3c15d62c 	lui	s5,0xd62c
    81c8:	36b564ba 	ori	s5,s5,0x64ba
    81cc:	16550ab8 	bne	s2,s5,acb0 <inst_error>
    81d0:	00000000 	nop
    81d4:	00000000 	nop
    81d8:	3c0c7ce6 	lui	t4,0x7ce6
    81dc:	358ce8e8 	ori	t4,t4,0xe8e8
    81e0:	3c0d9a45 	lui	t5,0x9a45
    81e4:	35adb4e0 	ori	t5,t5,0xb4e0
    81e8:	24100000 	li	s0,0
    81ec:	10000011 	b	8234 <n34_bltz_test+0x8234>
    81f0:	24120000 	li	s2,0
    81f4:	00000000 	nop
    81f8:	3c107ce6 	lui	s0,0x7ce6
    81fc:	05000021 	bltz	t0,8284 <n34_bltz_test+0x8284>
    8200:	3610e8e8 	ori	s0,s0,0xe8e8
    8204:	10000021 	b	828c <n34_bltz_test+0x828c>
    8208:	00000000 	nop
    820c:	00000000 	nop
    8210:	00000021 	move	zero,zero
    8214:	00000021 	move	zero,zero
    8218:	00000021 	move	zero,zero
    821c:	00000021 	move	zero,zero
    8220:	00000021 	move	zero,zero
    8224:	00000021 	move	zero,zero
    8228:	00000021 	move	zero,zero
    822c:	00000021 	move	zero,zero
    8230:	00000021 	move	zero,zero
    8234:	3c08c5f3 	lui	t0,0xc5f3
    8238:	350875d0 	ori	t0,t0,0x75d0
    823c:	0500ffee 	bltz	t0,81f8 <n34_bltz_test+0x81f8>
    8240:	00000000 	nop
    8244:	10000011 	b	828c <n34_bltz_test+0x828c>
    8248:	00000000 	nop
    824c:	00000000 	nop
    8250:	00000021 	move	zero,zero
    8254:	00000021 	move	zero,zero
    8258:	00000021 	move	zero,zero
    825c:	00000021 	move	zero,zero
    8260:	00000021 	move	zero,zero
    8264:	00000021 	move	zero,zero
    8268:	00000021 	move	zero,zero
    826c:	00000021 	move	zero,zero
    8270:	00000021 	move	zero,zero
    8274:	00000021 	move	zero,zero
    8278:	00000021 	move	zero,zero
    827c:	00000021 	move	zero,zero
    8280:	00000021 	move	zero,zero
    8284:	3c129a45 	lui	s2,0x9a45
    8288:	3652b4e0 	ori	s2,s2,0xb4e0
    828c:	00000000 	nop
    8290:	3c147ce6 	lui	s4,0x7ce6
    8294:	3694e8e8 	ori	s4,s4,0xe8e8
    8298:	16140a85 	bne	s0,s4,acb0 <inst_error>
    829c:	00000000 	nop
    82a0:	00000000 	nop
    82a4:	3c159a45 	lui	s5,0x9a45
    82a8:	36b5b4e0 	ori	s5,s5,0xb4e0
    82ac:	16550a80 	bne	s2,s5,acb0 <inst_error>
    82b0:	00000000 	nop
    82b4:	00000000 	nop
    82b8:	3c0ce297 	lui	t4,0xe297
    82bc:	358c7d50 	ori	t4,t4,0x7d50
    82c0:	3c0dd513 	lui	t5,0xd513
    82c4:	35adc978 	ori	t5,t5,0xc978
    82c8:	24100000 	li	s0,0
    82cc:	10000011 	b	8314 <n34_bltz_test+0x8314>
    82d0:	24120000 	li	s2,0
    82d4:	00000000 	nop
    82d8:	3c10e297 	lui	s0,0xe297
    82dc:	05000021 	bltz	t0,8364 <n34_bltz_test+0x8364>
    82e0:	36107d50 	ori	s0,s0,0x7d50
    82e4:	10000021 	b	836c <n34_bltz_test+0x836c>
    82e8:	00000000 	nop
    82ec:	00000000 	nop
    82f0:	00000021 	move	zero,zero
    82f4:	00000021 	move	zero,zero
    82f8:	00000021 	move	zero,zero
    82fc:	00000021 	move	zero,zero
    8300:	00000021 	move	zero,zero
    8304:	00000021 	move	zero,zero
    8308:	00000021 	move	zero,zero
    830c:	00000021 	move	zero,zero
    8310:	00000021 	move	zero,zero
    8314:	3c080def 	lui	t0,0xdef
    8318:	35086e32 	ori	t0,t0,0x6e32
    831c:	0500ffee 	bltz	t0,82d8 <n34_bltz_test+0x82d8>
    8320:	00000000 	nop
    8324:	10000011 	b	836c <n34_bltz_test+0x836c>
    8328:	00000000 	nop
    832c:	00000000 	nop
    8330:	00000021 	move	zero,zero
    8334:	00000021 	move	zero,zero
    8338:	00000021 	move	zero,zero
    833c:	00000021 	move	zero,zero
    8340:	00000021 	move	zero,zero
    8344:	00000021 	move	zero,zero
    8348:	00000021 	move	zero,zero
    834c:	00000021 	move	zero,zero
    8350:	00000021 	move	zero,zero
    8354:	00000021 	move	zero,zero
    8358:	00000021 	move	zero,zero
    835c:	00000021 	move	zero,zero
    8360:	00000021 	move	zero,zero
    8364:	3c12d513 	lui	s2,0xd513
    8368:	3652c978 	ori	s2,s2,0xc978
    836c:	00000000 	nop
    8370:	24140000 	li	s4,0
    8374:	16140a4e 	bne	s0,s4,acb0 <inst_error>
    8378:	00000000 	nop
    837c:	00000000 	nop
    8380:	24150000 	li	s5,0
    8384:	16550a4a 	bne	s2,s5,acb0 <inst_error>
    8388:	00000000 	nop
    838c:	00000000 	nop
    8390:	3c0c7db1 	lui	t4,0x7db1
    8394:	358cfbb0 	ori	t4,t4,0xfbb0
    8398:	3c0d2785 	lui	t5,0x2785
    839c:	35addae6 	ori	t5,t5,0xdae6
    83a0:	24100000 	li	s0,0
    83a4:	10000011 	b	83ec <n34_bltz_test+0x83ec>
    83a8:	24120000 	li	s2,0
    83ac:	00000000 	nop
    83b0:	3c107db1 	lui	s0,0x7db1
    83b4:	05000021 	bltz	t0,843c <n34_bltz_test+0x843c>
    83b8:	3610fbb0 	ori	s0,s0,0xfbb0
    83bc:	10000021 	b	8444 <n34_bltz_test+0x8444>
    83c0:	00000000 	nop
    83c4:	00000000 	nop
    83c8:	00000021 	move	zero,zero
    83cc:	00000021 	move	zero,zero
    83d0:	00000021 	move	zero,zero
    83d4:	00000021 	move	zero,zero
    83d8:	00000021 	move	zero,zero
    83dc:	00000021 	move	zero,zero
    83e0:	00000021 	move	zero,zero
    83e4:	00000021 	move	zero,zero
    83e8:	00000021 	move	zero,zero
    83ec:	3c08d2e6 	lui	t0,0xd2e6
    83f0:	35088658 	ori	t0,t0,0x8658
    83f4:	0500ffee 	bltz	t0,83b0 <n34_bltz_test+0x83b0>
    83f8:	00000000 	nop
    83fc:	10000011 	b	8444 <n34_bltz_test+0x8444>
    8400:	00000000 	nop
    8404:	00000000 	nop
    8408:	00000021 	move	zero,zero
    840c:	00000021 	move	zero,zero
    8410:	00000021 	move	zero,zero
    8414:	00000021 	move	zero,zero
    8418:	00000021 	move	zero,zero
    841c:	00000021 	move	zero,zero
    8420:	00000021 	move	zero,zero
    8424:	00000021 	move	zero,zero
    8428:	00000021 	move	zero,zero
    842c:	00000021 	move	zero,zero
    8430:	00000021 	move	zero,zero
    8434:	00000021 	move	zero,zero
    8438:	00000021 	move	zero,zero
    843c:	3c122785 	lui	s2,0x2785
    8440:	3652dae6 	ori	s2,s2,0xdae6
    8444:	00000000 	nop
    8448:	3c147db1 	lui	s4,0x7db1
    844c:	3694fbb0 	ori	s4,s4,0xfbb0
    8450:	16140a17 	bne	s0,s4,acb0 <inst_error>
    8454:	00000000 	nop
    8458:	00000000 	nop
    845c:	3c152785 	lui	s5,0x2785
    8460:	36b5dae6 	ori	s5,s5,0xdae6
    8464:	16550a12 	bne	s2,s5,acb0 <inst_error>
    8468:	00000000 	nop
    846c:	00000000 	nop
    8470:	3c0cc505 	lui	t4,0xc505
    8474:	358ceb80 	ori	t4,t4,0xeb80
    8478:	3c0d56c1 	lui	t5,0x56c1
    847c:	35ad479e 	ori	t5,t5,0x479e
    8480:	24100000 	li	s0,0
    8484:	10000011 	b	84cc <n34_bltz_test+0x84cc>
    8488:	24120000 	li	s2,0
    848c:	00000000 	nop
    8490:	3c10c505 	lui	s0,0xc505
    8494:	05000021 	bltz	t0,851c <n34_bltz_test+0x851c>
    8498:	3610eb80 	ori	s0,s0,0xeb80
    849c:	10000021 	b	8524 <n34_bltz_test+0x8524>
    84a0:	00000000 	nop
    84a4:	00000000 	nop
    84a8:	00000021 	move	zero,zero
    84ac:	00000021 	move	zero,zero
    84b0:	00000021 	move	zero,zero
    84b4:	00000021 	move	zero,zero
    84b8:	00000021 	move	zero,zero
    84bc:	00000021 	move	zero,zero
    84c0:	00000021 	move	zero,zero
    84c4:	00000021 	move	zero,zero
    84c8:	00000021 	move	zero,zero
    84cc:	3c081905 	lui	t0,0x1905
    84d0:	3508edb0 	ori	t0,t0,0xedb0
    84d4:	0500ffee 	bltz	t0,8490 <n34_bltz_test+0x8490>
    84d8:	00000000 	nop
    84dc:	10000011 	b	8524 <n34_bltz_test+0x8524>
    84e0:	00000000 	nop
    84e4:	00000000 	nop
    84e8:	00000021 	move	zero,zero
    84ec:	00000021 	move	zero,zero
    84f0:	00000021 	move	zero,zero
    84f4:	00000021 	move	zero,zero
    84f8:	00000021 	move	zero,zero
    84fc:	00000021 	move	zero,zero
    8500:	00000021 	move	zero,zero
    8504:	00000021 	move	zero,zero
    8508:	00000021 	move	zero,zero
    850c:	00000021 	move	zero,zero
    8510:	00000021 	move	zero,zero
    8514:	00000021 	move	zero,zero
    8518:	00000021 	move	zero,zero
    851c:	3c1256c1 	lui	s2,0x56c1
    8520:	3652479e 	ori	s2,s2,0x479e
    8524:	00000000 	nop
    8528:	24140000 	li	s4,0
    852c:	161409e0 	bne	s0,s4,acb0 <inst_error>
    8530:	00000000 	nop
    8534:	00000000 	nop
    8538:	24150000 	li	s5,0
    853c:	165509dc 	bne	s2,s5,acb0 <inst_error>
    8540:	00000000 	nop
    8544:	00000000 	nop
    8548:	3c0c2938 	lui	t4,0x2938
    854c:	358cf462 	ori	t4,t4,0xf462
    8550:	3c0d5faa 	lui	t5,0x5faa
    8554:	35ad7298 	ori	t5,t5,0x7298
    8558:	24100000 	li	s0,0
    855c:	10000011 	b	85a4 <n34_bltz_test+0x85a4>
    8560:	24120000 	li	s2,0
    8564:	00000000 	nop
    8568:	3c102938 	lui	s0,0x2938
    856c:	05000021 	bltz	t0,85f4 <n34_bltz_test+0x85f4>
    8570:	3610f462 	ori	s0,s0,0xf462
    8574:	10000021 	b	85fc <n34_bltz_test+0x85fc>
    8578:	00000000 	nop
    857c:	00000000 	nop
    8580:	00000021 	move	zero,zero
    8584:	00000021 	move	zero,zero
    8588:	00000021 	move	zero,zero
    858c:	00000021 	move	zero,zero
    8590:	00000021 	move	zero,zero
    8594:	00000021 	move	zero,zero
    8598:	00000021 	move	zero,zero
    859c:	00000021 	move	zero,zero
    85a0:	00000021 	move	zero,zero
    85a4:	3c08a9fd 	lui	t0,0xa9fd
    85a8:	3508286c 	ori	t0,t0,0x286c
    85ac:	0500ffee 	bltz	t0,8568 <n34_bltz_test+0x8568>
    85b0:	00000000 	nop
    85b4:	10000011 	b	85fc <n34_bltz_test+0x85fc>
    85b8:	00000000 	nop
    85bc:	00000000 	nop
    85c0:	00000021 	move	zero,zero
    85c4:	00000021 	move	zero,zero
    85c8:	00000021 	move	zero,zero
    85cc:	00000021 	move	zero,zero
    85d0:	00000021 	move	zero,zero
    85d4:	00000021 	move	zero,zero
    85d8:	00000021 	move	zero,zero
    85dc:	00000021 	move	zero,zero
    85e0:	00000021 	move	zero,zero
    85e4:	00000021 	move	zero,zero
    85e8:	00000021 	move	zero,zero
    85ec:	00000021 	move	zero,zero
    85f0:	00000021 	move	zero,zero
    85f4:	3c125faa 	lui	s2,0x5faa
    85f8:	36527298 	ori	s2,s2,0x7298
    85fc:	00000000 	nop
    8600:	3c142938 	lui	s4,0x2938
    8604:	3694f462 	ori	s4,s4,0xf462
    8608:	161409a9 	bne	s0,s4,acb0 <inst_error>
    860c:	00000000 	nop
    8610:	00000000 	nop
    8614:	3c155faa 	lui	s5,0x5faa
    8618:	36b57298 	ori	s5,s5,0x7298
    861c:	165509a4 	bne	s2,s5,acb0 <inst_error>
    8620:	00000000 	nop
    8624:	00000000 	nop
    8628:	3c0c4262 	lui	t4,0x4262
    862c:	358c3100 	ori	t4,t4,0x3100
    8630:	3c0d6fee 	lui	t5,0x6fee
    8634:	35ad4f64 	ori	t5,t5,0x4f64
    8638:	24100000 	li	s0,0
    863c:	10000011 	b	8684 <n34_bltz_test+0x8684>
    8640:	24120000 	li	s2,0
    8644:	00000000 	nop
    8648:	3c104262 	lui	s0,0x4262
    864c:	05000021 	bltz	t0,86d4 <n34_bltz_test+0x86d4>
    8650:	36103100 	ori	s0,s0,0x3100
    8654:	10000021 	b	86dc <n34_bltz_test+0x86dc>
    8658:	00000000 	nop
    865c:	00000000 	nop
    8660:	00000021 	move	zero,zero
    8664:	00000021 	move	zero,zero
    8668:	00000021 	move	zero,zero
    866c:	00000021 	move	zero,zero
    8670:	00000021 	move	zero,zero
    8674:	00000021 	move	zero,zero
    8678:	00000021 	move	zero,zero
    867c:	00000021 	move	zero,zero
    8680:	00000021 	move	zero,zero
    8684:	3c0834a5 	lui	t0,0x34a5
    8688:	35083ea8 	ori	t0,t0,0x3ea8
    868c:	0500ffee 	bltz	t0,8648 <n34_bltz_test+0x8648>
    8690:	00000000 	nop
    8694:	10000011 	b	86dc <n34_bltz_test+0x86dc>
    8698:	00000000 	nop
    869c:	00000000 	nop
    86a0:	00000021 	move	zero,zero
    86a4:	00000021 	move	zero,zero
    86a8:	00000021 	move	zero,zero
    86ac:	00000021 	move	zero,zero
    86b0:	00000021 	move	zero,zero
    86b4:	00000021 	move	zero,zero
    86b8:	00000021 	move	zero,zero
    86bc:	00000021 	move	zero,zero
    86c0:	00000021 	move	zero,zero
    86c4:	00000021 	move	zero,zero
    86c8:	00000021 	move	zero,zero
    86cc:	00000021 	move	zero,zero
    86d0:	00000021 	move	zero,zero
    86d4:	3c126fee 	lui	s2,0x6fee
    86d8:	36524f64 	ori	s2,s2,0x4f64
    86dc:	00000000 	nop
    86e0:	24140000 	li	s4,0
    86e4:	16140972 	bne	s0,s4,acb0 <inst_error>
    86e8:	00000000 	nop
    86ec:	00000000 	nop
    86f0:	24150000 	li	s5,0
    86f4:	1655096e 	bne	s2,s5,acb0 <inst_error>
    86f8:	00000000 	nop
    86fc:	00000000 	nop
    8700:	3c0ce8c4 	lui	t4,0xe8c4
    8704:	358c474b 	ori	t4,t4,0x474b
    8708:	3c0dca13 	lui	t5,0xca13
    870c:	35adb95f 	ori	t5,t5,0xb95f
    8710:	24100000 	li	s0,0
    8714:	10000011 	b	875c <n34_bltz_test+0x875c>
    8718:	24120000 	li	s2,0
    871c:	00000000 	nop
    8720:	3c10e8c4 	lui	s0,0xe8c4
    8724:	05000021 	bltz	t0,87ac <n34_bltz_test+0x87ac>
    8728:	3610474b 	ori	s0,s0,0x474b
    872c:	10000021 	b	87b4 <n34_bltz_test+0x87b4>
    8730:	00000000 	nop
    8734:	00000000 	nop
    8738:	00000021 	move	zero,zero
    873c:	00000021 	move	zero,zero
    8740:	00000021 	move	zero,zero
    8744:	00000021 	move	zero,zero
    8748:	00000021 	move	zero,zero
    874c:	00000021 	move	zero,zero
    8750:	00000021 	move	zero,zero
    8754:	00000021 	move	zero,zero
    8758:	00000021 	move	zero,zero
    875c:	3c0852f9 	lui	t0,0x52f9
    8760:	35083280 	ori	t0,t0,0x3280
    8764:	0500ffee 	bltz	t0,8720 <n34_bltz_test+0x8720>
    8768:	00000000 	nop
    876c:	10000011 	b	87b4 <n34_bltz_test+0x87b4>
    8770:	00000000 	nop
    8774:	00000000 	nop
    8778:	00000021 	move	zero,zero
    877c:	00000021 	move	zero,zero
    8780:	00000021 	move	zero,zero
    8784:	00000021 	move	zero,zero
    8788:	00000021 	move	zero,zero
    878c:	00000021 	move	zero,zero
    8790:	00000021 	move	zero,zero
    8794:	00000021 	move	zero,zero
    8798:	00000021 	move	zero,zero
    879c:	00000021 	move	zero,zero
    87a0:	00000021 	move	zero,zero
    87a4:	00000021 	move	zero,zero
    87a8:	00000021 	move	zero,zero
    87ac:	3c12ca13 	lui	s2,0xca13
    87b0:	3652b95f 	ori	s2,s2,0xb95f
    87b4:	00000000 	nop
    87b8:	24140000 	li	s4,0
    87bc:	1614093c 	bne	s0,s4,acb0 <inst_error>
    87c0:	00000000 	nop
    87c4:	00000000 	nop
    87c8:	24150000 	li	s5,0
    87cc:	16550938 	bne	s2,s5,acb0 <inst_error>
    87d0:	00000000 	nop
    87d4:	00000000 	nop
    87d8:	3c0c1881 	lui	t4,0x1881
    87dc:	358cb730 	ori	t4,t4,0xb730
    87e0:	3c0d9f53 	lui	t5,0x9f53
    87e4:	35ad4bfa 	ori	t5,t5,0x4bfa
    87e8:	24100000 	li	s0,0
    87ec:	10000011 	b	8834 <n34_bltz_test+0x8834>
    87f0:	24120000 	li	s2,0
    87f4:	00000000 	nop
    87f8:	3c101881 	lui	s0,0x1881
    87fc:	05000021 	bltz	t0,8884 <n34_bltz_test+0x8884>
    8800:	3610b730 	ori	s0,s0,0xb730
    8804:	10000021 	b	888c <n34_bltz_test+0x888c>
    8808:	00000000 	nop
    880c:	00000000 	nop
    8810:	00000021 	move	zero,zero
    8814:	00000021 	move	zero,zero
    8818:	00000021 	move	zero,zero
    881c:	00000021 	move	zero,zero
    8820:	00000021 	move	zero,zero
    8824:	00000021 	move	zero,zero
    8828:	00000021 	move	zero,zero
    882c:	00000021 	move	zero,zero
    8830:	00000021 	move	zero,zero
    8834:	3c0891dd 	lui	t0,0x91dd
    8838:	35087060 	ori	t0,t0,0x7060
    883c:	0500ffee 	bltz	t0,87f8 <n34_bltz_test+0x87f8>
    8840:	00000000 	nop
    8844:	10000011 	b	888c <n34_bltz_test+0x888c>
    8848:	00000000 	nop
    884c:	00000000 	nop
    8850:	00000021 	move	zero,zero
    8854:	00000021 	move	zero,zero
    8858:	00000021 	move	zero,zero
    885c:	00000021 	move	zero,zero
    8860:	00000021 	move	zero,zero
    8864:	00000021 	move	zero,zero
    8868:	00000021 	move	zero,zero
    886c:	00000021 	move	zero,zero
    8870:	00000021 	move	zero,zero
    8874:	00000021 	move	zero,zero
    8878:	00000021 	move	zero,zero
    887c:	00000021 	move	zero,zero
    8880:	00000021 	move	zero,zero
    8884:	3c129f53 	lui	s2,0x9f53
    8888:	36524bfa 	ori	s2,s2,0x4bfa
    888c:	00000000 	nop
    8890:	3c141881 	lui	s4,0x1881
    8894:	3694b730 	ori	s4,s4,0xb730
    8898:	16140905 	bne	s0,s4,acb0 <inst_error>
    889c:	00000000 	nop
    88a0:	00000000 	nop
    88a4:	3c159f53 	lui	s5,0x9f53
    88a8:	36b54bfa 	ori	s5,s5,0x4bfa
    88ac:	16550900 	bne	s2,s5,acb0 <inst_error>
    88b0:	00000000 	nop
    88b4:	00000000 	nop
    88b8:	3c0c6c91 	lui	t4,0x6c91
    88bc:	358cd050 	ori	t4,t4,0xd050
    88c0:	3c0da433 	lui	t5,0xa433
    88c4:	35addfcc 	ori	t5,t5,0xdfcc
    88c8:	24100000 	li	s0,0
    88cc:	10000011 	b	8914 <n34_bltz_test+0x8914>
    88d0:	24120000 	li	s2,0
    88d4:	00000000 	nop
    88d8:	3c106c91 	lui	s0,0x6c91
    88dc:	05000021 	bltz	t0,8964 <n34_bltz_test+0x8964>
    88e0:	3610d050 	ori	s0,s0,0xd050
    88e4:	10000021 	b	896c <n34_bltz_test+0x896c>
    88e8:	00000000 	nop
    88ec:	00000000 	nop
    88f0:	00000021 	move	zero,zero
    88f4:	00000021 	move	zero,zero
    88f8:	00000021 	move	zero,zero
    88fc:	00000021 	move	zero,zero
    8900:	00000021 	move	zero,zero
    8904:	00000021 	move	zero,zero
    8908:	00000021 	move	zero,zero
    890c:	00000021 	move	zero,zero
    8910:	00000021 	move	zero,zero
    8914:	3c0851e6 	lui	t0,0x51e6
    8918:	350836d8 	ori	t0,t0,0x36d8
    891c:	0500ffee 	bltz	t0,88d8 <n34_bltz_test+0x88d8>
    8920:	00000000 	nop
    8924:	10000011 	b	896c <n34_bltz_test+0x896c>
    8928:	00000000 	nop
    892c:	00000000 	nop
    8930:	00000021 	move	zero,zero
    8934:	00000021 	move	zero,zero
    8938:	00000021 	move	zero,zero
    893c:	00000021 	move	zero,zero
    8940:	00000021 	move	zero,zero
    8944:	00000021 	move	zero,zero
    8948:	00000021 	move	zero,zero
    894c:	00000021 	move	zero,zero
    8950:	00000021 	move	zero,zero
    8954:	00000021 	move	zero,zero
    8958:	00000021 	move	zero,zero
    895c:	00000021 	move	zero,zero
    8960:	00000021 	move	zero,zero
    8964:	3c12a433 	lui	s2,0xa433
    8968:	3652dfcc 	ori	s2,s2,0xdfcc
    896c:	00000000 	nop
    8970:	24140000 	li	s4,0
    8974:	161408ce 	bne	s0,s4,acb0 <inst_error>
    8978:	00000000 	nop
    897c:	00000000 	nop
    8980:	24150000 	li	s5,0
    8984:	165508ca 	bne	s2,s5,acb0 <inst_error>
    8988:	00000000 	nop
    898c:	00000000 	nop
    8990:	3c0c8241 	lui	t4,0x8241
    8994:	358c7224 	ori	t4,t4,0x7224
    8998:	3c0dd3ee 	lui	t5,0xd3ee
    899c:	35ad3e59 	ori	t5,t5,0x3e59
    89a0:	24100000 	li	s0,0
    89a4:	10000011 	b	89ec <n34_bltz_test+0x89ec>
    89a8:	24120000 	li	s2,0
    89ac:	00000000 	nop
    89b0:	3c108241 	lui	s0,0x8241
    89b4:	05000021 	bltz	t0,8a3c <n34_bltz_test+0x8a3c>
    89b8:	36107224 	ori	s0,s0,0x7224
    89bc:	10000021 	b	8a44 <n34_bltz_test+0x8a44>
    89c0:	00000000 	nop
    89c4:	00000000 	nop
    89c8:	00000021 	move	zero,zero
    89cc:	00000021 	move	zero,zero
    89d0:	00000021 	move	zero,zero
    89d4:	00000021 	move	zero,zero
    89d8:	00000021 	move	zero,zero
    89dc:	00000021 	move	zero,zero
    89e0:	00000021 	move	zero,zero
    89e4:	00000021 	move	zero,zero
    89e8:	00000021 	move	zero,zero
    89ec:	3c084006 	lui	t0,0x4006
    89f0:	3508c660 	ori	t0,t0,0xc660
    89f4:	0500ffee 	bltz	t0,89b0 <n34_bltz_test+0x89b0>
    89f8:	00000000 	nop
    89fc:	10000011 	b	8a44 <n34_bltz_test+0x8a44>
    8a00:	00000000 	nop
    8a04:	00000000 	nop
    8a08:	00000021 	move	zero,zero
    8a0c:	00000021 	move	zero,zero
    8a10:	00000021 	move	zero,zero
    8a14:	00000021 	move	zero,zero
    8a18:	00000021 	move	zero,zero
    8a1c:	00000021 	move	zero,zero
    8a20:	00000021 	move	zero,zero
    8a24:	00000021 	move	zero,zero
    8a28:	00000021 	move	zero,zero
    8a2c:	00000021 	move	zero,zero
    8a30:	00000021 	move	zero,zero
    8a34:	00000021 	move	zero,zero
    8a38:	00000021 	move	zero,zero
    8a3c:	3c12d3ee 	lui	s2,0xd3ee
    8a40:	36523e59 	ori	s2,s2,0x3e59
    8a44:	00000000 	nop
    8a48:	24140000 	li	s4,0
    8a4c:	16140898 	bne	s0,s4,acb0 <inst_error>
    8a50:	00000000 	nop
    8a54:	00000000 	nop
    8a58:	24150000 	li	s5,0
    8a5c:	16550894 	bne	s2,s5,acb0 <inst_error>
    8a60:	00000000 	nop
    8a64:	00000000 	nop
    8a68:	3c0c88a0 	lui	t4,0x88a0
    8a6c:	358ce79e 	ori	t4,t4,0xe79e
    8a70:	3c0dd9f1 	lui	t5,0xd9f1
    8a74:	35ad7580 	ori	t5,t5,0x7580
    8a78:	24100000 	li	s0,0
    8a7c:	10000011 	b	8ac4 <n34_bltz_test+0x8ac4>
    8a80:	24120000 	li	s2,0
    8a84:	00000000 	nop
    8a88:	3c1088a0 	lui	s0,0x88a0
    8a8c:	05000021 	bltz	t0,8b14 <n34_bltz_test+0x8b14>
    8a90:	3610e79e 	ori	s0,s0,0xe79e
    8a94:	10000021 	b	8b1c <n34_bltz_test+0x8b1c>
    8a98:	00000000 	nop
    8a9c:	00000000 	nop
    8aa0:	00000021 	move	zero,zero
    8aa4:	00000021 	move	zero,zero
    8aa8:	00000021 	move	zero,zero
    8aac:	00000021 	move	zero,zero
    8ab0:	00000021 	move	zero,zero
    8ab4:	00000021 	move	zero,zero
    8ab8:	00000021 	move	zero,zero
    8abc:	00000021 	move	zero,zero
    8ac0:	00000021 	move	zero,zero
    8ac4:	3c081d91 	lui	t0,0x1d91
    8ac8:	3508f062 	ori	t0,t0,0xf062
    8acc:	0500ffee 	bltz	t0,8a88 <n34_bltz_test+0x8a88>
    8ad0:	00000000 	nop
    8ad4:	10000011 	b	8b1c <n34_bltz_test+0x8b1c>
    8ad8:	00000000 	nop
    8adc:	00000000 	nop
    8ae0:	00000021 	move	zero,zero
    8ae4:	00000021 	move	zero,zero
    8ae8:	00000021 	move	zero,zero
    8aec:	00000021 	move	zero,zero
    8af0:	00000021 	move	zero,zero
    8af4:	00000021 	move	zero,zero
    8af8:	00000021 	move	zero,zero
    8afc:	00000021 	move	zero,zero
    8b00:	00000021 	move	zero,zero
    8b04:	00000021 	move	zero,zero
    8b08:	00000021 	move	zero,zero
    8b0c:	00000021 	move	zero,zero
    8b10:	00000021 	move	zero,zero
    8b14:	3c12d9f1 	lui	s2,0xd9f1
    8b18:	36527580 	ori	s2,s2,0x7580
    8b1c:	00000000 	nop
    8b20:	24140000 	li	s4,0
    8b24:	16140862 	bne	s0,s4,acb0 <inst_error>
    8b28:	00000000 	nop
    8b2c:	00000000 	nop
    8b30:	24150000 	li	s5,0
    8b34:	1655085e 	bne	s2,s5,acb0 <inst_error>
    8b38:	00000000 	nop
    8b3c:	00000000 	nop
    8b40:	3c0c44f3 	lui	t4,0x44f3
    8b44:	358c9bec 	ori	t4,t4,0x9bec
    8b48:	3c0d38c7 	lui	t5,0x38c7
    8b4c:	35ad4868 	ori	t5,t5,0x4868
    8b50:	24100000 	li	s0,0
    8b54:	10000011 	b	8b9c <n34_bltz_test+0x8b9c>
    8b58:	24120000 	li	s2,0
    8b5c:	00000000 	nop
    8b60:	3c1044f3 	lui	s0,0x44f3
    8b64:	05000021 	bltz	t0,8bec <n34_bltz_test+0x8bec>
    8b68:	36109bec 	ori	s0,s0,0x9bec
    8b6c:	10000021 	b	8bf4 <n34_bltz_test+0x8bf4>
    8b70:	00000000 	nop
    8b74:	00000000 	nop
    8b78:	00000021 	move	zero,zero
    8b7c:	00000021 	move	zero,zero
    8b80:	00000021 	move	zero,zero
    8b84:	00000021 	move	zero,zero
    8b88:	00000021 	move	zero,zero
    8b8c:	00000021 	move	zero,zero
    8b90:	00000021 	move	zero,zero
    8b94:	00000021 	move	zero,zero
    8b98:	00000021 	move	zero,zero
    8b9c:	3c08e151 	lui	t0,0xe151
    8ba0:	3508c109 	ori	t0,t0,0xc109
    8ba4:	0500ffee 	bltz	t0,8b60 <n34_bltz_test+0x8b60>
    8ba8:	00000000 	nop
    8bac:	10000011 	b	8bf4 <n34_bltz_test+0x8bf4>
    8bb0:	00000000 	nop
    8bb4:	00000000 	nop
    8bb8:	00000021 	move	zero,zero
    8bbc:	00000021 	move	zero,zero
    8bc0:	00000021 	move	zero,zero
    8bc4:	00000021 	move	zero,zero
    8bc8:	00000021 	move	zero,zero
    8bcc:	00000021 	move	zero,zero
    8bd0:	00000021 	move	zero,zero
    8bd4:	00000021 	move	zero,zero
    8bd8:	00000021 	move	zero,zero
    8bdc:	00000021 	move	zero,zero
    8be0:	00000021 	move	zero,zero
    8be4:	00000021 	move	zero,zero
    8be8:	00000021 	move	zero,zero
    8bec:	3c1238c7 	lui	s2,0x38c7
    8bf0:	36524868 	ori	s2,s2,0x4868
    8bf4:	00000000 	nop
    8bf8:	3c1444f3 	lui	s4,0x44f3
    8bfc:	36949bec 	ori	s4,s4,0x9bec
    8c00:	1614082b 	bne	s0,s4,acb0 <inst_error>
    8c04:	00000000 	nop
    8c08:	00000000 	nop
    8c0c:	3c1538c7 	lui	s5,0x38c7
    8c10:	36b54868 	ori	s5,s5,0x4868
    8c14:	16550826 	bne	s2,s5,acb0 <inst_error>
    8c18:	00000000 	nop
    8c1c:	00000000 	nop
    8c20:	3c0c96be 	lui	t4,0x96be
    8c24:	358c756c 	ori	t4,t4,0x756c
    8c28:	3c0d1d8f 	lui	t5,0x1d8f
    8c2c:	35ad3d83 	ori	t5,t5,0x3d83
    8c30:	24100000 	li	s0,0
    8c34:	10000011 	b	8c7c <n34_bltz_test+0x8c7c>
    8c38:	24120000 	li	s2,0
    8c3c:	00000000 	nop
    8c40:	3c1096be 	lui	s0,0x96be
    8c44:	05000021 	bltz	t0,8ccc <n34_bltz_test+0x8ccc>
    8c48:	3610756c 	ori	s0,s0,0x756c
    8c4c:	10000021 	b	8cd4 <n34_bltz_test+0x8cd4>
    8c50:	00000000 	nop
    8c54:	00000000 	nop
    8c58:	00000021 	move	zero,zero
    8c5c:	00000021 	move	zero,zero
    8c60:	00000021 	move	zero,zero
    8c64:	00000021 	move	zero,zero
    8c68:	00000021 	move	zero,zero
    8c6c:	00000021 	move	zero,zero
    8c70:	00000021 	move	zero,zero
    8c74:	00000021 	move	zero,zero
    8c78:	00000021 	move	zero,zero
    8c7c:	3c08c93d 	lui	t0,0xc93d
    8c80:	35086700 	ori	t0,t0,0x6700
    8c84:	0500ffee 	bltz	t0,8c40 <n34_bltz_test+0x8c40>
    8c88:	00000000 	nop
    8c8c:	10000011 	b	8cd4 <n34_bltz_test+0x8cd4>
    8c90:	00000000 	nop
    8c94:	00000000 	nop
    8c98:	00000021 	move	zero,zero
    8c9c:	00000021 	move	zero,zero
    8ca0:	00000021 	move	zero,zero
    8ca4:	00000021 	move	zero,zero
    8ca8:	00000021 	move	zero,zero
    8cac:	00000021 	move	zero,zero
    8cb0:	00000021 	move	zero,zero
    8cb4:	00000021 	move	zero,zero
    8cb8:	00000021 	move	zero,zero
    8cbc:	00000021 	move	zero,zero
    8cc0:	00000021 	move	zero,zero
    8cc4:	00000021 	move	zero,zero
    8cc8:	00000021 	move	zero,zero
    8ccc:	3c121d8f 	lui	s2,0x1d8f
    8cd0:	36523d83 	ori	s2,s2,0x3d83
    8cd4:	00000000 	nop
    8cd8:	3c1496be 	lui	s4,0x96be
    8cdc:	3694756c 	ori	s4,s4,0x756c
    8ce0:	161407f3 	bne	s0,s4,acb0 <inst_error>
    8ce4:	00000000 	nop
    8ce8:	00000000 	nop
    8cec:	3c151d8f 	lui	s5,0x1d8f
    8cf0:	36b53d83 	ori	s5,s5,0x3d83
    8cf4:	165507ee 	bne	s2,s5,acb0 <inst_error>
    8cf8:	00000000 	nop
    8cfc:	00000000 	nop
    8d00:	3c0cd755 	lui	t4,0xd755
    8d04:	358c7eb4 	ori	t4,t4,0x7eb4
    8d08:	3c0d5be7 	lui	t5,0x5be7
    8d0c:	35ad8000 	ori	t5,t5,0x8000
    8d10:	24100000 	li	s0,0
    8d14:	10000011 	b	8d5c <n34_bltz_test+0x8d5c>
    8d18:	24120000 	li	s2,0
    8d1c:	00000000 	nop
    8d20:	3c10d755 	lui	s0,0xd755
    8d24:	05000021 	bltz	t0,8dac <n34_bltz_test+0x8dac>
    8d28:	36107eb4 	ori	s0,s0,0x7eb4
    8d2c:	10000021 	b	8db4 <n34_bltz_test+0x8db4>
    8d30:	00000000 	nop
    8d34:	00000000 	nop
    8d38:	00000021 	move	zero,zero
    8d3c:	00000021 	move	zero,zero
    8d40:	00000021 	move	zero,zero
    8d44:	00000021 	move	zero,zero
    8d48:	00000021 	move	zero,zero
    8d4c:	00000021 	move	zero,zero
    8d50:	00000021 	move	zero,zero
    8d54:	00000021 	move	zero,zero
    8d58:	00000021 	move	zero,zero
    8d5c:	3c08fc0f 	lui	t0,0xfc0f
    8d60:	3508dece 	ori	t0,t0,0xdece
    8d64:	0500ffee 	bltz	t0,8d20 <n34_bltz_test+0x8d20>
    8d68:	00000000 	nop
    8d6c:	10000011 	b	8db4 <n34_bltz_test+0x8db4>
    8d70:	00000000 	nop
    8d74:	00000000 	nop
    8d78:	00000021 	move	zero,zero
    8d7c:	00000021 	move	zero,zero
    8d80:	00000021 	move	zero,zero
    8d84:	00000021 	move	zero,zero
    8d88:	00000021 	move	zero,zero
    8d8c:	00000021 	move	zero,zero
    8d90:	00000021 	move	zero,zero
    8d94:	00000021 	move	zero,zero
    8d98:	00000021 	move	zero,zero
    8d9c:	00000021 	move	zero,zero
    8da0:	00000021 	move	zero,zero
    8da4:	00000021 	move	zero,zero
    8da8:	00000021 	move	zero,zero
    8dac:	3c125be7 	lui	s2,0x5be7
    8db0:	36528000 	ori	s2,s2,0x8000
    8db4:	00000000 	nop
    8db8:	3c14d755 	lui	s4,0xd755
    8dbc:	36947eb4 	ori	s4,s4,0x7eb4
    8dc0:	161407bb 	bne	s0,s4,acb0 <inst_error>
    8dc4:	00000000 	nop
    8dc8:	00000000 	nop
    8dcc:	3c155be7 	lui	s5,0x5be7
    8dd0:	36b58000 	ori	s5,s5,0x8000
    8dd4:	165507b6 	bne	s2,s5,acb0 <inst_error>
    8dd8:	00000000 	nop
    8ddc:	00000000 	nop
    8de0:	3c0c7cf3 	lui	t4,0x7cf3
    8de4:	358c6c0a 	ori	t4,t4,0x6c0a
    8de8:	3c0dd398 	lui	t5,0xd398
    8dec:	35ad57d0 	ori	t5,t5,0x57d0
    8df0:	24100000 	li	s0,0
    8df4:	10000011 	b	8e3c <n34_bltz_test+0x8e3c>
    8df8:	24120000 	li	s2,0
    8dfc:	00000000 	nop
    8e00:	3c107cf3 	lui	s0,0x7cf3
    8e04:	05000021 	bltz	t0,8e8c <n34_bltz_test+0x8e8c>
    8e08:	36106c0a 	ori	s0,s0,0x6c0a
    8e0c:	10000021 	b	8e94 <n34_bltz_test+0x8e94>
    8e10:	00000000 	nop
    8e14:	00000000 	nop
    8e18:	00000021 	move	zero,zero
    8e1c:	00000021 	move	zero,zero
    8e20:	00000021 	move	zero,zero
    8e24:	00000021 	move	zero,zero
    8e28:	00000021 	move	zero,zero
    8e2c:	00000021 	move	zero,zero
    8e30:	00000021 	move	zero,zero
    8e34:	00000021 	move	zero,zero
    8e38:	00000021 	move	zero,zero
    8e3c:	3c08fbe4 	lui	t0,0xfbe4
    8e40:	3508a3b0 	ori	t0,t0,0xa3b0
    8e44:	0500ffee 	bltz	t0,8e00 <n34_bltz_test+0x8e00>
    8e48:	00000000 	nop
    8e4c:	10000011 	b	8e94 <n34_bltz_test+0x8e94>
    8e50:	00000000 	nop
    8e54:	00000000 	nop
    8e58:	00000021 	move	zero,zero
    8e5c:	00000021 	move	zero,zero
    8e60:	00000021 	move	zero,zero
    8e64:	00000021 	move	zero,zero
    8e68:	00000021 	move	zero,zero
    8e6c:	00000021 	move	zero,zero
    8e70:	00000021 	move	zero,zero
    8e74:	00000021 	move	zero,zero
    8e78:	00000021 	move	zero,zero
    8e7c:	00000021 	move	zero,zero
    8e80:	00000021 	move	zero,zero
    8e84:	00000021 	move	zero,zero
    8e88:	00000021 	move	zero,zero
    8e8c:	3c12d398 	lui	s2,0xd398
    8e90:	365257d0 	ori	s2,s2,0x57d0
    8e94:	00000000 	nop
    8e98:	3c147cf3 	lui	s4,0x7cf3
    8e9c:	36946c0a 	ori	s4,s4,0x6c0a
    8ea0:	16140783 	bne	s0,s4,acb0 <inst_error>
    8ea4:	00000000 	nop
    8ea8:	00000000 	nop
    8eac:	3c15d398 	lui	s5,0xd398
    8eb0:	36b557d0 	ori	s5,s5,0x57d0
    8eb4:	1655077e 	bne	s2,s5,acb0 <inst_error>
    8eb8:	00000000 	nop
    8ebc:	00000000 	nop
    8ec0:	3c0c1ae7 	lui	t4,0x1ae7
    8ec4:	358c3d80 	ori	t4,t4,0x3d80
    8ec8:	3c0dc31e 	lui	t5,0xc31e
    8ecc:	35ada020 	ori	t5,t5,0xa020
    8ed0:	24100000 	li	s0,0
    8ed4:	10000011 	b	8f1c <n34_bltz_test+0x8f1c>
    8ed8:	24120000 	li	s2,0
    8edc:	00000000 	nop
    8ee0:	3c101ae7 	lui	s0,0x1ae7
    8ee4:	05000021 	bltz	t0,8f6c <n34_bltz_test+0x8f6c>
    8ee8:	36103d80 	ori	s0,s0,0x3d80
    8eec:	10000021 	b	8f74 <n34_bltz_test+0x8f74>
    8ef0:	00000000 	nop
    8ef4:	00000000 	nop
    8ef8:	00000021 	move	zero,zero
    8efc:	00000021 	move	zero,zero
    8f00:	00000021 	move	zero,zero
    8f04:	00000021 	move	zero,zero
    8f08:	00000021 	move	zero,zero
    8f0c:	00000021 	move	zero,zero
    8f10:	00000021 	move	zero,zero
    8f14:	00000021 	move	zero,zero
    8f18:	00000021 	move	zero,zero
    8f1c:	3c083601 	lui	t0,0x3601
    8f20:	35088a74 	ori	t0,t0,0x8a74
    8f24:	0500ffee 	bltz	t0,8ee0 <n34_bltz_test+0x8ee0>
    8f28:	00000000 	nop
    8f2c:	10000011 	b	8f74 <n34_bltz_test+0x8f74>
    8f30:	00000000 	nop
    8f34:	00000000 	nop
    8f38:	00000021 	move	zero,zero
    8f3c:	00000021 	move	zero,zero
    8f40:	00000021 	move	zero,zero
    8f44:	00000021 	move	zero,zero
    8f48:	00000021 	move	zero,zero
    8f4c:	00000021 	move	zero,zero
    8f50:	00000021 	move	zero,zero
    8f54:	00000021 	move	zero,zero
    8f58:	00000021 	move	zero,zero
    8f5c:	00000021 	move	zero,zero
    8f60:	00000021 	move	zero,zero
    8f64:	00000021 	move	zero,zero
    8f68:	00000021 	move	zero,zero
    8f6c:	3c12c31e 	lui	s2,0xc31e
    8f70:	3652a020 	ori	s2,s2,0xa020
    8f74:	00000000 	nop
    8f78:	24140000 	li	s4,0
    8f7c:	1614074c 	bne	s0,s4,acb0 <inst_error>
    8f80:	00000000 	nop
    8f84:	00000000 	nop
    8f88:	24150000 	li	s5,0
    8f8c:	16550748 	bne	s2,s5,acb0 <inst_error>
    8f90:	00000000 	nop
    8f94:	00000000 	nop
    8f98:	3c0c5bb4 	lui	t4,0x5bb4
    8f9c:	358c5c64 	ori	t4,t4,0x5c64
    8fa0:	3c0db6c8 	lui	t5,0xb6c8
    8fa4:	35ad267d 	ori	t5,t5,0x267d
    8fa8:	24100000 	li	s0,0
    8fac:	10000011 	b	8ff4 <n34_bltz_test+0x8ff4>
    8fb0:	24120000 	li	s2,0
    8fb4:	00000000 	nop
    8fb8:	3c105bb4 	lui	s0,0x5bb4
    8fbc:	05000021 	bltz	t0,9044 <n34_bltz_test+0x9044>
    8fc0:	36105c64 	ori	s0,s0,0x5c64
    8fc4:	10000021 	b	904c <n34_bltz_test+0x904c>
    8fc8:	00000000 	nop
    8fcc:	00000000 	nop
    8fd0:	00000021 	move	zero,zero
    8fd4:	00000021 	move	zero,zero
    8fd8:	00000021 	move	zero,zero
    8fdc:	00000021 	move	zero,zero
    8fe0:	00000021 	move	zero,zero
    8fe4:	00000021 	move	zero,zero
    8fe8:	00000021 	move	zero,zero
    8fec:	00000021 	move	zero,zero
    8ff0:	00000021 	move	zero,zero
    8ff4:	3c08ac7c 	lui	t0,0xac7c
    8ff8:	3508e388 	ori	t0,t0,0xe388
    8ffc:	0500ffee 	bltz	t0,8fb8 <n34_bltz_test+0x8fb8>
    9000:	00000000 	nop
    9004:	10000011 	b	904c <n34_bltz_test+0x904c>
    9008:	00000000 	nop
    900c:	00000000 	nop
    9010:	00000021 	move	zero,zero
    9014:	00000021 	move	zero,zero
    9018:	00000021 	move	zero,zero
    901c:	00000021 	move	zero,zero
    9020:	00000021 	move	zero,zero
    9024:	00000021 	move	zero,zero
    9028:	00000021 	move	zero,zero
    902c:	00000021 	move	zero,zero
    9030:	00000021 	move	zero,zero
    9034:	00000021 	move	zero,zero
    9038:	00000021 	move	zero,zero
    903c:	00000021 	move	zero,zero
    9040:	00000021 	move	zero,zero
    9044:	3c12b6c8 	lui	s2,0xb6c8
    9048:	3652267d 	ori	s2,s2,0x267d
    904c:	00000000 	nop
    9050:	3c145bb4 	lui	s4,0x5bb4
    9054:	36945c64 	ori	s4,s4,0x5c64
    9058:	16140715 	bne	s0,s4,acb0 <inst_error>
    905c:	00000000 	nop
    9060:	00000000 	nop
    9064:	3c15b6c8 	lui	s5,0xb6c8
    9068:	36b5267d 	ori	s5,s5,0x267d
    906c:	16550710 	bne	s2,s5,acb0 <inst_error>
    9070:	00000000 	nop
    9074:	00000000 	nop
    9078:	3c0caa54 	lui	t4,0xaa54
    907c:	358c90c4 	ori	t4,t4,0x90c4
    9080:	3c0d956e 	lui	t5,0x956e
    9084:	35ad6b98 	ori	t5,t5,0x6b98
    9088:	24100000 	li	s0,0
    908c:	10000011 	b	90d4 <n34_bltz_test+0x90d4>
    9090:	24120000 	li	s2,0
    9094:	00000000 	nop
    9098:	3c10aa54 	lui	s0,0xaa54
    909c:	05000021 	bltz	t0,9124 <n34_bltz_test+0x9124>
    90a0:	361090c4 	ori	s0,s0,0x90c4
    90a4:	10000021 	b	912c <n34_bltz_test+0x912c>
    90a8:	00000000 	nop
    90ac:	00000000 	nop
    90b0:	00000021 	move	zero,zero
    90b4:	00000021 	move	zero,zero
    90b8:	00000021 	move	zero,zero
    90bc:	00000021 	move	zero,zero
    90c0:	00000021 	move	zero,zero
    90c4:	00000021 	move	zero,zero
    90c8:	00000021 	move	zero,zero
    90cc:	00000021 	move	zero,zero
    90d0:	00000021 	move	zero,zero
    90d4:	3c086649 	lui	t0,0x6649
    90d8:	3508e200 	ori	t0,t0,0xe200
    90dc:	0500ffee 	bltz	t0,9098 <n34_bltz_test+0x9098>
    90e0:	00000000 	nop
    90e4:	10000011 	b	912c <n34_bltz_test+0x912c>
    90e8:	00000000 	nop
    90ec:	00000000 	nop
    90f0:	00000021 	move	zero,zero
    90f4:	00000021 	move	zero,zero
    90f8:	00000021 	move	zero,zero
    90fc:	00000021 	move	zero,zero
    9100:	00000021 	move	zero,zero
    9104:	00000021 	move	zero,zero
    9108:	00000021 	move	zero,zero
    910c:	00000021 	move	zero,zero
    9110:	00000021 	move	zero,zero
    9114:	00000021 	move	zero,zero
    9118:	00000021 	move	zero,zero
    911c:	00000021 	move	zero,zero
    9120:	00000021 	move	zero,zero
    9124:	3c12956e 	lui	s2,0x956e
    9128:	36526b98 	ori	s2,s2,0x6b98
    912c:	00000000 	nop
    9130:	24140000 	li	s4,0
    9134:	161406de 	bne	s0,s4,acb0 <inst_error>
    9138:	00000000 	nop
    913c:	00000000 	nop
    9140:	24150000 	li	s5,0
    9144:	165506da 	bne	s2,s5,acb0 <inst_error>
    9148:	00000000 	nop
    914c:	00000000 	nop
    9150:	3c0ca3ff 	lui	t4,0xa3ff
    9154:	358c8230 	ori	t4,t4,0x8230
    9158:	3c0dfe12 	lui	t5,0xfe12
    915c:	35adc0f2 	ori	t5,t5,0xc0f2
    9160:	24100000 	li	s0,0
    9164:	10000011 	b	91ac <n34_bltz_test+0x91ac>
    9168:	24120000 	li	s2,0
    916c:	00000000 	nop
    9170:	3c10a3ff 	lui	s0,0xa3ff
    9174:	05000021 	bltz	t0,91fc <n34_bltz_test+0x91fc>
    9178:	36108230 	ori	s0,s0,0x8230
    917c:	10000021 	b	9204 <n34_bltz_test+0x9204>
    9180:	00000000 	nop
    9184:	00000000 	nop
    9188:	00000021 	move	zero,zero
    918c:	00000021 	move	zero,zero
    9190:	00000021 	move	zero,zero
    9194:	00000021 	move	zero,zero
    9198:	00000021 	move	zero,zero
    919c:	00000021 	move	zero,zero
    91a0:	00000021 	move	zero,zero
    91a4:	00000021 	move	zero,zero
    91a8:	00000021 	move	zero,zero
    91ac:	3c08f9c2 	lui	t0,0xf9c2
    91b0:	35088bef 	ori	t0,t0,0x8bef
    91b4:	0500ffee 	bltz	t0,9170 <n34_bltz_test+0x9170>
    91b8:	00000000 	nop
    91bc:	10000011 	b	9204 <n34_bltz_test+0x9204>
    91c0:	00000000 	nop
    91c4:	00000000 	nop
    91c8:	00000021 	move	zero,zero
    91cc:	00000021 	move	zero,zero
    91d0:	00000021 	move	zero,zero
    91d4:	00000021 	move	zero,zero
    91d8:	00000021 	move	zero,zero
    91dc:	00000021 	move	zero,zero
    91e0:	00000021 	move	zero,zero
    91e4:	00000021 	move	zero,zero
    91e8:	00000021 	move	zero,zero
    91ec:	00000021 	move	zero,zero
    91f0:	00000021 	move	zero,zero
    91f4:	00000021 	move	zero,zero
    91f8:	00000021 	move	zero,zero
    91fc:	3c12fe12 	lui	s2,0xfe12
    9200:	3652c0f2 	ori	s2,s2,0xc0f2
    9204:	00000000 	nop
    9208:	3c14a3ff 	lui	s4,0xa3ff
    920c:	36948230 	ori	s4,s4,0x8230
    9210:	161406a7 	bne	s0,s4,acb0 <inst_error>
    9214:	00000000 	nop
    9218:	00000000 	nop
    921c:	3c15fe12 	lui	s5,0xfe12
    9220:	36b5c0f2 	ori	s5,s5,0xc0f2
    9224:	165506a2 	bne	s2,s5,acb0 <inst_error>
    9228:	00000000 	nop
    922c:	00000000 	nop
    9230:	3c0cc166 	lui	t4,0xc166
    9234:	358c6df6 	ori	t4,t4,0x6df6
    9238:	3c0d8844 	lui	t5,0x8844
    923c:	35ad28c0 	ori	t5,t5,0x28c0
    9240:	24100000 	li	s0,0
    9244:	10000011 	b	928c <n34_bltz_test+0x928c>
    9248:	24120000 	li	s2,0
    924c:	00000000 	nop
    9250:	3c10c166 	lui	s0,0xc166
    9254:	05000021 	bltz	t0,92dc <n34_bltz_test+0x92dc>
    9258:	36106df6 	ori	s0,s0,0x6df6
    925c:	10000021 	b	92e4 <n34_bltz_test+0x92e4>
    9260:	00000000 	nop
    9264:	00000000 	nop
    9268:	00000021 	move	zero,zero
    926c:	00000021 	move	zero,zero
    9270:	00000021 	move	zero,zero
    9274:	00000021 	move	zero,zero
    9278:	00000021 	move	zero,zero
    927c:	00000021 	move	zero,zero
    9280:	00000021 	move	zero,zero
    9284:	00000021 	move	zero,zero
    9288:	00000021 	move	zero,zero
    928c:	3c08b415 	lui	t0,0xb415
    9290:	35081430 	ori	t0,t0,0x1430
    9294:	0500ffee 	bltz	t0,9250 <n34_bltz_test+0x9250>
    9298:	00000000 	nop
    929c:	10000011 	b	92e4 <n34_bltz_test+0x92e4>
    92a0:	00000000 	nop
    92a4:	00000000 	nop
    92a8:	00000021 	move	zero,zero
    92ac:	00000021 	move	zero,zero
    92b0:	00000021 	move	zero,zero
    92b4:	00000021 	move	zero,zero
    92b8:	00000021 	move	zero,zero
    92bc:	00000021 	move	zero,zero
    92c0:	00000021 	move	zero,zero
    92c4:	00000021 	move	zero,zero
    92c8:	00000021 	move	zero,zero
    92cc:	00000021 	move	zero,zero
    92d0:	00000021 	move	zero,zero
    92d4:	00000021 	move	zero,zero
    92d8:	00000021 	move	zero,zero
    92dc:	3c128844 	lui	s2,0x8844
    92e0:	365228c0 	ori	s2,s2,0x28c0
    92e4:	00000000 	nop
    92e8:	3c14c166 	lui	s4,0xc166
    92ec:	36946df6 	ori	s4,s4,0x6df6
    92f0:	1614066f 	bne	s0,s4,acb0 <inst_error>
    92f4:	00000000 	nop
    92f8:	00000000 	nop
    92fc:	3c158844 	lui	s5,0x8844
    9300:	36b528c0 	ori	s5,s5,0x28c0
    9304:	1655066a 	bne	s2,s5,acb0 <inst_error>
    9308:	00000000 	nop
    930c:	00000000 	nop
    9310:	3c0c1170 	lui	t4,0x1170
    9314:	358ce1c0 	ori	t4,t4,0xe1c0
    9318:	3c0d4581 	lui	t5,0x4581
    931c:	35adcdba 	ori	t5,t5,0xcdba
    9320:	24100000 	li	s0,0
    9324:	10000011 	b	936c <n34_bltz_test+0x936c>
    9328:	24120000 	li	s2,0
    932c:	00000000 	nop
    9330:	3c101170 	lui	s0,0x1170
    9334:	05000021 	bltz	t0,93bc <n34_bltz_test+0x93bc>
    9338:	3610e1c0 	ori	s0,s0,0xe1c0
    933c:	10000021 	b	93c4 <n34_bltz_test+0x93c4>
    9340:	00000000 	nop
    9344:	00000000 	nop
    9348:	00000021 	move	zero,zero
    934c:	00000021 	move	zero,zero
    9350:	00000021 	move	zero,zero
    9354:	00000021 	move	zero,zero
    9358:	00000021 	move	zero,zero
    935c:	00000021 	move	zero,zero
    9360:	00000021 	move	zero,zero
    9364:	00000021 	move	zero,zero
    9368:	00000021 	move	zero,zero
    936c:	3c089d2f 	lui	t0,0x9d2f
    9370:	3508ffdc 	ori	t0,t0,0xffdc
    9374:	0500ffee 	bltz	t0,9330 <n34_bltz_test+0x9330>
    9378:	00000000 	nop
    937c:	10000011 	b	93c4 <n34_bltz_test+0x93c4>
    9380:	00000000 	nop
    9384:	00000000 	nop
    9388:	00000021 	move	zero,zero
    938c:	00000021 	move	zero,zero
    9390:	00000021 	move	zero,zero
    9394:	00000021 	move	zero,zero
    9398:	00000021 	move	zero,zero
    939c:	00000021 	move	zero,zero
    93a0:	00000021 	move	zero,zero
    93a4:	00000021 	move	zero,zero
    93a8:	00000021 	move	zero,zero
    93ac:	00000021 	move	zero,zero
    93b0:	00000021 	move	zero,zero
    93b4:	00000021 	move	zero,zero
    93b8:	00000021 	move	zero,zero
    93bc:	3c124581 	lui	s2,0x4581
    93c0:	3652cdba 	ori	s2,s2,0xcdba
    93c4:	00000000 	nop
    93c8:	3c141170 	lui	s4,0x1170
    93cc:	3694e1c0 	ori	s4,s4,0xe1c0
    93d0:	16140637 	bne	s0,s4,acb0 <inst_error>
    93d4:	00000000 	nop
    93d8:	00000000 	nop
    93dc:	3c154581 	lui	s5,0x4581
    93e0:	36b5cdba 	ori	s5,s5,0xcdba
    93e4:	16550632 	bne	s2,s5,acb0 <inst_error>
    93e8:	00000000 	nop
    93ec:	00000000 	nop
    93f0:	3c0c7c88 	lui	t4,0x7c88
    93f4:	358cabf4 	ori	t4,t4,0xabf4
    93f8:	3c0dc515 	lui	t5,0xc515
    93fc:	35ad74d6 	ori	t5,t5,0x74d6
    9400:	24100000 	li	s0,0
    9404:	10000011 	b	944c <n34_bltz_test+0x944c>
    9408:	24120000 	li	s2,0
    940c:	00000000 	nop
    9410:	3c107c88 	lui	s0,0x7c88
    9414:	05000021 	bltz	t0,949c <n34_bltz_test+0x949c>
    9418:	3610abf4 	ori	s0,s0,0xabf4
    941c:	10000021 	b	94a4 <n34_bltz_test+0x94a4>
    9420:	00000000 	nop
    9424:	00000000 	nop
    9428:	00000021 	move	zero,zero
    942c:	00000021 	move	zero,zero
    9430:	00000021 	move	zero,zero
    9434:	00000021 	move	zero,zero
    9438:	00000021 	move	zero,zero
    943c:	00000021 	move	zero,zero
    9440:	00000021 	move	zero,zero
    9444:	00000021 	move	zero,zero
    9448:	00000021 	move	zero,zero
    944c:	3c08ad58 	lui	t0,0xad58
    9450:	3508fd06 	ori	t0,t0,0xfd06
    9454:	0500ffee 	bltz	t0,9410 <n34_bltz_test+0x9410>
    9458:	00000000 	nop
    945c:	10000011 	b	94a4 <n34_bltz_test+0x94a4>
    9460:	00000000 	nop
    9464:	00000000 	nop
    9468:	00000021 	move	zero,zero
    946c:	00000021 	move	zero,zero
    9470:	00000021 	move	zero,zero
    9474:	00000021 	move	zero,zero
    9478:	00000021 	move	zero,zero
    947c:	00000021 	move	zero,zero
    9480:	00000021 	move	zero,zero
    9484:	00000021 	move	zero,zero
    9488:	00000021 	move	zero,zero
    948c:	00000021 	move	zero,zero
    9490:	00000021 	move	zero,zero
    9494:	00000021 	move	zero,zero
    9498:	00000021 	move	zero,zero
    949c:	3c12c515 	lui	s2,0xc515
    94a0:	365274d6 	ori	s2,s2,0x74d6
    94a4:	00000000 	nop
    94a8:	3c147c88 	lui	s4,0x7c88
    94ac:	3694abf4 	ori	s4,s4,0xabf4
    94b0:	161405ff 	bne	s0,s4,acb0 <inst_error>
    94b4:	00000000 	nop
    94b8:	00000000 	nop
    94bc:	3c15c515 	lui	s5,0xc515
    94c0:	36b574d6 	ori	s5,s5,0x74d6
    94c4:	165505fa 	bne	s2,s5,acb0 <inst_error>
    94c8:	00000000 	nop
    94cc:	00000000 	nop
    94d0:	3c0cc213 	lui	t4,0xc213
    94d4:	358c6700 	ori	t4,t4,0x6700
    94d8:	3c0dffa6 	lui	t5,0xffa6
    94dc:	35adf314 	ori	t5,t5,0xf314
    94e0:	24100000 	li	s0,0
    94e4:	10000011 	b	952c <n34_bltz_test+0x952c>
    94e8:	24120000 	li	s2,0
    94ec:	00000000 	nop
    94f0:	3c10c213 	lui	s0,0xc213
    94f4:	05000021 	bltz	t0,957c <n34_bltz_test+0x957c>
    94f8:	36106700 	ori	s0,s0,0x6700
    94fc:	10000021 	b	9584 <n34_bltz_test+0x9584>
    9500:	00000000 	nop
    9504:	00000000 	nop
    9508:	00000021 	move	zero,zero
    950c:	00000021 	move	zero,zero
    9510:	00000021 	move	zero,zero
    9514:	00000021 	move	zero,zero
    9518:	00000021 	move	zero,zero
    951c:	00000021 	move	zero,zero
    9520:	00000021 	move	zero,zero
    9524:	00000021 	move	zero,zero
    9528:	00000021 	move	zero,zero
    952c:	3c08f618 	lui	t0,0xf618
    9530:	35082edd 	ori	t0,t0,0x2edd
    9534:	0500ffee 	bltz	t0,94f0 <n34_bltz_test+0x94f0>
    9538:	00000000 	nop
    953c:	10000011 	b	9584 <n34_bltz_test+0x9584>
    9540:	00000000 	nop
    9544:	00000000 	nop
    9548:	00000021 	move	zero,zero
    954c:	00000021 	move	zero,zero
    9550:	00000021 	move	zero,zero
    9554:	00000021 	move	zero,zero
    9558:	00000021 	move	zero,zero
    955c:	00000021 	move	zero,zero
    9560:	00000021 	move	zero,zero
    9564:	00000021 	move	zero,zero
    9568:	00000021 	move	zero,zero
    956c:	00000021 	move	zero,zero
    9570:	00000021 	move	zero,zero
    9574:	00000021 	move	zero,zero
    9578:	00000021 	move	zero,zero
    957c:	3c12ffa6 	lui	s2,0xffa6
    9580:	3652f314 	ori	s2,s2,0xf314
    9584:	00000000 	nop
    9588:	3c14c213 	lui	s4,0xc213
    958c:	36946700 	ori	s4,s4,0x6700
    9590:	161405c7 	bne	s0,s4,acb0 <inst_error>
    9594:	00000000 	nop
    9598:	00000000 	nop
    959c:	3c15ffa6 	lui	s5,0xffa6
    95a0:	36b5f314 	ori	s5,s5,0xf314
    95a4:	165505c2 	bne	s2,s5,acb0 <inst_error>
    95a8:	00000000 	nop
    95ac:	00000000 	nop
    95b0:	3c0c19f9 	lui	t4,0x19f9
    95b4:	358c5918 	ori	t4,t4,0x5918
    95b8:	3c0d5057 	lui	t5,0x5057
    95bc:	35ad2e1d 	ori	t5,t5,0x2e1d
    95c0:	24100000 	li	s0,0
    95c4:	10000011 	b	960c <n34_bltz_test+0x960c>
    95c8:	24120000 	li	s2,0
    95cc:	00000000 	nop
    95d0:	3c1019f9 	lui	s0,0x19f9
    95d4:	05000021 	bltz	t0,965c <n34_bltz_test+0x965c>
    95d8:	36105918 	ori	s0,s0,0x5918
    95dc:	10000021 	b	9664 <n34_bltz_test+0x9664>
    95e0:	00000000 	nop
    95e4:	00000000 	nop
    95e8:	00000021 	move	zero,zero
    95ec:	00000021 	move	zero,zero
    95f0:	00000021 	move	zero,zero
    95f4:	00000021 	move	zero,zero
    95f8:	00000021 	move	zero,zero
    95fc:	00000021 	move	zero,zero
    9600:	00000021 	move	zero,zero
    9604:	00000021 	move	zero,zero
    9608:	00000021 	move	zero,zero
    960c:	3c08084d 	lui	t0,0x84d
    9610:	35086082 	ori	t0,t0,0x6082
    9614:	0500ffee 	bltz	t0,95d0 <n34_bltz_test+0x95d0>
    9618:	00000000 	nop
    961c:	10000011 	b	9664 <n34_bltz_test+0x9664>
    9620:	00000000 	nop
    9624:	00000000 	nop
    9628:	00000021 	move	zero,zero
    962c:	00000021 	move	zero,zero
    9630:	00000021 	move	zero,zero
    9634:	00000021 	move	zero,zero
    9638:	00000021 	move	zero,zero
    963c:	00000021 	move	zero,zero
    9640:	00000021 	move	zero,zero
    9644:	00000021 	move	zero,zero
    9648:	00000021 	move	zero,zero
    964c:	00000021 	move	zero,zero
    9650:	00000021 	move	zero,zero
    9654:	00000021 	move	zero,zero
    9658:	00000021 	move	zero,zero
    965c:	3c125057 	lui	s2,0x5057
    9660:	36522e1d 	ori	s2,s2,0x2e1d
    9664:	00000000 	nop
    9668:	24140000 	li	s4,0
    966c:	16140590 	bne	s0,s4,acb0 <inst_error>
    9670:	00000000 	nop
    9674:	00000000 	nop
    9678:	24150000 	li	s5,0
    967c:	1655058c 	bne	s2,s5,acb0 <inst_error>
    9680:	00000000 	nop
    9684:	00000000 	nop
    9688:	3c0c2fe0 	lui	t4,0x2fe0
    968c:	358cc760 	ori	t4,t4,0xc760
    9690:	3c0d77d6 	lui	t5,0x77d6
    9694:	35add4e8 	ori	t5,t5,0xd4e8
    9698:	24100000 	li	s0,0
    969c:	10000011 	b	96e4 <n34_bltz_test+0x96e4>
    96a0:	24120000 	li	s2,0
    96a4:	00000000 	nop
    96a8:	3c102fe0 	lui	s0,0x2fe0
    96ac:	05000021 	bltz	t0,9734 <n34_bltz_test+0x9734>
    96b0:	3610c760 	ori	s0,s0,0xc760
    96b4:	10000021 	b	973c <n34_bltz_test+0x973c>
    96b8:	00000000 	nop
    96bc:	00000000 	nop
    96c0:	00000021 	move	zero,zero
    96c4:	00000021 	move	zero,zero
    96c8:	00000021 	move	zero,zero
    96cc:	00000021 	move	zero,zero
    96d0:	00000021 	move	zero,zero
    96d4:	00000021 	move	zero,zero
    96d8:	00000021 	move	zero,zero
    96dc:	00000021 	move	zero,zero
    96e0:	00000021 	move	zero,zero
    96e4:	3c08d84a 	lui	t0,0xd84a
    96e8:	35082ada 	ori	t0,t0,0x2ada
    96ec:	0500ffee 	bltz	t0,96a8 <n34_bltz_test+0x96a8>
    96f0:	00000000 	nop
    96f4:	10000011 	b	973c <n34_bltz_test+0x973c>
    96f8:	00000000 	nop
    96fc:	00000000 	nop
    9700:	00000021 	move	zero,zero
    9704:	00000021 	move	zero,zero
    9708:	00000021 	move	zero,zero
    970c:	00000021 	move	zero,zero
    9710:	00000021 	move	zero,zero
    9714:	00000021 	move	zero,zero
    9718:	00000021 	move	zero,zero
    971c:	00000021 	move	zero,zero
    9720:	00000021 	move	zero,zero
    9724:	00000021 	move	zero,zero
    9728:	00000021 	move	zero,zero
    972c:	00000021 	move	zero,zero
    9730:	00000021 	move	zero,zero
    9734:	3c1277d6 	lui	s2,0x77d6
    9738:	3652d4e8 	ori	s2,s2,0xd4e8
    973c:	00000000 	nop
    9740:	3c142fe0 	lui	s4,0x2fe0
    9744:	3694c760 	ori	s4,s4,0xc760
    9748:	16140559 	bne	s0,s4,acb0 <inst_error>
    974c:	00000000 	nop
    9750:	00000000 	nop
    9754:	3c1577d6 	lui	s5,0x77d6
    9758:	36b5d4e8 	ori	s5,s5,0xd4e8
    975c:	16550554 	bne	s2,s5,acb0 <inst_error>
    9760:	00000000 	nop
    9764:	00000000 	nop
    9768:	3c0ca009 	lui	t4,0xa009
    976c:	358c15a8 	ori	t4,t4,0x15a8
    9770:	3c0d7049 	lui	t5,0x7049
    9774:	35add94a 	ori	t5,t5,0xd94a
    9778:	24100000 	li	s0,0
    977c:	10000011 	b	97c4 <n34_bltz_test+0x97c4>
    9780:	24120000 	li	s2,0
    9784:	00000000 	nop
    9788:	3c10a009 	lui	s0,0xa009
    978c:	05000021 	bltz	t0,9814 <n34_bltz_test+0x9814>
    9790:	361015a8 	ori	s0,s0,0x15a8
    9794:	10000021 	b	981c <n34_bltz_test+0x981c>
    9798:	00000000 	nop
    979c:	00000000 	nop
    97a0:	00000021 	move	zero,zero
    97a4:	00000021 	move	zero,zero
    97a8:	00000021 	move	zero,zero
    97ac:	00000021 	move	zero,zero
    97b0:	00000021 	move	zero,zero
    97b4:	00000021 	move	zero,zero
    97b8:	00000021 	move	zero,zero
    97bc:	00000021 	move	zero,zero
    97c0:	00000021 	move	zero,zero
    97c4:	3c0880dd 	lui	t0,0x80dd
    97c8:	35087048 	ori	t0,t0,0x7048
    97cc:	0500ffee 	bltz	t0,9788 <n34_bltz_test+0x9788>
    97d0:	00000000 	nop
    97d4:	10000011 	b	981c <n34_bltz_test+0x981c>
    97d8:	00000000 	nop
    97dc:	00000000 	nop
    97e0:	00000021 	move	zero,zero
    97e4:	00000021 	move	zero,zero
    97e8:	00000021 	move	zero,zero
    97ec:	00000021 	move	zero,zero
    97f0:	00000021 	move	zero,zero
    97f4:	00000021 	move	zero,zero
    97f8:	00000021 	move	zero,zero
    97fc:	00000021 	move	zero,zero
    9800:	00000021 	move	zero,zero
    9804:	00000021 	move	zero,zero
    9808:	00000021 	move	zero,zero
    980c:	00000021 	move	zero,zero
    9810:	00000021 	move	zero,zero
    9814:	3c127049 	lui	s2,0x7049
    9818:	3652d94a 	ori	s2,s2,0xd94a
    981c:	00000000 	nop
    9820:	3c14a009 	lui	s4,0xa009
    9824:	369415a8 	ori	s4,s4,0x15a8
    9828:	16140521 	bne	s0,s4,acb0 <inst_error>
    982c:	00000000 	nop
    9830:	00000000 	nop
    9834:	3c157049 	lui	s5,0x7049
    9838:	36b5d94a 	ori	s5,s5,0xd94a
    983c:	1655051c 	bne	s2,s5,acb0 <inst_error>
    9840:	00000000 	nop
    9844:	00000000 	nop
    9848:	3c0c3456 	lui	t4,0x3456
    984c:	358c1259 	ori	t4,t4,0x1259
    9850:	3c0dd713 	lui	t5,0xd713
    9854:	35ad845e 	ori	t5,t5,0x845e
    9858:	24100000 	li	s0,0
    985c:	10000011 	b	98a4 <n34_bltz_test+0x98a4>
    9860:	24120000 	li	s2,0
    9864:	00000000 	nop
    9868:	3c103456 	lui	s0,0x3456
    986c:	05000021 	bltz	t0,98f4 <n34_bltz_test+0x98f4>
    9870:	36101259 	ori	s0,s0,0x1259
    9874:	10000021 	b	98fc <n34_bltz_test+0x98fc>
    9878:	00000000 	nop
    987c:	00000000 	nop
    9880:	00000021 	move	zero,zero
    9884:	00000021 	move	zero,zero
    9888:	00000021 	move	zero,zero
    988c:	00000021 	move	zero,zero
    9890:	00000021 	move	zero,zero
    9894:	00000021 	move	zero,zero
    9898:	00000021 	move	zero,zero
    989c:	00000021 	move	zero,zero
    98a0:	00000021 	move	zero,zero
    98a4:	3c084001 	lui	t0,0x4001
    98a8:	3508558e 	ori	t0,t0,0x558e
    98ac:	0500ffee 	bltz	t0,9868 <n34_bltz_test+0x9868>
    98b0:	00000000 	nop
    98b4:	10000011 	b	98fc <n34_bltz_test+0x98fc>
    98b8:	00000000 	nop
    98bc:	00000000 	nop
    98c0:	00000021 	move	zero,zero
    98c4:	00000021 	move	zero,zero
    98c8:	00000021 	move	zero,zero
    98cc:	00000021 	move	zero,zero
    98d0:	00000021 	move	zero,zero
    98d4:	00000021 	move	zero,zero
    98d8:	00000021 	move	zero,zero
    98dc:	00000021 	move	zero,zero
    98e0:	00000021 	move	zero,zero
    98e4:	00000021 	move	zero,zero
    98e8:	00000021 	move	zero,zero
    98ec:	00000021 	move	zero,zero
    98f0:	00000021 	move	zero,zero
    98f4:	3c12d713 	lui	s2,0xd713
    98f8:	3652845e 	ori	s2,s2,0x845e
    98fc:	00000000 	nop
    9900:	24140000 	li	s4,0
    9904:	161404ea 	bne	s0,s4,acb0 <inst_error>
    9908:	00000000 	nop
    990c:	00000000 	nop
    9910:	24150000 	li	s5,0
    9914:	165504e6 	bne	s2,s5,acb0 <inst_error>
    9918:	00000000 	nop
    991c:	00000000 	nop
    9920:	3c0c9421 	lui	t4,0x9421
    9924:	358c4f80 	ori	t4,t4,0x4f80
    9928:	3c0d0102 	lui	t5,0x102
    992c:	35adad68 	ori	t5,t5,0xad68
    9930:	24100000 	li	s0,0
    9934:	10000011 	b	997c <n34_bltz_test+0x997c>
    9938:	24120000 	li	s2,0
    993c:	00000000 	nop
    9940:	3c109421 	lui	s0,0x9421
    9944:	05000021 	bltz	t0,99cc <n34_bltz_test+0x99cc>
    9948:	36104f80 	ori	s0,s0,0x4f80
    994c:	10000021 	b	99d4 <n34_bltz_test+0x99d4>
    9950:	00000000 	nop
    9954:	00000000 	nop
    9958:	00000021 	move	zero,zero
    995c:	00000021 	move	zero,zero
    9960:	00000021 	move	zero,zero
    9964:	00000021 	move	zero,zero
    9968:	00000021 	move	zero,zero
    996c:	00000021 	move	zero,zero
    9970:	00000021 	move	zero,zero
    9974:	00000021 	move	zero,zero
    9978:	00000021 	move	zero,zero
    997c:	3c08560d 	lui	t0,0x560d
    9980:	35080b00 	ori	t0,t0,0xb00
    9984:	0500ffee 	bltz	t0,9940 <n34_bltz_test+0x9940>
    9988:	00000000 	nop
    998c:	10000011 	b	99d4 <n34_bltz_test+0x99d4>
    9990:	00000000 	nop
    9994:	00000000 	nop
    9998:	00000021 	move	zero,zero
    999c:	00000021 	move	zero,zero
    99a0:	00000021 	move	zero,zero
    99a4:	00000021 	move	zero,zero
    99a8:	00000021 	move	zero,zero
    99ac:	00000021 	move	zero,zero
    99b0:	00000021 	move	zero,zero
    99b4:	00000021 	move	zero,zero
    99b8:	00000021 	move	zero,zero
    99bc:	00000021 	move	zero,zero
    99c0:	00000021 	move	zero,zero
    99c4:	00000021 	move	zero,zero
    99c8:	00000021 	move	zero,zero
    99cc:	3c120102 	lui	s2,0x102
    99d0:	3652ad68 	ori	s2,s2,0xad68
    99d4:	00000000 	nop
    99d8:	24140000 	li	s4,0
    99dc:	161404b4 	bne	s0,s4,acb0 <inst_error>
    99e0:	00000000 	nop
    99e4:	00000000 	nop
    99e8:	24150000 	li	s5,0
    99ec:	165504b0 	bne	s2,s5,acb0 <inst_error>
    99f0:	00000000 	nop
    99f4:	00000000 	nop
    99f8:	3c0cbdcc 	lui	t4,0xbdcc
    99fc:	358c8f44 	ori	t4,t4,0x8f44
    9a00:	3c0dea13 	lui	t5,0xea13
    9a04:	35adb732 	ori	t5,t5,0xb732
    9a08:	24100000 	li	s0,0
    9a0c:	10000011 	b	9a54 <n34_bltz_test+0x9a54>
    9a10:	24120000 	li	s2,0
    9a14:	00000000 	nop
    9a18:	3c10bdcc 	lui	s0,0xbdcc
    9a1c:	05000021 	bltz	t0,9aa4 <n34_bltz_test+0x9aa4>
    9a20:	36108f44 	ori	s0,s0,0x8f44
    9a24:	10000021 	b	9aac <n34_bltz_test+0x9aac>
    9a28:	00000000 	nop
    9a2c:	00000000 	nop
    9a30:	00000021 	move	zero,zero
    9a34:	00000021 	move	zero,zero
    9a38:	00000021 	move	zero,zero
    9a3c:	00000021 	move	zero,zero
    9a40:	00000021 	move	zero,zero
    9a44:	00000021 	move	zero,zero
    9a48:	00000021 	move	zero,zero
    9a4c:	00000021 	move	zero,zero
    9a50:	00000021 	move	zero,zero
    9a54:	3c081e0b 	lui	t0,0x1e0b
    9a58:	3508a344 	ori	t0,t0,0xa344
    9a5c:	0500ffee 	bltz	t0,9a18 <n34_bltz_test+0x9a18>
    9a60:	00000000 	nop
    9a64:	10000011 	b	9aac <n34_bltz_test+0x9aac>
    9a68:	00000000 	nop
    9a6c:	00000000 	nop
    9a70:	00000021 	move	zero,zero
    9a74:	00000021 	move	zero,zero
    9a78:	00000021 	move	zero,zero
    9a7c:	00000021 	move	zero,zero
    9a80:	00000021 	move	zero,zero
    9a84:	00000021 	move	zero,zero
    9a88:	00000021 	move	zero,zero
    9a8c:	00000021 	move	zero,zero
    9a90:	00000021 	move	zero,zero
    9a94:	00000021 	move	zero,zero
    9a98:	00000021 	move	zero,zero
    9a9c:	00000021 	move	zero,zero
    9aa0:	00000021 	move	zero,zero
    9aa4:	3c12ea13 	lui	s2,0xea13
    9aa8:	3652b732 	ori	s2,s2,0xb732
    9aac:	00000000 	nop
    9ab0:	24140000 	li	s4,0
    9ab4:	1614047e 	bne	s0,s4,acb0 <inst_error>
    9ab8:	00000000 	nop
    9abc:	00000000 	nop
    9ac0:	24150000 	li	s5,0
    9ac4:	1655047a 	bne	s2,s5,acb0 <inst_error>
    9ac8:	00000000 	nop
    9acc:	00000000 	nop
    9ad0:	3c0c66fe 	lui	t4,0x66fe
    9ad4:	358cf41f 	ori	t4,t4,0xf41f
    9ad8:	3c0d98a0 	lui	t5,0x98a0
    9adc:	35adce08 	ori	t5,t5,0xce08
    9ae0:	24100000 	li	s0,0
    9ae4:	10000011 	b	9b2c <n34_bltz_test+0x9b2c>
    9ae8:	24120000 	li	s2,0
    9aec:	00000000 	nop
    9af0:	3c1066fe 	lui	s0,0x66fe
    9af4:	05000021 	bltz	t0,9b7c <n34_bltz_test+0x9b7c>
    9af8:	3610f41f 	ori	s0,s0,0xf41f
    9afc:	10000021 	b	9b84 <n34_bltz_test+0x9b84>
    9b00:	00000000 	nop
    9b04:	00000000 	nop
    9b08:	00000021 	move	zero,zero
    9b0c:	00000021 	move	zero,zero
    9b10:	00000021 	move	zero,zero
    9b14:	00000021 	move	zero,zero
    9b18:	00000021 	move	zero,zero
    9b1c:	00000021 	move	zero,zero
    9b20:	00000021 	move	zero,zero
    9b24:	00000021 	move	zero,zero
    9b28:	00000021 	move	zero,zero
    9b2c:	3c08adc6 	lui	t0,0xadc6
    9b30:	35082fa0 	ori	t0,t0,0x2fa0
    9b34:	0500ffee 	bltz	t0,9af0 <n34_bltz_test+0x9af0>
    9b38:	00000000 	nop
    9b3c:	10000011 	b	9b84 <n34_bltz_test+0x9b84>
    9b40:	00000000 	nop
    9b44:	00000000 	nop
    9b48:	00000021 	move	zero,zero
    9b4c:	00000021 	move	zero,zero
    9b50:	00000021 	move	zero,zero
    9b54:	00000021 	move	zero,zero
    9b58:	00000021 	move	zero,zero
    9b5c:	00000021 	move	zero,zero
    9b60:	00000021 	move	zero,zero
    9b64:	00000021 	move	zero,zero
    9b68:	00000021 	move	zero,zero
    9b6c:	00000021 	move	zero,zero
    9b70:	00000021 	move	zero,zero
    9b74:	00000021 	move	zero,zero
    9b78:	00000021 	move	zero,zero
    9b7c:	3c1298a0 	lui	s2,0x98a0
    9b80:	3652ce08 	ori	s2,s2,0xce08
    9b84:	00000000 	nop
    9b88:	3c1466fe 	lui	s4,0x66fe
    9b8c:	3694f41f 	ori	s4,s4,0xf41f
    9b90:	16140447 	bne	s0,s4,acb0 <inst_error>
    9b94:	00000000 	nop
    9b98:	00000000 	nop
    9b9c:	3c1598a0 	lui	s5,0x98a0
    9ba0:	36b5ce08 	ori	s5,s5,0xce08
    9ba4:	16550442 	bne	s2,s5,acb0 <inst_error>
    9ba8:	00000000 	nop
    9bac:	00000000 	nop
    9bb0:	3c0cb2d5 	lui	t4,0xb2d5
    9bb4:	358c538c 	ori	t4,t4,0x538c
    9bb8:	3c0d9eea 	lui	t5,0x9eea
    9bbc:	35ad574c 	ori	t5,t5,0x574c
    9bc0:	24100000 	li	s0,0
    9bc4:	10000011 	b	9c0c <n34_bltz_test+0x9c0c>
    9bc8:	24120000 	li	s2,0
    9bcc:	00000000 	nop
    9bd0:	3c10b2d5 	lui	s0,0xb2d5
    9bd4:	05000021 	bltz	t0,9c5c <n34_bltz_test+0x9c5c>
    9bd8:	3610538c 	ori	s0,s0,0x538c
    9bdc:	10000021 	b	9c64 <n34_bltz_test+0x9c64>
    9be0:	00000000 	nop
    9be4:	00000000 	nop
    9be8:	00000021 	move	zero,zero
    9bec:	00000021 	move	zero,zero
    9bf0:	00000021 	move	zero,zero
    9bf4:	00000021 	move	zero,zero
    9bf8:	00000021 	move	zero,zero
    9bfc:	00000021 	move	zero,zero
    9c00:	00000021 	move	zero,zero
    9c04:	00000021 	move	zero,zero
    9c08:	00000021 	move	zero,zero
    9c0c:	3c0864e0 	lui	t0,0x64e0
    9c10:	3508d7d2 	ori	t0,t0,0xd7d2
    9c14:	0500ffee 	bltz	t0,9bd0 <n34_bltz_test+0x9bd0>
    9c18:	00000000 	nop
    9c1c:	10000011 	b	9c64 <n34_bltz_test+0x9c64>
    9c20:	00000000 	nop
    9c24:	00000000 	nop
    9c28:	00000021 	move	zero,zero
    9c2c:	00000021 	move	zero,zero
    9c30:	00000021 	move	zero,zero
    9c34:	00000021 	move	zero,zero
    9c38:	00000021 	move	zero,zero
    9c3c:	00000021 	move	zero,zero
    9c40:	00000021 	move	zero,zero
    9c44:	00000021 	move	zero,zero
    9c48:	00000021 	move	zero,zero
    9c4c:	00000021 	move	zero,zero
    9c50:	00000021 	move	zero,zero
    9c54:	00000021 	move	zero,zero
    9c58:	00000021 	move	zero,zero
    9c5c:	3c129eea 	lui	s2,0x9eea
    9c60:	3652574c 	ori	s2,s2,0x574c
    9c64:	00000000 	nop
    9c68:	24140000 	li	s4,0
    9c6c:	16140410 	bne	s0,s4,acb0 <inst_error>
    9c70:	00000000 	nop
    9c74:	00000000 	nop
    9c78:	24150000 	li	s5,0
    9c7c:	1655040c 	bne	s2,s5,acb0 <inst_error>
    9c80:	00000000 	nop
    9c84:	00000000 	nop
    9c88:	3c0cbf1f 	lui	t4,0xbf1f
    9c8c:	358c5a40 	ori	t4,t4,0x5a40
    9c90:	3c0dd42f 	lui	t5,0xd42f
    9c94:	35ad9f40 	ori	t5,t5,0x9f40
    9c98:	24100000 	li	s0,0
    9c9c:	10000011 	b	9ce4 <n34_bltz_test+0x9ce4>
    9ca0:	24120000 	li	s2,0
    9ca4:	00000000 	nop
    9ca8:	3c10bf1f 	lui	s0,0xbf1f
    9cac:	05000021 	bltz	t0,9d34 <n34_bltz_test+0x9d34>
    9cb0:	36105a40 	ori	s0,s0,0x5a40
    9cb4:	10000021 	b	9d3c <n34_bltz_test+0x9d3c>
    9cb8:	00000000 	nop
    9cbc:	00000000 	nop
    9cc0:	00000021 	move	zero,zero
    9cc4:	00000021 	move	zero,zero
    9cc8:	00000021 	move	zero,zero
    9ccc:	00000021 	move	zero,zero
    9cd0:	00000021 	move	zero,zero
    9cd4:	00000021 	move	zero,zero
    9cd8:	00000021 	move	zero,zero
    9cdc:	00000021 	move	zero,zero
    9ce0:	00000021 	move	zero,zero
    9ce4:	3c08515e 	lui	t0,0x515e
    9ce8:	35085d84 	ori	t0,t0,0x5d84
    9cec:	0500ffee 	bltz	t0,9ca8 <n34_bltz_test+0x9ca8>
    9cf0:	00000000 	nop
    9cf4:	10000011 	b	9d3c <n34_bltz_test+0x9d3c>
    9cf8:	00000000 	nop
    9cfc:	00000000 	nop
    9d00:	00000021 	move	zero,zero
    9d04:	00000021 	move	zero,zero
    9d08:	00000021 	move	zero,zero
    9d0c:	00000021 	move	zero,zero
    9d10:	00000021 	move	zero,zero
    9d14:	00000021 	move	zero,zero
    9d18:	00000021 	move	zero,zero
    9d1c:	00000021 	move	zero,zero
    9d20:	00000021 	move	zero,zero
    9d24:	00000021 	move	zero,zero
    9d28:	00000021 	move	zero,zero
    9d2c:	00000021 	move	zero,zero
    9d30:	00000021 	move	zero,zero
    9d34:	3c12d42f 	lui	s2,0xd42f
    9d38:	36529f40 	ori	s2,s2,0x9f40
    9d3c:	00000000 	nop
    9d40:	24140000 	li	s4,0
    9d44:	161403da 	bne	s0,s4,acb0 <inst_error>
    9d48:	00000000 	nop
    9d4c:	00000000 	nop
    9d50:	24150000 	li	s5,0
    9d54:	165503d6 	bne	s2,s5,acb0 <inst_error>
    9d58:	00000000 	nop
    9d5c:	00000000 	nop
    9d60:	3c0ca463 	lui	t4,0xa463
    9d64:	358cd1ee 	ori	t4,t4,0xd1ee
    9d68:	3c0d48f6 	lui	t5,0x48f6
    9d6c:	35ad4817 	ori	t5,t5,0x4817
    9d70:	24100000 	li	s0,0
    9d74:	10000011 	b	9dbc <n34_bltz_test+0x9dbc>
    9d78:	24120000 	li	s2,0
    9d7c:	00000000 	nop
    9d80:	3c10a463 	lui	s0,0xa463
    9d84:	05000021 	bltz	t0,9e0c <n34_bltz_test+0x9e0c>
    9d88:	3610d1ee 	ori	s0,s0,0xd1ee
    9d8c:	10000021 	b	9e14 <n34_bltz_test+0x9e14>
    9d90:	00000000 	nop
    9d94:	00000000 	nop
    9d98:	00000021 	move	zero,zero
    9d9c:	00000021 	move	zero,zero
    9da0:	00000021 	move	zero,zero
    9da4:	00000021 	move	zero,zero
    9da8:	00000021 	move	zero,zero
    9dac:	00000021 	move	zero,zero
    9db0:	00000021 	move	zero,zero
    9db4:	00000021 	move	zero,zero
    9db8:	00000021 	move	zero,zero
    9dbc:	3c084d47 	lui	t0,0x4d47
    9dc0:	35083946 	ori	t0,t0,0x3946
    9dc4:	0500ffee 	bltz	t0,9d80 <n34_bltz_test+0x9d80>
    9dc8:	00000000 	nop
    9dcc:	10000011 	b	9e14 <n34_bltz_test+0x9e14>
    9dd0:	00000000 	nop
    9dd4:	00000000 	nop
    9dd8:	00000021 	move	zero,zero
    9ddc:	00000021 	move	zero,zero
    9de0:	00000021 	move	zero,zero
    9de4:	00000021 	move	zero,zero
    9de8:	00000021 	move	zero,zero
    9dec:	00000021 	move	zero,zero
    9df0:	00000021 	move	zero,zero
    9df4:	00000021 	move	zero,zero
    9df8:	00000021 	move	zero,zero
    9dfc:	00000021 	move	zero,zero
    9e00:	00000021 	move	zero,zero
    9e04:	00000021 	move	zero,zero
    9e08:	00000021 	move	zero,zero
    9e0c:	3c1248f6 	lui	s2,0x48f6
    9e10:	36524817 	ori	s2,s2,0x4817
    9e14:	00000000 	nop
    9e18:	24140000 	li	s4,0
    9e1c:	161403a4 	bne	s0,s4,acb0 <inst_error>
    9e20:	00000000 	nop
    9e24:	00000000 	nop
    9e28:	24150000 	li	s5,0
    9e2c:	165503a0 	bne	s2,s5,acb0 <inst_error>
    9e30:	00000000 	nop
    9e34:	00000000 	nop
    9e38:	3c0c9c48 	lui	t4,0x9c48
    9e3c:	358cb2fc 	ori	t4,t4,0xb2fc
    9e40:	3c0d5ef0 	lui	t5,0x5ef0
    9e44:	35ada880 	ori	t5,t5,0xa880
    9e48:	24100000 	li	s0,0
    9e4c:	10000011 	b	9e94 <n34_bltz_test+0x9e94>
    9e50:	24120000 	li	s2,0
    9e54:	00000000 	nop
    9e58:	3c109c48 	lui	s0,0x9c48
    9e5c:	05000021 	bltz	t0,9ee4 <n34_bltz_test+0x9ee4>
    9e60:	3610b2fc 	ori	s0,s0,0xb2fc
    9e64:	10000021 	b	9eec <n34_bltz_test+0x9eec>
    9e68:	00000000 	nop
    9e6c:	00000000 	nop
    9e70:	00000021 	move	zero,zero
    9e74:	00000021 	move	zero,zero
    9e78:	00000021 	move	zero,zero
    9e7c:	00000021 	move	zero,zero
    9e80:	00000021 	move	zero,zero
    9e84:	00000021 	move	zero,zero
    9e88:	00000021 	move	zero,zero
    9e8c:	00000021 	move	zero,zero
    9e90:	00000021 	move	zero,zero
    9e94:	3c082fd5 	lui	t0,0x2fd5
    9e98:	3508d4ac 	ori	t0,t0,0xd4ac
    9e9c:	0500ffee 	bltz	t0,9e58 <n34_bltz_test+0x9e58>
    9ea0:	00000000 	nop
    9ea4:	10000011 	b	9eec <n34_bltz_test+0x9eec>
    9ea8:	00000000 	nop
    9eac:	00000000 	nop
    9eb0:	00000021 	move	zero,zero
    9eb4:	00000021 	move	zero,zero
    9eb8:	00000021 	move	zero,zero
    9ebc:	00000021 	move	zero,zero
    9ec0:	00000021 	move	zero,zero
    9ec4:	00000021 	move	zero,zero
    9ec8:	00000021 	move	zero,zero
    9ecc:	00000021 	move	zero,zero
    9ed0:	00000021 	move	zero,zero
    9ed4:	00000021 	move	zero,zero
    9ed8:	00000021 	move	zero,zero
    9edc:	00000021 	move	zero,zero
    9ee0:	00000021 	move	zero,zero
    9ee4:	3c125ef0 	lui	s2,0x5ef0
    9ee8:	3652a880 	ori	s2,s2,0xa880
    9eec:	00000000 	nop
    9ef0:	24140000 	li	s4,0
    9ef4:	1614036e 	bne	s0,s4,acb0 <inst_error>
    9ef8:	00000000 	nop
    9efc:	00000000 	nop
    9f00:	24150000 	li	s5,0
    9f04:	1655036a 	bne	s2,s5,acb0 <inst_error>
    9f08:	00000000 	nop
    9f0c:	00000000 	nop
    9f10:	3c0c2a40 	lui	t4,0x2a40
    9f14:	358c8d48 	ori	t4,t4,0x8d48
    9f18:	3c0d033e 	lui	t5,0x33e
    9f1c:	35ad6b10 	ori	t5,t5,0x6b10
    9f20:	24100000 	li	s0,0
    9f24:	10000011 	b	9f6c <n34_bltz_test+0x9f6c>
    9f28:	24120000 	li	s2,0
    9f2c:	00000000 	nop
    9f30:	3c102a40 	lui	s0,0x2a40
    9f34:	05000021 	bltz	t0,9fbc <n34_bltz_test+0x9fbc>
    9f38:	36108d48 	ori	s0,s0,0x8d48
    9f3c:	10000021 	b	9fc4 <n34_bltz_test+0x9fc4>
    9f40:	00000000 	nop
    9f44:	00000000 	nop
    9f48:	00000021 	move	zero,zero
    9f4c:	00000021 	move	zero,zero
    9f50:	00000021 	move	zero,zero
    9f54:	00000021 	move	zero,zero
    9f58:	00000021 	move	zero,zero
    9f5c:	00000021 	move	zero,zero
    9f60:	00000021 	move	zero,zero
    9f64:	00000021 	move	zero,zero
    9f68:	00000021 	move	zero,zero
    9f6c:	3c0834cc 	lui	t0,0x34cc
    9f70:	35089908 	ori	t0,t0,0x9908
    9f74:	0500ffee 	bltz	t0,9f30 <n34_bltz_test+0x9f30>
    9f78:	00000000 	nop
    9f7c:	10000011 	b	9fc4 <n34_bltz_test+0x9fc4>
    9f80:	00000000 	nop
    9f84:	00000000 	nop
    9f88:	00000021 	move	zero,zero
    9f8c:	00000021 	move	zero,zero
    9f90:	00000021 	move	zero,zero
    9f94:	00000021 	move	zero,zero
    9f98:	00000021 	move	zero,zero
    9f9c:	00000021 	move	zero,zero
    9fa0:	00000021 	move	zero,zero
    9fa4:	00000021 	move	zero,zero
    9fa8:	00000021 	move	zero,zero
    9fac:	00000021 	move	zero,zero
    9fb0:	00000021 	move	zero,zero
    9fb4:	00000021 	move	zero,zero
    9fb8:	00000021 	move	zero,zero
    9fbc:	3c12033e 	lui	s2,0x33e
    9fc0:	36526b10 	ori	s2,s2,0x6b10
    9fc4:	00000000 	nop
    9fc8:	24140000 	li	s4,0
    9fcc:	16140338 	bne	s0,s4,acb0 <inst_error>
    9fd0:	00000000 	nop
    9fd4:	00000000 	nop
    9fd8:	24150000 	li	s5,0
    9fdc:	16550334 	bne	s2,s5,acb0 <inst_error>
    9fe0:	00000000 	nop
    9fe4:	00000000 	nop
    9fe8:	3c0cbdd2 	lui	t4,0xbdd2
    9fec:	358cd88f 	ori	t4,t4,0xd88f
    9ff0:	3c0d20c9 	lui	t5,0x20c9
    9ff4:	35ad711c 	ori	t5,t5,0x711c
    9ff8:	24100000 	li	s0,0
    9ffc:	10000011 	b	a044 <n34_bltz_test+0xa044>
    a000:	24120000 	li	s2,0
    a004:	00000000 	nop
    a008:	3c10bdd2 	lui	s0,0xbdd2
    a00c:	05000021 	bltz	t0,a094 <n34_bltz_test+0xa094>
    a010:	3610d88f 	ori	s0,s0,0xd88f
    a014:	10000021 	b	a09c <n34_bltz_test+0xa09c>
    a018:	00000000 	nop
    a01c:	00000000 	nop
    a020:	00000021 	move	zero,zero
    a024:	00000021 	move	zero,zero
    a028:	00000021 	move	zero,zero
    a02c:	00000021 	move	zero,zero
    a030:	00000021 	move	zero,zero
    a034:	00000021 	move	zero,zero
    a038:	00000021 	move	zero,zero
    a03c:	00000021 	move	zero,zero
    a040:	00000021 	move	zero,zero
    a044:	3c0850eb 	lui	t0,0x50eb
    a048:	35083284 	ori	t0,t0,0x3284
    a04c:	0500ffee 	bltz	t0,a008 <n34_bltz_test+0xa008>
    a050:	00000000 	nop
    a054:	10000011 	b	a09c <n34_bltz_test+0xa09c>
    a058:	00000000 	nop
    a05c:	00000000 	nop
    a060:	00000021 	move	zero,zero
    a064:	00000021 	move	zero,zero
    a068:	00000021 	move	zero,zero
    a06c:	00000021 	move	zero,zero
    a070:	00000021 	move	zero,zero
    a074:	00000021 	move	zero,zero
    a078:	00000021 	move	zero,zero
    a07c:	00000021 	move	zero,zero
    a080:	00000021 	move	zero,zero
    a084:	00000021 	move	zero,zero
    a088:	00000021 	move	zero,zero
    a08c:	00000021 	move	zero,zero
    a090:	00000021 	move	zero,zero
    a094:	3c1220c9 	lui	s2,0x20c9
    a098:	3652711c 	ori	s2,s2,0x711c
    a09c:	00000000 	nop
    a0a0:	24140000 	li	s4,0
    a0a4:	16140302 	bne	s0,s4,acb0 <inst_error>
    a0a8:	00000000 	nop
    a0ac:	00000000 	nop
    a0b0:	24150000 	li	s5,0
    a0b4:	165502fe 	bne	s2,s5,acb0 <inst_error>
    a0b8:	00000000 	nop
    a0bc:	00000000 	nop
    a0c0:	3c0c83e6 	lui	t4,0x83e6
    a0c4:	358cc124 	ori	t4,t4,0xc124
    a0c8:	3c0d0e42 	lui	t5,0xe42
    a0cc:	35adefa4 	ori	t5,t5,0xefa4
    a0d0:	24100000 	li	s0,0
    a0d4:	10000011 	b	a11c <n34_bltz_test+0xa11c>
    a0d8:	24120000 	li	s2,0
    a0dc:	00000000 	nop
    a0e0:	3c1083e6 	lui	s0,0x83e6
    a0e4:	05000021 	bltz	t0,a16c <n34_bltz_test+0xa16c>
    a0e8:	3610c124 	ori	s0,s0,0xc124
    a0ec:	10000021 	b	a174 <n34_bltz_test+0xa174>
    a0f0:	00000000 	nop
    a0f4:	00000000 	nop
    a0f8:	00000021 	move	zero,zero
    a0fc:	00000021 	move	zero,zero
    a100:	00000021 	move	zero,zero
    a104:	00000021 	move	zero,zero
    a108:	00000021 	move	zero,zero
    a10c:	00000021 	move	zero,zero
    a110:	00000021 	move	zero,zero
    a114:	00000021 	move	zero,zero
    a118:	00000021 	move	zero,zero
    a11c:	3c089cb0 	lui	t0,0x9cb0
    a120:	35086f0b 	ori	t0,t0,0x6f0b
    a124:	0500ffee 	bltz	t0,a0e0 <n34_bltz_test+0xa0e0>
    a128:	00000000 	nop
    a12c:	10000011 	b	a174 <n34_bltz_test+0xa174>
    a130:	00000000 	nop
    a134:	00000000 	nop
    a138:	00000021 	move	zero,zero
    a13c:	00000021 	move	zero,zero
    a140:	00000021 	move	zero,zero
    a144:	00000021 	move	zero,zero
    a148:	00000021 	move	zero,zero
    a14c:	00000021 	move	zero,zero
    a150:	00000021 	move	zero,zero
    a154:	00000021 	move	zero,zero
    a158:	00000021 	move	zero,zero
    a15c:	00000021 	move	zero,zero
    a160:	00000021 	move	zero,zero
    a164:	00000021 	move	zero,zero
    a168:	00000021 	move	zero,zero
    a16c:	3c120e42 	lui	s2,0xe42
    a170:	3652efa4 	ori	s2,s2,0xefa4
    a174:	00000000 	nop
    a178:	3c1483e6 	lui	s4,0x83e6
    a17c:	3694c124 	ori	s4,s4,0xc124
    a180:	161402cb 	bne	s0,s4,acb0 <inst_error>
    a184:	00000000 	nop
    a188:	00000000 	nop
    a18c:	3c150e42 	lui	s5,0xe42
    a190:	36b5efa4 	ori	s5,s5,0xefa4
    a194:	165502c6 	bne	s2,s5,acb0 <inst_error>
    a198:	00000000 	nop
    a19c:	00000000 	nop
    a1a0:	3c0cc019 	lui	t4,0xc019
    a1a4:	358cd540 	ori	t4,t4,0xd540
    a1a8:	3c0dffae 	lui	t5,0xffae
    a1ac:	35adcc98 	ori	t5,t5,0xcc98
    a1b0:	24100000 	li	s0,0
    a1b4:	10000011 	b	a1fc <n34_bltz_test+0xa1fc>
    a1b8:	24120000 	li	s2,0
    a1bc:	00000000 	nop
    a1c0:	3c10c019 	lui	s0,0xc019
    a1c4:	05000021 	bltz	t0,a24c <n34_bltz_test+0xa24c>
    a1c8:	3610d540 	ori	s0,s0,0xd540
    a1cc:	10000021 	b	a254 <n34_bltz_test+0xa254>
    a1d0:	00000000 	nop
    a1d4:	00000000 	nop
    a1d8:	00000021 	move	zero,zero
    a1dc:	00000021 	move	zero,zero
    a1e0:	00000021 	move	zero,zero
    a1e4:	00000021 	move	zero,zero
    a1e8:	00000021 	move	zero,zero
    a1ec:	00000021 	move	zero,zero
    a1f0:	00000021 	move	zero,zero
    a1f4:	00000021 	move	zero,zero
    a1f8:	00000021 	move	zero,zero
    a1fc:	3c08d6dc 	lui	t0,0xd6dc
    a200:	35087dde 	ori	t0,t0,0x7dde
    a204:	0500ffee 	bltz	t0,a1c0 <n34_bltz_test+0xa1c0>
    a208:	00000000 	nop
    a20c:	10000011 	b	a254 <n34_bltz_test+0xa254>
    a210:	00000000 	nop
    a214:	00000000 	nop
    a218:	00000021 	move	zero,zero
    a21c:	00000021 	move	zero,zero
    a220:	00000021 	move	zero,zero
    a224:	00000021 	move	zero,zero
    a228:	00000021 	move	zero,zero
    a22c:	00000021 	move	zero,zero
    a230:	00000021 	move	zero,zero
    a234:	00000021 	move	zero,zero
    a238:	00000021 	move	zero,zero
    a23c:	00000021 	move	zero,zero
    a240:	00000021 	move	zero,zero
    a244:	00000021 	move	zero,zero
    a248:	00000021 	move	zero,zero
    a24c:	3c12ffae 	lui	s2,0xffae
    a250:	3652cc98 	ori	s2,s2,0xcc98
    a254:	00000000 	nop
    a258:	3c14c019 	lui	s4,0xc019
    a25c:	3694d540 	ori	s4,s4,0xd540
    a260:	16140293 	bne	s0,s4,acb0 <inst_error>
    a264:	00000000 	nop
    a268:	00000000 	nop
    a26c:	3c15ffae 	lui	s5,0xffae
    a270:	36b5cc98 	ori	s5,s5,0xcc98
    a274:	1655028e 	bne	s2,s5,acb0 <inst_error>
    a278:	00000000 	nop
    a27c:	00000000 	nop
    a280:	3c0c2dba 	lui	t4,0x2dba
    a284:	358c7b70 	ori	t4,t4,0x7b70
    a288:	3c0ddba1 	lui	t5,0xdba1
    a28c:	35ad41b0 	ori	t5,t5,0x41b0
    a290:	24100000 	li	s0,0
    a294:	10000011 	b	a2dc <n34_bltz_test+0xa2dc>
    a298:	24120000 	li	s2,0
    a29c:	00000000 	nop
    a2a0:	3c102dba 	lui	s0,0x2dba
    a2a4:	05000021 	bltz	t0,a32c <n34_bltz_test+0xa32c>
    a2a8:	36107b70 	ori	s0,s0,0x7b70
    a2ac:	10000021 	b	a334 <n34_bltz_test+0xa334>
    a2b0:	00000000 	nop
    a2b4:	00000000 	nop
    a2b8:	00000021 	move	zero,zero
    a2bc:	00000021 	move	zero,zero
    a2c0:	00000021 	move	zero,zero
    a2c4:	00000021 	move	zero,zero
    a2c8:	00000021 	move	zero,zero
    a2cc:	00000021 	move	zero,zero
    a2d0:	00000021 	move	zero,zero
    a2d4:	00000021 	move	zero,zero
    a2d8:	00000021 	move	zero,zero
    a2dc:	3c0870ca 	lui	t0,0x70ca
    a2e0:	35081af8 	ori	t0,t0,0x1af8
    a2e4:	0500ffee 	bltz	t0,a2a0 <n34_bltz_test+0xa2a0>
    a2e8:	00000000 	nop
    a2ec:	10000011 	b	a334 <n34_bltz_test+0xa334>
    a2f0:	00000000 	nop
    a2f4:	00000000 	nop
    a2f8:	00000021 	move	zero,zero
    a2fc:	00000021 	move	zero,zero
    a300:	00000021 	move	zero,zero
    a304:	00000021 	move	zero,zero
    a308:	00000021 	move	zero,zero
    a30c:	00000021 	move	zero,zero
    a310:	00000021 	move	zero,zero
    a314:	00000021 	move	zero,zero
    a318:	00000021 	move	zero,zero
    a31c:	00000021 	move	zero,zero
    a320:	00000021 	move	zero,zero
    a324:	00000021 	move	zero,zero
    a328:	00000021 	move	zero,zero
    a32c:	3c12dba1 	lui	s2,0xdba1
    a330:	365241b0 	ori	s2,s2,0x41b0
    a334:	00000000 	nop
    a338:	24140000 	li	s4,0
    a33c:	1614025c 	bne	s0,s4,acb0 <inst_error>
    a340:	00000000 	nop
    a344:	00000000 	nop
    a348:	24150000 	li	s5,0
    a34c:	16550258 	bne	s2,s5,acb0 <inst_error>
    a350:	00000000 	nop
    a354:	00000000 	nop
    a358:	3c0ca947 	lui	t4,0xa947
    a35c:	358c01b9 	ori	t4,t4,0x1b9
    a360:	3c0d86dd 	lui	t5,0x86dd
    a364:	35ad6498 	ori	t5,t5,0x6498
    a368:	24100000 	li	s0,0
    a36c:	10000011 	b	a3b4 <n34_bltz_test+0xa3b4>
    a370:	24120000 	li	s2,0
    a374:	00000000 	nop
    a378:	3c10a947 	lui	s0,0xa947
    a37c:	05000021 	bltz	t0,a404 <n34_bltz_test+0xa404>
    a380:	361001b9 	ori	s0,s0,0x1b9
    a384:	10000021 	b	a40c <n34_bltz_test+0xa40c>
    a388:	00000000 	nop
    a38c:	00000000 	nop
    a390:	00000021 	move	zero,zero
    a394:	00000021 	move	zero,zero
    a398:	00000021 	move	zero,zero
    a39c:	00000021 	move	zero,zero
    a3a0:	00000021 	move	zero,zero
    a3a4:	00000021 	move	zero,zero
    a3a8:	00000021 	move	zero,zero
    a3ac:	00000021 	move	zero,zero
    a3b0:	00000021 	move	zero,zero
    a3b4:	3c084b6e 	lui	t0,0x4b6e
    a3b8:	3508e7b4 	ori	t0,t0,0xe7b4
    a3bc:	0500ffee 	bltz	t0,a378 <n34_bltz_test+0xa378>
    a3c0:	00000000 	nop
    a3c4:	10000011 	b	a40c <n34_bltz_test+0xa40c>
    a3c8:	00000000 	nop
    a3cc:	00000000 	nop
    a3d0:	00000021 	move	zero,zero
    a3d4:	00000021 	move	zero,zero
    a3d8:	00000021 	move	zero,zero
    a3dc:	00000021 	move	zero,zero
    a3e0:	00000021 	move	zero,zero
    a3e4:	00000021 	move	zero,zero
    a3e8:	00000021 	move	zero,zero
    a3ec:	00000021 	move	zero,zero
    a3f0:	00000021 	move	zero,zero
    a3f4:	00000021 	move	zero,zero
    a3f8:	00000021 	move	zero,zero
    a3fc:	00000021 	move	zero,zero
    a400:	00000021 	move	zero,zero
    a404:	3c1286dd 	lui	s2,0x86dd
    a408:	36526498 	ori	s2,s2,0x6498
    a40c:	00000000 	nop
    a410:	24140000 	li	s4,0
    a414:	16140226 	bne	s0,s4,acb0 <inst_error>
    a418:	00000000 	nop
    a41c:	00000000 	nop
    a420:	24150000 	li	s5,0
    a424:	16550222 	bne	s2,s5,acb0 <inst_error>
    a428:	00000000 	nop
    a42c:	00000000 	nop
    a430:	3c0c574f 	lui	t4,0x574f
    a434:	358c9188 	ori	t4,t4,0x9188
    a438:	3c0d1a8f 	lui	t5,0x1a8f
    a43c:	35adf110 	ori	t5,t5,0xf110
    a440:	24100000 	li	s0,0
    a444:	10000011 	b	a48c <n34_bltz_test+0xa48c>
    a448:	24120000 	li	s2,0
    a44c:	00000000 	nop
    a450:	3c10574f 	lui	s0,0x574f
    a454:	05000021 	bltz	t0,a4dc <n34_bltz_test+0xa4dc>
    a458:	36109188 	ori	s0,s0,0x9188
    a45c:	10000021 	b	a4e4 <n34_bltz_test+0xa4e4>
    a460:	00000000 	nop
    a464:	00000000 	nop
    a468:	00000021 	move	zero,zero
    a46c:	00000021 	move	zero,zero
    a470:	00000021 	move	zero,zero
    a474:	00000021 	move	zero,zero
    a478:	00000021 	move	zero,zero
    a47c:	00000021 	move	zero,zero
    a480:	00000021 	move	zero,zero
    a484:	00000021 	move	zero,zero
    a488:	00000021 	move	zero,zero
    a48c:	3c0863df 	lui	t0,0x63df
    a490:	350892b6 	ori	t0,t0,0x92b6
    a494:	0500ffee 	bltz	t0,a450 <n34_bltz_test+0xa450>
    a498:	00000000 	nop
    a49c:	10000011 	b	a4e4 <n34_bltz_test+0xa4e4>
    a4a0:	00000000 	nop
    a4a4:	00000000 	nop
    a4a8:	00000021 	move	zero,zero
    a4ac:	00000021 	move	zero,zero
    a4b0:	00000021 	move	zero,zero
    a4b4:	00000021 	move	zero,zero
    a4b8:	00000021 	move	zero,zero
    a4bc:	00000021 	move	zero,zero
    a4c0:	00000021 	move	zero,zero
    a4c4:	00000021 	move	zero,zero
    a4c8:	00000021 	move	zero,zero
    a4cc:	00000021 	move	zero,zero
    a4d0:	00000021 	move	zero,zero
    a4d4:	00000021 	move	zero,zero
    a4d8:	00000021 	move	zero,zero
    a4dc:	3c121a8f 	lui	s2,0x1a8f
    a4e0:	3652f110 	ori	s2,s2,0xf110
    a4e4:	00000000 	nop
    a4e8:	24140000 	li	s4,0
    a4ec:	161401f0 	bne	s0,s4,acb0 <inst_error>
    a4f0:	00000000 	nop
    a4f4:	00000000 	nop
    a4f8:	24150000 	li	s5,0
    a4fc:	165501ec 	bne	s2,s5,acb0 <inst_error>
    a500:	00000000 	nop
    a504:	00000000 	nop
    a508:	3c0c1eeb 	lui	t4,0x1eeb
    a50c:	358c8411 	ori	t4,t4,0x8411
    a510:	3c0dac44 	lui	t5,0xac44
    a514:	35ad6554 	ori	t5,t5,0x6554
    a518:	24100000 	li	s0,0
    a51c:	10000011 	b	a564 <n34_bltz_test+0xa564>
    a520:	24120000 	li	s2,0
    a524:	00000000 	nop
    a528:	3c101eeb 	lui	s0,0x1eeb
    a52c:	05000021 	bltz	t0,a5b4 <n34_bltz_test+0xa5b4>
    a530:	36108411 	ori	s0,s0,0x8411
    a534:	10000021 	b	a5bc <n34_bltz_test+0xa5bc>
    a538:	00000000 	nop
    a53c:	00000000 	nop
    a540:	00000021 	move	zero,zero
    a544:	00000021 	move	zero,zero
    a548:	00000021 	move	zero,zero
    a54c:	00000021 	move	zero,zero
    a550:	00000021 	move	zero,zero
    a554:	00000021 	move	zero,zero
    a558:	00000021 	move	zero,zero
    a55c:	00000021 	move	zero,zero
    a560:	00000021 	move	zero,zero
    a564:	3c080ae3 	lui	t0,0xae3
    a568:	35087762 	ori	t0,t0,0x7762
    a56c:	0500ffee 	bltz	t0,a528 <n34_bltz_test+0xa528>
    a570:	00000000 	nop
    a574:	10000011 	b	a5bc <n34_bltz_test+0xa5bc>
    a578:	00000000 	nop
    a57c:	00000000 	nop
    a580:	00000021 	move	zero,zero
    a584:	00000021 	move	zero,zero
    a588:	00000021 	move	zero,zero
    a58c:	00000021 	move	zero,zero
    a590:	00000021 	move	zero,zero
    a594:	00000021 	move	zero,zero
    a598:	00000021 	move	zero,zero
    a59c:	00000021 	move	zero,zero
    a5a0:	00000021 	move	zero,zero
    a5a4:	00000021 	move	zero,zero
    a5a8:	00000021 	move	zero,zero
    a5ac:	00000021 	move	zero,zero
    a5b0:	00000021 	move	zero,zero
    a5b4:	3c12ac44 	lui	s2,0xac44
    a5b8:	36526554 	ori	s2,s2,0x6554
    a5bc:	00000000 	nop
    a5c0:	24140000 	li	s4,0
    a5c4:	161401ba 	bne	s0,s4,acb0 <inst_error>
    a5c8:	00000000 	nop
    a5cc:	00000000 	nop
    a5d0:	24150000 	li	s5,0
    a5d4:	165501b6 	bne	s2,s5,acb0 <inst_error>
    a5d8:	00000000 	nop
    a5dc:	00000000 	nop
    a5e0:	3c0cc841 	lui	t4,0xc841
    a5e4:	358cc5c8 	ori	t4,t4,0xc5c8
    a5e8:	3c0de3f8 	lui	t5,0xe3f8
    a5ec:	35ad2434 	ori	t5,t5,0x2434
    a5f0:	24100000 	li	s0,0
    a5f4:	10000011 	b	a63c <n34_bltz_test+0xa63c>
    a5f8:	24120000 	li	s2,0
    a5fc:	00000000 	nop
    a600:	3c10c841 	lui	s0,0xc841
    a604:	05000021 	bltz	t0,a68c <n34_bltz_test+0xa68c>
    a608:	3610c5c8 	ori	s0,s0,0xc5c8
    a60c:	10000021 	b	a694 <n34_bltz_test+0xa694>
    a610:	00000000 	nop
    a614:	00000000 	nop
    a618:	00000021 	move	zero,zero
    a61c:	00000021 	move	zero,zero
    a620:	00000021 	move	zero,zero
    a624:	00000021 	move	zero,zero
    a628:	00000021 	move	zero,zero
    a62c:	00000021 	move	zero,zero
    a630:	00000021 	move	zero,zero
    a634:	00000021 	move	zero,zero
    a638:	00000021 	move	zero,zero
    a63c:	3c08733f 	lui	t0,0x733f
    a640:	350861a6 	ori	t0,t0,0x61a6
    a644:	0500ffee 	bltz	t0,a600 <n34_bltz_test+0xa600>
    a648:	00000000 	nop
    a64c:	10000011 	b	a694 <n34_bltz_test+0xa694>
    a650:	00000000 	nop
    a654:	00000000 	nop
    a658:	00000021 	move	zero,zero
    a65c:	00000021 	move	zero,zero
    a660:	00000021 	move	zero,zero
    a664:	00000021 	move	zero,zero
    a668:	00000021 	move	zero,zero
    a66c:	00000021 	move	zero,zero
    a670:	00000021 	move	zero,zero
    a674:	00000021 	move	zero,zero
    a678:	00000021 	move	zero,zero
    a67c:	00000021 	move	zero,zero
    a680:	00000021 	move	zero,zero
    a684:	00000021 	move	zero,zero
    a688:	00000021 	move	zero,zero
    a68c:	3c12e3f8 	lui	s2,0xe3f8
    a690:	36522434 	ori	s2,s2,0x2434
    a694:	00000000 	nop
    a698:	24140000 	li	s4,0
    a69c:	16140184 	bne	s0,s4,acb0 <inst_error>
    a6a0:	00000000 	nop
    a6a4:	00000000 	nop
    a6a8:	24150000 	li	s5,0
    a6ac:	16550180 	bne	s2,s5,acb0 <inst_error>
    a6b0:	00000000 	nop
    a6b4:	00000000 	nop
    a6b8:	3c0c1838 	lui	t4,0x1838
    a6bc:	358c9fc2 	ori	t4,t4,0x9fc2
    a6c0:	3c0deb95 	lui	t5,0xeb95
    a6c4:	35ad42c8 	ori	t5,t5,0x42c8
    a6c8:	24100000 	li	s0,0
    a6cc:	10000011 	b	a714 <n34_bltz_test+0xa714>
    a6d0:	24120000 	li	s2,0
    a6d4:	00000000 	nop
    a6d8:	3c101838 	lui	s0,0x1838
    a6dc:	05000021 	bltz	t0,a764 <n34_bltz_test+0xa764>
    a6e0:	36109fc2 	ori	s0,s0,0x9fc2
    a6e4:	10000021 	b	a76c <n34_bltz_test+0xa76c>
    a6e8:	00000000 	nop
    a6ec:	00000000 	nop
    a6f0:	00000021 	move	zero,zero
    a6f4:	00000021 	move	zero,zero
    a6f8:	00000021 	move	zero,zero
    a6fc:	00000021 	move	zero,zero
    a700:	00000021 	move	zero,zero
    a704:	00000021 	move	zero,zero
    a708:	00000021 	move	zero,zero
    a70c:	00000021 	move	zero,zero
    a710:	00000021 	move	zero,zero
    a714:	3c08f596 	lui	t0,0xf596
    a718:	35089546 	ori	t0,t0,0x9546
    a71c:	0500ffee 	bltz	t0,a6d8 <n34_bltz_test+0xa6d8>
    a720:	00000000 	nop
    a724:	10000011 	b	a76c <n34_bltz_test+0xa76c>
    a728:	00000000 	nop
    a72c:	00000000 	nop
    a730:	00000021 	move	zero,zero
    a734:	00000021 	move	zero,zero
    a738:	00000021 	move	zero,zero
    a73c:	00000021 	move	zero,zero
    a740:	00000021 	move	zero,zero
    a744:	00000021 	move	zero,zero
    a748:	00000021 	move	zero,zero
    a74c:	00000021 	move	zero,zero
    a750:	00000021 	move	zero,zero
    a754:	00000021 	move	zero,zero
    a758:	00000021 	move	zero,zero
    a75c:	00000021 	move	zero,zero
    a760:	00000021 	move	zero,zero
    a764:	3c12eb95 	lui	s2,0xeb95
    a768:	365242c8 	ori	s2,s2,0x42c8
    a76c:	00000000 	nop
    a770:	3c141838 	lui	s4,0x1838
    a774:	36949fc2 	ori	s4,s4,0x9fc2
    a778:	1614014d 	bne	s0,s4,acb0 <inst_error>
    a77c:	00000000 	nop
    a780:	00000000 	nop
    a784:	3c15eb95 	lui	s5,0xeb95
    a788:	36b542c8 	ori	s5,s5,0x42c8
    a78c:	16550148 	bne	s2,s5,acb0 <inst_error>
    a790:	00000000 	nop
    a794:	00000000 	nop
    a798:	3c0cba9f 	lui	t4,0xba9f
    a79c:	358ca708 	ori	t4,t4,0xa708
    a7a0:	3c0db99c 	lui	t5,0xb99c
    a7a4:	35adb700 	ori	t5,t5,0xb700
    a7a8:	24100000 	li	s0,0
    a7ac:	10000011 	b	a7f4 <n34_bltz_test+0xa7f4>
    a7b0:	24120000 	li	s2,0
    a7b4:	00000000 	nop
    a7b8:	3c10ba9f 	lui	s0,0xba9f
    a7bc:	05000021 	bltz	t0,a844 <n34_bltz_test+0xa844>
    a7c0:	3610a708 	ori	s0,s0,0xa708
    a7c4:	10000021 	b	a84c <n34_bltz_test+0xa84c>
    a7c8:	00000000 	nop
    a7cc:	00000000 	nop
    a7d0:	00000021 	move	zero,zero
    a7d4:	00000021 	move	zero,zero
    a7d8:	00000021 	move	zero,zero
    a7dc:	00000021 	move	zero,zero
    a7e0:	00000021 	move	zero,zero
    a7e4:	00000021 	move	zero,zero
    a7e8:	00000021 	move	zero,zero
    a7ec:	00000021 	move	zero,zero
    a7f0:	00000021 	move	zero,zero
    a7f4:	3c085e7a 	lui	t0,0x5e7a
    a7f8:	35089940 	ori	t0,t0,0x9940
    a7fc:	0500ffee 	bltz	t0,a7b8 <n34_bltz_test+0xa7b8>
    a800:	00000000 	nop
    a804:	10000011 	b	a84c <n34_bltz_test+0xa84c>
    a808:	00000000 	nop
    a80c:	00000000 	nop
    a810:	00000021 	move	zero,zero
    a814:	00000021 	move	zero,zero
    a818:	00000021 	move	zero,zero
    a81c:	00000021 	move	zero,zero
    a820:	00000021 	move	zero,zero
    a824:	00000021 	move	zero,zero
    a828:	00000021 	move	zero,zero
    a82c:	00000021 	move	zero,zero
    a830:	00000021 	move	zero,zero
    a834:	00000021 	move	zero,zero
    a838:	00000021 	move	zero,zero
    a83c:	00000021 	move	zero,zero
    a840:	00000021 	move	zero,zero
    a844:	3c12b99c 	lui	s2,0xb99c
    a848:	3652b700 	ori	s2,s2,0xb700
    a84c:	00000000 	nop
    a850:	24140000 	li	s4,0
    a854:	16140116 	bne	s0,s4,acb0 <inst_error>
    a858:	00000000 	nop
    a85c:	00000000 	nop
    a860:	24150000 	li	s5,0
    a864:	16550112 	bne	s2,s5,acb0 <inst_error>
    a868:	00000000 	nop
    a86c:	00000000 	nop
    a870:	3c0cc051 	lui	t4,0xc051
    a874:	358cf7c0 	ori	t4,t4,0xf7c0
    a878:	3c0d024c 	lui	t5,0x24c
    a87c:	35adf8d7 	ori	t5,t5,0xf8d7
    a880:	24100000 	li	s0,0
    a884:	10000011 	b	a8cc <n34_bltz_test+0xa8cc>
    a888:	24120000 	li	s2,0
    a88c:	00000000 	nop
    a890:	3c10c051 	lui	s0,0xc051
    a894:	05000021 	bltz	t0,a91c <n34_bltz_test+0xa91c>
    a898:	3610f7c0 	ori	s0,s0,0xf7c0
    a89c:	10000021 	b	a924 <n34_bltz_test+0xa924>
    a8a0:	00000000 	nop
    a8a4:	00000000 	nop
    a8a8:	00000021 	move	zero,zero
    a8ac:	00000021 	move	zero,zero
    a8b0:	00000021 	move	zero,zero
    a8b4:	00000021 	move	zero,zero
    a8b8:	00000021 	move	zero,zero
    a8bc:	00000021 	move	zero,zero
    a8c0:	00000021 	move	zero,zero
    a8c4:	00000021 	move	zero,zero
    a8c8:	00000021 	move	zero,zero
    a8cc:	3c0826cc 	lui	t0,0x26cc
    a8d0:	3508219e 	ori	t0,t0,0x219e
    a8d4:	0500ffee 	bltz	t0,a890 <n34_bltz_test+0xa890>
    a8d8:	00000000 	nop
    a8dc:	10000011 	b	a924 <n34_bltz_test+0xa924>
    a8e0:	00000000 	nop
    a8e4:	00000000 	nop
    a8e8:	00000021 	move	zero,zero
    a8ec:	00000021 	move	zero,zero
    a8f0:	00000021 	move	zero,zero
    a8f4:	00000021 	move	zero,zero
    a8f8:	00000021 	move	zero,zero
    a8fc:	00000021 	move	zero,zero
    a900:	00000021 	move	zero,zero
    a904:	00000021 	move	zero,zero
    a908:	00000021 	move	zero,zero
    a90c:	00000021 	move	zero,zero
    a910:	00000021 	move	zero,zero
    a914:	00000021 	move	zero,zero
    a918:	00000021 	move	zero,zero
    a91c:	3c12024c 	lui	s2,0x24c
    a920:	3652f8d7 	ori	s2,s2,0xf8d7
    a924:	00000000 	nop
    a928:	24140000 	li	s4,0
    a92c:	161400e0 	bne	s0,s4,acb0 <inst_error>
    a930:	00000000 	nop
    a934:	00000000 	nop
    a938:	24150000 	li	s5,0
    a93c:	165500dc 	bne	s2,s5,acb0 <inst_error>
    a940:	00000000 	nop
    a944:	00000000 	nop
    a948:	3c0c07da 	lui	t4,0x7da
    a94c:	358c9480 	ori	t4,t4,0x9480
    a950:	3c0d11a5 	lui	t5,0x11a5
    a954:	35ad9570 	ori	t5,t5,0x9570
    a958:	24100000 	li	s0,0
    a95c:	10000011 	b	a9a4 <n34_bltz_test+0xa9a4>
    a960:	24120000 	li	s2,0
    a964:	00000000 	nop
    a968:	3c1007da 	lui	s0,0x7da
    a96c:	05000021 	bltz	t0,a9f4 <n34_bltz_test+0xa9f4>
    a970:	36109480 	ori	s0,s0,0x9480
    a974:	10000021 	b	a9fc <n34_bltz_test+0xa9fc>
    a978:	00000000 	nop
    a97c:	00000000 	nop
    a980:	00000021 	move	zero,zero
    a984:	00000021 	move	zero,zero
    a988:	00000021 	move	zero,zero
    a98c:	00000021 	move	zero,zero
    a990:	00000021 	move	zero,zero
    a994:	00000021 	move	zero,zero
    a998:	00000021 	move	zero,zero
    a99c:	00000021 	move	zero,zero
    a9a0:	00000021 	move	zero,zero
    a9a4:	3c080970 	lui	t0,0x970
    a9a8:	35086a87 	ori	t0,t0,0x6a87
    a9ac:	0500ffee 	bltz	t0,a968 <n34_bltz_test+0xa968>
    a9b0:	00000000 	nop
    a9b4:	10000011 	b	a9fc <n34_bltz_test+0xa9fc>
    a9b8:	00000000 	nop
    a9bc:	00000000 	nop
    a9c0:	00000021 	move	zero,zero
    a9c4:	00000021 	move	zero,zero
    a9c8:	00000021 	move	zero,zero
    a9cc:	00000021 	move	zero,zero
    a9d0:	00000021 	move	zero,zero
    a9d4:	00000021 	move	zero,zero
    a9d8:	00000021 	move	zero,zero
    a9dc:	00000021 	move	zero,zero
    a9e0:	00000021 	move	zero,zero
    a9e4:	00000021 	move	zero,zero
    a9e8:	00000021 	move	zero,zero
    a9ec:	00000021 	move	zero,zero
    a9f0:	00000021 	move	zero,zero
    a9f4:	3c1211a5 	lui	s2,0x11a5
    a9f8:	36529570 	ori	s2,s2,0x9570
    a9fc:	00000000 	nop
    aa00:	24140000 	li	s4,0
    aa04:	161400aa 	bne	s0,s4,acb0 <inst_error>
    aa08:	00000000 	nop
    aa0c:	00000000 	nop
    aa10:	24150000 	li	s5,0
    aa14:	165500a6 	bne	s2,s5,acb0 <inst_error>
    aa18:	00000000 	nop
    aa1c:	00000000 	nop
    aa20:	3c0cce33 	lui	t4,0xce33
    aa24:	358c2760 	ori	t4,t4,0x2760
    aa28:	3c0dff0b 	lui	t5,0xff0b
    aa2c:	35adc000 	ori	t5,t5,0xc000
    aa30:	24100000 	li	s0,0
    aa34:	10000011 	b	aa7c <n34_bltz_test+0xaa7c>
    aa38:	24120000 	li	s2,0
    aa3c:	00000000 	nop
    aa40:	3c10ce33 	lui	s0,0xce33
    aa44:	05000021 	bltz	t0,aacc <n34_bltz_test+0xaacc>
    aa48:	36102760 	ori	s0,s0,0x2760
    aa4c:	10000021 	b	aad4 <n34_bltz_test+0xaad4>
    aa50:	00000000 	nop
    aa54:	00000000 	nop
    aa58:	00000021 	move	zero,zero
    aa5c:	00000021 	move	zero,zero
    aa60:	00000021 	move	zero,zero
    aa64:	00000021 	move	zero,zero
    aa68:	00000021 	move	zero,zero
    aa6c:	00000021 	move	zero,zero
    aa70:	00000021 	move	zero,zero
    aa74:	00000021 	move	zero,zero
    aa78:	00000021 	move	zero,zero
    aa7c:	3c08036b 	lui	t0,0x36b
    aa80:	3508e370 	ori	t0,t0,0xe370
    aa84:	0500ffee 	bltz	t0,aa40 <n34_bltz_test+0xaa40>
    aa88:	00000000 	nop
    aa8c:	10000011 	b	aad4 <n34_bltz_test+0xaad4>
    aa90:	00000000 	nop
    aa94:	00000000 	nop
    aa98:	00000021 	move	zero,zero
    aa9c:	00000021 	move	zero,zero
    aaa0:	00000021 	move	zero,zero
    aaa4:	00000021 	move	zero,zero
    aaa8:	00000021 	move	zero,zero
    aaac:	00000021 	move	zero,zero
    aab0:	00000021 	move	zero,zero
    aab4:	00000021 	move	zero,zero
    aab8:	00000021 	move	zero,zero
    aabc:	00000021 	move	zero,zero
    aac0:	00000021 	move	zero,zero
    aac4:	00000021 	move	zero,zero
    aac8:	00000021 	move	zero,zero
    aacc:	3c12ff0b 	lui	s2,0xff0b
    aad0:	3652c000 	ori	s2,s2,0xc000
    aad4:	00000000 	nop
    aad8:	24140000 	li	s4,0
    aadc:	16140074 	bne	s0,s4,acb0 <inst_error>
    aae0:	00000000 	nop
    aae4:	00000000 	nop
    aae8:	24150000 	li	s5,0
    aaec:	16550070 	bne	s2,s5,acb0 <inst_error>
    aaf0:	00000000 	nop
    aaf4:	00000000 	nop
    aaf8:	3c0c42f9 	lui	t4,0x42f9
    aafc:	358c8793 	ori	t4,t4,0x8793
    ab00:	3c0ddd56 	lui	t5,0xdd56
    ab04:	35ad5344 	ori	t5,t5,0x5344
    ab08:	24100000 	li	s0,0
    ab0c:	10000011 	b	ab54 <n34_bltz_test+0xab54>
    ab10:	24120000 	li	s2,0
    ab14:	00000000 	nop
    ab18:	3c1042f9 	lui	s0,0x42f9
    ab1c:	05000021 	bltz	t0,aba4 <n34_bltz_test+0xaba4>
    ab20:	36108793 	ori	s0,s0,0x8793
    ab24:	10000021 	b	abac <n34_bltz_test+0xabac>
    ab28:	00000000 	nop
    ab2c:	00000000 	nop
    ab30:	00000021 	move	zero,zero
    ab34:	00000021 	move	zero,zero
    ab38:	00000021 	move	zero,zero
    ab3c:	00000021 	move	zero,zero
    ab40:	00000021 	move	zero,zero
    ab44:	00000021 	move	zero,zero
    ab48:	00000021 	move	zero,zero
    ab4c:	00000021 	move	zero,zero
    ab50:	00000021 	move	zero,zero
    ab54:	3c08278f 	lui	t0,0x278f
    ab58:	350897e0 	ori	t0,t0,0x97e0
    ab5c:	0500ffee 	bltz	t0,ab18 <n34_bltz_test+0xab18>
    ab60:	00000000 	nop
    ab64:	10000011 	b	abac <n34_bltz_test+0xabac>
    ab68:	00000000 	nop
    ab6c:	00000000 	nop
    ab70:	00000021 	move	zero,zero
    ab74:	00000021 	move	zero,zero
    ab78:	00000021 	move	zero,zero
    ab7c:	00000021 	move	zero,zero
    ab80:	00000021 	move	zero,zero
    ab84:	00000021 	move	zero,zero
    ab88:	00000021 	move	zero,zero
    ab8c:	00000021 	move	zero,zero
    ab90:	00000021 	move	zero,zero
    ab94:	00000021 	move	zero,zero
    ab98:	00000021 	move	zero,zero
    ab9c:	00000021 	move	zero,zero
    aba0:	00000021 	move	zero,zero
    aba4:	3c12dd56 	lui	s2,0xdd56
    aba8:	36525344 	ori	s2,s2,0x5344
    abac:	00000000 	nop
    abb0:	24140000 	li	s4,0
    abb4:	1614003e 	bne	s0,s4,acb0 <inst_error>
    abb8:	00000000 	nop
    abbc:	00000000 	nop
    abc0:	24150000 	li	s5,0
    abc4:	1655003a 	bne	s2,s5,acb0 <inst_error>
    abc8:	00000000 	nop
    abcc:	00000000 	nop
    abd0:	3c0c5f7d 	lui	t4,0x5f7d
    abd4:	358c6c5f 	ori	t4,t4,0x6c5f
    abd8:	3c0d632c 	lui	t5,0x632c
    abdc:	35ad31aa 	ori	t5,t5,0x31aa
    abe0:	24100000 	li	s0,0
    abe4:	10000011 	b	ac2c <n34_bltz_test+0xac2c>
    abe8:	24120000 	li	s2,0
    abec:	00000000 	nop
    abf0:	3c105f7d 	lui	s0,0x5f7d
    abf4:	05000020 	bltz	t0,ac78 <n34_bltz_test+0xac78>
    abf8:	36106c5f 	ori	s0,s0,0x6c5f
    abfc:	10000020 	b	ac80 <n34_bltz_test+0xac80>
    ac00:	00000000 	nop
    ac04:	00000000 	nop
    ac08:	00000021 	move	zero,zero
    ac0c:	00000021 	move	zero,zero
    ac10:	00000021 	move	zero,zero
    ac14:	00000021 	move	zero,zero
    ac18:	00000021 	move	zero,zero
    ac1c:	00000021 	move	zero,zero
    ac20:	00000021 	move	zero,zero
    ac24:	00000021 	move	zero,zero
    ac28:	00000021 	move	zero,zero
    ac2c:	24080000 	li	t0,0
    ac30:	0500ffef 	bltz	t0,abf0 <n34_bltz_test+0xabf0>
    ac34:	00000000 	nop
    ac38:	10000011 	b	ac80 <n34_bltz_test+0xac80>
    ac3c:	00000000 	nop
    ac40:	00000000 	nop
    ac44:	00000021 	move	zero,zero
    ac48:	00000021 	move	zero,zero
    ac4c:	00000021 	move	zero,zero
    ac50:	00000021 	move	zero,zero
    ac54:	00000021 	move	zero,zero
    ac58:	00000021 	move	zero,zero
    ac5c:	00000021 	move	zero,zero
    ac60:	00000021 	move	zero,zero
    ac64:	00000021 	move	zero,zero
    ac68:	00000021 	move	zero,zero
    ac6c:	00000021 	move	zero,zero
    ac70:	00000021 	move	zero,zero
    ac74:	00000021 	move	zero,zero
    ac78:	3c12632c 	lui	s2,0x632c
    ac7c:	365231aa 	ori	s2,s2,0x31aa
    ac80:	00000000 	nop
    ac84:	24140000 	li	s4,0
    ac88:	16140009 	bne	s0,s4,acb0 <inst_error>
    ac8c:	00000000 	nop
    ac90:	00000000 	nop
    ac94:	24150000 	li	s5,0
    ac98:	16550005 	bne	s2,s5,acb0 <inst_error>
    ac9c:	00000000 	nop
    aca0:	14400003 	bnez	v0,acb0 <inst_error>
    aca4:	00000000 	nop
    aca8:	00000000 	nop
    acac:	26730001 	addiu	s3,s3,1

0000acb0 <inst_error>:
    acb0:	00934025 	or	t0,a0,s3
    acb4:	03e00008 	jr	ra
    acb8:	ae280000 	sw	t0,0(s1)
    acbc:	00000000 	nop
