00000000 <n35_bltzal_test>:
       0:	3c042300 	lui	a0,0x2300
       4:	24020000 	li	v0,0
       8:	001fa821 	addu	s5,zero,ra
       c:	3c0cf102 	lui	t4,0xf102
      10:	358c6890 	ori	t4,t4,0x6890
      14:	3c0d39dd 	lui	t5,0x39dd
      18:	35ad5800 	ori	t5,t5,0x5800
      1c:	24100000 	li	s0,0
      20:	10000014 	b	74 <n35_bltzal_test+0x74>
      24:	24120000 	li	s2,0
      28:	00000000 	nop
      2c:	3c10f102 	lui	s0,0xf102
      30:	36106890 	ori	s0,s0,0x6890
      34:	05100025 	bltzal	t0,cc <n35_bltzal_test+0xcc>
      38:	00000000 	nop
      3c:	10000025 	b	d4 <n35_bltzal_test+0xd4>
      40:	00000000 	nop
      44:	00000000 	nop
      48:	00000021 	move	zero,zero
      4c:	00000021 	move	zero,zero
      50:	00000021 	move	zero,zero
      54:	00000021 	move	zero,zero
      58:	00000021 	move	zero,zero
      5c:	00000021 	move	zero,zero
      60:	00000021 	move	zero,zero
      64:	00000021 	move	zero,zero
      68:	00000021 	move	zero,zero
      6c:	00000021 	move	zero,zero
      70:	00000021 	move	zero,zero
      74:	3c08c564 	lui	t0,0xc564
      78:	3508aaee 	ori	t0,t0,0xaaee
      7c:	0510ffeb 	bltzal	t0,2c <n35_bltzal_test+0x2c>
      80:	00000000 	nop
      84:	10000013 	b	d4 <n35_bltzal_test+0xd4>
      88:	00000000 	nop
      8c:	00000000 	nop
      90:	00000021 	move	zero,zero
      94:	00000021 	move	zero,zero
      98:	00000021 	move	zero,zero
      9c:	00000021 	move	zero,zero
      a0:	00000021 	move	zero,zero
      a4:	00000021 	move	zero,zero
      a8:	00000021 	move	zero,zero
      ac:	00000021 	move	zero,zero
      b0:	00000021 	move	zero,zero
      b4:	00000021 	move	zero,zero
      b8:	00000021 	move	zero,zero
      bc:	00000021 	move	zero,zero
      c0:	00000021 	move	zero,zero
      c4:	00000021 	move	zero,zero
      c8:	00000021 	move	zero,zero
      cc:	3c1239dd 	lui	s2,0x39dd
      d0:	36525800 	ori	s2,s2,0x5800
      d4:	001fa021 	addu	s4,zero,ra
      d8:	0015f821 	addu	ra,zero,s5
      dc:	3c150000 	lui	s5,0x0
      e0:	26b50034 	addiu	s5,s5,52
      e4:	3c160000 	lui	s6,0x0
      e8:	26d6007c 	addiu	s6,s6,124
      ec:	3c18f102 	lui	t8,0xf102
      f0:	37186890 	ori	t8,t8,0x6890
      f4:	161848c0 	bne	s0,t8,123f8 <inst_error>
      f8:	00000000 	nop
      fc:	00000000 	nop
     100:	3c1839dd 	lui	t8,0x39dd
     104:	37185800 	ori	t8,t8,0x5800
     108:	165848bb 	bne	s2,t8,123f8 <inst_error>
     10c:	00000000 	nop
     110:	00000000 	nop
     114:	3c19bfc0 	lui	t9,0xbfc0
     118:	373903e4 	ori	t9,t9,0x3e4
     11c:	3c18bfc0 	lui	t8,0xbfc0
     120:	371803dc 	ori	t8,t8,0x3dc
     124:	27180008 	addiu	t8,t8,8
     128:	1319000a 	beq	t8,t9,154 <n35_bltzal_test+0x154>
     12c:	00000000 	nop
     130:	00000000 	nop
     134:	3c18bfc0 	lui	t8,0xbfc0
     138:	3718040c 	ori	t8,t8,0x40c
     13c:	27180008 	addiu	t8,t8,8
     140:	1319000a 	beq	t8,t9,16c <n35_bltzal_test+0x16c>
     144:	00000000 	nop
     148:	100048ab 	b	123f8 <inst_error>
     14c:	00000000 	nop
     150:	00000000 	nop
     154:	26b50008 	addiu	s5,s5,8
     158:	169548a7 	bne	s4,s5,123f8 <inst_error>
     15c:	00000000 	nop
     160:	10000006 	b	17c <n35_bltzal_test+0x17c>
     164:	00000000 	nop
     168:	00000000 	nop
     16c:	26d60008 	addiu	s6,s6,8
     170:	169648a1 	bne	s4,s6,123f8 <inst_error>
     174:	00000000 	nop
	...
     180:	001fa821 	addu	s5,zero,ra
     184:	3c0c6c41 	lui	t4,0x6c41
     188:	358c162c 	ori	t4,t4,0x162c
     18c:	3c0d8d5c 	lui	t5,0x8d5c
     190:	35add86f 	ori	t5,t5,0xd86f
     194:	24100000 	li	s0,0
     198:	10000014 	b	1ec <n35_bltzal_test+0x1ec>
     19c:	24120000 	li	s2,0
     1a0:	00000000 	nop
     1a4:	3c106c41 	lui	s0,0x6c41
     1a8:	3610162c 	ori	s0,s0,0x162c
     1ac:	05100025 	bltzal	t0,244 <n35_bltzal_test+0x244>
     1b0:	00000000 	nop
     1b4:	10000025 	b	24c <n35_bltzal_test+0x24c>
     1b8:	00000000 	nop
     1bc:	00000000 	nop
     1c0:	00000021 	move	zero,zero
     1c4:	00000021 	move	zero,zero
     1c8:	00000021 	move	zero,zero
     1cc:	00000021 	move	zero,zero
     1d0:	00000021 	move	zero,zero
     1d4:	00000021 	move	zero,zero
     1d8:	00000021 	move	zero,zero
     1dc:	00000021 	move	zero,zero
     1e0:	00000021 	move	zero,zero
     1e4:	00000021 	move	zero,zero
     1e8:	00000021 	move	zero,zero
     1ec:	3c08655e 	lui	t0,0x655e
     1f0:	3508408b 	ori	t0,t0,0x408b
     1f4:	0510ffeb 	bltzal	t0,1a4 <n35_bltzal_test+0x1a4>
     1f8:	00000000 	nop
     1fc:	10000013 	b	24c <n35_bltzal_test+0x24c>
     200:	00000000 	nop
     204:	00000000 	nop
     208:	00000021 	move	zero,zero
     20c:	00000021 	move	zero,zero
     210:	00000021 	move	zero,zero
     214:	00000021 	move	zero,zero
     218:	00000021 	move	zero,zero
     21c:	00000021 	move	zero,zero
     220:	00000021 	move	zero,zero
     224:	00000021 	move	zero,zero
     228:	00000021 	move	zero,zero
     22c:	00000021 	move	zero,zero
     230:	00000021 	move	zero,zero
     234:	00000021 	move	zero,zero
     238:	00000021 	move	zero,zero
     23c:	00000021 	move	zero,zero
     240:	00000021 	move	zero,zero
     244:	3c128d5c 	lui	s2,0x8d5c
     248:	3652d86f 	ori	s2,s2,0xd86f
     24c:	001fa021 	addu	s4,zero,ra
     250:	0015f821 	addu	ra,zero,s5
     254:	3c150000 	lui	s5,0x0
     258:	26b501ac 	addiu	s5,s5,428
     25c:	3c160000 	lui	s6,0x0
     260:	26d601f4 	addiu	s6,s6,500
     264:	24180000 	li	t8,0
     268:	16184863 	bne	s0,t8,123f8 <inst_error>
     26c:	00000000 	nop
     270:	00000000 	nop
     274:	24180000 	li	t8,0
     278:	1658485f 	bne	s2,t8,123f8 <inst_error>
     27c:	00000000 	nop
     280:	00000000 	nop
     284:	3c19bfc0 	lui	t9,0xbfc0
     288:	373904ec 	ori	t9,t9,0x4ec
     28c:	3c18bfc0 	lui	t8,0xbfc0
     290:	371804b4 	ori	t8,t8,0x4b4
     294:	27180008 	addiu	t8,t8,8
     298:	1319000a 	beq	t8,t9,2c4 <n35_bltzal_test+0x2c4>
     29c:	00000000 	nop
     2a0:	00000000 	nop
     2a4:	3c18bfc0 	lui	t8,0xbfc0
     2a8:	371804e4 	ori	t8,t8,0x4e4
     2ac:	27180008 	addiu	t8,t8,8
     2b0:	1319000a 	beq	t8,t9,2dc <n35_bltzal_test+0x2dc>
     2b4:	00000000 	nop
     2b8:	1000484f 	b	123f8 <inst_error>
     2bc:	00000000 	nop
     2c0:	00000000 	nop
     2c4:	26b50008 	addiu	s5,s5,8
     2c8:	1695484b 	bne	s4,s5,123f8 <inst_error>
     2cc:	00000000 	nop
     2d0:	10000006 	b	2ec <n35_bltzal_test+0x2ec>
     2d4:	00000000 	nop
     2d8:	00000000 	nop
     2dc:	26d60008 	addiu	s6,s6,8
     2e0:	16964845 	bne	s4,s6,123f8 <inst_error>
     2e4:	00000000 	nop
	...
     2f0:	001fa821 	addu	s5,zero,ra
     2f4:	3c0ce6b2 	lui	t4,0xe6b2
     2f8:	358caf00 	ori	t4,t4,0xaf00
     2fc:	3c0d4c80 	lui	t5,0x4c80
     300:	35adb4b6 	ori	t5,t5,0xb4b6
     304:	24100000 	li	s0,0
     308:	10000014 	b	35c <n35_bltzal_test+0x35c>
     30c:	24120000 	li	s2,0
     310:	00000000 	nop
     314:	3c10e6b2 	lui	s0,0xe6b2
     318:	3610af00 	ori	s0,s0,0xaf00
     31c:	05100025 	bltzal	t0,3b4 <n35_bltzal_test+0x3b4>
     320:	00000000 	nop
     324:	10000025 	b	3bc <n35_bltzal_test+0x3bc>
     328:	00000000 	nop
     32c:	00000000 	nop
     330:	00000021 	move	zero,zero
     334:	00000021 	move	zero,zero
     338:	00000021 	move	zero,zero
     33c:	00000021 	move	zero,zero
     340:	00000021 	move	zero,zero
     344:	00000021 	move	zero,zero
     348:	00000021 	move	zero,zero
     34c:	00000021 	move	zero,zero
     350:	00000021 	move	zero,zero
     354:	00000021 	move	zero,zero
     358:	00000021 	move	zero,zero
     35c:	3c08d941 	lui	t0,0xd941
     360:	3508dbc8 	ori	t0,t0,0xdbc8
     364:	0510ffeb 	bltzal	t0,314 <n35_bltzal_test+0x314>
     368:	00000000 	nop
     36c:	10000013 	b	3bc <n35_bltzal_test+0x3bc>
     370:	00000000 	nop
     374:	00000000 	nop
     378:	00000021 	move	zero,zero
     37c:	00000021 	move	zero,zero
     380:	00000021 	move	zero,zero
     384:	00000021 	move	zero,zero
     388:	00000021 	move	zero,zero
     38c:	00000021 	move	zero,zero
     390:	00000021 	move	zero,zero
     394:	00000021 	move	zero,zero
     398:	00000021 	move	zero,zero
     39c:	00000021 	move	zero,zero
     3a0:	00000021 	move	zero,zero
     3a4:	00000021 	move	zero,zero
     3a8:	00000021 	move	zero,zero
     3ac:	00000021 	move	zero,zero
     3b0:	00000021 	move	zero,zero
     3b4:	3c124c80 	lui	s2,0x4c80
     3b8:	3652b4b6 	ori	s2,s2,0xb4b6
     3bc:	001fa021 	addu	s4,zero,ra
     3c0:	0015f821 	addu	ra,zero,s5
     3c4:	3c150000 	lui	s5,0x0
     3c8:	26b5031c 	addiu	s5,s5,796
     3cc:	3c160000 	lui	s6,0x0
     3d0:	26d60364 	addiu	s6,s6,868
     3d4:	3c18e6b2 	lui	t8,0xe6b2
     3d8:	3718af00 	ori	t8,t8,0xaf00
     3dc:	16184806 	bne	s0,t8,123f8 <inst_error>
     3e0:	00000000 	nop
     3e4:	00000000 	nop
     3e8:	3c184c80 	lui	t8,0x4c80
     3ec:	3718b4b6 	ori	t8,t8,0xb4b6
     3f0:	16584801 	bne	s2,t8,123f8 <inst_error>
     3f4:	00000000 	nop
     3f8:	00000000 	nop
     3fc:	3c19bfc0 	lui	t9,0xbfc0
     400:	37390594 	ori	t9,t9,0x594
     404:	3c18bfc0 	lui	t8,0xbfc0
     408:	3718058c 	ori	t8,t8,0x58c
     40c:	27180008 	addiu	t8,t8,8
     410:	1319000a 	beq	t8,t9,43c <n35_bltzal_test+0x43c>
     414:	00000000 	nop
     418:	00000000 	nop
     41c:	3c18bfc0 	lui	t8,0xbfc0
     420:	371805bc 	ori	t8,t8,0x5bc
     424:	27180008 	addiu	t8,t8,8
     428:	1319000a 	beq	t8,t9,454 <n35_bltzal_test+0x454>
     42c:	00000000 	nop
     430:	100047f1 	b	123f8 <inst_error>
     434:	00000000 	nop
     438:	00000000 	nop
     43c:	26b50008 	addiu	s5,s5,8
     440:	169547ed 	bne	s4,s5,123f8 <inst_error>
     444:	00000000 	nop
     448:	10000006 	b	464 <n35_bltzal_test+0x464>
     44c:	00000000 	nop
     450:	00000000 	nop
     454:	26d60008 	addiu	s6,s6,8
     458:	169647e7 	bne	s4,s6,123f8 <inst_error>
     45c:	00000000 	nop
	...
     468:	001fa821 	addu	s5,zero,ra
     46c:	3c0c4c97 	lui	t4,0x4c97
     470:	358c65c4 	ori	t4,t4,0x65c4
     474:	3c0de2f2 	lui	t5,0xe2f2
     478:	35adebac 	ori	t5,t5,0xebac
     47c:	24100000 	li	s0,0
     480:	10000014 	b	4d4 <n35_bltzal_test+0x4d4>
     484:	24120000 	li	s2,0
     488:	00000000 	nop
     48c:	3c104c97 	lui	s0,0x4c97
     490:	361065c4 	ori	s0,s0,0x65c4
     494:	05100025 	bltzal	t0,52c <n35_bltzal_test+0x52c>
     498:	00000000 	nop
     49c:	10000025 	b	534 <n35_bltzal_test+0x534>
     4a0:	00000000 	nop
     4a4:	00000000 	nop
     4a8:	00000021 	move	zero,zero
     4ac:	00000021 	move	zero,zero
     4b0:	00000021 	move	zero,zero
     4b4:	00000021 	move	zero,zero
     4b8:	00000021 	move	zero,zero
     4bc:	00000021 	move	zero,zero
     4c0:	00000021 	move	zero,zero
     4c4:	00000021 	move	zero,zero
     4c8:	00000021 	move	zero,zero
     4cc:	00000021 	move	zero,zero
     4d0:	00000021 	move	zero,zero
     4d4:	3c08935c 	lui	t0,0x935c
     4d8:	3508f5a0 	ori	t0,t0,0xf5a0
     4dc:	0510ffeb 	bltzal	t0,48c <n35_bltzal_test+0x48c>
     4e0:	00000000 	nop
     4e4:	10000013 	b	534 <n35_bltzal_test+0x534>
     4e8:	00000000 	nop
     4ec:	00000000 	nop
     4f0:	00000021 	move	zero,zero
     4f4:	00000021 	move	zero,zero
     4f8:	00000021 	move	zero,zero
     4fc:	00000021 	move	zero,zero
     500:	00000021 	move	zero,zero
     504:	00000021 	move	zero,zero
     508:	00000021 	move	zero,zero
     50c:	00000021 	move	zero,zero
     510:	00000021 	move	zero,zero
     514:	00000021 	move	zero,zero
     518:	00000021 	move	zero,zero
     51c:	00000021 	move	zero,zero
     520:	00000021 	move	zero,zero
     524:	00000021 	move	zero,zero
     528:	00000021 	move	zero,zero
     52c:	3c12e2f2 	lui	s2,0xe2f2
     530:	3652ebac 	ori	s2,s2,0xebac
     534:	001fa021 	addu	s4,zero,ra
     538:	0015f821 	addu	ra,zero,s5
     53c:	3c150000 	lui	s5,0x0
     540:	26b50494 	addiu	s5,s5,1172
     544:	3c160000 	lui	s6,0x0
     548:	26d604dc 	addiu	s6,s6,1244
     54c:	3c184c97 	lui	t8,0x4c97
     550:	371865c4 	ori	t8,t8,0x65c4
     554:	161847a8 	bne	s0,t8,123f8 <inst_error>
     558:	00000000 	nop
     55c:	00000000 	nop
     560:	3c18e2f2 	lui	t8,0xe2f2
     564:	3718ebac 	ori	t8,t8,0xebac
     568:	165847a3 	bne	s2,t8,123f8 <inst_error>
     56c:	00000000 	nop
     570:	00000000 	nop
     574:	3c19bfc0 	lui	t9,0xbfc0
     578:	3739066c 	ori	t9,t9,0x66c
     57c:	3c18bfc0 	lui	t8,0xbfc0
     580:	37180664 	ori	t8,t8,0x664
     584:	27180008 	addiu	t8,t8,8
     588:	1319000a 	beq	t8,t9,5b4 <n35_bltzal_test+0x5b4>
     58c:	00000000 	nop
     590:	00000000 	nop
     594:	3c18bfc0 	lui	t8,0xbfc0
     598:	37180694 	ori	t8,t8,0x694
     59c:	27180008 	addiu	t8,t8,8
     5a0:	1319000a 	beq	t8,t9,5cc <n35_bltzal_test+0x5cc>
     5a4:	00000000 	nop
     5a8:	10004793 	b	123f8 <inst_error>
     5ac:	00000000 	nop
     5b0:	00000000 	nop
     5b4:	26b50008 	addiu	s5,s5,8
     5b8:	1695478f 	bne	s4,s5,123f8 <inst_error>
     5bc:	00000000 	nop
     5c0:	10000006 	b	5dc <n35_bltzal_test+0x5dc>
     5c4:	00000000 	nop
     5c8:	00000000 	nop
     5cc:	26d60008 	addiu	s6,s6,8
     5d0:	16964789 	bne	s4,s6,123f8 <inst_error>
     5d4:	00000000 	nop
	...
     5e0:	001fa821 	addu	s5,zero,ra
     5e4:	3c0c3516 	lui	t4,0x3516
     5e8:	358c3822 	ori	t4,t4,0x3822
     5ec:	3c0d34ff 	lui	t5,0x34ff
     5f0:	35adade0 	ori	t5,t5,0xade0
     5f4:	24100000 	li	s0,0
     5f8:	10000014 	b	64c <n35_bltzal_test+0x64c>
     5fc:	24120000 	li	s2,0
     600:	00000000 	nop
     604:	3c103516 	lui	s0,0x3516
     608:	36103822 	ori	s0,s0,0x3822
     60c:	05100025 	bltzal	t0,6a4 <n35_bltzal_test+0x6a4>
     610:	00000000 	nop
     614:	10000025 	b	6ac <n35_bltzal_test+0x6ac>
     618:	00000000 	nop
     61c:	00000000 	nop
     620:	00000021 	move	zero,zero
     624:	00000021 	move	zero,zero
     628:	00000021 	move	zero,zero
     62c:	00000021 	move	zero,zero
     630:	00000021 	move	zero,zero
     634:	00000021 	move	zero,zero
     638:	00000021 	move	zero,zero
     63c:	00000021 	move	zero,zero
     640:	00000021 	move	zero,zero
     644:	00000021 	move	zero,zero
     648:	00000021 	move	zero,zero
     64c:	3c0818c1 	lui	t0,0x18c1
     650:	3508552a 	ori	t0,t0,0x552a
     654:	0510ffeb 	bltzal	t0,604 <n35_bltzal_test+0x604>
     658:	00000000 	nop
     65c:	10000013 	b	6ac <n35_bltzal_test+0x6ac>
     660:	00000000 	nop
     664:	00000000 	nop
     668:	00000021 	move	zero,zero
     66c:	00000021 	move	zero,zero
     670:	00000021 	move	zero,zero
     674:	00000021 	move	zero,zero
     678:	00000021 	move	zero,zero
     67c:	00000021 	move	zero,zero
     680:	00000021 	move	zero,zero
     684:	00000021 	move	zero,zero
     688:	00000021 	move	zero,zero
     68c:	00000021 	move	zero,zero
     690:	00000021 	move	zero,zero
     694:	00000021 	move	zero,zero
     698:	00000021 	move	zero,zero
     69c:	00000021 	move	zero,zero
     6a0:	00000021 	move	zero,zero
     6a4:	3c1234ff 	lui	s2,0x34ff
     6a8:	3652ade0 	ori	s2,s2,0xade0
     6ac:	001fa021 	addu	s4,zero,ra
     6b0:	0015f821 	addu	ra,zero,s5
     6b4:	3c150000 	lui	s5,0x0
     6b8:	26b5060c 	addiu	s5,s5,1548
     6bc:	3c160000 	lui	s6,0x0
     6c0:	26d60654 	addiu	s6,s6,1620
     6c4:	24180000 	li	t8,0
     6c8:	1618474b 	bne	s0,t8,123f8 <inst_error>
     6cc:	00000000 	nop
     6d0:	00000000 	nop
     6d4:	24180000 	li	t8,0
     6d8:	16584747 	bne	s2,t8,123f8 <inst_error>
     6dc:	00000000 	nop
     6e0:	00000000 	nop
     6e4:	3c19bfc0 	lui	t9,0xbfc0
     6e8:	37390774 	ori	t9,t9,0x774
     6ec:	3c18bfc0 	lui	t8,0xbfc0
     6f0:	3718073c 	ori	t8,t8,0x73c
     6f4:	27180008 	addiu	t8,t8,8
     6f8:	1319000a 	beq	t8,t9,724 <n35_bltzal_test+0x724>
     6fc:	00000000 	nop
     700:	00000000 	nop
     704:	3c18bfc0 	lui	t8,0xbfc0
     708:	3718076c 	ori	t8,t8,0x76c
     70c:	27180008 	addiu	t8,t8,8
     710:	1319000a 	beq	t8,t9,73c <n35_bltzal_test+0x73c>
     714:	00000000 	nop
     718:	10004737 	b	123f8 <inst_error>
     71c:	00000000 	nop
     720:	00000000 	nop
     724:	26b50008 	addiu	s5,s5,8
     728:	16954733 	bne	s4,s5,123f8 <inst_error>
     72c:	00000000 	nop
     730:	10000006 	b	74c <n35_bltzal_test+0x74c>
     734:	00000000 	nop
     738:	00000000 	nop
     73c:	26d60008 	addiu	s6,s6,8
     740:	1696472d 	bne	s4,s6,123f8 <inst_error>
     744:	00000000 	nop
	...
     750:	001fa821 	addu	s5,zero,ra
     754:	3c0ce079 	lui	t4,0xe079
     758:	358cdeb3 	ori	t4,t4,0xdeb3
     75c:	3c0d774b 	lui	t5,0x774b
     760:	35adba9e 	ori	t5,t5,0xba9e
     764:	24100000 	li	s0,0
     768:	10000014 	b	7bc <n35_bltzal_test+0x7bc>
     76c:	24120000 	li	s2,0
     770:	00000000 	nop
     774:	3c10e079 	lui	s0,0xe079
     778:	3610deb3 	ori	s0,s0,0xdeb3
     77c:	05100025 	bltzal	t0,814 <n35_bltzal_test+0x814>
     780:	00000000 	nop
     784:	10000025 	b	81c <n35_bltzal_test+0x81c>
     788:	00000000 	nop
     78c:	00000000 	nop
     790:	00000021 	move	zero,zero
     794:	00000021 	move	zero,zero
     798:	00000021 	move	zero,zero
     79c:	00000021 	move	zero,zero
     7a0:	00000021 	move	zero,zero
     7a4:	00000021 	move	zero,zero
     7a8:	00000021 	move	zero,zero
     7ac:	00000021 	move	zero,zero
     7b0:	00000021 	move	zero,zero
     7b4:	00000021 	move	zero,zero
     7b8:	00000021 	move	zero,zero
     7bc:	3c08a800 	lui	t0,0xa800
     7c0:	350825a1 	ori	t0,t0,0x25a1
     7c4:	0510ffeb 	bltzal	t0,774 <n35_bltzal_test+0x774>
     7c8:	00000000 	nop
     7cc:	10000013 	b	81c <n35_bltzal_test+0x81c>
     7d0:	00000000 	nop
     7d4:	00000000 	nop
     7d8:	00000021 	move	zero,zero
     7dc:	00000021 	move	zero,zero
     7e0:	00000021 	move	zero,zero
     7e4:	00000021 	move	zero,zero
     7e8:	00000021 	move	zero,zero
     7ec:	00000021 	move	zero,zero
     7f0:	00000021 	move	zero,zero
     7f4:	00000021 	move	zero,zero
     7f8:	00000021 	move	zero,zero
     7fc:	00000021 	move	zero,zero
     800:	00000021 	move	zero,zero
     804:	00000021 	move	zero,zero
     808:	00000021 	move	zero,zero
     80c:	00000021 	move	zero,zero
     810:	00000021 	move	zero,zero
     814:	3c12774b 	lui	s2,0x774b
     818:	3652ba9e 	ori	s2,s2,0xba9e
     81c:	001fa021 	addu	s4,zero,ra
     820:	0015f821 	addu	ra,zero,s5
     824:	3c150000 	lui	s5,0x0
     828:	26b5077c 	addiu	s5,s5,1916
     82c:	3c160000 	lui	s6,0x0
     830:	26d607c4 	addiu	s6,s6,1988
     834:	3c18e079 	lui	t8,0xe079
     838:	3718deb3 	ori	t8,t8,0xdeb3
     83c:	161846ee 	bne	s0,t8,123f8 <inst_error>
     840:	00000000 	nop
     844:	00000000 	nop
     848:	3c18774b 	lui	t8,0x774b
     84c:	3718ba9e 	ori	t8,t8,0xba9e
     850:	165846e9 	bne	s2,t8,123f8 <inst_error>
     854:	00000000 	nop
     858:	00000000 	nop
     85c:	3c19bfc0 	lui	t9,0xbfc0
     860:	3739081c 	ori	t9,t9,0x81c
     864:	3c18bfc0 	lui	t8,0xbfc0
     868:	37180814 	ori	t8,t8,0x814
     86c:	27180008 	addiu	t8,t8,8
     870:	1319000a 	beq	t8,t9,89c <n35_bltzal_test+0x89c>
     874:	00000000 	nop
     878:	00000000 	nop
     87c:	3c18bfc0 	lui	t8,0xbfc0
     880:	37180844 	ori	t8,t8,0x844
     884:	27180008 	addiu	t8,t8,8
     888:	1319000a 	beq	t8,t9,8b4 <n35_bltzal_test+0x8b4>
     88c:	00000000 	nop
     890:	100046d9 	b	123f8 <inst_error>
     894:	00000000 	nop
     898:	00000000 	nop
     89c:	26b50008 	addiu	s5,s5,8
     8a0:	169546d5 	bne	s4,s5,123f8 <inst_error>
     8a4:	00000000 	nop
     8a8:	10000006 	b	8c4 <n35_bltzal_test+0x8c4>
     8ac:	00000000 	nop
     8b0:	00000000 	nop
     8b4:	26d60008 	addiu	s6,s6,8
     8b8:	169646cf 	bne	s4,s6,123f8 <inst_error>
     8bc:	00000000 	nop
	...
     8c8:	001fa821 	addu	s5,zero,ra
     8cc:	3c0c50bc 	lui	t4,0x50bc
     8d0:	358c904c 	ori	t4,t4,0x904c
     8d4:	3c0d4291 	lui	t5,0x4291
     8d8:	35ad4b48 	ori	t5,t5,0x4b48
     8dc:	24100000 	li	s0,0
     8e0:	10000014 	b	934 <n35_bltzal_test+0x934>
     8e4:	24120000 	li	s2,0
     8e8:	00000000 	nop
     8ec:	3c1050bc 	lui	s0,0x50bc
     8f0:	3610904c 	ori	s0,s0,0x904c
     8f4:	05100025 	bltzal	t0,98c <n35_bltzal_test+0x98c>
     8f8:	00000000 	nop
     8fc:	10000025 	b	994 <n35_bltzal_test+0x994>
     900:	00000000 	nop
     904:	00000000 	nop
     908:	00000021 	move	zero,zero
     90c:	00000021 	move	zero,zero
     910:	00000021 	move	zero,zero
     914:	00000021 	move	zero,zero
     918:	00000021 	move	zero,zero
     91c:	00000021 	move	zero,zero
     920:	00000021 	move	zero,zero
     924:	00000021 	move	zero,zero
     928:	00000021 	move	zero,zero
     92c:	00000021 	move	zero,zero
     930:	00000021 	move	zero,zero
     934:	3c08c58a 	lui	t0,0xc58a
     938:	35086f20 	ori	t0,t0,0x6f20
     93c:	0510ffeb 	bltzal	t0,8ec <n35_bltzal_test+0x8ec>
     940:	00000000 	nop
     944:	10000013 	b	994 <n35_bltzal_test+0x994>
     948:	00000000 	nop
     94c:	00000000 	nop
     950:	00000021 	move	zero,zero
     954:	00000021 	move	zero,zero
     958:	00000021 	move	zero,zero
     95c:	00000021 	move	zero,zero
     960:	00000021 	move	zero,zero
     964:	00000021 	move	zero,zero
     968:	00000021 	move	zero,zero
     96c:	00000021 	move	zero,zero
     970:	00000021 	move	zero,zero
     974:	00000021 	move	zero,zero
     978:	00000021 	move	zero,zero
     97c:	00000021 	move	zero,zero
     980:	00000021 	move	zero,zero
     984:	00000021 	move	zero,zero
     988:	00000021 	move	zero,zero
     98c:	3c124291 	lui	s2,0x4291
     990:	36524b48 	ori	s2,s2,0x4b48
     994:	001fa021 	addu	s4,zero,ra
     998:	0015f821 	addu	ra,zero,s5
     99c:	3c150000 	lui	s5,0x0
     9a0:	26b508f4 	addiu	s5,s5,2292
     9a4:	3c160000 	lui	s6,0x0
     9a8:	26d6093c 	addiu	s6,s6,2364
     9ac:	3c1850bc 	lui	t8,0x50bc
     9b0:	3718904c 	ori	t8,t8,0x904c
     9b4:	16184690 	bne	s0,t8,123f8 <inst_error>
     9b8:	00000000 	nop
     9bc:	00000000 	nop
     9c0:	3c184291 	lui	t8,0x4291
     9c4:	37184b48 	ori	t8,t8,0x4b48
     9c8:	1658468b 	bne	s2,t8,123f8 <inst_error>
     9cc:	00000000 	nop
     9d0:	00000000 	nop
     9d4:	3c19bfc0 	lui	t9,0xbfc0
     9d8:	373908f4 	ori	t9,t9,0x8f4
     9dc:	3c18bfc0 	lui	t8,0xbfc0
     9e0:	371808ec 	ori	t8,t8,0x8ec
     9e4:	27180008 	addiu	t8,t8,8
     9e8:	1319000a 	beq	t8,t9,a14 <n35_bltzal_test+0xa14>
     9ec:	00000000 	nop
     9f0:	00000000 	nop
     9f4:	3c18bfc0 	lui	t8,0xbfc0
     9f8:	3718091c 	ori	t8,t8,0x91c
     9fc:	27180008 	addiu	t8,t8,8
     a00:	1319000a 	beq	t8,t9,a2c <n35_bltzal_test+0xa2c>
     a04:	00000000 	nop
     a08:	1000467b 	b	123f8 <inst_error>
     a0c:	00000000 	nop
     a10:	00000000 	nop
     a14:	26b50008 	addiu	s5,s5,8
     a18:	16954677 	bne	s4,s5,123f8 <inst_error>
     a1c:	00000000 	nop
     a20:	10000006 	b	a3c <n35_bltzal_test+0xa3c>
     a24:	00000000 	nop
     a28:	00000000 	nop
     a2c:	26d60008 	addiu	s6,s6,8
     a30:	16964671 	bne	s4,s6,123f8 <inst_error>
     a34:	00000000 	nop
	...
     a40:	001fa821 	addu	s5,zero,ra
     a44:	3c0c98ba 	lui	t4,0x98ba
     a48:	358c8940 	ori	t4,t4,0x8940
     a4c:	3c0d7276 	lui	t5,0x7276
     a50:	35adc784 	ori	t5,t5,0xc784
     a54:	24100000 	li	s0,0
     a58:	10000014 	b	aac <n35_bltzal_test+0xaac>
     a5c:	24120000 	li	s2,0
     a60:	00000000 	nop
     a64:	3c1098ba 	lui	s0,0x98ba
     a68:	36108940 	ori	s0,s0,0x8940
     a6c:	05100025 	bltzal	t0,b04 <n35_bltzal_test+0xb04>
     a70:	00000000 	nop
     a74:	10000025 	b	b0c <n35_bltzal_test+0xb0c>
     a78:	00000000 	nop
     a7c:	00000000 	nop
     a80:	00000021 	move	zero,zero
     a84:	00000021 	move	zero,zero
     a88:	00000021 	move	zero,zero
     a8c:	00000021 	move	zero,zero
     a90:	00000021 	move	zero,zero
     a94:	00000021 	move	zero,zero
     a98:	00000021 	move	zero,zero
     a9c:	00000021 	move	zero,zero
     aa0:	00000021 	move	zero,zero
     aa4:	00000021 	move	zero,zero
     aa8:	00000021 	move	zero,zero
     aac:	3c08c3ed 	lui	t0,0xc3ed
     ab0:	35089400 	ori	t0,t0,0x9400
     ab4:	0510ffeb 	bltzal	t0,a64 <n35_bltzal_test+0xa64>
     ab8:	00000000 	nop
     abc:	10000013 	b	b0c <n35_bltzal_test+0xb0c>
     ac0:	00000000 	nop
     ac4:	00000000 	nop
     ac8:	00000021 	move	zero,zero
     acc:	00000021 	move	zero,zero
     ad0:	00000021 	move	zero,zero
     ad4:	00000021 	move	zero,zero
     ad8:	00000021 	move	zero,zero
     adc:	00000021 	move	zero,zero
     ae0:	00000021 	move	zero,zero
     ae4:	00000021 	move	zero,zero
     ae8:	00000021 	move	zero,zero
     aec:	00000021 	move	zero,zero
     af0:	00000021 	move	zero,zero
     af4:	00000021 	move	zero,zero
     af8:	00000021 	move	zero,zero
     afc:	00000021 	move	zero,zero
     b00:	00000021 	move	zero,zero
     b04:	3c127276 	lui	s2,0x7276
     b08:	3652c784 	ori	s2,s2,0xc784
     b0c:	001fa021 	addu	s4,zero,ra
     b10:	0015f821 	addu	ra,zero,s5
     b14:	3c150000 	lui	s5,0x0
     b18:	26b50a6c 	addiu	s5,s5,2668
     b1c:	3c160000 	lui	s6,0x0
     b20:	26d60ab4 	addiu	s6,s6,2740
     b24:	3c1898ba 	lui	t8,0x98ba
     b28:	37188940 	ori	t8,t8,0x8940
     b2c:	16184632 	bne	s0,t8,123f8 <inst_error>
     b30:	00000000 	nop
     b34:	00000000 	nop
     b38:	3c187276 	lui	t8,0x7276
     b3c:	3718c784 	ori	t8,t8,0xc784
     b40:	1658462d 	bne	s2,t8,123f8 <inst_error>
     b44:	00000000 	nop
     b48:	00000000 	nop
     b4c:	3c19bfc0 	lui	t9,0xbfc0
     b50:	373909cc 	ori	t9,t9,0x9cc
     b54:	3c18bfc0 	lui	t8,0xbfc0
     b58:	371809c4 	ori	t8,t8,0x9c4
     b5c:	27180008 	addiu	t8,t8,8
     b60:	1319000a 	beq	t8,t9,b8c <n35_bltzal_test+0xb8c>
     b64:	00000000 	nop
     b68:	00000000 	nop
     b6c:	3c18bfc0 	lui	t8,0xbfc0
     b70:	371809f4 	ori	t8,t8,0x9f4
     b74:	27180008 	addiu	t8,t8,8
     b78:	1319000a 	beq	t8,t9,ba4 <n35_bltzal_test+0xba4>
     b7c:	00000000 	nop
     b80:	1000461d 	b	123f8 <inst_error>
     b84:	00000000 	nop
     b88:	00000000 	nop
     b8c:	26b50008 	addiu	s5,s5,8
     b90:	16954619 	bne	s4,s5,123f8 <inst_error>
     b94:	00000000 	nop
     b98:	10000006 	b	bb4 <n35_bltzal_test+0xbb4>
     b9c:	00000000 	nop
     ba0:	00000000 	nop
     ba4:	26d60008 	addiu	s6,s6,8
     ba8:	16964613 	bne	s4,s6,123f8 <inst_error>
     bac:	00000000 	nop
	...
     bb8:	001fa821 	addu	s5,zero,ra
     bbc:	3c0c978a 	lui	t4,0x978a
     bc0:	358cf84a 	ori	t4,t4,0xf84a
     bc4:	3c0dd770 	lui	t5,0xd770
     bc8:	35adef60 	ori	t5,t5,0xef60
     bcc:	24100000 	li	s0,0
     bd0:	10000014 	b	c24 <n35_bltzal_test+0xc24>
     bd4:	24120000 	li	s2,0
     bd8:	00000000 	nop
     bdc:	3c10978a 	lui	s0,0x978a
     be0:	3610f84a 	ori	s0,s0,0xf84a
     be4:	05100025 	bltzal	t0,c7c <n35_bltzal_test+0xc7c>
     be8:	00000000 	nop
     bec:	10000025 	b	c84 <n35_bltzal_test+0xc84>
     bf0:	00000000 	nop
     bf4:	00000000 	nop
     bf8:	00000021 	move	zero,zero
     bfc:	00000021 	move	zero,zero
     c00:	00000021 	move	zero,zero
     c04:	00000021 	move	zero,zero
     c08:	00000021 	move	zero,zero
     c0c:	00000021 	move	zero,zero
     c10:	00000021 	move	zero,zero
     c14:	00000021 	move	zero,zero
     c18:	00000021 	move	zero,zero
     c1c:	00000021 	move	zero,zero
     c20:	00000021 	move	zero,zero
     c24:	3c088ff9 	lui	t0,0x8ff9
     c28:	3508842b 	ori	t0,t0,0x842b
     c2c:	0510ffeb 	bltzal	t0,bdc <n35_bltzal_test+0xbdc>
     c30:	00000000 	nop
     c34:	10000013 	b	c84 <n35_bltzal_test+0xc84>
     c38:	00000000 	nop
     c3c:	00000000 	nop
     c40:	00000021 	move	zero,zero
     c44:	00000021 	move	zero,zero
     c48:	00000021 	move	zero,zero
     c4c:	00000021 	move	zero,zero
     c50:	00000021 	move	zero,zero
     c54:	00000021 	move	zero,zero
     c58:	00000021 	move	zero,zero
     c5c:	00000021 	move	zero,zero
     c60:	00000021 	move	zero,zero
     c64:	00000021 	move	zero,zero
     c68:	00000021 	move	zero,zero
     c6c:	00000021 	move	zero,zero
     c70:	00000021 	move	zero,zero
     c74:	00000021 	move	zero,zero
     c78:	00000021 	move	zero,zero
     c7c:	3c12d770 	lui	s2,0xd770
     c80:	3652ef60 	ori	s2,s2,0xef60
     c84:	001fa021 	addu	s4,zero,ra
     c88:	0015f821 	addu	ra,zero,s5
     c8c:	3c150000 	lui	s5,0x0
     c90:	26b50be4 	addiu	s5,s5,3044
     c94:	3c160000 	lui	s6,0x0
     c98:	26d60c2c 	addiu	s6,s6,3116
     c9c:	3c18978a 	lui	t8,0x978a
     ca0:	3718f84a 	ori	t8,t8,0xf84a
     ca4:	161845d4 	bne	s0,t8,123f8 <inst_error>
     ca8:	00000000 	nop
     cac:	00000000 	nop
     cb0:	3c18d770 	lui	t8,0xd770
     cb4:	3718ef60 	ori	t8,t8,0xef60
     cb8:	165845cf 	bne	s2,t8,123f8 <inst_error>
     cbc:	00000000 	nop
     cc0:	00000000 	nop
     cc4:	3c19bfc0 	lui	t9,0xbfc0
     cc8:	37390aa4 	ori	t9,t9,0xaa4
     ccc:	3c18bfc0 	lui	t8,0xbfc0
     cd0:	37180a9c 	ori	t8,t8,0xa9c
     cd4:	27180008 	addiu	t8,t8,8
     cd8:	1319000a 	beq	t8,t9,d04 <n35_bltzal_test+0xd04>
     cdc:	00000000 	nop
     ce0:	00000000 	nop
     ce4:	3c18bfc0 	lui	t8,0xbfc0
     ce8:	37180acc 	ori	t8,t8,0xacc
     cec:	27180008 	addiu	t8,t8,8
     cf0:	1319000a 	beq	t8,t9,d1c <n35_bltzal_test+0xd1c>
     cf4:	00000000 	nop
     cf8:	100045bf 	b	123f8 <inst_error>
     cfc:	00000000 	nop
     d00:	00000000 	nop
     d04:	26b50008 	addiu	s5,s5,8
     d08:	169545bb 	bne	s4,s5,123f8 <inst_error>
     d0c:	00000000 	nop
     d10:	10000006 	b	d2c <n35_bltzal_test+0xd2c>
     d14:	00000000 	nop
     d18:	00000000 	nop
     d1c:	26d60008 	addiu	s6,s6,8
     d20:	169645b5 	bne	s4,s6,123f8 <inst_error>
     d24:	00000000 	nop
	...
     d30:	001fa821 	addu	s5,zero,ra
     d34:	3c0cf95f 	lui	t4,0xf95f
     d38:	358c2930 	ori	t4,t4,0x2930
     d3c:	3c0d4654 	lui	t5,0x4654
     d40:	35ada65c 	ori	t5,t5,0xa65c
     d44:	24100000 	li	s0,0
     d48:	10000014 	b	d9c <n35_bltzal_test+0xd9c>
     d4c:	24120000 	li	s2,0
     d50:	00000000 	nop
     d54:	3c10f95f 	lui	s0,0xf95f
     d58:	36102930 	ori	s0,s0,0x2930
     d5c:	05100025 	bltzal	t0,df4 <n35_bltzal_test+0xdf4>
     d60:	00000000 	nop
     d64:	10000025 	b	dfc <n35_bltzal_test+0xdfc>
     d68:	00000000 	nop
     d6c:	00000000 	nop
     d70:	00000021 	move	zero,zero
     d74:	00000021 	move	zero,zero
     d78:	00000021 	move	zero,zero
     d7c:	00000021 	move	zero,zero
     d80:	00000021 	move	zero,zero
     d84:	00000021 	move	zero,zero
     d88:	00000021 	move	zero,zero
     d8c:	00000021 	move	zero,zero
     d90:	00000021 	move	zero,zero
     d94:	00000021 	move	zero,zero
     d98:	00000021 	move	zero,zero
     d9c:	3c08663d 	lui	t0,0x663d
     da0:	3508a924 	ori	t0,t0,0xa924
     da4:	0510ffeb 	bltzal	t0,d54 <n35_bltzal_test+0xd54>
     da8:	00000000 	nop
     dac:	10000013 	b	dfc <n35_bltzal_test+0xdfc>
     db0:	00000000 	nop
     db4:	00000000 	nop
     db8:	00000021 	move	zero,zero
     dbc:	00000021 	move	zero,zero
     dc0:	00000021 	move	zero,zero
     dc4:	00000021 	move	zero,zero
     dc8:	00000021 	move	zero,zero
     dcc:	00000021 	move	zero,zero
     dd0:	00000021 	move	zero,zero
     dd4:	00000021 	move	zero,zero
     dd8:	00000021 	move	zero,zero
     ddc:	00000021 	move	zero,zero
     de0:	00000021 	move	zero,zero
     de4:	00000021 	move	zero,zero
     de8:	00000021 	move	zero,zero
     dec:	00000021 	move	zero,zero
     df0:	00000021 	move	zero,zero
     df4:	3c124654 	lui	s2,0x4654
     df8:	3652a65c 	ori	s2,s2,0xa65c
     dfc:	001fa021 	addu	s4,zero,ra
     e00:	0015f821 	addu	ra,zero,s5
     e04:	3c150000 	lui	s5,0x0
     e08:	26b50d5c 	addiu	s5,s5,3420
     e0c:	3c160000 	lui	s6,0x0
     e10:	26d60da4 	addiu	s6,s6,3492
     e14:	24180000 	li	t8,0
     e18:	16184577 	bne	s0,t8,123f8 <inst_error>
     e1c:	00000000 	nop
     e20:	00000000 	nop
     e24:	24180000 	li	t8,0
     e28:	16584573 	bne	s2,t8,123f8 <inst_error>
     e2c:	00000000 	nop
     e30:	00000000 	nop
     e34:	3c19bfc0 	lui	t9,0xbfc0
     e38:	37390bac 	ori	t9,t9,0xbac
     e3c:	3c18bfc0 	lui	t8,0xbfc0
     e40:	37180b74 	ori	t8,t8,0xb74
     e44:	27180008 	addiu	t8,t8,8
     e48:	1319000a 	beq	t8,t9,e74 <n35_bltzal_test+0xe74>
     e4c:	00000000 	nop
     e50:	00000000 	nop
     e54:	3c18bfc0 	lui	t8,0xbfc0
     e58:	37180ba4 	ori	t8,t8,0xba4
     e5c:	27180008 	addiu	t8,t8,8
     e60:	1319000a 	beq	t8,t9,e8c <n35_bltzal_test+0xe8c>
     e64:	00000000 	nop
     e68:	10004563 	b	123f8 <inst_error>
     e6c:	00000000 	nop
     e70:	00000000 	nop
     e74:	26b50008 	addiu	s5,s5,8
     e78:	1695455f 	bne	s4,s5,123f8 <inst_error>
     e7c:	00000000 	nop
     e80:	10000006 	b	e9c <n35_bltzal_test+0xe9c>
     e84:	00000000 	nop
     e88:	00000000 	nop
     e8c:	26d60008 	addiu	s6,s6,8
     e90:	16964559 	bne	s4,s6,123f8 <inst_error>
     e94:	00000000 	nop
	...
     ea0:	001fa821 	addu	s5,zero,ra
     ea4:	3c0cb95f 	lui	t4,0xb95f
     ea8:	358cfbe8 	ori	t4,t4,0xfbe8
     eac:	3c0d619a 	lui	t5,0x619a
     eb0:	35ad80f4 	ori	t5,t5,0x80f4
     eb4:	24100000 	li	s0,0
     eb8:	10000014 	b	f0c <n35_bltzal_test+0xf0c>
     ebc:	24120000 	li	s2,0
     ec0:	00000000 	nop
     ec4:	3c10b95f 	lui	s0,0xb95f
     ec8:	3610fbe8 	ori	s0,s0,0xfbe8
     ecc:	05100025 	bltzal	t0,f64 <n35_bltzal_test+0xf64>
     ed0:	00000000 	nop
     ed4:	10000025 	b	f6c <n35_bltzal_test+0xf6c>
     ed8:	00000000 	nop
     edc:	00000000 	nop
     ee0:	00000021 	move	zero,zero
     ee4:	00000021 	move	zero,zero
     ee8:	00000021 	move	zero,zero
     eec:	00000021 	move	zero,zero
     ef0:	00000021 	move	zero,zero
     ef4:	00000021 	move	zero,zero
     ef8:	00000021 	move	zero,zero
     efc:	00000021 	move	zero,zero
     f00:	00000021 	move	zero,zero
     f04:	00000021 	move	zero,zero
     f08:	00000021 	move	zero,zero
     f0c:	3c08d970 	lui	t0,0xd970
     f10:	350864ee 	ori	t0,t0,0x64ee
     f14:	0510ffeb 	bltzal	t0,ec4 <n35_bltzal_test+0xec4>
     f18:	00000000 	nop
     f1c:	10000013 	b	f6c <n35_bltzal_test+0xf6c>
     f20:	00000000 	nop
     f24:	00000000 	nop
     f28:	00000021 	move	zero,zero
     f2c:	00000021 	move	zero,zero
     f30:	00000021 	move	zero,zero
     f34:	00000021 	move	zero,zero
     f38:	00000021 	move	zero,zero
     f3c:	00000021 	move	zero,zero
     f40:	00000021 	move	zero,zero
     f44:	00000021 	move	zero,zero
     f48:	00000021 	move	zero,zero
     f4c:	00000021 	move	zero,zero
     f50:	00000021 	move	zero,zero
     f54:	00000021 	move	zero,zero
     f58:	00000021 	move	zero,zero
     f5c:	00000021 	move	zero,zero
     f60:	00000021 	move	zero,zero
     f64:	3c12619a 	lui	s2,0x619a
     f68:	365280f4 	ori	s2,s2,0x80f4
     f6c:	001fa021 	addu	s4,zero,ra
     f70:	0015f821 	addu	ra,zero,s5
     f74:	3c150000 	lui	s5,0x0
     f78:	26b50ecc 	addiu	s5,s5,3788
     f7c:	3c160000 	lui	s6,0x0
     f80:	26d60f14 	addiu	s6,s6,3860
     f84:	3c18b95f 	lui	t8,0xb95f
     f88:	3718fbe8 	ori	t8,t8,0xfbe8
     f8c:	1618451a 	bne	s0,t8,123f8 <inst_error>
     f90:	00000000 	nop
     f94:	00000000 	nop
     f98:	3c18619a 	lui	t8,0x619a
     f9c:	371880f4 	ori	t8,t8,0x80f4
     fa0:	16584515 	bne	s2,t8,123f8 <inst_error>
     fa4:	00000000 	nop
     fa8:	00000000 	nop
     fac:	3c19bfc0 	lui	t9,0xbfc0
     fb0:	37390c54 	ori	t9,t9,0xc54
     fb4:	3c18bfc0 	lui	t8,0xbfc0
     fb8:	37180c4c 	ori	t8,t8,0xc4c
     fbc:	27180008 	addiu	t8,t8,8
     fc0:	1319000a 	beq	t8,t9,fec <n35_bltzal_test+0xfec>
     fc4:	00000000 	nop
     fc8:	00000000 	nop
     fcc:	3c18bfc0 	lui	t8,0xbfc0
     fd0:	37180c7c 	ori	t8,t8,0xc7c
     fd4:	27180008 	addiu	t8,t8,8
     fd8:	1319000a 	beq	t8,t9,1004 <n35_bltzal_test+0x1004>
     fdc:	00000000 	nop
     fe0:	10004505 	b	123f8 <inst_error>
     fe4:	00000000 	nop
     fe8:	00000000 	nop
     fec:	26b50008 	addiu	s5,s5,8
     ff0:	16954501 	bne	s4,s5,123f8 <inst_error>
     ff4:	00000000 	nop
     ff8:	10000006 	b	1014 <n35_bltzal_test+0x1014>
     ffc:	00000000 	nop
    1000:	00000000 	nop
    1004:	26d60008 	addiu	s6,s6,8
    1008:	169644fb 	bne	s4,s6,123f8 <inst_error>
    100c:	00000000 	nop
	...
    1018:	001fa821 	addu	s5,zero,ra
    101c:	3c0cee35 	lui	t4,0xee35
    1020:	358c6324 	ori	t4,t4,0x6324
    1024:	3c0d3256 	lui	t5,0x3256
    1028:	35ad8200 	ori	t5,t5,0x8200
    102c:	24100000 	li	s0,0
    1030:	10000014 	b	1084 <n35_bltzal_test+0x1084>
    1034:	24120000 	li	s2,0
    1038:	00000000 	nop
    103c:	3c10ee35 	lui	s0,0xee35
    1040:	36106324 	ori	s0,s0,0x6324
    1044:	05100025 	bltzal	t0,10dc <n35_bltzal_test+0x10dc>
    1048:	00000000 	nop
    104c:	10000025 	b	10e4 <n35_bltzal_test+0x10e4>
    1050:	00000000 	nop
    1054:	00000000 	nop
    1058:	00000021 	move	zero,zero
    105c:	00000021 	move	zero,zero
    1060:	00000021 	move	zero,zero
    1064:	00000021 	move	zero,zero
    1068:	00000021 	move	zero,zero
    106c:	00000021 	move	zero,zero
    1070:	00000021 	move	zero,zero
    1074:	00000021 	move	zero,zero
    1078:	00000021 	move	zero,zero
    107c:	00000021 	move	zero,zero
    1080:	00000021 	move	zero,zero
    1084:	3c08db55 	lui	t0,0xdb55
    1088:	35083f88 	ori	t0,t0,0x3f88
    108c:	0510ffeb 	bltzal	t0,103c <n35_bltzal_test+0x103c>
    1090:	00000000 	nop
    1094:	10000013 	b	10e4 <n35_bltzal_test+0x10e4>
    1098:	00000000 	nop
    109c:	00000000 	nop
    10a0:	00000021 	move	zero,zero
    10a4:	00000021 	move	zero,zero
    10a8:	00000021 	move	zero,zero
    10ac:	00000021 	move	zero,zero
    10b0:	00000021 	move	zero,zero
    10b4:	00000021 	move	zero,zero
    10b8:	00000021 	move	zero,zero
    10bc:	00000021 	move	zero,zero
    10c0:	00000021 	move	zero,zero
    10c4:	00000021 	move	zero,zero
    10c8:	00000021 	move	zero,zero
    10cc:	00000021 	move	zero,zero
    10d0:	00000021 	move	zero,zero
    10d4:	00000021 	move	zero,zero
    10d8:	00000021 	move	zero,zero
    10dc:	3c123256 	lui	s2,0x3256
    10e0:	36528200 	ori	s2,s2,0x8200
    10e4:	001fa021 	addu	s4,zero,ra
    10e8:	0015f821 	addu	ra,zero,s5
    10ec:	3c150000 	lui	s5,0x0
    10f0:	26b51044 	addiu	s5,s5,4164
    10f4:	3c160000 	lui	s6,0x0
    10f8:	26d6108c 	addiu	s6,s6,4236
    10fc:	3c18ee35 	lui	t8,0xee35
    1100:	37186324 	ori	t8,t8,0x6324
    1104:	161844bc 	bne	s0,t8,123f8 <inst_error>
    1108:	00000000 	nop
    110c:	00000000 	nop
    1110:	3c183256 	lui	t8,0x3256
    1114:	37188200 	ori	t8,t8,0x8200
    1118:	165844b7 	bne	s2,t8,123f8 <inst_error>
    111c:	00000000 	nop
    1120:	00000000 	nop
    1124:	3c19bfc0 	lui	t9,0xbfc0
    1128:	37390d2c 	ori	t9,t9,0xd2c
    112c:	3c18bfc0 	lui	t8,0xbfc0
    1130:	37180d24 	ori	t8,t8,0xd24
    1134:	27180008 	addiu	t8,t8,8
    1138:	1319000a 	beq	t8,t9,1164 <n35_bltzal_test+0x1164>
    113c:	00000000 	nop
    1140:	00000000 	nop
    1144:	3c18bfc0 	lui	t8,0xbfc0
    1148:	37180d54 	ori	t8,t8,0xd54
    114c:	27180008 	addiu	t8,t8,8
    1150:	1319000a 	beq	t8,t9,117c <n35_bltzal_test+0x117c>
    1154:	00000000 	nop
    1158:	100044a7 	b	123f8 <inst_error>
    115c:	00000000 	nop
    1160:	00000000 	nop
    1164:	26b50008 	addiu	s5,s5,8
    1168:	169544a3 	bne	s4,s5,123f8 <inst_error>
    116c:	00000000 	nop
    1170:	10000006 	b	118c <n35_bltzal_test+0x118c>
    1174:	00000000 	nop
    1178:	00000000 	nop
    117c:	26d60008 	addiu	s6,s6,8
    1180:	1696449d 	bne	s4,s6,123f8 <inst_error>
    1184:	00000000 	nop
	...
    1190:	001fa821 	addu	s5,zero,ra
    1194:	3c0cf674 	lui	t4,0xf674
    1198:	358c9e10 	ori	t4,t4,0x9e10
    119c:	3c0d0f55 	lui	t5,0xf55
    11a0:	35ad8b00 	ori	t5,t5,0x8b00
    11a4:	24100000 	li	s0,0
    11a8:	10000014 	b	11fc <n35_bltzal_test+0x11fc>
    11ac:	24120000 	li	s2,0
    11b0:	00000000 	nop
    11b4:	3c10f674 	lui	s0,0xf674
    11b8:	36109e10 	ori	s0,s0,0x9e10
    11bc:	05100025 	bltzal	t0,1254 <n35_bltzal_test+0x1254>
    11c0:	00000000 	nop
    11c4:	10000025 	b	125c <n35_bltzal_test+0x125c>
    11c8:	00000000 	nop
    11cc:	00000000 	nop
    11d0:	00000021 	move	zero,zero
    11d4:	00000021 	move	zero,zero
    11d8:	00000021 	move	zero,zero
    11dc:	00000021 	move	zero,zero
    11e0:	00000021 	move	zero,zero
    11e4:	00000021 	move	zero,zero
    11e8:	00000021 	move	zero,zero
    11ec:	00000021 	move	zero,zero
    11f0:	00000021 	move	zero,zero
    11f4:	00000021 	move	zero,zero
    11f8:	00000021 	move	zero,zero
    11fc:	3c085447 	lui	t0,0x5447
    1200:	35084420 	ori	t0,t0,0x4420
    1204:	0510ffeb 	bltzal	t0,11b4 <n35_bltzal_test+0x11b4>
    1208:	00000000 	nop
    120c:	10000013 	b	125c <n35_bltzal_test+0x125c>
    1210:	00000000 	nop
    1214:	00000000 	nop
    1218:	00000021 	move	zero,zero
    121c:	00000021 	move	zero,zero
    1220:	00000021 	move	zero,zero
    1224:	00000021 	move	zero,zero
    1228:	00000021 	move	zero,zero
    122c:	00000021 	move	zero,zero
    1230:	00000021 	move	zero,zero
    1234:	00000021 	move	zero,zero
    1238:	00000021 	move	zero,zero
    123c:	00000021 	move	zero,zero
    1240:	00000021 	move	zero,zero
    1244:	00000021 	move	zero,zero
    1248:	00000021 	move	zero,zero
    124c:	00000021 	move	zero,zero
    1250:	00000021 	move	zero,zero
    1254:	3c120f55 	lui	s2,0xf55
    1258:	36528b00 	ori	s2,s2,0x8b00
    125c:	001fa021 	addu	s4,zero,ra
    1260:	0015f821 	addu	ra,zero,s5
    1264:	3c150000 	lui	s5,0x0
    1268:	26b511bc 	addiu	s5,s5,4540
    126c:	3c160000 	lui	s6,0x0
    1270:	26d61204 	addiu	s6,s6,4612
    1274:	24180000 	li	t8,0
    1278:	1618445f 	bne	s0,t8,123f8 <inst_error>
    127c:	00000000 	nop
    1280:	00000000 	nop
    1284:	24180000 	li	t8,0
    1288:	1658445b 	bne	s2,t8,123f8 <inst_error>
    128c:	00000000 	nop
    1290:	00000000 	nop
    1294:	3c19bfc0 	lui	t9,0xbfc0
    1298:	37390e34 	ori	t9,t9,0xe34
    129c:	3c18bfc0 	lui	t8,0xbfc0
    12a0:	37180dfc 	ori	t8,t8,0xdfc
    12a4:	27180008 	addiu	t8,t8,8
    12a8:	1319000a 	beq	t8,t9,12d4 <n35_bltzal_test+0x12d4>
    12ac:	00000000 	nop
    12b0:	00000000 	nop
    12b4:	3c18bfc0 	lui	t8,0xbfc0
    12b8:	37180e2c 	ori	t8,t8,0xe2c
    12bc:	27180008 	addiu	t8,t8,8
    12c0:	1319000a 	beq	t8,t9,12ec <n35_bltzal_test+0x12ec>
    12c4:	00000000 	nop
    12c8:	1000444b 	b	123f8 <inst_error>
    12cc:	00000000 	nop
    12d0:	00000000 	nop
    12d4:	26b50008 	addiu	s5,s5,8
    12d8:	16954447 	bne	s4,s5,123f8 <inst_error>
    12dc:	00000000 	nop
    12e0:	10000006 	b	12fc <n35_bltzal_test+0x12fc>
    12e4:	00000000 	nop
    12e8:	00000000 	nop
    12ec:	26d60008 	addiu	s6,s6,8
    12f0:	16964441 	bne	s4,s6,123f8 <inst_error>
    12f4:	00000000 	nop
	...
    1300:	001fa821 	addu	s5,zero,ra
    1304:	3c0c3610 	lui	t4,0x3610
    1308:	358c309b 	ori	t4,t4,0x309b
    130c:	3c0db61e 	lui	t5,0xb61e
    1310:	35ad33d0 	ori	t5,t5,0x33d0
    1314:	24100000 	li	s0,0
    1318:	10000014 	b	136c <n35_bltzal_test+0x136c>
    131c:	24120000 	li	s2,0
    1320:	00000000 	nop
    1324:	3c103610 	lui	s0,0x3610
    1328:	3610309b 	ori	s0,s0,0x309b
    132c:	05100025 	bltzal	t0,13c4 <n35_bltzal_test+0x13c4>
    1330:	00000000 	nop
    1334:	10000025 	b	13cc <n35_bltzal_test+0x13cc>
    1338:	00000000 	nop
    133c:	00000000 	nop
    1340:	00000021 	move	zero,zero
    1344:	00000021 	move	zero,zero
    1348:	00000021 	move	zero,zero
    134c:	00000021 	move	zero,zero
    1350:	00000021 	move	zero,zero
    1354:	00000021 	move	zero,zero
    1358:	00000021 	move	zero,zero
    135c:	00000021 	move	zero,zero
    1360:	00000021 	move	zero,zero
    1364:	00000021 	move	zero,zero
    1368:	00000021 	move	zero,zero
    136c:	3c08f359 	lui	t0,0xf359
    1370:	35085c58 	ori	t0,t0,0x5c58
    1374:	0510ffeb 	bltzal	t0,1324 <n35_bltzal_test+0x1324>
    1378:	00000000 	nop
    137c:	10000013 	b	13cc <n35_bltzal_test+0x13cc>
    1380:	00000000 	nop
    1384:	00000000 	nop
    1388:	00000021 	move	zero,zero
    138c:	00000021 	move	zero,zero
    1390:	00000021 	move	zero,zero
    1394:	00000021 	move	zero,zero
    1398:	00000021 	move	zero,zero
    139c:	00000021 	move	zero,zero
    13a0:	00000021 	move	zero,zero
    13a4:	00000021 	move	zero,zero
    13a8:	00000021 	move	zero,zero
    13ac:	00000021 	move	zero,zero
    13b0:	00000021 	move	zero,zero
    13b4:	00000021 	move	zero,zero
    13b8:	00000021 	move	zero,zero
    13bc:	00000021 	move	zero,zero
    13c0:	00000021 	move	zero,zero
    13c4:	3c12b61e 	lui	s2,0xb61e
    13c8:	365233d0 	ori	s2,s2,0x33d0
    13cc:	001fa021 	addu	s4,zero,ra
    13d0:	0015f821 	addu	ra,zero,s5
    13d4:	3c150000 	lui	s5,0x0
    13d8:	26b5132c 	addiu	s5,s5,4908
    13dc:	3c160000 	lui	s6,0x0
    13e0:	26d61374 	addiu	s6,s6,4980
    13e4:	3c183610 	lui	t8,0x3610
    13e8:	3718309b 	ori	t8,t8,0x309b
    13ec:	16184402 	bne	s0,t8,123f8 <inst_error>
    13f0:	00000000 	nop
    13f4:	00000000 	nop
    13f8:	3c18b61e 	lui	t8,0xb61e
    13fc:	371833d0 	ori	t8,t8,0x33d0
    1400:	165843fd 	bne	s2,t8,123f8 <inst_error>
    1404:	00000000 	nop
    1408:	00000000 	nop
    140c:	3c19bfc0 	lui	t9,0xbfc0
    1410:	37390edc 	ori	t9,t9,0xedc
    1414:	3c18bfc0 	lui	t8,0xbfc0
    1418:	37180ed4 	ori	t8,t8,0xed4
    141c:	27180008 	addiu	t8,t8,8
    1420:	1319000a 	beq	t8,t9,144c <n35_bltzal_test+0x144c>
    1424:	00000000 	nop
    1428:	00000000 	nop
    142c:	3c18bfc0 	lui	t8,0xbfc0
    1430:	37180f04 	ori	t8,t8,0xf04
    1434:	27180008 	addiu	t8,t8,8
    1438:	1319000a 	beq	t8,t9,1464 <n35_bltzal_test+0x1464>
    143c:	00000000 	nop
    1440:	100043ed 	b	123f8 <inst_error>
    1444:	00000000 	nop
    1448:	00000000 	nop
    144c:	26b50008 	addiu	s5,s5,8
    1450:	169543e9 	bne	s4,s5,123f8 <inst_error>
    1454:	00000000 	nop
    1458:	10000006 	b	1474 <n35_bltzal_test+0x1474>
    145c:	00000000 	nop
    1460:	00000000 	nop
    1464:	26d60008 	addiu	s6,s6,8
    1468:	169643e3 	bne	s4,s6,123f8 <inst_error>
    146c:	00000000 	nop
	...
    1478:	001fa821 	addu	s5,zero,ra
    147c:	3c0c5576 	lui	t4,0x5576
    1480:	358c37b4 	ori	t4,t4,0x37b4
    1484:	3c0d910e 	lui	t5,0x910e
    1488:	35ad3aa0 	ori	t5,t5,0x3aa0
    148c:	24100000 	li	s0,0
    1490:	10000014 	b	14e4 <n35_bltzal_test+0x14e4>
    1494:	24120000 	li	s2,0
    1498:	00000000 	nop
    149c:	3c105576 	lui	s0,0x5576
    14a0:	361037b4 	ori	s0,s0,0x37b4
    14a4:	05100025 	bltzal	t0,153c <n35_bltzal_test+0x153c>
    14a8:	00000000 	nop
    14ac:	10000025 	b	1544 <n35_bltzal_test+0x1544>
    14b0:	00000000 	nop
    14b4:	00000000 	nop
    14b8:	00000021 	move	zero,zero
    14bc:	00000021 	move	zero,zero
    14c0:	00000021 	move	zero,zero
    14c4:	00000021 	move	zero,zero
    14c8:	00000021 	move	zero,zero
    14cc:	00000021 	move	zero,zero
    14d0:	00000021 	move	zero,zero
    14d4:	00000021 	move	zero,zero
    14d8:	00000021 	move	zero,zero
    14dc:	00000021 	move	zero,zero
    14e0:	00000021 	move	zero,zero
    14e4:	3c08d8dc 	lui	t0,0xd8dc
    14e8:	35084820 	ori	t0,t0,0x4820
    14ec:	0510ffeb 	bltzal	t0,149c <n35_bltzal_test+0x149c>
    14f0:	00000000 	nop
    14f4:	10000013 	b	1544 <n35_bltzal_test+0x1544>
    14f8:	00000000 	nop
    14fc:	00000000 	nop
    1500:	00000021 	move	zero,zero
    1504:	00000021 	move	zero,zero
    1508:	00000021 	move	zero,zero
    150c:	00000021 	move	zero,zero
    1510:	00000021 	move	zero,zero
    1514:	00000021 	move	zero,zero
    1518:	00000021 	move	zero,zero
    151c:	00000021 	move	zero,zero
    1520:	00000021 	move	zero,zero
    1524:	00000021 	move	zero,zero
    1528:	00000021 	move	zero,zero
    152c:	00000021 	move	zero,zero
    1530:	00000021 	move	zero,zero
    1534:	00000021 	move	zero,zero
    1538:	00000021 	move	zero,zero
    153c:	3c12910e 	lui	s2,0x910e
    1540:	36523aa0 	ori	s2,s2,0x3aa0
    1544:	001fa021 	addu	s4,zero,ra
    1548:	0015f821 	addu	ra,zero,s5
    154c:	3c150000 	lui	s5,0x0
    1550:	26b514a4 	addiu	s5,s5,5284
    1554:	3c160000 	lui	s6,0x0
    1558:	26d614ec 	addiu	s6,s6,5356
    155c:	3c185576 	lui	t8,0x5576
    1560:	371837b4 	ori	t8,t8,0x37b4
    1564:	161843a4 	bne	s0,t8,123f8 <inst_error>
    1568:	00000000 	nop
    156c:	00000000 	nop
    1570:	3c18910e 	lui	t8,0x910e
    1574:	37183aa0 	ori	t8,t8,0x3aa0
    1578:	1658439f 	bne	s2,t8,123f8 <inst_error>
    157c:	00000000 	nop
    1580:	00000000 	nop
    1584:	3c19bfc0 	lui	t9,0xbfc0
    1588:	37390fb4 	ori	t9,t9,0xfb4
    158c:	3c18bfc0 	lui	t8,0xbfc0
    1590:	37180fac 	ori	t8,t8,0xfac
    1594:	27180008 	addiu	t8,t8,8
    1598:	1319000a 	beq	t8,t9,15c4 <n35_bltzal_test+0x15c4>
    159c:	00000000 	nop
    15a0:	00000000 	nop
    15a4:	3c18bfc0 	lui	t8,0xbfc0
    15a8:	37180fdc 	ori	t8,t8,0xfdc
    15ac:	27180008 	addiu	t8,t8,8
    15b0:	1319000a 	beq	t8,t9,15dc <n35_bltzal_test+0x15dc>
    15b4:	00000000 	nop
    15b8:	1000438f 	b	123f8 <inst_error>
    15bc:	00000000 	nop
    15c0:	00000000 	nop
    15c4:	26b50008 	addiu	s5,s5,8
    15c8:	1695438b 	bne	s4,s5,123f8 <inst_error>
    15cc:	00000000 	nop
    15d0:	10000006 	b	15ec <n35_bltzal_test+0x15ec>
    15d4:	00000000 	nop
    15d8:	00000000 	nop
    15dc:	26d60008 	addiu	s6,s6,8
    15e0:	16964385 	bne	s4,s6,123f8 <inst_error>
    15e4:	00000000 	nop
	...
    15f0:	001fa821 	addu	s5,zero,ra
    15f4:	3c0c27e9 	lui	t4,0x27e9
    15f8:	358cc330 	ori	t4,t4,0xc330
    15fc:	3c0dae08 	lui	t5,0xae08
    1600:	35ad1f3e 	ori	t5,t5,0x1f3e
    1604:	24100000 	li	s0,0
    1608:	10000014 	b	165c <n35_bltzal_test+0x165c>
    160c:	24120000 	li	s2,0
    1610:	00000000 	nop
    1614:	3c1027e9 	lui	s0,0x27e9
    1618:	3610c330 	ori	s0,s0,0xc330
    161c:	05100025 	bltzal	t0,16b4 <n35_bltzal_test+0x16b4>
    1620:	00000000 	nop
    1624:	10000025 	b	16bc <n35_bltzal_test+0x16bc>
    1628:	00000000 	nop
    162c:	00000000 	nop
    1630:	00000021 	move	zero,zero
    1634:	00000021 	move	zero,zero
    1638:	00000021 	move	zero,zero
    163c:	00000021 	move	zero,zero
    1640:	00000021 	move	zero,zero
    1644:	00000021 	move	zero,zero
    1648:	00000021 	move	zero,zero
    164c:	00000021 	move	zero,zero
    1650:	00000021 	move	zero,zero
    1654:	00000021 	move	zero,zero
    1658:	00000021 	move	zero,zero
    165c:	3c08aa8a 	lui	t0,0xaa8a
    1660:	35084c98 	ori	t0,t0,0x4c98
    1664:	0510ffeb 	bltzal	t0,1614 <n35_bltzal_test+0x1614>
    1668:	00000000 	nop
    166c:	10000013 	b	16bc <n35_bltzal_test+0x16bc>
    1670:	00000000 	nop
    1674:	00000000 	nop
    1678:	00000021 	move	zero,zero
    167c:	00000021 	move	zero,zero
    1680:	00000021 	move	zero,zero
    1684:	00000021 	move	zero,zero
    1688:	00000021 	move	zero,zero
    168c:	00000021 	move	zero,zero
    1690:	00000021 	move	zero,zero
    1694:	00000021 	move	zero,zero
    1698:	00000021 	move	zero,zero
    169c:	00000021 	move	zero,zero
    16a0:	00000021 	move	zero,zero
    16a4:	00000021 	move	zero,zero
    16a8:	00000021 	move	zero,zero
    16ac:	00000021 	move	zero,zero
    16b0:	00000021 	move	zero,zero
    16b4:	3c12ae08 	lui	s2,0xae08
    16b8:	36521f3e 	ori	s2,s2,0x1f3e
    16bc:	001fa021 	addu	s4,zero,ra
    16c0:	0015f821 	addu	ra,zero,s5
    16c4:	3c150000 	lui	s5,0x0
    16c8:	26b5161c 	addiu	s5,s5,5660
    16cc:	3c160000 	lui	s6,0x0
    16d0:	26d61664 	addiu	s6,s6,5732
    16d4:	3c1827e9 	lui	t8,0x27e9
    16d8:	3718c330 	ori	t8,t8,0xc330
    16dc:	16184346 	bne	s0,t8,123f8 <inst_error>
    16e0:	00000000 	nop
    16e4:	00000000 	nop
    16e8:	3c18ae08 	lui	t8,0xae08
    16ec:	37181f3e 	ori	t8,t8,0x1f3e
    16f0:	16584341 	bne	s2,t8,123f8 <inst_error>
    16f4:	00000000 	nop
    16f8:	00000000 	nop
    16fc:	3c19bfc0 	lui	t9,0xbfc0
    1700:	3739108c 	ori	t9,t9,0x108c
    1704:	3c18bfc0 	lui	t8,0xbfc0
    1708:	37181084 	ori	t8,t8,0x1084
    170c:	27180008 	addiu	t8,t8,8
    1710:	1319000a 	beq	t8,t9,173c <n35_bltzal_test+0x173c>
    1714:	00000000 	nop
    1718:	00000000 	nop
    171c:	3c18bfc0 	lui	t8,0xbfc0
    1720:	371810b4 	ori	t8,t8,0x10b4
    1724:	27180008 	addiu	t8,t8,8
    1728:	1319000a 	beq	t8,t9,1754 <n35_bltzal_test+0x1754>
    172c:	00000000 	nop
    1730:	10004331 	b	123f8 <inst_error>
    1734:	00000000 	nop
    1738:	00000000 	nop
    173c:	26b50008 	addiu	s5,s5,8
    1740:	1695432d 	bne	s4,s5,123f8 <inst_error>
    1744:	00000000 	nop
    1748:	10000006 	b	1764 <n35_bltzal_test+0x1764>
    174c:	00000000 	nop
    1750:	00000000 	nop
    1754:	26d60008 	addiu	s6,s6,8
    1758:	16964327 	bne	s4,s6,123f8 <inst_error>
    175c:	00000000 	nop
	...
    1768:	001fa821 	addu	s5,zero,ra
    176c:	3c0c635e 	lui	t4,0x635e
    1770:	358cd0a2 	ori	t4,t4,0xd0a2
    1774:	3c0ddec2 	lui	t5,0xdec2
    1778:	35ade92c 	ori	t5,t5,0xe92c
    177c:	24100000 	li	s0,0
    1780:	10000014 	b	17d4 <n35_bltzal_test+0x17d4>
    1784:	24120000 	li	s2,0
    1788:	00000000 	nop
    178c:	3c10635e 	lui	s0,0x635e
    1790:	3610d0a2 	ori	s0,s0,0xd0a2
    1794:	05100025 	bltzal	t0,182c <n35_bltzal_test+0x182c>
    1798:	00000000 	nop
    179c:	10000025 	b	1834 <n35_bltzal_test+0x1834>
    17a0:	00000000 	nop
    17a4:	00000000 	nop
    17a8:	00000021 	move	zero,zero
    17ac:	00000021 	move	zero,zero
    17b0:	00000021 	move	zero,zero
    17b4:	00000021 	move	zero,zero
    17b8:	00000021 	move	zero,zero
    17bc:	00000021 	move	zero,zero
    17c0:	00000021 	move	zero,zero
    17c4:	00000021 	move	zero,zero
    17c8:	00000021 	move	zero,zero
    17cc:	00000021 	move	zero,zero
    17d0:	00000021 	move	zero,zero
    17d4:	3c08d9c4 	lui	t0,0xd9c4
    17d8:	3508ed40 	ori	t0,t0,0xed40
    17dc:	0510ffeb 	bltzal	t0,178c <n35_bltzal_test+0x178c>
    17e0:	00000000 	nop
    17e4:	10000013 	b	1834 <n35_bltzal_test+0x1834>
    17e8:	00000000 	nop
    17ec:	00000000 	nop
    17f0:	00000021 	move	zero,zero
    17f4:	00000021 	move	zero,zero
    17f8:	00000021 	move	zero,zero
    17fc:	00000021 	move	zero,zero
    1800:	00000021 	move	zero,zero
    1804:	00000021 	move	zero,zero
    1808:	00000021 	move	zero,zero
    180c:	00000021 	move	zero,zero
    1810:	00000021 	move	zero,zero
    1814:	00000021 	move	zero,zero
    1818:	00000021 	move	zero,zero
    181c:	00000021 	move	zero,zero
    1820:	00000021 	move	zero,zero
    1824:	00000021 	move	zero,zero
    1828:	00000021 	move	zero,zero
    182c:	3c12dec2 	lui	s2,0xdec2
    1830:	3652e92c 	ori	s2,s2,0xe92c
    1834:	001fa021 	addu	s4,zero,ra
    1838:	0015f821 	addu	ra,zero,s5
    183c:	3c150000 	lui	s5,0x0
    1840:	26b51794 	addiu	s5,s5,6036
    1844:	3c160000 	lui	s6,0x0
    1848:	26d617dc 	addiu	s6,s6,6108
    184c:	3c18635e 	lui	t8,0x635e
    1850:	3718d0a2 	ori	t8,t8,0xd0a2
    1854:	161842e8 	bne	s0,t8,123f8 <inst_error>
    1858:	00000000 	nop
    185c:	00000000 	nop
    1860:	3c18dec2 	lui	t8,0xdec2
    1864:	3718e92c 	ori	t8,t8,0xe92c
    1868:	165842e3 	bne	s2,t8,123f8 <inst_error>
    186c:	00000000 	nop
    1870:	00000000 	nop
    1874:	3c19bfc0 	lui	t9,0xbfc0
    1878:	37391164 	ori	t9,t9,0x1164
    187c:	3c18bfc0 	lui	t8,0xbfc0
    1880:	3718115c 	ori	t8,t8,0x115c
    1884:	27180008 	addiu	t8,t8,8
    1888:	1319000a 	beq	t8,t9,18b4 <n35_bltzal_test+0x18b4>
    188c:	00000000 	nop
    1890:	00000000 	nop
    1894:	3c18bfc0 	lui	t8,0xbfc0
    1898:	3718118c 	ori	t8,t8,0x118c
    189c:	27180008 	addiu	t8,t8,8
    18a0:	1319000a 	beq	t8,t9,18cc <n35_bltzal_test+0x18cc>
    18a4:	00000000 	nop
    18a8:	100042d3 	b	123f8 <inst_error>
    18ac:	00000000 	nop
    18b0:	00000000 	nop
    18b4:	26b50008 	addiu	s5,s5,8
    18b8:	169542cf 	bne	s4,s5,123f8 <inst_error>
    18bc:	00000000 	nop
    18c0:	10000006 	b	18dc <n35_bltzal_test+0x18dc>
    18c4:	00000000 	nop
    18c8:	00000000 	nop
    18cc:	26d60008 	addiu	s6,s6,8
    18d0:	169642c9 	bne	s4,s6,123f8 <inst_error>
    18d4:	00000000 	nop
	...
    18e0:	001fa821 	addu	s5,zero,ra
    18e4:	3c0ce165 	lui	t4,0xe165
    18e8:	358ce880 	ori	t4,t4,0xe880
    18ec:	3c0d45d1 	lui	t5,0x45d1
    18f0:	35adfd2c 	ori	t5,t5,0xfd2c
    18f4:	24100000 	li	s0,0
    18f8:	10000014 	b	194c <n35_bltzal_test+0x194c>
    18fc:	24120000 	li	s2,0
    1900:	00000000 	nop
    1904:	3c10e165 	lui	s0,0xe165
    1908:	3610e880 	ori	s0,s0,0xe880
    190c:	05100025 	bltzal	t0,19a4 <n35_bltzal_test+0x19a4>
    1910:	00000000 	nop
    1914:	10000025 	b	19ac <n35_bltzal_test+0x19ac>
    1918:	00000000 	nop
    191c:	00000000 	nop
    1920:	00000021 	move	zero,zero
    1924:	00000021 	move	zero,zero
    1928:	00000021 	move	zero,zero
    192c:	00000021 	move	zero,zero
    1930:	00000021 	move	zero,zero
    1934:	00000021 	move	zero,zero
    1938:	00000021 	move	zero,zero
    193c:	00000021 	move	zero,zero
    1940:	00000021 	move	zero,zero
    1944:	00000021 	move	zero,zero
    1948:	00000021 	move	zero,zero
    194c:	3c086839 	lui	t0,0x6839
    1950:	35087fdc 	ori	t0,t0,0x7fdc
    1954:	0510ffeb 	bltzal	t0,1904 <n35_bltzal_test+0x1904>
    1958:	00000000 	nop
    195c:	10000013 	b	19ac <n35_bltzal_test+0x19ac>
    1960:	00000000 	nop
    1964:	00000000 	nop
    1968:	00000021 	move	zero,zero
    196c:	00000021 	move	zero,zero
    1970:	00000021 	move	zero,zero
    1974:	00000021 	move	zero,zero
    1978:	00000021 	move	zero,zero
    197c:	00000021 	move	zero,zero
    1980:	00000021 	move	zero,zero
    1984:	00000021 	move	zero,zero
    1988:	00000021 	move	zero,zero
    198c:	00000021 	move	zero,zero
    1990:	00000021 	move	zero,zero
    1994:	00000021 	move	zero,zero
    1998:	00000021 	move	zero,zero
    199c:	00000021 	move	zero,zero
    19a0:	00000021 	move	zero,zero
    19a4:	3c1245d1 	lui	s2,0x45d1
    19a8:	3652fd2c 	ori	s2,s2,0xfd2c
    19ac:	001fa021 	addu	s4,zero,ra
    19b0:	0015f821 	addu	ra,zero,s5
    19b4:	3c150000 	lui	s5,0x0
    19b8:	26b5190c 	addiu	s5,s5,6412
    19bc:	3c160000 	lui	s6,0x0
    19c0:	26d61954 	addiu	s6,s6,6484
    19c4:	24180000 	li	t8,0
    19c8:	1618428b 	bne	s0,t8,123f8 <inst_error>
    19cc:	00000000 	nop
    19d0:	00000000 	nop
    19d4:	24180000 	li	t8,0
    19d8:	16584287 	bne	s2,t8,123f8 <inst_error>
    19dc:	00000000 	nop
    19e0:	00000000 	nop
    19e4:	3c19bfc0 	lui	t9,0xbfc0
    19e8:	3739126c 	ori	t9,t9,0x126c
    19ec:	3c18bfc0 	lui	t8,0xbfc0
    19f0:	37181234 	ori	t8,t8,0x1234
    19f4:	27180008 	addiu	t8,t8,8
    19f8:	1319000a 	beq	t8,t9,1a24 <n35_bltzal_test+0x1a24>
    19fc:	00000000 	nop
    1a00:	00000000 	nop
    1a04:	3c18bfc0 	lui	t8,0xbfc0
    1a08:	37181264 	ori	t8,t8,0x1264
    1a0c:	27180008 	addiu	t8,t8,8
    1a10:	1319000a 	beq	t8,t9,1a3c <n35_bltzal_test+0x1a3c>
    1a14:	00000000 	nop
    1a18:	10004277 	b	123f8 <inst_error>
    1a1c:	00000000 	nop
    1a20:	00000000 	nop
    1a24:	26b50008 	addiu	s5,s5,8
    1a28:	16954273 	bne	s4,s5,123f8 <inst_error>
    1a2c:	00000000 	nop
    1a30:	10000006 	b	1a4c <n35_bltzal_test+0x1a4c>
    1a34:	00000000 	nop
    1a38:	00000000 	nop
    1a3c:	26d60008 	addiu	s6,s6,8
    1a40:	1696426d 	bne	s4,s6,123f8 <inst_error>
    1a44:	00000000 	nop
	...
    1a50:	001fa821 	addu	s5,zero,ra
    1a54:	3c0c7417 	lui	t4,0x7417
    1a58:	358c63bc 	ori	t4,t4,0x63bc
    1a5c:	3c0d3ec4 	lui	t5,0x3ec4
    1a60:	35ad6470 	ori	t5,t5,0x6470
    1a64:	24100000 	li	s0,0
    1a68:	10000014 	b	1abc <n35_bltzal_test+0x1abc>
    1a6c:	24120000 	li	s2,0
    1a70:	00000000 	nop
    1a74:	3c107417 	lui	s0,0x7417
    1a78:	361063bc 	ori	s0,s0,0x63bc
    1a7c:	05100025 	bltzal	t0,1b14 <n35_bltzal_test+0x1b14>
    1a80:	00000000 	nop
    1a84:	10000025 	b	1b1c <n35_bltzal_test+0x1b1c>
    1a88:	00000000 	nop
    1a8c:	00000000 	nop
    1a90:	00000021 	move	zero,zero
    1a94:	00000021 	move	zero,zero
    1a98:	00000021 	move	zero,zero
    1a9c:	00000021 	move	zero,zero
    1aa0:	00000021 	move	zero,zero
    1aa4:	00000021 	move	zero,zero
    1aa8:	00000021 	move	zero,zero
    1aac:	00000021 	move	zero,zero
    1ab0:	00000021 	move	zero,zero
    1ab4:	00000021 	move	zero,zero
    1ab8:	00000021 	move	zero,zero
    1abc:	3c080517 	lui	t0,0x517
    1ac0:	35082a80 	ori	t0,t0,0x2a80
    1ac4:	0510ffeb 	bltzal	t0,1a74 <n35_bltzal_test+0x1a74>
    1ac8:	00000000 	nop
    1acc:	10000013 	b	1b1c <n35_bltzal_test+0x1b1c>
    1ad0:	00000000 	nop
    1ad4:	00000000 	nop
    1ad8:	00000021 	move	zero,zero
    1adc:	00000021 	move	zero,zero
    1ae0:	00000021 	move	zero,zero
    1ae4:	00000021 	move	zero,zero
    1ae8:	00000021 	move	zero,zero
    1aec:	00000021 	move	zero,zero
    1af0:	00000021 	move	zero,zero
    1af4:	00000021 	move	zero,zero
    1af8:	00000021 	move	zero,zero
    1afc:	00000021 	move	zero,zero
    1b00:	00000021 	move	zero,zero
    1b04:	00000021 	move	zero,zero
    1b08:	00000021 	move	zero,zero
    1b0c:	00000021 	move	zero,zero
    1b10:	00000021 	move	zero,zero
    1b14:	3c123ec4 	lui	s2,0x3ec4
    1b18:	36526470 	ori	s2,s2,0x6470
    1b1c:	001fa021 	addu	s4,zero,ra
    1b20:	0015f821 	addu	ra,zero,s5
    1b24:	3c150000 	lui	s5,0x0
    1b28:	26b51a7c 	addiu	s5,s5,6780
    1b2c:	3c160000 	lui	s6,0x0
    1b30:	26d61ac4 	addiu	s6,s6,6852
    1b34:	24180000 	li	t8,0
    1b38:	1618422f 	bne	s0,t8,123f8 <inst_error>
    1b3c:	00000000 	nop
    1b40:	00000000 	nop
    1b44:	24180000 	li	t8,0
    1b48:	1658422b 	bne	s2,t8,123f8 <inst_error>
    1b4c:	00000000 	nop
    1b50:	00000000 	nop
    1b54:	3c19bfc0 	lui	t9,0xbfc0
    1b58:	37391344 	ori	t9,t9,0x1344
    1b5c:	3c18bfc0 	lui	t8,0xbfc0
    1b60:	3718130c 	ori	t8,t8,0x130c
    1b64:	27180008 	addiu	t8,t8,8
    1b68:	1319000a 	beq	t8,t9,1b94 <n35_bltzal_test+0x1b94>
    1b6c:	00000000 	nop
    1b70:	00000000 	nop
    1b74:	3c18bfc0 	lui	t8,0xbfc0
    1b78:	3718133c 	ori	t8,t8,0x133c
    1b7c:	27180008 	addiu	t8,t8,8
    1b80:	1319000a 	beq	t8,t9,1bac <n35_bltzal_test+0x1bac>
    1b84:	00000000 	nop
    1b88:	1000421b 	b	123f8 <inst_error>
    1b8c:	00000000 	nop
    1b90:	00000000 	nop
    1b94:	26b50008 	addiu	s5,s5,8
    1b98:	16954217 	bne	s4,s5,123f8 <inst_error>
    1b9c:	00000000 	nop
    1ba0:	10000006 	b	1bbc <n35_bltzal_test+0x1bbc>
    1ba4:	00000000 	nop
    1ba8:	00000000 	nop
    1bac:	26d60008 	addiu	s6,s6,8
    1bb0:	16964211 	bne	s4,s6,123f8 <inst_error>
    1bb4:	00000000 	nop
	...
    1bc0:	001fa821 	addu	s5,zero,ra
    1bc4:	3c0cf3da 	lui	t4,0xf3da
    1bc8:	358ccee9 	ori	t4,t4,0xcee9
    1bcc:	3c0d7606 	lui	t5,0x7606
    1bd0:	35add4f0 	ori	t5,t5,0xd4f0
    1bd4:	24100000 	li	s0,0
    1bd8:	10000014 	b	1c2c <n35_bltzal_test+0x1c2c>
    1bdc:	24120000 	li	s2,0
    1be0:	00000000 	nop
    1be4:	3c10f3da 	lui	s0,0xf3da
    1be8:	3610cee9 	ori	s0,s0,0xcee9
    1bec:	05100025 	bltzal	t0,1c84 <n35_bltzal_test+0x1c84>
    1bf0:	00000000 	nop
    1bf4:	10000025 	b	1c8c <n35_bltzal_test+0x1c8c>
    1bf8:	00000000 	nop
    1bfc:	00000000 	nop
    1c00:	00000021 	move	zero,zero
    1c04:	00000021 	move	zero,zero
    1c08:	00000021 	move	zero,zero
    1c0c:	00000021 	move	zero,zero
    1c10:	00000021 	move	zero,zero
    1c14:	00000021 	move	zero,zero
    1c18:	00000021 	move	zero,zero
    1c1c:	00000021 	move	zero,zero
    1c20:	00000021 	move	zero,zero
    1c24:	00000021 	move	zero,zero
    1c28:	00000021 	move	zero,zero
    1c2c:	3c08ae59 	lui	t0,0xae59
    1c30:	35083468 	ori	t0,t0,0x3468
    1c34:	0510ffeb 	bltzal	t0,1be4 <n35_bltzal_test+0x1be4>
    1c38:	00000000 	nop
    1c3c:	10000013 	b	1c8c <n35_bltzal_test+0x1c8c>
    1c40:	00000000 	nop
    1c44:	00000000 	nop
    1c48:	00000021 	move	zero,zero
    1c4c:	00000021 	move	zero,zero
    1c50:	00000021 	move	zero,zero
    1c54:	00000021 	move	zero,zero
    1c58:	00000021 	move	zero,zero
    1c5c:	00000021 	move	zero,zero
    1c60:	00000021 	move	zero,zero
    1c64:	00000021 	move	zero,zero
    1c68:	00000021 	move	zero,zero
    1c6c:	00000021 	move	zero,zero
    1c70:	00000021 	move	zero,zero
    1c74:	00000021 	move	zero,zero
    1c78:	00000021 	move	zero,zero
    1c7c:	00000021 	move	zero,zero
    1c80:	00000021 	move	zero,zero
    1c84:	3c127606 	lui	s2,0x7606
    1c88:	3652d4f0 	ori	s2,s2,0xd4f0
    1c8c:	001fa021 	addu	s4,zero,ra
    1c90:	0015f821 	addu	ra,zero,s5
    1c94:	3c150000 	lui	s5,0x0
    1c98:	26b51bec 	addiu	s5,s5,7148
    1c9c:	3c160000 	lui	s6,0x0
    1ca0:	26d61c34 	addiu	s6,s6,7220
    1ca4:	3c18f3da 	lui	t8,0xf3da
    1ca8:	3718cee9 	ori	t8,t8,0xcee9
    1cac:	161841d2 	bne	s0,t8,123f8 <inst_error>
    1cb0:	00000000 	nop
    1cb4:	00000000 	nop
    1cb8:	3c187606 	lui	t8,0x7606
    1cbc:	3718d4f0 	ori	t8,t8,0xd4f0
    1cc0:	165841cd 	bne	s2,t8,123f8 <inst_error>
    1cc4:	00000000 	nop
    1cc8:	00000000 	nop
    1ccc:	3c19bfc0 	lui	t9,0xbfc0
    1cd0:	373913ec 	ori	t9,t9,0x13ec
    1cd4:	3c18bfc0 	lui	t8,0xbfc0
    1cd8:	371813e4 	ori	t8,t8,0x13e4
    1cdc:	27180008 	addiu	t8,t8,8
    1ce0:	1319000a 	beq	t8,t9,1d0c <n35_bltzal_test+0x1d0c>
    1ce4:	00000000 	nop
    1ce8:	00000000 	nop
    1cec:	3c18bfc0 	lui	t8,0xbfc0
    1cf0:	37181414 	ori	t8,t8,0x1414
    1cf4:	27180008 	addiu	t8,t8,8
    1cf8:	1319000a 	beq	t8,t9,1d24 <n35_bltzal_test+0x1d24>
    1cfc:	00000000 	nop
    1d00:	100041bd 	b	123f8 <inst_error>
    1d04:	00000000 	nop
    1d08:	00000000 	nop
    1d0c:	26b50008 	addiu	s5,s5,8
    1d10:	169541b9 	bne	s4,s5,123f8 <inst_error>
    1d14:	00000000 	nop
    1d18:	10000006 	b	1d34 <n35_bltzal_test+0x1d34>
    1d1c:	00000000 	nop
    1d20:	00000000 	nop
    1d24:	26d60008 	addiu	s6,s6,8
    1d28:	169641b3 	bne	s4,s6,123f8 <inst_error>
    1d2c:	00000000 	nop
	...
    1d38:	001fa821 	addu	s5,zero,ra
    1d3c:	3c0c0551 	lui	t4,0x551
    1d40:	358cf160 	ori	t4,t4,0xf160
    1d44:	3c0d4f00 	lui	t5,0x4f00
    1d48:	35ad6da0 	ori	t5,t5,0x6da0
    1d4c:	24100000 	li	s0,0
    1d50:	10000014 	b	1da4 <n35_bltzal_test+0x1da4>
    1d54:	24120000 	li	s2,0
    1d58:	00000000 	nop
    1d5c:	3c100551 	lui	s0,0x551
    1d60:	3610f160 	ori	s0,s0,0xf160
    1d64:	05100025 	bltzal	t0,1dfc <n35_bltzal_test+0x1dfc>
    1d68:	00000000 	nop
    1d6c:	10000025 	b	1e04 <n35_bltzal_test+0x1e04>
    1d70:	00000000 	nop
    1d74:	00000000 	nop
    1d78:	00000021 	move	zero,zero
    1d7c:	00000021 	move	zero,zero
    1d80:	00000021 	move	zero,zero
    1d84:	00000021 	move	zero,zero
    1d88:	00000021 	move	zero,zero
    1d8c:	00000021 	move	zero,zero
    1d90:	00000021 	move	zero,zero
    1d94:	00000021 	move	zero,zero
    1d98:	00000021 	move	zero,zero
    1d9c:	00000021 	move	zero,zero
    1da0:	00000021 	move	zero,zero
    1da4:	3c0891d6 	lui	t0,0x91d6
    1da8:	3508b8c2 	ori	t0,t0,0xb8c2
    1dac:	0510ffeb 	bltzal	t0,1d5c <n35_bltzal_test+0x1d5c>
    1db0:	00000000 	nop
    1db4:	10000013 	b	1e04 <n35_bltzal_test+0x1e04>
    1db8:	00000000 	nop
    1dbc:	00000000 	nop
    1dc0:	00000021 	move	zero,zero
    1dc4:	00000021 	move	zero,zero
    1dc8:	00000021 	move	zero,zero
    1dcc:	00000021 	move	zero,zero
    1dd0:	00000021 	move	zero,zero
    1dd4:	00000021 	move	zero,zero
    1dd8:	00000021 	move	zero,zero
    1ddc:	00000021 	move	zero,zero
    1de0:	00000021 	move	zero,zero
    1de4:	00000021 	move	zero,zero
    1de8:	00000021 	move	zero,zero
    1dec:	00000021 	move	zero,zero
    1df0:	00000021 	move	zero,zero
    1df4:	00000021 	move	zero,zero
    1df8:	00000021 	move	zero,zero
    1dfc:	3c124f00 	lui	s2,0x4f00
    1e00:	36526da0 	ori	s2,s2,0x6da0
    1e04:	001fa021 	addu	s4,zero,ra
    1e08:	0015f821 	addu	ra,zero,s5
    1e0c:	3c150000 	lui	s5,0x0
    1e10:	26b51d64 	addiu	s5,s5,7524
    1e14:	3c160000 	lui	s6,0x0
    1e18:	26d61dac 	addiu	s6,s6,7596
    1e1c:	3c180551 	lui	t8,0x551
    1e20:	3718f160 	ori	t8,t8,0xf160
    1e24:	16184174 	bne	s0,t8,123f8 <inst_error>
    1e28:	00000000 	nop
    1e2c:	00000000 	nop
    1e30:	3c184f00 	lui	t8,0x4f00
    1e34:	37186da0 	ori	t8,t8,0x6da0
    1e38:	1658416f 	bne	s2,t8,123f8 <inst_error>
    1e3c:	00000000 	nop
    1e40:	00000000 	nop
    1e44:	3c19bfc0 	lui	t9,0xbfc0
    1e48:	373914c4 	ori	t9,t9,0x14c4
    1e4c:	3c18bfc0 	lui	t8,0xbfc0
    1e50:	371814bc 	ori	t8,t8,0x14bc
    1e54:	27180008 	addiu	t8,t8,8
    1e58:	1319000a 	beq	t8,t9,1e84 <n35_bltzal_test+0x1e84>
    1e5c:	00000000 	nop
    1e60:	00000000 	nop
    1e64:	3c18bfc0 	lui	t8,0xbfc0
    1e68:	371814ec 	ori	t8,t8,0x14ec
    1e6c:	27180008 	addiu	t8,t8,8
    1e70:	1319000a 	beq	t8,t9,1e9c <n35_bltzal_test+0x1e9c>
    1e74:	00000000 	nop
    1e78:	1000415f 	b	123f8 <inst_error>
    1e7c:	00000000 	nop
    1e80:	00000000 	nop
    1e84:	26b50008 	addiu	s5,s5,8
    1e88:	1695415b 	bne	s4,s5,123f8 <inst_error>
    1e8c:	00000000 	nop
    1e90:	10000006 	b	1eac <n35_bltzal_test+0x1eac>
    1e94:	00000000 	nop
    1e98:	00000000 	nop
    1e9c:	26d60008 	addiu	s6,s6,8
    1ea0:	16964155 	bne	s4,s6,123f8 <inst_error>
    1ea4:	00000000 	nop
	...
    1eb0:	001fa821 	addu	s5,zero,ra
    1eb4:	3c0c97ee 	lui	t4,0x97ee
    1eb8:	358c8758 	ori	t4,t4,0x8758
    1ebc:	3c0d17d5 	lui	t5,0x17d5
    1ec0:	35ad54a0 	ori	t5,t5,0x54a0
    1ec4:	24100000 	li	s0,0
    1ec8:	10000014 	b	1f1c <n35_bltzal_test+0x1f1c>
    1ecc:	24120000 	li	s2,0
    1ed0:	00000000 	nop
    1ed4:	3c1097ee 	lui	s0,0x97ee
    1ed8:	36108758 	ori	s0,s0,0x8758
    1edc:	05100025 	bltzal	t0,1f74 <n35_bltzal_test+0x1f74>
    1ee0:	00000000 	nop
    1ee4:	10000025 	b	1f7c <n35_bltzal_test+0x1f7c>
    1ee8:	00000000 	nop
    1eec:	00000000 	nop
    1ef0:	00000021 	move	zero,zero
    1ef4:	00000021 	move	zero,zero
    1ef8:	00000021 	move	zero,zero
    1efc:	00000021 	move	zero,zero
    1f00:	00000021 	move	zero,zero
    1f04:	00000021 	move	zero,zero
    1f08:	00000021 	move	zero,zero
    1f0c:	00000021 	move	zero,zero
    1f10:	00000021 	move	zero,zero
    1f14:	00000021 	move	zero,zero
    1f18:	00000021 	move	zero,zero
    1f1c:	3c08a06b 	lui	t0,0xa06b
    1f20:	35086b90 	ori	t0,t0,0x6b90
    1f24:	0510ffeb 	bltzal	t0,1ed4 <n35_bltzal_test+0x1ed4>
    1f28:	00000000 	nop
    1f2c:	10000013 	b	1f7c <n35_bltzal_test+0x1f7c>
    1f30:	00000000 	nop
    1f34:	00000000 	nop
    1f38:	00000021 	move	zero,zero
    1f3c:	00000021 	move	zero,zero
    1f40:	00000021 	move	zero,zero
    1f44:	00000021 	move	zero,zero
    1f48:	00000021 	move	zero,zero
    1f4c:	00000021 	move	zero,zero
    1f50:	00000021 	move	zero,zero
    1f54:	00000021 	move	zero,zero
    1f58:	00000021 	move	zero,zero
    1f5c:	00000021 	move	zero,zero
    1f60:	00000021 	move	zero,zero
    1f64:	00000021 	move	zero,zero
    1f68:	00000021 	move	zero,zero
    1f6c:	00000021 	move	zero,zero
    1f70:	00000021 	move	zero,zero
    1f74:	3c1217d5 	lui	s2,0x17d5
    1f78:	365254a0 	ori	s2,s2,0x54a0
    1f7c:	001fa021 	addu	s4,zero,ra
    1f80:	0015f821 	addu	ra,zero,s5
    1f84:	3c150000 	lui	s5,0x0
    1f88:	26b51edc 	addiu	s5,s5,7900
    1f8c:	3c160000 	lui	s6,0x0
    1f90:	26d61f24 	addiu	s6,s6,7972
    1f94:	3c1897ee 	lui	t8,0x97ee
    1f98:	37188758 	ori	t8,t8,0x8758
    1f9c:	16184116 	bne	s0,t8,123f8 <inst_error>
    1fa0:	00000000 	nop
    1fa4:	00000000 	nop
    1fa8:	3c1817d5 	lui	t8,0x17d5
    1fac:	371854a0 	ori	t8,t8,0x54a0
    1fb0:	16584111 	bne	s2,t8,123f8 <inst_error>
    1fb4:	00000000 	nop
    1fb8:	00000000 	nop
    1fbc:	3c19bfc0 	lui	t9,0xbfc0
    1fc0:	3739159c 	ori	t9,t9,0x159c
    1fc4:	3c18bfc0 	lui	t8,0xbfc0
    1fc8:	37181594 	ori	t8,t8,0x1594
    1fcc:	27180008 	addiu	t8,t8,8
    1fd0:	1319000a 	beq	t8,t9,1ffc <n35_bltzal_test+0x1ffc>
    1fd4:	00000000 	nop
    1fd8:	00000000 	nop
    1fdc:	3c18bfc0 	lui	t8,0xbfc0
    1fe0:	371815c4 	ori	t8,t8,0x15c4
    1fe4:	27180008 	addiu	t8,t8,8
    1fe8:	1319000a 	beq	t8,t9,2014 <n35_bltzal_test+0x2014>
    1fec:	00000000 	nop
    1ff0:	10004101 	b	123f8 <inst_error>
    1ff4:	00000000 	nop
    1ff8:	00000000 	nop
    1ffc:	26b50008 	addiu	s5,s5,8
    2000:	169540fd 	bne	s4,s5,123f8 <inst_error>
    2004:	00000000 	nop
    2008:	10000006 	b	2024 <n35_bltzal_test+0x2024>
    200c:	00000000 	nop
    2010:	00000000 	nop
    2014:	26d60008 	addiu	s6,s6,8
    2018:	169640f7 	bne	s4,s6,123f8 <inst_error>
    201c:	00000000 	nop
	...
    2028:	001fa821 	addu	s5,zero,ra
    202c:	3c0c5ec9 	lui	t4,0x5ec9
    2030:	358c46e0 	ori	t4,t4,0x46e0
    2034:	3c0d077f 	lui	t5,0x77f
    2038:	35ad958c 	ori	t5,t5,0x958c
    203c:	24100000 	li	s0,0
    2040:	10000014 	b	2094 <n35_bltzal_test+0x2094>
    2044:	24120000 	li	s2,0
    2048:	00000000 	nop
    204c:	3c105ec9 	lui	s0,0x5ec9
    2050:	361046e0 	ori	s0,s0,0x46e0
    2054:	05100025 	bltzal	t0,20ec <n35_bltzal_test+0x20ec>
    2058:	00000000 	nop
    205c:	10000025 	b	20f4 <n35_bltzal_test+0x20f4>
    2060:	00000000 	nop
    2064:	00000000 	nop
    2068:	00000021 	move	zero,zero
    206c:	00000021 	move	zero,zero
    2070:	00000021 	move	zero,zero
    2074:	00000021 	move	zero,zero
    2078:	00000021 	move	zero,zero
    207c:	00000021 	move	zero,zero
    2080:	00000021 	move	zero,zero
    2084:	00000021 	move	zero,zero
    2088:	00000021 	move	zero,zero
    208c:	00000021 	move	zero,zero
    2090:	00000021 	move	zero,zero
    2094:	3c087ba5 	lui	t0,0x7ba5
    2098:	35089500 	ori	t0,t0,0x9500
    209c:	0510ffeb 	bltzal	t0,204c <n35_bltzal_test+0x204c>
    20a0:	00000000 	nop
    20a4:	10000013 	b	20f4 <n35_bltzal_test+0x20f4>
    20a8:	00000000 	nop
    20ac:	00000000 	nop
    20b0:	00000021 	move	zero,zero
    20b4:	00000021 	move	zero,zero
    20b8:	00000021 	move	zero,zero
    20bc:	00000021 	move	zero,zero
    20c0:	00000021 	move	zero,zero
    20c4:	00000021 	move	zero,zero
    20c8:	00000021 	move	zero,zero
    20cc:	00000021 	move	zero,zero
    20d0:	00000021 	move	zero,zero
    20d4:	00000021 	move	zero,zero
    20d8:	00000021 	move	zero,zero
    20dc:	00000021 	move	zero,zero
    20e0:	00000021 	move	zero,zero
    20e4:	00000021 	move	zero,zero
    20e8:	00000021 	move	zero,zero
    20ec:	3c12077f 	lui	s2,0x77f
    20f0:	3652958c 	ori	s2,s2,0x958c
    20f4:	001fa021 	addu	s4,zero,ra
    20f8:	0015f821 	addu	ra,zero,s5
    20fc:	3c150000 	lui	s5,0x0
    2100:	26b52054 	addiu	s5,s5,8276
    2104:	3c160000 	lui	s6,0x0
    2108:	26d6209c 	addiu	s6,s6,8348
    210c:	24180000 	li	t8,0
    2110:	161840b9 	bne	s0,t8,123f8 <inst_error>
    2114:	00000000 	nop
    2118:	00000000 	nop
    211c:	24180000 	li	t8,0
    2120:	165840b5 	bne	s2,t8,123f8 <inst_error>
    2124:	00000000 	nop
    2128:	00000000 	nop
    212c:	3c19bfc0 	lui	t9,0xbfc0
    2130:	373916a4 	ori	t9,t9,0x16a4
    2134:	3c18bfc0 	lui	t8,0xbfc0
    2138:	3718166c 	ori	t8,t8,0x166c
    213c:	27180008 	addiu	t8,t8,8
    2140:	1319000a 	beq	t8,t9,216c <n35_bltzal_test+0x216c>
    2144:	00000000 	nop
    2148:	00000000 	nop
    214c:	3c18bfc0 	lui	t8,0xbfc0
    2150:	3718169c 	ori	t8,t8,0x169c
    2154:	27180008 	addiu	t8,t8,8
    2158:	1319000a 	beq	t8,t9,2184 <n35_bltzal_test+0x2184>
    215c:	00000000 	nop
    2160:	100040a5 	b	123f8 <inst_error>
    2164:	00000000 	nop
    2168:	00000000 	nop
    216c:	26b50008 	addiu	s5,s5,8
    2170:	169540a1 	bne	s4,s5,123f8 <inst_error>
    2174:	00000000 	nop
    2178:	10000006 	b	2194 <n35_bltzal_test+0x2194>
    217c:	00000000 	nop
    2180:	00000000 	nop
    2184:	26d60008 	addiu	s6,s6,8
    2188:	1696409b 	bne	s4,s6,123f8 <inst_error>
    218c:	00000000 	nop
	...
    2198:	001fa821 	addu	s5,zero,ra
    219c:	3c0c3de2 	lui	t4,0x3de2
    21a0:	358cfb80 	ori	t4,t4,0xfb80
    21a4:	3c0db3da 	lui	t5,0xb3da
    21a8:	35ad8ec0 	ori	t5,t5,0x8ec0
    21ac:	24100000 	li	s0,0
    21b0:	10000014 	b	2204 <n35_bltzal_test+0x2204>
    21b4:	24120000 	li	s2,0
    21b8:	00000000 	nop
    21bc:	3c103de2 	lui	s0,0x3de2
    21c0:	3610fb80 	ori	s0,s0,0xfb80
    21c4:	05100025 	bltzal	t0,225c <n35_bltzal_test+0x225c>
    21c8:	00000000 	nop
    21cc:	10000025 	b	2264 <n35_bltzal_test+0x2264>
    21d0:	00000000 	nop
    21d4:	00000000 	nop
    21d8:	00000021 	move	zero,zero
    21dc:	00000021 	move	zero,zero
    21e0:	00000021 	move	zero,zero
    21e4:	00000021 	move	zero,zero
    21e8:	00000021 	move	zero,zero
    21ec:	00000021 	move	zero,zero
    21f0:	00000021 	move	zero,zero
    21f4:	00000021 	move	zero,zero
    21f8:	00000021 	move	zero,zero
    21fc:	00000021 	move	zero,zero
    2200:	00000021 	move	zero,zero
    2204:	3c08f952 	lui	t0,0xf952
    2208:	3508c748 	ori	t0,t0,0xc748
    220c:	0510ffeb 	bltzal	t0,21bc <n35_bltzal_test+0x21bc>
    2210:	00000000 	nop
    2214:	10000013 	b	2264 <n35_bltzal_test+0x2264>
    2218:	00000000 	nop
    221c:	00000000 	nop
    2220:	00000021 	move	zero,zero
    2224:	00000021 	move	zero,zero
    2228:	00000021 	move	zero,zero
    222c:	00000021 	move	zero,zero
    2230:	00000021 	move	zero,zero
    2234:	00000021 	move	zero,zero
    2238:	00000021 	move	zero,zero
    223c:	00000021 	move	zero,zero
    2240:	00000021 	move	zero,zero
    2244:	00000021 	move	zero,zero
    2248:	00000021 	move	zero,zero
    224c:	00000021 	move	zero,zero
    2250:	00000021 	move	zero,zero
    2254:	00000021 	move	zero,zero
    2258:	00000021 	move	zero,zero
    225c:	3c12b3da 	lui	s2,0xb3da
    2260:	36528ec0 	ori	s2,s2,0x8ec0
    2264:	001fa021 	addu	s4,zero,ra
    2268:	0015f821 	addu	ra,zero,s5
    226c:	3c150000 	lui	s5,0x0
    2270:	26b521c4 	addiu	s5,s5,8644
    2274:	3c160000 	lui	s6,0x0
    2278:	26d6220c 	addiu	s6,s6,8716
    227c:	3c183de2 	lui	t8,0x3de2
    2280:	3718fb80 	ori	t8,t8,0xfb80
    2284:	1618405c 	bne	s0,t8,123f8 <inst_error>
    2288:	00000000 	nop
    228c:	00000000 	nop
    2290:	3c18b3da 	lui	t8,0xb3da
    2294:	37188ec0 	ori	t8,t8,0x8ec0
    2298:	16584057 	bne	s2,t8,123f8 <inst_error>
    229c:	00000000 	nop
    22a0:	00000000 	nop
    22a4:	3c19bfc0 	lui	t9,0xbfc0
    22a8:	3739174c 	ori	t9,t9,0x174c
    22ac:	3c18bfc0 	lui	t8,0xbfc0
    22b0:	37181744 	ori	t8,t8,0x1744
    22b4:	27180008 	addiu	t8,t8,8
    22b8:	1319000a 	beq	t8,t9,22e4 <n35_bltzal_test+0x22e4>
    22bc:	00000000 	nop
    22c0:	00000000 	nop
    22c4:	3c18bfc0 	lui	t8,0xbfc0
    22c8:	37181774 	ori	t8,t8,0x1774
    22cc:	27180008 	addiu	t8,t8,8
    22d0:	1319000a 	beq	t8,t9,22fc <n35_bltzal_test+0x22fc>
    22d4:	00000000 	nop
    22d8:	10004047 	b	123f8 <inst_error>
    22dc:	00000000 	nop
    22e0:	00000000 	nop
    22e4:	26b50008 	addiu	s5,s5,8
    22e8:	16954043 	bne	s4,s5,123f8 <inst_error>
    22ec:	00000000 	nop
    22f0:	10000006 	b	230c <n35_bltzal_test+0x230c>
    22f4:	00000000 	nop
    22f8:	00000000 	nop
    22fc:	26d60008 	addiu	s6,s6,8
    2300:	1696403d 	bne	s4,s6,123f8 <inst_error>
    2304:	00000000 	nop
	...
    2310:	001fa821 	addu	s5,zero,ra
    2314:	3c0c7e35 	lui	t4,0x7e35
    2318:	358cd110 	ori	t4,t4,0xd110
    231c:	3c0dc636 	lui	t5,0xc636
    2320:	35adc3b0 	ori	t5,t5,0xc3b0
    2324:	24100000 	li	s0,0
    2328:	10000014 	b	237c <n35_bltzal_test+0x237c>
    232c:	24120000 	li	s2,0
    2330:	00000000 	nop
    2334:	3c107e35 	lui	s0,0x7e35
    2338:	3610d110 	ori	s0,s0,0xd110
    233c:	05100025 	bltzal	t0,23d4 <n35_bltzal_test+0x23d4>
    2340:	00000000 	nop
    2344:	10000025 	b	23dc <n35_bltzal_test+0x23dc>
    2348:	00000000 	nop
    234c:	00000000 	nop
    2350:	00000021 	move	zero,zero
    2354:	00000021 	move	zero,zero
    2358:	00000021 	move	zero,zero
    235c:	00000021 	move	zero,zero
    2360:	00000021 	move	zero,zero
    2364:	00000021 	move	zero,zero
    2368:	00000021 	move	zero,zero
    236c:	00000021 	move	zero,zero
    2370:	00000021 	move	zero,zero
    2374:	00000021 	move	zero,zero
    2378:	00000021 	move	zero,zero
    237c:	3c08d77c 	lui	t0,0xd77c
    2380:	35083bd3 	ori	t0,t0,0x3bd3
    2384:	0510ffeb 	bltzal	t0,2334 <n35_bltzal_test+0x2334>
    2388:	00000000 	nop
    238c:	10000013 	b	23dc <n35_bltzal_test+0x23dc>
    2390:	00000000 	nop
    2394:	00000000 	nop
    2398:	00000021 	move	zero,zero
    239c:	00000021 	move	zero,zero
    23a0:	00000021 	move	zero,zero
    23a4:	00000021 	move	zero,zero
    23a8:	00000021 	move	zero,zero
    23ac:	00000021 	move	zero,zero
    23b0:	00000021 	move	zero,zero
    23b4:	00000021 	move	zero,zero
    23b8:	00000021 	move	zero,zero
    23bc:	00000021 	move	zero,zero
    23c0:	00000021 	move	zero,zero
    23c4:	00000021 	move	zero,zero
    23c8:	00000021 	move	zero,zero
    23cc:	00000021 	move	zero,zero
    23d0:	00000021 	move	zero,zero
    23d4:	3c12c636 	lui	s2,0xc636
    23d8:	3652c3b0 	ori	s2,s2,0xc3b0
    23dc:	001fa021 	addu	s4,zero,ra
    23e0:	0015f821 	addu	ra,zero,s5
    23e4:	3c150000 	lui	s5,0x0
    23e8:	26b5233c 	addiu	s5,s5,9020
    23ec:	3c160000 	lui	s6,0x0
    23f0:	26d62384 	addiu	s6,s6,9092
    23f4:	3c187e35 	lui	t8,0x7e35
    23f8:	3718d110 	ori	t8,t8,0xd110
    23fc:	16183ffe 	bne	s0,t8,123f8 <inst_error>
    2400:	00000000 	nop
    2404:	00000000 	nop
    2408:	3c18c636 	lui	t8,0xc636
    240c:	3718c3b0 	ori	t8,t8,0xc3b0
    2410:	16583ff9 	bne	s2,t8,123f8 <inst_error>
    2414:	00000000 	nop
    2418:	00000000 	nop
    241c:	3c19bfc0 	lui	t9,0xbfc0
    2420:	37391824 	ori	t9,t9,0x1824
    2424:	3c18bfc0 	lui	t8,0xbfc0
    2428:	3718181c 	ori	t8,t8,0x181c
    242c:	27180008 	addiu	t8,t8,8
    2430:	1319000a 	beq	t8,t9,245c <n35_bltzal_test+0x245c>
    2434:	00000000 	nop
    2438:	00000000 	nop
    243c:	3c18bfc0 	lui	t8,0xbfc0
    2440:	3718184c 	ori	t8,t8,0x184c
    2444:	27180008 	addiu	t8,t8,8
    2448:	1319000a 	beq	t8,t9,2474 <n35_bltzal_test+0x2474>
    244c:	00000000 	nop
    2450:	10003fe9 	b	123f8 <inst_error>
    2454:	00000000 	nop
    2458:	00000000 	nop
    245c:	26b50008 	addiu	s5,s5,8
    2460:	16953fe5 	bne	s4,s5,123f8 <inst_error>
    2464:	00000000 	nop
    2468:	10000006 	b	2484 <n35_bltzal_test+0x2484>
    246c:	00000000 	nop
    2470:	00000000 	nop
    2474:	26d60008 	addiu	s6,s6,8
    2478:	16963fdf 	bne	s4,s6,123f8 <inst_error>
    247c:	00000000 	nop
	...
    2488:	001fa821 	addu	s5,zero,ra
    248c:	3c0c2371 	lui	t4,0x2371
    2490:	358c60b4 	ori	t4,t4,0x60b4
    2494:	3c0d4daf 	lui	t5,0x4daf
    2498:	35ad87f0 	ori	t5,t5,0x87f0
    249c:	24100000 	li	s0,0
    24a0:	10000014 	b	24f4 <n35_bltzal_test+0x24f4>
    24a4:	24120000 	li	s2,0
    24a8:	00000000 	nop
    24ac:	3c102371 	lui	s0,0x2371
    24b0:	361060b4 	ori	s0,s0,0x60b4
    24b4:	05100025 	bltzal	t0,254c <n35_bltzal_test+0x254c>
    24b8:	00000000 	nop
    24bc:	10000025 	b	2554 <n35_bltzal_test+0x2554>
    24c0:	00000000 	nop
    24c4:	00000000 	nop
    24c8:	00000021 	move	zero,zero
    24cc:	00000021 	move	zero,zero
    24d0:	00000021 	move	zero,zero
    24d4:	00000021 	move	zero,zero
    24d8:	00000021 	move	zero,zero
    24dc:	00000021 	move	zero,zero
    24e0:	00000021 	move	zero,zero
    24e4:	00000021 	move	zero,zero
    24e8:	00000021 	move	zero,zero
    24ec:	00000021 	move	zero,zero
    24f0:	00000021 	move	zero,zero
    24f4:	3c0826dd 	lui	t0,0x26dd
    24f8:	3508a6d0 	ori	t0,t0,0xa6d0
    24fc:	0510ffeb 	bltzal	t0,24ac <n35_bltzal_test+0x24ac>
    2500:	00000000 	nop
    2504:	10000013 	b	2554 <n35_bltzal_test+0x2554>
    2508:	00000000 	nop
    250c:	00000000 	nop
    2510:	00000021 	move	zero,zero
    2514:	00000021 	move	zero,zero
    2518:	00000021 	move	zero,zero
    251c:	00000021 	move	zero,zero
    2520:	00000021 	move	zero,zero
    2524:	00000021 	move	zero,zero
    2528:	00000021 	move	zero,zero
    252c:	00000021 	move	zero,zero
    2530:	00000021 	move	zero,zero
    2534:	00000021 	move	zero,zero
    2538:	00000021 	move	zero,zero
    253c:	00000021 	move	zero,zero
    2540:	00000021 	move	zero,zero
    2544:	00000021 	move	zero,zero
    2548:	00000021 	move	zero,zero
    254c:	3c124daf 	lui	s2,0x4daf
    2550:	365287f0 	ori	s2,s2,0x87f0
    2554:	001fa021 	addu	s4,zero,ra
    2558:	0015f821 	addu	ra,zero,s5
    255c:	3c150000 	lui	s5,0x0
    2560:	26b524b4 	addiu	s5,s5,9396
    2564:	3c160000 	lui	s6,0x0
    2568:	26d624fc 	addiu	s6,s6,9468
    256c:	24180000 	li	t8,0
    2570:	16183fa1 	bne	s0,t8,123f8 <inst_error>
    2574:	00000000 	nop
    2578:	00000000 	nop
    257c:	24180000 	li	t8,0
    2580:	16583f9d 	bne	s2,t8,123f8 <inst_error>
    2584:	00000000 	nop
    2588:	00000000 	nop
    258c:	3c19bfc0 	lui	t9,0xbfc0
    2590:	3739192c 	ori	t9,t9,0x192c
    2594:	3c18bfc0 	lui	t8,0xbfc0
    2598:	371818f4 	ori	t8,t8,0x18f4
    259c:	27180008 	addiu	t8,t8,8
    25a0:	1319000a 	beq	t8,t9,25cc <n35_bltzal_test+0x25cc>
    25a4:	00000000 	nop
    25a8:	00000000 	nop
    25ac:	3c18bfc0 	lui	t8,0xbfc0
    25b0:	37181924 	ori	t8,t8,0x1924
    25b4:	27180008 	addiu	t8,t8,8
    25b8:	1319000a 	beq	t8,t9,25e4 <n35_bltzal_test+0x25e4>
    25bc:	00000000 	nop
    25c0:	10003f8d 	b	123f8 <inst_error>
    25c4:	00000000 	nop
    25c8:	00000000 	nop
    25cc:	26b50008 	addiu	s5,s5,8
    25d0:	16953f89 	bne	s4,s5,123f8 <inst_error>
    25d4:	00000000 	nop
    25d8:	10000006 	b	25f4 <n35_bltzal_test+0x25f4>
    25dc:	00000000 	nop
    25e0:	00000000 	nop
    25e4:	26d60008 	addiu	s6,s6,8
    25e8:	16963f83 	bne	s4,s6,123f8 <inst_error>
    25ec:	00000000 	nop
	...
    25f8:	001fa821 	addu	s5,zero,ra
    25fc:	3c0c86f4 	lui	t4,0x86f4
    2600:	358c172c 	ori	t4,t4,0x172c
    2604:	3c0d9d07 	lui	t5,0x9d07
    2608:	35ad69e0 	ori	t5,t5,0x69e0
    260c:	24100000 	li	s0,0
    2610:	10000014 	b	2664 <n35_bltzal_test+0x2664>
    2614:	24120000 	li	s2,0
    2618:	00000000 	nop
    261c:	3c1086f4 	lui	s0,0x86f4
    2620:	3610172c 	ori	s0,s0,0x172c
    2624:	05100025 	bltzal	t0,26bc <n35_bltzal_test+0x26bc>
    2628:	00000000 	nop
    262c:	10000025 	b	26c4 <n35_bltzal_test+0x26c4>
    2630:	00000000 	nop
    2634:	00000000 	nop
    2638:	00000021 	move	zero,zero
    263c:	00000021 	move	zero,zero
    2640:	00000021 	move	zero,zero
    2644:	00000021 	move	zero,zero
    2648:	00000021 	move	zero,zero
    264c:	00000021 	move	zero,zero
    2650:	00000021 	move	zero,zero
    2654:	00000021 	move	zero,zero
    2658:	00000021 	move	zero,zero
    265c:	00000021 	move	zero,zero
    2660:	00000021 	move	zero,zero
    2664:	3c08d6cc 	lui	t0,0xd6cc
    2668:	3508a5b0 	ori	t0,t0,0xa5b0
    266c:	0510ffeb 	bltzal	t0,261c <n35_bltzal_test+0x261c>
    2670:	00000000 	nop
    2674:	10000013 	b	26c4 <n35_bltzal_test+0x26c4>
    2678:	00000000 	nop
    267c:	00000000 	nop
    2680:	00000021 	move	zero,zero
    2684:	00000021 	move	zero,zero
    2688:	00000021 	move	zero,zero
    268c:	00000021 	move	zero,zero
    2690:	00000021 	move	zero,zero
    2694:	00000021 	move	zero,zero
    2698:	00000021 	move	zero,zero
    269c:	00000021 	move	zero,zero
    26a0:	00000021 	move	zero,zero
    26a4:	00000021 	move	zero,zero
    26a8:	00000021 	move	zero,zero
    26ac:	00000021 	move	zero,zero
    26b0:	00000021 	move	zero,zero
    26b4:	00000021 	move	zero,zero
    26b8:	00000021 	move	zero,zero
    26bc:	3c129d07 	lui	s2,0x9d07
    26c0:	365269e0 	ori	s2,s2,0x69e0
    26c4:	001fa021 	addu	s4,zero,ra
    26c8:	0015f821 	addu	ra,zero,s5
    26cc:	3c150000 	lui	s5,0x0
    26d0:	26b52624 	addiu	s5,s5,9764
    26d4:	3c160000 	lui	s6,0x0
    26d8:	26d6266c 	addiu	s6,s6,9836
    26dc:	3c1886f4 	lui	t8,0x86f4
    26e0:	3718172c 	ori	t8,t8,0x172c
    26e4:	16183f44 	bne	s0,t8,123f8 <inst_error>
    26e8:	00000000 	nop
    26ec:	00000000 	nop
    26f0:	3c189d07 	lui	t8,0x9d07
    26f4:	371869e0 	ori	t8,t8,0x69e0
    26f8:	16583f3f 	bne	s2,t8,123f8 <inst_error>
    26fc:	00000000 	nop
    2700:	00000000 	nop
    2704:	3c19bfc0 	lui	t9,0xbfc0
    2708:	373919d4 	ori	t9,t9,0x19d4
    270c:	3c18bfc0 	lui	t8,0xbfc0
    2710:	371819cc 	ori	t8,t8,0x19cc
    2714:	27180008 	addiu	t8,t8,8
    2718:	1319000a 	beq	t8,t9,2744 <n35_bltzal_test+0x2744>
    271c:	00000000 	nop
    2720:	00000000 	nop
    2724:	3c18bfc0 	lui	t8,0xbfc0
    2728:	371819fc 	ori	t8,t8,0x19fc
    272c:	27180008 	addiu	t8,t8,8
    2730:	1319000a 	beq	t8,t9,275c <n35_bltzal_test+0x275c>
    2734:	00000000 	nop
    2738:	10003f2f 	b	123f8 <inst_error>
    273c:	00000000 	nop
    2740:	00000000 	nop
    2744:	26b50008 	addiu	s5,s5,8
    2748:	16953f2b 	bne	s4,s5,123f8 <inst_error>
    274c:	00000000 	nop
    2750:	10000006 	b	276c <n35_bltzal_test+0x276c>
    2754:	00000000 	nop
    2758:	00000000 	nop
    275c:	26d60008 	addiu	s6,s6,8
    2760:	16963f25 	bne	s4,s6,123f8 <inst_error>
    2764:	00000000 	nop
	...
    2770:	001fa821 	addu	s5,zero,ra
    2774:	3c0c6b42 	lui	t4,0x6b42
    2778:	358cfd00 	ori	t4,t4,0xfd00
    277c:	3c0ddd50 	lui	t5,0xdd50
    2780:	35adcbc0 	ori	t5,t5,0xcbc0
    2784:	24100000 	li	s0,0
    2788:	10000014 	b	27dc <n35_bltzal_test+0x27dc>
    278c:	24120000 	li	s2,0
    2790:	00000000 	nop
    2794:	3c106b42 	lui	s0,0x6b42
    2798:	3610fd00 	ori	s0,s0,0xfd00
    279c:	05100025 	bltzal	t0,2834 <n35_bltzal_test+0x2834>
    27a0:	00000000 	nop
    27a4:	10000025 	b	283c <n35_bltzal_test+0x283c>
    27a8:	00000000 	nop
    27ac:	00000000 	nop
    27b0:	00000021 	move	zero,zero
    27b4:	00000021 	move	zero,zero
    27b8:	00000021 	move	zero,zero
    27bc:	00000021 	move	zero,zero
    27c0:	00000021 	move	zero,zero
    27c4:	00000021 	move	zero,zero
    27c8:	00000021 	move	zero,zero
    27cc:	00000021 	move	zero,zero
    27d0:	00000021 	move	zero,zero
    27d4:	00000021 	move	zero,zero
    27d8:	00000021 	move	zero,zero
    27dc:	3c0828bc 	lui	t0,0x28bc
    27e0:	350823bd 	ori	t0,t0,0x23bd
    27e4:	0510ffeb 	bltzal	t0,2794 <n35_bltzal_test+0x2794>
    27e8:	00000000 	nop
    27ec:	10000013 	b	283c <n35_bltzal_test+0x283c>
    27f0:	00000000 	nop
    27f4:	00000000 	nop
    27f8:	00000021 	move	zero,zero
    27fc:	00000021 	move	zero,zero
    2800:	00000021 	move	zero,zero
    2804:	00000021 	move	zero,zero
    2808:	00000021 	move	zero,zero
    280c:	00000021 	move	zero,zero
    2810:	00000021 	move	zero,zero
    2814:	00000021 	move	zero,zero
    2818:	00000021 	move	zero,zero
    281c:	00000021 	move	zero,zero
    2820:	00000021 	move	zero,zero
    2824:	00000021 	move	zero,zero
    2828:	00000021 	move	zero,zero
    282c:	00000021 	move	zero,zero
    2830:	00000021 	move	zero,zero
    2834:	3c12dd50 	lui	s2,0xdd50
    2838:	3652cbc0 	ori	s2,s2,0xcbc0
    283c:	001fa021 	addu	s4,zero,ra
    2840:	0015f821 	addu	ra,zero,s5
    2844:	3c150000 	lui	s5,0x0
    2848:	26b5279c 	addiu	s5,s5,10140
    284c:	3c160000 	lui	s6,0x0
    2850:	26d627e4 	addiu	s6,s6,10212
    2854:	24180000 	li	t8,0
    2858:	16183ee7 	bne	s0,t8,123f8 <inst_error>
    285c:	00000000 	nop
    2860:	00000000 	nop
    2864:	24180000 	li	t8,0
    2868:	16583ee3 	bne	s2,t8,123f8 <inst_error>
    286c:	00000000 	nop
    2870:	00000000 	nop
    2874:	3c19bfc0 	lui	t9,0xbfc0
    2878:	37391adc 	ori	t9,t9,0x1adc
    287c:	3c18bfc0 	lui	t8,0xbfc0
    2880:	37181aa4 	ori	t8,t8,0x1aa4
    2884:	27180008 	addiu	t8,t8,8
    2888:	1319000a 	beq	t8,t9,28b4 <n35_bltzal_test+0x28b4>
    288c:	00000000 	nop
    2890:	00000000 	nop
    2894:	3c18bfc0 	lui	t8,0xbfc0
    2898:	37181ad4 	ori	t8,t8,0x1ad4
    289c:	27180008 	addiu	t8,t8,8
    28a0:	1319000a 	beq	t8,t9,28cc <n35_bltzal_test+0x28cc>
    28a4:	00000000 	nop
    28a8:	10003ed3 	b	123f8 <inst_error>
    28ac:	00000000 	nop
    28b0:	00000000 	nop
    28b4:	26b50008 	addiu	s5,s5,8
    28b8:	16953ecf 	bne	s4,s5,123f8 <inst_error>
    28bc:	00000000 	nop
    28c0:	10000006 	b	28dc <n35_bltzal_test+0x28dc>
    28c4:	00000000 	nop
    28c8:	00000000 	nop
    28cc:	26d60008 	addiu	s6,s6,8
    28d0:	16963ec9 	bne	s4,s6,123f8 <inst_error>
    28d4:	00000000 	nop
	...
    28e0:	001fa821 	addu	s5,zero,ra
    28e4:	3c0c9640 	lui	t4,0x9640
    28e8:	358cf3c6 	ori	t4,t4,0xf3c6
    28ec:	3c0dd36f 	lui	t5,0xd36f
    28f0:	35ad4cb6 	ori	t5,t5,0x4cb6
    28f4:	24100000 	li	s0,0
    28f8:	10000014 	b	294c <n35_bltzal_test+0x294c>
    28fc:	24120000 	li	s2,0
    2900:	00000000 	nop
    2904:	3c109640 	lui	s0,0x9640
    2908:	3610f3c6 	ori	s0,s0,0xf3c6
    290c:	05100025 	bltzal	t0,29a4 <n35_bltzal_test+0x29a4>
    2910:	00000000 	nop
    2914:	10000025 	b	29ac <n35_bltzal_test+0x29ac>
    2918:	00000000 	nop
    291c:	00000000 	nop
    2920:	00000021 	move	zero,zero
    2924:	00000021 	move	zero,zero
    2928:	00000021 	move	zero,zero
    292c:	00000021 	move	zero,zero
    2930:	00000021 	move	zero,zero
    2934:	00000021 	move	zero,zero
    2938:	00000021 	move	zero,zero
    293c:	00000021 	move	zero,zero
    2940:	00000021 	move	zero,zero
    2944:	00000021 	move	zero,zero
    2948:	00000021 	move	zero,zero
    294c:	3c08c785 	lui	t0,0xc785
    2950:	35081378 	ori	t0,t0,0x1378
    2954:	0510ffeb 	bltzal	t0,2904 <n35_bltzal_test+0x2904>
    2958:	00000000 	nop
    295c:	10000013 	b	29ac <n35_bltzal_test+0x29ac>
    2960:	00000000 	nop
    2964:	00000000 	nop
    2968:	00000021 	move	zero,zero
    296c:	00000021 	move	zero,zero
    2970:	00000021 	move	zero,zero
    2974:	00000021 	move	zero,zero
    2978:	00000021 	move	zero,zero
    297c:	00000021 	move	zero,zero
    2980:	00000021 	move	zero,zero
    2984:	00000021 	move	zero,zero
    2988:	00000021 	move	zero,zero
    298c:	00000021 	move	zero,zero
    2990:	00000021 	move	zero,zero
    2994:	00000021 	move	zero,zero
    2998:	00000021 	move	zero,zero
    299c:	00000021 	move	zero,zero
    29a0:	00000021 	move	zero,zero
    29a4:	3c12d36f 	lui	s2,0xd36f
    29a8:	36524cb6 	ori	s2,s2,0x4cb6
    29ac:	001fa021 	addu	s4,zero,ra
    29b0:	0015f821 	addu	ra,zero,s5
    29b4:	3c150000 	lui	s5,0x0
    29b8:	26b5290c 	addiu	s5,s5,10508
    29bc:	3c160000 	lui	s6,0x0
    29c0:	26d62954 	addiu	s6,s6,10580
    29c4:	3c189640 	lui	t8,0x9640
    29c8:	3718f3c6 	ori	t8,t8,0xf3c6
    29cc:	16183e8a 	bne	s0,t8,123f8 <inst_error>
    29d0:	00000000 	nop
    29d4:	00000000 	nop
    29d8:	3c18d36f 	lui	t8,0xd36f
    29dc:	37184cb6 	ori	t8,t8,0x4cb6
    29e0:	16583e85 	bne	s2,t8,123f8 <inst_error>
    29e4:	00000000 	nop
    29e8:	00000000 	nop
    29ec:	3c19bfc0 	lui	t9,0xbfc0
    29f0:	37391b84 	ori	t9,t9,0x1b84
    29f4:	3c18bfc0 	lui	t8,0xbfc0
    29f8:	37181b7c 	ori	t8,t8,0x1b7c
    29fc:	27180008 	addiu	t8,t8,8
    2a00:	1319000a 	beq	t8,t9,2a2c <n35_bltzal_test+0x2a2c>
    2a04:	00000000 	nop
    2a08:	00000000 	nop
    2a0c:	3c18bfc0 	lui	t8,0xbfc0
    2a10:	37181bac 	ori	t8,t8,0x1bac
    2a14:	27180008 	addiu	t8,t8,8
    2a18:	1319000a 	beq	t8,t9,2a44 <n35_bltzal_test+0x2a44>
    2a1c:	00000000 	nop
    2a20:	10003e75 	b	123f8 <inst_error>
    2a24:	00000000 	nop
    2a28:	00000000 	nop
    2a2c:	26b50008 	addiu	s5,s5,8
    2a30:	16953e71 	bne	s4,s5,123f8 <inst_error>
    2a34:	00000000 	nop
    2a38:	10000006 	b	2a54 <n35_bltzal_test+0x2a54>
    2a3c:	00000000 	nop
    2a40:	00000000 	nop
    2a44:	26d60008 	addiu	s6,s6,8
    2a48:	16963e6b 	bne	s4,s6,123f8 <inst_error>
    2a4c:	00000000 	nop
	...
    2a58:	001fa821 	addu	s5,zero,ra
    2a5c:	3c0ccb98 	lui	t4,0xcb98
    2a60:	358c70fa 	ori	t4,t4,0x70fa
    2a64:	3c0d804c 	lui	t5,0x804c
    2a68:	35ad8950 	ori	t5,t5,0x8950
    2a6c:	24100000 	li	s0,0
    2a70:	10000014 	b	2ac4 <n35_bltzal_test+0x2ac4>
    2a74:	24120000 	li	s2,0
    2a78:	00000000 	nop
    2a7c:	3c10cb98 	lui	s0,0xcb98
    2a80:	361070fa 	ori	s0,s0,0x70fa
    2a84:	05100025 	bltzal	t0,2b1c <n35_bltzal_test+0x2b1c>
    2a88:	00000000 	nop
    2a8c:	10000025 	b	2b24 <n35_bltzal_test+0x2b24>
    2a90:	00000000 	nop
    2a94:	00000000 	nop
    2a98:	00000021 	move	zero,zero
    2a9c:	00000021 	move	zero,zero
    2aa0:	00000021 	move	zero,zero
    2aa4:	00000021 	move	zero,zero
    2aa8:	00000021 	move	zero,zero
    2aac:	00000021 	move	zero,zero
    2ab0:	00000021 	move	zero,zero
    2ab4:	00000021 	move	zero,zero
    2ab8:	00000021 	move	zero,zero
    2abc:	00000021 	move	zero,zero
    2ac0:	00000021 	move	zero,zero
    2ac4:	3c084ae0 	lui	t0,0x4ae0
    2ac8:	35080500 	ori	t0,t0,0x500
    2acc:	0510ffeb 	bltzal	t0,2a7c <n35_bltzal_test+0x2a7c>
    2ad0:	00000000 	nop
    2ad4:	10000013 	b	2b24 <n35_bltzal_test+0x2b24>
    2ad8:	00000000 	nop
    2adc:	00000000 	nop
    2ae0:	00000021 	move	zero,zero
    2ae4:	00000021 	move	zero,zero
    2ae8:	00000021 	move	zero,zero
    2aec:	00000021 	move	zero,zero
    2af0:	00000021 	move	zero,zero
    2af4:	00000021 	move	zero,zero
    2af8:	00000021 	move	zero,zero
    2afc:	00000021 	move	zero,zero
    2b00:	00000021 	move	zero,zero
    2b04:	00000021 	move	zero,zero
    2b08:	00000021 	move	zero,zero
    2b0c:	00000021 	move	zero,zero
    2b10:	00000021 	move	zero,zero
    2b14:	00000021 	move	zero,zero
    2b18:	00000021 	move	zero,zero
    2b1c:	3c12804c 	lui	s2,0x804c
    2b20:	36528950 	ori	s2,s2,0x8950
    2b24:	001fa021 	addu	s4,zero,ra
    2b28:	0015f821 	addu	ra,zero,s5
    2b2c:	3c150000 	lui	s5,0x0
    2b30:	26b52a84 	addiu	s5,s5,10884
    2b34:	3c160000 	lui	s6,0x0
    2b38:	26d62acc 	addiu	s6,s6,10956
    2b3c:	24180000 	li	t8,0
    2b40:	16183e2d 	bne	s0,t8,123f8 <inst_error>
    2b44:	00000000 	nop
    2b48:	00000000 	nop
    2b4c:	24180000 	li	t8,0
    2b50:	16583e29 	bne	s2,t8,123f8 <inst_error>
    2b54:	00000000 	nop
    2b58:	00000000 	nop
    2b5c:	3c19bfc0 	lui	t9,0xbfc0
    2b60:	37391c8c 	ori	t9,t9,0x1c8c
    2b64:	3c18bfc0 	lui	t8,0xbfc0
    2b68:	37181c54 	ori	t8,t8,0x1c54
    2b6c:	27180008 	addiu	t8,t8,8
    2b70:	1319000a 	beq	t8,t9,2b9c <n35_bltzal_test+0x2b9c>
    2b74:	00000000 	nop
    2b78:	00000000 	nop
    2b7c:	3c18bfc0 	lui	t8,0xbfc0
    2b80:	37181c84 	ori	t8,t8,0x1c84
    2b84:	27180008 	addiu	t8,t8,8
    2b88:	1319000a 	beq	t8,t9,2bb4 <n35_bltzal_test+0x2bb4>
    2b8c:	00000000 	nop
    2b90:	10003e19 	b	123f8 <inst_error>
    2b94:	00000000 	nop
    2b98:	00000000 	nop
    2b9c:	26b50008 	addiu	s5,s5,8
    2ba0:	16953e15 	bne	s4,s5,123f8 <inst_error>
    2ba4:	00000000 	nop
    2ba8:	10000006 	b	2bc4 <n35_bltzal_test+0x2bc4>
    2bac:	00000000 	nop
    2bb0:	00000000 	nop
    2bb4:	26d60008 	addiu	s6,s6,8
    2bb8:	16963e0f 	bne	s4,s6,123f8 <inst_error>
    2bbc:	00000000 	nop
	...
    2bc8:	001fa821 	addu	s5,zero,ra
    2bcc:	3c0cd330 	lui	t4,0xd330
    2bd0:	358c0420 	ori	t4,t4,0x420
    2bd4:	3c0da048 	lui	t5,0xa048
    2bd8:	35ad18a0 	ori	t5,t5,0x18a0
    2bdc:	24100000 	li	s0,0
    2be0:	10000014 	b	2c34 <n35_bltzal_test+0x2c34>
    2be4:	24120000 	li	s2,0
    2be8:	00000000 	nop
    2bec:	3c10d330 	lui	s0,0xd330
    2bf0:	36100420 	ori	s0,s0,0x420
    2bf4:	05100025 	bltzal	t0,2c8c <n35_bltzal_test+0x2c8c>
    2bf8:	00000000 	nop
    2bfc:	10000025 	b	2c94 <n35_bltzal_test+0x2c94>
    2c00:	00000000 	nop
    2c04:	00000000 	nop
    2c08:	00000021 	move	zero,zero
    2c0c:	00000021 	move	zero,zero
    2c10:	00000021 	move	zero,zero
    2c14:	00000021 	move	zero,zero
    2c18:	00000021 	move	zero,zero
    2c1c:	00000021 	move	zero,zero
    2c20:	00000021 	move	zero,zero
    2c24:	00000021 	move	zero,zero
    2c28:	00000021 	move	zero,zero
    2c2c:	00000021 	move	zero,zero
    2c30:	00000021 	move	zero,zero
    2c34:	3c083534 	lui	t0,0x3534
    2c38:	3508715c 	ori	t0,t0,0x715c
    2c3c:	0510ffeb 	bltzal	t0,2bec <n35_bltzal_test+0x2bec>
    2c40:	00000000 	nop
    2c44:	10000013 	b	2c94 <n35_bltzal_test+0x2c94>
    2c48:	00000000 	nop
    2c4c:	00000000 	nop
    2c50:	00000021 	move	zero,zero
    2c54:	00000021 	move	zero,zero
    2c58:	00000021 	move	zero,zero
    2c5c:	00000021 	move	zero,zero
    2c60:	00000021 	move	zero,zero
    2c64:	00000021 	move	zero,zero
    2c68:	00000021 	move	zero,zero
    2c6c:	00000021 	move	zero,zero
    2c70:	00000021 	move	zero,zero
    2c74:	00000021 	move	zero,zero
    2c78:	00000021 	move	zero,zero
    2c7c:	00000021 	move	zero,zero
    2c80:	00000021 	move	zero,zero
    2c84:	00000021 	move	zero,zero
    2c88:	00000021 	move	zero,zero
    2c8c:	3c12a048 	lui	s2,0xa048
    2c90:	365218a0 	ori	s2,s2,0x18a0
    2c94:	001fa021 	addu	s4,zero,ra
    2c98:	0015f821 	addu	ra,zero,s5
    2c9c:	3c150000 	lui	s5,0x0
    2ca0:	26b52bf4 	addiu	s5,s5,11252
    2ca4:	3c160000 	lui	s6,0x0
    2ca8:	26d62c3c 	addiu	s6,s6,11324
    2cac:	24180000 	li	t8,0
    2cb0:	16183dd1 	bne	s0,t8,123f8 <inst_error>
    2cb4:	00000000 	nop
    2cb8:	00000000 	nop
    2cbc:	24180000 	li	t8,0
    2cc0:	16583dcd 	bne	s2,t8,123f8 <inst_error>
    2cc4:	00000000 	nop
    2cc8:	00000000 	nop
    2ccc:	3c19bfc0 	lui	t9,0xbfc0
    2cd0:	37391d64 	ori	t9,t9,0x1d64
    2cd4:	3c18bfc0 	lui	t8,0xbfc0
    2cd8:	37181d2c 	ori	t8,t8,0x1d2c
    2cdc:	27180008 	addiu	t8,t8,8
    2ce0:	1319000a 	beq	t8,t9,2d0c <n35_bltzal_test+0x2d0c>
    2ce4:	00000000 	nop
    2ce8:	00000000 	nop
    2cec:	3c18bfc0 	lui	t8,0xbfc0
    2cf0:	37181d5c 	ori	t8,t8,0x1d5c
    2cf4:	27180008 	addiu	t8,t8,8
    2cf8:	1319000a 	beq	t8,t9,2d24 <n35_bltzal_test+0x2d24>
    2cfc:	00000000 	nop
    2d00:	10003dbd 	b	123f8 <inst_error>
    2d04:	00000000 	nop
    2d08:	00000000 	nop
    2d0c:	26b50008 	addiu	s5,s5,8
    2d10:	16953db9 	bne	s4,s5,123f8 <inst_error>
    2d14:	00000000 	nop
    2d18:	10000006 	b	2d34 <n35_bltzal_test+0x2d34>
    2d1c:	00000000 	nop
    2d20:	00000000 	nop
    2d24:	26d60008 	addiu	s6,s6,8
    2d28:	16963db3 	bne	s4,s6,123f8 <inst_error>
    2d2c:	00000000 	nop
	...
    2d38:	001fa821 	addu	s5,zero,ra
    2d3c:	3c0c3de9 	lui	t4,0x3de9
    2d40:	358c494e 	ori	t4,t4,0x494e
    2d44:	3c0dc0a6 	lui	t5,0xc0a6
    2d48:	35ad43e6 	ori	t5,t5,0x43e6
    2d4c:	24100000 	li	s0,0
    2d50:	10000014 	b	2da4 <n35_bltzal_test+0x2da4>
    2d54:	24120000 	li	s2,0
    2d58:	00000000 	nop
    2d5c:	3c103de9 	lui	s0,0x3de9
    2d60:	3610494e 	ori	s0,s0,0x494e
    2d64:	05100025 	bltzal	t0,2dfc <n35_bltzal_test+0x2dfc>
    2d68:	00000000 	nop
    2d6c:	10000025 	b	2e04 <n35_bltzal_test+0x2e04>
    2d70:	00000000 	nop
    2d74:	00000000 	nop
    2d78:	00000021 	move	zero,zero
    2d7c:	00000021 	move	zero,zero
    2d80:	00000021 	move	zero,zero
    2d84:	00000021 	move	zero,zero
    2d88:	00000021 	move	zero,zero
    2d8c:	00000021 	move	zero,zero
    2d90:	00000021 	move	zero,zero
    2d94:	00000021 	move	zero,zero
    2d98:	00000021 	move	zero,zero
    2d9c:	00000021 	move	zero,zero
    2da0:	00000021 	move	zero,zero
    2da4:	3c080764 	lui	t0,0x764
    2da8:	35086087 	ori	t0,t0,0x6087
    2dac:	0510ffeb 	bltzal	t0,2d5c <n35_bltzal_test+0x2d5c>
    2db0:	00000000 	nop
    2db4:	10000013 	b	2e04 <n35_bltzal_test+0x2e04>
    2db8:	00000000 	nop
    2dbc:	00000000 	nop
    2dc0:	00000021 	move	zero,zero
    2dc4:	00000021 	move	zero,zero
    2dc8:	00000021 	move	zero,zero
    2dcc:	00000021 	move	zero,zero
    2dd0:	00000021 	move	zero,zero
    2dd4:	00000021 	move	zero,zero
    2dd8:	00000021 	move	zero,zero
    2ddc:	00000021 	move	zero,zero
    2de0:	00000021 	move	zero,zero
    2de4:	00000021 	move	zero,zero
    2de8:	00000021 	move	zero,zero
    2dec:	00000021 	move	zero,zero
    2df0:	00000021 	move	zero,zero
    2df4:	00000021 	move	zero,zero
    2df8:	00000021 	move	zero,zero
    2dfc:	3c12c0a6 	lui	s2,0xc0a6
    2e00:	365243e6 	ori	s2,s2,0x43e6
    2e04:	001fa021 	addu	s4,zero,ra
    2e08:	0015f821 	addu	ra,zero,s5
    2e0c:	3c150000 	lui	s5,0x0
    2e10:	26b52d64 	addiu	s5,s5,11620
    2e14:	3c160000 	lui	s6,0x0
    2e18:	26d62dac 	addiu	s6,s6,11692
    2e1c:	24180000 	li	t8,0
    2e20:	16183d75 	bne	s0,t8,123f8 <inst_error>
    2e24:	00000000 	nop
    2e28:	00000000 	nop
    2e2c:	24180000 	li	t8,0
    2e30:	16583d71 	bne	s2,t8,123f8 <inst_error>
    2e34:	00000000 	nop
    2e38:	00000000 	nop
    2e3c:	3c19bfc0 	lui	t9,0xbfc0
    2e40:	37391e3c 	ori	t9,t9,0x1e3c
    2e44:	3c18bfc0 	lui	t8,0xbfc0
    2e48:	37181e04 	ori	t8,t8,0x1e04
    2e4c:	27180008 	addiu	t8,t8,8
    2e50:	1319000a 	beq	t8,t9,2e7c <n35_bltzal_test+0x2e7c>
    2e54:	00000000 	nop
    2e58:	00000000 	nop
    2e5c:	3c18bfc0 	lui	t8,0xbfc0
    2e60:	37181e34 	ori	t8,t8,0x1e34
    2e64:	27180008 	addiu	t8,t8,8
    2e68:	1319000a 	beq	t8,t9,2e94 <n35_bltzal_test+0x2e94>
    2e6c:	00000000 	nop
    2e70:	10003d61 	b	123f8 <inst_error>
    2e74:	00000000 	nop
    2e78:	00000000 	nop
    2e7c:	26b50008 	addiu	s5,s5,8
    2e80:	16953d5d 	bne	s4,s5,123f8 <inst_error>
    2e84:	00000000 	nop
    2e88:	10000006 	b	2ea4 <n35_bltzal_test+0x2ea4>
    2e8c:	00000000 	nop
    2e90:	00000000 	nop
    2e94:	26d60008 	addiu	s6,s6,8
    2e98:	16963d57 	bne	s4,s6,123f8 <inst_error>
    2e9c:	00000000 	nop
	...
    2ea8:	001fa821 	addu	s5,zero,ra
    2eac:	3c0c08a5 	lui	t4,0x8a5
    2eb0:	358c7680 	ori	t4,t4,0x7680
    2eb4:	3c0da6d5 	lui	t5,0xa6d5
    2eb8:	35add220 	ori	t5,t5,0xd220
    2ebc:	24100000 	li	s0,0
    2ec0:	10000014 	b	2f14 <n35_bltzal_test+0x2f14>
    2ec4:	24120000 	li	s2,0
    2ec8:	00000000 	nop
    2ecc:	3c1008a5 	lui	s0,0x8a5
    2ed0:	36107680 	ori	s0,s0,0x7680
    2ed4:	05100025 	bltzal	t0,2f6c <n35_bltzal_test+0x2f6c>
    2ed8:	00000000 	nop
    2edc:	10000025 	b	2f74 <n35_bltzal_test+0x2f74>
    2ee0:	00000000 	nop
    2ee4:	00000000 	nop
    2ee8:	00000021 	move	zero,zero
    2eec:	00000021 	move	zero,zero
    2ef0:	00000021 	move	zero,zero
    2ef4:	00000021 	move	zero,zero
    2ef8:	00000021 	move	zero,zero
    2efc:	00000021 	move	zero,zero
    2f00:	00000021 	move	zero,zero
    2f04:	00000021 	move	zero,zero
    2f08:	00000021 	move	zero,zero
    2f0c:	00000021 	move	zero,zero
    2f10:	00000021 	move	zero,zero
    2f14:	3c085e14 	lui	t0,0x5e14
    2f18:	3508d5ee 	ori	t0,t0,0xd5ee
    2f1c:	0510ffeb 	bltzal	t0,2ecc <n35_bltzal_test+0x2ecc>
    2f20:	00000000 	nop
    2f24:	10000013 	b	2f74 <n35_bltzal_test+0x2f74>
    2f28:	00000000 	nop
    2f2c:	00000000 	nop
    2f30:	00000021 	move	zero,zero
    2f34:	00000021 	move	zero,zero
    2f38:	00000021 	move	zero,zero
    2f3c:	00000021 	move	zero,zero
    2f40:	00000021 	move	zero,zero
    2f44:	00000021 	move	zero,zero
    2f48:	00000021 	move	zero,zero
    2f4c:	00000021 	move	zero,zero
    2f50:	00000021 	move	zero,zero
    2f54:	00000021 	move	zero,zero
    2f58:	00000021 	move	zero,zero
    2f5c:	00000021 	move	zero,zero
    2f60:	00000021 	move	zero,zero
    2f64:	00000021 	move	zero,zero
    2f68:	00000021 	move	zero,zero
    2f6c:	3c12a6d5 	lui	s2,0xa6d5
    2f70:	3652d220 	ori	s2,s2,0xd220
    2f74:	001fa021 	addu	s4,zero,ra
    2f78:	0015f821 	addu	ra,zero,s5
    2f7c:	3c150000 	lui	s5,0x0
    2f80:	26b52ed4 	addiu	s5,s5,11988
    2f84:	3c160000 	lui	s6,0x0
    2f88:	26d62f1c 	addiu	s6,s6,12060
    2f8c:	24180000 	li	t8,0
    2f90:	16183d19 	bne	s0,t8,123f8 <inst_error>
    2f94:	00000000 	nop
    2f98:	00000000 	nop
    2f9c:	24180000 	li	t8,0
    2fa0:	16583d15 	bne	s2,t8,123f8 <inst_error>
    2fa4:	00000000 	nop
    2fa8:	00000000 	nop
    2fac:	3c19bfc0 	lui	t9,0xbfc0
    2fb0:	37391f14 	ori	t9,t9,0x1f14
    2fb4:	3c18bfc0 	lui	t8,0xbfc0
    2fb8:	37181edc 	ori	t8,t8,0x1edc
    2fbc:	27180008 	addiu	t8,t8,8
    2fc0:	1319000a 	beq	t8,t9,2fec <n35_bltzal_test+0x2fec>
    2fc4:	00000000 	nop
    2fc8:	00000000 	nop
    2fcc:	3c18bfc0 	lui	t8,0xbfc0
    2fd0:	37181f0c 	ori	t8,t8,0x1f0c
    2fd4:	27180008 	addiu	t8,t8,8
    2fd8:	1319000a 	beq	t8,t9,3004 <n35_bltzal_test+0x3004>
    2fdc:	00000000 	nop
    2fe0:	10003d05 	b	123f8 <inst_error>
    2fe4:	00000000 	nop
    2fe8:	00000000 	nop
    2fec:	26b50008 	addiu	s5,s5,8
    2ff0:	16953d01 	bne	s4,s5,123f8 <inst_error>
    2ff4:	00000000 	nop
    2ff8:	10000006 	b	3014 <n35_bltzal_test+0x3014>
    2ffc:	00000000 	nop
    3000:	00000000 	nop
    3004:	26d60008 	addiu	s6,s6,8
    3008:	16963cfb 	bne	s4,s6,123f8 <inst_error>
    300c:	00000000 	nop
	...
    3018:	001fa821 	addu	s5,zero,ra
    301c:	3c0cbef4 	lui	t4,0xbef4
    3020:	358c3ef0 	ori	t4,t4,0x3ef0
    3024:	3c0d19bd 	lui	t5,0x19bd
    3028:	35ad16ff 	ori	t5,t5,0x16ff
    302c:	24100000 	li	s0,0
    3030:	10000014 	b	3084 <n35_bltzal_test+0x3084>
    3034:	24120000 	li	s2,0
    3038:	00000000 	nop
    303c:	3c10bef4 	lui	s0,0xbef4
    3040:	36103ef0 	ori	s0,s0,0x3ef0
    3044:	05100025 	bltzal	t0,30dc <n35_bltzal_test+0x30dc>
    3048:	00000000 	nop
    304c:	10000025 	b	30e4 <n35_bltzal_test+0x30e4>
    3050:	00000000 	nop
    3054:	00000000 	nop
    3058:	00000021 	move	zero,zero
    305c:	00000021 	move	zero,zero
    3060:	00000021 	move	zero,zero
    3064:	00000021 	move	zero,zero
    3068:	00000021 	move	zero,zero
    306c:	00000021 	move	zero,zero
    3070:	00000021 	move	zero,zero
    3074:	00000021 	move	zero,zero
    3078:	00000021 	move	zero,zero
    307c:	00000021 	move	zero,zero
    3080:	00000021 	move	zero,zero
    3084:	3c088306 	lui	t0,0x8306
    3088:	3508d605 	ori	t0,t0,0xd605
    308c:	0510ffeb 	bltzal	t0,303c <n35_bltzal_test+0x303c>
    3090:	00000000 	nop
    3094:	10000013 	b	30e4 <n35_bltzal_test+0x30e4>
    3098:	00000000 	nop
    309c:	00000000 	nop
    30a0:	00000021 	move	zero,zero
    30a4:	00000021 	move	zero,zero
    30a8:	00000021 	move	zero,zero
    30ac:	00000021 	move	zero,zero
    30b0:	00000021 	move	zero,zero
    30b4:	00000021 	move	zero,zero
    30b8:	00000021 	move	zero,zero
    30bc:	00000021 	move	zero,zero
    30c0:	00000021 	move	zero,zero
    30c4:	00000021 	move	zero,zero
    30c8:	00000021 	move	zero,zero
    30cc:	00000021 	move	zero,zero
    30d0:	00000021 	move	zero,zero
    30d4:	00000021 	move	zero,zero
    30d8:	00000021 	move	zero,zero
    30dc:	3c1219bd 	lui	s2,0x19bd
    30e0:	365216ff 	ori	s2,s2,0x16ff
    30e4:	001fa021 	addu	s4,zero,ra
    30e8:	0015f821 	addu	ra,zero,s5
    30ec:	3c150000 	lui	s5,0x0
    30f0:	26b53044 	addiu	s5,s5,12356
    30f4:	3c160000 	lui	s6,0x0
    30f8:	26d6308c 	addiu	s6,s6,12428
    30fc:	3c18bef4 	lui	t8,0xbef4
    3100:	37183ef0 	ori	t8,t8,0x3ef0
    3104:	16183cbc 	bne	s0,t8,123f8 <inst_error>
    3108:	00000000 	nop
    310c:	00000000 	nop
    3110:	3c1819bd 	lui	t8,0x19bd
    3114:	371816ff 	ori	t8,t8,0x16ff
    3118:	16583cb7 	bne	s2,t8,123f8 <inst_error>
    311c:	00000000 	nop
    3120:	00000000 	nop
    3124:	3c19bfc0 	lui	t9,0xbfc0
    3128:	37391fbc 	ori	t9,t9,0x1fbc
    312c:	3c18bfc0 	lui	t8,0xbfc0
    3130:	37181fb4 	ori	t8,t8,0x1fb4
    3134:	27180008 	addiu	t8,t8,8
    3138:	1319000a 	beq	t8,t9,3164 <n35_bltzal_test+0x3164>
    313c:	00000000 	nop
    3140:	00000000 	nop
    3144:	3c18bfc0 	lui	t8,0xbfc0
    3148:	37181fe4 	ori	t8,t8,0x1fe4
    314c:	27180008 	addiu	t8,t8,8
    3150:	1319000a 	beq	t8,t9,317c <n35_bltzal_test+0x317c>
    3154:	00000000 	nop
    3158:	10003ca7 	b	123f8 <inst_error>
    315c:	00000000 	nop
    3160:	00000000 	nop
    3164:	26b50008 	addiu	s5,s5,8
    3168:	16953ca3 	bne	s4,s5,123f8 <inst_error>
    316c:	00000000 	nop
    3170:	10000006 	b	318c <n35_bltzal_test+0x318c>
    3174:	00000000 	nop
    3178:	00000000 	nop
    317c:	26d60008 	addiu	s6,s6,8
    3180:	16963c9d 	bne	s4,s6,123f8 <inst_error>
    3184:	00000000 	nop
	...
    3190:	001fa821 	addu	s5,zero,ra
    3194:	3c0ce5f0 	lui	t4,0xe5f0
    3198:	358cdae8 	ori	t4,t4,0xdae8
    319c:	3c0d1c09 	lui	t5,0x1c09
    31a0:	35ad7320 	ori	t5,t5,0x7320
    31a4:	24100000 	li	s0,0
    31a8:	10000014 	b	31fc <n35_bltzal_test+0x31fc>
    31ac:	24120000 	li	s2,0
    31b0:	00000000 	nop
    31b4:	3c10e5f0 	lui	s0,0xe5f0
    31b8:	3610dae8 	ori	s0,s0,0xdae8
    31bc:	05100025 	bltzal	t0,3254 <n35_bltzal_test+0x3254>
    31c0:	00000000 	nop
    31c4:	10000025 	b	325c <n35_bltzal_test+0x325c>
    31c8:	00000000 	nop
    31cc:	00000000 	nop
    31d0:	00000021 	move	zero,zero
    31d4:	00000021 	move	zero,zero
    31d8:	00000021 	move	zero,zero
    31dc:	00000021 	move	zero,zero
    31e0:	00000021 	move	zero,zero
    31e4:	00000021 	move	zero,zero
    31e8:	00000021 	move	zero,zero
    31ec:	00000021 	move	zero,zero
    31f0:	00000021 	move	zero,zero
    31f4:	00000021 	move	zero,zero
    31f8:	00000021 	move	zero,zero
    31fc:	3c088af8 	lui	t0,0x8af8
    3200:	35084d10 	ori	t0,t0,0x4d10
    3204:	0510ffeb 	bltzal	t0,31b4 <n35_bltzal_test+0x31b4>
    3208:	00000000 	nop
    320c:	10000013 	b	325c <n35_bltzal_test+0x325c>
    3210:	00000000 	nop
    3214:	00000000 	nop
    3218:	00000021 	move	zero,zero
    321c:	00000021 	move	zero,zero
    3220:	00000021 	move	zero,zero
    3224:	00000021 	move	zero,zero
    3228:	00000021 	move	zero,zero
    322c:	00000021 	move	zero,zero
    3230:	00000021 	move	zero,zero
    3234:	00000021 	move	zero,zero
    3238:	00000021 	move	zero,zero
    323c:	00000021 	move	zero,zero
    3240:	00000021 	move	zero,zero
    3244:	00000021 	move	zero,zero
    3248:	00000021 	move	zero,zero
    324c:	00000021 	move	zero,zero
    3250:	00000021 	move	zero,zero
    3254:	3c121c09 	lui	s2,0x1c09
    3258:	36527320 	ori	s2,s2,0x7320
    325c:	001fa021 	addu	s4,zero,ra
    3260:	0015f821 	addu	ra,zero,s5
    3264:	3c150000 	lui	s5,0x0
    3268:	26b531bc 	addiu	s5,s5,12732
    326c:	3c160000 	lui	s6,0x0
    3270:	26d63204 	addiu	s6,s6,12804
    3274:	3c18e5f0 	lui	t8,0xe5f0
    3278:	3718dae8 	ori	t8,t8,0xdae8
    327c:	16183c5e 	bne	s0,t8,123f8 <inst_error>
    3280:	00000000 	nop
    3284:	00000000 	nop
    3288:	3c181c09 	lui	t8,0x1c09
    328c:	37187320 	ori	t8,t8,0x7320
    3290:	16583c59 	bne	s2,t8,123f8 <inst_error>
    3294:	00000000 	nop
    3298:	00000000 	nop
    329c:	3c19bfc0 	lui	t9,0xbfc0
    32a0:	37392094 	ori	t9,t9,0x2094
    32a4:	3c18bfc0 	lui	t8,0xbfc0
    32a8:	3718208c 	ori	t8,t8,0x208c
    32ac:	27180008 	addiu	t8,t8,8
    32b0:	1319000a 	beq	t8,t9,32dc <n35_bltzal_test+0x32dc>
    32b4:	00000000 	nop
    32b8:	00000000 	nop
    32bc:	3c18bfc0 	lui	t8,0xbfc0
    32c0:	371820bc 	ori	t8,t8,0x20bc
    32c4:	27180008 	addiu	t8,t8,8
    32c8:	1319000a 	beq	t8,t9,32f4 <n35_bltzal_test+0x32f4>
    32cc:	00000000 	nop
    32d0:	10003c49 	b	123f8 <inst_error>
    32d4:	00000000 	nop
    32d8:	00000000 	nop
    32dc:	26b50008 	addiu	s5,s5,8
    32e0:	16953c45 	bne	s4,s5,123f8 <inst_error>
    32e4:	00000000 	nop
    32e8:	10000006 	b	3304 <n35_bltzal_test+0x3304>
    32ec:	00000000 	nop
    32f0:	00000000 	nop
    32f4:	26d60008 	addiu	s6,s6,8
    32f8:	16963c3f 	bne	s4,s6,123f8 <inst_error>
    32fc:	00000000 	nop
	...
    3308:	001fa821 	addu	s5,zero,ra
    330c:	3c0c06c3 	lui	t4,0x6c3
    3310:	358c75f8 	ori	t4,t4,0x75f8
    3314:	3c0d0c0e 	lui	t5,0xc0e
    3318:	35ad1ec5 	ori	t5,t5,0x1ec5
    331c:	24100000 	li	s0,0
    3320:	10000014 	b	3374 <n35_bltzal_test+0x3374>
    3324:	24120000 	li	s2,0
    3328:	00000000 	nop
    332c:	3c1006c3 	lui	s0,0x6c3
    3330:	361075f8 	ori	s0,s0,0x75f8
    3334:	05100025 	bltzal	t0,33cc <n35_bltzal_test+0x33cc>
    3338:	00000000 	nop
    333c:	10000025 	b	33d4 <n35_bltzal_test+0x33d4>
    3340:	00000000 	nop
    3344:	00000000 	nop
    3348:	00000021 	move	zero,zero
    334c:	00000021 	move	zero,zero
    3350:	00000021 	move	zero,zero
    3354:	00000021 	move	zero,zero
    3358:	00000021 	move	zero,zero
    335c:	00000021 	move	zero,zero
    3360:	00000021 	move	zero,zero
    3364:	00000021 	move	zero,zero
    3368:	00000021 	move	zero,zero
    336c:	00000021 	move	zero,zero
    3370:	00000021 	move	zero,zero
    3374:	3c08c6e6 	lui	t0,0xc6e6
    3378:	35088f76 	ori	t0,t0,0x8f76
    337c:	0510ffeb 	bltzal	t0,332c <n35_bltzal_test+0x332c>
    3380:	00000000 	nop
    3384:	10000013 	b	33d4 <n35_bltzal_test+0x33d4>
    3388:	00000000 	nop
    338c:	00000000 	nop
    3390:	00000021 	move	zero,zero
    3394:	00000021 	move	zero,zero
    3398:	00000021 	move	zero,zero
    339c:	00000021 	move	zero,zero
    33a0:	00000021 	move	zero,zero
    33a4:	00000021 	move	zero,zero
    33a8:	00000021 	move	zero,zero
    33ac:	00000021 	move	zero,zero
    33b0:	00000021 	move	zero,zero
    33b4:	00000021 	move	zero,zero
    33b8:	00000021 	move	zero,zero
    33bc:	00000021 	move	zero,zero
    33c0:	00000021 	move	zero,zero
    33c4:	00000021 	move	zero,zero
    33c8:	00000021 	move	zero,zero
    33cc:	3c120c0e 	lui	s2,0xc0e
    33d0:	36521ec5 	ori	s2,s2,0x1ec5
    33d4:	001fa021 	addu	s4,zero,ra
    33d8:	0015f821 	addu	ra,zero,s5
    33dc:	3c150000 	lui	s5,0x0
    33e0:	26b53334 	addiu	s5,s5,13108
    33e4:	3c160000 	lui	s6,0x0
    33e8:	26d6337c 	addiu	s6,s6,13180
    33ec:	3c1806c3 	lui	t8,0x6c3
    33f0:	371875f8 	ori	t8,t8,0x75f8
    33f4:	16183c00 	bne	s0,t8,123f8 <inst_error>
    33f8:	00000000 	nop
    33fc:	00000000 	nop
    3400:	3c180c0e 	lui	t8,0xc0e
    3404:	37181ec5 	ori	t8,t8,0x1ec5
    3408:	16583bfb 	bne	s2,t8,123f8 <inst_error>
    340c:	00000000 	nop
    3410:	00000000 	nop
    3414:	3c19bfc0 	lui	t9,0xbfc0
    3418:	3739216c 	ori	t9,t9,0x216c
    341c:	3c18bfc0 	lui	t8,0xbfc0
    3420:	37182164 	ori	t8,t8,0x2164
    3424:	27180008 	addiu	t8,t8,8
    3428:	1319000a 	beq	t8,t9,3454 <n35_bltzal_test+0x3454>
    342c:	00000000 	nop
    3430:	00000000 	nop
    3434:	3c18bfc0 	lui	t8,0xbfc0
    3438:	37182194 	ori	t8,t8,0x2194
    343c:	27180008 	addiu	t8,t8,8
    3440:	1319000a 	beq	t8,t9,346c <n35_bltzal_test+0x346c>
    3444:	00000000 	nop
    3448:	10003beb 	b	123f8 <inst_error>
    344c:	00000000 	nop
    3450:	00000000 	nop
    3454:	26b50008 	addiu	s5,s5,8
    3458:	16953be7 	bne	s4,s5,123f8 <inst_error>
    345c:	00000000 	nop
    3460:	10000006 	b	347c <n35_bltzal_test+0x347c>
    3464:	00000000 	nop
    3468:	00000000 	nop
    346c:	26d60008 	addiu	s6,s6,8
    3470:	16963be1 	bne	s4,s6,123f8 <inst_error>
    3474:	00000000 	nop
	...
    3480:	001fa821 	addu	s5,zero,ra
    3484:	3c0c2918 	lui	t4,0x2918
    3488:	358c933c 	ori	t4,t4,0x933c
    348c:	3c0d370f 	lui	t5,0x370f
    3490:	35ad69c0 	ori	t5,t5,0x69c0
    3494:	24100000 	li	s0,0
    3498:	10000014 	b	34ec <n35_bltzal_test+0x34ec>
    349c:	24120000 	li	s2,0
    34a0:	00000000 	nop
    34a4:	3c102918 	lui	s0,0x2918
    34a8:	3610933c 	ori	s0,s0,0x933c
    34ac:	05100025 	bltzal	t0,3544 <n35_bltzal_test+0x3544>
    34b0:	00000000 	nop
    34b4:	10000025 	b	354c <n35_bltzal_test+0x354c>
    34b8:	00000000 	nop
    34bc:	00000000 	nop
    34c0:	00000021 	move	zero,zero
    34c4:	00000021 	move	zero,zero
    34c8:	00000021 	move	zero,zero
    34cc:	00000021 	move	zero,zero
    34d0:	00000021 	move	zero,zero
    34d4:	00000021 	move	zero,zero
    34d8:	00000021 	move	zero,zero
    34dc:	00000021 	move	zero,zero
    34e0:	00000021 	move	zero,zero
    34e4:	00000021 	move	zero,zero
    34e8:	00000021 	move	zero,zero
    34ec:	3c08502b 	lui	t0,0x502b
    34f0:	3508adc0 	ori	t0,t0,0xadc0
    34f4:	0510ffeb 	bltzal	t0,34a4 <n35_bltzal_test+0x34a4>
    34f8:	00000000 	nop
    34fc:	10000013 	b	354c <n35_bltzal_test+0x354c>
    3500:	00000000 	nop
    3504:	00000000 	nop
    3508:	00000021 	move	zero,zero
    350c:	00000021 	move	zero,zero
    3510:	00000021 	move	zero,zero
    3514:	00000021 	move	zero,zero
    3518:	00000021 	move	zero,zero
    351c:	00000021 	move	zero,zero
    3520:	00000021 	move	zero,zero
    3524:	00000021 	move	zero,zero
    3528:	00000021 	move	zero,zero
    352c:	00000021 	move	zero,zero
    3530:	00000021 	move	zero,zero
    3534:	00000021 	move	zero,zero
    3538:	00000021 	move	zero,zero
    353c:	00000021 	move	zero,zero
    3540:	00000021 	move	zero,zero
    3544:	3c12370f 	lui	s2,0x370f
    3548:	365269c0 	ori	s2,s2,0x69c0
    354c:	001fa021 	addu	s4,zero,ra
    3550:	0015f821 	addu	ra,zero,s5
    3554:	3c150000 	lui	s5,0x0
    3558:	26b534ac 	addiu	s5,s5,13484
    355c:	3c160000 	lui	s6,0x0
    3560:	26d634f4 	addiu	s6,s6,13556
    3564:	24180000 	li	t8,0
    3568:	16183ba3 	bne	s0,t8,123f8 <inst_error>
    356c:	00000000 	nop
    3570:	00000000 	nop
    3574:	24180000 	li	t8,0
    3578:	16583b9f 	bne	s2,t8,123f8 <inst_error>
    357c:	00000000 	nop
    3580:	00000000 	nop
    3584:	3c19bfc0 	lui	t9,0xbfc0
    3588:	37392274 	ori	t9,t9,0x2274
    358c:	3c18bfc0 	lui	t8,0xbfc0
    3590:	3718223c 	ori	t8,t8,0x223c
    3594:	27180008 	addiu	t8,t8,8
    3598:	1319000a 	beq	t8,t9,35c4 <n35_bltzal_test+0x35c4>
    359c:	00000000 	nop
    35a0:	00000000 	nop
    35a4:	3c18bfc0 	lui	t8,0xbfc0
    35a8:	3718226c 	ori	t8,t8,0x226c
    35ac:	27180008 	addiu	t8,t8,8
    35b0:	1319000a 	beq	t8,t9,35dc <n35_bltzal_test+0x35dc>
    35b4:	00000000 	nop
    35b8:	10003b8f 	b	123f8 <inst_error>
    35bc:	00000000 	nop
    35c0:	00000000 	nop
    35c4:	26b50008 	addiu	s5,s5,8
    35c8:	16953b8b 	bne	s4,s5,123f8 <inst_error>
    35cc:	00000000 	nop
    35d0:	10000006 	b	35ec <n35_bltzal_test+0x35ec>
    35d4:	00000000 	nop
    35d8:	00000000 	nop
    35dc:	26d60008 	addiu	s6,s6,8
    35e0:	16963b85 	bne	s4,s6,123f8 <inst_error>
    35e4:	00000000 	nop
	...
    35f0:	001fa821 	addu	s5,zero,ra
    35f4:	3c0cbff1 	lui	t4,0xbff1
    35f8:	358c1c9d 	ori	t4,t4,0x1c9d
    35fc:	3c0d40ec 	lui	t5,0x40ec
    3600:	35adfeb1 	ori	t5,t5,0xfeb1
    3604:	24100000 	li	s0,0
    3608:	10000014 	b	365c <n35_bltzal_test+0x365c>
    360c:	24120000 	li	s2,0
    3610:	00000000 	nop
    3614:	3c10bff1 	lui	s0,0xbff1
    3618:	36101c9d 	ori	s0,s0,0x1c9d
    361c:	05100025 	bltzal	t0,36b4 <n35_bltzal_test+0x36b4>
    3620:	00000000 	nop
    3624:	10000025 	b	36bc <n35_bltzal_test+0x36bc>
    3628:	00000000 	nop
    362c:	00000000 	nop
    3630:	00000021 	move	zero,zero
    3634:	00000021 	move	zero,zero
    3638:	00000021 	move	zero,zero
    363c:	00000021 	move	zero,zero
    3640:	00000021 	move	zero,zero
    3644:	00000021 	move	zero,zero
    3648:	00000021 	move	zero,zero
    364c:	00000021 	move	zero,zero
    3650:	00000021 	move	zero,zero
    3654:	00000021 	move	zero,zero
    3658:	00000021 	move	zero,zero
    365c:	3c08e6da 	lui	t0,0xe6da
    3660:	35084e94 	ori	t0,t0,0x4e94
    3664:	0510ffeb 	bltzal	t0,3614 <n35_bltzal_test+0x3614>
    3668:	00000000 	nop
    366c:	10000013 	b	36bc <n35_bltzal_test+0x36bc>
    3670:	00000000 	nop
    3674:	00000000 	nop
    3678:	00000021 	move	zero,zero
    367c:	00000021 	move	zero,zero
    3680:	00000021 	move	zero,zero
    3684:	00000021 	move	zero,zero
    3688:	00000021 	move	zero,zero
    368c:	00000021 	move	zero,zero
    3690:	00000021 	move	zero,zero
    3694:	00000021 	move	zero,zero
    3698:	00000021 	move	zero,zero
    369c:	00000021 	move	zero,zero
    36a0:	00000021 	move	zero,zero
    36a4:	00000021 	move	zero,zero
    36a8:	00000021 	move	zero,zero
    36ac:	00000021 	move	zero,zero
    36b0:	00000021 	move	zero,zero
    36b4:	3c1240ec 	lui	s2,0x40ec
    36b8:	3652feb1 	ori	s2,s2,0xfeb1
    36bc:	001fa021 	addu	s4,zero,ra
    36c0:	0015f821 	addu	ra,zero,s5
    36c4:	3c150000 	lui	s5,0x0
    36c8:	26b5361c 	addiu	s5,s5,13852
    36cc:	3c160000 	lui	s6,0x0
    36d0:	26d63664 	addiu	s6,s6,13924
    36d4:	3c18bff1 	lui	t8,0xbff1
    36d8:	37181c9d 	ori	t8,t8,0x1c9d
    36dc:	16183b46 	bne	s0,t8,123f8 <inst_error>
    36e0:	00000000 	nop
    36e4:	00000000 	nop
    36e8:	3c1840ec 	lui	t8,0x40ec
    36ec:	3718feb1 	ori	t8,t8,0xfeb1
    36f0:	16583b41 	bne	s2,t8,123f8 <inst_error>
    36f4:	00000000 	nop
    36f8:	00000000 	nop
    36fc:	3c19bfc0 	lui	t9,0xbfc0
    3700:	3739231c 	ori	t9,t9,0x231c
    3704:	3c18bfc0 	lui	t8,0xbfc0
    3708:	37182314 	ori	t8,t8,0x2314
    370c:	27180008 	addiu	t8,t8,8
    3710:	1319000a 	beq	t8,t9,373c <n35_bltzal_test+0x373c>
    3714:	00000000 	nop
    3718:	00000000 	nop
    371c:	3c18bfc0 	lui	t8,0xbfc0
    3720:	37182344 	ori	t8,t8,0x2344
    3724:	27180008 	addiu	t8,t8,8
    3728:	1319000a 	beq	t8,t9,3754 <n35_bltzal_test+0x3754>
    372c:	00000000 	nop
    3730:	10003b31 	b	123f8 <inst_error>
    3734:	00000000 	nop
    3738:	00000000 	nop
    373c:	26b50008 	addiu	s5,s5,8
    3740:	16953b2d 	bne	s4,s5,123f8 <inst_error>
    3744:	00000000 	nop
    3748:	10000006 	b	3764 <n35_bltzal_test+0x3764>
    374c:	00000000 	nop
    3750:	00000000 	nop
    3754:	26d60008 	addiu	s6,s6,8
    3758:	16963b27 	bne	s4,s6,123f8 <inst_error>
    375c:	00000000 	nop
	...
    3768:	001fa821 	addu	s5,zero,ra
    376c:	3c0c7829 	lui	t4,0x7829
    3770:	358ccec0 	ori	t4,t4,0xcec0
    3774:	3c0da299 	lui	t5,0xa299
    3778:	35ad9300 	ori	t5,t5,0x9300
    377c:	24100000 	li	s0,0
    3780:	10000014 	b	37d4 <n35_bltzal_test+0x37d4>
    3784:	24120000 	li	s2,0
    3788:	00000000 	nop
    378c:	3c107829 	lui	s0,0x7829
    3790:	3610cec0 	ori	s0,s0,0xcec0
    3794:	05100025 	bltzal	t0,382c <n35_bltzal_test+0x382c>
    3798:	00000000 	nop
    379c:	10000025 	b	3834 <n35_bltzal_test+0x3834>
    37a0:	00000000 	nop
    37a4:	00000000 	nop
    37a8:	00000021 	move	zero,zero
    37ac:	00000021 	move	zero,zero
    37b0:	00000021 	move	zero,zero
    37b4:	00000021 	move	zero,zero
    37b8:	00000021 	move	zero,zero
    37bc:	00000021 	move	zero,zero
    37c0:	00000021 	move	zero,zero
    37c4:	00000021 	move	zero,zero
    37c8:	00000021 	move	zero,zero
    37cc:	00000021 	move	zero,zero
    37d0:	00000021 	move	zero,zero
    37d4:	3c085c91 	lui	t0,0x5c91
    37d8:	3508b880 	ori	t0,t0,0xb880
    37dc:	0510ffeb 	bltzal	t0,378c <n35_bltzal_test+0x378c>
    37e0:	00000000 	nop
    37e4:	10000013 	b	3834 <n35_bltzal_test+0x3834>
    37e8:	00000000 	nop
    37ec:	00000000 	nop
    37f0:	00000021 	move	zero,zero
    37f4:	00000021 	move	zero,zero
    37f8:	00000021 	move	zero,zero
    37fc:	00000021 	move	zero,zero
    3800:	00000021 	move	zero,zero
    3804:	00000021 	move	zero,zero
    3808:	00000021 	move	zero,zero
    380c:	00000021 	move	zero,zero
    3810:	00000021 	move	zero,zero
    3814:	00000021 	move	zero,zero
    3818:	00000021 	move	zero,zero
    381c:	00000021 	move	zero,zero
    3820:	00000021 	move	zero,zero
    3824:	00000021 	move	zero,zero
    3828:	00000021 	move	zero,zero
    382c:	3c12a299 	lui	s2,0xa299
    3830:	36529300 	ori	s2,s2,0x9300
    3834:	001fa021 	addu	s4,zero,ra
    3838:	0015f821 	addu	ra,zero,s5
    383c:	3c150000 	lui	s5,0x0
    3840:	26b53794 	addiu	s5,s5,14228
    3844:	3c160000 	lui	s6,0x0
    3848:	26d637dc 	addiu	s6,s6,14300
    384c:	24180000 	li	t8,0
    3850:	16183ae9 	bne	s0,t8,123f8 <inst_error>
    3854:	00000000 	nop
    3858:	00000000 	nop
    385c:	24180000 	li	t8,0
    3860:	16583ae5 	bne	s2,t8,123f8 <inst_error>
    3864:	00000000 	nop
    3868:	00000000 	nop
    386c:	3c19bfc0 	lui	t9,0xbfc0
    3870:	37392424 	ori	t9,t9,0x2424
    3874:	3c18bfc0 	lui	t8,0xbfc0
    3878:	371823ec 	ori	t8,t8,0x23ec
    387c:	27180008 	addiu	t8,t8,8
    3880:	1319000a 	beq	t8,t9,38ac <n35_bltzal_test+0x38ac>
    3884:	00000000 	nop
    3888:	00000000 	nop
    388c:	3c18bfc0 	lui	t8,0xbfc0
    3890:	3718241c 	ori	t8,t8,0x241c
    3894:	27180008 	addiu	t8,t8,8
    3898:	1319000a 	beq	t8,t9,38c4 <n35_bltzal_test+0x38c4>
    389c:	00000000 	nop
    38a0:	10003ad5 	b	123f8 <inst_error>
    38a4:	00000000 	nop
    38a8:	00000000 	nop
    38ac:	26b50008 	addiu	s5,s5,8
    38b0:	16953ad1 	bne	s4,s5,123f8 <inst_error>
    38b4:	00000000 	nop
    38b8:	10000006 	b	38d4 <n35_bltzal_test+0x38d4>
    38bc:	00000000 	nop
    38c0:	00000000 	nop
    38c4:	26d60008 	addiu	s6,s6,8
    38c8:	16963acb 	bne	s4,s6,123f8 <inst_error>
    38cc:	00000000 	nop
	...
    38d8:	001fa821 	addu	s5,zero,ra
    38dc:	3c0c7a76 	lui	t4,0x7a76
    38e0:	358c7238 	ori	t4,t4,0x7238
    38e4:	3c0d4e96 	lui	t5,0x4e96
    38e8:	35ad60c0 	ori	t5,t5,0x60c0
    38ec:	24100000 	li	s0,0
    38f0:	10000014 	b	3944 <n35_bltzal_test+0x3944>
    38f4:	24120000 	li	s2,0
    38f8:	00000000 	nop
    38fc:	3c107a76 	lui	s0,0x7a76
    3900:	36107238 	ori	s0,s0,0x7238
    3904:	05100025 	bltzal	t0,399c <n35_bltzal_test+0x399c>
    3908:	00000000 	nop
    390c:	10000025 	b	39a4 <n35_bltzal_test+0x39a4>
    3910:	00000000 	nop
    3914:	00000000 	nop
    3918:	00000021 	move	zero,zero
    391c:	00000021 	move	zero,zero
    3920:	00000021 	move	zero,zero
    3924:	00000021 	move	zero,zero
    3928:	00000021 	move	zero,zero
    392c:	00000021 	move	zero,zero
    3930:	00000021 	move	zero,zero
    3934:	00000021 	move	zero,zero
    3938:	00000021 	move	zero,zero
    393c:	00000021 	move	zero,zero
    3940:	00000021 	move	zero,zero
    3944:	3c0882ea 	lui	t0,0x82ea
    3948:	35082849 	ori	t0,t0,0x2849
    394c:	0510ffeb 	bltzal	t0,38fc <n35_bltzal_test+0x38fc>
    3950:	00000000 	nop
    3954:	10000013 	b	39a4 <n35_bltzal_test+0x39a4>
    3958:	00000000 	nop
    395c:	00000000 	nop
    3960:	00000021 	move	zero,zero
    3964:	00000021 	move	zero,zero
    3968:	00000021 	move	zero,zero
    396c:	00000021 	move	zero,zero
    3970:	00000021 	move	zero,zero
    3974:	00000021 	move	zero,zero
    3978:	00000021 	move	zero,zero
    397c:	00000021 	move	zero,zero
    3980:	00000021 	move	zero,zero
    3984:	00000021 	move	zero,zero
    3988:	00000021 	move	zero,zero
    398c:	00000021 	move	zero,zero
    3990:	00000021 	move	zero,zero
    3994:	00000021 	move	zero,zero
    3998:	00000021 	move	zero,zero
    399c:	3c124e96 	lui	s2,0x4e96
    39a0:	365260c0 	ori	s2,s2,0x60c0
    39a4:	001fa021 	addu	s4,zero,ra
    39a8:	0015f821 	addu	ra,zero,s5
    39ac:	3c150000 	lui	s5,0x0
    39b0:	26b53904 	addiu	s5,s5,14596
    39b4:	3c160000 	lui	s6,0x0
    39b8:	26d6394c 	addiu	s6,s6,14668
    39bc:	3c187a76 	lui	t8,0x7a76
    39c0:	37187238 	ori	t8,t8,0x7238
    39c4:	16183a8c 	bne	s0,t8,123f8 <inst_error>
    39c8:	00000000 	nop
    39cc:	00000000 	nop
    39d0:	3c184e96 	lui	t8,0x4e96
    39d4:	371860c0 	ori	t8,t8,0x60c0
    39d8:	16583a87 	bne	s2,t8,123f8 <inst_error>
    39dc:	00000000 	nop
    39e0:	00000000 	nop
    39e4:	3c19bfc0 	lui	t9,0xbfc0
    39e8:	373924cc 	ori	t9,t9,0x24cc
    39ec:	3c18bfc0 	lui	t8,0xbfc0
    39f0:	371824c4 	ori	t8,t8,0x24c4
    39f4:	27180008 	addiu	t8,t8,8
    39f8:	1319000a 	beq	t8,t9,3a24 <n35_bltzal_test+0x3a24>
    39fc:	00000000 	nop
    3a00:	00000000 	nop
    3a04:	3c18bfc0 	lui	t8,0xbfc0
    3a08:	371824f4 	ori	t8,t8,0x24f4
    3a0c:	27180008 	addiu	t8,t8,8
    3a10:	1319000a 	beq	t8,t9,3a3c <n35_bltzal_test+0x3a3c>
    3a14:	00000000 	nop
    3a18:	10003a77 	b	123f8 <inst_error>
    3a1c:	00000000 	nop
    3a20:	00000000 	nop
    3a24:	26b50008 	addiu	s5,s5,8
    3a28:	16953a73 	bne	s4,s5,123f8 <inst_error>
    3a2c:	00000000 	nop
    3a30:	10000006 	b	3a4c <n35_bltzal_test+0x3a4c>
    3a34:	00000000 	nop
    3a38:	00000000 	nop
    3a3c:	26d60008 	addiu	s6,s6,8
    3a40:	16963a6d 	bne	s4,s6,123f8 <inst_error>
    3a44:	00000000 	nop
	...
    3a50:	001fa821 	addu	s5,zero,ra
    3a54:	3c0c5de2 	lui	t4,0x5de2
    3a58:	358c4514 	ori	t4,t4,0x4514
    3a5c:	3c0d5d04 	lui	t5,0x5d04
    3a60:	35ad21b6 	ori	t5,t5,0x21b6
    3a64:	24100000 	li	s0,0
    3a68:	10000014 	b	3abc <n35_bltzal_test+0x3abc>
    3a6c:	24120000 	li	s2,0
    3a70:	00000000 	nop
    3a74:	3c105de2 	lui	s0,0x5de2
    3a78:	36104514 	ori	s0,s0,0x4514
    3a7c:	05100025 	bltzal	t0,3b14 <n35_bltzal_test+0x3b14>
    3a80:	00000000 	nop
    3a84:	10000025 	b	3b1c <n35_bltzal_test+0x3b1c>
    3a88:	00000000 	nop
    3a8c:	00000000 	nop
    3a90:	00000021 	move	zero,zero
    3a94:	00000021 	move	zero,zero
    3a98:	00000021 	move	zero,zero
    3a9c:	00000021 	move	zero,zero
    3aa0:	00000021 	move	zero,zero
    3aa4:	00000021 	move	zero,zero
    3aa8:	00000021 	move	zero,zero
    3aac:	00000021 	move	zero,zero
    3ab0:	00000021 	move	zero,zero
    3ab4:	00000021 	move	zero,zero
    3ab8:	00000021 	move	zero,zero
    3abc:	3c089487 	lui	t0,0x9487
    3ac0:	35080718 	ori	t0,t0,0x718
    3ac4:	0510ffeb 	bltzal	t0,3a74 <n35_bltzal_test+0x3a74>
    3ac8:	00000000 	nop
    3acc:	10000013 	b	3b1c <n35_bltzal_test+0x3b1c>
    3ad0:	00000000 	nop
    3ad4:	00000000 	nop
    3ad8:	00000021 	move	zero,zero
    3adc:	00000021 	move	zero,zero
    3ae0:	00000021 	move	zero,zero
    3ae4:	00000021 	move	zero,zero
    3ae8:	00000021 	move	zero,zero
    3aec:	00000021 	move	zero,zero
    3af0:	00000021 	move	zero,zero
    3af4:	00000021 	move	zero,zero
    3af8:	00000021 	move	zero,zero
    3afc:	00000021 	move	zero,zero
    3b00:	00000021 	move	zero,zero
    3b04:	00000021 	move	zero,zero
    3b08:	00000021 	move	zero,zero
    3b0c:	00000021 	move	zero,zero
    3b10:	00000021 	move	zero,zero
    3b14:	3c125d04 	lui	s2,0x5d04
    3b18:	365221b6 	ori	s2,s2,0x21b6
    3b1c:	001fa021 	addu	s4,zero,ra
    3b20:	0015f821 	addu	ra,zero,s5
    3b24:	3c150000 	lui	s5,0x0
    3b28:	26b53a7c 	addiu	s5,s5,14972
    3b2c:	3c160000 	lui	s6,0x0
    3b30:	26d63ac4 	addiu	s6,s6,15044
    3b34:	3c185de2 	lui	t8,0x5de2
    3b38:	37184514 	ori	t8,t8,0x4514
    3b3c:	16183a2e 	bne	s0,t8,123f8 <inst_error>
    3b40:	00000000 	nop
    3b44:	00000000 	nop
    3b48:	3c185d04 	lui	t8,0x5d04
    3b4c:	371821b6 	ori	t8,t8,0x21b6
    3b50:	16583a29 	bne	s2,t8,123f8 <inst_error>
    3b54:	00000000 	nop
    3b58:	00000000 	nop
    3b5c:	3c19bfc0 	lui	t9,0xbfc0
    3b60:	373925a4 	ori	t9,t9,0x25a4
    3b64:	3c18bfc0 	lui	t8,0xbfc0
    3b68:	3718259c 	ori	t8,t8,0x259c
    3b6c:	27180008 	addiu	t8,t8,8
    3b70:	1319000a 	beq	t8,t9,3b9c <n35_bltzal_test+0x3b9c>
    3b74:	00000000 	nop
    3b78:	00000000 	nop
    3b7c:	3c18bfc0 	lui	t8,0xbfc0
    3b80:	371825cc 	ori	t8,t8,0x25cc
    3b84:	27180008 	addiu	t8,t8,8
    3b88:	1319000a 	beq	t8,t9,3bb4 <n35_bltzal_test+0x3bb4>
    3b8c:	00000000 	nop
    3b90:	10003a19 	b	123f8 <inst_error>
    3b94:	00000000 	nop
    3b98:	00000000 	nop
    3b9c:	26b50008 	addiu	s5,s5,8
    3ba0:	16953a15 	bne	s4,s5,123f8 <inst_error>
    3ba4:	00000000 	nop
    3ba8:	10000006 	b	3bc4 <n35_bltzal_test+0x3bc4>
    3bac:	00000000 	nop
    3bb0:	00000000 	nop
    3bb4:	26d60008 	addiu	s6,s6,8
    3bb8:	16963a0f 	bne	s4,s6,123f8 <inst_error>
    3bbc:	00000000 	nop
	...
    3bc8:	001fa821 	addu	s5,zero,ra
    3bcc:	3c0c18f1 	lui	t4,0x18f1
    3bd0:	358cfa80 	ori	t4,t4,0xfa80
    3bd4:	3c0d150e 	lui	t5,0x150e
    3bd8:	35ad5c3a 	ori	t5,t5,0x5c3a
    3bdc:	24100000 	li	s0,0
    3be0:	10000014 	b	3c34 <n35_bltzal_test+0x3c34>
    3be4:	24120000 	li	s2,0
    3be8:	00000000 	nop
    3bec:	3c1018f1 	lui	s0,0x18f1
    3bf0:	3610fa80 	ori	s0,s0,0xfa80
    3bf4:	05100025 	bltzal	t0,3c8c <n35_bltzal_test+0x3c8c>
    3bf8:	00000000 	nop
    3bfc:	10000025 	b	3c94 <n35_bltzal_test+0x3c94>
    3c00:	00000000 	nop
    3c04:	00000000 	nop
    3c08:	00000021 	move	zero,zero
    3c0c:	00000021 	move	zero,zero
    3c10:	00000021 	move	zero,zero
    3c14:	00000021 	move	zero,zero
    3c18:	00000021 	move	zero,zero
    3c1c:	00000021 	move	zero,zero
    3c20:	00000021 	move	zero,zero
    3c24:	00000021 	move	zero,zero
    3c28:	00000021 	move	zero,zero
    3c2c:	00000021 	move	zero,zero
    3c30:	00000021 	move	zero,zero
    3c34:	3c08e224 	lui	t0,0xe224
    3c38:	3508cb20 	ori	t0,t0,0xcb20
    3c3c:	0510ffeb 	bltzal	t0,3bec <n35_bltzal_test+0x3bec>
    3c40:	00000000 	nop
    3c44:	10000013 	b	3c94 <n35_bltzal_test+0x3c94>
    3c48:	00000000 	nop
    3c4c:	00000000 	nop
    3c50:	00000021 	move	zero,zero
    3c54:	00000021 	move	zero,zero
    3c58:	00000021 	move	zero,zero
    3c5c:	00000021 	move	zero,zero
    3c60:	00000021 	move	zero,zero
    3c64:	00000021 	move	zero,zero
    3c68:	00000021 	move	zero,zero
    3c6c:	00000021 	move	zero,zero
    3c70:	00000021 	move	zero,zero
    3c74:	00000021 	move	zero,zero
    3c78:	00000021 	move	zero,zero
    3c7c:	00000021 	move	zero,zero
    3c80:	00000021 	move	zero,zero
    3c84:	00000021 	move	zero,zero
    3c88:	00000021 	move	zero,zero
    3c8c:	3c12150e 	lui	s2,0x150e
    3c90:	36525c3a 	ori	s2,s2,0x5c3a
    3c94:	001fa021 	addu	s4,zero,ra
    3c98:	0015f821 	addu	ra,zero,s5
    3c9c:	3c150000 	lui	s5,0x0
    3ca0:	26b53bf4 	addiu	s5,s5,15348
    3ca4:	3c160000 	lui	s6,0x0
    3ca8:	26d63c3c 	addiu	s6,s6,15420
    3cac:	3c1818f1 	lui	t8,0x18f1
    3cb0:	3718fa80 	ori	t8,t8,0xfa80
    3cb4:	161839d0 	bne	s0,t8,123f8 <inst_error>
    3cb8:	00000000 	nop
    3cbc:	00000000 	nop
    3cc0:	3c18150e 	lui	t8,0x150e
    3cc4:	37185c3a 	ori	t8,t8,0x5c3a
    3cc8:	165839cb 	bne	s2,t8,123f8 <inst_error>
    3ccc:	00000000 	nop
    3cd0:	00000000 	nop
    3cd4:	3c19bfc0 	lui	t9,0xbfc0
    3cd8:	3739267c 	ori	t9,t9,0x267c
    3cdc:	3c18bfc0 	lui	t8,0xbfc0
    3ce0:	37182674 	ori	t8,t8,0x2674
    3ce4:	27180008 	addiu	t8,t8,8
    3ce8:	1319000a 	beq	t8,t9,3d14 <n35_bltzal_test+0x3d14>
    3cec:	00000000 	nop
    3cf0:	00000000 	nop
    3cf4:	3c18bfc0 	lui	t8,0xbfc0
    3cf8:	371826a4 	ori	t8,t8,0x26a4
    3cfc:	27180008 	addiu	t8,t8,8
    3d00:	1319000a 	beq	t8,t9,3d2c <n35_bltzal_test+0x3d2c>
    3d04:	00000000 	nop
    3d08:	100039bb 	b	123f8 <inst_error>
    3d0c:	00000000 	nop
    3d10:	00000000 	nop
    3d14:	26b50008 	addiu	s5,s5,8
    3d18:	169539b7 	bne	s4,s5,123f8 <inst_error>
    3d1c:	00000000 	nop
    3d20:	10000006 	b	3d3c <n35_bltzal_test+0x3d3c>
    3d24:	00000000 	nop
    3d28:	00000000 	nop
    3d2c:	26d60008 	addiu	s6,s6,8
    3d30:	169639b1 	bne	s4,s6,123f8 <inst_error>
    3d34:	00000000 	nop
	...
    3d40:	001fa821 	addu	s5,zero,ra
    3d44:	3c0c4ea5 	lui	t4,0x4ea5
    3d48:	358ca8bc 	ori	t4,t4,0xa8bc
    3d4c:	3c0db5ed 	lui	t5,0xb5ed
    3d50:	35ad7980 	ori	t5,t5,0x7980
    3d54:	24100000 	li	s0,0
    3d58:	10000014 	b	3dac <n35_bltzal_test+0x3dac>
    3d5c:	24120000 	li	s2,0
    3d60:	00000000 	nop
    3d64:	3c104ea5 	lui	s0,0x4ea5
    3d68:	3610a8bc 	ori	s0,s0,0xa8bc
    3d6c:	05100025 	bltzal	t0,3e04 <n35_bltzal_test+0x3e04>
    3d70:	00000000 	nop
    3d74:	10000025 	b	3e0c <n35_bltzal_test+0x3e0c>
    3d78:	00000000 	nop
    3d7c:	00000000 	nop
    3d80:	00000021 	move	zero,zero
    3d84:	00000021 	move	zero,zero
    3d88:	00000021 	move	zero,zero
    3d8c:	00000021 	move	zero,zero
    3d90:	00000021 	move	zero,zero
    3d94:	00000021 	move	zero,zero
    3d98:	00000021 	move	zero,zero
    3d9c:	00000021 	move	zero,zero
    3da0:	00000021 	move	zero,zero
    3da4:	00000021 	move	zero,zero
    3da8:	00000021 	move	zero,zero
    3dac:	3c083a14 	lui	t0,0x3a14
    3db0:	3508e59e 	ori	t0,t0,0xe59e
    3db4:	0510ffeb 	bltzal	t0,3d64 <n35_bltzal_test+0x3d64>
    3db8:	00000000 	nop
    3dbc:	10000013 	b	3e0c <n35_bltzal_test+0x3e0c>
    3dc0:	00000000 	nop
    3dc4:	00000000 	nop
    3dc8:	00000021 	move	zero,zero
    3dcc:	00000021 	move	zero,zero
    3dd0:	00000021 	move	zero,zero
    3dd4:	00000021 	move	zero,zero
    3dd8:	00000021 	move	zero,zero
    3ddc:	00000021 	move	zero,zero
    3de0:	00000021 	move	zero,zero
    3de4:	00000021 	move	zero,zero
    3de8:	00000021 	move	zero,zero
    3dec:	00000021 	move	zero,zero
    3df0:	00000021 	move	zero,zero
    3df4:	00000021 	move	zero,zero
    3df8:	00000021 	move	zero,zero
    3dfc:	00000021 	move	zero,zero
    3e00:	00000021 	move	zero,zero
    3e04:	3c12b5ed 	lui	s2,0xb5ed
    3e08:	36527980 	ori	s2,s2,0x7980
    3e0c:	001fa021 	addu	s4,zero,ra
    3e10:	0015f821 	addu	ra,zero,s5
    3e14:	3c150000 	lui	s5,0x0
    3e18:	26b53d6c 	addiu	s5,s5,15724
    3e1c:	3c160000 	lui	s6,0x0
    3e20:	26d63db4 	addiu	s6,s6,15796
    3e24:	24180000 	li	t8,0
    3e28:	16183973 	bne	s0,t8,123f8 <inst_error>
    3e2c:	00000000 	nop
    3e30:	00000000 	nop
    3e34:	24180000 	li	t8,0
    3e38:	1658396f 	bne	s2,t8,123f8 <inst_error>
    3e3c:	00000000 	nop
    3e40:	00000000 	nop
    3e44:	3c19bfc0 	lui	t9,0xbfc0
    3e48:	37392784 	ori	t9,t9,0x2784
    3e4c:	3c18bfc0 	lui	t8,0xbfc0
    3e50:	3718274c 	ori	t8,t8,0x274c
    3e54:	27180008 	addiu	t8,t8,8
    3e58:	1319000a 	beq	t8,t9,3e84 <n35_bltzal_test+0x3e84>
    3e5c:	00000000 	nop
    3e60:	00000000 	nop
    3e64:	3c18bfc0 	lui	t8,0xbfc0
    3e68:	3718277c 	ori	t8,t8,0x277c
    3e6c:	27180008 	addiu	t8,t8,8
    3e70:	1319000a 	beq	t8,t9,3e9c <n35_bltzal_test+0x3e9c>
    3e74:	00000000 	nop
    3e78:	1000395f 	b	123f8 <inst_error>
    3e7c:	00000000 	nop
    3e80:	00000000 	nop
    3e84:	26b50008 	addiu	s5,s5,8
    3e88:	1695395b 	bne	s4,s5,123f8 <inst_error>
    3e8c:	00000000 	nop
    3e90:	10000006 	b	3eac <n35_bltzal_test+0x3eac>
    3e94:	00000000 	nop
    3e98:	00000000 	nop
    3e9c:	26d60008 	addiu	s6,s6,8
    3ea0:	16963955 	bne	s4,s6,123f8 <inst_error>
    3ea4:	00000000 	nop
	...
    3eb0:	001fa821 	addu	s5,zero,ra
    3eb4:	3c0c8673 	lui	t4,0x8673
    3eb8:	358c350c 	ori	t4,t4,0x350c
    3ebc:	3c0dfb5f 	lui	t5,0xfb5f
    3ec0:	35ad83b1 	ori	t5,t5,0x83b1
    3ec4:	24100000 	li	s0,0
    3ec8:	10000014 	b	3f1c <n35_bltzal_test+0x3f1c>
    3ecc:	24120000 	li	s2,0
    3ed0:	00000000 	nop
    3ed4:	3c108673 	lui	s0,0x8673
    3ed8:	3610350c 	ori	s0,s0,0x350c
    3edc:	05100025 	bltzal	t0,3f74 <n35_bltzal_test+0x3f74>
    3ee0:	00000000 	nop
    3ee4:	10000025 	b	3f7c <n35_bltzal_test+0x3f7c>
    3ee8:	00000000 	nop
    3eec:	00000000 	nop
    3ef0:	00000021 	move	zero,zero
    3ef4:	00000021 	move	zero,zero
    3ef8:	00000021 	move	zero,zero
    3efc:	00000021 	move	zero,zero
    3f00:	00000021 	move	zero,zero
    3f04:	00000021 	move	zero,zero
    3f08:	00000021 	move	zero,zero
    3f0c:	00000021 	move	zero,zero
    3f10:	00000021 	move	zero,zero
    3f14:	00000021 	move	zero,zero
    3f18:	00000021 	move	zero,zero
    3f1c:	3c08dcbd 	lui	t0,0xdcbd
    3f20:	350866d6 	ori	t0,t0,0x66d6
    3f24:	0510ffeb 	bltzal	t0,3ed4 <n35_bltzal_test+0x3ed4>
    3f28:	00000000 	nop
    3f2c:	10000013 	b	3f7c <n35_bltzal_test+0x3f7c>
    3f30:	00000000 	nop
    3f34:	00000000 	nop
    3f38:	00000021 	move	zero,zero
    3f3c:	00000021 	move	zero,zero
    3f40:	00000021 	move	zero,zero
    3f44:	00000021 	move	zero,zero
    3f48:	00000021 	move	zero,zero
    3f4c:	00000021 	move	zero,zero
    3f50:	00000021 	move	zero,zero
    3f54:	00000021 	move	zero,zero
    3f58:	00000021 	move	zero,zero
    3f5c:	00000021 	move	zero,zero
    3f60:	00000021 	move	zero,zero
    3f64:	00000021 	move	zero,zero
    3f68:	00000021 	move	zero,zero
    3f6c:	00000021 	move	zero,zero
    3f70:	00000021 	move	zero,zero
    3f74:	3c12fb5f 	lui	s2,0xfb5f
    3f78:	365283b1 	ori	s2,s2,0x83b1
    3f7c:	001fa021 	addu	s4,zero,ra
    3f80:	0015f821 	addu	ra,zero,s5
    3f84:	3c150000 	lui	s5,0x0
    3f88:	26b53edc 	addiu	s5,s5,16092
    3f8c:	3c160000 	lui	s6,0x0
    3f90:	26d63f24 	addiu	s6,s6,16164
    3f94:	3c188673 	lui	t8,0x8673
    3f98:	3718350c 	ori	t8,t8,0x350c
    3f9c:	16183916 	bne	s0,t8,123f8 <inst_error>
    3fa0:	00000000 	nop
    3fa4:	00000000 	nop
    3fa8:	3c18fb5f 	lui	t8,0xfb5f
    3fac:	371883b1 	ori	t8,t8,0x83b1
    3fb0:	16583911 	bne	s2,t8,123f8 <inst_error>
    3fb4:	00000000 	nop
    3fb8:	00000000 	nop
    3fbc:	3c19bfc0 	lui	t9,0xbfc0
    3fc0:	3739282c 	ori	t9,t9,0x282c
    3fc4:	3c18bfc0 	lui	t8,0xbfc0
    3fc8:	37182824 	ori	t8,t8,0x2824
    3fcc:	27180008 	addiu	t8,t8,8
    3fd0:	1319000a 	beq	t8,t9,3ffc <n35_bltzal_test+0x3ffc>
    3fd4:	00000000 	nop
    3fd8:	00000000 	nop
    3fdc:	3c18bfc0 	lui	t8,0xbfc0
    3fe0:	37182854 	ori	t8,t8,0x2854
    3fe4:	27180008 	addiu	t8,t8,8
    3fe8:	1319000a 	beq	t8,t9,4014 <n35_bltzal_test+0x4014>
    3fec:	00000000 	nop
    3ff0:	10003901 	b	123f8 <inst_error>
    3ff4:	00000000 	nop
    3ff8:	00000000 	nop
    3ffc:	26b50008 	addiu	s5,s5,8
    4000:	169538fd 	bne	s4,s5,123f8 <inst_error>
    4004:	00000000 	nop
    4008:	10000006 	b	4024 <n35_bltzal_test+0x4024>
    400c:	00000000 	nop
    4010:	00000000 	nop
    4014:	26d60008 	addiu	s6,s6,8
    4018:	169638f7 	bne	s4,s6,123f8 <inst_error>
    401c:	00000000 	nop
	...
    4028:	001fa821 	addu	s5,zero,ra
    402c:	3c0c960a 	lui	t4,0x960a
    4030:	358c74d8 	ori	t4,t4,0x74d8
    4034:	3c0de239 	lui	t5,0xe239
    4038:	35add950 	ori	t5,t5,0xd950
    403c:	24100000 	li	s0,0
    4040:	10000014 	b	4094 <n35_bltzal_test+0x4094>
    4044:	24120000 	li	s2,0
    4048:	00000000 	nop
    404c:	3c10960a 	lui	s0,0x960a
    4050:	361074d8 	ori	s0,s0,0x74d8
    4054:	05100025 	bltzal	t0,40ec <n35_bltzal_test+0x40ec>
    4058:	00000000 	nop
    405c:	10000025 	b	40f4 <n35_bltzal_test+0x40f4>
    4060:	00000000 	nop
    4064:	00000000 	nop
    4068:	00000021 	move	zero,zero
    406c:	00000021 	move	zero,zero
    4070:	00000021 	move	zero,zero
    4074:	00000021 	move	zero,zero
    4078:	00000021 	move	zero,zero
    407c:	00000021 	move	zero,zero
    4080:	00000021 	move	zero,zero
    4084:	00000021 	move	zero,zero
    4088:	00000021 	move	zero,zero
    408c:	00000021 	move	zero,zero
    4090:	00000021 	move	zero,zero
    4094:	3c085c84 	lui	t0,0x5c84
    4098:	3508b110 	ori	t0,t0,0xb110
    409c:	0510ffeb 	bltzal	t0,404c <n35_bltzal_test+0x404c>
    40a0:	00000000 	nop
    40a4:	10000013 	b	40f4 <n35_bltzal_test+0x40f4>
    40a8:	00000000 	nop
    40ac:	00000000 	nop
    40b0:	00000021 	move	zero,zero
    40b4:	00000021 	move	zero,zero
    40b8:	00000021 	move	zero,zero
    40bc:	00000021 	move	zero,zero
    40c0:	00000021 	move	zero,zero
    40c4:	00000021 	move	zero,zero
    40c8:	00000021 	move	zero,zero
    40cc:	00000021 	move	zero,zero
    40d0:	00000021 	move	zero,zero
    40d4:	00000021 	move	zero,zero
    40d8:	00000021 	move	zero,zero
    40dc:	00000021 	move	zero,zero
    40e0:	00000021 	move	zero,zero
    40e4:	00000021 	move	zero,zero
    40e8:	00000021 	move	zero,zero
    40ec:	3c12e239 	lui	s2,0xe239
    40f0:	3652d950 	ori	s2,s2,0xd950
    40f4:	001fa021 	addu	s4,zero,ra
    40f8:	0015f821 	addu	ra,zero,s5
    40fc:	3c150000 	lui	s5,0x0
    4100:	26b54054 	addiu	s5,s5,16468
    4104:	3c160000 	lui	s6,0x0
    4108:	26d6409c 	addiu	s6,s6,16540
    410c:	24180000 	li	t8,0
    4110:	161838b9 	bne	s0,t8,123f8 <inst_error>
    4114:	00000000 	nop
    4118:	00000000 	nop
    411c:	24180000 	li	t8,0
    4120:	165838b5 	bne	s2,t8,123f8 <inst_error>
    4124:	00000000 	nop
    4128:	00000000 	nop
    412c:	3c19bfc0 	lui	t9,0xbfc0
    4130:	37392934 	ori	t9,t9,0x2934
    4134:	3c18bfc0 	lui	t8,0xbfc0
    4138:	371828fc 	ori	t8,t8,0x28fc
    413c:	27180008 	addiu	t8,t8,8
    4140:	1319000a 	beq	t8,t9,416c <n35_bltzal_test+0x416c>
    4144:	00000000 	nop
    4148:	00000000 	nop
    414c:	3c18bfc0 	lui	t8,0xbfc0
    4150:	3718292c 	ori	t8,t8,0x292c
    4154:	27180008 	addiu	t8,t8,8
    4158:	1319000a 	beq	t8,t9,4184 <n35_bltzal_test+0x4184>
    415c:	00000000 	nop
    4160:	100038a5 	b	123f8 <inst_error>
    4164:	00000000 	nop
    4168:	00000000 	nop
    416c:	26b50008 	addiu	s5,s5,8
    4170:	169538a1 	bne	s4,s5,123f8 <inst_error>
    4174:	00000000 	nop
    4178:	10000006 	b	4194 <n35_bltzal_test+0x4194>
    417c:	00000000 	nop
    4180:	00000000 	nop
    4184:	26d60008 	addiu	s6,s6,8
    4188:	1696389b 	bne	s4,s6,123f8 <inst_error>
    418c:	00000000 	nop
	...
    4198:	001fa821 	addu	s5,zero,ra
    419c:	3c0c25f6 	lui	t4,0x25f6
    41a0:	358caa30 	ori	t4,t4,0xaa30
    41a4:	3c0d43d5 	lui	t5,0x43d5
    41a8:	35adc894 	ori	t5,t5,0xc894
    41ac:	24100000 	li	s0,0
    41b0:	10000014 	b	4204 <n35_bltzal_test+0x4204>
    41b4:	24120000 	li	s2,0
    41b8:	00000000 	nop
    41bc:	3c1025f6 	lui	s0,0x25f6
    41c0:	3610aa30 	ori	s0,s0,0xaa30
    41c4:	05100025 	bltzal	t0,425c <n35_bltzal_test+0x425c>
    41c8:	00000000 	nop
    41cc:	10000025 	b	4264 <n35_bltzal_test+0x4264>
    41d0:	00000000 	nop
    41d4:	00000000 	nop
    41d8:	00000021 	move	zero,zero
    41dc:	00000021 	move	zero,zero
    41e0:	00000021 	move	zero,zero
    41e4:	00000021 	move	zero,zero
    41e8:	00000021 	move	zero,zero
    41ec:	00000021 	move	zero,zero
    41f0:	00000021 	move	zero,zero
    41f4:	00000021 	move	zero,zero
    41f8:	00000021 	move	zero,zero
    41fc:	00000021 	move	zero,zero
    4200:	00000021 	move	zero,zero
    4204:	3c08fc08 	lui	t0,0xfc08
    4208:	3508307a 	ori	t0,t0,0x307a
    420c:	0510ffeb 	bltzal	t0,41bc <n35_bltzal_test+0x41bc>
    4210:	00000000 	nop
    4214:	10000013 	b	4264 <n35_bltzal_test+0x4264>
    4218:	00000000 	nop
    421c:	00000000 	nop
    4220:	00000021 	move	zero,zero
    4224:	00000021 	move	zero,zero
    4228:	00000021 	move	zero,zero
    422c:	00000021 	move	zero,zero
    4230:	00000021 	move	zero,zero
    4234:	00000021 	move	zero,zero
    4238:	00000021 	move	zero,zero
    423c:	00000021 	move	zero,zero
    4240:	00000021 	move	zero,zero
    4244:	00000021 	move	zero,zero
    4248:	00000021 	move	zero,zero
    424c:	00000021 	move	zero,zero
    4250:	00000021 	move	zero,zero
    4254:	00000021 	move	zero,zero
    4258:	00000021 	move	zero,zero
    425c:	3c1243d5 	lui	s2,0x43d5
    4260:	3652c894 	ori	s2,s2,0xc894
    4264:	001fa021 	addu	s4,zero,ra
    4268:	0015f821 	addu	ra,zero,s5
    426c:	3c150000 	lui	s5,0x0
    4270:	26b541c4 	addiu	s5,s5,16836
    4274:	3c160000 	lui	s6,0x0
    4278:	26d6420c 	addiu	s6,s6,16908
    427c:	3c1825f6 	lui	t8,0x25f6
    4280:	3718aa30 	ori	t8,t8,0xaa30
    4284:	1618385c 	bne	s0,t8,123f8 <inst_error>
    4288:	00000000 	nop
    428c:	00000000 	nop
    4290:	3c1843d5 	lui	t8,0x43d5
    4294:	3718c894 	ori	t8,t8,0xc894
    4298:	16583857 	bne	s2,t8,123f8 <inst_error>
    429c:	00000000 	nop
    42a0:	00000000 	nop
    42a4:	3c19bfc0 	lui	t9,0xbfc0
    42a8:	373929dc 	ori	t9,t9,0x29dc
    42ac:	3c18bfc0 	lui	t8,0xbfc0
    42b0:	371829d4 	ori	t8,t8,0x29d4
    42b4:	27180008 	addiu	t8,t8,8
    42b8:	1319000a 	beq	t8,t9,42e4 <n35_bltzal_test+0x42e4>
    42bc:	00000000 	nop
    42c0:	00000000 	nop
    42c4:	3c18bfc0 	lui	t8,0xbfc0
    42c8:	37182a04 	ori	t8,t8,0x2a04
    42cc:	27180008 	addiu	t8,t8,8
    42d0:	1319000a 	beq	t8,t9,42fc <n35_bltzal_test+0x42fc>
    42d4:	00000000 	nop
    42d8:	10003847 	b	123f8 <inst_error>
    42dc:	00000000 	nop
    42e0:	00000000 	nop
    42e4:	26b50008 	addiu	s5,s5,8
    42e8:	16953843 	bne	s4,s5,123f8 <inst_error>
    42ec:	00000000 	nop
    42f0:	10000006 	b	430c <n35_bltzal_test+0x430c>
    42f4:	00000000 	nop
    42f8:	00000000 	nop
    42fc:	26d60008 	addiu	s6,s6,8
    4300:	1696383d 	bne	s4,s6,123f8 <inst_error>
    4304:	00000000 	nop
	...
    4310:	001fa821 	addu	s5,zero,ra
    4314:	3c0c8338 	lui	t4,0x8338
    4318:	358cae38 	ori	t4,t4,0xae38
    431c:	3c0df28d 	lui	t5,0xf28d
    4320:	35add8d0 	ori	t5,t5,0xd8d0
    4324:	24100000 	li	s0,0
    4328:	10000014 	b	437c <n35_bltzal_test+0x437c>
    432c:	24120000 	li	s2,0
    4330:	00000000 	nop
    4334:	3c108338 	lui	s0,0x8338
    4338:	3610ae38 	ori	s0,s0,0xae38
    433c:	05100025 	bltzal	t0,43d4 <n35_bltzal_test+0x43d4>
    4340:	00000000 	nop
    4344:	10000025 	b	43dc <n35_bltzal_test+0x43dc>
    4348:	00000000 	nop
    434c:	00000000 	nop
    4350:	00000021 	move	zero,zero
    4354:	00000021 	move	zero,zero
    4358:	00000021 	move	zero,zero
    435c:	00000021 	move	zero,zero
    4360:	00000021 	move	zero,zero
    4364:	00000021 	move	zero,zero
    4368:	00000021 	move	zero,zero
    436c:	00000021 	move	zero,zero
    4370:	00000021 	move	zero,zero
    4374:	00000021 	move	zero,zero
    4378:	00000021 	move	zero,zero
    437c:	3c0830ae 	lui	t0,0x30ae
    4380:	3508e220 	ori	t0,t0,0xe220
    4384:	0510ffeb 	bltzal	t0,4334 <n35_bltzal_test+0x4334>
    4388:	00000000 	nop
    438c:	10000013 	b	43dc <n35_bltzal_test+0x43dc>
    4390:	00000000 	nop
    4394:	00000000 	nop
    4398:	00000021 	move	zero,zero
    439c:	00000021 	move	zero,zero
    43a0:	00000021 	move	zero,zero
    43a4:	00000021 	move	zero,zero
    43a8:	00000021 	move	zero,zero
    43ac:	00000021 	move	zero,zero
    43b0:	00000021 	move	zero,zero
    43b4:	00000021 	move	zero,zero
    43b8:	00000021 	move	zero,zero
    43bc:	00000021 	move	zero,zero
    43c0:	00000021 	move	zero,zero
    43c4:	00000021 	move	zero,zero
    43c8:	00000021 	move	zero,zero
    43cc:	00000021 	move	zero,zero
    43d0:	00000021 	move	zero,zero
    43d4:	3c12f28d 	lui	s2,0xf28d
    43d8:	3652d8d0 	ori	s2,s2,0xd8d0
    43dc:	001fa021 	addu	s4,zero,ra
    43e0:	0015f821 	addu	ra,zero,s5
    43e4:	3c150000 	lui	s5,0x0
    43e8:	26b5433c 	addiu	s5,s5,17212
    43ec:	3c160000 	lui	s6,0x0
    43f0:	26d64384 	addiu	s6,s6,17284
    43f4:	24180000 	li	t8,0
    43f8:	161837ff 	bne	s0,t8,123f8 <inst_error>
    43fc:	00000000 	nop
    4400:	00000000 	nop
    4404:	24180000 	li	t8,0
    4408:	165837fb 	bne	s2,t8,123f8 <inst_error>
    440c:	00000000 	nop
    4410:	00000000 	nop
    4414:	3c19bfc0 	lui	t9,0xbfc0
    4418:	37392ae4 	ori	t9,t9,0x2ae4
    441c:	3c18bfc0 	lui	t8,0xbfc0
    4420:	37182aac 	ori	t8,t8,0x2aac
    4424:	27180008 	addiu	t8,t8,8
    4428:	1319000a 	beq	t8,t9,4454 <n35_bltzal_test+0x4454>
    442c:	00000000 	nop
    4430:	00000000 	nop
    4434:	3c18bfc0 	lui	t8,0xbfc0
    4438:	37182adc 	ori	t8,t8,0x2adc
    443c:	27180008 	addiu	t8,t8,8
    4440:	1319000a 	beq	t8,t9,446c <n35_bltzal_test+0x446c>
    4444:	00000000 	nop
    4448:	100037eb 	b	123f8 <inst_error>
    444c:	00000000 	nop
    4450:	00000000 	nop
    4454:	26b50008 	addiu	s5,s5,8
    4458:	169537e7 	bne	s4,s5,123f8 <inst_error>
    445c:	00000000 	nop
    4460:	10000006 	b	447c <n35_bltzal_test+0x447c>
    4464:	00000000 	nop
    4468:	00000000 	nop
    446c:	26d60008 	addiu	s6,s6,8
    4470:	169637e1 	bne	s4,s6,123f8 <inst_error>
    4474:	00000000 	nop
	...
    4480:	001fa821 	addu	s5,zero,ra
    4484:	3c0ca4f7 	lui	t4,0xa4f7
    4488:	358caacf 	ori	t4,t4,0xaacf
    448c:	3c0da39c 	lui	t5,0xa39c
    4490:	35ad66c0 	ori	t5,t5,0x66c0
    4494:	24100000 	li	s0,0
    4498:	10000014 	b	44ec <n35_bltzal_test+0x44ec>
    449c:	24120000 	li	s2,0
    44a0:	00000000 	nop
    44a4:	3c10a4f7 	lui	s0,0xa4f7
    44a8:	3610aacf 	ori	s0,s0,0xaacf
    44ac:	05100025 	bltzal	t0,4544 <n35_bltzal_test+0x4544>
    44b0:	00000000 	nop
    44b4:	10000025 	b	454c <n35_bltzal_test+0x454c>
    44b8:	00000000 	nop
    44bc:	00000000 	nop
    44c0:	00000021 	move	zero,zero
    44c4:	00000021 	move	zero,zero
    44c8:	00000021 	move	zero,zero
    44cc:	00000021 	move	zero,zero
    44d0:	00000021 	move	zero,zero
    44d4:	00000021 	move	zero,zero
    44d8:	00000021 	move	zero,zero
    44dc:	00000021 	move	zero,zero
    44e0:	00000021 	move	zero,zero
    44e4:	00000021 	move	zero,zero
    44e8:	00000021 	move	zero,zero
    44ec:	3c0885bd 	lui	t0,0x85bd
    44f0:	35085b3a 	ori	t0,t0,0x5b3a
    44f4:	0510ffeb 	bltzal	t0,44a4 <n35_bltzal_test+0x44a4>
    44f8:	00000000 	nop
    44fc:	10000013 	b	454c <n35_bltzal_test+0x454c>
    4500:	00000000 	nop
    4504:	00000000 	nop
    4508:	00000021 	move	zero,zero
    450c:	00000021 	move	zero,zero
    4510:	00000021 	move	zero,zero
    4514:	00000021 	move	zero,zero
    4518:	00000021 	move	zero,zero
    451c:	00000021 	move	zero,zero
    4520:	00000021 	move	zero,zero
    4524:	00000021 	move	zero,zero
    4528:	00000021 	move	zero,zero
    452c:	00000021 	move	zero,zero
    4530:	00000021 	move	zero,zero
    4534:	00000021 	move	zero,zero
    4538:	00000021 	move	zero,zero
    453c:	00000021 	move	zero,zero
    4540:	00000021 	move	zero,zero
    4544:	3c12a39c 	lui	s2,0xa39c
    4548:	365266c0 	ori	s2,s2,0x66c0
    454c:	001fa021 	addu	s4,zero,ra
    4550:	0015f821 	addu	ra,zero,s5
    4554:	3c150000 	lui	s5,0x0
    4558:	26b544ac 	addiu	s5,s5,17580
    455c:	3c160000 	lui	s6,0x0
    4560:	26d644f4 	addiu	s6,s6,17652
    4564:	3c18a4f7 	lui	t8,0xa4f7
    4568:	3718aacf 	ori	t8,t8,0xaacf
    456c:	161837a2 	bne	s0,t8,123f8 <inst_error>
    4570:	00000000 	nop
    4574:	00000000 	nop
    4578:	3c18a39c 	lui	t8,0xa39c
    457c:	371866c0 	ori	t8,t8,0x66c0
    4580:	1658379d 	bne	s2,t8,123f8 <inst_error>
    4584:	00000000 	nop
    4588:	00000000 	nop
    458c:	3c19bfc0 	lui	t9,0xbfc0
    4590:	37392b8c 	ori	t9,t9,0x2b8c
    4594:	3c18bfc0 	lui	t8,0xbfc0
    4598:	37182b84 	ori	t8,t8,0x2b84
    459c:	27180008 	addiu	t8,t8,8
    45a0:	1319000a 	beq	t8,t9,45cc <n35_bltzal_test+0x45cc>
    45a4:	00000000 	nop
    45a8:	00000000 	nop
    45ac:	3c18bfc0 	lui	t8,0xbfc0
    45b0:	37182bb4 	ori	t8,t8,0x2bb4
    45b4:	27180008 	addiu	t8,t8,8
    45b8:	1319000a 	beq	t8,t9,45e4 <n35_bltzal_test+0x45e4>
    45bc:	00000000 	nop
    45c0:	1000378d 	b	123f8 <inst_error>
    45c4:	00000000 	nop
    45c8:	00000000 	nop
    45cc:	26b50008 	addiu	s5,s5,8
    45d0:	16953789 	bne	s4,s5,123f8 <inst_error>
    45d4:	00000000 	nop
    45d8:	10000006 	b	45f4 <n35_bltzal_test+0x45f4>
    45dc:	00000000 	nop
    45e0:	00000000 	nop
    45e4:	26d60008 	addiu	s6,s6,8
    45e8:	16963783 	bne	s4,s6,123f8 <inst_error>
    45ec:	00000000 	nop
	...
    45f8:	001fa821 	addu	s5,zero,ra
    45fc:	3c0c3fed 	lui	t4,0x3fed
    4600:	358ca210 	ori	t4,t4,0xa210
    4604:	3c0d7711 	lui	t5,0x7711
    4608:	35ad7a8c 	ori	t5,t5,0x7a8c
    460c:	24100000 	li	s0,0
    4610:	10000014 	b	4664 <n35_bltzal_test+0x4664>
    4614:	24120000 	li	s2,0
    4618:	00000000 	nop
    461c:	3c103fed 	lui	s0,0x3fed
    4620:	3610a210 	ori	s0,s0,0xa210
    4624:	05100025 	bltzal	t0,46bc <n35_bltzal_test+0x46bc>
    4628:	00000000 	nop
    462c:	10000025 	b	46c4 <n35_bltzal_test+0x46c4>
    4630:	00000000 	nop
    4634:	00000000 	nop
    4638:	00000021 	move	zero,zero
    463c:	00000021 	move	zero,zero
    4640:	00000021 	move	zero,zero
    4644:	00000021 	move	zero,zero
    4648:	00000021 	move	zero,zero
    464c:	00000021 	move	zero,zero
    4650:	00000021 	move	zero,zero
    4654:	00000021 	move	zero,zero
    4658:	00000021 	move	zero,zero
    465c:	00000021 	move	zero,zero
    4660:	00000021 	move	zero,zero
    4664:	3c08a171 	lui	t0,0xa171
    4668:	3508fee0 	ori	t0,t0,0xfee0
    466c:	0510ffeb 	bltzal	t0,461c <n35_bltzal_test+0x461c>
    4670:	00000000 	nop
    4674:	10000013 	b	46c4 <n35_bltzal_test+0x46c4>
    4678:	00000000 	nop
    467c:	00000000 	nop
    4680:	00000021 	move	zero,zero
    4684:	00000021 	move	zero,zero
    4688:	00000021 	move	zero,zero
    468c:	00000021 	move	zero,zero
    4690:	00000021 	move	zero,zero
    4694:	00000021 	move	zero,zero
    4698:	00000021 	move	zero,zero
    469c:	00000021 	move	zero,zero
    46a0:	00000021 	move	zero,zero
    46a4:	00000021 	move	zero,zero
    46a8:	00000021 	move	zero,zero
    46ac:	00000021 	move	zero,zero
    46b0:	00000021 	move	zero,zero
    46b4:	00000021 	move	zero,zero
    46b8:	00000021 	move	zero,zero
    46bc:	3c127711 	lui	s2,0x7711
    46c0:	36527a8c 	ori	s2,s2,0x7a8c
    46c4:	001fa021 	addu	s4,zero,ra
    46c8:	0015f821 	addu	ra,zero,s5
    46cc:	3c150000 	lui	s5,0x0
    46d0:	26b54624 	addiu	s5,s5,17956
    46d4:	3c160000 	lui	s6,0x0
    46d8:	26d6466c 	addiu	s6,s6,18028
    46dc:	3c183fed 	lui	t8,0x3fed
    46e0:	3718a210 	ori	t8,t8,0xa210
    46e4:	16183744 	bne	s0,t8,123f8 <inst_error>
    46e8:	00000000 	nop
    46ec:	00000000 	nop
    46f0:	3c187711 	lui	t8,0x7711
    46f4:	37187a8c 	ori	t8,t8,0x7a8c
    46f8:	1658373f 	bne	s2,t8,123f8 <inst_error>
    46fc:	00000000 	nop
    4700:	00000000 	nop
    4704:	3c19bfc0 	lui	t9,0xbfc0
    4708:	37392c64 	ori	t9,t9,0x2c64
    470c:	3c18bfc0 	lui	t8,0xbfc0
    4710:	37182c5c 	ori	t8,t8,0x2c5c
    4714:	27180008 	addiu	t8,t8,8
    4718:	1319000a 	beq	t8,t9,4744 <n35_bltzal_test+0x4744>
    471c:	00000000 	nop
    4720:	00000000 	nop
    4724:	3c18bfc0 	lui	t8,0xbfc0
    4728:	37182c8c 	ori	t8,t8,0x2c8c
    472c:	27180008 	addiu	t8,t8,8
    4730:	1319000a 	beq	t8,t9,475c <n35_bltzal_test+0x475c>
    4734:	00000000 	nop
    4738:	1000372f 	b	123f8 <inst_error>
    473c:	00000000 	nop
    4740:	00000000 	nop
    4744:	26b50008 	addiu	s5,s5,8
    4748:	1695372b 	bne	s4,s5,123f8 <inst_error>
    474c:	00000000 	nop
    4750:	10000006 	b	476c <n35_bltzal_test+0x476c>
    4754:	00000000 	nop
    4758:	00000000 	nop
    475c:	26d60008 	addiu	s6,s6,8
    4760:	16963725 	bne	s4,s6,123f8 <inst_error>
    4764:	00000000 	nop
	...
    4770:	001fa821 	addu	s5,zero,ra
    4774:	3c0cee52 	lui	t4,0xee52
    4778:	358cc578 	ori	t4,t4,0xc578
    477c:	3c0d2489 	lui	t5,0x2489
    4780:	35ad0ec0 	ori	t5,t5,0xec0
    4784:	24100000 	li	s0,0
    4788:	10000014 	b	47dc <n35_bltzal_test+0x47dc>
    478c:	24120000 	li	s2,0
    4790:	00000000 	nop
    4794:	3c10ee52 	lui	s0,0xee52
    4798:	3610c578 	ori	s0,s0,0xc578
    479c:	05100025 	bltzal	t0,4834 <n35_bltzal_test+0x4834>
    47a0:	00000000 	nop
    47a4:	10000025 	b	483c <n35_bltzal_test+0x483c>
    47a8:	00000000 	nop
    47ac:	00000000 	nop
    47b0:	00000021 	move	zero,zero
    47b4:	00000021 	move	zero,zero
    47b8:	00000021 	move	zero,zero
    47bc:	00000021 	move	zero,zero
    47c0:	00000021 	move	zero,zero
    47c4:	00000021 	move	zero,zero
    47c8:	00000021 	move	zero,zero
    47cc:	00000021 	move	zero,zero
    47d0:	00000021 	move	zero,zero
    47d4:	00000021 	move	zero,zero
    47d8:	00000021 	move	zero,zero
    47dc:	3c087963 	lui	t0,0x7963
    47e0:	35087610 	ori	t0,t0,0x7610
    47e4:	0510ffeb 	bltzal	t0,4794 <n35_bltzal_test+0x4794>
    47e8:	00000000 	nop
    47ec:	10000013 	b	483c <n35_bltzal_test+0x483c>
    47f0:	00000000 	nop
    47f4:	00000000 	nop
    47f8:	00000021 	move	zero,zero
    47fc:	00000021 	move	zero,zero
    4800:	00000021 	move	zero,zero
    4804:	00000021 	move	zero,zero
    4808:	00000021 	move	zero,zero
    480c:	00000021 	move	zero,zero
    4810:	00000021 	move	zero,zero
    4814:	00000021 	move	zero,zero
    4818:	00000021 	move	zero,zero
    481c:	00000021 	move	zero,zero
    4820:	00000021 	move	zero,zero
    4824:	00000021 	move	zero,zero
    4828:	00000021 	move	zero,zero
    482c:	00000021 	move	zero,zero
    4830:	00000021 	move	zero,zero
    4834:	3c122489 	lui	s2,0x2489
    4838:	36520ec0 	ori	s2,s2,0xec0
    483c:	001fa021 	addu	s4,zero,ra
    4840:	0015f821 	addu	ra,zero,s5
    4844:	3c150000 	lui	s5,0x0
    4848:	26b5479c 	addiu	s5,s5,18332
    484c:	3c160000 	lui	s6,0x0
    4850:	26d647e4 	addiu	s6,s6,18404
    4854:	24180000 	li	t8,0
    4858:	161836e7 	bne	s0,t8,123f8 <inst_error>
    485c:	00000000 	nop
    4860:	00000000 	nop
    4864:	24180000 	li	t8,0
    4868:	165836e3 	bne	s2,t8,123f8 <inst_error>
    486c:	00000000 	nop
    4870:	00000000 	nop
    4874:	3c19bfc0 	lui	t9,0xbfc0
    4878:	37392d6c 	ori	t9,t9,0x2d6c
    487c:	3c18bfc0 	lui	t8,0xbfc0
    4880:	37182d34 	ori	t8,t8,0x2d34
    4884:	27180008 	addiu	t8,t8,8
    4888:	1319000a 	beq	t8,t9,48b4 <n35_bltzal_test+0x48b4>
    488c:	00000000 	nop
    4890:	00000000 	nop
    4894:	3c18bfc0 	lui	t8,0xbfc0
    4898:	37182d64 	ori	t8,t8,0x2d64
    489c:	27180008 	addiu	t8,t8,8
    48a0:	1319000a 	beq	t8,t9,48cc <n35_bltzal_test+0x48cc>
    48a4:	00000000 	nop
    48a8:	100036d3 	b	123f8 <inst_error>
    48ac:	00000000 	nop
    48b0:	00000000 	nop
    48b4:	26b50008 	addiu	s5,s5,8
    48b8:	169536cf 	bne	s4,s5,123f8 <inst_error>
    48bc:	00000000 	nop
    48c0:	10000006 	b	48dc <n35_bltzal_test+0x48dc>
    48c4:	00000000 	nop
    48c8:	00000000 	nop
    48cc:	26d60008 	addiu	s6,s6,8
    48d0:	169636c9 	bne	s4,s6,123f8 <inst_error>
    48d4:	00000000 	nop
	...
    48e0:	001fa821 	addu	s5,zero,ra
    48e4:	3c0c846b 	lui	t4,0x846b
    48e8:	358c8bea 	ori	t4,t4,0x8bea
    48ec:	3c0d0727 	lui	t5,0x727
    48f0:	35adfb08 	ori	t5,t5,0xfb08
    48f4:	24100000 	li	s0,0
    48f8:	10000014 	b	494c <n35_bltzal_test+0x494c>
    48fc:	24120000 	li	s2,0
    4900:	00000000 	nop
    4904:	3c10846b 	lui	s0,0x846b
    4908:	36108bea 	ori	s0,s0,0x8bea
    490c:	05100025 	bltzal	t0,49a4 <n35_bltzal_test+0x49a4>
    4910:	00000000 	nop
    4914:	10000025 	b	49ac <n35_bltzal_test+0x49ac>
    4918:	00000000 	nop
    491c:	00000000 	nop
    4920:	00000021 	move	zero,zero
    4924:	00000021 	move	zero,zero
    4928:	00000021 	move	zero,zero
    492c:	00000021 	move	zero,zero
    4930:	00000021 	move	zero,zero
    4934:	00000021 	move	zero,zero
    4938:	00000021 	move	zero,zero
    493c:	00000021 	move	zero,zero
    4940:	00000021 	move	zero,zero
    4944:	00000021 	move	zero,zero
    4948:	00000021 	move	zero,zero
    494c:	3c08bfea 	lui	t0,0xbfea
    4950:	350829c4 	ori	t0,t0,0x29c4
    4954:	0510ffeb 	bltzal	t0,4904 <n35_bltzal_test+0x4904>
    4958:	00000000 	nop
    495c:	10000013 	b	49ac <n35_bltzal_test+0x49ac>
    4960:	00000000 	nop
    4964:	00000000 	nop
    4968:	00000021 	move	zero,zero
    496c:	00000021 	move	zero,zero
    4970:	00000021 	move	zero,zero
    4974:	00000021 	move	zero,zero
    4978:	00000021 	move	zero,zero
    497c:	00000021 	move	zero,zero
    4980:	00000021 	move	zero,zero
    4984:	00000021 	move	zero,zero
    4988:	00000021 	move	zero,zero
    498c:	00000021 	move	zero,zero
    4990:	00000021 	move	zero,zero
    4994:	00000021 	move	zero,zero
    4998:	00000021 	move	zero,zero
    499c:	00000021 	move	zero,zero
    49a0:	00000021 	move	zero,zero
    49a4:	3c120727 	lui	s2,0x727
    49a8:	3652fb08 	ori	s2,s2,0xfb08
    49ac:	001fa021 	addu	s4,zero,ra
    49b0:	0015f821 	addu	ra,zero,s5
    49b4:	3c150000 	lui	s5,0x0
    49b8:	26b5490c 	addiu	s5,s5,18700
    49bc:	3c160000 	lui	s6,0x0
    49c0:	26d64954 	addiu	s6,s6,18772
    49c4:	3c18846b 	lui	t8,0x846b
    49c8:	37188bea 	ori	t8,t8,0x8bea
    49cc:	1618368a 	bne	s0,t8,123f8 <inst_error>
    49d0:	00000000 	nop
    49d4:	00000000 	nop
    49d8:	3c180727 	lui	t8,0x727
    49dc:	3718fb08 	ori	t8,t8,0xfb08
    49e0:	16583685 	bne	s2,t8,123f8 <inst_error>
    49e4:	00000000 	nop
    49e8:	00000000 	nop
    49ec:	3c19bfc0 	lui	t9,0xbfc0
    49f0:	37392e14 	ori	t9,t9,0x2e14
    49f4:	3c18bfc0 	lui	t8,0xbfc0
    49f8:	37182e0c 	ori	t8,t8,0x2e0c
    49fc:	27180008 	addiu	t8,t8,8
    4a00:	1319000a 	beq	t8,t9,4a2c <n35_bltzal_test+0x4a2c>
    4a04:	00000000 	nop
    4a08:	00000000 	nop
    4a0c:	3c18bfc0 	lui	t8,0xbfc0
    4a10:	37182e3c 	ori	t8,t8,0x2e3c
    4a14:	27180008 	addiu	t8,t8,8
    4a18:	1319000a 	beq	t8,t9,4a44 <n35_bltzal_test+0x4a44>
    4a1c:	00000000 	nop
    4a20:	10003675 	b	123f8 <inst_error>
    4a24:	00000000 	nop
    4a28:	00000000 	nop
    4a2c:	26b50008 	addiu	s5,s5,8
    4a30:	16953671 	bne	s4,s5,123f8 <inst_error>
    4a34:	00000000 	nop
    4a38:	10000006 	b	4a54 <n35_bltzal_test+0x4a54>
    4a3c:	00000000 	nop
    4a40:	00000000 	nop
    4a44:	26d60008 	addiu	s6,s6,8
    4a48:	1696366b 	bne	s4,s6,123f8 <inst_error>
    4a4c:	00000000 	nop
	...
    4a58:	001fa821 	addu	s5,zero,ra
    4a5c:	3c0cb19f 	lui	t4,0xb19f
    4a60:	358c9e78 	ori	t4,t4,0x9e78
    4a64:	3c0dd53b 	lui	t5,0xd53b
    4a68:	35ad62e4 	ori	t5,t5,0x62e4
    4a6c:	24100000 	li	s0,0
    4a70:	10000014 	b	4ac4 <n35_bltzal_test+0x4ac4>
    4a74:	24120000 	li	s2,0
    4a78:	00000000 	nop
    4a7c:	3c10b19f 	lui	s0,0xb19f
    4a80:	36109e78 	ori	s0,s0,0x9e78
    4a84:	05100025 	bltzal	t0,4b1c <n35_bltzal_test+0x4b1c>
    4a88:	00000000 	nop
    4a8c:	10000025 	b	4b24 <n35_bltzal_test+0x4b24>
    4a90:	00000000 	nop
    4a94:	00000000 	nop
    4a98:	00000021 	move	zero,zero
    4a9c:	00000021 	move	zero,zero
    4aa0:	00000021 	move	zero,zero
    4aa4:	00000021 	move	zero,zero
    4aa8:	00000021 	move	zero,zero
    4aac:	00000021 	move	zero,zero
    4ab0:	00000021 	move	zero,zero
    4ab4:	00000021 	move	zero,zero
    4ab8:	00000021 	move	zero,zero
    4abc:	00000021 	move	zero,zero
    4ac0:	00000021 	move	zero,zero
    4ac4:	3c086c10 	lui	t0,0x6c10
    4ac8:	35083040 	ori	t0,t0,0x3040
    4acc:	0510ffeb 	bltzal	t0,4a7c <n35_bltzal_test+0x4a7c>
    4ad0:	00000000 	nop
    4ad4:	10000013 	b	4b24 <n35_bltzal_test+0x4b24>
    4ad8:	00000000 	nop
    4adc:	00000000 	nop
    4ae0:	00000021 	move	zero,zero
    4ae4:	00000021 	move	zero,zero
    4ae8:	00000021 	move	zero,zero
    4aec:	00000021 	move	zero,zero
    4af0:	00000021 	move	zero,zero
    4af4:	00000021 	move	zero,zero
    4af8:	00000021 	move	zero,zero
    4afc:	00000021 	move	zero,zero
    4b00:	00000021 	move	zero,zero
    4b04:	00000021 	move	zero,zero
    4b08:	00000021 	move	zero,zero
    4b0c:	00000021 	move	zero,zero
    4b10:	00000021 	move	zero,zero
    4b14:	00000021 	move	zero,zero
    4b18:	00000021 	move	zero,zero
    4b1c:	3c12d53b 	lui	s2,0xd53b
    4b20:	365262e4 	ori	s2,s2,0x62e4
    4b24:	001fa021 	addu	s4,zero,ra
    4b28:	0015f821 	addu	ra,zero,s5
    4b2c:	3c150000 	lui	s5,0x0
    4b30:	26b54a84 	addiu	s5,s5,19076
    4b34:	3c160000 	lui	s6,0x0
    4b38:	26d64acc 	addiu	s6,s6,19148
    4b3c:	24180000 	li	t8,0
    4b40:	1618362d 	bne	s0,t8,123f8 <inst_error>
    4b44:	00000000 	nop
    4b48:	00000000 	nop
    4b4c:	24180000 	li	t8,0
    4b50:	16583629 	bne	s2,t8,123f8 <inst_error>
    4b54:	00000000 	nop
    4b58:	00000000 	nop
    4b5c:	3c19bfc0 	lui	t9,0xbfc0
    4b60:	37392f1c 	ori	t9,t9,0x2f1c
    4b64:	3c18bfc0 	lui	t8,0xbfc0
    4b68:	37182ee4 	ori	t8,t8,0x2ee4
    4b6c:	27180008 	addiu	t8,t8,8
    4b70:	1319000a 	beq	t8,t9,4b9c <n35_bltzal_test+0x4b9c>
    4b74:	00000000 	nop
    4b78:	00000000 	nop
    4b7c:	3c18bfc0 	lui	t8,0xbfc0
    4b80:	37182f14 	ori	t8,t8,0x2f14
    4b84:	27180008 	addiu	t8,t8,8
    4b88:	1319000a 	beq	t8,t9,4bb4 <n35_bltzal_test+0x4bb4>
    4b8c:	00000000 	nop
    4b90:	10003619 	b	123f8 <inst_error>
    4b94:	00000000 	nop
    4b98:	00000000 	nop
    4b9c:	26b50008 	addiu	s5,s5,8
    4ba0:	16953615 	bne	s4,s5,123f8 <inst_error>
    4ba4:	00000000 	nop
    4ba8:	10000006 	b	4bc4 <n35_bltzal_test+0x4bc4>
    4bac:	00000000 	nop
    4bb0:	00000000 	nop
    4bb4:	26d60008 	addiu	s6,s6,8
    4bb8:	1696360f 	bne	s4,s6,123f8 <inst_error>
    4bbc:	00000000 	nop
	...
    4bc8:	001fa821 	addu	s5,zero,ra
    4bcc:	3c0cc18b 	lui	t4,0xc18b
    4bd0:	358c61f1 	ori	t4,t4,0x61f1
    4bd4:	3c0db8d2 	lui	t5,0xb8d2
    4bd8:	35ad2ab0 	ori	t5,t5,0x2ab0
    4bdc:	24100000 	li	s0,0
    4be0:	10000014 	b	4c34 <n35_bltzal_test+0x4c34>
    4be4:	24120000 	li	s2,0
    4be8:	00000000 	nop
    4bec:	3c10c18b 	lui	s0,0xc18b
    4bf0:	361061f1 	ori	s0,s0,0x61f1
    4bf4:	05100025 	bltzal	t0,4c8c <n35_bltzal_test+0x4c8c>
    4bf8:	00000000 	nop
    4bfc:	10000025 	b	4c94 <n35_bltzal_test+0x4c94>
    4c00:	00000000 	nop
    4c04:	00000000 	nop
    4c08:	00000021 	move	zero,zero
    4c0c:	00000021 	move	zero,zero
    4c10:	00000021 	move	zero,zero
    4c14:	00000021 	move	zero,zero
    4c18:	00000021 	move	zero,zero
    4c1c:	00000021 	move	zero,zero
    4c20:	00000021 	move	zero,zero
    4c24:	00000021 	move	zero,zero
    4c28:	00000021 	move	zero,zero
    4c2c:	00000021 	move	zero,zero
    4c30:	00000021 	move	zero,zero
    4c34:	3c084fa2 	lui	t0,0x4fa2
    4c38:	35086e80 	ori	t0,t0,0x6e80
    4c3c:	0510ffeb 	bltzal	t0,4bec <n35_bltzal_test+0x4bec>
    4c40:	00000000 	nop
    4c44:	10000013 	b	4c94 <n35_bltzal_test+0x4c94>
    4c48:	00000000 	nop
    4c4c:	00000000 	nop
    4c50:	00000021 	move	zero,zero
    4c54:	00000021 	move	zero,zero
    4c58:	00000021 	move	zero,zero
    4c5c:	00000021 	move	zero,zero
    4c60:	00000021 	move	zero,zero
    4c64:	00000021 	move	zero,zero
    4c68:	00000021 	move	zero,zero
    4c6c:	00000021 	move	zero,zero
    4c70:	00000021 	move	zero,zero
    4c74:	00000021 	move	zero,zero
    4c78:	00000021 	move	zero,zero
    4c7c:	00000021 	move	zero,zero
    4c80:	00000021 	move	zero,zero
    4c84:	00000021 	move	zero,zero
    4c88:	00000021 	move	zero,zero
    4c8c:	3c12b8d2 	lui	s2,0xb8d2
    4c90:	36522ab0 	ori	s2,s2,0x2ab0
    4c94:	001fa021 	addu	s4,zero,ra
    4c98:	0015f821 	addu	ra,zero,s5
    4c9c:	3c150000 	lui	s5,0x0
    4ca0:	26b54bf4 	addiu	s5,s5,19444
    4ca4:	3c160000 	lui	s6,0x0
    4ca8:	26d64c3c 	addiu	s6,s6,19516
    4cac:	24180000 	li	t8,0
    4cb0:	161835d1 	bne	s0,t8,123f8 <inst_error>
    4cb4:	00000000 	nop
    4cb8:	00000000 	nop
    4cbc:	24180000 	li	t8,0
    4cc0:	165835cd 	bne	s2,t8,123f8 <inst_error>
    4cc4:	00000000 	nop
    4cc8:	00000000 	nop
    4ccc:	3c19bfc0 	lui	t9,0xbfc0
    4cd0:	37392ff4 	ori	t9,t9,0x2ff4
    4cd4:	3c18bfc0 	lui	t8,0xbfc0
    4cd8:	37182fbc 	ori	t8,t8,0x2fbc
    4cdc:	27180008 	addiu	t8,t8,8
    4ce0:	1319000a 	beq	t8,t9,4d0c <n35_bltzal_test+0x4d0c>
    4ce4:	00000000 	nop
    4ce8:	00000000 	nop
    4cec:	3c18bfc0 	lui	t8,0xbfc0
    4cf0:	37182fec 	ori	t8,t8,0x2fec
    4cf4:	27180008 	addiu	t8,t8,8
    4cf8:	1319000a 	beq	t8,t9,4d24 <n35_bltzal_test+0x4d24>
    4cfc:	00000000 	nop
    4d00:	100035bd 	b	123f8 <inst_error>
    4d04:	00000000 	nop
    4d08:	00000000 	nop
    4d0c:	26b50008 	addiu	s5,s5,8
    4d10:	169535b9 	bne	s4,s5,123f8 <inst_error>
    4d14:	00000000 	nop
    4d18:	10000006 	b	4d34 <n35_bltzal_test+0x4d34>
    4d1c:	00000000 	nop
    4d20:	00000000 	nop
    4d24:	26d60008 	addiu	s6,s6,8
    4d28:	169635b3 	bne	s4,s6,123f8 <inst_error>
    4d2c:	00000000 	nop
	...
    4d38:	001fa821 	addu	s5,zero,ra
    4d3c:	3c0cf327 	lui	t4,0xf327
    4d40:	358cc65e 	ori	t4,t4,0xc65e
    4d44:	3c0dd36c 	lui	t5,0xd36c
    4d48:	35adfac0 	ori	t5,t5,0xfac0
    4d4c:	24100000 	li	s0,0
    4d50:	10000014 	b	4da4 <n35_bltzal_test+0x4da4>
    4d54:	24120000 	li	s2,0
    4d58:	00000000 	nop
    4d5c:	3c10f327 	lui	s0,0xf327
    4d60:	3610c65e 	ori	s0,s0,0xc65e
    4d64:	05100025 	bltzal	t0,4dfc <n35_bltzal_test+0x4dfc>
    4d68:	00000000 	nop
    4d6c:	10000025 	b	4e04 <n35_bltzal_test+0x4e04>
    4d70:	00000000 	nop
    4d74:	00000000 	nop
    4d78:	00000021 	move	zero,zero
    4d7c:	00000021 	move	zero,zero
    4d80:	00000021 	move	zero,zero
    4d84:	00000021 	move	zero,zero
    4d88:	00000021 	move	zero,zero
    4d8c:	00000021 	move	zero,zero
    4d90:	00000021 	move	zero,zero
    4d94:	00000021 	move	zero,zero
    4d98:	00000021 	move	zero,zero
    4d9c:	00000021 	move	zero,zero
    4da0:	00000021 	move	zero,zero
    4da4:	3c0808e1 	lui	t0,0x8e1
    4da8:	35084a7e 	ori	t0,t0,0x4a7e
    4dac:	0510ffeb 	bltzal	t0,4d5c <n35_bltzal_test+0x4d5c>
    4db0:	00000000 	nop
    4db4:	10000013 	b	4e04 <n35_bltzal_test+0x4e04>
    4db8:	00000000 	nop
    4dbc:	00000000 	nop
    4dc0:	00000021 	move	zero,zero
    4dc4:	00000021 	move	zero,zero
    4dc8:	00000021 	move	zero,zero
    4dcc:	00000021 	move	zero,zero
    4dd0:	00000021 	move	zero,zero
    4dd4:	00000021 	move	zero,zero
    4dd8:	00000021 	move	zero,zero
    4ddc:	00000021 	move	zero,zero
    4de0:	00000021 	move	zero,zero
    4de4:	00000021 	move	zero,zero
    4de8:	00000021 	move	zero,zero
    4dec:	00000021 	move	zero,zero
    4df0:	00000021 	move	zero,zero
    4df4:	00000021 	move	zero,zero
    4df8:	00000021 	move	zero,zero
    4dfc:	3c12d36c 	lui	s2,0xd36c
    4e00:	3652fac0 	ori	s2,s2,0xfac0
    4e04:	001fa021 	addu	s4,zero,ra
    4e08:	0015f821 	addu	ra,zero,s5
    4e0c:	3c150000 	lui	s5,0x0
    4e10:	26b54d64 	addiu	s5,s5,19812
    4e14:	3c160000 	lui	s6,0x0
    4e18:	26d64dac 	addiu	s6,s6,19884
    4e1c:	24180000 	li	t8,0
    4e20:	16183575 	bne	s0,t8,123f8 <inst_error>
    4e24:	00000000 	nop
    4e28:	00000000 	nop
    4e2c:	24180000 	li	t8,0
    4e30:	16583571 	bne	s2,t8,123f8 <inst_error>
    4e34:	00000000 	nop
    4e38:	00000000 	nop
    4e3c:	3c19bfc0 	lui	t9,0xbfc0
    4e40:	373930cc 	ori	t9,t9,0x30cc
    4e44:	3c18bfc0 	lui	t8,0xbfc0
    4e48:	37183094 	ori	t8,t8,0x3094
    4e4c:	27180008 	addiu	t8,t8,8
    4e50:	1319000a 	beq	t8,t9,4e7c <n35_bltzal_test+0x4e7c>
    4e54:	00000000 	nop
    4e58:	00000000 	nop
    4e5c:	3c18bfc0 	lui	t8,0xbfc0
    4e60:	371830c4 	ori	t8,t8,0x30c4
    4e64:	27180008 	addiu	t8,t8,8
    4e68:	1319000a 	beq	t8,t9,4e94 <n35_bltzal_test+0x4e94>
    4e6c:	00000000 	nop
    4e70:	10003561 	b	123f8 <inst_error>
    4e74:	00000000 	nop
    4e78:	00000000 	nop
    4e7c:	26b50008 	addiu	s5,s5,8
    4e80:	1695355d 	bne	s4,s5,123f8 <inst_error>
    4e84:	00000000 	nop
    4e88:	10000006 	b	4ea4 <n35_bltzal_test+0x4ea4>
    4e8c:	00000000 	nop
    4e90:	00000000 	nop
    4e94:	26d60008 	addiu	s6,s6,8
    4e98:	16963557 	bne	s4,s6,123f8 <inst_error>
    4e9c:	00000000 	nop
	...
    4ea8:	001fa821 	addu	s5,zero,ra
    4eac:	3c0c08d5 	lui	t4,0x8d5
    4eb0:	358cb74a 	ori	t4,t4,0xb74a
    4eb4:	3c0dff5d 	lui	t5,0xff5d
    4eb8:	35ad10e4 	ori	t5,t5,0x10e4
    4ebc:	24100000 	li	s0,0
    4ec0:	10000014 	b	4f14 <n35_bltzal_test+0x4f14>
    4ec4:	24120000 	li	s2,0
    4ec8:	00000000 	nop
    4ecc:	3c1008d5 	lui	s0,0x8d5
    4ed0:	3610b74a 	ori	s0,s0,0xb74a
    4ed4:	05100025 	bltzal	t0,4f6c <n35_bltzal_test+0x4f6c>
    4ed8:	00000000 	nop
    4edc:	10000025 	b	4f74 <n35_bltzal_test+0x4f74>
    4ee0:	00000000 	nop
    4ee4:	00000000 	nop
    4ee8:	00000021 	move	zero,zero
    4eec:	00000021 	move	zero,zero
    4ef0:	00000021 	move	zero,zero
    4ef4:	00000021 	move	zero,zero
    4ef8:	00000021 	move	zero,zero
    4efc:	00000021 	move	zero,zero
    4f00:	00000021 	move	zero,zero
    4f04:	00000021 	move	zero,zero
    4f08:	00000021 	move	zero,zero
    4f0c:	00000021 	move	zero,zero
    4f10:	00000021 	move	zero,zero
    4f14:	3c089564 	lui	t0,0x9564
    4f18:	35084160 	ori	t0,t0,0x4160
    4f1c:	0510ffeb 	bltzal	t0,4ecc <n35_bltzal_test+0x4ecc>
    4f20:	00000000 	nop
    4f24:	10000013 	b	4f74 <n35_bltzal_test+0x4f74>
    4f28:	00000000 	nop
    4f2c:	00000000 	nop
    4f30:	00000021 	move	zero,zero
    4f34:	00000021 	move	zero,zero
    4f38:	00000021 	move	zero,zero
    4f3c:	00000021 	move	zero,zero
    4f40:	00000021 	move	zero,zero
    4f44:	00000021 	move	zero,zero
    4f48:	00000021 	move	zero,zero
    4f4c:	00000021 	move	zero,zero
    4f50:	00000021 	move	zero,zero
    4f54:	00000021 	move	zero,zero
    4f58:	00000021 	move	zero,zero
    4f5c:	00000021 	move	zero,zero
    4f60:	00000021 	move	zero,zero
    4f64:	00000021 	move	zero,zero
    4f68:	00000021 	move	zero,zero
    4f6c:	3c12ff5d 	lui	s2,0xff5d
    4f70:	365210e4 	ori	s2,s2,0x10e4
    4f74:	001fa021 	addu	s4,zero,ra
    4f78:	0015f821 	addu	ra,zero,s5
    4f7c:	3c150000 	lui	s5,0x0
    4f80:	26b54ed4 	addiu	s5,s5,20180
    4f84:	3c160000 	lui	s6,0x0
    4f88:	26d64f1c 	addiu	s6,s6,20252
    4f8c:	3c1808d5 	lui	t8,0x8d5
    4f90:	3718b74a 	ori	t8,t8,0xb74a
    4f94:	16183518 	bne	s0,t8,123f8 <inst_error>
    4f98:	00000000 	nop
    4f9c:	00000000 	nop
    4fa0:	3c18ff5d 	lui	t8,0xff5d
    4fa4:	371810e4 	ori	t8,t8,0x10e4
    4fa8:	16583513 	bne	s2,t8,123f8 <inst_error>
    4fac:	00000000 	nop
    4fb0:	00000000 	nop
    4fb4:	3c19bfc0 	lui	t9,0xbfc0
    4fb8:	37393174 	ori	t9,t9,0x3174
    4fbc:	3c18bfc0 	lui	t8,0xbfc0
    4fc0:	3718316c 	ori	t8,t8,0x316c
    4fc4:	27180008 	addiu	t8,t8,8
    4fc8:	1319000a 	beq	t8,t9,4ff4 <n35_bltzal_test+0x4ff4>
    4fcc:	00000000 	nop
    4fd0:	00000000 	nop
    4fd4:	3c18bfc0 	lui	t8,0xbfc0
    4fd8:	3718319c 	ori	t8,t8,0x319c
    4fdc:	27180008 	addiu	t8,t8,8
    4fe0:	1319000a 	beq	t8,t9,500c <n35_bltzal_test+0x500c>
    4fe4:	00000000 	nop
    4fe8:	10003503 	b	123f8 <inst_error>
    4fec:	00000000 	nop
    4ff0:	00000000 	nop
    4ff4:	26b50008 	addiu	s5,s5,8
    4ff8:	169534ff 	bne	s4,s5,123f8 <inst_error>
    4ffc:	00000000 	nop
    5000:	10000006 	b	501c <n35_bltzal_test+0x501c>
    5004:	00000000 	nop
    5008:	00000000 	nop
    500c:	26d60008 	addiu	s6,s6,8
    5010:	169634f9 	bne	s4,s6,123f8 <inst_error>
    5014:	00000000 	nop
	...
    5020:	001fa821 	addu	s5,zero,ra
    5024:	3c0c38d5 	lui	t4,0x38d5
    5028:	358c1fd0 	ori	t4,t4,0x1fd0
    502c:	3c0d47bc 	lui	t5,0x47bc
    5030:	35add2f0 	ori	t5,t5,0xd2f0
    5034:	24100000 	li	s0,0
    5038:	10000014 	b	508c <n35_bltzal_test+0x508c>
    503c:	24120000 	li	s2,0
    5040:	00000000 	nop
    5044:	3c1038d5 	lui	s0,0x38d5
    5048:	36101fd0 	ori	s0,s0,0x1fd0
    504c:	05100025 	bltzal	t0,50e4 <n35_bltzal_test+0x50e4>
    5050:	00000000 	nop
    5054:	10000025 	b	50ec <n35_bltzal_test+0x50ec>
    5058:	00000000 	nop
    505c:	00000000 	nop
    5060:	00000021 	move	zero,zero
    5064:	00000021 	move	zero,zero
    5068:	00000021 	move	zero,zero
    506c:	00000021 	move	zero,zero
    5070:	00000021 	move	zero,zero
    5074:	00000021 	move	zero,zero
    5078:	00000021 	move	zero,zero
    507c:	00000021 	move	zero,zero
    5080:	00000021 	move	zero,zero
    5084:	00000021 	move	zero,zero
    5088:	00000021 	move	zero,zero
    508c:	3c08e113 	lui	t0,0xe113
    5090:	350849c8 	ori	t0,t0,0x49c8
    5094:	0510ffeb 	bltzal	t0,5044 <n35_bltzal_test+0x5044>
    5098:	00000000 	nop
    509c:	10000013 	b	50ec <n35_bltzal_test+0x50ec>
    50a0:	00000000 	nop
    50a4:	00000000 	nop
    50a8:	00000021 	move	zero,zero
    50ac:	00000021 	move	zero,zero
    50b0:	00000021 	move	zero,zero
    50b4:	00000021 	move	zero,zero
    50b8:	00000021 	move	zero,zero
    50bc:	00000021 	move	zero,zero
    50c0:	00000021 	move	zero,zero
    50c4:	00000021 	move	zero,zero
    50c8:	00000021 	move	zero,zero
    50cc:	00000021 	move	zero,zero
    50d0:	00000021 	move	zero,zero
    50d4:	00000021 	move	zero,zero
    50d8:	00000021 	move	zero,zero
    50dc:	00000021 	move	zero,zero
    50e0:	00000021 	move	zero,zero
    50e4:	3c1247bc 	lui	s2,0x47bc
    50e8:	3652d2f0 	ori	s2,s2,0xd2f0
    50ec:	001fa021 	addu	s4,zero,ra
    50f0:	0015f821 	addu	ra,zero,s5
    50f4:	3c150000 	lui	s5,0x0
    50f8:	26b5504c 	addiu	s5,s5,20556
    50fc:	3c160000 	lui	s6,0x0
    5100:	26d65094 	addiu	s6,s6,20628
    5104:	3c1838d5 	lui	t8,0x38d5
    5108:	37181fd0 	ori	t8,t8,0x1fd0
    510c:	161834ba 	bne	s0,t8,123f8 <inst_error>
    5110:	00000000 	nop
    5114:	00000000 	nop
    5118:	3c1847bc 	lui	t8,0x47bc
    511c:	3718d2f0 	ori	t8,t8,0xd2f0
    5120:	165834b5 	bne	s2,t8,123f8 <inst_error>
    5124:	00000000 	nop
    5128:	00000000 	nop
    512c:	3c19bfc0 	lui	t9,0xbfc0
    5130:	3739324c 	ori	t9,t9,0x324c
    5134:	3c18bfc0 	lui	t8,0xbfc0
    5138:	37183244 	ori	t8,t8,0x3244
    513c:	27180008 	addiu	t8,t8,8
    5140:	1319000a 	beq	t8,t9,516c <n35_bltzal_test+0x516c>
    5144:	00000000 	nop
    5148:	00000000 	nop
    514c:	3c18bfc0 	lui	t8,0xbfc0
    5150:	37183274 	ori	t8,t8,0x3274
    5154:	27180008 	addiu	t8,t8,8
    5158:	1319000a 	beq	t8,t9,5184 <n35_bltzal_test+0x5184>
    515c:	00000000 	nop
    5160:	100034a5 	b	123f8 <inst_error>
    5164:	00000000 	nop
    5168:	00000000 	nop
    516c:	26b50008 	addiu	s5,s5,8
    5170:	169534a1 	bne	s4,s5,123f8 <inst_error>
    5174:	00000000 	nop
    5178:	10000006 	b	5194 <n35_bltzal_test+0x5194>
    517c:	00000000 	nop
    5180:	00000000 	nop
    5184:	26d60008 	addiu	s6,s6,8
    5188:	1696349b 	bne	s4,s6,123f8 <inst_error>
    518c:	00000000 	nop
	...
    5198:	001fa821 	addu	s5,zero,ra
    519c:	3c0c170d 	lui	t4,0x170d
    51a0:	358c0e20 	ori	t4,t4,0xe20
    51a4:	3c0d53a1 	lui	t5,0x53a1
    51a8:	35add234 	ori	t5,t5,0xd234
    51ac:	24100000 	li	s0,0
    51b0:	10000014 	b	5204 <n35_bltzal_test+0x5204>
    51b4:	24120000 	li	s2,0
    51b8:	00000000 	nop
    51bc:	3c10170d 	lui	s0,0x170d
    51c0:	36100e20 	ori	s0,s0,0xe20
    51c4:	05100025 	bltzal	t0,525c <n35_bltzal_test+0x525c>
    51c8:	00000000 	nop
    51cc:	10000025 	b	5264 <n35_bltzal_test+0x5264>
    51d0:	00000000 	nop
    51d4:	00000000 	nop
    51d8:	00000021 	move	zero,zero
    51dc:	00000021 	move	zero,zero
    51e0:	00000021 	move	zero,zero
    51e4:	00000021 	move	zero,zero
    51e8:	00000021 	move	zero,zero
    51ec:	00000021 	move	zero,zero
    51f0:	00000021 	move	zero,zero
    51f4:	00000021 	move	zero,zero
    51f8:	00000021 	move	zero,zero
    51fc:	00000021 	move	zero,zero
    5200:	00000021 	move	zero,zero
    5204:	3c08ab05 	lui	t0,0xab05
    5208:	3508d540 	ori	t0,t0,0xd540
    520c:	0510ffeb 	bltzal	t0,51bc <n35_bltzal_test+0x51bc>
    5210:	00000000 	nop
    5214:	10000013 	b	5264 <n35_bltzal_test+0x5264>
    5218:	00000000 	nop
    521c:	00000000 	nop
    5220:	00000021 	move	zero,zero
    5224:	00000021 	move	zero,zero
    5228:	00000021 	move	zero,zero
    522c:	00000021 	move	zero,zero
    5230:	00000021 	move	zero,zero
    5234:	00000021 	move	zero,zero
    5238:	00000021 	move	zero,zero
    523c:	00000021 	move	zero,zero
    5240:	00000021 	move	zero,zero
    5244:	00000021 	move	zero,zero
    5248:	00000021 	move	zero,zero
    524c:	00000021 	move	zero,zero
    5250:	00000021 	move	zero,zero
    5254:	00000021 	move	zero,zero
    5258:	00000021 	move	zero,zero
    525c:	3c1253a1 	lui	s2,0x53a1
    5260:	3652d234 	ori	s2,s2,0xd234
    5264:	001fa021 	addu	s4,zero,ra
    5268:	0015f821 	addu	ra,zero,s5
    526c:	3c150000 	lui	s5,0x0
    5270:	26b551c4 	addiu	s5,s5,20932
    5274:	3c160000 	lui	s6,0x0
    5278:	26d6520c 	addiu	s6,s6,21004
    527c:	3c18170d 	lui	t8,0x170d
    5280:	37180e20 	ori	t8,t8,0xe20
    5284:	1618345c 	bne	s0,t8,123f8 <inst_error>
    5288:	00000000 	nop
    528c:	00000000 	nop
    5290:	3c1853a1 	lui	t8,0x53a1
    5294:	3718d234 	ori	t8,t8,0xd234
    5298:	16583457 	bne	s2,t8,123f8 <inst_error>
    529c:	00000000 	nop
    52a0:	00000000 	nop
    52a4:	3c19bfc0 	lui	t9,0xbfc0
    52a8:	37393324 	ori	t9,t9,0x3324
    52ac:	3c18bfc0 	lui	t8,0xbfc0
    52b0:	3718331c 	ori	t8,t8,0x331c
    52b4:	27180008 	addiu	t8,t8,8
    52b8:	1319000a 	beq	t8,t9,52e4 <n35_bltzal_test+0x52e4>
    52bc:	00000000 	nop
    52c0:	00000000 	nop
    52c4:	3c18bfc0 	lui	t8,0xbfc0
    52c8:	3718334c 	ori	t8,t8,0x334c
    52cc:	27180008 	addiu	t8,t8,8
    52d0:	1319000a 	beq	t8,t9,52fc <n35_bltzal_test+0x52fc>
    52d4:	00000000 	nop
    52d8:	10003447 	b	123f8 <inst_error>
    52dc:	00000000 	nop
    52e0:	00000000 	nop
    52e4:	26b50008 	addiu	s5,s5,8
    52e8:	16953443 	bne	s4,s5,123f8 <inst_error>
    52ec:	00000000 	nop
    52f0:	10000006 	b	530c <n35_bltzal_test+0x530c>
    52f4:	00000000 	nop
    52f8:	00000000 	nop
    52fc:	26d60008 	addiu	s6,s6,8
    5300:	1696343d 	bne	s4,s6,123f8 <inst_error>
    5304:	00000000 	nop
	...
    5310:	001fa821 	addu	s5,zero,ra
    5314:	3c0c7703 	lui	t4,0x7703
    5318:	358c0fa0 	ori	t4,t4,0xfa0
    531c:	3c0de076 	lui	t5,0xe076
    5320:	35ad6080 	ori	t5,t5,0x6080
    5324:	24100000 	li	s0,0
    5328:	10000014 	b	537c <n35_bltzal_test+0x537c>
    532c:	24120000 	li	s2,0
    5330:	00000000 	nop
    5334:	3c107703 	lui	s0,0x7703
    5338:	36100fa0 	ori	s0,s0,0xfa0
    533c:	05100025 	bltzal	t0,53d4 <n35_bltzal_test+0x53d4>
    5340:	00000000 	nop
    5344:	10000025 	b	53dc <n35_bltzal_test+0x53dc>
    5348:	00000000 	nop
    534c:	00000000 	nop
    5350:	00000021 	move	zero,zero
    5354:	00000021 	move	zero,zero
    5358:	00000021 	move	zero,zero
    535c:	00000021 	move	zero,zero
    5360:	00000021 	move	zero,zero
    5364:	00000021 	move	zero,zero
    5368:	00000021 	move	zero,zero
    536c:	00000021 	move	zero,zero
    5370:	00000021 	move	zero,zero
    5374:	00000021 	move	zero,zero
    5378:	00000021 	move	zero,zero
    537c:	3c080082 	lui	t0,0x82
    5380:	35087dc8 	ori	t0,t0,0x7dc8
    5384:	0510ffeb 	bltzal	t0,5334 <n35_bltzal_test+0x5334>
    5388:	00000000 	nop
    538c:	10000013 	b	53dc <n35_bltzal_test+0x53dc>
    5390:	00000000 	nop
    5394:	00000000 	nop
    5398:	00000021 	move	zero,zero
    539c:	00000021 	move	zero,zero
    53a0:	00000021 	move	zero,zero
    53a4:	00000021 	move	zero,zero
    53a8:	00000021 	move	zero,zero
    53ac:	00000021 	move	zero,zero
    53b0:	00000021 	move	zero,zero
    53b4:	00000021 	move	zero,zero
    53b8:	00000021 	move	zero,zero
    53bc:	00000021 	move	zero,zero
    53c0:	00000021 	move	zero,zero
    53c4:	00000021 	move	zero,zero
    53c8:	00000021 	move	zero,zero
    53cc:	00000021 	move	zero,zero
    53d0:	00000021 	move	zero,zero
    53d4:	3c12e076 	lui	s2,0xe076
    53d8:	36526080 	ori	s2,s2,0x6080
    53dc:	001fa021 	addu	s4,zero,ra
    53e0:	0015f821 	addu	ra,zero,s5
    53e4:	3c150000 	lui	s5,0x0
    53e8:	26b5533c 	addiu	s5,s5,21308
    53ec:	3c160000 	lui	s6,0x0
    53f0:	26d65384 	addiu	s6,s6,21380
    53f4:	24180000 	li	t8,0
    53f8:	161833ff 	bne	s0,t8,123f8 <inst_error>
    53fc:	00000000 	nop
    5400:	00000000 	nop
    5404:	24180000 	li	t8,0
    5408:	165833fb 	bne	s2,t8,123f8 <inst_error>
    540c:	00000000 	nop
    5410:	00000000 	nop
    5414:	3c19bfc0 	lui	t9,0xbfc0
    5418:	3739342c 	ori	t9,t9,0x342c
    541c:	3c18bfc0 	lui	t8,0xbfc0
    5420:	371833f4 	ori	t8,t8,0x33f4
    5424:	27180008 	addiu	t8,t8,8
    5428:	1319000a 	beq	t8,t9,5454 <n35_bltzal_test+0x5454>
    542c:	00000000 	nop
    5430:	00000000 	nop
    5434:	3c18bfc0 	lui	t8,0xbfc0
    5438:	37183424 	ori	t8,t8,0x3424
    543c:	27180008 	addiu	t8,t8,8
    5440:	1319000a 	beq	t8,t9,546c <n35_bltzal_test+0x546c>
    5444:	00000000 	nop
    5448:	100033eb 	b	123f8 <inst_error>
    544c:	00000000 	nop
    5450:	00000000 	nop
    5454:	26b50008 	addiu	s5,s5,8
    5458:	169533e7 	bne	s4,s5,123f8 <inst_error>
    545c:	00000000 	nop
    5460:	10000006 	b	547c <n35_bltzal_test+0x547c>
    5464:	00000000 	nop
    5468:	00000000 	nop
    546c:	26d60008 	addiu	s6,s6,8
    5470:	169633e1 	bne	s4,s6,123f8 <inst_error>
    5474:	00000000 	nop
	...
    5480:	001fa821 	addu	s5,zero,ra
    5484:	3c0cff1f 	lui	t4,0xff1f
    5488:	358c696e 	ori	t4,t4,0x696e
    548c:	3c0dc65c 	lui	t5,0xc65c
    5490:	35ad117e 	ori	t5,t5,0x117e
    5494:	24100000 	li	s0,0
    5498:	10000014 	b	54ec <n35_bltzal_test+0x54ec>
    549c:	24120000 	li	s2,0
    54a0:	00000000 	nop
    54a4:	3c10ff1f 	lui	s0,0xff1f
    54a8:	3610696e 	ori	s0,s0,0x696e
    54ac:	05100025 	bltzal	t0,5544 <n35_bltzal_test+0x5544>
    54b0:	00000000 	nop
    54b4:	10000025 	b	554c <n35_bltzal_test+0x554c>
    54b8:	00000000 	nop
    54bc:	00000000 	nop
    54c0:	00000021 	move	zero,zero
    54c4:	00000021 	move	zero,zero
    54c8:	00000021 	move	zero,zero
    54cc:	00000021 	move	zero,zero
    54d0:	00000021 	move	zero,zero
    54d4:	00000021 	move	zero,zero
    54d8:	00000021 	move	zero,zero
    54dc:	00000021 	move	zero,zero
    54e0:	00000021 	move	zero,zero
    54e4:	00000021 	move	zero,zero
    54e8:	00000021 	move	zero,zero
    54ec:	3c084fb7 	lui	t0,0x4fb7
    54f0:	350895e8 	ori	t0,t0,0x95e8
    54f4:	0510ffeb 	bltzal	t0,54a4 <n35_bltzal_test+0x54a4>
    54f8:	00000000 	nop
    54fc:	10000013 	b	554c <n35_bltzal_test+0x554c>
    5500:	00000000 	nop
    5504:	00000000 	nop
    5508:	00000021 	move	zero,zero
    550c:	00000021 	move	zero,zero
    5510:	00000021 	move	zero,zero
    5514:	00000021 	move	zero,zero
    5518:	00000021 	move	zero,zero
    551c:	00000021 	move	zero,zero
    5520:	00000021 	move	zero,zero
    5524:	00000021 	move	zero,zero
    5528:	00000021 	move	zero,zero
    552c:	00000021 	move	zero,zero
    5530:	00000021 	move	zero,zero
    5534:	00000021 	move	zero,zero
    5538:	00000021 	move	zero,zero
    553c:	00000021 	move	zero,zero
    5540:	00000021 	move	zero,zero
    5544:	3c12c65c 	lui	s2,0xc65c
    5548:	3652117e 	ori	s2,s2,0x117e
    554c:	001fa021 	addu	s4,zero,ra
    5550:	0015f821 	addu	ra,zero,s5
    5554:	3c150000 	lui	s5,0x0
    5558:	26b554ac 	addiu	s5,s5,21676
    555c:	3c160000 	lui	s6,0x0
    5560:	26d654f4 	addiu	s6,s6,21748
    5564:	24180000 	li	t8,0
    5568:	161833a3 	bne	s0,t8,123f8 <inst_error>
    556c:	00000000 	nop
    5570:	00000000 	nop
    5574:	24180000 	li	t8,0
    5578:	1658339f 	bne	s2,t8,123f8 <inst_error>
    557c:	00000000 	nop
    5580:	00000000 	nop
    5584:	3c19bfc0 	lui	t9,0xbfc0
    5588:	37393504 	ori	t9,t9,0x3504
    558c:	3c18bfc0 	lui	t8,0xbfc0
    5590:	371834cc 	ori	t8,t8,0x34cc
    5594:	27180008 	addiu	t8,t8,8
    5598:	1319000a 	beq	t8,t9,55c4 <n35_bltzal_test+0x55c4>
    559c:	00000000 	nop
    55a0:	00000000 	nop
    55a4:	3c18bfc0 	lui	t8,0xbfc0
    55a8:	371834fc 	ori	t8,t8,0x34fc
    55ac:	27180008 	addiu	t8,t8,8
    55b0:	1319000a 	beq	t8,t9,55dc <n35_bltzal_test+0x55dc>
    55b4:	00000000 	nop
    55b8:	1000338f 	b	123f8 <inst_error>
    55bc:	00000000 	nop
    55c0:	00000000 	nop
    55c4:	26b50008 	addiu	s5,s5,8
    55c8:	1695338b 	bne	s4,s5,123f8 <inst_error>
    55cc:	00000000 	nop
    55d0:	10000006 	b	55ec <n35_bltzal_test+0x55ec>
    55d4:	00000000 	nop
    55d8:	00000000 	nop
    55dc:	26d60008 	addiu	s6,s6,8
    55e0:	16963385 	bne	s4,s6,123f8 <inst_error>
    55e4:	00000000 	nop
	...
    55f0:	001fa821 	addu	s5,zero,ra
    55f4:	3c0c04c5 	lui	t4,0x4c5
    55f8:	358cea92 	ori	t4,t4,0xea92
    55fc:	3c0dd4a9 	lui	t5,0xd4a9
    5600:	35adb540 	ori	t5,t5,0xb540
    5604:	24100000 	li	s0,0
    5608:	10000014 	b	565c <n35_bltzal_test+0x565c>
    560c:	24120000 	li	s2,0
    5610:	00000000 	nop
    5614:	3c1004c5 	lui	s0,0x4c5
    5618:	3610ea92 	ori	s0,s0,0xea92
    561c:	05100025 	bltzal	t0,56b4 <n35_bltzal_test+0x56b4>
    5620:	00000000 	nop
    5624:	10000025 	b	56bc <n35_bltzal_test+0x56bc>
    5628:	00000000 	nop
    562c:	00000000 	nop
    5630:	00000021 	move	zero,zero
    5634:	00000021 	move	zero,zero
    5638:	00000021 	move	zero,zero
    563c:	00000021 	move	zero,zero
    5640:	00000021 	move	zero,zero
    5644:	00000021 	move	zero,zero
    5648:	00000021 	move	zero,zero
    564c:	00000021 	move	zero,zero
    5650:	00000021 	move	zero,zero
    5654:	00000021 	move	zero,zero
    5658:	00000021 	move	zero,zero
    565c:	3c08e26c 	lui	t0,0xe26c
    5660:	35083dc8 	ori	t0,t0,0x3dc8
    5664:	0510ffeb 	bltzal	t0,5614 <n35_bltzal_test+0x5614>
    5668:	00000000 	nop
    566c:	10000013 	b	56bc <n35_bltzal_test+0x56bc>
    5670:	00000000 	nop
    5674:	00000000 	nop
    5678:	00000021 	move	zero,zero
    567c:	00000021 	move	zero,zero
    5680:	00000021 	move	zero,zero
    5684:	00000021 	move	zero,zero
    5688:	00000021 	move	zero,zero
    568c:	00000021 	move	zero,zero
    5690:	00000021 	move	zero,zero
    5694:	00000021 	move	zero,zero
    5698:	00000021 	move	zero,zero
    569c:	00000021 	move	zero,zero
    56a0:	00000021 	move	zero,zero
    56a4:	00000021 	move	zero,zero
    56a8:	00000021 	move	zero,zero
    56ac:	00000021 	move	zero,zero
    56b0:	00000021 	move	zero,zero
    56b4:	3c12d4a9 	lui	s2,0xd4a9
    56b8:	3652b540 	ori	s2,s2,0xb540
    56bc:	001fa021 	addu	s4,zero,ra
    56c0:	0015f821 	addu	ra,zero,s5
    56c4:	3c150000 	lui	s5,0x0
    56c8:	26b5561c 	addiu	s5,s5,22044
    56cc:	3c160000 	lui	s6,0x0
    56d0:	26d65664 	addiu	s6,s6,22116
    56d4:	3c1804c5 	lui	t8,0x4c5
    56d8:	3718ea92 	ori	t8,t8,0xea92
    56dc:	16183346 	bne	s0,t8,123f8 <inst_error>
    56e0:	00000000 	nop
    56e4:	00000000 	nop
    56e8:	3c18d4a9 	lui	t8,0xd4a9
    56ec:	3718b540 	ori	t8,t8,0xb540
    56f0:	16583341 	bne	s2,t8,123f8 <inst_error>
    56f4:	00000000 	nop
    56f8:	00000000 	nop
    56fc:	3c19bfc0 	lui	t9,0xbfc0
    5700:	373935ac 	ori	t9,t9,0x35ac
    5704:	3c18bfc0 	lui	t8,0xbfc0
    5708:	371835a4 	ori	t8,t8,0x35a4
    570c:	27180008 	addiu	t8,t8,8
    5710:	1319000a 	beq	t8,t9,573c <n35_bltzal_test+0x573c>
    5714:	00000000 	nop
    5718:	00000000 	nop
    571c:	3c18bfc0 	lui	t8,0xbfc0
    5720:	371835d4 	ori	t8,t8,0x35d4
    5724:	27180008 	addiu	t8,t8,8
    5728:	1319000a 	beq	t8,t9,5754 <n35_bltzal_test+0x5754>
    572c:	00000000 	nop
    5730:	10003331 	b	123f8 <inst_error>
    5734:	00000000 	nop
    5738:	00000000 	nop
    573c:	26b50008 	addiu	s5,s5,8
    5740:	1695332d 	bne	s4,s5,123f8 <inst_error>
    5744:	00000000 	nop
    5748:	10000006 	b	5764 <n35_bltzal_test+0x5764>
    574c:	00000000 	nop
    5750:	00000000 	nop
    5754:	26d60008 	addiu	s6,s6,8
    5758:	16963327 	bne	s4,s6,123f8 <inst_error>
    575c:	00000000 	nop
	...
    5768:	001fa821 	addu	s5,zero,ra
    576c:	3c0c6567 	lui	t4,0x6567
    5770:	358c88a8 	ori	t4,t4,0x88a8
    5774:	3c0d9f96 	lui	t5,0x9f96
    5778:	35adadc8 	ori	t5,t5,0xadc8
    577c:	24100000 	li	s0,0
    5780:	10000014 	b	57d4 <n35_bltzal_test+0x57d4>
    5784:	24120000 	li	s2,0
    5788:	00000000 	nop
    578c:	3c106567 	lui	s0,0x6567
    5790:	361088a8 	ori	s0,s0,0x88a8
    5794:	05100025 	bltzal	t0,582c <n35_bltzal_test+0x582c>
    5798:	00000000 	nop
    579c:	10000025 	b	5834 <n35_bltzal_test+0x5834>
    57a0:	00000000 	nop
    57a4:	00000000 	nop
    57a8:	00000021 	move	zero,zero
    57ac:	00000021 	move	zero,zero
    57b0:	00000021 	move	zero,zero
    57b4:	00000021 	move	zero,zero
    57b8:	00000021 	move	zero,zero
    57bc:	00000021 	move	zero,zero
    57c0:	00000021 	move	zero,zero
    57c4:	00000021 	move	zero,zero
    57c8:	00000021 	move	zero,zero
    57cc:	00000021 	move	zero,zero
    57d0:	00000021 	move	zero,zero
    57d4:	3c088ffd 	lui	t0,0x8ffd
    57d8:	35082b44 	ori	t0,t0,0x2b44
    57dc:	0510ffeb 	bltzal	t0,578c <n35_bltzal_test+0x578c>
    57e0:	00000000 	nop
    57e4:	10000013 	b	5834 <n35_bltzal_test+0x5834>
    57e8:	00000000 	nop
    57ec:	00000000 	nop
    57f0:	00000021 	move	zero,zero
    57f4:	00000021 	move	zero,zero
    57f8:	00000021 	move	zero,zero
    57fc:	00000021 	move	zero,zero
    5800:	00000021 	move	zero,zero
    5804:	00000021 	move	zero,zero
    5808:	00000021 	move	zero,zero
    580c:	00000021 	move	zero,zero
    5810:	00000021 	move	zero,zero
    5814:	00000021 	move	zero,zero
    5818:	00000021 	move	zero,zero
    581c:	00000021 	move	zero,zero
    5820:	00000021 	move	zero,zero
    5824:	00000021 	move	zero,zero
    5828:	00000021 	move	zero,zero
    582c:	3c129f96 	lui	s2,0x9f96
    5830:	3652adc8 	ori	s2,s2,0xadc8
    5834:	001fa021 	addu	s4,zero,ra
    5838:	0015f821 	addu	ra,zero,s5
    583c:	3c150000 	lui	s5,0x0
    5840:	26b55794 	addiu	s5,s5,22420
    5844:	3c160000 	lui	s6,0x0
    5848:	26d657dc 	addiu	s6,s6,22492
    584c:	3c186567 	lui	t8,0x6567
    5850:	371888a8 	ori	t8,t8,0x88a8
    5854:	161832e8 	bne	s0,t8,123f8 <inst_error>
    5858:	00000000 	nop
    585c:	00000000 	nop
    5860:	3c189f96 	lui	t8,0x9f96
    5864:	3718adc8 	ori	t8,t8,0xadc8
    5868:	165832e3 	bne	s2,t8,123f8 <inst_error>
    586c:	00000000 	nop
    5870:	00000000 	nop
    5874:	3c19bfc0 	lui	t9,0xbfc0
    5878:	37393684 	ori	t9,t9,0x3684
    587c:	3c18bfc0 	lui	t8,0xbfc0
    5880:	3718367c 	ori	t8,t8,0x367c
    5884:	27180008 	addiu	t8,t8,8
    5888:	1319000a 	beq	t8,t9,58b4 <n35_bltzal_test+0x58b4>
    588c:	00000000 	nop
    5890:	00000000 	nop
    5894:	3c18bfc0 	lui	t8,0xbfc0
    5898:	371836ac 	ori	t8,t8,0x36ac
    589c:	27180008 	addiu	t8,t8,8
    58a0:	1319000a 	beq	t8,t9,58cc <n35_bltzal_test+0x58cc>
    58a4:	00000000 	nop
    58a8:	100032d3 	b	123f8 <inst_error>
    58ac:	00000000 	nop
    58b0:	00000000 	nop
    58b4:	26b50008 	addiu	s5,s5,8
    58b8:	169532cf 	bne	s4,s5,123f8 <inst_error>
    58bc:	00000000 	nop
    58c0:	10000006 	b	58dc <n35_bltzal_test+0x58dc>
    58c4:	00000000 	nop
    58c8:	00000000 	nop
    58cc:	26d60008 	addiu	s6,s6,8
    58d0:	169632c9 	bne	s4,s6,123f8 <inst_error>
    58d4:	00000000 	nop
	...
    58e0:	001fa821 	addu	s5,zero,ra
    58e4:	3c0c9f2a 	lui	t4,0x9f2a
    58e8:	358c10ee 	ori	t4,t4,0x10ee
    58ec:	3c0ddd0e 	lui	t5,0xdd0e
    58f0:	35ad6718 	ori	t5,t5,0x6718
    58f4:	24100000 	li	s0,0
    58f8:	10000014 	b	594c <n35_bltzal_test+0x594c>
    58fc:	24120000 	li	s2,0
    5900:	00000000 	nop
    5904:	3c109f2a 	lui	s0,0x9f2a
    5908:	361010ee 	ori	s0,s0,0x10ee
    590c:	05100025 	bltzal	t0,59a4 <n35_bltzal_test+0x59a4>
    5910:	00000000 	nop
    5914:	10000025 	b	59ac <n35_bltzal_test+0x59ac>
    5918:	00000000 	nop
    591c:	00000000 	nop
    5920:	00000021 	move	zero,zero
    5924:	00000021 	move	zero,zero
    5928:	00000021 	move	zero,zero
    592c:	00000021 	move	zero,zero
    5930:	00000021 	move	zero,zero
    5934:	00000021 	move	zero,zero
    5938:	00000021 	move	zero,zero
    593c:	00000021 	move	zero,zero
    5940:	00000021 	move	zero,zero
    5944:	00000021 	move	zero,zero
    5948:	00000021 	move	zero,zero
    594c:	3c08e348 	lui	t0,0xe348
    5950:	35081772 	ori	t0,t0,0x1772
    5954:	0510ffeb 	bltzal	t0,5904 <n35_bltzal_test+0x5904>
    5958:	00000000 	nop
    595c:	10000013 	b	59ac <n35_bltzal_test+0x59ac>
    5960:	00000000 	nop
    5964:	00000000 	nop
    5968:	00000021 	move	zero,zero
    596c:	00000021 	move	zero,zero
    5970:	00000021 	move	zero,zero
    5974:	00000021 	move	zero,zero
    5978:	00000021 	move	zero,zero
    597c:	00000021 	move	zero,zero
    5980:	00000021 	move	zero,zero
    5984:	00000021 	move	zero,zero
    5988:	00000021 	move	zero,zero
    598c:	00000021 	move	zero,zero
    5990:	00000021 	move	zero,zero
    5994:	00000021 	move	zero,zero
    5998:	00000021 	move	zero,zero
    599c:	00000021 	move	zero,zero
    59a0:	00000021 	move	zero,zero
    59a4:	3c12dd0e 	lui	s2,0xdd0e
    59a8:	36526718 	ori	s2,s2,0x6718
    59ac:	001fa021 	addu	s4,zero,ra
    59b0:	0015f821 	addu	ra,zero,s5
    59b4:	3c150000 	lui	s5,0x0
    59b8:	26b5590c 	addiu	s5,s5,22796
    59bc:	3c160000 	lui	s6,0x0
    59c0:	26d65954 	addiu	s6,s6,22868
    59c4:	3c189f2a 	lui	t8,0x9f2a
    59c8:	371810ee 	ori	t8,t8,0x10ee
    59cc:	1618328a 	bne	s0,t8,123f8 <inst_error>
    59d0:	00000000 	nop
    59d4:	00000000 	nop
    59d8:	3c18dd0e 	lui	t8,0xdd0e
    59dc:	37186718 	ori	t8,t8,0x6718
    59e0:	16583285 	bne	s2,t8,123f8 <inst_error>
    59e4:	00000000 	nop
    59e8:	00000000 	nop
    59ec:	3c19bfc0 	lui	t9,0xbfc0
    59f0:	3739375c 	ori	t9,t9,0x375c
    59f4:	3c18bfc0 	lui	t8,0xbfc0
    59f8:	37183754 	ori	t8,t8,0x3754
    59fc:	27180008 	addiu	t8,t8,8
    5a00:	1319000a 	beq	t8,t9,5a2c <n35_bltzal_test+0x5a2c>
    5a04:	00000000 	nop
    5a08:	00000000 	nop
    5a0c:	3c18bfc0 	lui	t8,0xbfc0
    5a10:	37183784 	ori	t8,t8,0x3784
    5a14:	27180008 	addiu	t8,t8,8
    5a18:	1319000a 	beq	t8,t9,5a44 <n35_bltzal_test+0x5a44>
    5a1c:	00000000 	nop
    5a20:	10003275 	b	123f8 <inst_error>
    5a24:	00000000 	nop
    5a28:	00000000 	nop
    5a2c:	26b50008 	addiu	s5,s5,8
    5a30:	16953271 	bne	s4,s5,123f8 <inst_error>
    5a34:	00000000 	nop
    5a38:	10000006 	b	5a54 <n35_bltzal_test+0x5a54>
    5a3c:	00000000 	nop
    5a40:	00000000 	nop
    5a44:	26d60008 	addiu	s6,s6,8
    5a48:	1696326b 	bne	s4,s6,123f8 <inst_error>
    5a4c:	00000000 	nop
	...
    5a58:	001fa821 	addu	s5,zero,ra
    5a5c:	3c0cd1f8 	lui	t4,0xd1f8
    5a60:	358ce093 	ori	t4,t4,0xe093
    5a64:	3c0d7db9 	lui	t5,0x7db9
    5a68:	35adf89c 	ori	t5,t5,0xf89c
    5a6c:	24100000 	li	s0,0
    5a70:	10000014 	b	5ac4 <n35_bltzal_test+0x5ac4>
    5a74:	24120000 	li	s2,0
    5a78:	00000000 	nop
    5a7c:	3c10d1f8 	lui	s0,0xd1f8
    5a80:	3610e093 	ori	s0,s0,0xe093
    5a84:	05100025 	bltzal	t0,5b1c <n35_bltzal_test+0x5b1c>
    5a88:	00000000 	nop
    5a8c:	10000025 	b	5b24 <n35_bltzal_test+0x5b24>
    5a90:	00000000 	nop
    5a94:	00000000 	nop
    5a98:	00000021 	move	zero,zero
    5a9c:	00000021 	move	zero,zero
    5aa0:	00000021 	move	zero,zero
    5aa4:	00000021 	move	zero,zero
    5aa8:	00000021 	move	zero,zero
    5aac:	00000021 	move	zero,zero
    5ab0:	00000021 	move	zero,zero
    5ab4:	00000021 	move	zero,zero
    5ab8:	00000021 	move	zero,zero
    5abc:	00000021 	move	zero,zero
    5ac0:	00000021 	move	zero,zero
    5ac4:	3c087f7d 	lui	t0,0x7f7d
    5ac8:	3508b200 	ori	t0,t0,0xb200
    5acc:	0510ffeb 	bltzal	t0,5a7c <n35_bltzal_test+0x5a7c>
    5ad0:	00000000 	nop
    5ad4:	10000013 	b	5b24 <n35_bltzal_test+0x5b24>
    5ad8:	00000000 	nop
    5adc:	00000000 	nop
    5ae0:	00000021 	move	zero,zero
    5ae4:	00000021 	move	zero,zero
    5ae8:	00000021 	move	zero,zero
    5aec:	00000021 	move	zero,zero
    5af0:	00000021 	move	zero,zero
    5af4:	00000021 	move	zero,zero
    5af8:	00000021 	move	zero,zero
    5afc:	00000021 	move	zero,zero
    5b00:	00000021 	move	zero,zero
    5b04:	00000021 	move	zero,zero
    5b08:	00000021 	move	zero,zero
    5b0c:	00000021 	move	zero,zero
    5b10:	00000021 	move	zero,zero
    5b14:	00000021 	move	zero,zero
    5b18:	00000021 	move	zero,zero
    5b1c:	3c127db9 	lui	s2,0x7db9
    5b20:	3652f89c 	ori	s2,s2,0xf89c
    5b24:	001fa021 	addu	s4,zero,ra
    5b28:	0015f821 	addu	ra,zero,s5
    5b2c:	3c150000 	lui	s5,0x0
    5b30:	26b55a84 	addiu	s5,s5,23172
    5b34:	3c160000 	lui	s6,0x0
    5b38:	26d65acc 	addiu	s6,s6,23244
    5b3c:	24180000 	li	t8,0
    5b40:	1618322d 	bne	s0,t8,123f8 <inst_error>
    5b44:	00000000 	nop
    5b48:	00000000 	nop
    5b4c:	24180000 	li	t8,0
    5b50:	16583229 	bne	s2,t8,123f8 <inst_error>
    5b54:	00000000 	nop
    5b58:	00000000 	nop
    5b5c:	3c19bfc0 	lui	t9,0xbfc0
    5b60:	37393864 	ori	t9,t9,0x3864
    5b64:	3c18bfc0 	lui	t8,0xbfc0
    5b68:	3718382c 	ori	t8,t8,0x382c
    5b6c:	27180008 	addiu	t8,t8,8
    5b70:	1319000a 	beq	t8,t9,5b9c <n35_bltzal_test+0x5b9c>
    5b74:	00000000 	nop
    5b78:	00000000 	nop
    5b7c:	3c18bfc0 	lui	t8,0xbfc0
    5b80:	3718385c 	ori	t8,t8,0x385c
    5b84:	27180008 	addiu	t8,t8,8
    5b88:	1319000a 	beq	t8,t9,5bb4 <n35_bltzal_test+0x5bb4>
    5b8c:	00000000 	nop
    5b90:	10003219 	b	123f8 <inst_error>
    5b94:	00000000 	nop
    5b98:	00000000 	nop
    5b9c:	26b50008 	addiu	s5,s5,8
    5ba0:	16953215 	bne	s4,s5,123f8 <inst_error>
    5ba4:	00000000 	nop
    5ba8:	10000006 	b	5bc4 <n35_bltzal_test+0x5bc4>
    5bac:	00000000 	nop
    5bb0:	00000000 	nop
    5bb4:	26d60008 	addiu	s6,s6,8
    5bb8:	1696320f 	bne	s4,s6,123f8 <inst_error>
    5bbc:	00000000 	nop
	...
    5bc8:	001fa821 	addu	s5,zero,ra
    5bcc:	3c0c114b 	lui	t4,0x114b
    5bd0:	358c1cf8 	ori	t4,t4,0x1cf8
    5bd4:	3c0df136 	lui	t5,0xf136
    5bd8:	35ad9ae4 	ori	t5,t5,0x9ae4
    5bdc:	24100000 	li	s0,0
    5be0:	10000014 	b	5c34 <n35_bltzal_test+0x5c34>
    5be4:	24120000 	li	s2,0
    5be8:	00000000 	nop
    5bec:	3c10114b 	lui	s0,0x114b
    5bf0:	36101cf8 	ori	s0,s0,0x1cf8
    5bf4:	05100025 	bltzal	t0,5c8c <n35_bltzal_test+0x5c8c>
    5bf8:	00000000 	nop
    5bfc:	10000025 	b	5c94 <n35_bltzal_test+0x5c94>
    5c00:	00000000 	nop
    5c04:	00000000 	nop
    5c08:	00000021 	move	zero,zero
    5c0c:	00000021 	move	zero,zero
    5c10:	00000021 	move	zero,zero
    5c14:	00000021 	move	zero,zero
    5c18:	00000021 	move	zero,zero
    5c1c:	00000021 	move	zero,zero
    5c20:	00000021 	move	zero,zero
    5c24:	00000021 	move	zero,zero
    5c28:	00000021 	move	zero,zero
    5c2c:	00000021 	move	zero,zero
    5c30:	00000021 	move	zero,zero
    5c34:	3c088e33 	lui	t0,0x8e33
    5c38:	3508fd2a 	ori	t0,t0,0xfd2a
    5c3c:	0510ffeb 	bltzal	t0,5bec <n35_bltzal_test+0x5bec>
    5c40:	00000000 	nop
    5c44:	10000013 	b	5c94 <n35_bltzal_test+0x5c94>
    5c48:	00000000 	nop
    5c4c:	00000000 	nop
    5c50:	00000021 	move	zero,zero
    5c54:	00000021 	move	zero,zero
    5c58:	00000021 	move	zero,zero
    5c5c:	00000021 	move	zero,zero
    5c60:	00000021 	move	zero,zero
    5c64:	00000021 	move	zero,zero
    5c68:	00000021 	move	zero,zero
    5c6c:	00000021 	move	zero,zero
    5c70:	00000021 	move	zero,zero
    5c74:	00000021 	move	zero,zero
    5c78:	00000021 	move	zero,zero
    5c7c:	00000021 	move	zero,zero
    5c80:	00000021 	move	zero,zero
    5c84:	00000021 	move	zero,zero
    5c88:	00000021 	move	zero,zero
    5c8c:	3c12f136 	lui	s2,0xf136
    5c90:	36529ae4 	ori	s2,s2,0x9ae4
    5c94:	001fa021 	addu	s4,zero,ra
    5c98:	0015f821 	addu	ra,zero,s5
    5c9c:	3c150000 	lui	s5,0x0
    5ca0:	26b55bf4 	addiu	s5,s5,23540
    5ca4:	3c160000 	lui	s6,0x0
    5ca8:	26d65c3c 	addiu	s6,s6,23612
    5cac:	3c18114b 	lui	t8,0x114b
    5cb0:	37181cf8 	ori	t8,t8,0x1cf8
    5cb4:	161831d0 	bne	s0,t8,123f8 <inst_error>
    5cb8:	00000000 	nop
    5cbc:	00000000 	nop
    5cc0:	3c18f136 	lui	t8,0xf136
    5cc4:	37189ae4 	ori	t8,t8,0x9ae4
    5cc8:	165831cb 	bne	s2,t8,123f8 <inst_error>
    5ccc:	00000000 	nop
    5cd0:	00000000 	nop
    5cd4:	3c19bfc0 	lui	t9,0xbfc0
    5cd8:	3739390c 	ori	t9,t9,0x390c
    5cdc:	3c18bfc0 	lui	t8,0xbfc0
    5ce0:	37183904 	ori	t8,t8,0x3904
    5ce4:	27180008 	addiu	t8,t8,8
    5ce8:	1319000a 	beq	t8,t9,5d14 <n35_bltzal_test+0x5d14>
    5cec:	00000000 	nop
    5cf0:	00000000 	nop
    5cf4:	3c18bfc0 	lui	t8,0xbfc0
    5cf8:	37183934 	ori	t8,t8,0x3934
    5cfc:	27180008 	addiu	t8,t8,8
    5d00:	1319000a 	beq	t8,t9,5d2c <n35_bltzal_test+0x5d2c>
    5d04:	00000000 	nop
    5d08:	100031bb 	b	123f8 <inst_error>
    5d0c:	00000000 	nop
    5d10:	00000000 	nop
    5d14:	26b50008 	addiu	s5,s5,8
    5d18:	169531b7 	bne	s4,s5,123f8 <inst_error>
    5d1c:	00000000 	nop
    5d20:	10000006 	b	5d3c <n35_bltzal_test+0x5d3c>
    5d24:	00000000 	nop
    5d28:	00000000 	nop
    5d2c:	26d60008 	addiu	s6,s6,8
    5d30:	169631b1 	bne	s4,s6,123f8 <inst_error>
    5d34:	00000000 	nop
	...
    5d40:	001fa821 	addu	s5,zero,ra
    5d44:	3c0ce036 	lui	t4,0xe036
    5d48:	358cd934 	ori	t4,t4,0xd934
    5d4c:	3c0d57d8 	lui	t5,0x57d8
    5d50:	35ad0e38 	ori	t5,t5,0xe38
    5d54:	24100000 	li	s0,0
    5d58:	10000014 	b	5dac <n35_bltzal_test+0x5dac>
    5d5c:	24120000 	li	s2,0
    5d60:	00000000 	nop
    5d64:	3c10e036 	lui	s0,0xe036
    5d68:	3610d934 	ori	s0,s0,0xd934
    5d6c:	05100025 	bltzal	t0,5e04 <n35_bltzal_test+0x5e04>
    5d70:	00000000 	nop
    5d74:	10000025 	b	5e0c <n35_bltzal_test+0x5e0c>
    5d78:	00000000 	nop
    5d7c:	00000000 	nop
    5d80:	00000021 	move	zero,zero
    5d84:	00000021 	move	zero,zero
    5d88:	00000021 	move	zero,zero
    5d8c:	00000021 	move	zero,zero
    5d90:	00000021 	move	zero,zero
    5d94:	00000021 	move	zero,zero
    5d98:	00000021 	move	zero,zero
    5d9c:	00000021 	move	zero,zero
    5da0:	00000021 	move	zero,zero
    5da4:	00000021 	move	zero,zero
    5da8:	00000021 	move	zero,zero
    5dac:	3c08083b 	lui	t0,0x83b
    5db0:	3508a18a 	ori	t0,t0,0xa18a
    5db4:	0510ffeb 	bltzal	t0,5d64 <n35_bltzal_test+0x5d64>
    5db8:	00000000 	nop
    5dbc:	10000013 	b	5e0c <n35_bltzal_test+0x5e0c>
    5dc0:	00000000 	nop
    5dc4:	00000000 	nop
    5dc8:	00000021 	move	zero,zero
    5dcc:	00000021 	move	zero,zero
    5dd0:	00000021 	move	zero,zero
    5dd4:	00000021 	move	zero,zero
    5dd8:	00000021 	move	zero,zero
    5ddc:	00000021 	move	zero,zero
    5de0:	00000021 	move	zero,zero
    5de4:	00000021 	move	zero,zero
    5de8:	00000021 	move	zero,zero
    5dec:	00000021 	move	zero,zero
    5df0:	00000021 	move	zero,zero
    5df4:	00000021 	move	zero,zero
    5df8:	00000021 	move	zero,zero
    5dfc:	00000021 	move	zero,zero
    5e00:	00000021 	move	zero,zero
    5e04:	3c1257d8 	lui	s2,0x57d8
    5e08:	36520e38 	ori	s2,s2,0xe38
    5e0c:	001fa021 	addu	s4,zero,ra
    5e10:	0015f821 	addu	ra,zero,s5
    5e14:	3c150000 	lui	s5,0x0
    5e18:	26b55d6c 	addiu	s5,s5,23916
    5e1c:	3c160000 	lui	s6,0x0
    5e20:	26d65db4 	addiu	s6,s6,23988
    5e24:	24180000 	li	t8,0
    5e28:	16183173 	bne	s0,t8,123f8 <inst_error>
    5e2c:	00000000 	nop
    5e30:	00000000 	nop
    5e34:	24180000 	li	t8,0
    5e38:	1658316f 	bne	s2,t8,123f8 <inst_error>
    5e3c:	00000000 	nop
    5e40:	00000000 	nop
    5e44:	3c19bfc0 	lui	t9,0xbfc0
    5e48:	37393a14 	ori	t9,t9,0x3a14
    5e4c:	3c18bfc0 	lui	t8,0xbfc0
    5e50:	371839dc 	ori	t8,t8,0x39dc
    5e54:	27180008 	addiu	t8,t8,8
    5e58:	1319000a 	beq	t8,t9,5e84 <n35_bltzal_test+0x5e84>
    5e5c:	00000000 	nop
    5e60:	00000000 	nop
    5e64:	3c18bfc0 	lui	t8,0xbfc0
    5e68:	37183a0c 	ori	t8,t8,0x3a0c
    5e6c:	27180008 	addiu	t8,t8,8
    5e70:	1319000a 	beq	t8,t9,5e9c <n35_bltzal_test+0x5e9c>
    5e74:	00000000 	nop
    5e78:	1000315f 	b	123f8 <inst_error>
    5e7c:	00000000 	nop
    5e80:	00000000 	nop
    5e84:	26b50008 	addiu	s5,s5,8
    5e88:	1695315b 	bne	s4,s5,123f8 <inst_error>
    5e8c:	00000000 	nop
    5e90:	10000006 	b	5eac <n35_bltzal_test+0x5eac>
    5e94:	00000000 	nop
    5e98:	00000000 	nop
    5e9c:	26d60008 	addiu	s6,s6,8
    5ea0:	16963155 	bne	s4,s6,123f8 <inst_error>
    5ea4:	00000000 	nop
	...
    5eb0:	001fa821 	addu	s5,zero,ra
    5eb4:	3c0cb3b0 	lui	t4,0xb3b0
    5eb8:	358cb3c9 	ori	t4,t4,0xb3c9
    5ebc:	3c0d5a21 	lui	t5,0x5a21
    5ec0:	35adb780 	ori	t5,t5,0xb780
    5ec4:	24100000 	li	s0,0
    5ec8:	10000014 	b	5f1c <n35_bltzal_test+0x5f1c>
    5ecc:	24120000 	li	s2,0
    5ed0:	00000000 	nop
    5ed4:	3c10b3b0 	lui	s0,0xb3b0
    5ed8:	3610b3c9 	ori	s0,s0,0xb3c9
    5edc:	05100025 	bltzal	t0,5f74 <n35_bltzal_test+0x5f74>
    5ee0:	00000000 	nop
    5ee4:	10000025 	b	5f7c <n35_bltzal_test+0x5f7c>
    5ee8:	00000000 	nop
    5eec:	00000000 	nop
    5ef0:	00000021 	move	zero,zero
    5ef4:	00000021 	move	zero,zero
    5ef8:	00000021 	move	zero,zero
    5efc:	00000021 	move	zero,zero
    5f00:	00000021 	move	zero,zero
    5f04:	00000021 	move	zero,zero
    5f08:	00000021 	move	zero,zero
    5f0c:	00000021 	move	zero,zero
    5f10:	00000021 	move	zero,zero
    5f14:	00000021 	move	zero,zero
    5f18:	00000021 	move	zero,zero
    5f1c:	3c08138e 	lui	t0,0x138e
    5f20:	350807f8 	ori	t0,t0,0x7f8
    5f24:	0510ffeb 	bltzal	t0,5ed4 <n35_bltzal_test+0x5ed4>
    5f28:	00000000 	nop
    5f2c:	10000013 	b	5f7c <n35_bltzal_test+0x5f7c>
    5f30:	00000000 	nop
    5f34:	00000000 	nop
    5f38:	00000021 	move	zero,zero
    5f3c:	00000021 	move	zero,zero
    5f40:	00000021 	move	zero,zero
    5f44:	00000021 	move	zero,zero
    5f48:	00000021 	move	zero,zero
    5f4c:	00000021 	move	zero,zero
    5f50:	00000021 	move	zero,zero
    5f54:	00000021 	move	zero,zero
    5f58:	00000021 	move	zero,zero
    5f5c:	00000021 	move	zero,zero
    5f60:	00000021 	move	zero,zero
    5f64:	00000021 	move	zero,zero
    5f68:	00000021 	move	zero,zero
    5f6c:	00000021 	move	zero,zero
    5f70:	00000021 	move	zero,zero
    5f74:	3c125a21 	lui	s2,0x5a21
    5f78:	3652b780 	ori	s2,s2,0xb780
    5f7c:	001fa021 	addu	s4,zero,ra
    5f80:	0015f821 	addu	ra,zero,s5
    5f84:	3c150000 	lui	s5,0x0
    5f88:	26b55edc 	addiu	s5,s5,24284
    5f8c:	3c160000 	lui	s6,0x0
    5f90:	26d65f24 	addiu	s6,s6,24356
    5f94:	24180000 	li	t8,0
    5f98:	16183117 	bne	s0,t8,123f8 <inst_error>
    5f9c:	00000000 	nop
    5fa0:	00000000 	nop
    5fa4:	24180000 	li	t8,0
    5fa8:	16583113 	bne	s2,t8,123f8 <inst_error>
    5fac:	00000000 	nop
    5fb0:	00000000 	nop
    5fb4:	3c19bfc0 	lui	t9,0xbfc0
    5fb8:	37393aec 	ori	t9,t9,0x3aec
    5fbc:	3c18bfc0 	lui	t8,0xbfc0
    5fc0:	37183ab4 	ori	t8,t8,0x3ab4
    5fc4:	27180008 	addiu	t8,t8,8
    5fc8:	1319000a 	beq	t8,t9,5ff4 <n35_bltzal_test+0x5ff4>
    5fcc:	00000000 	nop
    5fd0:	00000000 	nop
    5fd4:	3c18bfc0 	lui	t8,0xbfc0
    5fd8:	37183ae4 	ori	t8,t8,0x3ae4
    5fdc:	27180008 	addiu	t8,t8,8
    5fe0:	1319000a 	beq	t8,t9,600c <n35_bltzal_test+0x600c>
    5fe4:	00000000 	nop
    5fe8:	10003103 	b	123f8 <inst_error>
    5fec:	00000000 	nop
    5ff0:	00000000 	nop
    5ff4:	26b50008 	addiu	s5,s5,8
    5ff8:	169530ff 	bne	s4,s5,123f8 <inst_error>
    5ffc:	00000000 	nop
    6000:	10000006 	b	601c <n35_bltzal_test+0x601c>
    6004:	00000000 	nop
    6008:	00000000 	nop
    600c:	26d60008 	addiu	s6,s6,8
    6010:	169630f9 	bne	s4,s6,123f8 <inst_error>
    6014:	00000000 	nop
	...
    6020:	001fa821 	addu	s5,zero,ra
    6024:	3c0c9b43 	lui	t4,0x9b43
    6028:	358c9a00 	ori	t4,t4,0x9a00
    602c:	3c0d9a8b 	lui	t5,0x9a8b
    6030:	35adf098 	ori	t5,t5,0xf098
    6034:	24100000 	li	s0,0
    6038:	10000014 	b	608c <n35_bltzal_test+0x608c>
    603c:	24120000 	li	s2,0
    6040:	00000000 	nop
    6044:	3c109b43 	lui	s0,0x9b43
    6048:	36109a00 	ori	s0,s0,0x9a00
    604c:	05100025 	bltzal	t0,60e4 <n35_bltzal_test+0x60e4>
    6050:	00000000 	nop
    6054:	10000025 	b	60ec <n35_bltzal_test+0x60ec>
    6058:	00000000 	nop
    605c:	00000000 	nop
    6060:	00000021 	move	zero,zero
    6064:	00000021 	move	zero,zero
    6068:	00000021 	move	zero,zero
    606c:	00000021 	move	zero,zero
    6070:	00000021 	move	zero,zero
    6074:	00000021 	move	zero,zero
    6078:	00000021 	move	zero,zero
    607c:	00000021 	move	zero,zero
    6080:	00000021 	move	zero,zero
    6084:	00000021 	move	zero,zero
    6088:	00000021 	move	zero,zero
    608c:	3c082446 	lui	t0,0x2446
    6090:	350884db 	ori	t0,t0,0x84db
    6094:	0510ffeb 	bltzal	t0,6044 <n35_bltzal_test+0x6044>
    6098:	00000000 	nop
    609c:	10000013 	b	60ec <n35_bltzal_test+0x60ec>
    60a0:	00000000 	nop
    60a4:	00000000 	nop
    60a8:	00000021 	move	zero,zero
    60ac:	00000021 	move	zero,zero
    60b0:	00000021 	move	zero,zero
    60b4:	00000021 	move	zero,zero
    60b8:	00000021 	move	zero,zero
    60bc:	00000021 	move	zero,zero
    60c0:	00000021 	move	zero,zero
    60c4:	00000021 	move	zero,zero
    60c8:	00000021 	move	zero,zero
    60cc:	00000021 	move	zero,zero
    60d0:	00000021 	move	zero,zero
    60d4:	00000021 	move	zero,zero
    60d8:	00000021 	move	zero,zero
    60dc:	00000021 	move	zero,zero
    60e0:	00000021 	move	zero,zero
    60e4:	3c129a8b 	lui	s2,0x9a8b
    60e8:	3652f098 	ori	s2,s2,0xf098
    60ec:	001fa021 	addu	s4,zero,ra
    60f0:	0015f821 	addu	ra,zero,s5
    60f4:	3c150000 	lui	s5,0x0
    60f8:	26b5604c 	addiu	s5,s5,24652
    60fc:	3c160000 	lui	s6,0x0
    6100:	26d66094 	addiu	s6,s6,24724
    6104:	24180000 	li	t8,0
    6108:	161830bb 	bne	s0,t8,123f8 <inst_error>
    610c:	00000000 	nop
    6110:	00000000 	nop
    6114:	24180000 	li	t8,0
    6118:	165830b7 	bne	s2,t8,123f8 <inst_error>
    611c:	00000000 	nop
    6120:	00000000 	nop
    6124:	3c19bfc0 	lui	t9,0xbfc0
    6128:	37393bc4 	ori	t9,t9,0x3bc4
    612c:	3c18bfc0 	lui	t8,0xbfc0
    6130:	37183b8c 	ori	t8,t8,0x3b8c
    6134:	27180008 	addiu	t8,t8,8
    6138:	1319000a 	beq	t8,t9,6164 <n35_bltzal_test+0x6164>
    613c:	00000000 	nop
    6140:	00000000 	nop
    6144:	3c18bfc0 	lui	t8,0xbfc0
    6148:	37183bbc 	ori	t8,t8,0x3bbc
    614c:	27180008 	addiu	t8,t8,8
    6150:	1319000a 	beq	t8,t9,617c <n35_bltzal_test+0x617c>
    6154:	00000000 	nop
    6158:	100030a7 	b	123f8 <inst_error>
    615c:	00000000 	nop
    6160:	00000000 	nop
    6164:	26b50008 	addiu	s5,s5,8
    6168:	169530a3 	bne	s4,s5,123f8 <inst_error>
    616c:	00000000 	nop
    6170:	10000006 	b	618c <n35_bltzal_test+0x618c>
    6174:	00000000 	nop
    6178:	00000000 	nop
    617c:	26d60008 	addiu	s6,s6,8
    6180:	1696309d 	bne	s4,s6,123f8 <inst_error>
    6184:	00000000 	nop
	...
    6190:	001fa821 	addu	s5,zero,ra
    6194:	3c0c364d 	lui	t4,0x364d
    6198:	358c45c0 	ori	t4,t4,0x45c0
    619c:	3c0d41bb 	lui	t5,0x41bb
    61a0:	35ade00c 	ori	t5,t5,0xe00c
    61a4:	24100000 	li	s0,0
    61a8:	10000014 	b	61fc <n35_bltzal_test+0x61fc>
    61ac:	24120000 	li	s2,0
    61b0:	00000000 	nop
    61b4:	3c10364d 	lui	s0,0x364d
    61b8:	361045c0 	ori	s0,s0,0x45c0
    61bc:	05100025 	bltzal	t0,6254 <n35_bltzal_test+0x6254>
    61c0:	00000000 	nop
    61c4:	10000025 	b	625c <n35_bltzal_test+0x625c>
    61c8:	00000000 	nop
    61cc:	00000000 	nop
    61d0:	00000021 	move	zero,zero
    61d4:	00000021 	move	zero,zero
    61d8:	00000021 	move	zero,zero
    61dc:	00000021 	move	zero,zero
    61e0:	00000021 	move	zero,zero
    61e4:	00000021 	move	zero,zero
    61e8:	00000021 	move	zero,zero
    61ec:	00000021 	move	zero,zero
    61f0:	00000021 	move	zero,zero
    61f4:	00000021 	move	zero,zero
    61f8:	00000021 	move	zero,zero
    61fc:	3c08a4f9 	lui	t0,0xa4f9
    6200:	3508cfdd 	ori	t0,t0,0xcfdd
    6204:	0510ffeb 	bltzal	t0,61b4 <n35_bltzal_test+0x61b4>
    6208:	00000000 	nop
    620c:	10000013 	b	625c <n35_bltzal_test+0x625c>
    6210:	00000000 	nop
    6214:	00000000 	nop
    6218:	00000021 	move	zero,zero
    621c:	00000021 	move	zero,zero
    6220:	00000021 	move	zero,zero
    6224:	00000021 	move	zero,zero
    6228:	00000021 	move	zero,zero
    622c:	00000021 	move	zero,zero
    6230:	00000021 	move	zero,zero
    6234:	00000021 	move	zero,zero
    6238:	00000021 	move	zero,zero
    623c:	00000021 	move	zero,zero
    6240:	00000021 	move	zero,zero
    6244:	00000021 	move	zero,zero
    6248:	00000021 	move	zero,zero
    624c:	00000021 	move	zero,zero
    6250:	00000021 	move	zero,zero
    6254:	3c1241bb 	lui	s2,0x41bb
    6258:	3652e00c 	ori	s2,s2,0xe00c
    625c:	001fa021 	addu	s4,zero,ra
    6260:	0015f821 	addu	ra,zero,s5
    6264:	3c150000 	lui	s5,0x0
    6268:	26b561bc 	addiu	s5,s5,25020
    626c:	3c160000 	lui	s6,0x0
    6270:	26d66204 	addiu	s6,s6,25092
    6274:	3c18364d 	lui	t8,0x364d
    6278:	371845c0 	ori	t8,t8,0x45c0
    627c:	1618305e 	bne	s0,t8,123f8 <inst_error>
    6280:	00000000 	nop
    6284:	00000000 	nop
    6288:	3c1841bb 	lui	t8,0x41bb
    628c:	3718e00c 	ori	t8,t8,0xe00c
    6290:	16583059 	bne	s2,t8,123f8 <inst_error>
    6294:	00000000 	nop
    6298:	00000000 	nop
    629c:	3c19bfc0 	lui	t9,0xbfc0
    62a0:	37393c6c 	ori	t9,t9,0x3c6c
    62a4:	3c18bfc0 	lui	t8,0xbfc0
    62a8:	37183c64 	ori	t8,t8,0x3c64
    62ac:	27180008 	addiu	t8,t8,8
    62b0:	1319000a 	beq	t8,t9,62dc <n35_bltzal_test+0x62dc>
    62b4:	00000000 	nop
    62b8:	00000000 	nop
    62bc:	3c18bfc0 	lui	t8,0xbfc0
    62c0:	37183c94 	ori	t8,t8,0x3c94
    62c4:	27180008 	addiu	t8,t8,8
    62c8:	1319000a 	beq	t8,t9,62f4 <n35_bltzal_test+0x62f4>
    62cc:	00000000 	nop
    62d0:	10003049 	b	123f8 <inst_error>
    62d4:	00000000 	nop
    62d8:	00000000 	nop
    62dc:	26b50008 	addiu	s5,s5,8
    62e0:	16953045 	bne	s4,s5,123f8 <inst_error>
    62e4:	00000000 	nop
    62e8:	10000006 	b	6304 <n35_bltzal_test+0x6304>
    62ec:	00000000 	nop
    62f0:	00000000 	nop
    62f4:	26d60008 	addiu	s6,s6,8
    62f8:	1696303f 	bne	s4,s6,123f8 <inst_error>
    62fc:	00000000 	nop
	...
    6308:	001fa821 	addu	s5,zero,ra
    630c:	3c0c80df 	lui	t4,0x80df
    6310:	358cfe44 	ori	t4,t4,0xfe44
    6314:	3c0d2bfa 	lui	t5,0x2bfa
    6318:	35ad1dd8 	ori	t5,t5,0x1dd8
    631c:	24100000 	li	s0,0
    6320:	10000014 	b	6374 <n35_bltzal_test+0x6374>
    6324:	24120000 	li	s2,0
    6328:	00000000 	nop
    632c:	3c1080df 	lui	s0,0x80df
    6330:	3610fe44 	ori	s0,s0,0xfe44
    6334:	05100025 	bltzal	t0,63cc <n35_bltzal_test+0x63cc>
    6338:	00000000 	nop
    633c:	10000025 	b	63d4 <n35_bltzal_test+0x63d4>
    6340:	00000000 	nop
    6344:	00000000 	nop
    6348:	00000021 	move	zero,zero
    634c:	00000021 	move	zero,zero
    6350:	00000021 	move	zero,zero
    6354:	00000021 	move	zero,zero
    6358:	00000021 	move	zero,zero
    635c:	00000021 	move	zero,zero
    6360:	00000021 	move	zero,zero
    6364:	00000021 	move	zero,zero
    6368:	00000021 	move	zero,zero
    636c:	00000021 	move	zero,zero
    6370:	00000021 	move	zero,zero
    6374:	3c08a31a 	lui	t0,0xa31a
    6378:	35088b88 	ori	t0,t0,0x8b88
    637c:	0510ffeb 	bltzal	t0,632c <n35_bltzal_test+0x632c>
    6380:	00000000 	nop
    6384:	10000013 	b	63d4 <n35_bltzal_test+0x63d4>
    6388:	00000000 	nop
    638c:	00000000 	nop
    6390:	00000021 	move	zero,zero
    6394:	00000021 	move	zero,zero
    6398:	00000021 	move	zero,zero
    639c:	00000021 	move	zero,zero
    63a0:	00000021 	move	zero,zero
    63a4:	00000021 	move	zero,zero
    63a8:	00000021 	move	zero,zero
    63ac:	00000021 	move	zero,zero
    63b0:	00000021 	move	zero,zero
    63b4:	00000021 	move	zero,zero
    63b8:	00000021 	move	zero,zero
    63bc:	00000021 	move	zero,zero
    63c0:	00000021 	move	zero,zero
    63c4:	00000021 	move	zero,zero
    63c8:	00000021 	move	zero,zero
    63cc:	3c122bfa 	lui	s2,0x2bfa
    63d0:	36521dd8 	ori	s2,s2,0x1dd8
    63d4:	001fa021 	addu	s4,zero,ra
    63d8:	0015f821 	addu	ra,zero,s5
    63dc:	3c150000 	lui	s5,0x0
    63e0:	26b56334 	addiu	s5,s5,25396
    63e4:	3c160000 	lui	s6,0x0
    63e8:	26d6637c 	addiu	s6,s6,25468
    63ec:	3c1880df 	lui	t8,0x80df
    63f0:	3718fe44 	ori	t8,t8,0xfe44
    63f4:	16183000 	bne	s0,t8,123f8 <inst_error>
    63f8:	00000000 	nop
    63fc:	00000000 	nop
    6400:	3c182bfa 	lui	t8,0x2bfa
    6404:	37181dd8 	ori	t8,t8,0x1dd8
    6408:	16582ffb 	bne	s2,t8,123f8 <inst_error>
    640c:	00000000 	nop
    6410:	00000000 	nop
    6414:	3c19bfc0 	lui	t9,0xbfc0
    6418:	37393d44 	ori	t9,t9,0x3d44
    641c:	3c18bfc0 	lui	t8,0xbfc0
    6420:	37183d3c 	ori	t8,t8,0x3d3c
    6424:	27180008 	addiu	t8,t8,8
    6428:	1319000a 	beq	t8,t9,6454 <n35_bltzal_test+0x6454>
    642c:	00000000 	nop
    6430:	00000000 	nop
    6434:	3c18bfc0 	lui	t8,0xbfc0
    6438:	37183d6c 	ori	t8,t8,0x3d6c
    643c:	27180008 	addiu	t8,t8,8
    6440:	1319000a 	beq	t8,t9,646c <n35_bltzal_test+0x646c>
    6444:	00000000 	nop
    6448:	10002feb 	b	123f8 <inst_error>
    644c:	00000000 	nop
    6450:	00000000 	nop
    6454:	26b50008 	addiu	s5,s5,8
    6458:	16952fe7 	bne	s4,s5,123f8 <inst_error>
    645c:	00000000 	nop
    6460:	10000006 	b	647c <n35_bltzal_test+0x647c>
    6464:	00000000 	nop
    6468:	00000000 	nop
    646c:	26d60008 	addiu	s6,s6,8
    6470:	16962fe1 	bne	s4,s6,123f8 <inst_error>
    6474:	00000000 	nop
	...
    6480:	001fa821 	addu	s5,zero,ra
    6484:	3c0ce834 	lui	t4,0xe834
    6488:	358c7c34 	ori	t4,t4,0x7c34
    648c:	3c0d870d 	lui	t5,0x870d
    6490:	35ad1ff4 	ori	t5,t5,0x1ff4
    6494:	24100000 	li	s0,0
    6498:	10000014 	b	64ec <n35_bltzal_test+0x64ec>
    649c:	24120000 	li	s2,0
    64a0:	00000000 	nop
    64a4:	3c10e834 	lui	s0,0xe834
    64a8:	36107c34 	ori	s0,s0,0x7c34
    64ac:	05100025 	bltzal	t0,6544 <n35_bltzal_test+0x6544>
    64b0:	00000000 	nop
    64b4:	10000025 	b	654c <n35_bltzal_test+0x654c>
    64b8:	00000000 	nop
    64bc:	00000000 	nop
    64c0:	00000021 	move	zero,zero
    64c4:	00000021 	move	zero,zero
    64c8:	00000021 	move	zero,zero
    64cc:	00000021 	move	zero,zero
    64d0:	00000021 	move	zero,zero
    64d4:	00000021 	move	zero,zero
    64d8:	00000021 	move	zero,zero
    64dc:	00000021 	move	zero,zero
    64e0:	00000021 	move	zero,zero
    64e4:	00000021 	move	zero,zero
    64e8:	00000021 	move	zero,zero
    64ec:	3c0823b5 	lui	t0,0x23b5
    64f0:	350824bc 	ori	t0,t0,0x24bc
    64f4:	0510ffeb 	bltzal	t0,64a4 <n35_bltzal_test+0x64a4>
    64f8:	00000000 	nop
    64fc:	10000013 	b	654c <n35_bltzal_test+0x654c>
    6500:	00000000 	nop
    6504:	00000000 	nop
    6508:	00000021 	move	zero,zero
    650c:	00000021 	move	zero,zero
    6510:	00000021 	move	zero,zero
    6514:	00000021 	move	zero,zero
    6518:	00000021 	move	zero,zero
    651c:	00000021 	move	zero,zero
    6520:	00000021 	move	zero,zero
    6524:	00000021 	move	zero,zero
    6528:	00000021 	move	zero,zero
    652c:	00000021 	move	zero,zero
    6530:	00000021 	move	zero,zero
    6534:	00000021 	move	zero,zero
    6538:	00000021 	move	zero,zero
    653c:	00000021 	move	zero,zero
    6540:	00000021 	move	zero,zero
    6544:	3c12870d 	lui	s2,0x870d
    6548:	36521ff4 	ori	s2,s2,0x1ff4
    654c:	001fa021 	addu	s4,zero,ra
    6550:	0015f821 	addu	ra,zero,s5
    6554:	3c150000 	lui	s5,0x0
    6558:	26b564ac 	addiu	s5,s5,25772
    655c:	3c160000 	lui	s6,0x0
    6560:	26d664f4 	addiu	s6,s6,25844
    6564:	24180000 	li	t8,0
    6568:	16182fa3 	bne	s0,t8,123f8 <inst_error>
    656c:	00000000 	nop
    6570:	00000000 	nop
    6574:	24180000 	li	t8,0
    6578:	16582f9f 	bne	s2,t8,123f8 <inst_error>
    657c:	00000000 	nop
    6580:	00000000 	nop
    6584:	3c19bfc0 	lui	t9,0xbfc0
    6588:	37393e4c 	ori	t9,t9,0x3e4c
    658c:	3c18bfc0 	lui	t8,0xbfc0
    6590:	37183e14 	ori	t8,t8,0x3e14
    6594:	27180008 	addiu	t8,t8,8
    6598:	1319000a 	beq	t8,t9,65c4 <n35_bltzal_test+0x65c4>
    659c:	00000000 	nop
    65a0:	00000000 	nop
    65a4:	3c18bfc0 	lui	t8,0xbfc0
    65a8:	37183e44 	ori	t8,t8,0x3e44
    65ac:	27180008 	addiu	t8,t8,8
    65b0:	1319000a 	beq	t8,t9,65dc <n35_bltzal_test+0x65dc>
    65b4:	00000000 	nop
    65b8:	10002f8f 	b	123f8 <inst_error>
    65bc:	00000000 	nop
    65c0:	00000000 	nop
    65c4:	26b50008 	addiu	s5,s5,8
    65c8:	16952f8b 	bne	s4,s5,123f8 <inst_error>
    65cc:	00000000 	nop
    65d0:	10000006 	b	65ec <n35_bltzal_test+0x65ec>
    65d4:	00000000 	nop
    65d8:	00000000 	nop
    65dc:	26d60008 	addiu	s6,s6,8
    65e0:	16962f85 	bne	s4,s6,123f8 <inst_error>
    65e4:	00000000 	nop
	...
    65f0:	001fa821 	addu	s5,zero,ra
    65f4:	3c0c64c2 	lui	t4,0x64c2
    65f8:	358cd25c 	ori	t4,t4,0xd25c
    65fc:	3c0d3d4f 	lui	t5,0x3d4f
    6600:	35adc9c0 	ori	t5,t5,0xc9c0
    6604:	24100000 	li	s0,0
    6608:	10000014 	b	665c <n35_bltzal_test+0x665c>
    660c:	24120000 	li	s2,0
    6610:	00000000 	nop
    6614:	3c1064c2 	lui	s0,0x64c2
    6618:	3610d25c 	ori	s0,s0,0xd25c
    661c:	05100025 	bltzal	t0,66b4 <n35_bltzal_test+0x66b4>
    6620:	00000000 	nop
    6624:	10000025 	b	66bc <n35_bltzal_test+0x66bc>
    6628:	00000000 	nop
    662c:	00000000 	nop
    6630:	00000021 	move	zero,zero
    6634:	00000021 	move	zero,zero
    6638:	00000021 	move	zero,zero
    663c:	00000021 	move	zero,zero
    6640:	00000021 	move	zero,zero
    6644:	00000021 	move	zero,zero
    6648:	00000021 	move	zero,zero
    664c:	00000021 	move	zero,zero
    6650:	00000021 	move	zero,zero
    6654:	00000021 	move	zero,zero
    6658:	00000021 	move	zero,zero
    665c:	3c08ff76 	lui	t0,0xff76
    6660:	3508fa3d 	ori	t0,t0,0xfa3d
    6664:	0510ffeb 	bltzal	t0,6614 <n35_bltzal_test+0x6614>
    6668:	00000000 	nop
    666c:	10000013 	b	66bc <n35_bltzal_test+0x66bc>
    6670:	00000000 	nop
    6674:	00000000 	nop
    6678:	00000021 	move	zero,zero
    667c:	00000021 	move	zero,zero
    6680:	00000021 	move	zero,zero
    6684:	00000021 	move	zero,zero
    6688:	00000021 	move	zero,zero
    668c:	00000021 	move	zero,zero
    6690:	00000021 	move	zero,zero
    6694:	00000021 	move	zero,zero
    6698:	00000021 	move	zero,zero
    669c:	00000021 	move	zero,zero
    66a0:	00000021 	move	zero,zero
    66a4:	00000021 	move	zero,zero
    66a8:	00000021 	move	zero,zero
    66ac:	00000021 	move	zero,zero
    66b0:	00000021 	move	zero,zero
    66b4:	3c123d4f 	lui	s2,0x3d4f
    66b8:	3652c9c0 	ori	s2,s2,0xc9c0
    66bc:	001fa021 	addu	s4,zero,ra
    66c0:	0015f821 	addu	ra,zero,s5
    66c4:	3c150000 	lui	s5,0x0
    66c8:	26b5661c 	addiu	s5,s5,26140
    66cc:	3c160000 	lui	s6,0x0
    66d0:	26d66664 	addiu	s6,s6,26212
    66d4:	3c1864c2 	lui	t8,0x64c2
    66d8:	3718d25c 	ori	t8,t8,0xd25c
    66dc:	16182f46 	bne	s0,t8,123f8 <inst_error>
    66e0:	00000000 	nop
    66e4:	00000000 	nop
    66e8:	3c183d4f 	lui	t8,0x3d4f
    66ec:	3718c9c0 	ori	t8,t8,0xc9c0
    66f0:	16582f41 	bne	s2,t8,123f8 <inst_error>
    66f4:	00000000 	nop
    66f8:	00000000 	nop
    66fc:	3c19bfc0 	lui	t9,0xbfc0
    6700:	37393ef4 	ori	t9,t9,0x3ef4
    6704:	3c18bfc0 	lui	t8,0xbfc0
    6708:	37183eec 	ori	t8,t8,0x3eec
    670c:	27180008 	addiu	t8,t8,8
    6710:	1319000a 	beq	t8,t9,673c <n35_bltzal_test+0x673c>
    6714:	00000000 	nop
    6718:	00000000 	nop
    671c:	3c18bfc0 	lui	t8,0xbfc0
    6720:	37183f1c 	ori	t8,t8,0x3f1c
    6724:	27180008 	addiu	t8,t8,8
    6728:	1319000a 	beq	t8,t9,6754 <n35_bltzal_test+0x6754>
    672c:	00000000 	nop
    6730:	10002f31 	b	123f8 <inst_error>
    6734:	00000000 	nop
    6738:	00000000 	nop
    673c:	26b50008 	addiu	s5,s5,8
    6740:	16952f2d 	bne	s4,s5,123f8 <inst_error>
    6744:	00000000 	nop
    6748:	10000006 	b	6764 <n35_bltzal_test+0x6764>
    674c:	00000000 	nop
    6750:	00000000 	nop
    6754:	26d60008 	addiu	s6,s6,8
    6758:	16962f27 	bne	s4,s6,123f8 <inst_error>
    675c:	00000000 	nop
	...
    6768:	001fa821 	addu	s5,zero,ra
    676c:	3c0caeb0 	lui	t4,0xaeb0
    6770:	358c7f00 	ori	t4,t4,0x7f00
    6774:	3c0d869f 	lui	t5,0x869f
    6778:	35ad7090 	ori	t5,t5,0x7090
    677c:	24100000 	li	s0,0
    6780:	10000014 	b	67d4 <n35_bltzal_test+0x67d4>
    6784:	24120000 	li	s2,0
    6788:	00000000 	nop
    678c:	3c10aeb0 	lui	s0,0xaeb0
    6790:	36107f00 	ori	s0,s0,0x7f00
    6794:	05100025 	bltzal	t0,682c <n35_bltzal_test+0x682c>
    6798:	00000000 	nop
    679c:	10000025 	b	6834 <n35_bltzal_test+0x6834>
    67a0:	00000000 	nop
    67a4:	00000000 	nop
    67a8:	00000021 	move	zero,zero
    67ac:	00000021 	move	zero,zero
    67b0:	00000021 	move	zero,zero
    67b4:	00000021 	move	zero,zero
    67b8:	00000021 	move	zero,zero
    67bc:	00000021 	move	zero,zero
    67c0:	00000021 	move	zero,zero
    67c4:	00000021 	move	zero,zero
    67c8:	00000021 	move	zero,zero
    67cc:	00000021 	move	zero,zero
    67d0:	00000021 	move	zero,zero
    67d4:	3c0871e4 	lui	t0,0x71e4
    67d8:	35088460 	ori	t0,t0,0x8460
    67dc:	0510ffeb 	bltzal	t0,678c <n35_bltzal_test+0x678c>
    67e0:	00000000 	nop
    67e4:	10000013 	b	6834 <n35_bltzal_test+0x6834>
    67e8:	00000000 	nop
    67ec:	00000000 	nop
    67f0:	00000021 	move	zero,zero
    67f4:	00000021 	move	zero,zero
    67f8:	00000021 	move	zero,zero
    67fc:	00000021 	move	zero,zero
    6800:	00000021 	move	zero,zero
    6804:	00000021 	move	zero,zero
    6808:	00000021 	move	zero,zero
    680c:	00000021 	move	zero,zero
    6810:	00000021 	move	zero,zero
    6814:	00000021 	move	zero,zero
    6818:	00000021 	move	zero,zero
    681c:	00000021 	move	zero,zero
    6820:	00000021 	move	zero,zero
    6824:	00000021 	move	zero,zero
    6828:	00000021 	move	zero,zero
    682c:	3c12869f 	lui	s2,0x869f
    6830:	36527090 	ori	s2,s2,0x7090
    6834:	001fa021 	addu	s4,zero,ra
    6838:	0015f821 	addu	ra,zero,s5
    683c:	3c150000 	lui	s5,0x0
    6840:	26b56794 	addiu	s5,s5,26516
    6844:	3c160000 	lui	s6,0x0
    6848:	26d667dc 	addiu	s6,s6,26588
    684c:	24180000 	li	t8,0
    6850:	16182ee9 	bne	s0,t8,123f8 <inst_error>
    6854:	00000000 	nop
    6858:	00000000 	nop
    685c:	24180000 	li	t8,0
    6860:	16582ee5 	bne	s2,t8,123f8 <inst_error>
    6864:	00000000 	nop
    6868:	00000000 	nop
    686c:	3c19bfc0 	lui	t9,0xbfc0
    6870:	37393ffc 	ori	t9,t9,0x3ffc
    6874:	3c18bfc0 	lui	t8,0xbfc0
    6878:	37183fc4 	ori	t8,t8,0x3fc4
    687c:	27180008 	addiu	t8,t8,8
    6880:	1319000a 	beq	t8,t9,68ac <n35_bltzal_test+0x68ac>
    6884:	00000000 	nop
    6888:	00000000 	nop
    688c:	3c18bfc0 	lui	t8,0xbfc0
    6890:	37183ff4 	ori	t8,t8,0x3ff4
    6894:	27180008 	addiu	t8,t8,8
    6898:	1319000a 	beq	t8,t9,68c4 <n35_bltzal_test+0x68c4>
    689c:	00000000 	nop
    68a0:	10002ed5 	b	123f8 <inst_error>
    68a4:	00000000 	nop
    68a8:	00000000 	nop
    68ac:	26b50008 	addiu	s5,s5,8
    68b0:	16952ed1 	bne	s4,s5,123f8 <inst_error>
    68b4:	00000000 	nop
    68b8:	10000006 	b	68d4 <n35_bltzal_test+0x68d4>
    68bc:	00000000 	nop
    68c0:	00000000 	nop
    68c4:	26d60008 	addiu	s6,s6,8
    68c8:	16962ecb 	bne	s4,s6,123f8 <inst_error>
    68cc:	00000000 	nop
	...
    68d8:	001fa821 	addu	s5,zero,ra
    68dc:	3c0c6939 	lui	t4,0x6939
    68e0:	358c1de0 	ori	t4,t4,0x1de0
    68e4:	3c0d7b01 	lui	t5,0x7b01
    68e8:	35ad99e0 	ori	t5,t5,0x99e0
    68ec:	24100000 	li	s0,0
    68f0:	10000014 	b	6944 <n35_bltzal_test+0x6944>
    68f4:	24120000 	li	s2,0
    68f8:	00000000 	nop
    68fc:	3c106939 	lui	s0,0x6939
    6900:	36101de0 	ori	s0,s0,0x1de0
    6904:	05100025 	bltzal	t0,699c <n35_bltzal_test+0x699c>
    6908:	00000000 	nop
    690c:	10000025 	b	69a4 <n35_bltzal_test+0x69a4>
    6910:	00000000 	nop
    6914:	00000000 	nop
    6918:	00000021 	move	zero,zero
    691c:	00000021 	move	zero,zero
    6920:	00000021 	move	zero,zero
    6924:	00000021 	move	zero,zero
    6928:	00000021 	move	zero,zero
    692c:	00000021 	move	zero,zero
    6930:	00000021 	move	zero,zero
    6934:	00000021 	move	zero,zero
    6938:	00000021 	move	zero,zero
    693c:	00000021 	move	zero,zero
    6940:	00000021 	move	zero,zero
    6944:	3c08a249 	lui	t0,0xa249
    6948:	3508a008 	ori	t0,t0,0xa008
    694c:	0510ffeb 	bltzal	t0,68fc <n35_bltzal_test+0x68fc>
    6950:	00000000 	nop
    6954:	10000013 	b	69a4 <n35_bltzal_test+0x69a4>
    6958:	00000000 	nop
    695c:	00000000 	nop
    6960:	00000021 	move	zero,zero
    6964:	00000021 	move	zero,zero
    6968:	00000021 	move	zero,zero
    696c:	00000021 	move	zero,zero
    6970:	00000021 	move	zero,zero
    6974:	00000021 	move	zero,zero
    6978:	00000021 	move	zero,zero
    697c:	00000021 	move	zero,zero
    6980:	00000021 	move	zero,zero
    6984:	00000021 	move	zero,zero
    6988:	00000021 	move	zero,zero
    698c:	00000021 	move	zero,zero
    6990:	00000021 	move	zero,zero
    6994:	00000021 	move	zero,zero
    6998:	00000021 	move	zero,zero
    699c:	3c127b01 	lui	s2,0x7b01
    69a0:	365299e0 	ori	s2,s2,0x99e0
    69a4:	001fa021 	addu	s4,zero,ra
    69a8:	0015f821 	addu	ra,zero,s5
    69ac:	3c150000 	lui	s5,0x0
    69b0:	26b56904 	addiu	s5,s5,26884
    69b4:	3c160000 	lui	s6,0x0
    69b8:	26d6694c 	addiu	s6,s6,26956
    69bc:	3c186939 	lui	t8,0x6939
    69c0:	37181de0 	ori	t8,t8,0x1de0
    69c4:	16182e8c 	bne	s0,t8,123f8 <inst_error>
    69c8:	00000000 	nop
    69cc:	00000000 	nop
    69d0:	3c187b01 	lui	t8,0x7b01
    69d4:	371899e0 	ori	t8,t8,0x99e0
    69d8:	16582e87 	bne	s2,t8,123f8 <inst_error>
    69dc:	00000000 	nop
    69e0:	00000000 	nop
    69e4:	3c19bfc0 	lui	t9,0xbfc0
    69e8:	373940a4 	ori	t9,t9,0x40a4
    69ec:	3c18bfc0 	lui	t8,0xbfc0
    69f0:	3718409c 	ori	t8,t8,0x409c
    69f4:	27180008 	addiu	t8,t8,8
    69f8:	1319000a 	beq	t8,t9,6a24 <n35_bltzal_test+0x6a24>
    69fc:	00000000 	nop
    6a00:	00000000 	nop
    6a04:	3c18bfc0 	lui	t8,0xbfc0
    6a08:	371840cc 	ori	t8,t8,0x40cc
    6a0c:	27180008 	addiu	t8,t8,8
    6a10:	1319000a 	beq	t8,t9,6a3c <n35_bltzal_test+0x6a3c>
    6a14:	00000000 	nop
    6a18:	10002e77 	b	123f8 <inst_error>
    6a1c:	00000000 	nop
    6a20:	00000000 	nop
    6a24:	26b50008 	addiu	s5,s5,8
    6a28:	16952e73 	bne	s4,s5,123f8 <inst_error>
    6a2c:	00000000 	nop
    6a30:	10000006 	b	6a4c <n35_bltzal_test+0x6a4c>
    6a34:	00000000 	nop
    6a38:	00000000 	nop
    6a3c:	26d60008 	addiu	s6,s6,8
    6a40:	16962e6d 	bne	s4,s6,123f8 <inst_error>
    6a44:	00000000 	nop
	...
    6a50:	001fa821 	addu	s5,zero,ra
    6a54:	3c0c68d3 	lui	t4,0x68d3
    6a58:	358c270c 	ori	t4,t4,0x270c
    6a5c:	3c0d6567 	lui	t5,0x6567
    6a60:	35ada780 	ori	t5,t5,0xa780
    6a64:	24100000 	li	s0,0
    6a68:	10000014 	b	6abc <n35_bltzal_test+0x6abc>
    6a6c:	24120000 	li	s2,0
    6a70:	00000000 	nop
    6a74:	3c1068d3 	lui	s0,0x68d3
    6a78:	3610270c 	ori	s0,s0,0x270c
    6a7c:	05100025 	bltzal	t0,6b14 <n35_bltzal_test+0x6b14>
    6a80:	00000000 	nop
    6a84:	10000025 	b	6b1c <n35_bltzal_test+0x6b1c>
    6a88:	00000000 	nop
    6a8c:	00000000 	nop
    6a90:	00000021 	move	zero,zero
    6a94:	00000021 	move	zero,zero
    6a98:	00000021 	move	zero,zero
    6a9c:	00000021 	move	zero,zero
    6aa0:	00000021 	move	zero,zero
    6aa4:	00000021 	move	zero,zero
    6aa8:	00000021 	move	zero,zero
    6aac:	00000021 	move	zero,zero
    6ab0:	00000021 	move	zero,zero
    6ab4:	00000021 	move	zero,zero
    6ab8:	00000021 	move	zero,zero
    6abc:	3c081226 	lui	t0,0x1226
    6ac0:	35085bf2 	ori	t0,t0,0x5bf2
    6ac4:	0510ffeb 	bltzal	t0,6a74 <n35_bltzal_test+0x6a74>
    6ac8:	00000000 	nop
    6acc:	10000013 	b	6b1c <n35_bltzal_test+0x6b1c>
    6ad0:	00000000 	nop
    6ad4:	00000000 	nop
    6ad8:	00000021 	move	zero,zero
    6adc:	00000021 	move	zero,zero
    6ae0:	00000021 	move	zero,zero
    6ae4:	00000021 	move	zero,zero
    6ae8:	00000021 	move	zero,zero
    6aec:	00000021 	move	zero,zero
    6af0:	00000021 	move	zero,zero
    6af4:	00000021 	move	zero,zero
    6af8:	00000021 	move	zero,zero
    6afc:	00000021 	move	zero,zero
    6b00:	00000021 	move	zero,zero
    6b04:	00000021 	move	zero,zero
    6b08:	00000021 	move	zero,zero
    6b0c:	00000021 	move	zero,zero
    6b10:	00000021 	move	zero,zero
    6b14:	3c126567 	lui	s2,0x6567
    6b18:	3652a780 	ori	s2,s2,0xa780
    6b1c:	001fa021 	addu	s4,zero,ra
    6b20:	0015f821 	addu	ra,zero,s5
    6b24:	3c150000 	lui	s5,0x0
    6b28:	26b56a7c 	addiu	s5,s5,27260
    6b2c:	3c160000 	lui	s6,0x0
    6b30:	26d66ac4 	addiu	s6,s6,27332
    6b34:	24180000 	li	t8,0
    6b38:	16182e2f 	bne	s0,t8,123f8 <inst_error>
    6b3c:	00000000 	nop
    6b40:	00000000 	nop
    6b44:	24180000 	li	t8,0
    6b48:	16582e2b 	bne	s2,t8,123f8 <inst_error>
    6b4c:	00000000 	nop
    6b50:	00000000 	nop
    6b54:	3c19bfc0 	lui	t9,0xbfc0
    6b58:	373941ac 	ori	t9,t9,0x41ac
    6b5c:	3c18bfc0 	lui	t8,0xbfc0
    6b60:	37184174 	ori	t8,t8,0x4174
    6b64:	27180008 	addiu	t8,t8,8
    6b68:	1319000a 	beq	t8,t9,6b94 <n35_bltzal_test+0x6b94>
    6b6c:	00000000 	nop
    6b70:	00000000 	nop
    6b74:	3c18bfc0 	lui	t8,0xbfc0
    6b78:	371841a4 	ori	t8,t8,0x41a4
    6b7c:	27180008 	addiu	t8,t8,8
    6b80:	1319000a 	beq	t8,t9,6bac <n35_bltzal_test+0x6bac>
    6b84:	00000000 	nop
    6b88:	10002e1b 	b	123f8 <inst_error>
    6b8c:	00000000 	nop
    6b90:	00000000 	nop
    6b94:	26b50008 	addiu	s5,s5,8
    6b98:	16952e17 	bne	s4,s5,123f8 <inst_error>
    6b9c:	00000000 	nop
    6ba0:	10000006 	b	6bbc <n35_bltzal_test+0x6bbc>
    6ba4:	00000000 	nop
    6ba8:	00000000 	nop
    6bac:	26d60008 	addiu	s6,s6,8
    6bb0:	16962e11 	bne	s4,s6,123f8 <inst_error>
    6bb4:	00000000 	nop
	...
    6bc0:	001fa821 	addu	s5,zero,ra
    6bc4:	3c0cae78 	lui	t4,0xae78
    6bc8:	358c2cc0 	ori	t4,t4,0x2cc0
    6bcc:	3c0dcaac 	lui	t5,0xcaac
    6bd0:	35ad1b2c 	ori	t5,t5,0x1b2c
    6bd4:	24100000 	li	s0,0
    6bd8:	10000014 	b	6c2c <n35_bltzal_test+0x6c2c>
    6bdc:	24120000 	li	s2,0
    6be0:	00000000 	nop
    6be4:	3c10ae78 	lui	s0,0xae78
    6be8:	36102cc0 	ori	s0,s0,0x2cc0
    6bec:	05100025 	bltzal	t0,6c84 <n35_bltzal_test+0x6c84>
    6bf0:	00000000 	nop
    6bf4:	10000025 	b	6c8c <n35_bltzal_test+0x6c8c>
    6bf8:	00000000 	nop
    6bfc:	00000000 	nop
    6c00:	00000021 	move	zero,zero
    6c04:	00000021 	move	zero,zero
    6c08:	00000021 	move	zero,zero
    6c0c:	00000021 	move	zero,zero
    6c10:	00000021 	move	zero,zero
    6c14:	00000021 	move	zero,zero
    6c18:	00000021 	move	zero,zero
    6c1c:	00000021 	move	zero,zero
    6c20:	00000021 	move	zero,zero
    6c24:	00000021 	move	zero,zero
    6c28:	00000021 	move	zero,zero
    6c2c:	3c08ebc8 	lui	t0,0xebc8
    6c30:	3508e65c 	ori	t0,t0,0xe65c
    6c34:	0510ffeb 	bltzal	t0,6be4 <n35_bltzal_test+0x6be4>
    6c38:	00000000 	nop
    6c3c:	10000013 	b	6c8c <n35_bltzal_test+0x6c8c>
    6c40:	00000000 	nop
    6c44:	00000000 	nop
    6c48:	00000021 	move	zero,zero
    6c4c:	00000021 	move	zero,zero
    6c50:	00000021 	move	zero,zero
    6c54:	00000021 	move	zero,zero
    6c58:	00000021 	move	zero,zero
    6c5c:	00000021 	move	zero,zero
    6c60:	00000021 	move	zero,zero
    6c64:	00000021 	move	zero,zero
    6c68:	00000021 	move	zero,zero
    6c6c:	00000021 	move	zero,zero
    6c70:	00000021 	move	zero,zero
    6c74:	00000021 	move	zero,zero
    6c78:	00000021 	move	zero,zero
    6c7c:	00000021 	move	zero,zero
    6c80:	00000021 	move	zero,zero
    6c84:	3c12caac 	lui	s2,0xcaac
    6c88:	36521b2c 	ori	s2,s2,0x1b2c
    6c8c:	001fa021 	addu	s4,zero,ra
    6c90:	0015f821 	addu	ra,zero,s5
    6c94:	3c150000 	lui	s5,0x0
    6c98:	26b56bec 	addiu	s5,s5,27628
    6c9c:	3c160000 	lui	s6,0x0
    6ca0:	26d66c34 	addiu	s6,s6,27700
    6ca4:	3c18ae78 	lui	t8,0xae78
    6ca8:	37182cc0 	ori	t8,t8,0x2cc0
    6cac:	16182dd2 	bne	s0,t8,123f8 <inst_error>
    6cb0:	00000000 	nop
    6cb4:	00000000 	nop
    6cb8:	3c18caac 	lui	t8,0xcaac
    6cbc:	37181b2c 	ori	t8,t8,0x1b2c
    6cc0:	16582dcd 	bne	s2,t8,123f8 <inst_error>
    6cc4:	00000000 	nop
    6cc8:	00000000 	nop
    6ccc:	3c19bfc0 	lui	t9,0xbfc0
    6cd0:	37394254 	ori	t9,t9,0x4254
    6cd4:	3c18bfc0 	lui	t8,0xbfc0
    6cd8:	3718424c 	ori	t8,t8,0x424c
    6cdc:	27180008 	addiu	t8,t8,8
    6ce0:	1319000a 	beq	t8,t9,6d0c <n35_bltzal_test+0x6d0c>
    6ce4:	00000000 	nop
    6ce8:	00000000 	nop
    6cec:	3c18bfc0 	lui	t8,0xbfc0
    6cf0:	3718427c 	ori	t8,t8,0x427c
    6cf4:	27180008 	addiu	t8,t8,8
    6cf8:	1319000a 	beq	t8,t9,6d24 <n35_bltzal_test+0x6d24>
    6cfc:	00000000 	nop
    6d00:	10002dbd 	b	123f8 <inst_error>
    6d04:	00000000 	nop
    6d08:	00000000 	nop
    6d0c:	26b50008 	addiu	s5,s5,8
    6d10:	16952db9 	bne	s4,s5,123f8 <inst_error>
    6d14:	00000000 	nop
    6d18:	10000006 	b	6d34 <n35_bltzal_test+0x6d34>
    6d1c:	00000000 	nop
    6d20:	00000000 	nop
    6d24:	26d60008 	addiu	s6,s6,8
    6d28:	16962db3 	bne	s4,s6,123f8 <inst_error>
    6d2c:	00000000 	nop
	...
    6d38:	001fa821 	addu	s5,zero,ra
    6d3c:	3c0c8693 	lui	t4,0x8693
    6d40:	358c6b00 	ori	t4,t4,0x6b00
    6d44:	3c0df3df 	lui	t5,0xf3df
    6d48:	35ad3180 	ori	t5,t5,0x3180
    6d4c:	24100000 	li	s0,0
    6d50:	10000014 	b	6da4 <n35_bltzal_test+0x6da4>
    6d54:	24120000 	li	s2,0
    6d58:	00000000 	nop
    6d5c:	3c108693 	lui	s0,0x8693
    6d60:	36106b00 	ori	s0,s0,0x6b00
    6d64:	05100025 	bltzal	t0,6dfc <n35_bltzal_test+0x6dfc>
    6d68:	00000000 	nop
    6d6c:	10000025 	b	6e04 <n35_bltzal_test+0x6e04>
    6d70:	00000000 	nop
    6d74:	00000000 	nop
    6d78:	00000021 	move	zero,zero
    6d7c:	00000021 	move	zero,zero
    6d80:	00000021 	move	zero,zero
    6d84:	00000021 	move	zero,zero
    6d88:	00000021 	move	zero,zero
    6d8c:	00000021 	move	zero,zero
    6d90:	00000021 	move	zero,zero
    6d94:	00000021 	move	zero,zero
    6d98:	00000021 	move	zero,zero
    6d9c:	00000021 	move	zero,zero
    6da0:	00000021 	move	zero,zero
    6da4:	3c08aaca 	lui	t0,0xaaca
    6da8:	35089c46 	ori	t0,t0,0x9c46
    6dac:	0510ffeb 	bltzal	t0,6d5c <n35_bltzal_test+0x6d5c>
    6db0:	00000000 	nop
    6db4:	10000013 	b	6e04 <n35_bltzal_test+0x6e04>
    6db8:	00000000 	nop
    6dbc:	00000000 	nop
    6dc0:	00000021 	move	zero,zero
    6dc4:	00000021 	move	zero,zero
    6dc8:	00000021 	move	zero,zero
    6dcc:	00000021 	move	zero,zero
    6dd0:	00000021 	move	zero,zero
    6dd4:	00000021 	move	zero,zero
    6dd8:	00000021 	move	zero,zero
    6ddc:	00000021 	move	zero,zero
    6de0:	00000021 	move	zero,zero
    6de4:	00000021 	move	zero,zero
    6de8:	00000021 	move	zero,zero
    6dec:	00000021 	move	zero,zero
    6df0:	00000021 	move	zero,zero
    6df4:	00000021 	move	zero,zero
    6df8:	00000021 	move	zero,zero
    6dfc:	3c12f3df 	lui	s2,0xf3df
    6e00:	36523180 	ori	s2,s2,0x3180
    6e04:	001fa021 	addu	s4,zero,ra
    6e08:	0015f821 	addu	ra,zero,s5
    6e0c:	3c150000 	lui	s5,0x0
    6e10:	26b56d64 	addiu	s5,s5,28004
    6e14:	3c160000 	lui	s6,0x0
    6e18:	26d66dac 	addiu	s6,s6,28076
    6e1c:	3c188693 	lui	t8,0x8693
    6e20:	37186b00 	ori	t8,t8,0x6b00
    6e24:	16182d74 	bne	s0,t8,123f8 <inst_error>
    6e28:	00000000 	nop
    6e2c:	00000000 	nop
    6e30:	3c18f3df 	lui	t8,0xf3df
    6e34:	37183180 	ori	t8,t8,0x3180
    6e38:	16582d6f 	bne	s2,t8,123f8 <inst_error>
    6e3c:	00000000 	nop
    6e40:	00000000 	nop
    6e44:	3c19bfc0 	lui	t9,0xbfc0
    6e48:	3739432c 	ori	t9,t9,0x432c
    6e4c:	3c18bfc0 	lui	t8,0xbfc0
    6e50:	37184324 	ori	t8,t8,0x4324
    6e54:	27180008 	addiu	t8,t8,8
    6e58:	1319000a 	beq	t8,t9,6e84 <n35_bltzal_test+0x6e84>
    6e5c:	00000000 	nop
    6e60:	00000000 	nop
    6e64:	3c18bfc0 	lui	t8,0xbfc0
    6e68:	37184354 	ori	t8,t8,0x4354
    6e6c:	27180008 	addiu	t8,t8,8
    6e70:	1319000a 	beq	t8,t9,6e9c <n35_bltzal_test+0x6e9c>
    6e74:	00000000 	nop
    6e78:	10002d5f 	b	123f8 <inst_error>
    6e7c:	00000000 	nop
    6e80:	00000000 	nop
    6e84:	26b50008 	addiu	s5,s5,8
    6e88:	16952d5b 	bne	s4,s5,123f8 <inst_error>
    6e8c:	00000000 	nop
    6e90:	10000006 	b	6eac <n35_bltzal_test+0x6eac>
    6e94:	00000000 	nop
    6e98:	00000000 	nop
    6e9c:	26d60008 	addiu	s6,s6,8
    6ea0:	16962d55 	bne	s4,s6,123f8 <inst_error>
    6ea4:	00000000 	nop
	...
    6eb0:	001fa821 	addu	s5,zero,ra
    6eb4:	3c0c260a 	lui	t4,0x260a
    6eb8:	358c16a4 	ori	t4,t4,0x16a4
    6ebc:	3c0d2529 	lui	t5,0x2529
    6ec0:	35adfc78 	ori	t5,t5,0xfc78
    6ec4:	24100000 	li	s0,0
    6ec8:	10000014 	b	6f1c <n35_bltzal_test+0x6f1c>
    6ecc:	24120000 	li	s2,0
    6ed0:	00000000 	nop
    6ed4:	3c10260a 	lui	s0,0x260a
    6ed8:	361016a4 	ori	s0,s0,0x16a4
    6edc:	05100025 	bltzal	t0,6f74 <n35_bltzal_test+0x6f74>
    6ee0:	00000000 	nop
    6ee4:	10000025 	b	6f7c <n35_bltzal_test+0x6f7c>
    6ee8:	00000000 	nop
    6eec:	00000000 	nop
    6ef0:	00000021 	move	zero,zero
    6ef4:	00000021 	move	zero,zero
    6ef8:	00000021 	move	zero,zero
    6efc:	00000021 	move	zero,zero
    6f00:	00000021 	move	zero,zero
    6f04:	00000021 	move	zero,zero
    6f08:	00000021 	move	zero,zero
    6f0c:	00000021 	move	zero,zero
    6f10:	00000021 	move	zero,zero
    6f14:	00000021 	move	zero,zero
    6f18:	00000021 	move	zero,zero
    6f1c:	3c080590 	lui	t0,0x590
    6f20:	3508d170 	ori	t0,t0,0xd170
    6f24:	0510ffeb 	bltzal	t0,6ed4 <n35_bltzal_test+0x6ed4>
    6f28:	00000000 	nop
    6f2c:	10000013 	b	6f7c <n35_bltzal_test+0x6f7c>
    6f30:	00000000 	nop
    6f34:	00000000 	nop
    6f38:	00000021 	move	zero,zero
    6f3c:	00000021 	move	zero,zero
    6f40:	00000021 	move	zero,zero
    6f44:	00000021 	move	zero,zero
    6f48:	00000021 	move	zero,zero
    6f4c:	00000021 	move	zero,zero
    6f50:	00000021 	move	zero,zero
    6f54:	00000021 	move	zero,zero
    6f58:	00000021 	move	zero,zero
    6f5c:	00000021 	move	zero,zero
    6f60:	00000021 	move	zero,zero
    6f64:	00000021 	move	zero,zero
    6f68:	00000021 	move	zero,zero
    6f6c:	00000021 	move	zero,zero
    6f70:	00000021 	move	zero,zero
    6f74:	3c122529 	lui	s2,0x2529
    6f78:	3652fc78 	ori	s2,s2,0xfc78
    6f7c:	001fa021 	addu	s4,zero,ra
    6f80:	0015f821 	addu	ra,zero,s5
    6f84:	3c150000 	lui	s5,0x0
    6f88:	26b56edc 	addiu	s5,s5,28380
    6f8c:	3c160000 	lui	s6,0x0
    6f90:	26d66f24 	addiu	s6,s6,28452
    6f94:	24180000 	li	t8,0
    6f98:	16182d17 	bne	s0,t8,123f8 <inst_error>
    6f9c:	00000000 	nop
    6fa0:	00000000 	nop
    6fa4:	24180000 	li	t8,0
    6fa8:	16582d13 	bne	s2,t8,123f8 <inst_error>
    6fac:	00000000 	nop
    6fb0:	00000000 	nop
    6fb4:	3c19bfc0 	lui	t9,0xbfc0
    6fb8:	37394434 	ori	t9,t9,0x4434
    6fbc:	3c18bfc0 	lui	t8,0xbfc0
    6fc0:	371843fc 	ori	t8,t8,0x43fc
    6fc4:	27180008 	addiu	t8,t8,8
    6fc8:	1319000a 	beq	t8,t9,6ff4 <n35_bltzal_test+0x6ff4>
    6fcc:	00000000 	nop
    6fd0:	00000000 	nop
    6fd4:	3c18bfc0 	lui	t8,0xbfc0
    6fd8:	3718442c 	ori	t8,t8,0x442c
    6fdc:	27180008 	addiu	t8,t8,8
    6fe0:	1319000a 	beq	t8,t9,700c <n35_bltzal_test+0x700c>
    6fe4:	00000000 	nop
    6fe8:	10002d03 	b	123f8 <inst_error>
    6fec:	00000000 	nop
    6ff0:	00000000 	nop
    6ff4:	26b50008 	addiu	s5,s5,8
    6ff8:	16952cff 	bne	s4,s5,123f8 <inst_error>
    6ffc:	00000000 	nop
    7000:	10000006 	b	701c <n35_bltzal_test+0x701c>
    7004:	00000000 	nop
    7008:	00000000 	nop
    700c:	26d60008 	addiu	s6,s6,8
    7010:	16962cf9 	bne	s4,s6,123f8 <inst_error>
    7014:	00000000 	nop
	...
    7020:	001fa821 	addu	s5,zero,ra
    7024:	3c0cf130 	lui	t4,0xf130
    7028:	358c6ec4 	ori	t4,t4,0x6ec4
    702c:	3c0d8e7a 	lui	t5,0x8e7a
    7030:	35ade168 	ori	t5,t5,0xe168
    7034:	24100000 	li	s0,0
    7038:	10000014 	b	708c <n35_bltzal_test+0x708c>
    703c:	24120000 	li	s2,0
    7040:	00000000 	nop
    7044:	3c10f130 	lui	s0,0xf130
    7048:	36106ec4 	ori	s0,s0,0x6ec4
    704c:	05100025 	bltzal	t0,70e4 <n35_bltzal_test+0x70e4>
    7050:	00000000 	nop
    7054:	10000025 	b	70ec <n35_bltzal_test+0x70ec>
    7058:	00000000 	nop
    705c:	00000000 	nop
    7060:	00000021 	move	zero,zero
    7064:	00000021 	move	zero,zero
    7068:	00000021 	move	zero,zero
    706c:	00000021 	move	zero,zero
    7070:	00000021 	move	zero,zero
    7074:	00000021 	move	zero,zero
    7078:	00000021 	move	zero,zero
    707c:	00000021 	move	zero,zero
    7080:	00000021 	move	zero,zero
    7084:	00000021 	move	zero,zero
    7088:	00000021 	move	zero,zero
    708c:	3c082e8b 	lui	t0,0x2e8b
    7090:	35085724 	ori	t0,t0,0x5724
    7094:	0510ffeb 	bltzal	t0,7044 <n35_bltzal_test+0x7044>
    7098:	00000000 	nop
    709c:	10000013 	b	70ec <n35_bltzal_test+0x70ec>
    70a0:	00000000 	nop
    70a4:	00000000 	nop
    70a8:	00000021 	move	zero,zero
    70ac:	00000021 	move	zero,zero
    70b0:	00000021 	move	zero,zero
    70b4:	00000021 	move	zero,zero
    70b8:	00000021 	move	zero,zero
    70bc:	00000021 	move	zero,zero
    70c0:	00000021 	move	zero,zero
    70c4:	00000021 	move	zero,zero
    70c8:	00000021 	move	zero,zero
    70cc:	00000021 	move	zero,zero
    70d0:	00000021 	move	zero,zero
    70d4:	00000021 	move	zero,zero
    70d8:	00000021 	move	zero,zero
    70dc:	00000021 	move	zero,zero
    70e0:	00000021 	move	zero,zero
    70e4:	3c128e7a 	lui	s2,0x8e7a
    70e8:	3652e168 	ori	s2,s2,0xe168
    70ec:	001fa021 	addu	s4,zero,ra
    70f0:	0015f821 	addu	ra,zero,s5
    70f4:	3c150000 	lui	s5,0x0
    70f8:	26b5704c 	addiu	s5,s5,28748
    70fc:	3c160000 	lui	s6,0x0
    7100:	26d67094 	addiu	s6,s6,28820
    7104:	24180000 	li	t8,0
    7108:	16182cbb 	bne	s0,t8,123f8 <inst_error>
    710c:	00000000 	nop
    7110:	00000000 	nop
    7114:	24180000 	li	t8,0
    7118:	16582cb7 	bne	s2,t8,123f8 <inst_error>
    711c:	00000000 	nop
    7120:	00000000 	nop
    7124:	3c19bfc0 	lui	t9,0xbfc0
    7128:	3739450c 	ori	t9,t9,0x450c
    712c:	3c18bfc0 	lui	t8,0xbfc0
    7130:	371844d4 	ori	t8,t8,0x44d4
    7134:	27180008 	addiu	t8,t8,8
    7138:	1319000a 	beq	t8,t9,7164 <n35_bltzal_test+0x7164>
    713c:	00000000 	nop
    7140:	00000000 	nop
    7144:	3c18bfc0 	lui	t8,0xbfc0
    7148:	37184504 	ori	t8,t8,0x4504
    714c:	27180008 	addiu	t8,t8,8
    7150:	1319000a 	beq	t8,t9,717c <n35_bltzal_test+0x717c>
    7154:	00000000 	nop
    7158:	10002ca7 	b	123f8 <inst_error>
    715c:	00000000 	nop
    7160:	00000000 	nop
    7164:	26b50008 	addiu	s5,s5,8
    7168:	16952ca3 	bne	s4,s5,123f8 <inst_error>
    716c:	00000000 	nop
    7170:	10000006 	b	718c <n35_bltzal_test+0x718c>
    7174:	00000000 	nop
    7178:	00000000 	nop
    717c:	26d60008 	addiu	s6,s6,8
    7180:	16962c9d 	bne	s4,s6,123f8 <inst_error>
    7184:	00000000 	nop
	...
    7190:	001fa821 	addu	s5,zero,ra
    7194:	3c0c1d80 	lui	t4,0x1d80
    7198:	358c7f90 	ori	t4,t4,0x7f90
    719c:	3c0dc743 	lui	t5,0xc743
    71a0:	35ad5a42 	ori	t5,t5,0x5a42
    71a4:	24100000 	li	s0,0
    71a8:	10000014 	b	71fc <n35_bltzal_test+0x71fc>
    71ac:	24120000 	li	s2,0
    71b0:	00000000 	nop
    71b4:	3c101d80 	lui	s0,0x1d80
    71b8:	36107f90 	ori	s0,s0,0x7f90
    71bc:	05100025 	bltzal	t0,7254 <n35_bltzal_test+0x7254>
    71c0:	00000000 	nop
    71c4:	10000025 	b	725c <n35_bltzal_test+0x725c>
    71c8:	00000000 	nop
    71cc:	00000000 	nop
    71d0:	00000021 	move	zero,zero
    71d4:	00000021 	move	zero,zero
    71d8:	00000021 	move	zero,zero
    71dc:	00000021 	move	zero,zero
    71e0:	00000021 	move	zero,zero
    71e4:	00000021 	move	zero,zero
    71e8:	00000021 	move	zero,zero
    71ec:	00000021 	move	zero,zero
    71f0:	00000021 	move	zero,zero
    71f4:	00000021 	move	zero,zero
    71f8:	00000021 	move	zero,zero
    71fc:	3c081de8 	lui	t0,0x1de8
    7200:	3508443d 	ori	t0,t0,0x443d
    7204:	0510ffeb 	bltzal	t0,71b4 <n35_bltzal_test+0x71b4>
    7208:	00000000 	nop
    720c:	10000013 	b	725c <n35_bltzal_test+0x725c>
    7210:	00000000 	nop
    7214:	00000000 	nop
    7218:	00000021 	move	zero,zero
    721c:	00000021 	move	zero,zero
    7220:	00000021 	move	zero,zero
    7224:	00000021 	move	zero,zero
    7228:	00000021 	move	zero,zero
    722c:	00000021 	move	zero,zero
    7230:	00000021 	move	zero,zero
    7234:	00000021 	move	zero,zero
    7238:	00000021 	move	zero,zero
    723c:	00000021 	move	zero,zero
    7240:	00000021 	move	zero,zero
    7244:	00000021 	move	zero,zero
    7248:	00000021 	move	zero,zero
    724c:	00000021 	move	zero,zero
    7250:	00000021 	move	zero,zero
    7254:	3c12c743 	lui	s2,0xc743
    7258:	36525a42 	ori	s2,s2,0x5a42
    725c:	001fa021 	addu	s4,zero,ra
    7260:	0015f821 	addu	ra,zero,s5
    7264:	3c150000 	lui	s5,0x0
    7268:	26b571bc 	addiu	s5,s5,29116
    726c:	3c160000 	lui	s6,0x0
    7270:	26d67204 	addiu	s6,s6,29188
    7274:	24180000 	li	t8,0
    7278:	16182c5f 	bne	s0,t8,123f8 <inst_error>
    727c:	00000000 	nop
    7280:	00000000 	nop
    7284:	24180000 	li	t8,0
    7288:	16582c5b 	bne	s2,t8,123f8 <inst_error>
    728c:	00000000 	nop
    7290:	00000000 	nop
    7294:	3c19bfc0 	lui	t9,0xbfc0
    7298:	373945e4 	ori	t9,t9,0x45e4
    729c:	3c18bfc0 	lui	t8,0xbfc0
    72a0:	371845ac 	ori	t8,t8,0x45ac
    72a4:	27180008 	addiu	t8,t8,8
    72a8:	1319000a 	beq	t8,t9,72d4 <n35_bltzal_test+0x72d4>
    72ac:	00000000 	nop
    72b0:	00000000 	nop
    72b4:	3c18bfc0 	lui	t8,0xbfc0
    72b8:	371845dc 	ori	t8,t8,0x45dc
    72bc:	27180008 	addiu	t8,t8,8
    72c0:	1319000a 	beq	t8,t9,72ec <n35_bltzal_test+0x72ec>
    72c4:	00000000 	nop
    72c8:	10002c4b 	b	123f8 <inst_error>
    72cc:	00000000 	nop
    72d0:	00000000 	nop
    72d4:	26b50008 	addiu	s5,s5,8
    72d8:	16952c47 	bne	s4,s5,123f8 <inst_error>
    72dc:	00000000 	nop
    72e0:	10000006 	b	72fc <n35_bltzal_test+0x72fc>
    72e4:	00000000 	nop
    72e8:	00000000 	nop
    72ec:	26d60008 	addiu	s6,s6,8
    72f0:	16962c41 	bne	s4,s6,123f8 <inst_error>
    72f4:	00000000 	nop
	...
    7300:	001fa821 	addu	s5,zero,ra
    7304:	3c0c03eb 	lui	t4,0x3eb
    7308:	358c1ab0 	ori	t4,t4,0x1ab0
    730c:	3c0db7f4 	lui	t5,0xb7f4
    7310:	35adcb55 	ori	t5,t5,0xcb55
    7314:	24100000 	li	s0,0
    7318:	10000014 	b	736c <n35_bltzal_test+0x736c>
    731c:	24120000 	li	s2,0
    7320:	00000000 	nop
    7324:	3c1003eb 	lui	s0,0x3eb
    7328:	36101ab0 	ori	s0,s0,0x1ab0
    732c:	05100025 	bltzal	t0,73c4 <n35_bltzal_test+0x73c4>
    7330:	00000000 	nop
    7334:	10000025 	b	73cc <n35_bltzal_test+0x73cc>
    7338:	00000000 	nop
    733c:	00000000 	nop
    7340:	00000021 	move	zero,zero
    7344:	00000021 	move	zero,zero
    7348:	00000021 	move	zero,zero
    734c:	00000021 	move	zero,zero
    7350:	00000021 	move	zero,zero
    7354:	00000021 	move	zero,zero
    7358:	00000021 	move	zero,zero
    735c:	00000021 	move	zero,zero
    7360:	00000021 	move	zero,zero
    7364:	00000021 	move	zero,zero
    7368:	00000021 	move	zero,zero
    736c:	3c08bb81 	lui	t0,0xbb81
    7370:	3508451a 	ori	t0,t0,0x451a
    7374:	0510ffeb 	bltzal	t0,7324 <n35_bltzal_test+0x7324>
    7378:	00000000 	nop
    737c:	10000013 	b	73cc <n35_bltzal_test+0x73cc>
    7380:	00000000 	nop
    7384:	00000000 	nop
    7388:	00000021 	move	zero,zero
    738c:	00000021 	move	zero,zero
    7390:	00000021 	move	zero,zero
    7394:	00000021 	move	zero,zero
    7398:	00000021 	move	zero,zero
    739c:	00000021 	move	zero,zero
    73a0:	00000021 	move	zero,zero
    73a4:	00000021 	move	zero,zero
    73a8:	00000021 	move	zero,zero
    73ac:	00000021 	move	zero,zero
    73b0:	00000021 	move	zero,zero
    73b4:	00000021 	move	zero,zero
    73b8:	00000021 	move	zero,zero
    73bc:	00000021 	move	zero,zero
    73c0:	00000021 	move	zero,zero
    73c4:	3c12b7f4 	lui	s2,0xb7f4
    73c8:	3652cb55 	ori	s2,s2,0xcb55
    73cc:	001fa021 	addu	s4,zero,ra
    73d0:	0015f821 	addu	ra,zero,s5
    73d4:	3c150000 	lui	s5,0x0
    73d8:	26b5732c 	addiu	s5,s5,29484
    73dc:	3c160000 	lui	s6,0x0
    73e0:	26d67374 	addiu	s6,s6,29556
    73e4:	3c1803eb 	lui	t8,0x3eb
    73e8:	37181ab0 	ori	t8,t8,0x1ab0
    73ec:	16182c02 	bne	s0,t8,123f8 <inst_error>
    73f0:	00000000 	nop
    73f4:	00000000 	nop
    73f8:	3c18b7f4 	lui	t8,0xb7f4
    73fc:	3718cb55 	ori	t8,t8,0xcb55
    7400:	16582bfd 	bne	s2,t8,123f8 <inst_error>
    7404:	00000000 	nop
    7408:	00000000 	nop
    740c:	3c19bfc0 	lui	t9,0xbfc0
    7410:	3739468c 	ori	t9,t9,0x468c
    7414:	3c18bfc0 	lui	t8,0xbfc0
    7418:	37184684 	ori	t8,t8,0x4684
    741c:	27180008 	addiu	t8,t8,8
    7420:	1319000a 	beq	t8,t9,744c <n35_bltzal_test+0x744c>
    7424:	00000000 	nop
    7428:	00000000 	nop
    742c:	3c18bfc0 	lui	t8,0xbfc0
    7430:	371846b4 	ori	t8,t8,0x46b4
    7434:	27180008 	addiu	t8,t8,8
    7438:	1319000a 	beq	t8,t9,7464 <n35_bltzal_test+0x7464>
    743c:	00000000 	nop
    7440:	10002bed 	b	123f8 <inst_error>
    7444:	00000000 	nop
    7448:	00000000 	nop
    744c:	26b50008 	addiu	s5,s5,8
    7450:	16952be9 	bne	s4,s5,123f8 <inst_error>
    7454:	00000000 	nop
    7458:	10000006 	b	7474 <n35_bltzal_test+0x7474>
    745c:	00000000 	nop
    7460:	00000000 	nop
    7464:	26d60008 	addiu	s6,s6,8
    7468:	16962be3 	bne	s4,s6,123f8 <inst_error>
    746c:	00000000 	nop
	...
    7478:	001fa821 	addu	s5,zero,ra
    747c:	3c0c9059 	lui	t4,0x9059
    7480:	358c56a4 	ori	t4,t4,0x56a4
    7484:	3c0d146a 	lui	t5,0x146a
    7488:	35ad6860 	ori	t5,t5,0x6860
    748c:	24100000 	li	s0,0
    7490:	10000014 	b	74e4 <n35_bltzal_test+0x74e4>
    7494:	24120000 	li	s2,0
    7498:	00000000 	nop
    749c:	3c109059 	lui	s0,0x9059
    74a0:	361056a4 	ori	s0,s0,0x56a4
    74a4:	05100025 	bltzal	t0,753c <n35_bltzal_test+0x753c>
    74a8:	00000000 	nop
    74ac:	10000025 	b	7544 <n35_bltzal_test+0x7544>
    74b0:	00000000 	nop
    74b4:	00000000 	nop
    74b8:	00000021 	move	zero,zero
    74bc:	00000021 	move	zero,zero
    74c0:	00000021 	move	zero,zero
    74c4:	00000021 	move	zero,zero
    74c8:	00000021 	move	zero,zero
    74cc:	00000021 	move	zero,zero
    74d0:	00000021 	move	zero,zero
    74d4:	00000021 	move	zero,zero
    74d8:	00000021 	move	zero,zero
    74dc:	00000021 	move	zero,zero
    74e0:	00000021 	move	zero,zero
    74e4:	3c08df59 	lui	t0,0xdf59
    74e8:	350884b1 	ori	t0,t0,0x84b1
    74ec:	0510ffeb 	bltzal	t0,749c <n35_bltzal_test+0x749c>
    74f0:	00000000 	nop
    74f4:	10000013 	b	7544 <n35_bltzal_test+0x7544>
    74f8:	00000000 	nop
    74fc:	00000000 	nop
    7500:	00000021 	move	zero,zero
    7504:	00000021 	move	zero,zero
    7508:	00000021 	move	zero,zero
    750c:	00000021 	move	zero,zero
    7510:	00000021 	move	zero,zero
    7514:	00000021 	move	zero,zero
    7518:	00000021 	move	zero,zero
    751c:	00000021 	move	zero,zero
    7520:	00000021 	move	zero,zero
    7524:	00000021 	move	zero,zero
    7528:	00000021 	move	zero,zero
    752c:	00000021 	move	zero,zero
    7530:	00000021 	move	zero,zero
    7534:	00000021 	move	zero,zero
    7538:	00000021 	move	zero,zero
    753c:	3c12146a 	lui	s2,0x146a
    7540:	36526860 	ori	s2,s2,0x6860
    7544:	001fa021 	addu	s4,zero,ra
    7548:	0015f821 	addu	ra,zero,s5
    754c:	3c150000 	lui	s5,0x0
    7550:	26b574a4 	addiu	s5,s5,29860
    7554:	3c160000 	lui	s6,0x0
    7558:	26d674ec 	addiu	s6,s6,29932
    755c:	3c189059 	lui	t8,0x9059
    7560:	371856a4 	ori	t8,t8,0x56a4
    7564:	16182ba4 	bne	s0,t8,123f8 <inst_error>
    7568:	00000000 	nop
    756c:	00000000 	nop
    7570:	3c18146a 	lui	t8,0x146a
    7574:	37186860 	ori	t8,t8,0x6860
    7578:	16582b9f 	bne	s2,t8,123f8 <inst_error>
    757c:	00000000 	nop
    7580:	00000000 	nop
    7584:	3c19bfc0 	lui	t9,0xbfc0
    7588:	37394764 	ori	t9,t9,0x4764
    758c:	3c18bfc0 	lui	t8,0xbfc0
    7590:	3718475c 	ori	t8,t8,0x475c
    7594:	27180008 	addiu	t8,t8,8
    7598:	1319000a 	beq	t8,t9,75c4 <n35_bltzal_test+0x75c4>
    759c:	00000000 	nop
    75a0:	00000000 	nop
    75a4:	3c18bfc0 	lui	t8,0xbfc0
    75a8:	3718478c 	ori	t8,t8,0x478c
    75ac:	27180008 	addiu	t8,t8,8
    75b0:	1319000a 	beq	t8,t9,75dc <n35_bltzal_test+0x75dc>
    75b4:	00000000 	nop
    75b8:	10002b8f 	b	123f8 <inst_error>
    75bc:	00000000 	nop
    75c0:	00000000 	nop
    75c4:	26b50008 	addiu	s5,s5,8
    75c8:	16952b8b 	bne	s4,s5,123f8 <inst_error>
    75cc:	00000000 	nop
    75d0:	10000006 	b	75ec <n35_bltzal_test+0x75ec>
    75d4:	00000000 	nop
    75d8:	00000000 	nop
    75dc:	26d60008 	addiu	s6,s6,8
    75e0:	16962b85 	bne	s4,s6,123f8 <inst_error>
    75e4:	00000000 	nop
	...
    75f0:	001fa821 	addu	s5,zero,ra
    75f4:	3c0c22b1 	lui	t4,0x22b1
    75f8:	358c1500 	ori	t4,t4,0x1500
    75fc:	3c0dfc9d 	lui	t5,0xfc9d
    7600:	35ad8e9c 	ori	t5,t5,0x8e9c
    7604:	24100000 	li	s0,0
    7608:	10000014 	b	765c <n35_bltzal_test+0x765c>
    760c:	24120000 	li	s2,0
    7610:	00000000 	nop
    7614:	3c1022b1 	lui	s0,0x22b1
    7618:	36101500 	ori	s0,s0,0x1500
    761c:	05100025 	bltzal	t0,76b4 <n35_bltzal_test+0x76b4>
    7620:	00000000 	nop
    7624:	10000025 	b	76bc <n35_bltzal_test+0x76bc>
    7628:	00000000 	nop
    762c:	00000000 	nop
    7630:	00000021 	move	zero,zero
    7634:	00000021 	move	zero,zero
    7638:	00000021 	move	zero,zero
    763c:	00000021 	move	zero,zero
    7640:	00000021 	move	zero,zero
    7644:	00000021 	move	zero,zero
    7648:	00000021 	move	zero,zero
    764c:	00000021 	move	zero,zero
    7650:	00000021 	move	zero,zero
    7654:	00000021 	move	zero,zero
    7658:	00000021 	move	zero,zero
    765c:	3c085914 	lui	t0,0x5914
    7660:	35086e08 	ori	t0,t0,0x6e08
    7664:	0510ffeb 	bltzal	t0,7614 <n35_bltzal_test+0x7614>
    7668:	00000000 	nop
    766c:	10000013 	b	76bc <n35_bltzal_test+0x76bc>
    7670:	00000000 	nop
    7674:	00000000 	nop
    7678:	00000021 	move	zero,zero
    767c:	00000021 	move	zero,zero
    7680:	00000021 	move	zero,zero
    7684:	00000021 	move	zero,zero
    7688:	00000021 	move	zero,zero
    768c:	00000021 	move	zero,zero
    7690:	00000021 	move	zero,zero
    7694:	00000021 	move	zero,zero
    7698:	00000021 	move	zero,zero
    769c:	00000021 	move	zero,zero
    76a0:	00000021 	move	zero,zero
    76a4:	00000021 	move	zero,zero
    76a8:	00000021 	move	zero,zero
    76ac:	00000021 	move	zero,zero
    76b0:	00000021 	move	zero,zero
    76b4:	3c12fc9d 	lui	s2,0xfc9d
    76b8:	36528e9c 	ori	s2,s2,0x8e9c
    76bc:	001fa021 	addu	s4,zero,ra
    76c0:	0015f821 	addu	ra,zero,s5
    76c4:	3c150000 	lui	s5,0x0
    76c8:	26b5761c 	addiu	s5,s5,30236
    76cc:	3c160000 	lui	s6,0x0
    76d0:	26d67664 	addiu	s6,s6,30308
    76d4:	24180000 	li	t8,0
    76d8:	16182b47 	bne	s0,t8,123f8 <inst_error>
    76dc:	00000000 	nop
    76e0:	00000000 	nop
    76e4:	24180000 	li	t8,0
    76e8:	16582b43 	bne	s2,t8,123f8 <inst_error>
    76ec:	00000000 	nop
    76f0:	00000000 	nop
    76f4:	3c19bfc0 	lui	t9,0xbfc0
    76f8:	3739486c 	ori	t9,t9,0x486c
    76fc:	3c18bfc0 	lui	t8,0xbfc0
    7700:	37184834 	ori	t8,t8,0x4834
    7704:	27180008 	addiu	t8,t8,8
    7708:	1319000a 	beq	t8,t9,7734 <n35_bltzal_test+0x7734>
    770c:	00000000 	nop
    7710:	00000000 	nop
    7714:	3c18bfc0 	lui	t8,0xbfc0
    7718:	37184864 	ori	t8,t8,0x4864
    771c:	27180008 	addiu	t8,t8,8
    7720:	1319000a 	beq	t8,t9,774c <n35_bltzal_test+0x774c>
    7724:	00000000 	nop
    7728:	10002b33 	b	123f8 <inst_error>
    772c:	00000000 	nop
    7730:	00000000 	nop
    7734:	26b50008 	addiu	s5,s5,8
    7738:	16952b2f 	bne	s4,s5,123f8 <inst_error>
    773c:	00000000 	nop
    7740:	10000006 	b	775c <n35_bltzal_test+0x775c>
    7744:	00000000 	nop
    7748:	00000000 	nop
    774c:	26d60008 	addiu	s6,s6,8
    7750:	16962b29 	bne	s4,s6,123f8 <inst_error>
    7754:	00000000 	nop
	...
    7760:	001fa821 	addu	s5,zero,ra
    7764:	3c0cc31e 	lui	t4,0xc31e
    7768:	358cb966 	ori	t4,t4,0xb966
    776c:	3c0d2990 	lui	t5,0x2990
    7770:	35ad605c 	ori	t5,t5,0x605c
    7774:	24100000 	li	s0,0
    7778:	10000014 	b	77cc <n35_bltzal_test+0x77cc>
    777c:	24120000 	li	s2,0
    7780:	00000000 	nop
    7784:	3c10c31e 	lui	s0,0xc31e
    7788:	3610b966 	ori	s0,s0,0xb966
    778c:	05100025 	bltzal	t0,7824 <n35_bltzal_test+0x7824>
    7790:	00000000 	nop
    7794:	10000025 	b	782c <n35_bltzal_test+0x782c>
    7798:	00000000 	nop
    779c:	00000000 	nop
    77a0:	00000021 	move	zero,zero
    77a4:	00000021 	move	zero,zero
    77a8:	00000021 	move	zero,zero
    77ac:	00000021 	move	zero,zero
    77b0:	00000021 	move	zero,zero
    77b4:	00000021 	move	zero,zero
    77b8:	00000021 	move	zero,zero
    77bc:	00000021 	move	zero,zero
    77c0:	00000021 	move	zero,zero
    77c4:	00000021 	move	zero,zero
    77c8:	00000021 	move	zero,zero
    77cc:	3c08b2e7 	lui	t0,0xb2e7
    77d0:	3508acf8 	ori	t0,t0,0xacf8
    77d4:	0510ffeb 	bltzal	t0,7784 <n35_bltzal_test+0x7784>
    77d8:	00000000 	nop
    77dc:	10000013 	b	782c <n35_bltzal_test+0x782c>
    77e0:	00000000 	nop
    77e4:	00000000 	nop
    77e8:	00000021 	move	zero,zero
    77ec:	00000021 	move	zero,zero
    77f0:	00000021 	move	zero,zero
    77f4:	00000021 	move	zero,zero
    77f8:	00000021 	move	zero,zero
    77fc:	00000021 	move	zero,zero
    7800:	00000021 	move	zero,zero
    7804:	00000021 	move	zero,zero
    7808:	00000021 	move	zero,zero
    780c:	00000021 	move	zero,zero
    7810:	00000021 	move	zero,zero
    7814:	00000021 	move	zero,zero
    7818:	00000021 	move	zero,zero
    781c:	00000021 	move	zero,zero
    7820:	00000021 	move	zero,zero
    7824:	3c122990 	lui	s2,0x2990
    7828:	3652605c 	ori	s2,s2,0x605c
    782c:	001fa021 	addu	s4,zero,ra
    7830:	0015f821 	addu	ra,zero,s5
    7834:	3c150000 	lui	s5,0x0
    7838:	26b5778c 	addiu	s5,s5,30604
    783c:	3c160000 	lui	s6,0x0
    7840:	26d677d4 	addiu	s6,s6,30676
    7844:	3c18c31e 	lui	t8,0xc31e
    7848:	3718b966 	ori	t8,t8,0xb966
    784c:	16182aea 	bne	s0,t8,123f8 <inst_error>
    7850:	00000000 	nop
    7854:	00000000 	nop
    7858:	3c182990 	lui	t8,0x2990
    785c:	3718605c 	ori	t8,t8,0x605c
    7860:	16582ae5 	bne	s2,t8,123f8 <inst_error>
    7864:	00000000 	nop
    7868:	00000000 	nop
    786c:	3c19bfc0 	lui	t9,0xbfc0
    7870:	37394914 	ori	t9,t9,0x4914
    7874:	3c18bfc0 	lui	t8,0xbfc0
    7878:	3718490c 	ori	t8,t8,0x490c
    787c:	27180008 	addiu	t8,t8,8
    7880:	1319000a 	beq	t8,t9,78ac <n35_bltzal_test+0x78ac>
    7884:	00000000 	nop
    7888:	00000000 	nop
    788c:	3c18bfc0 	lui	t8,0xbfc0
    7890:	3718493c 	ori	t8,t8,0x493c
    7894:	27180008 	addiu	t8,t8,8
    7898:	1319000a 	beq	t8,t9,78c4 <n35_bltzal_test+0x78c4>
    789c:	00000000 	nop
    78a0:	10002ad5 	b	123f8 <inst_error>
    78a4:	00000000 	nop
    78a8:	00000000 	nop
    78ac:	26b50008 	addiu	s5,s5,8
    78b0:	16952ad1 	bne	s4,s5,123f8 <inst_error>
    78b4:	00000000 	nop
    78b8:	10000006 	b	78d4 <n35_bltzal_test+0x78d4>
    78bc:	00000000 	nop
    78c0:	00000000 	nop
    78c4:	26d60008 	addiu	s6,s6,8
    78c8:	16962acb 	bne	s4,s6,123f8 <inst_error>
    78cc:	00000000 	nop
	...
    78d8:	001fa821 	addu	s5,zero,ra
    78dc:	3c0c0c50 	lui	t4,0xc50
    78e0:	358cda00 	ori	t4,t4,0xda00
    78e4:	3c0dd235 	lui	t5,0xd235
    78e8:	35ad2291 	ori	t5,t5,0x2291
    78ec:	24100000 	li	s0,0
    78f0:	10000014 	b	7944 <n35_bltzal_test+0x7944>
    78f4:	24120000 	li	s2,0
    78f8:	00000000 	nop
    78fc:	3c100c50 	lui	s0,0xc50
    7900:	3610da00 	ori	s0,s0,0xda00
    7904:	05100025 	bltzal	t0,799c <n35_bltzal_test+0x799c>
    7908:	00000000 	nop
    790c:	10000025 	b	79a4 <n35_bltzal_test+0x79a4>
    7910:	00000000 	nop
    7914:	00000000 	nop
    7918:	00000021 	move	zero,zero
    791c:	00000021 	move	zero,zero
    7920:	00000021 	move	zero,zero
    7924:	00000021 	move	zero,zero
    7928:	00000021 	move	zero,zero
    792c:	00000021 	move	zero,zero
    7930:	00000021 	move	zero,zero
    7934:	00000021 	move	zero,zero
    7938:	00000021 	move	zero,zero
    793c:	00000021 	move	zero,zero
    7940:	00000021 	move	zero,zero
    7944:	3c084ce3 	lui	t0,0x4ce3
    7948:	3508d900 	ori	t0,t0,0xd900
    794c:	0510ffeb 	bltzal	t0,78fc <n35_bltzal_test+0x78fc>
    7950:	00000000 	nop
    7954:	10000013 	b	79a4 <n35_bltzal_test+0x79a4>
    7958:	00000000 	nop
    795c:	00000000 	nop
    7960:	00000021 	move	zero,zero
    7964:	00000021 	move	zero,zero
    7968:	00000021 	move	zero,zero
    796c:	00000021 	move	zero,zero
    7970:	00000021 	move	zero,zero
    7974:	00000021 	move	zero,zero
    7978:	00000021 	move	zero,zero
    797c:	00000021 	move	zero,zero
    7980:	00000021 	move	zero,zero
    7984:	00000021 	move	zero,zero
    7988:	00000021 	move	zero,zero
    798c:	00000021 	move	zero,zero
    7990:	00000021 	move	zero,zero
    7994:	00000021 	move	zero,zero
    7998:	00000021 	move	zero,zero
    799c:	3c12d235 	lui	s2,0xd235
    79a0:	36522291 	ori	s2,s2,0x2291
    79a4:	001fa021 	addu	s4,zero,ra
    79a8:	0015f821 	addu	ra,zero,s5
    79ac:	3c150000 	lui	s5,0x0
    79b0:	26b57904 	addiu	s5,s5,30980
    79b4:	3c160000 	lui	s6,0x0
    79b8:	26d6794c 	addiu	s6,s6,31052
    79bc:	24180000 	li	t8,0
    79c0:	16182a8d 	bne	s0,t8,123f8 <inst_error>
    79c4:	00000000 	nop
    79c8:	00000000 	nop
    79cc:	24180000 	li	t8,0
    79d0:	16582a89 	bne	s2,t8,123f8 <inst_error>
    79d4:	00000000 	nop
    79d8:	00000000 	nop
    79dc:	3c19bfc0 	lui	t9,0xbfc0
    79e0:	37394a1c 	ori	t9,t9,0x4a1c
    79e4:	3c18bfc0 	lui	t8,0xbfc0
    79e8:	371849e4 	ori	t8,t8,0x49e4
    79ec:	27180008 	addiu	t8,t8,8
    79f0:	1319000a 	beq	t8,t9,7a1c <n35_bltzal_test+0x7a1c>
    79f4:	00000000 	nop
    79f8:	00000000 	nop
    79fc:	3c18bfc0 	lui	t8,0xbfc0
    7a00:	37184a14 	ori	t8,t8,0x4a14
    7a04:	27180008 	addiu	t8,t8,8
    7a08:	1319000a 	beq	t8,t9,7a34 <n35_bltzal_test+0x7a34>
    7a0c:	00000000 	nop
    7a10:	10002a79 	b	123f8 <inst_error>
    7a14:	00000000 	nop
    7a18:	00000000 	nop
    7a1c:	26b50008 	addiu	s5,s5,8
    7a20:	16952a75 	bne	s4,s5,123f8 <inst_error>
    7a24:	00000000 	nop
    7a28:	10000006 	b	7a44 <n35_bltzal_test+0x7a44>
    7a2c:	00000000 	nop
    7a30:	00000000 	nop
    7a34:	26d60008 	addiu	s6,s6,8
    7a38:	16962a6f 	bne	s4,s6,123f8 <inst_error>
    7a3c:	00000000 	nop
	...
    7a48:	001fa821 	addu	s5,zero,ra
    7a4c:	3c0cc11a 	lui	t4,0xc11a
    7a50:	358c1dd4 	ori	t4,t4,0x1dd4
    7a54:	3c0de80a 	lui	t5,0xe80a
    7a58:	35ad7020 	ori	t5,t5,0x7020
    7a5c:	24100000 	li	s0,0
    7a60:	10000014 	b	7ab4 <n35_bltzal_test+0x7ab4>
    7a64:	24120000 	li	s2,0
    7a68:	00000000 	nop
    7a6c:	3c10c11a 	lui	s0,0xc11a
    7a70:	36101dd4 	ori	s0,s0,0x1dd4
    7a74:	05100025 	bltzal	t0,7b0c <n35_bltzal_test+0x7b0c>
    7a78:	00000000 	nop
    7a7c:	10000025 	b	7b14 <n35_bltzal_test+0x7b14>
    7a80:	00000000 	nop
    7a84:	00000000 	nop
    7a88:	00000021 	move	zero,zero
    7a8c:	00000021 	move	zero,zero
    7a90:	00000021 	move	zero,zero
    7a94:	00000021 	move	zero,zero
    7a98:	00000021 	move	zero,zero
    7a9c:	00000021 	move	zero,zero
    7aa0:	00000021 	move	zero,zero
    7aa4:	00000021 	move	zero,zero
    7aa8:	00000021 	move	zero,zero
    7aac:	00000021 	move	zero,zero
    7ab0:	00000021 	move	zero,zero
    7ab4:	3c081b42 	lui	t0,0x1b42
    7ab8:	3508e17a 	ori	t0,t0,0xe17a
    7abc:	0510ffeb 	bltzal	t0,7a6c <n35_bltzal_test+0x7a6c>
    7ac0:	00000000 	nop
    7ac4:	10000013 	b	7b14 <n35_bltzal_test+0x7b14>
    7ac8:	00000000 	nop
    7acc:	00000000 	nop
    7ad0:	00000021 	move	zero,zero
    7ad4:	00000021 	move	zero,zero
    7ad8:	00000021 	move	zero,zero
    7adc:	00000021 	move	zero,zero
    7ae0:	00000021 	move	zero,zero
    7ae4:	00000021 	move	zero,zero
    7ae8:	00000021 	move	zero,zero
    7aec:	00000021 	move	zero,zero
    7af0:	00000021 	move	zero,zero
    7af4:	00000021 	move	zero,zero
    7af8:	00000021 	move	zero,zero
    7afc:	00000021 	move	zero,zero
    7b00:	00000021 	move	zero,zero
    7b04:	00000021 	move	zero,zero
    7b08:	00000021 	move	zero,zero
    7b0c:	3c12e80a 	lui	s2,0xe80a
    7b10:	36527020 	ori	s2,s2,0x7020
    7b14:	001fa021 	addu	s4,zero,ra
    7b18:	0015f821 	addu	ra,zero,s5
    7b1c:	3c150000 	lui	s5,0x0
    7b20:	26b57a74 	addiu	s5,s5,31348
    7b24:	3c160000 	lui	s6,0x0
    7b28:	26d67abc 	addiu	s6,s6,31420
    7b2c:	24180000 	li	t8,0
    7b30:	16182a31 	bne	s0,t8,123f8 <inst_error>
    7b34:	00000000 	nop
    7b38:	00000000 	nop
    7b3c:	24180000 	li	t8,0
    7b40:	16582a2d 	bne	s2,t8,123f8 <inst_error>
    7b44:	00000000 	nop
    7b48:	00000000 	nop
    7b4c:	3c19bfc0 	lui	t9,0xbfc0
    7b50:	37394af4 	ori	t9,t9,0x4af4
    7b54:	3c18bfc0 	lui	t8,0xbfc0
    7b58:	37184abc 	ori	t8,t8,0x4abc
    7b5c:	27180008 	addiu	t8,t8,8
    7b60:	1319000a 	beq	t8,t9,7b8c <n35_bltzal_test+0x7b8c>
    7b64:	00000000 	nop
    7b68:	00000000 	nop
    7b6c:	3c18bfc0 	lui	t8,0xbfc0
    7b70:	37184aec 	ori	t8,t8,0x4aec
    7b74:	27180008 	addiu	t8,t8,8
    7b78:	1319000a 	beq	t8,t9,7ba4 <n35_bltzal_test+0x7ba4>
    7b7c:	00000000 	nop
    7b80:	10002a1d 	b	123f8 <inst_error>
    7b84:	00000000 	nop
    7b88:	00000000 	nop
    7b8c:	26b50008 	addiu	s5,s5,8
    7b90:	16952a19 	bne	s4,s5,123f8 <inst_error>
    7b94:	00000000 	nop
    7b98:	10000006 	b	7bb4 <n35_bltzal_test+0x7bb4>
    7b9c:	00000000 	nop
    7ba0:	00000000 	nop
    7ba4:	26d60008 	addiu	s6,s6,8
    7ba8:	16962a13 	bne	s4,s6,123f8 <inst_error>
    7bac:	00000000 	nop
	...
    7bb8:	001fa821 	addu	s5,zero,ra
    7bbc:	3c0c5101 	lui	t4,0x5101
    7bc0:	358caab0 	ori	t4,t4,0xaab0
    7bc4:	3c0d9d6d 	lui	t5,0x9d6d
    7bc8:	35adeeae 	ori	t5,t5,0xeeae
    7bcc:	24100000 	li	s0,0
    7bd0:	10000014 	b	7c24 <n35_bltzal_test+0x7c24>
    7bd4:	24120000 	li	s2,0
    7bd8:	00000000 	nop
    7bdc:	3c105101 	lui	s0,0x5101
    7be0:	3610aab0 	ori	s0,s0,0xaab0
    7be4:	05100025 	bltzal	t0,7c7c <n35_bltzal_test+0x7c7c>
    7be8:	00000000 	nop
    7bec:	10000025 	b	7c84 <n35_bltzal_test+0x7c84>
    7bf0:	00000000 	nop
    7bf4:	00000000 	nop
    7bf8:	00000021 	move	zero,zero
    7bfc:	00000021 	move	zero,zero
    7c00:	00000021 	move	zero,zero
    7c04:	00000021 	move	zero,zero
    7c08:	00000021 	move	zero,zero
    7c0c:	00000021 	move	zero,zero
    7c10:	00000021 	move	zero,zero
    7c14:	00000021 	move	zero,zero
    7c18:	00000021 	move	zero,zero
    7c1c:	00000021 	move	zero,zero
    7c20:	00000021 	move	zero,zero
    7c24:	3c08a8ea 	lui	t0,0xa8ea
    7c28:	35085e19 	ori	t0,t0,0x5e19
    7c2c:	0510ffeb 	bltzal	t0,7bdc <n35_bltzal_test+0x7bdc>
    7c30:	00000000 	nop
    7c34:	10000013 	b	7c84 <n35_bltzal_test+0x7c84>
    7c38:	00000000 	nop
    7c3c:	00000000 	nop
    7c40:	00000021 	move	zero,zero
    7c44:	00000021 	move	zero,zero
    7c48:	00000021 	move	zero,zero
    7c4c:	00000021 	move	zero,zero
    7c50:	00000021 	move	zero,zero
    7c54:	00000021 	move	zero,zero
    7c58:	00000021 	move	zero,zero
    7c5c:	00000021 	move	zero,zero
    7c60:	00000021 	move	zero,zero
    7c64:	00000021 	move	zero,zero
    7c68:	00000021 	move	zero,zero
    7c6c:	00000021 	move	zero,zero
    7c70:	00000021 	move	zero,zero
    7c74:	00000021 	move	zero,zero
    7c78:	00000021 	move	zero,zero
    7c7c:	3c129d6d 	lui	s2,0x9d6d
    7c80:	3652eeae 	ori	s2,s2,0xeeae
    7c84:	001fa021 	addu	s4,zero,ra
    7c88:	0015f821 	addu	ra,zero,s5
    7c8c:	3c150000 	lui	s5,0x0
    7c90:	26b57be4 	addiu	s5,s5,31716
    7c94:	3c160000 	lui	s6,0x0
    7c98:	26d67c2c 	addiu	s6,s6,31788
    7c9c:	3c185101 	lui	t8,0x5101
    7ca0:	3718aab0 	ori	t8,t8,0xaab0
    7ca4:	161829d4 	bne	s0,t8,123f8 <inst_error>
    7ca8:	00000000 	nop
    7cac:	00000000 	nop
    7cb0:	3c189d6d 	lui	t8,0x9d6d
    7cb4:	3718eeae 	ori	t8,t8,0xeeae
    7cb8:	165829cf 	bne	s2,t8,123f8 <inst_error>
    7cbc:	00000000 	nop
    7cc0:	00000000 	nop
    7cc4:	3c19bfc0 	lui	t9,0xbfc0
    7cc8:	37394b9c 	ori	t9,t9,0x4b9c
    7ccc:	3c18bfc0 	lui	t8,0xbfc0
    7cd0:	37184b94 	ori	t8,t8,0x4b94
    7cd4:	27180008 	addiu	t8,t8,8
    7cd8:	1319000a 	beq	t8,t9,7d04 <n35_bltzal_test+0x7d04>
    7cdc:	00000000 	nop
    7ce0:	00000000 	nop
    7ce4:	3c18bfc0 	lui	t8,0xbfc0
    7ce8:	37184bc4 	ori	t8,t8,0x4bc4
    7cec:	27180008 	addiu	t8,t8,8
    7cf0:	1319000a 	beq	t8,t9,7d1c <n35_bltzal_test+0x7d1c>
    7cf4:	00000000 	nop
    7cf8:	100029bf 	b	123f8 <inst_error>
    7cfc:	00000000 	nop
    7d00:	00000000 	nop
    7d04:	26b50008 	addiu	s5,s5,8
    7d08:	169529bb 	bne	s4,s5,123f8 <inst_error>
    7d0c:	00000000 	nop
    7d10:	10000006 	b	7d2c <n35_bltzal_test+0x7d2c>
    7d14:	00000000 	nop
    7d18:	00000000 	nop
    7d1c:	26d60008 	addiu	s6,s6,8
    7d20:	169629b5 	bne	s4,s6,123f8 <inst_error>
    7d24:	00000000 	nop
	...
    7d30:	001fa821 	addu	s5,zero,ra
    7d34:	3c0cf99a 	lui	t4,0xf99a
    7d38:	358ca7f0 	ori	t4,t4,0xa7f0
    7d3c:	3c0dc18a 	lui	t5,0xc18a
    7d40:	35adf5b2 	ori	t5,t5,0xf5b2
    7d44:	24100000 	li	s0,0
    7d48:	10000014 	b	7d9c <n35_bltzal_test+0x7d9c>
    7d4c:	24120000 	li	s2,0
    7d50:	00000000 	nop
    7d54:	3c10f99a 	lui	s0,0xf99a
    7d58:	3610a7f0 	ori	s0,s0,0xa7f0
    7d5c:	05100025 	bltzal	t0,7df4 <n35_bltzal_test+0x7df4>
    7d60:	00000000 	nop
    7d64:	10000025 	b	7dfc <n35_bltzal_test+0x7dfc>
    7d68:	00000000 	nop
    7d6c:	00000000 	nop
    7d70:	00000021 	move	zero,zero
    7d74:	00000021 	move	zero,zero
    7d78:	00000021 	move	zero,zero
    7d7c:	00000021 	move	zero,zero
    7d80:	00000021 	move	zero,zero
    7d84:	00000021 	move	zero,zero
    7d88:	00000021 	move	zero,zero
    7d8c:	00000021 	move	zero,zero
    7d90:	00000021 	move	zero,zero
    7d94:	00000021 	move	zero,zero
    7d98:	00000021 	move	zero,zero
    7d9c:	3c08d7b3 	lui	t0,0xd7b3
    7da0:	3508d020 	ori	t0,t0,0xd020
    7da4:	0510ffeb 	bltzal	t0,7d54 <n35_bltzal_test+0x7d54>
    7da8:	00000000 	nop
    7dac:	10000013 	b	7dfc <n35_bltzal_test+0x7dfc>
    7db0:	00000000 	nop
    7db4:	00000000 	nop
    7db8:	00000021 	move	zero,zero
    7dbc:	00000021 	move	zero,zero
    7dc0:	00000021 	move	zero,zero
    7dc4:	00000021 	move	zero,zero
    7dc8:	00000021 	move	zero,zero
    7dcc:	00000021 	move	zero,zero
    7dd0:	00000021 	move	zero,zero
    7dd4:	00000021 	move	zero,zero
    7dd8:	00000021 	move	zero,zero
    7ddc:	00000021 	move	zero,zero
    7de0:	00000021 	move	zero,zero
    7de4:	00000021 	move	zero,zero
    7de8:	00000021 	move	zero,zero
    7dec:	00000021 	move	zero,zero
    7df0:	00000021 	move	zero,zero
    7df4:	3c12c18a 	lui	s2,0xc18a
    7df8:	3652f5b2 	ori	s2,s2,0xf5b2
    7dfc:	001fa021 	addu	s4,zero,ra
    7e00:	0015f821 	addu	ra,zero,s5
    7e04:	3c150000 	lui	s5,0x0
    7e08:	26b57d5c 	addiu	s5,s5,32092
    7e0c:	3c160000 	lui	s6,0x0
    7e10:	26d67da4 	addiu	s6,s6,32164
    7e14:	3c18f99a 	lui	t8,0xf99a
    7e18:	3718a7f0 	ori	t8,t8,0xa7f0
    7e1c:	16182976 	bne	s0,t8,123f8 <inst_error>
    7e20:	00000000 	nop
    7e24:	00000000 	nop
    7e28:	3c18c18a 	lui	t8,0xc18a
    7e2c:	3718f5b2 	ori	t8,t8,0xf5b2
    7e30:	16582971 	bne	s2,t8,123f8 <inst_error>
    7e34:	00000000 	nop
    7e38:	00000000 	nop
    7e3c:	3c19bfc0 	lui	t9,0xbfc0
    7e40:	37394c74 	ori	t9,t9,0x4c74
    7e44:	3c18bfc0 	lui	t8,0xbfc0
    7e48:	37184c6c 	ori	t8,t8,0x4c6c
    7e4c:	27180008 	addiu	t8,t8,8
    7e50:	1319000a 	beq	t8,t9,7e7c <n35_bltzal_test+0x7e7c>
    7e54:	00000000 	nop
    7e58:	00000000 	nop
    7e5c:	3c18bfc0 	lui	t8,0xbfc0
    7e60:	37184c9c 	ori	t8,t8,0x4c9c
    7e64:	27180008 	addiu	t8,t8,8
    7e68:	1319000a 	beq	t8,t9,7e94 <n35_bltzal_test+0x7e94>
    7e6c:	00000000 	nop
    7e70:	10002961 	b	123f8 <inst_error>
    7e74:	00000000 	nop
    7e78:	00000000 	nop
    7e7c:	26b50008 	addiu	s5,s5,8
    7e80:	1695295d 	bne	s4,s5,123f8 <inst_error>
    7e84:	00000000 	nop
    7e88:	10000006 	b	7ea4 <n35_bltzal_test+0x7ea4>
    7e8c:	00000000 	nop
    7e90:	00000000 	nop
    7e94:	26d60008 	addiu	s6,s6,8
    7e98:	16962957 	bne	s4,s6,123f8 <inst_error>
    7e9c:	00000000 	nop
	...
    7ea8:	001fa821 	addu	s5,zero,ra
    7eac:	3c0c6068 	lui	t4,0x6068
    7eb0:	358c878c 	ori	t4,t4,0x878c
    7eb4:	3c0d09fe 	lui	t5,0x9fe
    7eb8:	35ad7964 	ori	t5,t5,0x7964
    7ebc:	24100000 	li	s0,0
    7ec0:	10000014 	b	7f14 <n35_bltzal_test+0x7f14>
    7ec4:	24120000 	li	s2,0
    7ec8:	00000000 	nop
    7ecc:	3c106068 	lui	s0,0x6068
    7ed0:	3610878c 	ori	s0,s0,0x878c
    7ed4:	05100025 	bltzal	t0,7f6c <n35_bltzal_test+0x7f6c>
    7ed8:	00000000 	nop
    7edc:	10000025 	b	7f74 <n35_bltzal_test+0x7f74>
    7ee0:	00000000 	nop
    7ee4:	00000000 	nop
    7ee8:	00000021 	move	zero,zero
    7eec:	00000021 	move	zero,zero
    7ef0:	00000021 	move	zero,zero
    7ef4:	00000021 	move	zero,zero
    7ef8:	00000021 	move	zero,zero
    7efc:	00000021 	move	zero,zero
    7f00:	00000021 	move	zero,zero
    7f04:	00000021 	move	zero,zero
    7f08:	00000021 	move	zero,zero
    7f0c:	00000021 	move	zero,zero
    7f10:	00000021 	move	zero,zero
    7f14:	3c08734b 	lui	t0,0x734b
    7f18:	35086230 	ori	t0,t0,0x6230
    7f1c:	0510ffeb 	bltzal	t0,7ecc <n35_bltzal_test+0x7ecc>
    7f20:	00000000 	nop
    7f24:	10000013 	b	7f74 <n35_bltzal_test+0x7f74>
    7f28:	00000000 	nop
    7f2c:	00000000 	nop
    7f30:	00000021 	move	zero,zero
    7f34:	00000021 	move	zero,zero
    7f38:	00000021 	move	zero,zero
    7f3c:	00000021 	move	zero,zero
    7f40:	00000021 	move	zero,zero
    7f44:	00000021 	move	zero,zero
    7f48:	00000021 	move	zero,zero
    7f4c:	00000021 	move	zero,zero
    7f50:	00000021 	move	zero,zero
    7f54:	00000021 	move	zero,zero
    7f58:	00000021 	move	zero,zero
    7f5c:	00000021 	move	zero,zero
    7f60:	00000021 	move	zero,zero
    7f64:	00000021 	move	zero,zero
    7f68:	00000021 	move	zero,zero
    7f6c:	3c1209fe 	lui	s2,0x9fe
    7f70:	36527964 	ori	s2,s2,0x7964
    7f74:	001fa021 	addu	s4,zero,ra
    7f78:	0015f821 	addu	ra,zero,s5
    7f7c:	3c150000 	lui	s5,0x0
    7f80:	26b57ed4 	addiu	s5,s5,32468
    7f84:	3c160000 	lui	s6,0x0
    7f88:	26d67f1c 	addiu	s6,s6,32540
    7f8c:	24180000 	li	t8,0
    7f90:	16182919 	bne	s0,t8,123f8 <inst_error>
    7f94:	00000000 	nop
    7f98:	00000000 	nop
    7f9c:	24180000 	li	t8,0
    7fa0:	16582915 	bne	s2,t8,123f8 <inst_error>
    7fa4:	00000000 	nop
    7fa8:	00000000 	nop
    7fac:	3c19bfc0 	lui	t9,0xbfc0
    7fb0:	37394d7c 	ori	t9,t9,0x4d7c
    7fb4:	3c18bfc0 	lui	t8,0xbfc0
    7fb8:	37184d44 	ori	t8,t8,0x4d44
    7fbc:	27180008 	addiu	t8,t8,8
    7fc0:	1319000a 	beq	t8,t9,7fec <n35_bltzal_test+0x7fec>
    7fc4:	00000000 	nop
    7fc8:	00000000 	nop
    7fcc:	3c18bfc0 	lui	t8,0xbfc0
    7fd0:	37184d74 	ori	t8,t8,0x4d74
    7fd4:	27180008 	addiu	t8,t8,8
    7fd8:	1319000a 	beq	t8,t9,8004 <n35_bltzal_test+0x8004>
    7fdc:	00000000 	nop
    7fe0:	10002905 	b	123f8 <inst_error>
    7fe4:	00000000 	nop
    7fe8:	00000000 	nop
    7fec:	26b50008 	addiu	s5,s5,8
    7ff0:	16952901 	bne	s4,s5,123f8 <inst_error>
    7ff4:	00000000 	nop
    7ff8:	10000006 	b	8014 <n35_bltzal_test+0x8014>
    7ffc:	00000000 	nop
    8000:	00000000 	nop
    8004:	26d60008 	addiu	s6,s6,8
    8008:	169628fb 	bne	s4,s6,123f8 <inst_error>
    800c:	00000000 	nop
	...
    8018:	001fa821 	addu	s5,zero,ra
    801c:	3c0c90d7 	lui	t4,0x90d7
    8020:	358cd0ce 	ori	t4,t4,0xd0ce
    8024:	3c0dda41 	lui	t5,0xda41
    8028:	35add700 	ori	t5,t5,0xd700
    802c:	24100000 	li	s0,0
    8030:	10000014 	b	8084 <n35_bltzal_test+0x8084>
    8034:	24120000 	li	s2,0
    8038:	00000000 	nop
    803c:	3c1090d7 	lui	s0,0x90d7
    8040:	3610d0ce 	ori	s0,s0,0xd0ce
    8044:	05100025 	bltzal	t0,80dc <n35_bltzal_test+0x80dc>
    8048:	00000000 	nop
    804c:	10000025 	b	80e4 <n35_bltzal_test+0x80e4>
    8050:	00000000 	nop
    8054:	00000000 	nop
    8058:	00000021 	move	zero,zero
    805c:	00000021 	move	zero,zero
    8060:	00000021 	move	zero,zero
    8064:	00000021 	move	zero,zero
    8068:	00000021 	move	zero,zero
    806c:	00000021 	move	zero,zero
    8070:	00000021 	move	zero,zero
    8074:	00000021 	move	zero,zero
    8078:	00000021 	move	zero,zero
    807c:	00000021 	move	zero,zero
    8080:	00000021 	move	zero,zero
    8084:	3c086cd7 	lui	t0,0x6cd7
    8088:	35086d80 	ori	t0,t0,0x6d80
    808c:	0510ffeb 	bltzal	t0,803c <n35_bltzal_test+0x803c>
    8090:	00000000 	nop
    8094:	10000013 	b	80e4 <n35_bltzal_test+0x80e4>
    8098:	00000000 	nop
    809c:	00000000 	nop
    80a0:	00000021 	move	zero,zero
    80a4:	00000021 	move	zero,zero
    80a8:	00000021 	move	zero,zero
    80ac:	00000021 	move	zero,zero
    80b0:	00000021 	move	zero,zero
    80b4:	00000021 	move	zero,zero
    80b8:	00000021 	move	zero,zero
    80bc:	00000021 	move	zero,zero
    80c0:	00000021 	move	zero,zero
    80c4:	00000021 	move	zero,zero
    80c8:	00000021 	move	zero,zero
    80cc:	00000021 	move	zero,zero
    80d0:	00000021 	move	zero,zero
    80d4:	00000021 	move	zero,zero
    80d8:	00000021 	move	zero,zero
    80dc:	3c12da41 	lui	s2,0xda41
    80e0:	3652d700 	ori	s2,s2,0xd700
    80e4:	001fa021 	addu	s4,zero,ra
    80e8:	0015f821 	addu	ra,zero,s5
    80ec:	3c150001 	lui	s5,0x1
    80f0:	26b58044 	addiu	s5,s5,-32700
    80f4:	3c160001 	lui	s6,0x1
    80f8:	26d6808c 	addiu	s6,s6,-32628
    80fc:	24180000 	li	t8,0
    8100:	161828bd 	bne	s0,t8,123f8 <inst_error>
    8104:	00000000 	nop
    8108:	00000000 	nop
    810c:	24180000 	li	t8,0
    8110:	165828b9 	bne	s2,t8,123f8 <inst_error>
    8114:	00000000 	nop
    8118:	00000000 	nop
    811c:	3c19bfc0 	lui	t9,0xbfc0
    8120:	37394e54 	ori	t9,t9,0x4e54
    8124:	3c18bfc0 	lui	t8,0xbfc0
    8128:	37184e1c 	ori	t8,t8,0x4e1c
    812c:	27180008 	addiu	t8,t8,8
    8130:	1319000a 	beq	t8,t9,815c <n35_bltzal_test+0x815c>
    8134:	00000000 	nop
    8138:	00000000 	nop
    813c:	3c18bfc0 	lui	t8,0xbfc0
    8140:	37184e4c 	ori	t8,t8,0x4e4c
    8144:	27180008 	addiu	t8,t8,8
    8148:	1319000a 	beq	t8,t9,8174 <n35_bltzal_test+0x8174>
    814c:	00000000 	nop
    8150:	100028a9 	b	123f8 <inst_error>
    8154:	00000000 	nop
    8158:	00000000 	nop
    815c:	26b50008 	addiu	s5,s5,8
    8160:	169528a5 	bne	s4,s5,123f8 <inst_error>
    8164:	00000000 	nop
    8168:	10000006 	b	8184 <n35_bltzal_test+0x8184>
    816c:	00000000 	nop
    8170:	00000000 	nop
    8174:	26d60008 	addiu	s6,s6,8
    8178:	1696289f 	bne	s4,s6,123f8 <inst_error>
    817c:	00000000 	nop
	...
    8188:	001fa821 	addu	s5,zero,ra
    818c:	3c0c6221 	lui	t4,0x6221
    8190:	358c0357 	ori	t4,t4,0x357
    8194:	3c0dc83f 	lui	t5,0xc83f
    8198:	35ad4770 	ori	t5,t5,0x4770
    819c:	24100000 	li	s0,0
    81a0:	10000014 	b	81f4 <n35_bltzal_test+0x81f4>
    81a4:	24120000 	li	s2,0
    81a8:	00000000 	nop
    81ac:	3c106221 	lui	s0,0x6221
    81b0:	36100357 	ori	s0,s0,0x357
    81b4:	05100025 	bltzal	t0,824c <n35_bltzal_test+0x824c>
    81b8:	00000000 	nop
    81bc:	10000025 	b	8254 <n35_bltzal_test+0x8254>
    81c0:	00000000 	nop
    81c4:	00000000 	nop
    81c8:	00000021 	move	zero,zero
    81cc:	00000021 	move	zero,zero
    81d0:	00000021 	move	zero,zero
    81d4:	00000021 	move	zero,zero
    81d8:	00000021 	move	zero,zero
    81dc:	00000021 	move	zero,zero
    81e0:	00000021 	move	zero,zero
    81e4:	00000021 	move	zero,zero
    81e8:	00000021 	move	zero,zero
    81ec:	00000021 	move	zero,zero
    81f0:	00000021 	move	zero,zero
    81f4:	3c0868a7 	lui	t0,0x68a7
    81f8:	35081f22 	ori	t0,t0,0x1f22
    81fc:	0510ffeb 	bltzal	t0,81ac <n35_bltzal_test+0x81ac>
    8200:	00000000 	nop
    8204:	10000013 	b	8254 <n35_bltzal_test+0x8254>
    8208:	00000000 	nop
    820c:	00000000 	nop
    8210:	00000021 	move	zero,zero
    8214:	00000021 	move	zero,zero
    8218:	00000021 	move	zero,zero
    821c:	00000021 	move	zero,zero
    8220:	00000021 	move	zero,zero
    8224:	00000021 	move	zero,zero
    8228:	00000021 	move	zero,zero
    822c:	00000021 	move	zero,zero
    8230:	00000021 	move	zero,zero
    8234:	00000021 	move	zero,zero
    8238:	00000021 	move	zero,zero
    823c:	00000021 	move	zero,zero
    8240:	00000021 	move	zero,zero
    8244:	00000021 	move	zero,zero
    8248:	00000021 	move	zero,zero
    824c:	3c12c83f 	lui	s2,0xc83f
    8250:	36524770 	ori	s2,s2,0x4770
    8254:	001fa021 	addu	s4,zero,ra
    8258:	0015f821 	addu	ra,zero,s5
    825c:	3c150001 	lui	s5,0x1
    8260:	26b581b4 	addiu	s5,s5,-32332
    8264:	3c160001 	lui	s6,0x1
    8268:	26d681fc 	addiu	s6,s6,-32260
    826c:	24180000 	li	t8,0
    8270:	16182861 	bne	s0,t8,123f8 <inst_error>
    8274:	00000000 	nop
    8278:	00000000 	nop
    827c:	24180000 	li	t8,0
    8280:	1658285d 	bne	s2,t8,123f8 <inst_error>
    8284:	00000000 	nop
    8288:	00000000 	nop
    828c:	3c19bfc0 	lui	t9,0xbfc0
    8290:	37394f2c 	ori	t9,t9,0x4f2c
    8294:	3c18bfc0 	lui	t8,0xbfc0
    8298:	37184ef4 	ori	t8,t8,0x4ef4
    829c:	27180008 	addiu	t8,t8,8
    82a0:	1319000a 	beq	t8,t9,82cc <n35_bltzal_test+0x82cc>
    82a4:	00000000 	nop
    82a8:	00000000 	nop
    82ac:	3c18bfc0 	lui	t8,0xbfc0
    82b0:	37184f24 	ori	t8,t8,0x4f24
    82b4:	27180008 	addiu	t8,t8,8
    82b8:	1319000a 	beq	t8,t9,82e4 <n35_bltzal_test+0x82e4>
    82bc:	00000000 	nop
    82c0:	1000284d 	b	123f8 <inst_error>
    82c4:	00000000 	nop
    82c8:	00000000 	nop
    82cc:	26b50008 	addiu	s5,s5,8
    82d0:	16952849 	bne	s4,s5,123f8 <inst_error>
    82d4:	00000000 	nop
    82d8:	10000006 	b	82f4 <n35_bltzal_test+0x82f4>
    82dc:	00000000 	nop
    82e0:	00000000 	nop
    82e4:	26d60008 	addiu	s6,s6,8
    82e8:	16962843 	bne	s4,s6,123f8 <inst_error>
    82ec:	00000000 	nop
	...
    82f8:	001fa821 	addu	s5,zero,ra
    82fc:	3c0cefc1 	lui	t4,0xefc1
    8300:	358cc3f4 	ori	t4,t4,0xc3f4
    8304:	3c0dce23 	lui	t5,0xce23
    8308:	35ad4d00 	ori	t5,t5,0x4d00
    830c:	24100000 	li	s0,0
    8310:	10000014 	b	8364 <n35_bltzal_test+0x8364>
    8314:	24120000 	li	s2,0
    8318:	00000000 	nop
    831c:	3c10efc1 	lui	s0,0xefc1
    8320:	3610c3f4 	ori	s0,s0,0xc3f4
    8324:	05100025 	bltzal	t0,83bc <n35_bltzal_test+0x83bc>
    8328:	00000000 	nop
    832c:	10000025 	b	83c4 <n35_bltzal_test+0x83c4>
    8330:	00000000 	nop
    8334:	00000000 	nop
    8338:	00000021 	move	zero,zero
    833c:	00000021 	move	zero,zero
    8340:	00000021 	move	zero,zero
    8344:	00000021 	move	zero,zero
    8348:	00000021 	move	zero,zero
    834c:	00000021 	move	zero,zero
    8350:	00000021 	move	zero,zero
    8354:	00000021 	move	zero,zero
    8358:	00000021 	move	zero,zero
    835c:	00000021 	move	zero,zero
    8360:	00000021 	move	zero,zero
    8364:	3c08c558 	lui	t0,0xc558
    8368:	35086160 	ori	t0,t0,0x6160
    836c:	0510ffeb 	bltzal	t0,831c <n35_bltzal_test+0x831c>
    8370:	00000000 	nop
    8374:	10000013 	b	83c4 <n35_bltzal_test+0x83c4>
    8378:	00000000 	nop
    837c:	00000000 	nop
    8380:	00000021 	move	zero,zero
    8384:	00000021 	move	zero,zero
    8388:	00000021 	move	zero,zero
    838c:	00000021 	move	zero,zero
    8390:	00000021 	move	zero,zero
    8394:	00000021 	move	zero,zero
    8398:	00000021 	move	zero,zero
    839c:	00000021 	move	zero,zero
    83a0:	00000021 	move	zero,zero
    83a4:	00000021 	move	zero,zero
    83a8:	00000021 	move	zero,zero
    83ac:	00000021 	move	zero,zero
    83b0:	00000021 	move	zero,zero
    83b4:	00000021 	move	zero,zero
    83b8:	00000021 	move	zero,zero
    83bc:	3c12ce23 	lui	s2,0xce23
    83c0:	36524d00 	ori	s2,s2,0x4d00
    83c4:	001fa021 	addu	s4,zero,ra
    83c8:	0015f821 	addu	ra,zero,s5
    83cc:	3c150001 	lui	s5,0x1
    83d0:	26b58324 	addiu	s5,s5,-31964
    83d4:	3c160001 	lui	s6,0x1
    83d8:	26d6836c 	addiu	s6,s6,-31892
    83dc:	3c18efc1 	lui	t8,0xefc1
    83e0:	3718c3f4 	ori	t8,t8,0xc3f4
    83e4:	16182804 	bne	s0,t8,123f8 <inst_error>
    83e8:	00000000 	nop
    83ec:	00000000 	nop
    83f0:	3c18ce23 	lui	t8,0xce23
    83f4:	37184d00 	ori	t8,t8,0x4d00
    83f8:	165827ff 	bne	s2,t8,123f8 <inst_error>
    83fc:	00000000 	nop
    8400:	00000000 	nop
    8404:	3c19bfc0 	lui	t9,0xbfc0
    8408:	37394fd4 	ori	t9,t9,0x4fd4
    840c:	3c18bfc0 	lui	t8,0xbfc0
    8410:	37184fcc 	ori	t8,t8,0x4fcc
    8414:	27180008 	addiu	t8,t8,8
    8418:	1319000a 	beq	t8,t9,8444 <n35_bltzal_test+0x8444>
    841c:	00000000 	nop
    8420:	00000000 	nop
    8424:	3c18bfc0 	lui	t8,0xbfc0
    8428:	37184ffc 	ori	t8,t8,0x4ffc
    842c:	27180008 	addiu	t8,t8,8
    8430:	1319000a 	beq	t8,t9,845c <n35_bltzal_test+0x845c>
    8434:	00000000 	nop
    8438:	100027ef 	b	123f8 <inst_error>
    843c:	00000000 	nop
    8440:	00000000 	nop
    8444:	26b50008 	addiu	s5,s5,8
    8448:	169527eb 	bne	s4,s5,123f8 <inst_error>
    844c:	00000000 	nop
    8450:	10000006 	b	846c <n35_bltzal_test+0x846c>
    8454:	00000000 	nop
    8458:	00000000 	nop
    845c:	26d60008 	addiu	s6,s6,8
    8460:	169627e5 	bne	s4,s6,123f8 <inst_error>
    8464:	00000000 	nop
	...
    8470:	001fa821 	addu	s5,zero,ra
    8474:	3c0c27cf 	lui	t4,0x27cf
    8478:	358caf60 	ori	t4,t4,0xaf60
    847c:	3c0d584d 	lui	t5,0x584d
    8480:	35adf110 	ori	t5,t5,0xf110
    8484:	24100000 	li	s0,0
    8488:	10000014 	b	84dc <n35_bltzal_test+0x84dc>
    848c:	24120000 	li	s2,0
    8490:	00000000 	nop
    8494:	3c1027cf 	lui	s0,0x27cf
    8498:	3610af60 	ori	s0,s0,0xaf60
    849c:	05100025 	bltzal	t0,8534 <n35_bltzal_test+0x8534>
    84a0:	00000000 	nop
    84a4:	10000025 	b	853c <n35_bltzal_test+0x853c>
    84a8:	00000000 	nop
    84ac:	00000000 	nop
    84b0:	00000021 	move	zero,zero
    84b4:	00000021 	move	zero,zero
    84b8:	00000021 	move	zero,zero
    84bc:	00000021 	move	zero,zero
    84c0:	00000021 	move	zero,zero
    84c4:	00000021 	move	zero,zero
    84c8:	00000021 	move	zero,zero
    84cc:	00000021 	move	zero,zero
    84d0:	00000021 	move	zero,zero
    84d4:	00000021 	move	zero,zero
    84d8:	00000021 	move	zero,zero
    84dc:	3c086b83 	lui	t0,0x6b83
    84e0:	35081b04 	ori	t0,t0,0x1b04
    84e4:	0510ffeb 	bltzal	t0,8494 <n35_bltzal_test+0x8494>
    84e8:	00000000 	nop
    84ec:	10000013 	b	853c <n35_bltzal_test+0x853c>
    84f0:	00000000 	nop
    84f4:	00000000 	nop
    84f8:	00000021 	move	zero,zero
    84fc:	00000021 	move	zero,zero
    8500:	00000021 	move	zero,zero
    8504:	00000021 	move	zero,zero
    8508:	00000021 	move	zero,zero
    850c:	00000021 	move	zero,zero
    8510:	00000021 	move	zero,zero
    8514:	00000021 	move	zero,zero
    8518:	00000021 	move	zero,zero
    851c:	00000021 	move	zero,zero
    8520:	00000021 	move	zero,zero
    8524:	00000021 	move	zero,zero
    8528:	00000021 	move	zero,zero
    852c:	00000021 	move	zero,zero
    8530:	00000021 	move	zero,zero
    8534:	3c12584d 	lui	s2,0x584d
    8538:	3652f110 	ori	s2,s2,0xf110
    853c:	001fa021 	addu	s4,zero,ra
    8540:	0015f821 	addu	ra,zero,s5
    8544:	3c150001 	lui	s5,0x1
    8548:	26b5849c 	addiu	s5,s5,-31588
    854c:	3c160001 	lui	s6,0x1
    8550:	26d684e4 	addiu	s6,s6,-31516
    8554:	24180000 	li	t8,0
    8558:	161827a7 	bne	s0,t8,123f8 <inst_error>
    855c:	00000000 	nop
    8560:	00000000 	nop
    8564:	24180000 	li	t8,0
    8568:	165827a3 	bne	s2,t8,123f8 <inst_error>
    856c:	00000000 	nop
    8570:	00000000 	nop
    8574:	3c19bfc0 	lui	t9,0xbfc0
    8578:	373950dc 	ori	t9,t9,0x50dc
    857c:	3c18bfc0 	lui	t8,0xbfc0
    8580:	371850a4 	ori	t8,t8,0x50a4
    8584:	27180008 	addiu	t8,t8,8
    8588:	1319000a 	beq	t8,t9,85b4 <n35_bltzal_test+0x85b4>
    858c:	00000000 	nop
    8590:	00000000 	nop
    8594:	3c18bfc0 	lui	t8,0xbfc0
    8598:	371850d4 	ori	t8,t8,0x50d4
    859c:	27180008 	addiu	t8,t8,8
    85a0:	1319000a 	beq	t8,t9,85cc <n35_bltzal_test+0x85cc>
    85a4:	00000000 	nop
    85a8:	10002793 	b	123f8 <inst_error>
    85ac:	00000000 	nop
    85b0:	00000000 	nop
    85b4:	26b50008 	addiu	s5,s5,8
    85b8:	1695278f 	bne	s4,s5,123f8 <inst_error>
    85bc:	00000000 	nop
    85c0:	10000006 	b	85dc <n35_bltzal_test+0x85dc>
    85c4:	00000000 	nop
    85c8:	00000000 	nop
    85cc:	26d60008 	addiu	s6,s6,8
    85d0:	16962789 	bne	s4,s6,123f8 <inst_error>
    85d4:	00000000 	nop
	...
    85e0:	001fa821 	addu	s5,zero,ra
    85e4:	3c0c946f 	lui	t4,0x946f
    85e8:	358c9584 	ori	t4,t4,0x9584
    85ec:	3c0d192e 	lui	t5,0x192e
    85f0:	35adcb2a 	ori	t5,t5,0xcb2a
    85f4:	24100000 	li	s0,0
    85f8:	10000014 	b	864c <n35_bltzal_test+0x864c>
    85fc:	24120000 	li	s2,0
    8600:	00000000 	nop
    8604:	3c10946f 	lui	s0,0x946f
    8608:	36109584 	ori	s0,s0,0x9584
    860c:	05100025 	bltzal	t0,86a4 <n35_bltzal_test+0x86a4>
    8610:	00000000 	nop
    8614:	10000025 	b	86ac <n35_bltzal_test+0x86ac>
    8618:	00000000 	nop
    861c:	00000000 	nop
    8620:	00000021 	move	zero,zero
    8624:	00000021 	move	zero,zero
    8628:	00000021 	move	zero,zero
    862c:	00000021 	move	zero,zero
    8630:	00000021 	move	zero,zero
    8634:	00000021 	move	zero,zero
    8638:	00000021 	move	zero,zero
    863c:	00000021 	move	zero,zero
    8640:	00000021 	move	zero,zero
    8644:	00000021 	move	zero,zero
    8648:	00000021 	move	zero,zero
    864c:	3c084140 	lui	t0,0x4140
    8650:	3508cd6e 	ori	t0,t0,0xcd6e
    8654:	0510ffeb 	bltzal	t0,8604 <n35_bltzal_test+0x8604>
    8658:	00000000 	nop
    865c:	10000013 	b	86ac <n35_bltzal_test+0x86ac>
    8660:	00000000 	nop
    8664:	00000000 	nop
    8668:	00000021 	move	zero,zero
    866c:	00000021 	move	zero,zero
    8670:	00000021 	move	zero,zero
    8674:	00000021 	move	zero,zero
    8678:	00000021 	move	zero,zero
    867c:	00000021 	move	zero,zero
    8680:	00000021 	move	zero,zero
    8684:	00000021 	move	zero,zero
    8688:	00000021 	move	zero,zero
    868c:	00000021 	move	zero,zero
    8690:	00000021 	move	zero,zero
    8694:	00000021 	move	zero,zero
    8698:	00000021 	move	zero,zero
    869c:	00000021 	move	zero,zero
    86a0:	00000021 	move	zero,zero
    86a4:	3c12192e 	lui	s2,0x192e
    86a8:	3652cb2a 	ori	s2,s2,0xcb2a
    86ac:	001fa021 	addu	s4,zero,ra
    86b0:	0015f821 	addu	ra,zero,s5
    86b4:	3c150001 	lui	s5,0x1
    86b8:	26b5860c 	addiu	s5,s5,-31220
    86bc:	3c160001 	lui	s6,0x1
    86c0:	26d68654 	addiu	s6,s6,-31148
    86c4:	24180000 	li	t8,0
    86c8:	1618274b 	bne	s0,t8,123f8 <inst_error>
    86cc:	00000000 	nop
    86d0:	00000000 	nop
    86d4:	24180000 	li	t8,0
    86d8:	16582747 	bne	s2,t8,123f8 <inst_error>
    86dc:	00000000 	nop
    86e0:	00000000 	nop
    86e4:	3c19bfc0 	lui	t9,0xbfc0
    86e8:	373951b4 	ori	t9,t9,0x51b4
    86ec:	3c18bfc0 	lui	t8,0xbfc0
    86f0:	3718517c 	ori	t8,t8,0x517c
    86f4:	27180008 	addiu	t8,t8,8
    86f8:	1319000a 	beq	t8,t9,8724 <n35_bltzal_test+0x8724>
    86fc:	00000000 	nop
    8700:	00000000 	nop
    8704:	3c18bfc0 	lui	t8,0xbfc0
    8708:	371851ac 	ori	t8,t8,0x51ac
    870c:	27180008 	addiu	t8,t8,8
    8710:	1319000a 	beq	t8,t9,873c <n35_bltzal_test+0x873c>
    8714:	00000000 	nop
    8718:	10002737 	b	123f8 <inst_error>
    871c:	00000000 	nop
    8720:	00000000 	nop
    8724:	26b50008 	addiu	s5,s5,8
    8728:	16952733 	bne	s4,s5,123f8 <inst_error>
    872c:	00000000 	nop
    8730:	10000006 	b	874c <n35_bltzal_test+0x874c>
    8734:	00000000 	nop
    8738:	00000000 	nop
    873c:	26d60008 	addiu	s6,s6,8
    8740:	1696272d 	bne	s4,s6,123f8 <inst_error>
    8744:	00000000 	nop
	...
    8750:	001fa821 	addu	s5,zero,ra
    8754:	3c0cb7c9 	lui	t4,0xb7c9
    8758:	358c25c0 	ori	t4,t4,0x25c0
    875c:	3c0d6550 	lui	t5,0x6550
    8760:	35ad60ba 	ori	t5,t5,0x60ba
    8764:	24100000 	li	s0,0
    8768:	10000014 	b	87bc <n35_bltzal_test+0x87bc>
    876c:	24120000 	li	s2,0
    8770:	00000000 	nop
    8774:	3c10b7c9 	lui	s0,0xb7c9
    8778:	361025c0 	ori	s0,s0,0x25c0
    877c:	05100025 	bltzal	t0,8814 <n35_bltzal_test+0x8814>
    8780:	00000000 	nop
    8784:	10000025 	b	881c <n35_bltzal_test+0x881c>
    8788:	00000000 	nop
    878c:	00000000 	nop
    8790:	00000021 	move	zero,zero
    8794:	00000021 	move	zero,zero
    8798:	00000021 	move	zero,zero
    879c:	00000021 	move	zero,zero
    87a0:	00000021 	move	zero,zero
    87a4:	00000021 	move	zero,zero
    87a8:	00000021 	move	zero,zero
    87ac:	00000021 	move	zero,zero
    87b0:	00000021 	move	zero,zero
    87b4:	00000021 	move	zero,zero
    87b8:	00000021 	move	zero,zero
    87bc:	3c085761 	lui	t0,0x5761
    87c0:	3508276c 	ori	t0,t0,0x276c
    87c4:	0510ffeb 	bltzal	t0,8774 <n35_bltzal_test+0x8774>
    87c8:	00000000 	nop
    87cc:	10000013 	b	881c <n35_bltzal_test+0x881c>
    87d0:	00000000 	nop
    87d4:	00000000 	nop
    87d8:	00000021 	move	zero,zero
    87dc:	00000021 	move	zero,zero
    87e0:	00000021 	move	zero,zero
    87e4:	00000021 	move	zero,zero
    87e8:	00000021 	move	zero,zero
    87ec:	00000021 	move	zero,zero
    87f0:	00000021 	move	zero,zero
    87f4:	00000021 	move	zero,zero
    87f8:	00000021 	move	zero,zero
    87fc:	00000021 	move	zero,zero
    8800:	00000021 	move	zero,zero
    8804:	00000021 	move	zero,zero
    8808:	00000021 	move	zero,zero
    880c:	00000021 	move	zero,zero
    8810:	00000021 	move	zero,zero
    8814:	3c126550 	lui	s2,0x6550
    8818:	365260ba 	ori	s2,s2,0x60ba
    881c:	001fa021 	addu	s4,zero,ra
    8820:	0015f821 	addu	ra,zero,s5
    8824:	3c150001 	lui	s5,0x1
    8828:	26b5877c 	addiu	s5,s5,-30852
    882c:	3c160001 	lui	s6,0x1
    8830:	26d687c4 	addiu	s6,s6,-30780
    8834:	24180000 	li	t8,0
    8838:	161826ef 	bne	s0,t8,123f8 <inst_error>
    883c:	00000000 	nop
    8840:	00000000 	nop
    8844:	24180000 	li	t8,0
    8848:	165826eb 	bne	s2,t8,123f8 <inst_error>
    884c:	00000000 	nop
    8850:	00000000 	nop
    8854:	3c19bfc0 	lui	t9,0xbfc0
    8858:	3739528c 	ori	t9,t9,0x528c
    885c:	3c18bfc0 	lui	t8,0xbfc0
    8860:	37185254 	ori	t8,t8,0x5254
    8864:	27180008 	addiu	t8,t8,8
    8868:	1319000a 	beq	t8,t9,8894 <n35_bltzal_test+0x8894>
    886c:	00000000 	nop
    8870:	00000000 	nop
    8874:	3c18bfc0 	lui	t8,0xbfc0
    8878:	37185284 	ori	t8,t8,0x5284
    887c:	27180008 	addiu	t8,t8,8
    8880:	1319000a 	beq	t8,t9,88ac <n35_bltzal_test+0x88ac>
    8884:	00000000 	nop
    8888:	100026db 	b	123f8 <inst_error>
    888c:	00000000 	nop
    8890:	00000000 	nop
    8894:	26b50008 	addiu	s5,s5,8
    8898:	169526d7 	bne	s4,s5,123f8 <inst_error>
    889c:	00000000 	nop
    88a0:	10000006 	b	88bc <n35_bltzal_test+0x88bc>
    88a4:	00000000 	nop
    88a8:	00000000 	nop
    88ac:	26d60008 	addiu	s6,s6,8
    88b0:	169626d1 	bne	s4,s6,123f8 <inst_error>
    88b4:	00000000 	nop
	...
    88c0:	001fa821 	addu	s5,zero,ra
    88c4:	3c0c3d38 	lui	t4,0x3d38
    88c8:	358cd68e 	ori	t4,t4,0xd68e
    88cc:	3c0d3e17 	lui	t5,0x3e17
    88d0:	35adfa50 	ori	t5,t5,0xfa50
    88d4:	24100000 	li	s0,0
    88d8:	10000014 	b	892c <n35_bltzal_test+0x892c>
    88dc:	24120000 	li	s2,0
    88e0:	00000000 	nop
    88e4:	3c103d38 	lui	s0,0x3d38
    88e8:	3610d68e 	ori	s0,s0,0xd68e
    88ec:	05100025 	bltzal	t0,8984 <n35_bltzal_test+0x8984>
    88f0:	00000000 	nop
    88f4:	10000025 	b	898c <n35_bltzal_test+0x898c>
    88f8:	00000000 	nop
    88fc:	00000000 	nop
    8900:	00000021 	move	zero,zero
    8904:	00000021 	move	zero,zero
    8908:	00000021 	move	zero,zero
    890c:	00000021 	move	zero,zero
    8910:	00000021 	move	zero,zero
    8914:	00000021 	move	zero,zero
    8918:	00000021 	move	zero,zero
    891c:	00000021 	move	zero,zero
    8920:	00000021 	move	zero,zero
    8924:	00000021 	move	zero,zero
    8928:	00000021 	move	zero,zero
    892c:	3c08595c 	lui	t0,0x595c
    8930:	35089842 	ori	t0,t0,0x9842
    8934:	0510ffeb 	bltzal	t0,88e4 <n35_bltzal_test+0x88e4>
    8938:	00000000 	nop
    893c:	10000013 	b	898c <n35_bltzal_test+0x898c>
    8940:	00000000 	nop
    8944:	00000000 	nop
    8948:	00000021 	move	zero,zero
    894c:	00000021 	move	zero,zero
    8950:	00000021 	move	zero,zero
    8954:	00000021 	move	zero,zero
    8958:	00000021 	move	zero,zero
    895c:	00000021 	move	zero,zero
    8960:	00000021 	move	zero,zero
    8964:	00000021 	move	zero,zero
    8968:	00000021 	move	zero,zero
    896c:	00000021 	move	zero,zero
    8970:	00000021 	move	zero,zero
    8974:	00000021 	move	zero,zero
    8978:	00000021 	move	zero,zero
    897c:	00000021 	move	zero,zero
    8980:	00000021 	move	zero,zero
    8984:	3c123e17 	lui	s2,0x3e17
    8988:	3652fa50 	ori	s2,s2,0xfa50
    898c:	001fa021 	addu	s4,zero,ra
    8990:	0015f821 	addu	ra,zero,s5
    8994:	3c150001 	lui	s5,0x1
    8998:	26b588ec 	addiu	s5,s5,-30484
    899c:	3c160001 	lui	s6,0x1
    89a0:	26d68934 	addiu	s6,s6,-30412
    89a4:	24180000 	li	t8,0
    89a8:	16182693 	bne	s0,t8,123f8 <inst_error>
    89ac:	00000000 	nop
    89b0:	00000000 	nop
    89b4:	24180000 	li	t8,0
    89b8:	1658268f 	bne	s2,t8,123f8 <inst_error>
    89bc:	00000000 	nop
    89c0:	00000000 	nop
    89c4:	3c19bfc0 	lui	t9,0xbfc0
    89c8:	37395364 	ori	t9,t9,0x5364
    89cc:	3c18bfc0 	lui	t8,0xbfc0
    89d0:	3718532c 	ori	t8,t8,0x532c
    89d4:	27180008 	addiu	t8,t8,8
    89d8:	1319000a 	beq	t8,t9,8a04 <n35_bltzal_test+0x8a04>
    89dc:	00000000 	nop
    89e0:	00000000 	nop
    89e4:	3c18bfc0 	lui	t8,0xbfc0
    89e8:	3718535c 	ori	t8,t8,0x535c
    89ec:	27180008 	addiu	t8,t8,8
    89f0:	1319000a 	beq	t8,t9,8a1c <n35_bltzal_test+0x8a1c>
    89f4:	00000000 	nop
    89f8:	1000267f 	b	123f8 <inst_error>
    89fc:	00000000 	nop
    8a00:	00000000 	nop
    8a04:	26b50008 	addiu	s5,s5,8
    8a08:	1695267b 	bne	s4,s5,123f8 <inst_error>
    8a0c:	00000000 	nop
    8a10:	10000006 	b	8a2c <n35_bltzal_test+0x8a2c>
    8a14:	00000000 	nop
    8a18:	00000000 	nop
    8a1c:	26d60008 	addiu	s6,s6,8
    8a20:	16962675 	bne	s4,s6,123f8 <inst_error>
    8a24:	00000000 	nop
	...
    8a30:	001fa821 	addu	s5,zero,ra
    8a34:	3c0c649e 	lui	t4,0x649e
    8a38:	358c1726 	ori	t4,t4,0x1726
    8a3c:	3c0df352 	lui	t5,0xf352
    8a40:	35ad3180 	ori	t5,t5,0x3180
    8a44:	24100000 	li	s0,0
    8a48:	10000014 	b	8a9c <n35_bltzal_test+0x8a9c>
    8a4c:	24120000 	li	s2,0
    8a50:	00000000 	nop
    8a54:	3c10649e 	lui	s0,0x649e
    8a58:	36101726 	ori	s0,s0,0x1726
    8a5c:	05100025 	bltzal	t0,8af4 <n35_bltzal_test+0x8af4>
    8a60:	00000000 	nop
    8a64:	10000025 	b	8afc <n35_bltzal_test+0x8afc>
    8a68:	00000000 	nop
    8a6c:	00000000 	nop
    8a70:	00000021 	move	zero,zero
    8a74:	00000021 	move	zero,zero
    8a78:	00000021 	move	zero,zero
    8a7c:	00000021 	move	zero,zero
    8a80:	00000021 	move	zero,zero
    8a84:	00000021 	move	zero,zero
    8a88:	00000021 	move	zero,zero
    8a8c:	00000021 	move	zero,zero
    8a90:	00000021 	move	zero,zero
    8a94:	00000021 	move	zero,zero
    8a98:	00000021 	move	zero,zero
    8a9c:	3c084ab5 	lui	t0,0x4ab5
    8aa0:	3508152d 	ori	t0,t0,0x152d
    8aa4:	0510ffeb 	bltzal	t0,8a54 <n35_bltzal_test+0x8a54>
    8aa8:	00000000 	nop
    8aac:	10000013 	b	8afc <n35_bltzal_test+0x8afc>
    8ab0:	00000000 	nop
    8ab4:	00000000 	nop
    8ab8:	00000021 	move	zero,zero
    8abc:	00000021 	move	zero,zero
    8ac0:	00000021 	move	zero,zero
    8ac4:	00000021 	move	zero,zero
    8ac8:	00000021 	move	zero,zero
    8acc:	00000021 	move	zero,zero
    8ad0:	00000021 	move	zero,zero
    8ad4:	00000021 	move	zero,zero
    8ad8:	00000021 	move	zero,zero
    8adc:	00000021 	move	zero,zero
    8ae0:	00000021 	move	zero,zero
    8ae4:	00000021 	move	zero,zero
    8ae8:	00000021 	move	zero,zero
    8aec:	00000021 	move	zero,zero
    8af0:	00000021 	move	zero,zero
    8af4:	3c12f352 	lui	s2,0xf352
    8af8:	36523180 	ori	s2,s2,0x3180
    8afc:	001fa021 	addu	s4,zero,ra
    8b00:	0015f821 	addu	ra,zero,s5
    8b04:	3c150001 	lui	s5,0x1
    8b08:	26b58a5c 	addiu	s5,s5,-30116
    8b0c:	3c160001 	lui	s6,0x1
    8b10:	26d68aa4 	addiu	s6,s6,-30044
    8b14:	24180000 	li	t8,0
    8b18:	16182637 	bne	s0,t8,123f8 <inst_error>
    8b1c:	00000000 	nop
    8b20:	00000000 	nop
    8b24:	24180000 	li	t8,0
    8b28:	16582633 	bne	s2,t8,123f8 <inst_error>
    8b2c:	00000000 	nop
    8b30:	00000000 	nop
    8b34:	3c19bfc0 	lui	t9,0xbfc0
    8b38:	3739543c 	ori	t9,t9,0x543c
    8b3c:	3c18bfc0 	lui	t8,0xbfc0
    8b40:	37185404 	ori	t8,t8,0x5404
    8b44:	27180008 	addiu	t8,t8,8
    8b48:	1319000a 	beq	t8,t9,8b74 <n35_bltzal_test+0x8b74>
    8b4c:	00000000 	nop
    8b50:	00000000 	nop
    8b54:	3c18bfc0 	lui	t8,0xbfc0
    8b58:	37185434 	ori	t8,t8,0x5434
    8b5c:	27180008 	addiu	t8,t8,8
    8b60:	1319000a 	beq	t8,t9,8b8c <n35_bltzal_test+0x8b8c>
    8b64:	00000000 	nop
    8b68:	10002623 	b	123f8 <inst_error>
    8b6c:	00000000 	nop
    8b70:	00000000 	nop
    8b74:	26b50008 	addiu	s5,s5,8
    8b78:	1695261f 	bne	s4,s5,123f8 <inst_error>
    8b7c:	00000000 	nop
    8b80:	10000006 	b	8b9c <n35_bltzal_test+0x8b9c>
    8b84:	00000000 	nop
    8b88:	00000000 	nop
    8b8c:	26d60008 	addiu	s6,s6,8
    8b90:	16962619 	bne	s4,s6,123f8 <inst_error>
    8b94:	00000000 	nop
	...
    8ba0:	001fa821 	addu	s5,zero,ra
    8ba4:	3c0c34e6 	lui	t4,0x34e6
    8ba8:	358cf946 	ori	t4,t4,0xf946
    8bac:	3c0d82cb 	lui	t5,0x82cb
    8bb0:	35ad1092 	ori	t5,t5,0x1092
    8bb4:	24100000 	li	s0,0
    8bb8:	10000014 	b	8c0c <n35_bltzal_test+0x8c0c>
    8bbc:	24120000 	li	s2,0
    8bc0:	00000000 	nop
    8bc4:	3c1034e6 	lui	s0,0x34e6
    8bc8:	3610f946 	ori	s0,s0,0xf946
    8bcc:	05100025 	bltzal	t0,8c64 <n35_bltzal_test+0x8c64>
    8bd0:	00000000 	nop
    8bd4:	10000025 	b	8c6c <n35_bltzal_test+0x8c6c>
    8bd8:	00000000 	nop
    8bdc:	00000000 	nop
    8be0:	00000021 	move	zero,zero
    8be4:	00000021 	move	zero,zero
    8be8:	00000021 	move	zero,zero
    8bec:	00000021 	move	zero,zero
    8bf0:	00000021 	move	zero,zero
    8bf4:	00000021 	move	zero,zero
    8bf8:	00000021 	move	zero,zero
    8bfc:	00000021 	move	zero,zero
    8c00:	00000021 	move	zero,zero
    8c04:	00000021 	move	zero,zero
    8c08:	00000021 	move	zero,zero
    8c0c:	3c0892e9 	lui	t0,0x92e9
    8c10:	35080da4 	ori	t0,t0,0xda4
    8c14:	0510ffeb 	bltzal	t0,8bc4 <n35_bltzal_test+0x8bc4>
    8c18:	00000000 	nop
    8c1c:	10000013 	b	8c6c <n35_bltzal_test+0x8c6c>
    8c20:	00000000 	nop
    8c24:	00000000 	nop
    8c28:	00000021 	move	zero,zero
    8c2c:	00000021 	move	zero,zero
    8c30:	00000021 	move	zero,zero
    8c34:	00000021 	move	zero,zero
    8c38:	00000021 	move	zero,zero
    8c3c:	00000021 	move	zero,zero
    8c40:	00000021 	move	zero,zero
    8c44:	00000021 	move	zero,zero
    8c48:	00000021 	move	zero,zero
    8c4c:	00000021 	move	zero,zero
    8c50:	00000021 	move	zero,zero
    8c54:	00000021 	move	zero,zero
    8c58:	00000021 	move	zero,zero
    8c5c:	00000021 	move	zero,zero
    8c60:	00000021 	move	zero,zero
    8c64:	3c1282cb 	lui	s2,0x82cb
    8c68:	36521092 	ori	s2,s2,0x1092
    8c6c:	001fa021 	addu	s4,zero,ra
    8c70:	0015f821 	addu	ra,zero,s5
    8c74:	3c150001 	lui	s5,0x1
    8c78:	26b58bcc 	addiu	s5,s5,-29748
    8c7c:	3c160001 	lui	s6,0x1
    8c80:	26d68c14 	addiu	s6,s6,-29676
    8c84:	3c1834e6 	lui	t8,0x34e6
    8c88:	3718f946 	ori	t8,t8,0xf946
    8c8c:	161825da 	bne	s0,t8,123f8 <inst_error>
    8c90:	00000000 	nop
    8c94:	00000000 	nop
    8c98:	3c1882cb 	lui	t8,0x82cb
    8c9c:	37181092 	ori	t8,t8,0x1092
    8ca0:	165825d5 	bne	s2,t8,123f8 <inst_error>
    8ca4:	00000000 	nop
    8ca8:	00000000 	nop
    8cac:	3c19bfc0 	lui	t9,0xbfc0
    8cb0:	373954e4 	ori	t9,t9,0x54e4
    8cb4:	3c18bfc0 	lui	t8,0xbfc0
    8cb8:	371854dc 	ori	t8,t8,0x54dc
    8cbc:	27180008 	addiu	t8,t8,8
    8cc0:	1319000a 	beq	t8,t9,8cec <n35_bltzal_test+0x8cec>
    8cc4:	00000000 	nop
    8cc8:	00000000 	nop
    8ccc:	3c18bfc0 	lui	t8,0xbfc0
    8cd0:	3718550c 	ori	t8,t8,0x550c
    8cd4:	27180008 	addiu	t8,t8,8
    8cd8:	1319000a 	beq	t8,t9,8d04 <n35_bltzal_test+0x8d04>
    8cdc:	00000000 	nop
    8ce0:	100025c5 	b	123f8 <inst_error>
    8ce4:	00000000 	nop
    8ce8:	00000000 	nop
    8cec:	26b50008 	addiu	s5,s5,8
    8cf0:	169525c1 	bne	s4,s5,123f8 <inst_error>
    8cf4:	00000000 	nop
    8cf8:	10000006 	b	8d14 <n35_bltzal_test+0x8d14>
    8cfc:	00000000 	nop
    8d00:	00000000 	nop
    8d04:	26d60008 	addiu	s6,s6,8
    8d08:	169625bb 	bne	s4,s6,123f8 <inst_error>
    8d0c:	00000000 	nop
	...
    8d18:	001fa821 	addu	s5,zero,ra
    8d1c:	3c0c48f1 	lui	t4,0x48f1
    8d20:	358c0aa2 	ori	t4,t4,0xaa2
    8d24:	3c0d0a4b 	lui	t5,0xa4b
    8d28:	35ade0a8 	ori	t5,t5,0xe0a8
    8d2c:	24100000 	li	s0,0
    8d30:	10000014 	b	8d84 <n35_bltzal_test+0x8d84>
    8d34:	24120000 	li	s2,0
    8d38:	00000000 	nop
    8d3c:	3c1048f1 	lui	s0,0x48f1
    8d40:	36100aa2 	ori	s0,s0,0xaa2
    8d44:	05100025 	bltzal	t0,8ddc <n35_bltzal_test+0x8ddc>
    8d48:	00000000 	nop
    8d4c:	10000025 	b	8de4 <n35_bltzal_test+0x8de4>
    8d50:	00000000 	nop
    8d54:	00000000 	nop
    8d58:	00000021 	move	zero,zero
    8d5c:	00000021 	move	zero,zero
    8d60:	00000021 	move	zero,zero
    8d64:	00000021 	move	zero,zero
    8d68:	00000021 	move	zero,zero
    8d6c:	00000021 	move	zero,zero
    8d70:	00000021 	move	zero,zero
    8d74:	00000021 	move	zero,zero
    8d78:	00000021 	move	zero,zero
    8d7c:	00000021 	move	zero,zero
    8d80:	00000021 	move	zero,zero
    8d84:	3c08bba9 	lui	t0,0xbba9
    8d88:	3508590a 	ori	t0,t0,0x590a
    8d8c:	0510ffeb 	bltzal	t0,8d3c <n35_bltzal_test+0x8d3c>
    8d90:	00000000 	nop
    8d94:	10000013 	b	8de4 <n35_bltzal_test+0x8de4>
    8d98:	00000000 	nop
    8d9c:	00000000 	nop
    8da0:	00000021 	move	zero,zero
    8da4:	00000021 	move	zero,zero
    8da8:	00000021 	move	zero,zero
    8dac:	00000021 	move	zero,zero
    8db0:	00000021 	move	zero,zero
    8db4:	00000021 	move	zero,zero
    8db8:	00000021 	move	zero,zero
    8dbc:	00000021 	move	zero,zero
    8dc0:	00000021 	move	zero,zero
    8dc4:	00000021 	move	zero,zero
    8dc8:	00000021 	move	zero,zero
    8dcc:	00000021 	move	zero,zero
    8dd0:	00000021 	move	zero,zero
    8dd4:	00000021 	move	zero,zero
    8dd8:	00000021 	move	zero,zero
    8ddc:	3c120a4b 	lui	s2,0xa4b
    8de0:	3652e0a8 	ori	s2,s2,0xe0a8
    8de4:	001fa021 	addu	s4,zero,ra
    8de8:	0015f821 	addu	ra,zero,s5
    8dec:	3c150001 	lui	s5,0x1
    8df0:	26b58d44 	addiu	s5,s5,-29372
    8df4:	3c160001 	lui	s6,0x1
    8df8:	26d68d8c 	addiu	s6,s6,-29300
    8dfc:	3c1848f1 	lui	t8,0x48f1
    8e00:	37180aa2 	ori	t8,t8,0xaa2
    8e04:	1618257c 	bne	s0,t8,123f8 <inst_error>
    8e08:	00000000 	nop
    8e0c:	00000000 	nop
    8e10:	3c180a4b 	lui	t8,0xa4b
    8e14:	3718e0a8 	ori	t8,t8,0xe0a8
    8e18:	16582577 	bne	s2,t8,123f8 <inst_error>
    8e1c:	00000000 	nop
    8e20:	00000000 	nop
    8e24:	3c19bfc0 	lui	t9,0xbfc0
    8e28:	373955bc 	ori	t9,t9,0x55bc
    8e2c:	3c18bfc0 	lui	t8,0xbfc0
    8e30:	371855b4 	ori	t8,t8,0x55b4
    8e34:	27180008 	addiu	t8,t8,8
    8e38:	1319000a 	beq	t8,t9,8e64 <n35_bltzal_test+0x8e64>
    8e3c:	00000000 	nop
    8e40:	00000000 	nop
    8e44:	3c18bfc0 	lui	t8,0xbfc0
    8e48:	371855e4 	ori	t8,t8,0x55e4
    8e4c:	27180008 	addiu	t8,t8,8
    8e50:	1319000a 	beq	t8,t9,8e7c <n35_bltzal_test+0x8e7c>
    8e54:	00000000 	nop
    8e58:	10002567 	b	123f8 <inst_error>
    8e5c:	00000000 	nop
    8e60:	00000000 	nop
    8e64:	26b50008 	addiu	s5,s5,8
    8e68:	16952563 	bne	s4,s5,123f8 <inst_error>
    8e6c:	00000000 	nop
    8e70:	10000006 	b	8e8c <n35_bltzal_test+0x8e8c>
    8e74:	00000000 	nop
    8e78:	00000000 	nop
    8e7c:	26d60008 	addiu	s6,s6,8
    8e80:	1696255d 	bne	s4,s6,123f8 <inst_error>
    8e84:	00000000 	nop
	...
    8e90:	001fa821 	addu	s5,zero,ra
    8e94:	3c0ccca7 	lui	t4,0xcca7
    8e98:	358c4d4a 	ori	t4,t4,0x4d4a
    8e9c:	3c0d9fb7 	lui	t5,0x9fb7
    8ea0:	35ad3588 	ori	t5,t5,0x3588
    8ea4:	24100000 	li	s0,0
    8ea8:	10000014 	b	8efc <n35_bltzal_test+0x8efc>
    8eac:	24120000 	li	s2,0
    8eb0:	00000000 	nop
    8eb4:	3c10cca7 	lui	s0,0xcca7
    8eb8:	36104d4a 	ori	s0,s0,0x4d4a
    8ebc:	05100025 	bltzal	t0,8f54 <n35_bltzal_test+0x8f54>
    8ec0:	00000000 	nop
    8ec4:	10000025 	b	8f5c <n35_bltzal_test+0x8f5c>
    8ec8:	00000000 	nop
    8ecc:	00000000 	nop
    8ed0:	00000021 	move	zero,zero
    8ed4:	00000021 	move	zero,zero
    8ed8:	00000021 	move	zero,zero
    8edc:	00000021 	move	zero,zero
    8ee0:	00000021 	move	zero,zero
    8ee4:	00000021 	move	zero,zero
    8ee8:	00000021 	move	zero,zero
    8eec:	00000021 	move	zero,zero
    8ef0:	00000021 	move	zero,zero
    8ef4:	00000021 	move	zero,zero
    8ef8:	00000021 	move	zero,zero
    8efc:	3c0899f0 	lui	t0,0x99f0
    8f00:	3508dc78 	ori	t0,t0,0xdc78
    8f04:	0510ffeb 	bltzal	t0,8eb4 <n35_bltzal_test+0x8eb4>
    8f08:	00000000 	nop
    8f0c:	10000013 	b	8f5c <n35_bltzal_test+0x8f5c>
    8f10:	00000000 	nop
    8f14:	00000000 	nop
    8f18:	00000021 	move	zero,zero
    8f1c:	00000021 	move	zero,zero
    8f20:	00000021 	move	zero,zero
    8f24:	00000021 	move	zero,zero
    8f28:	00000021 	move	zero,zero
    8f2c:	00000021 	move	zero,zero
    8f30:	00000021 	move	zero,zero
    8f34:	00000021 	move	zero,zero
    8f38:	00000021 	move	zero,zero
    8f3c:	00000021 	move	zero,zero
    8f40:	00000021 	move	zero,zero
    8f44:	00000021 	move	zero,zero
    8f48:	00000021 	move	zero,zero
    8f4c:	00000021 	move	zero,zero
    8f50:	00000021 	move	zero,zero
    8f54:	3c129fb7 	lui	s2,0x9fb7
    8f58:	36523588 	ori	s2,s2,0x3588
    8f5c:	001fa021 	addu	s4,zero,ra
    8f60:	0015f821 	addu	ra,zero,s5
    8f64:	3c150001 	lui	s5,0x1
    8f68:	26b58ebc 	addiu	s5,s5,-28996
    8f6c:	3c160001 	lui	s6,0x1
    8f70:	26d68f04 	addiu	s6,s6,-28924
    8f74:	3c18cca7 	lui	t8,0xcca7
    8f78:	37184d4a 	ori	t8,t8,0x4d4a
    8f7c:	1618251e 	bne	s0,t8,123f8 <inst_error>
    8f80:	00000000 	nop
    8f84:	00000000 	nop
    8f88:	3c189fb7 	lui	t8,0x9fb7
    8f8c:	37183588 	ori	t8,t8,0x3588
    8f90:	16582519 	bne	s2,t8,123f8 <inst_error>
    8f94:	00000000 	nop
    8f98:	00000000 	nop
    8f9c:	3c19bfc0 	lui	t9,0xbfc0
    8fa0:	37395694 	ori	t9,t9,0x5694
    8fa4:	3c18bfc0 	lui	t8,0xbfc0
    8fa8:	3718568c 	ori	t8,t8,0x568c
    8fac:	27180008 	addiu	t8,t8,8
    8fb0:	1319000a 	beq	t8,t9,8fdc <n35_bltzal_test+0x8fdc>
    8fb4:	00000000 	nop
    8fb8:	00000000 	nop
    8fbc:	3c18bfc0 	lui	t8,0xbfc0
    8fc0:	371856bc 	ori	t8,t8,0x56bc
    8fc4:	27180008 	addiu	t8,t8,8
    8fc8:	1319000a 	beq	t8,t9,8ff4 <n35_bltzal_test+0x8ff4>
    8fcc:	00000000 	nop
    8fd0:	10002509 	b	123f8 <inst_error>
    8fd4:	00000000 	nop
    8fd8:	00000000 	nop
    8fdc:	26b50008 	addiu	s5,s5,8
    8fe0:	16952505 	bne	s4,s5,123f8 <inst_error>
    8fe4:	00000000 	nop
    8fe8:	10000006 	b	9004 <n35_bltzal_test+0x9004>
    8fec:	00000000 	nop
    8ff0:	00000000 	nop
    8ff4:	26d60008 	addiu	s6,s6,8
    8ff8:	169624ff 	bne	s4,s6,123f8 <inst_error>
    8ffc:	00000000 	nop
	...
    9008:	001fa821 	addu	s5,zero,ra
    900c:	3c0cd718 	lui	t4,0xd718
    9010:	358cc9e6 	ori	t4,t4,0xc9e6
    9014:	3c0d9a1a 	lui	t5,0x9a1a
    9018:	35adaa50 	ori	t5,t5,0xaa50
    901c:	24100000 	li	s0,0
    9020:	10000014 	b	9074 <n35_bltzal_test+0x9074>
    9024:	24120000 	li	s2,0
    9028:	00000000 	nop
    902c:	3c10d718 	lui	s0,0xd718
    9030:	3610c9e6 	ori	s0,s0,0xc9e6
    9034:	05100025 	bltzal	t0,90cc <n35_bltzal_test+0x90cc>
    9038:	00000000 	nop
    903c:	10000025 	b	90d4 <n35_bltzal_test+0x90d4>
    9040:	00000000 	nop
    9044:	00000000 	nop
    9048:	00000021 	move	zero,zero
    904c:	00000021 	move	zero,zero
    9050:	00000021 	move	zero,zero
    9054:	00000021 	move	zero,zero
    9058:	00000021 	move	zero,zero
    905c:	00000021 	move	zero,zero
    9060:	00000021 	move	zero,zero
    9064:	00000021 	move	zero,zero
    9068:	00000021 	move	zero,zero
    906c:	00000021 	move	zero,zero
    9070:	00000021 	move	zero,zero
    9074:	3c08b08a 	lui	t0,0xb08a
    9078:	350888a0 	ori	t0,t0,0x88a0
    907c:	0510ffeb 	bltzal	t0,902c <n35_bltzal_test+0x902c>
    9080:	00000000 	nop
    9084:	10000013 	b	90d4 <n35_bltzal_test+0x90d4>
    9088:	00000000 	nop
    908c:	00000000 	nop
    9090:	00000021 	move	zero,zero
    9094:	00000021 	move	zero,zero
    9098:	00000021 	move	zero,zero
    909c:	00000021 	move	zero,zero
    90a0:	00000021 	move	zero,zero
    90a4:	00000021 	move	zero,zero
    90a8:	00000021 	move	zero,zero
    90ac:	00000021 	move	zero,zero
    90b0:	00000021 	move	zero,zero
    90b4:	00000021 	move	zero,zero
    90b8:	00000021 	move	zero,zero
    90bc:	00000021 	move	zero,zero
    90c0:	00000021 	move	zero,zero
    90c4:	00000021 	move	zero,zero
    90c8:	00000021 	move	zero,zero
    90cc:	3c129a1a 	lui	s2,0x9a1a
    90d0:	3652aa50 	ori	s2,s2,0xaa50
    90d4:	001fa021 	addu	s4,zero,ra
    90d8:	0015f821 	addu	ra,zero,s5
    90dc:	3c150001 	lui	s5,0x1
    90e0:	26b59034 	addiu	s5,s5,-28620
    90e4:	3c160001 	lui	s6,0x1
    90e8:	26d6907c 	addiu	s6,s6,-28548
    90ec:	3c18d718 	lui	t8,0xd718
    90f0:	3718c9e6 	ori	t8,t8,0xc9e6
    90f4:	161824c0 	bne	s0,t8,123f8 <inst_error>
    90f8:	00000000 	nop
    90fc:	00000000 	nop
    9100:	3c189a1a 	lui	t8,0x9a1a
    9104:	3718aa50 	ori	t8,t8,0xaa50
    9108:	165824bb 	bne	s2,t8,123f8 <inst_error>
    910c:	00000000 	nop
    9110:	00000000 	nop
    9114:	3c19bfc0 	lui	t9,0xbfc0
    9118:	3739576c 	ori	t9,t9,0x576c
    911c:	3c18bfc0 	lui	t8,0xbfc0
    9120:	37185764 	ori	t8,t8,0x5764
    9124:	27180008 	addiu	t8,t8,8
    9128:	1319000a 	beq	t8,t9,9154 <n35_bltzal_test+0x9154>
    912c:	00000000 	nop
    9130:	00000000 	nop
    9134:	3c18bfc0 	lui	t8,0xbfc0
    9138:	37185794 	ori	t8,t8,0x5794
    913c:	27180008 	addiu	t8,t8,8
    9140:	1319000a 	beq	t8,t9,916c <n35_bltzal_test+0x916c>
    9144:	00000000 	nop
    9148:	100024ab 	b	123f8 <inst_error>
    914c:	00000000 	nop
    9150:	00000000 	nop
    9154:	26b50008 	addiu	s5,s5,8
    9158:	169524a7 	bne	s4,s5,123f8 <inst_error>
    915c:	00000000 	nop
    9160:	10000006 	b	917c <n35_bltzal_test+0x917c>
    9164:	00000000 	nop
    9168:	00000000 	nop
    916c:	26d60008 	addiu	s6,s6,8
    9170:	169624a1 	bne	s4,s6,123f8 <inst_error>
    9174:	00000000 	nop
	...
    9180:	001fa821 	addu	s5,zero,ra
    9184:	3c0c4816 	lui	t4,0x4816
    9188:	358c2660 	ori	t4,t4,0x2660
    918c:	3c0d1af5 	lui	t5,0x1af5
    9190:	35ad90b0 	ori	t5,t5,0x90b0
    9194:	24100000 	li	s0,0
    9198:	10000014 	b	91ec <n35_bltzal_test+0x91ec>
    919c:	24120000 	li	s2,0
    91a0:	00000000 	nop
    91a4:	3c104816 	lui	s0,0x4816
    91a8:	36102660 	ori	s0,s0,0x2660
    91ac:	05100025 	bltzal	t0,9244 <n35_bltzal_test+0x9244>
    91b0:	00000000 	nop
    91b4:	10000025 	b	924c <n35_bltzal_test+0x924c>
    91b8:	00000000 	nop
    91bc:	00000000 	nop
    91c0:	00000021 	move	zero,zero
    91c4:	00000021 	move	zero,zero
    91c8:	00000021 	move	zero,zero
    91cc:	00000021 	move	zero,zero
    91d0:	00000021 	move	zero,zero
    91d4:	00000021 	move	zero,zero
    91d8:	00000021 	move	zero,zero
    91dc:	00000021 	move	zero,zero
    91e0:	00000021 	move	zero,zero
    91e4:	00000021 	move	zero,zero
    91e8:	00000021 	move	zero,zero
    91ec:	3c085f2c 	lui	t0,0x5f2c
    91f0:	35086063 	ori	t0,t0,0x6063
    91f4:	0510ffeb 	bltzal	t0,91a4 <n35_bltzal_test+0x91a4>
    91f8:	00000000 	nop
    91fc:	10000013 	b	924c <n35_bltzal_test+0x924c>
    9200:	00000000 	nop
    9204:	00000000 	nop
    9208:	00000021 	move	zero,zero
    920c:	00000021 	move	zero,zero
    9210:	00000021 	move	zero,zero
    9214:	00000021 	move	zero,zero
    9218:	00000021 	move	zero,zero
    921c:	00000021 	move	zero,zero
    9220:	00000021 	move	zero,zero
    9224:	00000021 	move	zero,zero
    9228:	00000021 	move	zero,zero
    922c:	00000021 	move	zero,zero
    9230:	00000021 	move	zero,zero
    9234:	00000021 	move	zero,zero
    9238:	00000021 	move	zero,zero
    923c:	00000021 	move	zero,zero
    9240:	00000021 	move	zero,zero
    9244:	3c121af5 	lui	s2,0x1af5
    9248:	365290b0 	ori	s2,s2,0x90b0
    924c:	001fa021 	addu	s4,zero,ra
    9250:	0015f821 	addu	ra,zero,s5
    9254:	3c150001 	lui	s5,0x1
    9258:	26b591ac 	addiu	s5,s5,-28244
    925c:	3c160001 	lui	s6,0x1
    9260:	26d691f4 	addiu	s6,s6,-28172
    9264:	24180000 	li	t8,0
    9268:	16182463 	bne	s0,t8,123f8 <inst_error>
    926c:	00000000 	nop
    9270:	00000000 	nop
    9274:	24180000 	li	t8,0
    9278:	1658245f 	bne	s2,t8,123f8 <inst_error>
    927c:	00000000 	nop
    9280:	00000000 	nop
    9284:	3c19bfc0 	lui	t9,0xbfc0
    9288:	37395874 	ori	t9,t9,0x5874
    928c:	3c18bfc0 	lui	t8,0xbfc0
    9290:	3718583c 	ori	t8,t8,0x583c
    9294:	27180008 	addiu	t8,t8,8
    9298:	1319000a 	beq	t8,t9,92c4 <n35_bltzal_test+0x92c4>
    929c:	00000000 	nop
    92a0:	00000000 	nop
    92a4:	3c18bfc0 	lui	t8,0xbfc0
    92a8:	3718586c 	ori	t8,t8,0x586c
    92ac:	27180008 	addiu	t8,t8,8
    92b0:	1319000a 	beq	t8,t9,92dc <n35_bltzal_test+0x92dc>
    92b4:	00000000 	nop
    92b8:	1000244f 	b	123f8 <inst_error>
    92bc:	00000000 	nop
    92c0:	00000000 	nop
    92c4:	26b50008 	addiu	s5,s5,8
    92c8:	1695244b 	bne	s4,s5,123f8 <inst_error>
    92cc:	00000000 	nop
    92d0:	10000006 	b	92ec <n35_bltzal_test+0x92ec>
    92d4:	00000000 	nop
    92d8:	00000000 	nop
    92dc:	26d60008 	addiu	s6,s6,8
    92e0:	16962445 	bne	s4,s6,123f8 <inst_error>
    92e4:	00000000 	nop
	...
    92f0:	001fa821 	addu	s5,zero,ra
    92f4:	3c0c49cd 	lui	t4,0x49cd
    92f8:	358caad7 	ori	t4,t4,0xaad7
    92fc:	3c0d225d 	lui	t5,0x225d
    9300:	35ad54dc 	ori	t5,t5,0x54dc
    9304:	24100000 	li	s0,0
    9308:	10000014 	b	935c <n35_bltzal_test+0x935c>
    930c:	24120000 	li	s2,0
    9310:	00000000 	nop
    9314:	3c1049cd 	lui	s0,0x49cd
    9318:	3610aad7 	ori	s0,s0,0xaad7
    931c:	05100025 	bltzal	t0,93b4 <n35_bltzal_test+0x93b4>
    9320:	00000000 	nop
    9324:	10000025 	b	93bc <n35_bltzal_test+0x93bc>
    9328:	00000000 	nop
    932c:	00000000 	nop
    9330:	00000021 	move	zero,zero
    9334:	00000021 	move	zero,zero
    9338:	00000021 	move	zero,zero
    933c:	00000021 	move	zero,zero
    9340:	00000021 	move	zero,zero
    9344:	00000021 	move	zero,zero
    9348:	00000021 	move	zero,zero
    934c:	00000021 	move	zero,zero
    9350:	00000021 	move	zero,zero
    9354:	00000021 	move	zero,zero
    9358:	00000021 	move	zero,zero
    935c:	3c084011 	lui	t0,0x4011
    9360:	35083b20 	ori	t0,t0,0x3b20
    9364:	0510ffeb 	bltzal	t0,9314 <n35_bltzal_test+0x9314>
    9368:	00000000 	nop
    936c:	10000013 	b	93bc <n35_bltzal_test+0x93bc>
    9370:	00000000 	nop
    9374:	00000000 	nop
    9378:	00000021 	move	zero,zero
    937c:	00000021 	move	zero,zero
    9380:	00000021 	move	zero,zero
    9384:	00000021 	move	zero,zero
    9388:	00000021 	move	zero,zero
    938c:	00000021 	move	zero,zero
    9390:	00000021 	move	zero,zero
    9394:	00000021 	move	zero,zero
    9398:	00000021 	move	zero,zero
    939c:	00000021 	move	zero,zero
    93a0:	00000021 	move	zero,zero
    93a4:	00000021 	move	zero,zero
    93a8:	00000021 	move	zero,zero
    93ac:	00000021 	move	zero,zero
    93b0:	00000021 	move	zero,zero
    93b4:	3c12225d 	lui	s2,0x225d
    93b8:	365254dc 	ori	s2,s2,0x54dc
    93bc:	001fa021 	addu	s4,zero,ra
    93c0:	0015f821 	addu	ra,zero,s5
    93c4:	3c150001 	lui	s5,0x1
    93c8:	26b5931c 	addiu	s5,s5,-27876
    93cc:	3c160001 	lui	s6,0x1
    93d0:	26d69364 	addiu	s6,s6,-27804
    93d4:	24180000 	li	t8,0
    93d8:	16182407 	bne	s0,t8,123f8 <inst_error>
    93dc:	00000000 	nop
    93e0:	00000000 	nop
    93e4:	24180000 	li	t8,0
    93e8:	16582403 	bne	s2,t8,123f8 <inst_error>
    93ec:	00000000 	nop
    93f0:	00000000 	nop
    93f4:	3c19bfc0 	lui	t9,0xbfc0
    93f8:	3739594c 	ori	t9,t9,0x594c
    93fc:	3c18bfc0 	lui	t8,0xbfc0
    9400:	37185914 	ori	t8,t8,0x5914
    9404:	27180008 	addiu	t8,t8,8
    9408:	1319000a 	beq	t8,t9,9434 <n35_bltzal_test+0x9434>
    940c:	00000000 	nop
    9410:	00000000 	nop
    9414:	3c18bfc0 	lui	t8,0xbfc0
    9418:	37185944 	ori	t8,t8,0x5944
    941c:	27180008 	addiu	t8,t8,8
    9420:	1319000a 	beq	t8,t9,944c <n35_bltzal_test+0x944c>
    9424:	00000000 	nop
    9428:	100023f3 	b	123f8 <inst_error>
    942c:	00000000 	nop
    9430:	00000000 	nop
    9434:	26b50008 	addiu	s5,s5,8
    9438:	169523ef 	bne	s4,s5,123f8 <inst_error>
    943c:	00000000 	nop
    9440:	10000006 	b	945c <n35_bltzal_test+0x945c>
    9444:	00000000 	nop
    9448:	00000000 	nop
    944c:	26d60008 	addiu	s6,s6,8
    9450:	169623e9 	bne	s4,s6,123f8 <inst_error>
    9454:	00000000 	nop
	...
    9460:	001fa821 	addu	s5,zero,ra
    9464:	3c0c331c 	lui	t4,0x331c
    9468:	358c8554 	ori	t4,t4,0x8554
    946c:	3c0d60cb 	lui	t5,0x60cb
    9470:	35ad46c0 	ori	t5,t5,0x46c0
    9474:	24100000 	li	s0,0
    9478:	10000014 	b	94cc <n35_bltzal_test+0x94cc>
    947c:	24120000 	li	s2,0
    9480:	00000000 	nop
    9484:	3c10331c 	lui	s0,0x331c
    9488:	36108554 	ori	s0,s0,0x8554
    948c:	05100025 	bltzal	t0,9524 <n35_bltzal_test+0x9524>
    9490:	00000000 	nop
    9494:	10000025 	b	952c <n35_bltzal_test+0x952c>
    9498:	00000000 	nop
    949c:	00000000 	nop
    94a0:	00000021 	move	zero,zero
    94a4:	00000021 	move	zero,zero
    94a8:	00000021 	move	zero,zero
    94ac:	00000021 	move	zero,zero
    94b0:	00000021 	move	zero,zero
    94b4:	00000021 	move	zero,zero
    94b8:	00000021 	move	zero,zero
    94bc:	00000021 	move	zero,zero
    94c0:	00000021 	move	zero,zero
    94c4:	00000021 	move	zero,zero
    94c8:	00000021 	move	zero,zero
    94cc:	3c085e7f 	lui	t0,0x5e7f
    94d0:	3508637c 	ori	t0,t0,0x637c
    94d4:	0510ffeb 	bltzal	t0,9484 <n35_bltzal_test+0x9484>
    94d8:	00000000 	nop
    94dc:	10000013 	b	952c <n35_bltzal_test+0x952c>
    94e0:	00000000 	nop
    94e4:	00000000 	nop
    94e8:	00000021 	move	zero,zero
    94ec:	00000021 	move	zero,zero
    94f0:	00000021 	move	zero,zero
    94f4:	00000021 	move	zero,zero
    94f8:	00000021 	move	zero,zero
    94fc:	00000021 	move	zero,zero
    9500:	00000021 	move	zero,zero
    9504:	00000021 	move	zero,zero
    9508:	00000021 	move	zero,zero
    950c:	00000021 	move	zero,zero
    9510:	00000021 	move	zero,zero
    9514:	00000021 	move	zero,zero
    9518:	00000021 	move	zero,zero
    951c:	00000021 	move	zero,zero
    9520:	00000021 	move	zero,zero
    9524:	3c1260cb 	lui	s2,0x60cb
    9528:	365246c0 	ori	s2,s2,0x46c0
    952c:	001fa021 	addu	s4,zero,ra
    9530:	0015f821 	addu	ra,zero,s5
    9534:	3c150001 	lui	s5,0x1
    9538:	26b5948c 	addiu	s5,s5,-27508
    953c:	3c160001 	lui	s6,0x1
    9540:	26d694d4 	addiu	s6,s6,-27436
    9544:	24180000 	li	t8,0
    9548:	161823ab 	bne	s0,t8,123f8 <inst_error>
    954c:	00000000 	nop
    9550:	00000000 	nop
    9554:	24180000 	li	t8,0
    9558:	165823a7 	bne	s2,t8,123f8 <inst_error>
    955c:	00000000 	nop
    9560:	00000000 	nop
    9564:	3c19bfc0 	lui	t9,0xbfc0
    9568:	37395a24 	ori	t9,t9,0x5a24
    956c:	3c18bfc0 	lui	t8,0xbfc0
    9570:	371859ec 	ori	t8,t8,0x59ec
    9574:	27180008 	addiu	t8,t8,8
    9578:	1319000a 	beq	t8,t9,95a4 <n35_bltzal_test+0x95a4>
    957c:	00000000 	nop
    9580:	00000000 	nop
    9584:	3c18bfc0 	lui	t8,0xbfc0
    9588:	37185a1c 	ori	t8,t8,0x5a1c
    958c:	27180008 	addiu	t8,t8,8
    9590:	1319000a 	beq	t8,t9,95bc <n35_bltzal_test+0x95bc>
    9594:	00000000 	nop
    9598:	10002397 	b	123f8 <inst_error>
    959c:	00000000 	nop
    95a0:	00000000 	nop
    95a4:	26b50008 	addiu	s5,s5,8
    95a8:	16952393 	bne	s4,s5,123f8 <inst_error>
    95ac:	00000000 	nop
    95b0:	10000006 	b	95cc <n35_bltzal_test+0x95cc>
    95b4:	00000000 	nop
    95b8:	00000000 	nop
    95bc:	26d60008 	addiu	s6,s6,8
    95c0:	1696238d 	bne	s4,s6,123f8 <inst_error>
    95c4:	00000000 	nop
	...
    95d0:	001fa821 	addu	s5,zero,ra
    95d4:	3c0cca72 	lui	t4,0xca72
    95d8:	358c7700 	ori	t4,t4,0x7700
    95dc:	3c0dd1ac 	lui	t5,0xd1ac
    95e0:	35adb3d8 	ori	t5,t5,0xb3d8
    95e4:	24100000 	li	s0,0
    95e8:	10000014 	b	963c <n35_bltzal_test+0x963c>
    95ec:	24120000 	li	s2,0
    95f0:	00000000 	nop
    95f4:	3c10ca72 	lui	s0,0xca72
    95f8:	36107700 	ori	s0,s0,0x7700
    95fc:	05100025 	bltzal	t0,9694 <n35_bltzal_test+0x9694>
    9600:	00000000 	nop
    9604:	10000025 	b	969c <n35_bltzal_test+0x969c>
    9608:	00000000 	nop
    960c:	00000000 	nop
    9610:	00000021 	move	zero,zero
    9614:	00000021 	move	zero,zero
    9618:	00000021 	move	zero,zero
    961c:	00000021 	move	zero,zero
    9620:	00000021 	move	zero,zero
    9624:	00000021 	move	zero,zero
    9628:	00000021 	move	zero,zero
    962c:	00000021 	move	zero,zero
    9630:	00000021 	move	zero,zero
    9634:	00000021 	move	zero,zero
    9638:	00000021 	move	zero,zero
    963c:	3c08028a 	lui	t0,0x28a
    9640:	35085cdc 	ori	t0,t0,0x5cdc
    9644:	0510ffeb 	bltzal	t0,95f4 <n35_bltzal_test+0x95f4>
    9648:	00000000 	nop
    964c:	10000013 	b	969c <n35_bltzal_test+0x969c>
    9650:	00000000 	nop
    9654:	00000000 	nop
    9658:	00000021 	move	zero,zero
    965c:	00000021 	move	zero,zero
    9660:	00000021 	move	zero,zero
    9664:	00000021 	move	zero,zero
    9668:	00000021 	move	zero,zero
    966c:	00000021 	move	zero,zero
    9670:	00000021 	move	zero,zero
    9674:	00000021 	move	zero,zero
    9678:	00000021 	move	zero,zero
    967c:	00000021 	move	zero,zero
    9680:	00000021 	move	zero,zero
    9684:	00000021 	move	zero,zero
    9688:	00000021 	move	zero,zero
    968c:	00000021 	move	zero,zero
    9690:	00000021 	move	zero,zero
    9694:	3c12d1ac 	lui	s2,0xd1ac
    9698:	3652b3d8 	ori	s2,s2,0xb3d8
    969c:	001fa021 	addu	s4,zero,ra
    96a0:	0015f821 	addu	ra,zero,s5
    96a4:	3c150001 	lui	s5,0x1
    96a8:	26b595fc 	addiu	s5,s5,-27140
    96ac:	3c160001 	lui	s6,0x1
    96b0:	26d69644 	addiu	s6,s6,-27068
    96b4:	24180000 	li	t8,0
    96b8:	1618234f 	bne	s0,t8,123f8 <inst_error>
    96bc:	00000000 	nop
    96c0:	00000000 	nop
    96c4:	24180000 	li	t8,0
    96c8:	1658234b 	bne	s2,t8,123f8 <inst_error>
    96cc:	00000000 	nop
    96d0:	00000000 	nop
    96d4:	3c19bfc0 	lui	t9,0xbfc0
    96d8:	37395afc 	ori	t9,t9,0x5afc
    96dc:	3c18bfc0 	lui	t8,0xbfc0
    96e0:	37185ac4 	ori	t8,t8,0x5ac4
    96e4:	27180008 	addiu	t8,t8,8
    96e8:	1319000a 	beq	t8,t9,9714 <n35_bltzal_test+0x9714>
    96ec:	00000000 	nop
    96f0:	00000000 	nop
    96f4:	3c18bfc0 	lui	t8,0xbfc0
    96f8:	37185af4 	ori	t8,t8,0x5af4
    96fc:	27180008 	addiu	t8,t8,8
    9700:	1319000a 	beq	t8,t9,972c <n35_bltzal_test+0x972c>
    9704:	00000000 	nop
    9708:	1000233b 	b	123f8 <inst_error>
    970c:	00000000 	nop
    9710:	00000000 	nop
    9714:	26b50008 	addiu	s5,s5,8
    9718:	16952337 	bne	s4,s5,123f8 <inst_error>
    971c:	00000000 	nop
    9720:	10000006 	b	973c <n35_bltzal_test+0x973c>
    9724:	00000000 	nop
    9728:	00000000 	nop
    972c:	26d60008 	addiu	s6,s6,8
    9730:	16962331 	bne	s4,s6,123f8 <inst_error>
    9734:	00000000 	nop
	...
    9740:	001fa821 	addu	s5,zero,ra
    9744:	3c0c5b36 	lui	t4,0x5b36
    9748:	358cfb58 	ori	t4,t4,0xfb58
    974c:	3c0ddac1 	lui	t5,0xdac1
    9750:	35ad338c 	ori	t5,t5,0x338c
    9754:	24100000 	li	s0,0
    9758:	10000014 	b	97ac <n35_bltzal_test+0x97ac>
    975c:	24120000 	li	s2,0
    9760:	00000000 	nop
    9764:	3c105b36 	lui	s0,0x5b36
    9768:	3610fb58 	ori	s0,s0,0xfb58
    976c:	05100025 	bltzal	t0,9804 <n35_bltzal_test+0x9804>
    9770:	00000000 	nop
    9774:	10000025 	b	980c <n35_bltzal_test+0x980c>
    9778:	00000000 	nop
    977c:	00000000 	nop
    9780:	00000021 	move	zero,zero
    9784:	00000021 	move	zero,zero
    9788:	00000021 	move	zero,zero
    978c:	00000021 	move	zero,zero
    9790:	00000021 	move	zero,zero
    9794:	00000021 	move	zero,zero
    9798:	00000021 	move	zero,zero
    979c:	00000021 	move	zero,zero
    97a0:	00000021 	move	zero,zero
    97a4:	00000021 	move	zero,zero
    97a8:	00000021 	move	zero,zero
    97ac:	3c08f415 	lui	t0,0xf415
    97b0:	35088168 	ori	t0,t0,0x8168
    97b4:	0510ffeb 	bltzal	t0,9764 <n35_bltzal_test+0x9764>
    97b8:	00000000 	nop
    97bc:	10000013 	b	980c <n35_bltzal_test+0x980c>
    97c0:	00000000 	nop
    97c4:	00000000 	nop
    97c8:	00000021 	move	zero,zero
    97cc:	00000021 	move	zero,zero
    97d0:	00000021 	move	zero,zero
    97d4:	00000021 	move	zero,zero
    97d8:	00000021 	move	zero,zero
    97dc:	00000021 	move	zero,zero
    97e0:	00000021 	move	zero,zero
    97e4:	00000021 	move	zero,zero
    97e8:	00000021 	move	zero,zero
    97ec:	00000021 	move	zero,zero
    97f0:	00000021 	move	zero,zero
    97f4:	00000021 	move	zero,zero
    97f8:	00000021 	move	zero,zero
    97fc:	00000021 	move	zero,zero
    9800:	00000021 	move	zero,zero
    9804:	3c12dac1 	lui	s2,0xdac1
    9808:	3652338c 	ori	s2,s2,0x338c
    980c:	001fa021 	addu	s4,zero,ra
    9810:	0015f821 	addu	ra,zero,s5
    9814:	3c150001 	lui	s5,0x1
    9818:	26b5976c 	addiu	s5,s5,-26772
    981c:	3c160001 	lui	s6,0x1
    9820:	26d697b4 	addiu	s6,s6,-26700
    9824:	3c185b36 	lui	t8,0x5b36
    9828:	3718fb58 	ori	t8,t8,0xfb58
    982c:	161822f2 	bne	s0,t8,123f8 <inst_error>
    9830:	00000000 	nop
    9834:	00000000 	nop
    9838:	3c18dac1 	lui	t8,0xdac1
    983c:	3718338c 	ori	t8,t8,0x338c
    9840:	165822ed 	bne	s2,t8,123f8 <inst_error>
    9844:	00000000 	nop
    9848:	00000000 	nop
    984c:	3c19bfc0 	lui	t9,0xbfc0
    9850:	37395ba4 	ori	t9,t9,0x5ba4
    9854:	3c18bfc0 	lui	t8,0xbfc0
    9858:	37185b9c 	ori	t8,t8,0x5b9c
    985c:	27180008 	addiu	t8,t8,8
    9860:	1319000a 	beq	t8,t9,988c <n35_bltzal_test+0x988c>
    9864:	00000000 	nop
    9868:	00000000 	nop
    986c:	3c18bfc0 	lui	t8,0xbfc0
    9870:	37185bcc 	ori	t8,t8,0x5bcc
    9874:	27180008 	addiu	t8,t8,8
    9878:	1319000a 	beq	t8,t9,98a4 <n35_bltzal_test+0x98a4>
    987c:	00000000 	nop
    9880:	100022dd 	b	123f8 <inst_error>
    9884:	00000000 	nop
    9888:	00000000 	nop
    988c:	26b50008 	addiu	s5,s5,8
    9890:	169522d9 	bne	s4,s5,123f8 <inst_error>
    9894:	00000000 	nop
    9898:	10000006 	b	98b4 <n35_bltzal_test+0x98b4>
    989c:	00000000 	nop
    98a0:	00000000 	nop
    98a4:	26d60008 	addiu	s6,s6,8
    98a8:	169622d3 	bne	s4,s6,123f8 <inst_error>
    98ac:	00000000 	nop
	...
    98b8:	001fa821 	addu	s5,zero,ra
    98bc:	3c0c9aef 	lui	t4,0x9aef
    98c0:	358cd3e0 	ori	t4,t4,0xd3e0
    98c4:	3c0deb17 	lui	t5,0xeb17
    98c8:	35ad2cbe 	ori	t5,t5,0x2cbe
    98cc:	24100000 	li	s0,0
    98d0:	10000014 	b	9924 <n35_bltzal_test+0x9924>
    98d4:	24120000 	li	s2,0
    98d8:	00000000 	nop
    98dc:	3c109aef 	lui	s0,0x9aef
    98e0:	3610d3e0 	ori	s0,s0,0xd3e0
    98e4:	05100025 	bltzal	t0,997c <n35_bltzal_test+0x997c>
    98e8:	00000000 	nop
    98ec:	10000025 	b	9984 <n35_bltzal_test+0x9984>
    98f0:	00000000 	nop
    98f4:	00000000 	nop
    98f8:	00000021 	move	zero,zero
    98fc:	00000021 	move	zero,zero
    9900:	00000021 	move	zero,zero
    9904:	00000021 	move	zero,zero
    9908:	00000021 	move	zero,zero
    990c:	00000021 	move	zero,zero
    9910:	00000021 	move	zero,zero
    9914:	00000021 	move	zero,zero
    9918:	00000021 	move	zero,zero
    991c:	00000021 	move	zero,zero
    9920:	00000021 	move	zero,zero
    9924:	3c08aede 	lui	t0,0xaede
    9928:	35089100 	ori	t0,t0,0x9100
    992c:	0510ffeb 	bltzal	t0,98dc <n35_bltzal_test+0x98dc>
    9930:	00000000 	nop
    9934:	10000013 	b	9984 <n35_bltzal_test+0x9984>
    9938:	00000000 	nop
    993c:	00000000 	nop
    9940:	00000021 	move	zero,zero
    9944:	00000021 	move	zero,zero
    9948:	00000021 	move	zero,zero
    994c:	00000021 	move	zero,zero
    9950:	00000021 	move	zero,zero
    9954:	00000021 	move	zero,zero
    9958:	00000021 	move	zero,zero
    995c:	00000021 	move	zero,zero
    9960:	00000021 	move	zero,zero
    9964:	00000021 	move	zero,zero
    9968:	00000021 	move	zero,zero
    996c:	00000021 	move	zero,zero
    9970:	00000021 	move	zero,zero
    9974:	00000021 	move	zero,zero
    9978:	00000021 	move	zero,zero
    997c:	3c12eb17 	lui	s2,0xeb17
    9980:	36522cbe 	ori	s2,s2,0x2cbe
    9984:	001fa021 	addu	s4,zero,ra
    9988:	0015f821 	addu	ra,zero,s5
    998c:	3c150001 	lui	s5,0x1
    9990:	26b598e4 	addiu	s5,s5,-26396
    9994:	3c160001 	lui	s6,0x1
    9998:	26d6992c 	addiu	s6,s6,-26324
    999c:	3c189aef 	lui	t8,0x9aef
    99a0:	3718d3e0 	ori	t8,t8,0xd3e0
    99a4:	16182294 	bne	s0,t8,123f8 <inst_error>
    99a8:	00000000 	nop
    99ac:	00000000 	nop
    99b0:	3c18eb17 	lui	t8,0xeb17
    99b4:	37182cbe 	ori	t8,t8,0x2cbe
    99b8:	1658228f 	bne	s2,t8,123f8 <inst_error>
    99bc:	00000000 	nop
    99c0:	00000000 	nop
    99c4:	3c19bfc0 	lui	t9,0xbfc0
    99c8:	37395c7c 	ori	t9,t9,0x5c7c
    99cc:	3c18bfc0 	lui	t8,0xbfc0
    99d0:	37185c74 	ori	t8,t8,0x5c74
    99d4:	27180008 	addiu	t8,t8,8
    99d8:	1319000a 	beq	t8,t9,9a04 <n35_bltzal_test+0x9a04>
    99dc:	00000000 	nop
    99e0:	00000000 	nop
    99e4:	3c18bfc0 	lui	t8,0xbfc0
    99e8:	37185ca4 	ori	t8,t8,0x5ca4
    99ec:	27180008 	addiu	t8,t8,8
    99f0:	1319000a 	beq	t8,t9,9a1c <n35_bltzal_test+0x9a1c>
    99f4:	00000000 	nop
    99f8:	1000227f 	b	123f8 <inst_error>
    99fc:	00000000 	nop
    9a00:	00000000 	nop
    9a04:	26b50008 	addiu	s5,s5,8
    9a08:	1695227b 	bne	s4,s5,123f8 <inst_error>
    9a0c:	00000000 	nop
    9a10:	10000006 	b	9a2c <n35_bltzal_test+0x9a2c>
    9a14:	00000000 	nop
    9a18:	00000000 	nop
    9a1c:	26d60008 	addiu	s6,s6,8
    9a20:	16962275 	bne	s4,s6,123f8 <inst_error>
    9a24:	00000000 	nop
	...
    9a30:	001fa821 	addu	s5,zero,ra
    9a34:	3c0ca743 	lui	t4,0xa743
    9a38:	358c6d60 	ori	t4,t4,0x6d60
    9a3c:	3c0d2f18 	lui	t5,0x2f18
    9a40:	35ad14c4 	ori	t5,t5,0x14c4
    9a44:	24100000 	li	s0,0
    9a48:	10000014 	b	9a9c <n35_bltzal_test+0x9a9c>
    9a4c:	24120000 	li	s2,0
    9a50:	00000000 	nop
    9a54:	3c10a743 	lui	s0,0xa743
    9a58:	36106d60 	ori	s0,s0,0x6d60
    9a5c:	05100025 	bltzal	t0,9af4 <n35_bltzal_test+0x9af4>
    9a60:	00000000 	nop
    9a64:	10000025 	b	9afc <n35_bltzal_test+0x9afc>
    9a68:	00000000 	nop
    9a6c:	00000000 	nop
    9a70:	00000021 	move	zero,zero
    9a74:	00000021 	move	zero,zero
    9a78:	00000021 	move	zero,zero
    9a7c:	00000021 	move	zero,zero
    9a80:	00000021 	move	zero,zero
    9a84:	00000021 	move	zero,zero
    9a88:	00000021 	move	zero,zero
    9a8c:	00000021 	move	zero,zero
    9a90:	00000021 	move	zero,zero
    9a94:	00000021 	move	zero,zero
    9a98:	00000021 	move	zero,zero
    9a9c:	3c087d93 	lui	t0,0x7d93
    9aa0:	35083080 	ori	t0,t0,0x3080
    9aa4:	0510ffeb 	bltzal	t0,9a54 <n35_bltzal_test+0x9a54>
    9aa8:	00000000 	nop
    9aac:	10000013 	b	9afc <n35_bltzal_test+0x9afc>
    9ab0:	00000000 	nop
    9ab4:	00000000 	nop
    9ab8:	00000021 	move	zero,zero
    9abc:	00000021 	move	zero,zero
    9ac0:	00000021 	move	zero,zero
    9ac4:	00000021 	move	zero,zero
    9ac8:	00000021 	move	zero,zero
    9acc:	00000021 	move	zero,zero
    9ad0:	00000021 	move	zero,zero
    9ad4:	00000021 	move	zero,zero
    9ad8:	00000021 	move	zero,zero
    9adc:	00000021 	move	zero,zero
    9ae0:	00000021 	move	zero,zero
    9ae4:	00000021 	move	zero,zero
    9ae8:	00000021 	move	zero,zero
    9aec:	00000021 	move	zero,zero
    9af0:	00000021 	move	zero,zero
    9af4:	3c122f18 	lui	s2,0x2f18
    9af8:	365214c4 	ori	s2,s2,0x14c4
    9afc:	001fa021 	addu	s4,zero,ra
    9b00:	0015f821 	addu	ra,zero,s5
    9b04:	3c150001 	lui	s5,0x1
    9b08:	26b59a5c 	addiu	s5,s5,-26020
    9b0c:	3c160001 	lui	s6,0x1
    9b10:	26d69aa4 	addiu	s6,s6,-25948
    9b14:	24180000 	li	t8,0
    9b18:	16182237 	bne	s0,t8,123f8 <inst_error>
    9b1c:	00000000 	nop
    9b20:	00000000 	nop
    9b24:	24180000 	li	t8,0
    9b28:	16582233 	bne	s2,t8,123f8 <inst_error>
    9b2c:	00000000 	nop
    9b30:	00000000 	nop
    9b34:	3c19bfc0 	lui	t9,0xbfc0
    9b38:	37395d84 	ori	t9,t9,0x5d84
    9b3c:	3c18bfc0 	lui	t8,0xbfc0
    9b40:	37185d4c 	ori	t8,t8,0x5d4c
    9b44:	27180008 	addiu	t8,t8,8
    9b48:	1319000a 	beq	t8,t9,9b74 <n35_bltzal_test+0x9b74>
    9b4c:	00000000 	nop
    9b50:	00000000 	nop
    9b54:	3c18bfc0 	lui	t8,0xbfc0
    9b58:	37185d7c 	ori	t8,t8,0x5d7c
    9b5c:	27180008 	addiu	t8,t8,8
    9b60:	1319000a 	beq	t8,t9,9b8c <n35_bltzal_test+0x9b8c>
    9b64:	00000000 	nop
    9b68:	10002223 	b	123f8 <inst_error>
    9b6c:	00000000 	nop
    9b70:	00000000 	nop
    9b74:	26b50008 	addiu	s5,s5,8
    9b78:	1695221f 	bne	s4,s5,123f8 <inst_error>
    9b7c:	00000000 	nop
    9b80:	10000006 	b	9b9c <n35_bltzal_test+0x9b9c>
    9b84:	00000000 	nop
    9b88:	00000000 	nop
    9b8c:	26d60008 	addiu	s6,s6,8
    9b90:	16962219 	bne	s4,s6,123f8 <inst_error>
    9b94:	00000000 	nop
	...
    9ba0:	001fa821 	addu	s5,zero,ra
    9ba4:	3c0c50c5 	lui	t4,0x50c5
    9ba8:	358c57cc 	ori	t4,t4,0x57cc
    9bac:	3c0da722 	lui	t5,0xa722
    9bb0:	35adbd38 	ori	t5,t5,0xbd38
    9bb4:	24100000 	li	s0,0
    9bb8:	10000014 	b	9c0c <n35_bltzal_test+0x9c0c>
    9bbc:	24120000 	li	s2,0
    9bc0:	00000000 	nop
    9bc4:	3c1050c5 	lui	s0,0x50c5
    9bc8:	361057cc 	ori	s0,s0,0x57cc
    9bcc:	05100025 	bltzal	t0,9c64 <n35_bltzal_test+0x9c64>
    9bd0:	00000000 	nop
    9bd4:	10000025 	b	9c6c <n35_bltzal_test+0x9c6c>
    9bd8:	00000000 	nop
    9bdc:	00000000 	nop
    9be0:	00000021 	move	zero,zero
    9be4:	00000021 	move	zero,zero
    9be8:	00000021 	move	zero,zero
    9bec:	00000021 	move	zero,zero
    9bf0:	00000021 	move	zero,zero
    9bf4:	00000021 	move	zero,zero
    9bf8:	00000021 	move	zero,zero
    9bfc:	00000021 	move	zero,zero
    9c00:	00000021 	move	zero,zero
    9c04:	00000021 	move	zero,zero
    9c08:	00000021 	move	zero,zero
    9c0c:	3c081ca8 	lui	t0,0x1ca8
    9c10:	3508c258 	ori	t0,t0,0xc258
    9c14:	0510ffeb 	bltzal	t0,9bc4 <n35_bltzal_test+0x9bc4>
    9c18:	00000000 	nop
    9c1c:	10000013 	b	9c6c <n35_bltzal_test+0x9c6c>
    9c20:	00000000 	nop
    9c24:	00000000 	nop
    9c28:	00000021 	move	zero,zero
    9c2c:	00000021 	move	zero,zero
    9c30:	00000021 	move	zero,zero
    9c34:	00000021 	move	zero,zero
    9c38:	00000021 	move	zero,zero
    9c3c:	00000021 	move	zero,zero
    9c40:	00000021 	move	zero,zero
    9c44:	00000021 	move	zero,zero
    9c48:	00000021 	move	zero,zero
    9c4c:	00000021 	move	zero,zero
    9c50:	00000021 	move	zero,zero
    9c54:	00000021 	move	zero,zero
    9c58:	00000021 	move	zero,zero
    9c5c:	00000021 	move	zero,zero
    9c60:	00000021 	move	zero,zero
    9c64:	3c12a722 	lui	s2,0xa722
    9c68:	3652bd38 	ori	s2,s2,0xbd38
    9c6c:	001fa021 	addu	s4,zero,ra
    9c70:	0015f821 	addu	ra,zero,s5
    9c74:	3c150001 	lui	s5,0x1
    9c78:	26b59bcc 	addiu	s5,s5,-25652
    9c7c:	3c160001 	lui	s6,0x1
    9c80:	26d69c14 	addiu	s6,s6,-25580
    9c84:	24180000 	li	t8,0
    9c88:	161821db 	bne	s0,t8,123f8 <inst_error>
    9c8c:	00000000 	nop
    9c90:	00000000 	nop
    9c94:	24180000 	li	t8,0
    9c98:	165821d7 	bne	s2,t8,123f8 <inst_error>
    9c9c:	00000000 	nop
    9ca0:	00000000 	nop
    9ca4:	3c19bfc0 	lui	t9,0xbfc0
    9ca8:	37395e5c 	ori	t9,t9,0x5e5c
    9cac:	3c18bfc0 	lui	t8,0xbfc0
    9cb0:	37185e24 	ori	t8,t8,0x5e24
    9cb4:	27180008 	addiu	t8,t8,8
    9cb8:	1319000a 	beq	t8,t9,9ce4 <n35_bltzal_test+0x9ce4>
    9cbc:	00000000 	nop
    9cc0:	00000000 	nop
    9cc4:	3c18bfc0 	lui	t8,0xbfc0
    9cc8:	37185e54 	ori	t8,t8,0x5e54
    9ccc:	27180008 	addiu	t8,t8,8
    9cd0:	1319000a 	beq	t8,t9,9cfc <n35_bltzal_test+0x9cfc>
    9cd4:	00000000 	nop
    9cd8:	100021c7 	b	123f8 <inst_error>
    9cdc:	00000000 	nop
    9ce0:	00000000 	nop
    9ce4:	26b50008 	addiu	s5,s5,8
    9ce8:	169521c3 	bne	s4,s5,123f8 <inst_error>
    9cec:	00000000 	nop
    9cf0:	10000006 	b	9d0c <n35_bltzal_test+0x9d0c>
    9cf4:	00000000 	nop
    9cf8:	00000000 	nop
    9cfc:	26d60008 	addiu	s6,s6,8
    9d00:	169621bd 	bne	s4,s6,123f8 <inst_error>
    9d04:	00000000 	nop
	...
    9d10:	001fa821 	addu	s5,zero,ra
    9d14:	3c0c832c 	lui	t4,0x832c
    9d18:	358cfa20 	ori	t4,t4,0xfa20
    9d1c:	3c0d8175 	lui	t5,0x8175
    9d20:	35adf686 	ori	t5,t5,0xf686
    9d24:	24100000 	li	s0,0
    9d28:	10000014 	b	9d7c <n35_bltzal_test+0x9d7c>
    9d2c:	24120000 	li	s2,0
    9d30:	00000000 	nop
    9d34:	3c10832c 	lui	s0,0x832c
    9d38:	3610fa20 	ori	s0,s0,0xfa20
    9d3c:	05100025 	bltzal	t0,9dd4 <n35_bltzal_test+0x9dd4>
    9d40:	00000000 	nop
    9d44:	10000025 	b	9ddc <n35_bltzal_test+0x9ddc>
    9d48:	00000000 	nop
    9d4c:	00000000 	nop
    9d50:	00000021 	move	zero,zero
    9d54:	00000021 	move	zero,zero
    9d58:	00000021 	move	zero,zero
    9d5c:	00000021 	move	zero,zero
    9d60:	00000021 	move	zero,zero
    9d64:	00000021 	move	zero,zero
    9d68:	00000021 	move	zero,zero
    9d6c:	00000021 	move	zero,zero
    9d70:	00000021 	move	zero,zero
    9d74:	00000021 	move	zero,zero
    9d78:	00000021 	move	zero,zero
    9d7c:	3c08466b 	lui	t0,0x466b
    9d80:	350858c0 	ori	t0,t0,0x58c0
    9d84:	0510ffeb 	bltzal	t0,9d34 <n35_bltzal_test+0x9d34>
    9d88:	00000000 	nop
    9d8c:	10000013 	b	9ddc <n35_bltzal_test+0x9ddc>
    9d90:	00000000 	nop
    9d94:	00000000 	nop
    9d98:	00000021 	move	zero,zero
    9d9c:	00000021 	move	zero,zero
    9da0:	00000021 	move	zero,zero
    9da4:	00000021 	move	zero,zero
    9da8:	00000021 	move	zero,zero
    9dac:	00000021 	move	zero,zero
    9db0:	00000021 	move	zero,zero
    9db4:	00000021 	move	zero,zero
    9db8:	00000021 	move	zero,zero
    9dbc:	00000021 	move	zero,zero
    9dc0:	00000021 	move	zero,zero
    9dc4:	00000021 	move	zero,zero
    9dc8:	00000021 	move	zero,zero
    9dcc:	00000021 	move	zero,zero
    9dd0:	00000021 	move	zero,zero
    9dd4:	3c128175 	lui	s2,0x8175
    9dd8:	3652f686 	ori	s2,s2,0xf686
    9ddc:	001fa021 	addu	s4,zero,ra
    9de0:	0015f821 	addu	ra,zero,s5
    9de4:	3c150001 	lui	s5,0x1
    9de8:	26b59d3c 	addiu	s5,s5,-25284
    9dec:	3c160001 	lui	s6,0x1
    9df0:	26d69d84 	addiu	s6,s6,-25212
    9df4:	24180000 	li	t8,0
    9df8:	1618217f 	bne	s0,t8,123f8 <inst_error>
    9dfc:	00000000 	nop
    9e00:	00000000 	nop
    9e04:	24180000 	li	t8,0
    9e08:	1658217b 	bne	s2,t8,123f8 <inst_error>
    9e0c:	00000000 	nop
    9e10:	00000000 	nop
    9e14:	3c19bfc0 	lui	t9,0xbfc0
    9e18:	37395f34 	ori	t9,t9,0x5f34
    9e1c:	3c18bfc0 	lui	t8,0xbfc0
    9e20:	37185efc 	ori	t8,t8,0x5efc
    9e24:	27180008 	addiu	t8,t8,8
    9e28:	1319000a 	beq	t8,t9,9e54 <n35_bltzal_test+0x9e54>
    9e2c:	00000000 	nop
    9e30:	00000000 	nop
    9e34:	3c18bfc0 	lui	t8,0xbfc0
    9e38:	37185f2c 	ori	t8,t8,0x5f2c
    9e3c:	27180008 	addiu	t8,t8,8
    9e40:	1319000a 	beq	t8,t9,9e6c <n35_bltzal_test+0x9e6c>
    9e44:	00000000 	nop
    9e48:	1000216b 	b	123f8 <inst_error>
    9e4c:	00000000 	nop
    9e50:	00000000 	nop
    9e54:	26b50008 	addiu	s5,s5,8
    9e58:	16952167 	bne	s4,s5,123f8 <inst_error>
    9e5c:	00000000 	nop
    9e60:	10000006 	b	9e7c <n35_bltzal_test+0x9e7c>
    9e64:	00000000 	nop
    9e68:	00000000 	nop
    9e6c:	26d60008 	addiu	s6,s6,8
    9e70:	16962161 	bne	s4,s6,123f8 <inst_error>
    9e74:	00000000 	nop
	...
    9e80:	001fa821 	addu	s5,zero,ra
    9e84:	3c0ce9cb 	lui	t4,0xe9cb
    9e88:	358c6c40 	ori	t4,t4,0x6c40
    9e8c:	3c0d53ed 	lui	t5,0x53ed
    9e90:	35add6b4 	ori	t5,t5,0xd6b4
    9e94:	24100000 	li	s0,0
    9e98:	10000014 	b	9eec <n35_bltzal_test+0x9eec>
    9e9c:	24120000 	li	s2,0
    9ea0:	00000000 	nop
    9ea4:	3c10e9cb 	lui	s0,0xe9cb
    9ea8:	36106c40 	ori	s0,s0,0x6c40
    9eac:	05100025 	bltzal	t0,9f44 <n35_bltzal_test+0x9f44>
    9eb0:	00000000 	nop
    9eb4:	10000025 	b	9f4c <n35_bltzal_test+0x9f4c>
    9eb8:	00000000 	nop
    9ebc:	00000000 	nop
    9ec0:	00000021 	move	zero,zero
    9ec4:	00000021 	move	zero,zero
    9ec8:	00000021 	move	zero,zero
    9ecc:	00000021 	move	zero,zero
    9ed0:	00000021 	move	zero,zero
    9ed4:	00000021 	move	zero,zero
    9ed8:	00000021 	move	zero,zero
    9edc:	00000021 	move	zero,zero
    9ee0:	00000021 	move	zero,zero
    9ee4:	00000021 	move	zero,zero
    9ee8:	00000021 	move	zero,zero
    9eec:	3c0822b2 	lui	t0,0x22b2
    9ef0:	3508b3b4 	ori	t0,t0,0xb3b4
    9ef4:	0510ffeb 	bltzal	t0,9ea4 <n35_bltzal_test+0x9ea4>
    9ef8:	00000000 	nop
    9efc:	10000013 	b	9f4c <n35_bltzal_test+0x9f4c>
    9f00:	00000000 	nop
    9f04:	00000000 	nop
    9f08:	00000021 	move	zero,zero
    9f0c:	00000021 	move	zero,zero
    9f10:	00000021 	move	zero,zero
    9f14:	00000021 	move	zero,zero
    9f18:	00000021 	move	zero,zero
    9f1c:	00000021 	move	zero,zero
    9f20:	00000021 	move	zero,zero
    9f24:	00000021 	move	zero,zero
    9f28:	00000021 	move	zero,zero
    9f2c:	00000021 	move	zero,zero
    9f30:	00000021 	move	zero,zero
    9f34:	00000021 	move	zero,zero
    9f38:	00000021 	move	zero,zero
    9f3c:	00000021 	move	zero,zero
    9f40:	00000021 	move	zero,zero
    9f44:	3c1253ed 	lui	s2,0x53ed
    9f48:	3652d6b4 	ori	s2,s2,0xd6b4
    9f4c:	001fa021 	addu	s4,zero,ra
    9f50:	0015f821 	addu	ra,zero,s5
    9f54:	3c150001 	lui	s5,0x1
    9f58:	26b59eac 	addiu	s5,s5,-24916
    9f5c:	3c160001 	lui	s6,0x1
    9f60:	26d69ef4 	addiu	s6,s6,-24844
    9f64:	24180000 	li	t8,0
    9f68:	16182123 	bne	s0,t8,123f8 <inst_error>
    9f6c:	00000000 	nop
    9f70:	00000000 	nop
    9f74:	24180000 	li	t8,0
    9f78:	1658211f 	bne	s2,t8,123f8 <inst_error>
    9f7c:	00000000 	nop
    9f80:	00000000 	nop
    9f84:	3c19bfc0 	lui	t9,0xbfc0
    9f88:	3739600c 	ori	t9,t9,0x600c
    9f8c:	3c18bfc0 	lui	t8,0xbfc0
    9f90:	37185fd4 	ori	t8,t8,0x5fd4
    9f94:	27180008 	addiu	t8,t8,8
    9f98:	1319000a 	beq	t8,t9,9fc4 <n35_bltzal_test+0x9fc4>
    9f9c:	00000000 	nop
    9fa0:	00000000 	nop
    9fa4:	3c18bfc0 	lui	t8,0xbfc0
    9fa8:	37186004 	ori	t8,t8,0x6004
    9fac:	27180008 	addiu	t8,t8,8
    9fb0:	1319000a 	beq	t8,t9,9fdc <n35_bltzal_test+0x9fdc>
    9fb4:	00000000 	nop
    9fb8:	1000210f 	b	123f8 <inst_error>
    9fbc:	00000000 	nop
    9fc0:	00000000 	nop
    9fc4:	26b50008 	addiu	s5,s5,8
    9fc8:	1695210b 	bne	s4,s5,123f8 <inst_error>
    9fcc:	00000000 	nop
    9fd0:	10000006 	b	9fec <n35_bltzal_test+0x9fec>
    9fd4:	00000000 	nop
    9fd8:	00000000 	nop
    9fdc:	26d60008 	addiu	s6,s6,8
    9fe0:	16962105 	bne	s4,s6,123f8 <inst_error>
    9fe4:	00000000 	nop
	...
    9ff0:	001fa821 	addu	s5,zero,ra
    9ff4:	3c0c8dce 	lui	t4,0x8dce
    9ff8:	358cc176 	ori	t4,t4,0xc176
    9ffc:	3c0db872 	lui	t5,0xb872
    a000:	35ad6e32 	ori	t5,t5,0x6e32
    a004:	24100000 	li	s0,0
    a008:	10000014 	b	a05c <n35_bltzal_test+0xa05c>
    a00c:	24120000 	li	s2,0
    a010:	00000000 	nop
    a014:	3c108dce 	lui	s0,0x8dce
    a018:	3610c176 	ori	s0,s0,0xc176
    a01c:	05100025 	bltzal	t0,a0b4 <n35_bltzal_test+0xa0b4>
    a020:	00000000 	nop
    a024:	10000025 	b	a0bc <n35_bltzal_test+0xa0bc>
    a028:	00000000 	nop
    a02c:	00000000 	nop
    a030:	00000021 	move	zero,zero
    a034:	00000021 	move	zero,zero
    a038:	00000021 	move	zero,zero
    a03c:	00000021 	move	zero,zero
    a040:	00000021 	move	zero,zero
    a044:	00000021 	move	zero,zero
    a048:	00000021 	move	zero,zero
    a04c:	00000021 	move	zero,zero
    a050:	00000021 	move	zero,zero
    a054:	00000021 	move	zero,zero
    a058:	00000021 	move	zero,zero
    a05c:	3c085b78 	lui	t0,0x5b78
    a060:	3508e940 	ori	t0,t0,0xe940
    a064:	0510ffeb 	bltzal	t0,a014 <n35_bltzal_test+0xa014>
    a068:	00000000 	nop
    a06c:	10000013 	b	a0bc <n35_bltzal_test+0xa0bc>
    a070:	00000000 	nop
    a074:	00000000 	nop
    a078:	00000021 	move	zero,zero
    a07c:	00000021 	move	zero,zero
    a080:	00000021 	move	zero,zero
    a084:	00000021 	move	zero,zero
    a088:	00000021 	move	zero,zero
    a08c:	00000021 	move	zero,zero
    a090:	00000021 	move	zero,zero
    a094:	00000021 	move	zero,zero
    a098:	00000021 	move	zero,zero
    a09c:	00000021 	move	zero,zero
    a0a0:	00000021 	move	zero,zero
    a0a4:	00000021 	move	zero,zero
    a0a8:	00000021 	move	zero,zero
    a0ac:	00000021 	move	zero,zero
    a0b0:	00000021 	move	zero,zero
    a0b4:	3c12b872 	lui	s2,0xb872
    a0b8:	36526e32 	ori	s2,s2,0x6e32
    a0bc:	001fa021 	addu	s4,zero,ra
    a0c0:	0015f821 	addu	ra,zero,s5
    a0c4:	3c150001 	lui	s5,0x1
    a0c8:	26b5a01c 	addiu	s5,s5,-24548
    a0cc:	3c160001 	lui	s6,0x1
    a0d0:	26d6a064 	addiu	s6,s6,-24476
    a0d4:	24180000 	li	t8,0
    a0d8:	161820c7 	bne	s0,t8,123f8 <inst_error>
    a0dc:	00000000 	nop
    a0e0:	00000000 	nop
    a0e4:	24180000 	li	t8,0
    a0e8:	165820c3 	bne	s2,t8,123f8 <inst_error>
    a0ec:	00000000 	nop
    a0f0:	00000000 	nop
    a0f4:	3c19bfc0 	lui	t9,0xbfc0
    a0f8:	373960e4 	ori	t9,t9,0x60e4
    a0fc:	3c18bfc0 	lui	t8,0xbfc0
    a100:	371860ac 	ori	t8,t8,0x60ac
    a104:	27180008 	addiu	t8,t8,8
    a108:	1319000a 	beq	t8,t9,a134 <n35_bltzal_test+0xa134>
    a10c:	00000000 	nop
    a110:	00000000 	nop
    a114:	3c18bfc0 	lui	t8,0xbfc0
    a118:	371860dc 	ori	t8,t8,0x60dc
    a11c:	27180008 	addiu	t8,t8,8
    a120:	1319000a 	beq	t8,t9,a14c <n35_bltzal_test+0xa14c>
    a124:	00000000 	nop
    a128:	100020b3 	b	123f8 <inst_error>
    a12c:	00000000 	nop
    a130:	00000000 	nop
    a134:	26b50008 	addiu	s5,s5,8
    a138:	169520af 	bne	s4,s5,123f8 <inst_error>
    a13c:	00000000 	nop
    a140:	10000006 	b	a15c <n35_bltzal_test+0xa15c>
    a144:	00000000 	nop
    a148:	00000000 	nop
    a14c:	26d60008 	addiu	s6,s6,8
    a150:	169620a9 	bne	s4,s6,123f8 <inst_error>
    a154:	00000000 	nop
	...
    a160:	001fa821 	addu	s5,zero,ra
    a164:	3c0c5820 	lui	t4,0x5820
    a168:	358c5fc0 	ori	t4,t4,0x5fc0
    a16c:	3c0de57e 	lui	t5,0xe57e
    a170:	35ad23ad 	ori	t5,t5,0x23ad
    a174:	24100000 	li	s0,0
    a178:	10000014 	b	a1cc <n35_bltzal_test+0xa1cc>
    a17c:	24120000 	li	s2,0
    a180:	00000000 	nop
    a184:	3c105820 	lui	s0,0x5820
    a188:	36105fc0 	ori	s0,s0,0x5fc0
    a18c:	05100025 	bltzal	t0,a224 <n35_bltzal_test+0xa224>
    a190:	00000000 	nop
    a194:	10000025 	b	a22c <n35_bltzal_test+0xa22c>
    a198:	00000000 	nop
    a19c:	00000000 	nop
    a1a0:	00000021 	move	zero,zero
    a1a4:	00000021 	move	zero,zero
    a1a8:	00000021 	move	zero,zero
    a1ac:	00000021 	move	zero,zero
    a1b0:	00000021 	move	zero,zero
    a1b4:	00000021 	move	zero,zero
    a1b8:	00000021 	move	zero,zero
    a1bc:	00000021 	move	zero,zero
    a1c0:	00000021 	move	zero,zero
    a1c4:	00000021 	move	zero,zero
    a1c8:	00000021 	move	zero,zero
    a1cc:	3c082f5f 	lui	t0,0x2f5f
    a1d0:	35088070 	ori	t0,t0,0x8070
    a1d4:	0510ffeb 	bltzal	t0,a184 <n35_bltzal_test+0xa184>
    a1d8:	00000000 	nop
    a1dc:	10000013 	b	a22c <n35_bltzal_test+0xa22c>
    a1e0:	00000000 	nop
    a1e4:	00000000 	nop
    a1e8:	00000021 	move	zero,zero
    a1ec:	00000021 	move	zero,zero
    a1f0:	00000021 	move	zero,zero
    a1f4:	00000021 	move	zero,zero
    a1f8:	00000021 	move	zero,zero
    a1fc:	00000021 	move	zero,zero
    a200:	00000021 	move	zero,zero
    a204:	00000021 	move	zero,zero
    a208:	00000021 	move	zero,zero
    a20c:	00000021 	move	zero,zero
    a210:	00000021 	move	zero,zero
    a214:	00000021 	move	zero,zero
    a218:	00000021 	move	zero,zero
    a21c:	00000021 	move	zero,zero
    a220:	00000021 	move	zero,zero
    a224:	3c12e57e 	lui	s2,0xe57e
    a228:	365223ad 	ori	s2,s2,0x23ad
    a22c:	001fa021 	addu	s4,zero,ra
    a230:	0015f821 	addu	ra,zero,s5
    a234:	3c150001 	lui	s5,0x1
    a238:	26b5a18c 	addiu	s5,s5,-24180
    a23c:	3c160001 	lui	s6,0x1
    a240:	26d6a1d4 	addiu	s6,s6,-24108
    a244:	24180000 	li	t8,0
    a248:	1618206b 	bne	s0,t8,123f8 <inst_error>
    a24c:	00000000 	nop
    a250:	00000000 	nop
    a254:	24180000 	li	t8,0
    a258:	16582067 	bne	s2,t8,123f8 <inst_error>
    a25c:	00000000 	nop
    a260:	00000000 	nop
    a264:	3c19bfc0 	lui	t9,0xbfc0
    a268:	373961bc 	ori	t9,t9,0x61bc
    a26c:	3c18bfc0 	lui	t8,0xbfc0
    a270:	37186184 	ori	t8,t8,0x6184
    a274:	27180008 	addiu	t8,t8,8
    a278:	1319000a 	beq	t8,t9,a2a4 <n35_bltzal_test+0xa2a4>
    a27c:	00000000 	nop
    a280:	00000000 	nop
    a284:	3c18bfc0 	lui	t8,0xbfc0
    a288:	371861b4 	ori	t8,t8,0x61b4
    a28c:	27180008 	addiu	t8,t8,8
    a290:	1319000a 	beq	t8,t9,a2bc <n35_bltzal_test+0xa2bc>
    a294:	00000000 	nop
    a298:	10002057 	b	123f8 <inst_error>
    a29c:	00000000 	nop
    a2a0:	00000000 	nop
    a2a4:	26b50008 	addiu	s5,s5,8
    a2a8:	16952053 	bne	s4,s5,123f8 <inst_error>
    a2ac:	00000000 	nop
    a2b0:	10000006 	b	a2cc <n35_bltzal_test+0xa2cc>
    a2b4:	00000000 	nop
    a2b8:	00000000 	nop
    a2bc:	26d60008 	addiu	s6,s6,8
    a2c0:	1696204d 	bne	s4,s6,123f8 <inst_error>
    a2c4:	00000000 	nop
	...
    a2d0:	001fa821 	addu	s5,zero,ra
    a2d4:	3c0c9b86 	lui	t4,0x9b86
    a2d8:	358cc9b8 	ori	t4,t4,0xc9b8
    a2dc:	3c0d9137 	lui	t5,0x9137
    a2e0:	35ad75a0 	ori	t5,t5,0x75a0
    a2e4:	24100000 	li	s0,0
    a2e8:	10000014 	b	a33c <n35_bltzal_test+0xa33c>
    a2ec:	24120000 	li	s2,0
    a2f0:	00000000 	nop
    a2f4:	3c109b86 	lui	s0,0x9b86
    a2f8:	3610c9b8 	ori	s0,s0,0xc9b8
    a2fc:	05100025 	bltzal	t0,a394 <n35_bltzal_test+0xa394>
    a300:	00000000 	nop
    a304:	10000025 	b	a39c <n35_bltzal_test+0xa39c>
    a308:	00000000 	nop
    a30c:	00000000 	nop
    a310:	00000021 	move	zero,zero
    a314:	00000021 	move	zero,zero
    a318:	00000021 	move	zero,zero
    a31c:	00000021 	move	zero,zero
    a320:	00000021 	move	zero,zero
    a324:	00000021 	move	zero,zero
    a328:	00000021 	move	zero,zero
    a32c:	00000021 	move	zero,zero
    a330:	00000021 	move	zero,zero
    a334:	00000021 	move	zero,zero
    a338:	00000021 	move	zero,zero
    a33c:	3c08da73 	lui	t0,0xda73
    a340:	350808f4 	ori	t0,t0,0x8f4
    a344:	0510ffeb 	bltzal	t0,a2f4 <n35_bltzal_test+0xa2f4>
    a348:	00000000 	nop
    a34c:	10000013 	b	a39c <n35_bltzal_test+0xa39c>
    a350:	00000000 	nop
    a354:	00000000 	nop
    a358:	00000021 	move	zero,zero
    a35c:	00000021 	move	zero,zero
    a360:	00000021 	move	zero,zero
    a364:	00000021 	move	zero,zero
    a368:	00000021 	move	zero,zero
    a36c:	00000021 	move	zero,zero
    a370:	00000021 	move	zero,zero
    a374:	00000021 	move	zero,zero
    a378:	00000021 	move	zero,zero
    a37c:	00000021 	move	zero,zero
    a380:	00000021 	move	zero,zero
    a384:	00000021 	move	zero,zero
    a388:	00000021 	move	zero,zero
    a38c:	00000021 	move	zero,zero
    a390:	00000021 	move	zero,zero
    a394:	3c129137 	lui	s2,0x9137
    a398:	365275a0 	ori	s2,s2,0x75a0
    a39c:	001fa021 	addu	s4,zero,ra
    a3a0:	0015f821 	addu	ra,zero,s5
    a3a4:	3c150001 	lui	s5,0x1
    a3a8:	26b5a2fc 	addiu	s5,s5,-23812
    a3ac:	3c160001 	lui	s6,0x1
    a3b0:	26d6a344 	addiu	s6,s6,-23740
    a3b4:	3c189b86 	lui	t8,0x9b86
    a3b8:	3718c9b8 	ori	t8,t8,0xc9b8
    a3bc:	1618200e 	bne	s0,t8,123f8 <inst_error>
    a3c0:	00000000 	nop
    a3c4:	00000000 	nop
    a3c8:	3c189137 	lui	t8,0x9137
    a3cc:	371875a0 	ori	t8,t8,0x75a0
    a3d0:	16582009 	bne	s2,t8,123f8 <inst_error>
    a3d4:	00000000 	nop
    a3d8:	00000000 	nop
    a3dc:	3c19bfc0 	lui	t9,0xbfc0
    a3e0:	37396264 	ori	t9,t9,0x6264
    a3e4:	3c18bfc0 	lui	t8,0xbfc0
    a3e8:	3718625c 	ori	t8,t8,0x625c
    a3ec:	27180008 	addiu	t8,t8,8
    a3f0:	1319000a 	beq	t8,t9,a41c <n35_bltzal_test+0xa41c>
    a3f4:	00000000 	nop
    a3f8:	00000000 	nop
    a3fc:	3c18bfc0 	lui	t8,0xbfc0
    a400:	3718628c 	ori	t8,t8,0x628c
    a404:	27180008 	addiu	t8,t8,8
    a408:	1319000a 	beq	t8,t9,a434 <n35_bltzal_test+0xa434>
    a40c:	00000000 	nop
    a410:	10001ff9 	b	123f8 <inst_error>
    a414:	00000000 	nop
    a418:	00000000 	nop
    a41c:	26b50008 	addiu	s5,s5,8
    a420:	16951ff5 	bne	s4,s5,123f8 <inst_error>
    a424:	00000000 	nop
    a428:	10000006 	b	a444 <n35_bltzal_test+0xa444>
    a42c:	00000000 	nop
    a430:	00000000 	nop
    a434:	26d60008 	addiu	s6,s6,8
    a438:	16961fef 	bne	s4,s6,123f8 <inst_error>
    a43c:	00000000 	nop
	...
    a448:	001fa821 	addu	s5,zero,ra
    a44c:	3c0cc233 	lui	t4,0xc233
    a450:	358c9e20 	ori	t4,t4,0x9e20
    a454:	3c0da426 	lui	t5,0xa426
    a458:	35ad8ba0 	ori	t5,t5,0x8ba0
    a45c:	24100000 	li	s0,0
    a460:	10000014 	b	a4b4 <n35_bltzal_test+0xa4b4>
    a464:	24120000 	li	s2,0
    a468:	00000000 	nop
    a46c:	3c10c233 	lui	s0,0xc233
    a470:	36109e20 	ori	s0,s0,0x9e20
    a474:	05100025 	bltzal	t0,a50c <n35_bltzal_test+0xa50c>
    a478:	00000000 	nop
    a47c:	10000025 	b	a514 <n35_bltzal_test+0xa514>
    a480:	00000000 	nop
    a484:	00000000 	nop
    a488:	00000021 	move	zero,zero
    a48c:	00000021 	move	zero,zero
    a490:	00000021 	move	zero,zero
    a494:	00000021 	move	zero,zero
    a498:	00000021 	move	zero,zero
    a49c:	00000021 	move	zero,zero
    a4a0:	00000021 	move	zero,zero
    a4a4:	00000021 	move	zero,zero
    a4a8:	00000021 	move	zero,zero
    a4ac:	00000021 	move	zero,zero
    a4b0:	00000021 	move	zero,zero
    a4b4:	3c08e9c9 	lui	t0,0xe9c9
    a4b8:	3508da6a 	ori	t0,t0,0xda6a
    a4bc:	0510ffeb 	bltzal	t0,a46c <n35_bltzal_test+0xa46c>
    a4c0:	00000000 	nop
    a4c4:	10000013 	b	a514 <n35_bltzal_test+0xa514>
    a4c8:	00000000 	nop
    a4cc:	00000000 	nop
    a4d0:	00000021 	move	zero,zero
    a4d4:	00000021 	move	zero,zero
    a4d8:	00000021 	move	zero,zero
    a4dc:	00000021 	move	zero,zero
    a4e0:	00000021 	move	zero,zero
    a4e4:	00000021 	move	zero,zero
    a4e8:	00000021 	move	zero,zero
    a4ec:	00000021 	move	zero,zero
    a4f0:	00000021 	move	zero,zero
    a4f4:	00000021 	move	zero,zero
    a4f8:	00000021 	move	zero,zero
    a4fc:	00000021 	move	zero,zero
    a500:	00000021 	move	zero,zero
    a504:	00000021 	move	zero,zero
    a508:	00000021 	move	zero,zero
    a50c:	3c12a426 	lui	s2,0xa426
    a510:	36528ba0 	ori	s2,s2,0x8ba0
    a514:	001fa021 	addu	s4,zero,ra
    a518:	0015f821 	addu	ra,zero,s5
    a51c:	3c150001 	lui	s5,0x1
    a520:	26b5a474 	addiu	s5,s5,-23436
    a524:	3c160001 	lui	s6,0x1
    a528:	26d6a4bc 	addiu	s6,s6,-23364
    a52c:	3c18c233 	lui	t8,0xc233
    a530:	37189e20 	ori	t8,t8,0x9e20
    a534:	16181fb0 	bne	s0,t8,123f8 <inst_error>
    a538:	00000000 	nop
    a53c:	00000000 	nop
    a540:	3c18a426 	lui	t8,0xa426
    a544:	37188ba0 	ori	t8,t8,0x8ba0
    a548:	16581fab 	bne	s2,t8,123f8 <inst_error>
    a54c:	00000000 	nop
    a550:	00000000 	nop
    a554:	3c19bfc0 	lui	t9,0xbfc0
    a558:	3739633c 	ori	t9,t9,0x633c
    a55c:	3c18bfc0 	lui	t8,0xbfc0
    a560:	37186334 	ori	t8,t8,0x6334
    a564:	27180008 	addiu	t8,t8,8
    a568:	1319000a 	beq	t8,t9,a594 <n35_bltzal_test+0xa594>
    a56c:	00000000 	nop
    a570:	00000000 	nop
    a574:	3c18bfc0 	lui	t8,0xbfc0
    a578:	37186364 	ori	t8,t8,0x6364
    a57c:	27180008 	addiu	t8,t8,8
    a580:	1319000a 	beq	t8,t9,a5ac <n35_bltzal_test+0xa5ac>
    a584:	00000000 	nop
    a588:	10001f9b 	b	123f8 <inst_error>
    a58c:	00000000 	nop
    a590:	00000000 	nop
    a594:	26b50008 	addiu	s5,s5,8
    a598:	16951f97 	bne	s4,s5,123f8 <inst_error>
    a59c:	00000000 	nop
    a5a0:	10000006 	b	a5bc <n35_bltzal_test+0xa5bc>
    a5a4:	00000000 	nop
    a5a8:	00000000 	nop
    a5ac:	26d60008 	addiu	s6,s6,8
    a5b0:	16961f91 	bne	s4,s6,123f8 <inst_error>
    a5b4:	00000000 	nop
	...
    a5c0:	001fa821 	addu	s5,zero,ra
    a5c4:	3c0ca3d5 	lui	t4,0xa3d5
    a5c8:	358ca878 	ori	t4,t4,0xa878
    a5cc:	3c0d1727 	lui	t5,0x1727
    a5d0:	35adc53b 	ori	t5,t5,0xc53b
    a5d4:	24100000 	li	s0,0
    a5d8:	10000014 	b	a62c <n35_bltzal_test+0xa62c>
    a5dc:	24120000 	li	s2,0
    a5e0:	00000000 	nop
    a5e4:	3c10a3d5 	lui	s0,0xa3d5
    a5e8:	3610a878 	ori	s0,s0,0xa878
    a5ec:	05100025 	bltzal	t0,a684 <n35_bltzal_test+0xa684>
    a5f0:	00000000 	nop
    a5f4:	10000025 	b	a68c <n35_bltzal_test+0xa68c>
    a5f8:	00000000 	nop
    a5fc:	00000000 	nop
    a600:	00000021 	move	zero,zero
    a604:	00000021 	move	zero,zero
    a608:	00000021 	move	zero,zero
    a60c:	00000021 	move	zero,zero
    a610:	00000021 	move	zero,zero
    a614:	00000021 	move	zero,zero
    a618:	00000021 	move	zero,zero
    a61c:	00000021 	move	zero,zero
    a620:	00000021 	move	zero,zero
    a624:	00000021 	move	zero,zero
    a628:	00000021 	move	zero,zero
    a62c:	3c08ab39 	lui	t0,0xab39
    a630:	3508c2d2 	ori	t0,t0,0xc2d2
    a634:	0510ffeb 	bltzal	t0,a5e4 <n35_bltzal_test+0xa5e4>
    a638:	00000000 	nop
    a63c:	10000013 	b	a68c <n35_bltzal_test+0xa68c>
    a640:	00000000 	nop
    a644:	00000000 	nop
    a648:	00000021 	move	zero,zero
    a64c:	00000021 	move	zero,zero
    a650:	00000021 	move	zero,zero
    a654:	00000021 	move	zero,zero
    a658:	00000021 	move	zero,zero
    a65c:	00000021 	move	zero,zero
    a660:	00000021 	move	zero,zero
    a664:	00000021 	move	zero,zero
    a668:	00000021 	move	zero,zero
    a66c:	00000021 	move	zero,zero
    a670:	00000021 	move	zero,zero
    a674:	00000021 	move	zero,zero
    a678:	00000021 	move	zero,zero
    a67c:	00000021 	move	zero,zero
    a680:	00000021 	move	zero,zero
    a684:	3c121727 	lui	s2,0x1727
    a688:	3652c53b 	ori	s2,s2,0xc53b
    a68c:	001fa021 	addu	s4,zero,ra
    a690:	0015f821 	addu	ra,zero,s5
    a694:	3c150001 	lui	s5,0x1
    a698:	26b5a5ec 	addiu	s5,s5,-23060
    a69c:	3c160001 	lui	s6,0x1
    a6a0:	26d6a634 	addiu	s6,s6,-22988
    a6a4:	3c18a3d5 	lui	t8,0xa3d5
    a6a8:	3718a878 	ori	t8,t8,0xa878
    a6ac:	16181f52 	bne	s0,t8,123f8 <inst_error>
    a6b0:	00000000 	nop
    a6b4:	00000000 	nop
    a6b8:	3c181727 	lui	t8,0x1727
    a6bc:	3718c53b 	ori	t8,t8,0xc53b
    a6c0:	16581f4d 	bne	s2,t8,123f8 <inst_error>
    a6c4:	00000000 	nop
    a6c8:	00000000 	nop
    a6cc:	3c19bfc0 	lui	t9,0xbfc0
    a6d0:	37396414 	ori	t9,t9,0x6414
    a6d4:	3c18bfc0 	lui	t8,0xbfc0
    a6d8:	3718640c 	ori	t8,t8,0x640c
    a6dc:	27180008 	addiu	t8,t8,8
    a6e0:	1319000a 	beq	t8,t9,a70c <n35_bltzal_test+0xa70c>
    a6e4:	00000000 	nop
    a6e8:	00000000 	nop
    a6ec:	3c18bfc0 	lui	t8,0xbfc0
    a6f0:	3718643c 	ori	t8,t8,0x643c
    a6f4:	27180008 	addiu	t8,t8,8
    a6f8:	1319000a 	beq	t8,t9,a724 <n35_bltzal_test+0xa724>
    a6fc:	00000000 	nop
    a700:	10001f3d 	b	123f8 <inst_error>
    a704:	00000000 	nop
    a708:	00000000 	nop
    a70c:	26b50008 	addiu	s5,s5,8
    a710:	16951f39 	bne	s4,s5,123f8 <inst_error>
    a714:	00000000 	nop
    a718:	10000006 	b	a734 <n35_bltzal_test+0xa734>
    a71c:	00000000 	nop
    a720:	00000000 	nop
    a724:	26d60008 	addiu	s6,s6,8
    a728:	16961f33 	bne	s4,s6,123f8 <inst_error>
    a72c:	00000000 	nop
	...
    a738:	001fa821 	addu	s5,zero,ra
    a73c:	3c0cd183 	lui	t4,0xd183
    a740:	358c4712 	ori	t4,t4,0x4712
    a744:	3c0d81b9 	lui	t5,0x81b9
    a748:	35adb444 	ori	t5,t5,0xb444
    a74c:	24100000 	li	s0,0
    a750:	10000014 	b	a7a4 <n35_bltzal_test+0xa7a4>
    a754:	24120000 	li	s2,0
    a758:	00000000 	nop
    a75c:	3c10d183 	lui	s0,0xd183
    a760:	36104712 	ori	s0,s0,0x4712
    a764:	05100025 	bltzal	t0,a7fc <n35_bltzal_test+0xa7fc>
    a768:	00000000 	nop
    a76c:	10000025 	b	a804 <n35_bltzal_test+0xa804>
    a770:	00000000 	nop
    a774:	00000000 	nop
    a778:	00000021 	move	zero,zero
    a77c:	00000021 	move	zero,zero
    a780:	00000021 	move	zero,zero
    a784:	00000021 	move	zero,zero
    a788:	00000021 	move	zero,zero
    a78c:	00000021 	move	zero,zero
    a790:	00000021 	move	zero,zero
    a794:	00000021 	move	zero,zero
    a798:	00000021 	move	zero,zero
    a79c:	00000021 	move	zero,zero
    a7a0:	00000021 	move	zero,zero
    a7a4:	3c08be97 	lui	t0,0xbe97
    a7a8:	3508cbea 	ori	t0,t0,0xcbea
    a7ac:	0510ffeb 	bltzal	t0,a75c <n35_bltzal_test+0xa75c>
    a7b0:	00000000 	nop
    a7b4:	10000013 	b	a804 <n35_bltzal_test+0xa804>
    a7b8:	00000000 	nop
    a7bc:	00000000 	nop
    a7c0:	00000021 	move	zero,zero
    a7c4:	00000021 	move	zero,zero
    a7c8:	00000021 	move	zero,zero
    a7cc:	00000021 	move	zero,zero
    a7d0:	00000021 	move	zero,zero
    a7d4:	00000021 	move	zero,zero
    a7d8:	00000021 	move	zero,zero
    a7dc:	00000021 	move	zero,zero
    a7e0:	00000021 	move	zero,zero
    a7e4:	00000021 	move	zero,zero
    a7e8:	00000021 	move	zero,zero
    a7ec:	00000021 	move	zero,zero
    a7f0:	00000021 	move	zero,zero
    a7f4:	00000021 	move	zero,zero
    a7f8:	00000021 	move	zero,zero
    a7fc:	3c1281b9 	lui	s2,0x81b9
    a800:	3652b444 	ori	s2,s2,0xb444
    a804:	001fa021 	addu	s4,zero,ra
    a808:	0015f821 	addu	ra,zero,s5
    a80c:	3c150001 	lui	s5,0x1
    a810:	26b5a764 	addiu	s5,s5,-22684
    a814:	3c160001 	lui	s6,0x1
    a818:	26d6a7ac 	addiu	s6,s6,-22612
    a81c:	3c18d183 	lui	t8,0xd183
    a820:	37184712 	ori	t8,t8,0x4712
    a824:	16181ef4 	bne	s0,t8,123f8 <inst_error>
    a828:	00000000 	nop
    a82c:	00000000 	nop
    a830:	3c1881b9 	lui	t8,0x81b9
    a834:	3718b444 	ori	t8,t8,0xb444
    a838:	16581eef 	bne	s2,t8,123f8 <inst_error>
    a83c:	00000000 	nop
    a840:	00000000 	nop
    a844:	3c19bfc0 	lui	t9,0xbfc0
    a848:	373964ec 	ori	t9,t9,0x64ec
    a84c:	3c18bfc0 	lui	t8,0xbfc0
    a850:	371864e4 	ori	t8,t8,0x64e4
    a854:	27180008 	addiu	t8,t8,8
    a858:	1319000a 	beq	t8,t9,a884 <n35_bltzal_test+0xa884>
    a85c:	00000000 	nop
    a860:	00000000 	nop
    a864:	3c18bfc0 	lui	t8,0xbfc0
    a868:	37186514 	ori	t8,t8,0x6514
    a86c:	27180008 	addiu	t8,t8,8
    a870:	1319000a 	beq	t8,t9,a89c <n35_bltzal_test+0xa89c>
    a874:	00000000 	nop
    a878:	10001edf 	b	123f8 <inst_error>
    a87c:	00000000 	nop
    a880:	00000000 	nop
    a884:	26b50008 	addiu	s5,s5,8
    a888:	16951edb 	bne	s4,s5,123f8 <inst_error>
    a88c:	00000000 	nop
    a890:	10000006 	b	a8ac <n35_bltzal_test+0xa8ac>
    a894:	00000000 	nop
    a898:	00000000 	nop
    a89c:	26d60008 	addiu	s6,s6,8
    a8a0:	16961ed5 	bne	s4,s6,123f8 <inst_error>
    a8a4:	00000000 	nop
	...
    a8b0:	001fa821 	addu	s5,zero,ra
    a8b4:	3c0c58ed 	lui	t4,0x58ed
    a8b8:	358cca80 	ori	t4,t4,0xca80
    a8bc:	3c0de32f 	lui	t5,0xe32f
    a8c0:	35ad1c00 	ori	t5,t5,0x1c00
    a8c4:	24100000 	li	s0,0
    a8c8:	10000014 	b	a91c <n35_bltzal_test+0xa91c>
    a8cc:	24120000 	li	s2,0
    a8d0:	00000000 	nop
    a8d4:	3c1058ed 	lui	s0,0x58ed
    a8d8:	3610ca80 	ori	s0,s0,0xca80
    a8dc:	05100025 	bltzal	t0,a974 <n35_bltzal_test+0xa974>
    a8e0:	00000000 	nop
    a8e4:	10000025 	b	a97c <n35_bltzal_test+0xa97c>
    a8e8:	00000000 	nop
    a8ec:	00000000 	nop
    a8f0:	00000021 	move	zero,zero
    a8f4:	00000021 	move	zero,zero
    a8f8:	00000021 	move	zero,zero
    a8fc:	00000021 	move	zero,zero
    a900:	00000021 	move	zero,zero
    a904:	00000021 	move	zero,zero
    a908:	00000021 	move	zero,zero
    a90c:	00000021 	move	zero,zero
    a910:	00000021 	move	zero,zero
    a914:	00000021 	move	zero,zero
    a918:	00000021 	move	zero,zero
    a91c:	3c08ccbb 	lui	t0,0xccbb
    a920:	35086fe8 	ori	t0,t0,0x6fe8
    a924:	0510ffeb 	bltzal	t0,a8d4 <n35_bltzal_test+0xa8d4>
    a928:	00000000 	nop
    a92c:	10000013 	b	a97c <n35_bltzal_test+0xa97c>
    a930:	00000000 	nop
    a934:	00000000 	nop
    a938:	00000021 	move	zero,zero
    a93c:	00000021 	move	zero,zero
    a940:	00000021 	move	zero,zero
    a944:	00000021 	move	zero,zero
    a948:	00000021 	move	zero,zero
    a94c:	00000021 	move	zero,zero
    a950:	00000021 	move	zero,zero
    a954:	00000021 	move	zero,zero
    a958:	00000021 	move	zero,zero
    a95c:	00000021 	move	zero,zero
    a960:	00000021 	move	zero,zero
    a964:	00000021 	move	zero,zero
    a968:	00000021 	move	zero,zero
    a96c:	00000021 	move	zero,zero
    a970:	00000021 	move	zero,zero
    a974:	3c12e32f 	lui	s2,0xe32f
    a978:	36521c00 	ori	s2,s2,0x1c00
    a97c:	001fa021 	addu	s4,zero,ra
    a980:	0015f821 	addu	ra,zero,s5
    a984:	3c150001 	lui	s5,0x1
    a988:	26b5a8dc 	addiu	s5,s5,-22308
    a98c:	3c160001 	lui	s6,0x1
    a990:	26d6a924 	addiu	s6,s6,-22236
    a994:	3c1858ed 	lui	t8,0x58ed
    a998:	3718ca80 	ori	t8,t8,0xca80
    a99c:	16181e96 	bne	s0,t8,123f8 <inst_error>
    a9a0:	00000000 	nop
    a9a4:	00000000 	nop
    a9a8:	3c18e32f 	lui	t8,0xe32f
    a9ac:	37181c00 	ori	t8,t8,0x1c00
    a9b0:	16581e91 	bne	s2,t8,123f8 <inst_error>
    a9b4:	00000000 	nop
    a9b8:	00000000 	nop
    a9bc:	3c19bfc0 	lui	t9,0xbfc0
    a9c0:	373965c4 	ori	t9,t9,0x65c4
    a9c4:	3c18bfc0 	lui	t8,0xbfc0
    a9c8:	371865bc 	ori	t8,t8,0x65bc
    a9cc:	27180008 	addiu	t8,t8,8
    a9d0:	1319000a 	beq	t8,t9,a9fc <n35_bltzal_test+0xa9fc>
    a9d4:	00000000 	nop
    a9d8:	00000000 	nop
    a9dc:	3c18bfc0 	lui	t8,0xbfc0
    a9e0:	371865ec 	ori	t8,t8,0x65ec
    a9e4:	27180008 	addiu	t8,t8,8
    a9e8:	1319000a 	beq	t8,t9,aa14 <n35_bltzal_test+0xaa14>
    a9ec:	00000000 	nop
    a9f0:	10001e81 	b	123f8 <inst_error>
    a9f4:	00000000 	nop
    a9f8:	00000000 	nop
    a9fc:	26b50008 	addiu	s5,s5,8
    aa00:	16951e7d 	bne	s4,s5,123f8 <inst_error>
    aa04:	00000000 	nop
    aa08:	10000006 	b	aa24 <n35_bltzal_test+0xaa24>
    aa0c:	00000000 	nop
    aa10:	00000000 	nop
    aa14:	26d60008 	addiu	s6,s6,8
    aa18:	16961e77 	bne	s4,s6,123f8 <inst_error>
    aa1c:	00000000 	nop
	...
    aa28:	001fa821 	addu	s5,zero,ra
    aa2c:	3c0c05b8 	lui	t4,0x5b8
    aa30:	358c1cc8 	ori	t4,t4,0x1cc8
    aa34:	3c0d5dc2 	lui	t5,0x5dc2
    aa38:	35ad535b 	ori	t5,t5,0x535b
    aa3c:	24100000 	li	s0,0
    aa40:	10000014 	b	aa94 <n35_bltzal_test+0xaa94>
    aa44:	24120000 	li	s2,0
    aa48:	00000000 	nop
    aa4c:	3c1005b8 	lui	s0,0x5b8
    aa50:	36101cc8 	ori	s0,s0,0x1cc8
    aa54:	05100025 	bltzal	t0,aaec <n35_bltzal_test+0xaaec>
    aa58:	00000000 	nop
    aa5c:	10000025 	b	aaf4 <n35_bltzal_test+0xaaf4>
    aa60:	00000000 	nop
    aa64:	00000000 	nop
    aa68:	00000021 	move	zero,zero
    aa6c:	00000021 	move	zero,zero
    aa70:	00000021 	move	zero,zero
    aa74:	00000021 	move	zero,zero
    aa78:	00000021 	move	zero,zero
    aa7c:	00000021 	move	zero,zero
    aa80:	00000021 	move	zero,zero
    aa84:	00000021 	move	zero,zero
    aa88:	00000021 	move	zero,zero
    aa8c:	00000021 	move	zero,zero
    aa90:	00000021 	move	zero,zero
    aa94:	3c08ca82 	lui	t0,0xca82
    aa98:	350892c0 	ori	t0,t0,0x92c0
    aa9c:	0510ffeb 	bltzal	t0,aa4c <n35_bltzal_test+0xaa4c>
    aaa0:	00000000 	nop
    aaa4:	10000013 	b	aaf4 <n35_bltzal_test+0xaaf4>
    aaa8:	00000000 	nop
    aaac:	00000000 	nop
    aab0:	00000021 	move	zero,zero
    aab4:	00000021 	move	zero,zero
    aab8:	00000021 	move	zero,zero
    aabc:	00000021 	move	zero,zero
    aac0:	00000021 	move	zero,zero
    aac4:	00000021 	move	zero,zero
    aac8:	00000021 	move	zero,zero
    aacc:	00000021 	move	zero,zero
    aad0:	00000021 	move	zero,zero
    aad4:	00000021 	move	zero,zero
    aad8:	00000021 	move	zero,zero
    aadc:	00000021 	move	zero,zero
    aae0:	00000021 	move	zero,zero
    aae4:	00000021 	move	zero,zero
    aae8:	00000021 	move	zero,zero
    aaec:	3c125dc2 	lui	s2,0x5dc2
    aaf0:	3652535b 	ori	s2,s2,0x535b
    aaf4:	001fa021 	addu	s4,zero,ra
    aaf8:	0015f821 	addu	ra,zero,s5
    aafc:	3c150001 	lui	s5,0x1
    ab00:	26b5aa54 	addiu	s5,s5,-21932
    ab04:	3c160001 	lui	s6,0x1
    ab08:	26d6aa9c 	addiu	s6,s6,-21860
    ab0c:	3c1805b8 	lui	t8,0x5b8
    ab10:	37181cc8 	ori	t8,t8,0x1cc8
    ab14:	16181e38 	bne	s0,t8,123f8 <inst_error>
    ab18:	00000000 	nop
    ab1c:	00000000 	nop
    ab20:	3c185dc2 	lui	t8,0x5dc2
    ab24:	3718535b 	ori	t8,t8,0x535b
    ab28:	16581e33 	bne	s2,t8,123f8 <inst_error>
    ab2c:	00000000 	nop
    ab30:	00000000 	nop
    ab34:	3c19bfc0 	lui	t9,0xbfc0
    ab38:	3739669c 	ori	t9,t9,0x669c
    ab3c:	3c18bfc0 	lui	t8,0xbfc0
    ab40:	37186694 	ori	t8,t8,0x6694
    ab44:	27180008 	addiu	t8,t8,8
    ab48:	1319000a 	beq	t8,t9,ab74 <n35_bltzal_test+0xab74>
    ab4c:	00000000 	nop
    ab50:	00000000 	nop
    ab54:	3c18bfc0 	lui	t8,0xbfc0
    ab58:	371866c4 	ori	t8,t8,0x66c4
    ab5c:	27180008 	addiu	t8,t8,8
    ab60:	1319000a 	beq	t8,t9,ab8c <n35_bltzal_test+0xab8c>
    ab64:	00000000 	nop
    ab68:	10001e23 	b	123f8 <inst_error>
    ab6c:	00000000 	nop
    ab70:	00000000 	nop
    ab74:	26b50008 	addiu	s5,s5,8
    ab78:	16951e1f 	bne	s4,s5,123f8 <inst_error>
    ab7c:	00000000 	nop
    ab80:	10000006 	b	ab9c <n35_bltzal_test+0xab9c>
    ab84:	00000000 	nop
    ab88:	00000000 	nop
    ab8c:	26d60008 	addiu	s6,s6,8
    ab90:	16961e19 	bne	s4,s6,123f8 <inst_error>
    ab94:	00000000 	nop
	...
    aba0:	001fa821 	addu	s5,zero,ra
    aba4:	3c0c5745 	lui	t4,0x5745
    aba8:	358cc9ac 	ori	t4,t4,0xc9ac
    abac:	3c0d559f 	lui	t5,0x559f
    abb0:	35ad39ac 	ori	t5,t5,0x39ac
    abb4:	24100000 	li	s0,0
    abb8:	10000014 	b	ac0c <n35_bltzal_test+0xac0c>
    abbc:	24120000 	li	s2,0
    abc0:	00000000 	nop
    abc4:	3c105745 	lui	s0,0x5745
    abc8:	3610c9ac 	ori	s0,s0,0xc9ac
    abcc:	05100025 	bltzal	t0,ac64 <n35_bltzal_test+0xac64>
    abd0:	00000000 	nop
    abd4:	10000025 	b	ac6c <n35_bltzal_test+0xac6c>
    abd8:	00000000 	nop
    abdc:	00000000 	nop
    abe0:	00000021 	move	zero,zero
    abe4:	00000021 	move	zero,zero
    abe8:	00000021 	move	zero,zero
    abec:	00000021 	move	zero,zero
    abf0:	00000021 	move	zero,zero
    abf4:	00000021 	move	zero,zero
    abf8:	00000021 	move	zero,zero
    abfc:	00000021 	move	zero,zero
    ac00:	00000021 	move	zero,zero
    ac04:	00000021 	move	zero,zero
    ac08:	00000021 	move	zero,zero
    ac0c:	3c088721 	lui	t0,0x8721
    ac10:	35086bb1 	ori	t0,t0,0x6bb1
    ac14:	0510ffeb 	bltzal	t0,abc4 <n35_bltzal_test+0xabc4>
    ac18:	00000000 	nop
    ac1c:	10000013 	b	ac6c <n35_bltzal_test+0xac6c>
    ac20:	00000000 	nop
    ac24:	00000000 	nop
    ac28:	00000021 	move	zero,zero
    ac2c:	00000021 	move	zero,zero
    ac30:	00000021 	move	zero,zero
    ac34:	00000021 	move	zero,zero
    ac38:	00000021 	move	zero,zero
    ac3c:	00000021 	move	zero,zero
    ac40:	00000021 	move	zero,zero
    ac44:	00000021 	move	zero,zero
    ac48:	00000021 	move	zero,zero
    ac4c:	00000021 	move	zero,zero
    ac50:	00000021 	move	zero,zero
    ac54:	00000021 	move	zero,zero
    ac58:	00000021 	move	zero,zero
    ac5c:	00000021 	move	zero,zero
    ac60:	00000021 	move	zero,zero
    ac64:	3c12559f 	lui	s2,0x559f
    ac68:	365239ac 	ori	s2,s2,0x39ac
    ac6c:	001fa021 	addu	s4,zero,ra
    ac70:	0015f821 	addu	ra,zero,s5
    ac74:	3c150001 	lui	s5,0x1
    ac78:	26b5abcc 	addiu	s5,s5,-21556
    ac7c:	3c160001 	lui	s6,0x1
    ac80:	26d6ac14 	addiu	s6,s6,-21484
    ac84:	3c185745 	lui	t8,0x5745
    ac88:	3718c9ac 	ori	t8,t8,0xc9ac
    ac8c:	16181dda 	bne	s0,t8,123f8 <inst_error>
    ac90:	00000000 	nop
    ac94:	00000000 	nop
    ac98:	3c18559f 	lui	t8,0x559f
    ac9c:	371839ac 	ori	t8,t8,0x39ac
    aca0:	16581dd5 	bne	s2,t8,123f8 <inst_error>
    aca4:	00000000 	nop
    aca8:	00000000 	nop
    acac:	3c19bfc0 	lui	t9,0xbfc0
    acb0:	37396774 	ori	t9,t9,0x6774
    acb4:	3c18bfc0 	lui	t8,0xbfc0
    acb8:	3718676c 	ori	t8,t8,0x676c
    acbc:	27180008 	addiu	t8,t8,8
    acc0:	1319000a 	beq	t8,t9,acec <n35_bltzal_test+0xacec>
    acc4:	00000000 	nop
    acc8:	00000000 	nop
    accc:	3c18bfc0 	lui	t8,0xbfc0
    acd0:	3718679c 	ori	t8,t8,0x679c
    acd4:	27180008 	addiu	t8,t8,8
    acd8:	1319000a 	beq	t8,t9,ad04 <n35_bltzal_test+0xad04>
    acdc:	00000000 	nop
    ace0:	10001dc5 	b	123f8 <inst_error>
    ace4:	00000000 	nop
    ace8:	00000000 	nop
    acec:	26b50008 	addiu	s5,s5,8
    acf0:	16951dc1 	bne	s4,s5,123f8 <inst_error>
    acf4:	00000000 	nop
    acf8:	10000006 	b	ad14 <n35_bltzal_test+0xad14>
    acfc:	00000000 	nop
    ad00:	00000000 	nop
    ad04:	26d60008 	addiu	s6,s6,8
    ad08:	16961dbb 	bne	s4,s6,123f8 <inst_error>
    ad0c:	00000000 	nop
	...
    ad18:	001fa821 	addu	s5,zero,ra
    ad1c:	3c0cbd2e 	lui	t4,0xbd2e
    ad20:	358c3330 	ori	t4,t4,0x3330
    ad24:	3c0d48ee 	lui	t5,0x48ee
    ad28:	35adaa30 	ori	t5,t5,0xaa30
    ad2c:	24100000 	li	s0,0
    ad30:	10000014 	b	ad84 <n35_bltzal_test+0xad84>
    ad34:	24120000 	li	s2,0
    ad38:	00000000 	nop
    ad3c:	3c10bd2e 	lui	s0,0xbd2e
    ad40:	36103330 	ori	s0,s0,0x3330
    ad44:	05100025 	bltzal	t0,addc <n35_bltzal_test+0xaddc>
    ad48:	00000000 	nop
    ad4c:	10000025 	b	ade4 <n35_bltzal_test+0xade4>
    ad50:	00000000 	nop
    ad54:	00000000 	nop
    ad58:	00000021 	move	zero,zero
    ad5c:	00000021 	move	zero,zero
    ad60:	00000021 	move	zero,zero
    ad64:	00000021 	move	zero,zero
    ad68:	00000021 	move	zero,zero
    ad6c:	00000021 	move	zero,zero
    ad70:	00000021 	move	zero,zero
    ad74:	00000021 	move	zero,zero
    ad78:	00000021 	move	zero,zero
    ad7c:	00000021 	move	zero,zero
    ad80:	00000021 	move	zero,zero
    ad84:	3c08c466 	lui	t0,0xc466
    ad88:	35080448 	ori	t0,t0,0x448
    ad8c:	0510ffeb 	bltzal	t0,ad3c <n35_bltzal_test+0xad3c>
    ad90:	00000000 	nop
    ad94:	10000013 	b	ade4 <n35_bltzal_test+0xade4>
    ad98:	00000000 	nop
    ad9c:	00000000 	nop
    ada0:	00000021 	move	zero,zero
    ada4:	00000021 	move	zero,zero
    ada8:	00000021 	move	zero,zero
    adac:	00000021 	move	zero,zero
    adb0:	00000021 	move	zero,zero
    adb4:	00000021 	move	zero,zero
    adb8:	00000021 	move	zero,zero
    adbc:	00000021 	move	zero,zero
    adc0:	00000021 	move	zero,zero
    adc4:	00000021 	move	zero,zero
    adc8:	00000021 	move	zero,zero
    adcc:	00000021 	move	zero,zero
    add0:	00000021 	move	zero,zero
    add4:	00000021 	move	zero,zero
    add8:	00000021 	move	zero,zero
    addc:	3c1248ee 	lui	s2,0x48ee
    ade0:	3652aa30 	ori	s2,s2,0xaa30
    ade4:	001fa021 	addu	s4,zero,ra
    ade8:	0015f821 	addu	ra,zero,s5
    adec:	3c150001 	lui	s5,0x1
    adf0:	26b5ad44 	addiu	s5,s5,-21180
    adf4:	3c160001 	lui	s6,0x1
    adf8:	26d6ad8c 	addiu	s6,s6,-21108
    adfc:	3c18bd2e 	lui	t8,0xbd2e
    ae00:	37183330 	ori	t8,t8,0x3330
    ae04:	16181d7c 	bne	s0,t8,123f8 <inst_error>
    ae08:	00000000 	nop
    ae0c:	00000000 	nop
    ae10:	3c1848ee 	lui	t8,0x48ee
    ae14:	3718aa30 	ori	t8,t8,0xaa30
    ae18:	16581d77 	bne	s2,t8,123f8 <inst_error>
    ae1c:	00000000 	nop
    ae20:	00000000 	nop
    ae24:	3c19bfc0 	lui	t9,0xbfc0
    ae28:	3739684c 	ori	t9,t9,0x684c
    ae2c:	3c18bfc0 	lui	t8,0xbfc0
    ae30:	37186844 	ori	t8,t8,0x6844
    ae34:	27180008 	addiu	t8,t8,8
    ae38:	1319000a 	beq	t8,t9,ae64 <n35_bltzal_test+0xae64>
    ae3c:	00000000 	nop
    ae40:	00000000 	nop
    ae44:	3c18bfc0 	lui	t8,0xbfc0
    ae48:	37186874 	ori	t8,t8,0x6874
    ae4c:	27180008 	addiu	t8,t8,8
    ae50:	1319000a 	beq	t8,t9,ae7c <n35_bltzal_test+0xae7c>
    ae54:	00000000 	nop
    ae58:	10001d67 	b	123f8 <inst_error>
    ae5c:	00000000 	nop
    ae60:	00000000 	nop
    ae64:	26b50008 	addiu	s5,s5,8
    ae68:	16951d63 	bne	s4,s5,123f8 <inst_error>
    ae6c:	00000000 	nop
    ae70:	10000006 	b	ae8c <n35_bltzal_test+0xae8c>
    ae74:	00000000 	nop
    ae78:	00000000 	nop
    ae7c:	26d60008 	addiu	s6,s6,8
    ae80:	16961d5d 	bne	s4,s6,123f8 <inst_error>
    ae84:	00000000 	nop
	...
    ae90:	001fa821 	addu	s5,zero,ra
    ae94:	3c0c6c6e 	lui	t4,0x6c6e
    ae98:	358cfe6f 	ori	t4,t4,0xfe6f
    ae9c:	3c0d8789 	lui	t5,0x8789
    aea0:	35ad08f7 	ori	t5,t5,0x8f7
    aea4:	24100000 	li	s0,0
    aea8:	10000014 	b	aefc <n35_bltzal_test+0xaefc>
    aeac:	24120000 	li	s2,0
    aeb0:	00000000 	nop
    aeb4:	3c106c6e 	lui	s0,0x6c6e
    aeb8:	3610fe6f 	ori	s0,s0,0xfe6f
    aebc:	05100025 	bltzal	t0,af54 <n35_bltzal_test+0xaf54>
    aec0:	00000000 	nop
    aec4:	10000025 	b	af5c <n35_bltzal_test+0xaf5c>
    aec8:	00000000 	nop
    aecc:	00000000 	nop
    aed0:	00000021 	move	zero,zero
    aed4:	00000021 	move	zero,zero
    aed8:	00000021 	move	zero,zero
    aedc:	00000021 	move	zero,zero
    aee0:	00000021 	move	zero,zero
    aee4:	00000021 	move	zero,zero
    aee8:	00000021 	move	zero,zero
    aeec:	00000021 	move	zero,zero
    aef0:	00000021 	move	zero,zero
    aef4:	00000021 	move	zero,zero
    aef8:	00000021 	move	zero,zero
    aefc:	3c08443f 	lui	t0,0x443f
    af00:	3508f57c 	ori	t0,t0,0xf57c
    af04:	0510ffeb 	bltzal	t0,aeb4 <n35_bltzal_test+0xaeb4>
    af08:	00000000 	nop
    af0c:	10000013 	b	af5c <n35_bltzal_test+0xaf5c>
    af10:	00000000 	nop
    af14:	00000000 	nop
    af18:	00000021 	move	zero,zero
    af1c:	00000021 	move	zero,zero
    af20:	00000021 	move	zero,zero
    af24:	00000021 	move	zero,zero
    af28:	00000021 	move	zero,zero
    af2c:	00000021 	move	zero,zero
    af30:	00000021 	move	zero,zero
    af34:	00000021 	move	zero,zero
    af38:	00000021 	move	zero,zero
    af3c:	00000021 	move	zero,zero
    af40:	00000021 	move	zero,zero
    af44:	00000021 	move	zero,zero
    af48:	00000021 	move	zero,zero
    af4c:	00000021 	move	zero,zero
    af50:	00000021 	move	zero,zero
    af54:	3c128789 	lui	s2,0x8789
    af58:	365208f7 	ori	s2,s2,0x8f7
    af5c:	001fa021 	addu	s4,zero,ra
    af60:	0015f821 	addu	ra,zero,s5
    af64:	3c150001 	lui	s5,0x1
    af68:	26b5aebc 	addiu	s5,s5,-20804
    af6c:	3c160001 	lui	s6,0x1
    af70:	26d6af04 	addiu	s6,s6,-20732
    af74:	24180000 	li	t8,0
    af78:	16181d1f 	bne	s0,t8,123f8 <inst_error>
    af7c:	00000000 	nop
    af80:	00000000 	nop
    af84:	24180000 	li	t8,0
    af88:	16581d1b 	bne	s2,t8,123f8 <inst_error>
    af8c:	00000000 	nop
    af90:	00000000 	nop
    af94:	3c19bfc0 	lui	t9,0xbfc0
    af98:	37396954 	ori	t9,t9,0x6954
    af9c:	3c18bfc0 	lui	t8,0xbfc0
    afa0:	3718691c 	ori	t8,t8,0x691c
    afa4:	27180008 	addiu	t8,t8,8
    afa8:	1319000a 	beq	t8,t9,afd4 <n35_bltzal_test+0xafd4>
    afac:	00000000 	nop
    afb0:	00000000 	nop
    afb4:	3c18bfc0 	lui	t8,0xbfc0
    afb8:	3718694c 	ori	t8,t8,0x694c
    afbc:	27180008 	addiu	t8,t8,8
    afc0:	1319000a 	beq	t8,t9,afec <n35_bltzal_test+0xafec>
    afc4:	00000000 	nop
    afc8:	10001d0b 	b	123f8 <inst_error>
    afcc:	00000000 	nop
    afd0:	00000000 	nop
    afd4:	26b50008 	addiu	s5,s5,8
    afd8:	16951d07 	bne	s4,s5,123f8 <inst_error>
    afdc:	00000000 	nop
    afe0:	10000006 	b	affc <n35_bltzal_test+0xaffc>
    afe4:	00000000 	nop
    afe8:	00000000 	nop
    afec:	26d60008 	addiu	s6,s6,8
    aff0:	16961d01 	bne	s4,s6,123f8 <inst_error>
    aff4:	00000000 	nop
	...
    b000:	001fa821 	addu	s5,zero,ra
    b004:	3c0ce061 	lui	t4,0xe061
    b008:	358c1dfc 	ori	t4,t4,0x1dfc
    b00c:	3c0d9f03 	lui	t5,0x9f03
    b010:	35ad1122 	ori	t5,t5,0x1122
    b014:	24100000 	li	s0,0
    b018:	10000014 	b	b06c <n35_bltzal_test+0xb06c>
    b01c:	24120000 	li	s2,0
    b020:	00000000 	nop
    b024:	3c10e061 	lui	s0,0xe061
    b028:	36101dfc 	ori	s0,s0,0x1dfc
    b02c:	05100025 	bltzal	t0,b0c4 <n35_bltzal_test+0xb0c4>
    b030:	00000000 	nop
    b034:	10000025 	b	b0cc <n35_bltzal_test+0xb0cc>
    b038:	00000000 	nop
    b03c:	00000000 	nop
    b040:	00000021 	move	zero,zero
    b044:	00000021 	move	zero,zero
    b048:	00000021 	move	zero,zero
    b04c:	00000021 	move	zero,zero
    b050:	00000021 	move	zero,zero
    b054:	00000021 	move	zero,zero
    b058:	00000021 	move	zero,zero
    b05c:	00000021 	move	zero,zero
    b060:	00000021 	move	zero,zero
    b064:	00000021 	move	zero,zero
    b068:	00000021 	move	zero,zero
    b06c:	3c087d6e 	lui	t0,0x7d6e
    b070:	3508e738 	ori	t0,t0,0xe738
    b074:	0510ffeb 	bltzal	t0,b024 <n35_bltzal_test+0xb024>
    b078:	00000000 	nop
    b07c:	10000013 	b	b0cc <n35_bltzal_test+0xb0cc>
    b080:	00000000 	nop
    b084:	00000000 	nop
    b088:	00000021 	move	zero,zero
    b08c:	00000021 	move	zero,zero
    b090:	00000021 	move	zero,zero
    b094:	00000021 	move	zero,zero
    b098:	00000021 	move	zero,zero
    b09c:	00000021 	move	zero,zero
    b0a0:	00000021 	move	zero,zero
    b0a4:	00000021 	move	zero,zero
    b0a8:	00000021 	move	zero,zero
    b0ac:	00000021 	move	zero,zero
    b0b0:	00000021 	move	zero,zero
    b0b4:	00000021 	move	zero,zero
    b0b8:	00000021 	move	zero,zero
    b0bc:	00000021 	move	zero,zero
    b0c0:	00000021 	move	zero,zero
    b0c4:	3c129f03 	lui	s2,0x9f03
    b0c8:	36521122 	ori	s2,s2,0x1122
    b0cc:	001fa021 	addu	s4,zero,ra
    b0d0:	0015f821 	addu	ra,zero,s5
    b0d4:	3c150001 	lui	s5,0x1
    b0d8:	26b5b02c 	addiu	s5,s5,-20436
    b0dc:	3c160001 	lui	s6,0x1
    b0e0:	26d6b074 	addiu	s6,s6,-20364
    b0e4:	24180000 	li	t8,0
    b0e8:	16181cc3 	bne	s0,t8,123f8 <inst_error>
    b0ec:	00000000 	nop
    b0f0:	00000000 	nop
    b0f4:	24180000 	li	t8,0
    b0f8:	16581cbf 	bne	s2,t8,123f8 <inst_error>
    b0fc:	00000000 	nop
    b100:	00000000 	nop
    b104:	3c19bfc0 	lui	t9,0xbfc0
    b108:	37396a2c 	ori	t9,t9,0x6a2c
    b10c:	3c18bfc0 	lui	t8,0xbfc0
    b110:	371869f4 	ori	t8,t8,0x69f4
    b114:	27180008 	addiu	t8,t8,8
    b118:	1319000a 	beq	t8,t9,b144 <n35_bltzal_test+0xb144>
    b11c:	00000000 	nop
    b120:	00000000 	nop
    b124:	3c18bfc0 	lui	t8,0xbfc0
    b128:	37186a24 	ori	t8,t8,0x6a24
    b12c:	27180008 	addiu	t8,t8,8
    b130:	1319000a 	beq	t8,t9,b15c <n35_bltzal_test+0xb15c>
    b134:	00000000 	nop
    b138:	10001caf 	b	123f8 <inst_error>
    b13c:	00000000 	nop
    b140:	00000000 	nop
    b144:	26b50008 	addiu	s5,s5,8
    b148:	16951cab 	bne	s4,s5,123f8 <inst_error>
    b14c:	00000000 	nop
    b150:	10000006 	b	b16c <n35_bltzal_test+0xb16c>
    b154:	00000000 	nop
    b158:	00000000 	nop
    b15c:	26d60008 	addiu	s6,s6,8
    b160:	16961ca5 	bne	s4,s6,123f8 <inst_error>
    b164:	00000000 	nop
	...
    b170:	001fa821 	addu	s5,zero,ra
    b174:	3c0c7d24 	lui	t4,0x7d24
    b178:	358c7ed0 	ori	t4,t4,0x7ed0
    b17c:	3c0df572 	lui	t5,0xf572
    b180:	35ad2c22 	ori	t5,t5,0x2c22
    b184:	24100000 	li	s0,0
    b188:	10000014 	b	b1dc <n35_bltzal_test+0xb1dc>
    b18c:	24120000 	li	s2,0
    b190:	00000000 	nop
    b194:	3c107d24 	lui	s0,0x7d24
    b198:	36107ed0 	ori	s0,s0,0x7ed0
    b19c:	05100025 	bltzal	t0,b234 <n35_bltzal_test+0xb234>
    b1a0:	00000000 	nop
    b1a4:	10000025 	b	b23c <n35_bltzal_test+0xb23c>
    b1a8:	00000000 	nop
    b1ac:	00000000 	nop
    b1b0:	00000021 	move	zero,zero
    b1b4:	00000021 	move	zero,zero
    b1b8:	00000021 	move	zero,zero
    b1bc:	00000021 	move	zero,zero
    b1c0:	00000021 	move	zero,zero
    b1c4:	00000021 	move	zero,zero
    b1c8:	00000021 	move	zero,zero
    b1cc:	00000021 	move	zero,zero
    b1d0:	00000021 	move	zero,zero
    b1d4:	00000021 	move	zero,zero
    b1d8:	00000021 	move	zero,zero
    b1dc:	3c08d3d1 	lui	t0,0xd3d1
    b1e0:	35080d4d 	ori	t0,t0,0xd4d
    b1e4:	0510ffeb 	bltzal	t0,b194 <n35_bltzal_test+0xb194>
    b1e8:	00000000 	nop
    b1ec:	10000013 	b	b23c <n35_bltzal_test+0xb23c>
    b1f0:	00000000 	nop
    b1f4:	00000000 	nop
    b1f8:	00000021 	move	zero,zero
    b1fc:	00000021 	move	zero,zero
    b200:	00000021 	move	zero,zero
    b204:	00000021 	move	zero,zero
    b208:	00000021 	move	zero,zero
    b20c:	00000021 	move	zero,zero
    b210:	00000021 	move	zero,zero
    b214:	00000021 	move	zero,zero
    b218:	00000021 	move	zero,zero
    b21c:	00000021 	move	zero,zero
    b220:	00000021 	move	zero,zero
    b224:	00000021 	move	zero,zero
    b228:	00000021 	move	zero,zero
    b22c:	00000021 	move	zero,zero
    b230:	00000021 	move	zero,zero
    b234:	3c12f572 	lui	s2,0xf572
    b238:	36522c22 	ori	s2,s2,0x2c22
    b23c:	001fa021 	addu	s4,zero,ra
    b240:	0015f821 	addu	ra,zero,s5
    b244:	3c150001 	lui	s5,0x1
    b248:	26b5b19c 	addiu	s5,s5,-20068
    b24c:	3c160001 	lui	s6,0x1
    b250:	26d6b1e4 	addiu	s6,s6,-19996
    b254:	3c187d24 	lui	t8,0x7d24
    b258:	37187ed0 	ori	t8,t8,0x7ed0
    b25c:	16181c66 	bne	s0,t8,123f8 <inst_error>
    b260:	00000000 	nop
    b264:	00000000 	nop
    b268:	3c18f572 	lui	t8,0xf572
    b26c:	37182c22 	ori	t8,t8,0x2c22
    b270:	16581c61 	bne	s2,t8,123f8 <inst_error>
    b274:	00000000 	nop
    b278:	00000000 	nop
    b27c:	3c19bfc0 	lui	t9,0xbfc0
    b280:	37396ad4 	ori	t9,t9,0x6ad4
    b284:	3c18bfc0 	lui	t8,0xbfc0
    b288:	37186acc 	ori	t8,t8,0x6acc
    b28c:	27180008 	addiu	t8,t8,8
    b290:	1319000a 	beq	t8,t9,b2bc <n35_bltzal_test+0xb2bc>
    b294:	00000000 	nop
    b298:	00000000 	nop
    b29c:	3c18bfc0 	lui	t8,0xbfc0
    b2a0:	37186afc 	ori	t8,t8,0x6afc
    b2a4:	27180008 	addiu	t8,t8,8
    b2a8:	1319000a 	beq	t8,t9,b2d4 <n35_bltzal_test+0xb2d4>
    b2ac:	00000000 	nop
    b2b0:	10001c51 	b	123f8 <inst_error>
    b2b4:	00000000 	nop
    b2b8:	00000000 	nop
    b2bc:	26b50008 	addiu	s5,s5,8
    b2c0:	16951c4d 	bne	s4,s5,123f8 <inst_error>
    b2c4:	00000000 	nop
    b2c8:	10000006 	b	b2e4 <n35_bltzal_test+0xb2e4>
    b2cc:	00000000 	nop
    b2d0:	00000000 	nop
    b2d4:	26d60008 	addiu	s6,s6,8
    b2d8:	16961c47 	bne	s4,s6,123f8 <inst_error>
    b2dc:	00000000 	nop
	...
    b2e8:	001fa821 	addu	s5,zero,ra
    b2ec:	3c0c820b 	lui	t4,0x820b
    b2f0:	358c11fe 	ori	t4,t4,0x11fe
    b2f4:	3c0ddc05 	lui	t5,0xdc05
    b2f8:	35ad404a 	ori	t5,t5,0x404a
    b2fc:	24100000 	li	s0,0
    b300:	10000014 	b	b354 <n35_bltzal_test+0xb354>
    b304:	24120000 	li	s2,0
    b308:	00000000 	nop
    b30c:	3c10820b 	lui	s0,0x820b
    b310:	361011fe 	ori	s0,s0,0x11fe
    b314:	05100025 	bltzal	t0,b3ac <n35_bltzal_test+0xb3ac>
    b318:	00000000 	nop
    b31c:	10000025 	b	b3b4 <n35_bltzal_test+0xb3b4>
    b320:	00000000 	nop
    b324:	00000000 	nop
    b328:	00000021 	move	zero,zero
    b32c:	00000021 	move	zero,zero
    b330:	00000021 	move	zero,zero
    b334:	00000021 	move	zero,zero
    b338:	00000021 	move	zero,zero
    b33c:	00000021 	move	zero,zero
    b340:	00000021 	move	zero,zero
    b344:	00000021 	move	zero,zero
    b348:	00000021 	move	zero,zero
    b34c:	00000021 	move	zero,zero
    b350:	00000021 	move	zero,zero
    b354:	3c081f94 	lui	t0,0x1f94
    b358:	35089120 	ori	t0,t0,0x9120
    b35c:	0510ffeb 	bltzal	t0,b30c <n35_bltzal_test+0xb30c>
    b360:	00000000 	nop
    b364:	10000013 	b	b3b4 <n35_bltzal_test+0xb3b4>
    b368:	00000000 	nop
    b36c:	00000000 	nop
    b370:	00000021 	move	zero,zero
    b374:	00000021 	move	zero,zero
    b378:	00000021 	move	zero,zero
    b37c:	00000021 	move	zero,zero
    b380:	00000021 	move	zero,zero
    b384:	00000021 	move	zero,zero
    b388:	00000021 	move	zero,zero
    b38c:	00000021 	move	zero,zero
    b390:	00000021 	move	zero,zero
    b394:	00000021 	move	zero,zero
    b398:	00000021 	move	zero,zero
    b39c:	00000021 	move	zero,zero
    b3a0:	00000021 	move	zero,zero
    b3a4:	00000021 	move	zero,zero
    b3a8:	00000021 	move	zero,zero
    b3ac:	3c12dc05 	lui	s2,0xdc05
    b3b0:	3652404a 	ori	s2,s2,0x404a
    b3b4:	001fa021 	addu	s4,zero,ra
    b3b8:	0015f821 	addu	ra,zero,s5
    b3bc:	3c150001 	lui	s5,0x1
    b3c0:	26b5b314 	addiu	s5,s5,-19692
    b3c4:	3c160001 	lui	s6,0x1
    b3c8:	26d6b35c 	addiu	s6,s6,-19620
    b3cc:	24180000 	li	t8,0
    b3d0:	16181c09 	bne	s0,t8,123f8 <inst_error>
    b3d4:	00000000 	nop
    b3d8:	00000000 	nop
    b3dc:	24180000 	li	t8,0
    b3e0:	16581c05 	bne	s2,t8,123f8 <inst_error>
    b3e4:	00000000 	nop
    b3e8:	00000000 	nop
    b3ec:	3c19bfc0 	lui	t9,0xbfc0
    b3f0:	37396bdc 	ori	t9,t9,0x6bdc
    b3f4:	3c18bfc0 	lui	t8,0xbfc0
    b3f8:	37186ba4 	ori	t8,t8,0x6ba4
    b3fc:	27180008 	addiu	t8,t8,8
    b400:	1319000a 	beq	t8,t9,b42c <n35_bltzal_test+0xb42c>
    b404:	00000000 	nop
    b408:	00000000 	nop
    b40c:	3c18bfc0 	lui	t8,0xbfc0
    b410:	37186bd4 	ori	t8,t8,0x6bd4
    b414:	27180008 	addiu	t8,t8,8
    b418:	1319000a 	beq	t8,t9,b444 <n35_bltzal_test+0xb444>
    b41c:	00000000 	nop
    b420:	10001bf5 	b	123f8 <inst_error>
    b424:	00000000 	nop
    b428:	00000000 	nop
    b42c:	26b50008 	addiu	s5,s5,8
    b430:	16951bf1 	bne	s4,s5,123f8 <inst_error>
    b434:	00000000 	nop
    b438:	10000006 	b	b454 <n35_bltzal_test+0xb454>
    b43c:	00000000 	nop
    b440:	00000000 	nop
    b444:	26d60008 	addiu	s6,s6,8
    b448:	16961beb 	bne	s4,s6,123f8 <inst_error>
    b44c:	00000000 	nop
	...
    b458:	001fa821 	addu	s5,zero,ra
    b45c:	3c0c77c6 	lui	t4,0x77c6
    b460:	358ca186 	ori	t4,t4,0xa186
    b464:	3c0d9f2c 	lui	t5,0x9f2c
    b468:	35ad9ee6 	ori	t5,t5,0x9ee6
    b46c:	24100000 	li	s0,0
    b470:	10000014 	b	b4c4 <n35_bltzal_test+0xb4c4>
    b474:	24120000 	li	s2,0
    b478:	00000000 	nop
    b47c:	3c1077c6 	lui	s0,0x77c6
    b480:	3610a186 	ori	s0,s0,0xa186
    b484:	05100025 	bltzal	t0,b51c <n35_bltzal_test+0xb51c>
    b488:	00000000 	nop
    b48c:	10000025 	b	b524 <n35_bltzal_test+0xb524>
    b490:	00000000 	nop
    b494:	00000000 	nop
    b498:	00000021 	move	zero,zero
    b49c:	00000021 	move	zero,zero
    b4a0:	00000021 	move	zero,zero
    b4a4:	00000021 	move	zero,zero
    b4a8:	00000021 	move	zero,zero
    b4ac:	00000021 	move	zero,zero
    b4b0:	00000021 	move	zero,zero
    b4b4:	00000021 	move	zero,zero
    b4b8:	00000021 	move	zero,zero
    b4bc:	00000021 	move	zero,zero
    b4c0:	00000021 	move	zero,zero
    b4c4:	3c08c68f 	lui	t0,0xc68f
    b4c8:	35080040 	ori	t0,t0,0x40
    b4cc:	0510ffeb 	bltzal	t0,b47c <n35_bltzal_test+0xb47c>
    b4d0:	00000000 	nop
    b4d4:	10000013 	b	b524 <n35_bltzal_test+0xb524>
    b4d8:	00000000 	nop
    b4dc:	00000000 	nop
    b4e0:	00000021 	move	zero,zero
    b4e4:	00000021 	move	zero,zero
    b4e8:	00000021 	move	zero,zero
    b4ec:	00000021 	move	zero,zero
    b4f0:	00000021 	move	zero,zero
    b4f4:	00000021 	move	zero,zero
    b4f8:	00000021 	move	zero,zero
    b4fc:	00000021 	move	zero,zero
    b500:	00000021 	move	zero,zero
    b504:	00000021 	move	zero,zero
    b508:	00000021 	move	zero,zero
    b50c:	00000021 	move	zero,zero
    b510:	00000021 	move	zero,zero
    b514:	00000021 	move	zero,zero
    b518:	00000021 	move	zero,zero
    b51c:	3c129f2c 	lui	s2,0x9f2c
    b520:	36529ee6 	ori	s2,s2,0x9ee6
    b524:	001fa021 	addu	s4,zero,ra
    b528:	0015f821 	addu	ra,zero,s5
    b52c:	3c150001 	lui	s5,0x1
    b530:	26b5b484 	addiu	s5,s5,-19324
    b534:	3c160001 	lui	s6,0x1
    b538:	26d6b4cc 	addiu	s6,s6,-19252
    b53c:	3c1877c6 	lui	t8,0x77c6
    b540:	3718a186 	ori	t8,t8,0xa186
    b544:	16181bac 	bne	s0,t8,123f8 <inst_error>
    b548:	00000000 	nop
    b54c:	00000000 	nop
    b550:	3c189f2c 	lui	t8,0x9f2c
    b554:	37189ee6 	ori	t8,t8,0x9ee6
    b558:	16581ba7 	bne	s2,t8,123f8 <inst_error>
    b55c:	00000000 	nop
    b560:	00000000 	nop
    b564:	3c19bfc0 	lui	t9,0xbfc0
    b568:	37396c84 	ori	t9,t9,0x6c84
    b56c:	3c18bfc0 	lui	t8,0xbfc0
    b570:	37186c7c 	ori	t8,t8,0x6c7c
    b574:	27180008 	addiu	t8,t8,8
    b578:	1319000a 	beq	t8,t9,b5a4 <n35_bltzal_test+0xb5a4>
    b57c:	00000000 	nop
    b580:	00000000 	nop
    b584:	3c18bfc0 	lui	t8,0xbfc0
    b588:	37186cac 	ori	t8,t8,0x6cac
    b58c:	27180008 	addiu	t8,t8,8
    b590:	1319000a 	beq	t8,t9,b5bc <n35_bltzal_test+0xb5bc>
    b594:	00000000 	nop
    b598:	10001b97 	b	123f8 <inst_error>
    b59c:	00000000 	nop
    b5a0:	00000000 	nop
    b5a4:	26b50008 	addiu	s5,s5,8
    b5a8:	16951b93 	bne	s4,s5,123f8 <inst_error>
    b5ac:	00000000 	nop
    b5b0:	10000006 	b	b5cc <n35_bltzal_test+0xb5cc>
    b5b4:	00000000 	nop
    b5b8:	00000000 	nop
    b5bc:	26d60008 	addiu	s6,s6,8
    b5c0:	16961b8d 	bne	s4,s6,123f8 <inst_error>
    b5c4:	00000000 	nop
	...
    b5d0:	001fa821 	addu	s5,zero,ra
    b5d4:	3c0c3be0 	lui	t4,0x3be0
    b5d8:	358c3aec 	ori	t4,t4,0x3aec
    b5dc:	3c0dc0fe 	lui	t5,0xc0fe
    b5e0:	35ade200 	ori	t5,t5,0xe200
    b5e4:	24100000 	li	s0,0
    b5e8:	10000014 	b	b63c <n35_bltzal_test+0xb63c>
    b5ec:	24120000 	li	s2,0
    b5f0:	00000000 	nop
    b5f4:	3c103be0 	lui	s0,0x3be0
    b5f8:	36103aec 	ori	s0,s0,0x3aec
    b5fc:	05100025 	bltzal	t0,b694 <n35_bltzal_test+0xb694>
    b600:	00000000 	nop
    b604:	10000025 	b	b69c <n35_bltzal_test+0xb69c>
    b608:	00000000 	nop
    b60c:	00000000 	nop
    b610:	00000021 	move	zero,zero
    b614:	00000021 	move	zero,zero
    b618:	00000021 	move	zero,zero
    b61c:	00000021 	move	zero,zero
    b620:	00000021 	move	zero,zero
    b624:	00000021 	move	zero,zero
    b628:	00000021 	move	zero,zero
    b62c:	00000021 	move	zero,zero
    b630:	00000021 	move	zero,zero
    b634:	00000021 	move	zero,zero
    b638:	00000021 	move	zero,zero
    b63c:	3c08c731 	lui	t0,0xc731
    b640:	35082578 	ori	t0,t0,0x2578
    b644:	0510ffeb 	bltzal	t0,b5f4 <n35_bltzal_test+0xb5f4>
    b648:	00000000 	nop
    b64c:	10000013 	b	b69c <n35_bltzal_test+0xb69c>
    b650:	00000000 	nop
    b654:	00000000 	nop
    b658:	00000021 	move	zero,zero
    b65c:	00000021 	move	zero,zero
    b660:	00000021 	move	zero,zero
    b664:	00000021 	move	zero,zero
    b668:	00000021 	move	zero,zero
    b66c:	00000021 	move	zero,zero
    b670:	00000021 	move	zero,zero
    b674:	00000021 	move	zero,zero
    b678:	00000021 	move	zero,zero
    b67c:	00000021 	move	zero,zero
    b680:	00000021 	move	zero,zero
    b684:	00000021 	move	zero,zero
    b688:	00000021 	move	zero,zero
    b68c:	00000021 	move	zero,zero
    b690:	00000021 	move	zero,zero
    b694:	3c12c0fe 	lui	s2,0xc0fe
    b698:	3652e200 	ori	s2,s2,0xe200
    b69c:	001fa021 	addu	s4,zero,ra
    b6a0:	0015f821 	addu	ra,zero,s5
    b6a4:	3c150001 	lui	s5,0x1
    b6a8:	26b5b5fc 	addiu	s5,s5,-18948
    b6ac:	3c160001 	lui	s6,0x1
    b6b0:	26d6b644 	addiu	s6,s6,-18876
    b6b4:	3c183be0 	lui	t8,0x3be0
    b6b8:	37183aec 	ori	t8,t8,0x3aec
    b6bc:	16181b4e 	bne	s0,t8,123f8 <inst_error>
    b6c0:	00000000 	nop
    b6c4:	00000000 	nop
    b6c8:	3c18c0fe 	lui	t8,0xc0fe
    b6cc:	3718e200 	ori	t8,t8,0xe200
    b6d0:	16581b49 	bne	s2,t8,123f8 <inst_error>
    b6d4:	00000000 	nop
    b6d8:	00000000 	nop
    b6dc:	3c19bfc0 	lui	t9,0xbfc0
    b6e0:	37396d5c 	ori	t9,t9,0x6d5c
    b6e4:	3c18bfc0 	lui	t8,0xbfc0
    b6e8:	37186d54 	ori	t8,t8,0x6d54
    b6ec:	27180008 	addiu	t8,t8,8
    b6f0:	1319000a 	beq	t8,t9,b71c <n35_bltzal_test+0xb71c>
    b6f4:	00000000 	nop
    b6f8:	00000000 	nop
    b6fc:	3c18bfc0 	lui	t8,0xbfc0
    b700:	37186d84 	ori	t8,t8,0x6d84
    b704:	27180008 	addiu	t8,t8,8
    b708:	1319000a 	beq	t8,t9,b734 <n35_bltzal_test+0xb734>
    b70c:	00000000 	nop
    b710:	10001b39 	b	123f8 <inst_error>
    b714:	00000000 	nop
    b718:	00000000 	nop
    b71c:	26b50008 	addiu	s5,s5,8
    b720:	16951b35 	bne	s4,s5,123f8 <inst_error>
    b724:	00000000 	nop
    b728:	10000006 	b	b744 <n35_bltzal_test+0xb744>
    b72c:	00000000 	nop
    b730:	00000000 	nop
    b734:	26d60008 	addiu	s6,s6,8
    b738:	16961b2f 	bne	s4,s6,123f8 <inst_error>
    b73c:	00000000 	nop
	...
    b748:	001fa821 	addu	s5,zero,ra
    b74c:	3c0caadf 	lui	t4,0xaadf
    b750:	358c3100 	ori	t4,t4,0x3100
    b754:	3c0d497e 	lui	t5,0x497e
    b758:	35adc7b0 	ori	t5,t5,0xc7b0
    b75c:	24100000 	li	s0,0
    b760:	10000014 	b	b7b4 <n35_bltzal_test+0xb7b4>
    b764:	24120000 	li	s2,0
    b768:	00000000 	nop
    b76c:	3c10aadf 	lui	s0,0xaadf
    b770:	36103100 	ori	s0,s0,0x3100
    b774:	05100025 	bltzal	t0,b80c <n35_bltzal_test+0xb80c>
    b778:	00000000 	nop
    b77c:	10000025 	b	b814 <n35_bltzal_test+0xb814>
    b780:	00000000 	nop
    b784:	00000000 	nop
    b788:	00000021 	move	zero,zero
    b78c:	00000021 	move	zero,zero
    b790:	00000021 	move	zero,zero
    b794:	00000021 	move	zero,zero
    b798:	00000021 	move	zero,zero
    b79c:	00000021 	move	zero,zero
    b7a0:	00000021 	move	zero,zero
    b7a4:	00000021 	move	zero,zero
    b7a8:	00000021 	move	zero,zero
    b7ac:	00000021 	move	zero,zero
    b7b0:	00000021 	move	zero,zero
    b7b4:	3c08309a 	lui	t0,0x309a
    b7b8:	3508c032 	ori	t0,t0,0xc032
    b7bc:	0510ffeb 	bltzal	t0,b76c <n35_bltzal_test+0xb76c>
    b7c0:	00000000 	nop
    b7c4:	10000013 	b	b814 <n35_bltzal_test+0xb814>
    b7c8:	00000000 	nop
    b7cc:	00000000 	nop
    b7d0:	00000021 	move	zero,zero
    b7d4:	00000021 	move	zero,zero
    b7d8:	00000021 	move	zero,zero
    b7dc:	00000021 	move	zero,zero
    b7e0:	00000021 	move	zero,zero
    b7e4:	00000021 	move	zero,zero
    b7e8:	00000021 	move	zero,zero
    b7ec:	00000021 	move	zero,zero
    b7f0:	00000021 	move	zero,zero
    b7f4:	00000021 	move	zero,zero
    b7f8:	00000021 	move	zero,zero
    b7fc:	00000021 	move	zero,zero
    b800:	00000021 	move	zero,zero
    b804:	00000021 	move	zero,zero
    b808:	00000021 	move	zero,zero
    b80c:	3c12497e 	lui	s2,0x497e
    b810:	3652c7b0 	ori	s2,s2,0xc7b0
    b814:	001fa021 	addu	s4,zero,ra
    b818:	0015f821 	addu	ra,zero,s5
    b81c:	3c150001 	lui	s5,0x1
    b820:	26b5b774 	addiu	s5,s5,-18572
    b824:	3c160001 	lui	s6,0x1
    b828:	26d6b7bc 	addiu	s6,s6,-18500
    b82c:	24180000 	li	t8,0
    b830:	16181af1 	bne	s0,t8,123f8 <inst_error>
    b834:	00000000 	nop
    b838:	00000000 	nop
    b83c:	24180000 	li	t8,0
    b840:	16581aed 	bne	s2,t8,123f8 <inst_error>
    b844:	00000000 	nop
    b848:	00000000 	nop
    b84c:	3c19bfc0 	lui	t9,0xbfc0
    b850:	37396e64 	ori	t9,t9,0x6e64
    b854:	3c18bfc0 	lui	t8,0xbfc0
    b858:	37186e2c 	ori	t8,t8,0x6e2c
    b85c:	27180008 	addiu	t8,t8,8
    b860:	1319000a 	beq	t8,t9,b88c <n35_bltzal_test+0xb88c>
    b864:	00000000 	nop
    b868:	00000000 	nop
    b86c:	3c18bfc0 	lui	t8,0xbfc0
    b870:	37186e5c 	ori	t8,t8,0x6e5c
    b874:	27180008 	addiu	t8,t8,8
    b878:	1319000a 	beq	t8,t9,b8a4 <n35_bltzal_test+0xb8a4>
    b87c:	00000000 	nop
    b880:	10001add 	b	123f8 <inst_error>
    b884:	00000000 	nop
    b888:	00000000 	nop
    b88c:	26b50008 	addiu	s5,s5,8
    b890:	16951ad9 	bne	s4,s5,123f8 <inst_error>
    b894:	00000000 	nop
    b898:	10000006 	b	b8b4 <n35_bltzal_test+0xb8b4>
    b89c:	00000000 	nop
    b8a0:	00000000 	nop
    b8a4:	26d60008 	addiu	s6,s6,8
    b8a8:	16961ad3 	bne	s4,s6,123f8 <inst_error>
    b8ac:	00000000 	nop
	...
    b8b8:	001fa821 	addu	s5,zero,ra
    b8bc:	3c0cd601 	lui	t4,0xd601
    b8c0:	358c9ed2 	ori	t4,t4,0x9ed2
    b8c4:	3c0d4808 	lui	t5,0x4808
    b8c8:	35add27a 	ori	t5,t5,0xd27a
    b8cc:	24100000 	li	s0,0
    b8d0:	10000014 	b	b924 <n35_bltzal_test+0xb924>
    b8d4:	24120000 	li	s2,0
    b8d8:	00000000 	nop
    b8dc:	3c10d601 	lui	s0,0xd601
    b8e0:	36109ed2 	ori	s0,s0,0x9ed2
    b8e4:	05100025 	bltzal	t0,b97c <n35_bltzal_test+0xb97c>
    b8e8:	00000000 	nop
    b8ec:	10000025 	b	b984 <n35_bltzal_test+0xb984>
    b8f0:	00000000 	nop
    b8f4:	00000000 	nop
    b8f8:	00000021 	move	zero,zero
    b8fc:	00000021 	move	zero,zero
    b900:	00000021 	move	zero,zero
    b904:	00000021 	move	zero,zero
    b908:	00000021 	move	zero,zero
    b90c:	00000021 	move	zero,zero
    b910:	00000021 	move	zero,zero
    b914:	00000021 	move	zero,zero
    b918:	00000021 	move	zero,zero
    b91c:	00000021 	move	zero,zero
    b920:	00000021 	move	zero,zero
    b924:	3c085cb2 	lui	t0,0x5cb2
    b928:	35089501 	ori	t0,t0,0x9501
    b92c:	0510ffeb 	bltzal	t0,b8dc <n35_bltzal_test+0xb8dc>
    b930:	00000000 	nop
    b934:	10000013 	b	b984 <n35_bltzal_test+0xb984>
    b938:	00000000 	nop
    b93c:	00000000 	nop
    b940:	00000021 	move	zero,zero
    b944:	00000021 	move	zero,zero
    b948:	00000021 	move	zero,zero
    b94c:	00000021 	move	zero,zero
    b950:	00000021 	move	zero,zero
    b954:	00000021 	move	zero,zero
    b958:	00000021 	move	zero,zero
    b95c:	00000021 	move	zero,zero
    b960:	00000021 	move	zero,zero
    b964:	00000021 	move	zero,zero
    b968:	00000021 	move	zero,zero
    b96c:	00000021 	move	zero,zero
    b970:	00000021 	move	zero,zero
    b974:	00000021 	move	zero,zero
    b978:	00000021 	move	zero,zero
    b97c:	3c124808 	lui	s2,0x4808
    b980:	3652d27a 	ori	s2,s2,0xd27a
    b984:	001fa021 	addu	s4,zero,ra
    b988:	0015f821 	addu	ra,zero,s5
    b98c:	3c150001 	lui	s5,0x1
    b990:	26b5b8e4 	addiu	s5,s5,-18204
    b994:	3c160001 	lui	s6,0x1
    b998:	26d6b92c 	addiu	s6,s6,-18132
    b99c:	24180000 	li	t8,0
    b9a0:	16181a95 	bne	s0,t8,123f8 <inst_error>
    b9a4:	00000000 	nop
    b9a8:	00000000 	nop
    b9ac:	24180000 	li	t8,0
    b9b0:	16581a91 	bne	s2,t8,123f8 <inst_error>
    b9b4:	00000000 	nop
    b9b8:	00000000 	nop
    b9bc:	3c19bfc0 	lui	t9,0xbfc0
    b9c0:	37396f3c 	ori	t9,t9,0x6f3c
    b9c4:	3c18bfc0 	lui	t8,0xbfc0
    b9c8:	37186f04 	ori	t8,t8,0x6f04
    b9cc:	27180008 	addiu	t8,t8,8
    b9d0:	1319000a 	beq	t8,t9,b9fc <n35_bltzal_test+0xb9fc>
    b9d4:	00000000 	nop
    b9d8:	00000000 	nop
    b9dc:	3c18bfc0 	lui	t8,0xbfc0
    b9e0:	37186f34 	ori	t8,t8,0x6f34
    b9e4:	27180008 	addiu	t8,t8,8
    b9e8:	1319000a 	beq	t8,t9,ba14 <n35_bltzal_test+0xba14>
    b9ec:	00000000 	nop
    b9f0:	10001a81 	b	123f8 <inst_error>
    b9f4:	00000000 	nop
    b9f8:	00000000 	nop
    b9fc:	26b50008 	addiu	s5,s5,8
    ba00:	16951a7d 	bne	s4,s5,123f8 <inst_error>
    ba04:	00000000 	nop
    ba08:	10000006 	b	ba24 <n35_bltzal_test+0xba24>
    ba0c:	00000000 	nop
    ba10:	00000000 	nop
    ba14:	26d60008 	addiu	s6,s6,8
    ba18:	16961a77 	bne	s4,s6,123f8 <inst_error>
    ba1c:	00000000 	nop
	...
    ba28:	001fa821 	addu	s5,zero,ra
    ba2c:	3c0c2308 	lui	t4,0x2308
    ba30:	358c1e7c 	ori	t4,t4,0x1e7c
    ba34:	3c0d23a4 	lui	t5,0x23a4
    ba38:	35ad23a5 	ori	t5,t5,0x23a5
    ba3c:	24100000 	li	s0,0
    ba40:	10000014 	b	ba94 <n35_bltzal_test+0xba94>
    ba44:	24120000 	li	s2,0
    ba48:	00000000 	nop
    ba4c:	3c102308 	lui	s0,0x2308
    ba50:	36101e7c 	ori	s0,s0,0x1e7c
    ba54:	05100025 	bltzal	t0,baec <n35_bltzal_test+0xbaec>
    ba58:	00000000 	nop
    ba5c:	10000025 	b	baf4 <n35_bltzal_test+0xbaf4>
    ba60:	00000000 	nop
    ba64:	00000000 	nop
    ba68:	00000021 	move	zero,zero
    ba6c:	00000021 	move	zero,zero
    ba70:	00000021 	move	zero,zero
    ba74:	00000021 	move	zero,zero
    ba78:	00000021 	move	zero,zero
    ba7c:	00000021 	move	zero,zero
    ba80:	00000021 	move	zero,zero
    ba84:	00000021 	move	zero,zero
    ba88:	00000021 	move	zero,zero
    ba8c:	00000021 	move	zero,zero
    ba90:	00000021 	move	zero,zero
    ba94:	3c0824c2 	lui	t0,0x24c2
    ba98:	35084528 	ori	t0,t0,0x4528
    ba9c:	0510ffeb 	bltzal	t0,ba4c <n35_bltzal_test+0xba4c>
    baa0:	00000000 	nop
    baa4:	10000013 	b	baf4 <n35_bltzal_test+0xbaf4>
    baa8:	00000000 	nop
    baac:	00000000 	nop
    bab0:	00000021 	move	zero,zero
    bab4:	00000021 	move	zero,zero
    bab8:	00000021 	move	zero,zero
    babc:	00000021 	move	zero,zero
    bac0:	00000021 	move	zero,zero
    bac4:	00000021 	move	zero,zero
    bac8:	00000021 	move	zero,zero
    bacc:	00000021 	move	zero,zero
    bad0:	00000021 	move	zero,zero
    bad4:	00000021 	move	zero,zero
    bad8:	00000021 	move	zero,zero
    badc:	00000021 	move	zero,zero
    bae0:	00000021 	move	zero,zero
    bae4:	00000021 	move	zero,zero
    bae8:	00000021 	move	zero,zero
    baec:	3c1223a4 	lui	s2,0x23a4
    baf0:	365223a5 	ori	s2,s2,0x23a5
    baf4:	001fa021 	addu	s4,zero,ra
    baf8:	0015f821 	addu	ra,zero,s5
    bafc:	3c150001 	lui	s5,0x1
    bb00:	26b5ba54 	addiu	s5,s5,-17836
    bb04:	3c160001 	lui	s6,0x1
    bb08:	26d6ba9c 	addiu	s6,s6,-17764
    bb0c:	24180000 	li	t8,0
    bb10:	16181a39 	bne	s0,t8,123f8 <inst_error>
    bb14:	00000000 	nop
    bb18:	00000000 	nop
    bb1c:	24180000 	li	t8,0
    bb20:	16581a35 	bne	s2,t8,123f8 <inst_error>
    bb24:	00000000 	nop
    bb28:	00000000 	nop
    bb2c:	3c19bfc0 	lui	t9,0xbfc0
    bb30:	37397014 	ori	t9,t9,0x7014
    bb34:	3c18bfc0 	lui	t8,0xbfc0
    bb38:	37186fdc 	ori	t8,t8,0x6fdc
    bb3c:	27180008 	addiu	t8,t8,8
    bb40:	1319000a 	beq	t8,t9,bb6c <n35_bltzal_test+0xbb6c>
    bb44:	00000000 	nop
    bb48:	00000000 	nop
    bb4c:	3c18bfc0 	lui	t8,0xbfc0
    bb50:	3718700c 	ori	t8,t8,0x700c
    bb54:	27180008 	addiu	t8,t8,8
    bb58:	1319000a 	beq	t8,t9,bb84 <n35_bltzal_test+0xbb84>
    bb5c:	00000000 	nop
    bb60:	10001a25 	b	123f8 <inst_error>
    bb64:	00000000 	nop
    bb68:	00000000 	nop
    bb6c:	26b50008 	addiu	s5,s5,8
    bb70:	16951a21 	bne	s4,s5,123f8 <inst_error>
    bb74:	00000000 	nop
    bb78:	10000006 	b	bb94 <n35_bltzal_test+0xbb94>
    bb7c:	00000000 	nop
    bb80:	00000000 	nop
    bb84:	26d60008 	addiu	s6,s6,8
    bb88:	16961a1b 	bne	s4,s6,123f8 <inst_error>
    bb8c:	00000000 	nop
	...
    bb98:	001fa821 	addu	s5,zero,ra
    bb9c:	3c0cea8c 	lui	t4,0xea8c
    bba0:	358c1a16 	ori	t4,t4,0x1a16
    bba4:	3c0d7fb0 	lui	t5,0x7fb0
    bba8:	35addc44 	ori	t5,t5,0xdc44
    bbac:	24100000 	li	s0,0
    bbb0:	10000014 	b	bc04 <n35_bltzal_test+0xbc04>
    bbb4:	24120000 	li	s2,0
    bbb8:	00000000 	nop
    bbbc:	3c10ea8c 	lui	s0,0xea8c
    bbc0:	36101a16 	ori	s0,s0,0x1a16
    bbc4:	05100025 	bltzal	t0,bc5c <n35_bltzal_test+0xbc5c>
    bbc8:	00000000 	nop
    bbcc:	10000025 	b	bc64 <n35_bltzal_test+0xbc64>
    bbd0:	00000000 	nop
    bbd4:	00000000 	nop
    bbd8:	00000021 	move	zero,zero
    bbdc:	00000021 	move	zero,zero
    bbe0:	00000021 	move	zero,zero
    bbe4:	00000021 	move	zero,zero
    bbe8:	00000021 	move	zero,zero
    bbec:	00000021 	move	zero,zero
    bbf0:	00000021 	move	zero,zero
    bbf4:	00000021 	move	zero,zero
    bbf8:	00000021 	move	zero,zero
    bbfc:	00000021 	move	zero,zero
    bc00:	00000021 	move	zero,zero
    bc04:	3c082092 	lui	t0,0x2092
    bc08:	3508e460 	ori	t0,t0,0xe460
    bc0c:	0510ffeb 	bltzal	t0,bbbc <n35_bltzal_test+0xbbbc>
    bc10:	00000000 	nop
    bc14:	10000013 	b	bc64 <n35_bltzal_test+0xbc64>
    bc18:	00000000 	nop
    bc1c:	00000000 	nop
    bc20:	00000021 	move	zero,zero
    bc24:	00000021 	move	zero,zero
    bc28:	00000021 	move	zero,zero
    bc2c:	00000021 	move	zero,zero
    bc30:	00000021 	move	zero,zero
    bc34:	00000021 	move	zero,zero
    bc38:	00000021 	move	zero,zero
    bc3c:	00000021 	move	zero,zero
    bc40:	00000021 	move	zero,zero
    bc44:	00000021 	move	zero,zero
    bc48:	00000021 	move	zero,zero
    bc4c:	00000021 	move	zero,zero
    bc50:	00000021 	move	zero,zero
    bc54:	00000021 	move	zero,zero
    bc58:	00000021 	move	zero,zero
    bc5c:	3c127fb0 	lui	s2,0x7fb0
    bc60:	3652dc44 	ori	s2,s2,0xdc44
    bc64:	001fa021 	addu	s4,zero,ra
    bc68:	0015f821 	addu	ra,zero,s5
    bc6c:	3c150001 	lui	s5,0x1
    bc70:	26b5bbc4 	addiu	s5,s5,-17468
    bc74:	3c160001 	lui	s6,0x1
    bc78:	26d6bc0c 	addiu	s6,s6,-17396
    bc7c:	24180000 	li	t8,0
    bc80:	161819dd 	bne	s0,t8,123f8 <inst_error>
    bc84:	00000000 	nop
    bc88:	00000000 	nop
    bc8c:	24180000 	li	t8,0
    bc90:	165819d9 	bne	s2,t8,123f8 <inst_error>
    bc94:	00000000 	nop
    bc98:	00000000 	nop
    bc9c:	3c19bfc0 	lui	t9,0xbfc0
    bca0:	373970ec 	ori	t9,t9,0x70ec
    bca4:	3c18bfc0 	lui	t8,0xbfc0
    bca8:	371870b4 	ori	t8,t8,0x70b4
    bcac:	27180008 	addiu	t8,t8,8
    bcb0:	1319000a 	beq	t8,t9,bcdc <n35_bltzal_test+0xbcdc>
    bcb4:	00000000 	nop
    bcb8:	00000000 	nop
    bcbc:	3c18bfc0 	lui	t8,0xbfc0
    bcc0:	371870e4 	ori	t8,t8,0x70e4
    bcc4:	27180008 	addiu	t8,t8,8
    bcc8:	1319000a 	beq	t8,t9,bcf4 <n35_bltzal_test+0xbcf4>
    bccc:	00000000 	nop
    bcd0:	100019c9 	b	123f8 <inst_error>
    bcd4:	00000000 	nop
    bcd8:	00000000 	nop
    bcdc:	26b50008 	addiu	s5,s5,8
    bce0:	169519c5 	bne	s4,s5,123f8 <inst_error>
    bce4:	00000000 	nop
    bce8:	10000006 	b	bd04 <n35_bltzal_test+0xbd04>
    bcec:	00000000 	nop
    bcf0:	00000000 	nop
    bcf4:	26d60008 	addiu	s6,s6,8
    bcf8:	169619bf 	bne	s4,s6,123f8 <inst_error>
    bcfc:	00000000 	nop
	...
    bd08:	001fa821 	addu	s5,zero,ra
    bd0c:	3c0c24cd 	lui	t4,0x24cd
    bd10:	358c6a00 	ori	t4,t4,0x6a00
    bd14:	3c0d06d5 	lui	t5,0x6d5
    bd18:	35adbbd0 	ori	t5,t5,0xbbd0
    bd1c:	24100000 	li	s0,0
    bd20:	10000014 	b	bd74 <n35_bltzal_test+0xbd74>
    bd24:	24120000 	li	s2,0
    bd28:	00000000 	nop
    bd2c:	3c1024cd 	lui	s0,0x24cd
    bd30:	36106a00 	ori	s0,s0,0x6a00
    bd34:	05100025 	bltzal	t0,bdcc <n35_bltzal_test+0xbdcc>
    bd38:	00000000 	nop
    bd3c:	10000025 	b	bdd4 <n35_bltzal_test+0xbdd4>
    bd40:	00000000 	nop
    bd44:	00000000 	nop
    bd48:	00000021 	move	zero,zero
    bd4c:	00000021 	move	zero,zero
    bd50:	00000021 	move	zero,zero
    bd54:	00000021 	move	zero,zero
    bd58:	00000021 	move	zero,zero
    bd5c:	00000021 	move	zero,zero
    bd60:	00000021 	move	zero,zero
    bd64:	00000021 	move	zero,zero
    bd68:	00000021 	move	zero,zero
    bd6c:	00000021 	move	zero,zero
    bd70:	00000021 	move	zero,zero
    bd74:	3c08f724 	lui	t0,0xf724
    bd78:	3508628b 	ori	t0,t0,0x628b
    bd7c:	0510ffeb 	bltzal	t0,bd2c <n35_bltzal_test+0xbd2c>
    bd80:	00000000 	nop
    bd84:	10000013 	b	bdd4 <n35_bltzal_test+0xbdd4>
    bd88:	00000000 	nop
    bd8c:	00000000 	nop
    bd90:	00000021 	move	zero,zero
    bd94:	00000021 	move	zero,zero
    bd98:	00000021 	move	zero,zero
    bd9c:	00000021 	move	zero,zero
    bda0:	00000021 	move	zero,zero
    bda4:	00000021 	move	zero,zero
    bda8:	00000021 	move	zero,zero
    bdac:	00000021 	move	zero,zero
    bdb0:	00000021 	move	zero,zero
    bdb4:	00000021 	move	zero,zero
    bdb8:	00000021 	move	zero,zero
    bdbc:	00000021 	move	zero,zero
    bdc0:	00000021 	move	zero,zero
    bdc4:	00000021 	move	zero,zero
    bdc8:	00000021 	move	zero,zero
    bdcc:	3c1206d5 	lui	s2,0x6d5
    bdd0:	3652bbd0 	ori	s2,s2,0xbbd0
    bdd4:	001fa021 	addu	s4,zero,ra
    bdd8:	0015f821 	addu	ra,zero,s5
    bddc:	3c150001 	lui	s5,0x1
    bde0:	26b5bd34 	addiu	s5,s5,-17100
    bde4:	3c160001 	lui	s6,0x1
    bde8:	26d6bd7c 	addiu	s6,s6,-17028
    bdec:	3c1824cd 	lui	t8,0x24cd
    bdf0:	37186a00 	ori	t8,t8,0x6a00
    bdf4:	16181980 	bne	s0,t8,123f8 <inst_error>
    bdf8:	00000000 	nop
    bdfc:	00000000 	nop
    be00:	3c1806d5 	lui	t8,0x6d5
    be04:	3718bbd0 	ori	t8,t8,0xbbd0
    be08:	1658197b 	bne	s2,t8,123f8 <inst_error>
    be0c:	00000000 	nop
    be10:	00000000 	nop
    be14:	3c19bfc0 	lui	t9,0xbfc0
    be18:	37397194 	ori	t9,t9,0x7194
    be1c:	3c18bfc0 	lui	t8,0xbfc0
    be20:	3718718c 	ori	t8,t8,0x718c
    be24:	27180008 	addiu	t8,t8,8
    be28:	1319000a 	beq	t8,t9,be54 <n35_bltzal_test+0xbe54>
    be2c:	00000000 	nop
    be30:	00000000 	nop
    be34:	3c18bfc0 	lui	t8,0xbfc0
    be38:	371871bc 	ori	t8,t8,0x71bc
    be3c:	27180008 	addiu	t8,t8,8
    be40:	1319000a 	beq	t8,t9,be6c <n35_bltzal_test+0xbe6c>
    be44:	00000000 	nop
    be48:	1000196b 	b	123f8 <inst_error>
    be4c:	00000000 	nop
    be50:	00000000 	nop
    be54:	26b50008 	addiu	s5,s5,8
    be58:	16951967 	bne	s4,s5,123f8 <inst_error>
    be5c:	00000000 	nop
    be60:	10000006 	b	be7c <n35_bltzal_test+0xbe7c>
    be64:	00000000 	nop
    be68:	00000000 	nop
    be6c:	26d60008 	addiu	s6,s6,8
    be70:	16961961 	bne	s4,s6,123f8 <inst_error>
    be74:	00000000 	nop
	...
    be80:	001fa821 	addu	s5,zero,ra
    be84:	3c0cb8ac 	lui	t4,0xb8ac
    be88:	358cf8f9 	ori	t4,t4,0xf8f9
    be8c:	3c0ddafc 	lui	t5,0xdafc
    be90:	35ad8a00 	ori	t5,t5,0x8a00
    be94:	24100000 	li	s0,0
    be98:	10000014 	b	beec <n35_bltzal_test+0xbeec>
    be9c:	24120000 	li	s2,0
    bea0:	00000000 	nop
    bea4:	3c10b8ac 	lui	s0,0xb8ac
    bea8:	3610f8f9 	ori	s0,s0,0xf8f9
    beac:	05100025 	bltzal	t0,bf44 <n35_bltzal_test+0xbf44>
    beb0:	00000000 	nop
    beb4:	10000025 	b	bf4c <n35_bltzal_test+0xbf4c>
    beb8:	00000000 	nop
    bebc:	00000000 	nop
    bec0:	00000021 	move	zero,zero
    bec4:	00000021 	move	zero,zero
    bec8:	00000021 	move	zero,zero
    becc:	00000021 	move	zero,zero
    bed0:	00000021 	move	zero,zero
    bed4:	00000021 	move	zero,zero
    bed8:	00000021 	move	zero,zero
    bedc:	00000021 	move	zero,zero
    bee0:	00000021 	move	zero,zero
    bee4:	00000021 	move	zero,zero
    bee8:	00000021 	move	zero,zero
    beec:	3c0833bf 	lui	t0,0x33bf
    bef0:	35084222 	ori	t0,t0,0x4222
    bef4:	0510ffeb 	bltzal	t0,bea4 <n35_bltzal_test+0xbea4>
    bef8:	00000000 	nop
    befc:	10000013 	b	bf4c <n35_bltzal_test+0xbf4c>
    bf00:	00000000 	nop
    bf04:	00000000 	nop
    bf08:	00000021 	move	zero,zero
    bf0c:	00000021 	move	zero,zero
    bf10:	00000021 	move	zero,zero
    bf14:	00000021 	move	zero,zero
    bf18:	00000021 	move	zero,zero
    bf1c:	00000021 	move	zero,zero
    bf20:	00000021 	move	zero,zero
    bf24:	00000021 	move	zero,zero
    bf28:	00000021 	move	zero,zero
    bf2c:	00000021 	move	zero,zero
    bf30:	00000021 	move	zero,zero
    bf34:	00000021 	move	zero,zero
    bf38:	00000021 	move	zero,zero
    bf3c:	00000021 	move	zero,zero
    bf40:	00000021 	move	zero,zero
    bf44:	3c12dafc 	lui	s2,0xdafc
    bf48:	36528a00 	ori	s2,s2,0x8a00
    bf4c:	001fa021 	addu	s4,zero,ra
    bf50:	0015f821 	addu	ra,zero,s5
    bf54:	3c150001 	lui	s5,0x1
    bf58:	26b5beac 	addiu	s5,s5,-16724
    bf5c:	3c160001 	lui	s6,0x1
    bf60:	26d6bef4 	addiu	s6,s6,-16652
    bf64:	24180000 	li	t8,0
    bf68:	16181923 	bne	s0,t8,123f8 <inst_error>
    bf6c:	00000000 	nop
    bf70:	00000000 	nop
    bf74:	24180000 	li	t8,0
    bf78:	1658191f 	bne	s2,t8,123f8 <inst_error>
    bf7c:	00000000 	nop
    bf80:	00000000 	nop
    bf84:	3c19bfc0 	lui	t9,0xbfc0
    bf88:	3739729c 	ori	t9,t9,0x729c
    bf8c:	3c18bfc0 	lui	t8,0xbfc0
    bf90:	37187264 	ori	t8,t8,0x7264
    bf94:	27180008 	addiu	t8,t8,8
    bf98:	1319000a 	beq	t8,t9,bfc4 <n35_bltzal_test+0xbfc4>
    bf9c:	00000000 	nop
    bfa0:	00000000 	nop
    bfa4:	3c18bfc0 	lui	t8,0xbfc0
    bfa8:	37187294 	ori	t8,t8,0x7294
    bfac:	27180008 	addiu	t8,t8,8
    bfb0:	1319000a 	beq	t8,t9,bfdc <n35_bltzal_test+0xbfdc>
    bfb4:	00000000 	nop
    bfb8:	1000190f 	b	123f8 <inst_error>
    bfbc:	00000000 	nop
    bfc0:	00000000 	nop
    bfc4:	26b50008 	addiu	s5,s5,8
    bfc8:	1695190b 	bne	s4,s5,123f8 <inst_error>
    bfcc:	00000000 	nop
    bfd0:	10000006 	b	bfec <n35_bltzal_test+0xbfec>
    bfd4:	00000000 	nop
    bfd8:	00000000 	nop
    bfdc:	26d60008 	addiu	s6,s6,8
    bfe0:	16961905 	bne	s4,s6,123f8 <inst_error>
    bfe4:	00000000 	nop
	...
    bff0:	001fa821 	addu	s5,zero,ra
    bff4:	3c0c7172 	lui	t4,0x7172
    bff8:	358cc748 	ori	t4,t4,0xc748
    bffc:	3c0d61ac 	lui	t5,0x61ac
    c000:	35ad8e1e 	ori	t5,t5,0x8e1e
    c004:	24100000 	li	s0,0
    c008:	10000014 	b	c05c <n35_bltzal_test+0xc05c>
    c00c:	24120000 	li	s2,0
    c010:	00000000 	nop
    c014:	3c107172 	lui	s0,0x7172
    c018:	3610c748 	ori	s0,s0,0xc748
    c01c:	05100025 	bltzal	t0,c0b4 <n35_bltzal_test+0xc0b4>
    c020:	00000000 	nop
    c024:	10000025 	b	c0bc <n35_bltzal_test+0xc0bc>
    c028:	00000000 	nop
    c02c:	00000000 	nop
    c030:	00000021 	move	zero,zero
    c034:	00000021 	move	zero,zero
    c038:	00000021 	move	zero,zero
    c03c:	00000021 	move	zero,zero
    c040:	00000021 	move	zero,zero
    c044:	00000021 	move	zero,zero
    c048:	00000021 	move	zero,zero
    c04c:	00000021 	move	zero,zero
    c050:	00000021 	move	zero,zero
    c054:	00000021 	move	zero,zero
    c058:	00000021 	move	zero,zero
    c05c:	3c089e23 	lui	t0,0x9e23
    c060:	35084e33 	ori	t0,t0,0x4e33
    c064:	0510ffeb 	bltzal	t0,c014 <n35_bltzal_test+0xc014>
    c068:	00000000 	nop
    c06c:	10000013 	b	c0bc <n35_bltzal_test+0xc0bc>
    c070:	00000000 	nop
    c074:	00000000 	nop
    c078:	00000021 	move	zero,zero
    c07c:	00000021 	move	zero,zero
    c080:	00000021 	move	zero,zero
    c084:	00000021 	move	zero,zero
    c088:	00000021 	move	zero,zero
    c08c:	00000021 	move	zero,zero
    c090:	00000021 	move	zero,zero
    c094:	00000021 	move	zero,zero
    c098:	00000021 	move	zero,zero
    c09c:	00000021 	move	zero,zero
    c0a0:	00000021 	move	zero,zero
    c0a4:	00000021 	move	zero,zero
    c0a8:	00000021 	move	zero,zero
    c0ac:	00000021 	move	zero,zero
    c0b0:	00000021 	move	zero,zero
    c0b4:	3c1261ac 	lui	s2,0x61ac
    c0b8:	36528e1e 	ori	s2,s2,0x8e1e
    c0bc:	001fa021 	addu	s4,zero,ra
    c0c0:	0015f821 	addu	ra,zero,s5
    c0c4:	3c150001 	lui	s5,0x1
    c0c8:	26b5c01c 	addiu	s5,s5,-16356
    c0cc:	3c160001 	lui	s6,0x1
    c0d0:	26d6c064 	addiu	s6,s6,-16284
    c0d4:	3c187172 	lui	t8,0x7172
    c0d8:	3718c748 	ori	t8,t8,0xc748
    c0dc:	161818c6 	bne	s0,t8,123f8 <inst_error>
    c0e0:	00000000 	nop
    c0e4:	00000000 	nop
    c0e8:	3c1861ac 	lui	t8,0x61ac
    c0ec:	37188e1e 	ori	t8,t8,0x8e1e
    c0f0:	165818c1 	bne	s2,t8,123f8 <inst_error>
    c0f4:	00000000 	nop
    c0f8:	00000000 	nop
    c0fc:	3c19bfc0 	lui	t9,0xbfc0
    c100:	37397344 	ori	t9,t9,0x7344
    c104:	3c18bfc0 	lui	t8,0xbfc0
    c108:	3718733c 	ori	t8,t8,0x733c
    c10c:	27180008 	addiu	t8,t8,8
    c110:	1319000a 	beq	t8,t9,c13c <n35_bltzal_test+0xc13c>
    c114:	00000000 	nop
    c118:	00000000 	nop
    c11c:	3c18bfc0 	lui	t8,0xbfc0
    c120:	3718736c 	ori	t8,t8,0x736c
    c124:	27180008 	addiu	t8,t8,8
    c128:	1319000a 	beq	t8,t9,c154 <n35_bltzal_test+0xc154>
    c12c:	00000000 	nop
    c130:	100018b1 	b	123f8 <inst_error>
    c134:	00000000 	nop
    c138:	00000000 	nop
    c13c:	26b50008 	addiu	s5,s5,8
    c140:	169518ad 	bne	s4,s5,123f8 <inst_error>
    c144:	00000000 	nop
    c148:	10000006 	b	c164 <n35_bltzal_test+0xc164>
    c14c:	00000000 	nop
    c150:	00000000 	nop
    c154:	26d60008 	addiu	s6,s6,8
    c158:	169618a7 	bne	s4,s6,123f8 <inst_error>
    c15c:	00000000 	nop
	...
    c168:	001fa821 	addu	s5,zero,ra
    c16c:	3c0c0218 	lui	t4,0x218
    c170:	358c22c8 	ori	t4,t4,0x22c8
    c174:	3c0da5ed 	lui	t5,0xa5ed
    c178:	35ad4b94 	ori	t5,t5,0x4b94
    c17c:	24100000 	li	s0,0
    c180:	10000014 	b	c1d4 <n35_bltzal_test+0xc1d4>
    c184:	24120000 	li	s2,0
    c188:	00000000 	nop
    c18c:	3c100218 	lui	s0,0x218
    c190:	361022c8 	ori	s0,s0,0x22c8
    c194:	05100025 	bltzal	t0,c22c <n35_bltzal_test+0xc22c>
    c198:	00000000 	nop
    c19c:	10000025 	b	c234 <n35_bltzal_test+0xc234>
    c1a0:	00000000 	nop
    c1a4:	00000000 	nop
    c1a8:	00000021 	move	zero,zero
    c1ac:	00000021 	move	zero,zero
    c1b0:	00000021 	move	zero,zero
    c1b4:	00000021 	move	zero,zero
    c1b8:	00000021 	move	zero,zero
    c1bc:	00000021 	move	zero,zero
    c1c0:	00000021 	move	zero,zero
    c1c4:	00000021 	move	zero,zero
    c1c8:	00000021 	move	zero,zero
    c1cc:	00000021 	move	zero,zero
    c1d0:	00000021 	move	zero,zero
    c1d4:	3c08f975 	lui	t0,0xf975
    c1d8:	35086dbc 	ori	t0,t0,0x6dbc
    c1dc:	0510ffeb 	bltzal	t0,c18c <n35_bltzal_test+0xc18c>
    c1e0:	00000000 	nop
    c1e4:	10000013 	b	c234 <n35_bltzal_test+0xc234>
    c1e8:	00000000 	nop
    c1ec:	00000000 	nop
    c1f0:	00000021 	move	zero,zero
    c1f4:	00000021 	move	zero,zero
    c1f8:	00000021 	move	zero,zero
    c1fc:	00000021 	move	zero,zero
    c200:	00000021 	move	zero,zero
    c204:	00000021 	move	zero,zero
    c208:	00000021 	move	zero,zero
    c20c:	00000021 	move	zero,zero
    c210:	00000021 	move	zero,zero
    c214:	00000021 	move	zero,zero
    c218:	00000021 	move	zero,zero
    c21c:	00000021 	move	zero,zero
    c220:	00000021 	move	zero,zero
    c224:	00000021 	move	zero,zero
    c228:	00000021 	move	zero,zero
    c22c:	3c12a5ed 	lui	s2,0xa5ed
    c230:	36524b94 	ori	s2,s2,0x4b94
    c234:	001fa021 	addu	s4,zero,ra
    c238:	0015f821 	addu	ra,zero,s5
    c23c:	3c150001 	lui	s5,0x1
    c240:	26b5c194 	addiu	s5,s5,-15980
    c244:	3c160001 	lui	s6,0x1
    c248:	26d6c1dc 	addiu	s6,s6,-15908
    c24c:	3c180218 	lui	t8,0x218
    c250:	371822c8 	ori	t8,t8,0x22c8
    c254:	16181868 	bne	s0,t8,123f8 <inst_error>
    c258:	00000000 	nop
    c25c:	00000000 	nop
    c260:	3c18a5ed 	lui	t8,0xa5ed
    c264:	37184b94 	ori	t8,t8,0x4b94
    c268:	16581863 	bne	s2,t8,123f8 <inst_error>
    c26c:	00000000 	nop
    c270:	00000000 	nop
    c274:	3c19bfc0 	lui	t9,0xbfc0
    c278:	3739741c 	ori	t9,t9,0x741c
    c27c:	3c18bfc0 	lui	t8,0xbfc0
    c280:	37187414 	ori	t8,t8,0x7414
    c284:	27180008 	addiu	t8,t8,8
    c288:	1319000a 	beq	t8,t9,c2b4 <n35_bltzal_test+0xc2b4>
    c28c:	00000000 	nop
    c290:	00000000 	nop
    c294:	3c18bfc0 	lui	t8,0xbfc0
    c298:	37187444 	ori	t8,t8,0x7444
    c29c:	27180008 	addiu	t8,t8,8
    c2a0:	1319000a 	beq	t8,t9,c2cc <n35_bltzal_test+0xc2cc>
    c2a4:	00000000 	nop
    c2a8:	10001853 	b	123f8 <inst_error>
    c2ac:	00000000 	nop
    c2b0:	00000000 	nop
    c2b4:	26b50008 	addiu	s5,s5,8
    c2b8:	1695184f 	bne	s4,s5,123f8 <inst_error>
    c2bc:	00000000 	nop
    c2c0:	10000006 	b	c2dc <n35_bltzal_test+0xc2dc>
    c2c4:	00000000 	nop
    c2c8:	00000000 	nop
    c2cc:	26d60008 	addiu	s6,s6,8
    c2d0:	16961849 	bne	s4,s6,123f8 <inst_error>
    c2d4:	00000000 	nop
	...
    c2e0:	001fa821 	addu	s5,zero,ra
    c2e4:	3c0cd844 	lui	t4,0xd844
    c2e8:	358c2aaf 	ori	t4,t4,0x2aaf
    c2ec:	3c0daac6 	lui	t5,0xaac6
    c2f0:	35adde74 	ori	t5,t5,0xde74
    c2f4:	24100000 	li	s0,0
    c2f8:	10000014 	b	c34c <n35_bltzal_test+0xc34c>
    c2fc:	24120000 	li	s2,0
    c300:	00000000 	nop
    c304:	3c10d844 	lui	s0,0xd844
    c308:	36102aaf 	ori	s0,s0,0x2aaf
    c30c:	05100025 	bltzal	t0,c3a4 <n35_bltzal_test+0xc3a4>
    c310:	00000000 	nop
    c314:	10000025 	b	c3ac <n35_bltzal_test+0xc3ac>
    c318:	00000000 	nop
    c31c:	00000000 	nop
    c320:	00000021 	move	zero,zero
    c324:	00000021 	move	zero,zero
    c328:	00000021 	move	zero,zero
    c32c:	00000021 	move	zero,zero
    c330:	00000021 	move	zero,zero
    c334:	00000021 	move	zero,zero
    c338:	00000021 	move	zero,zero
    c33c:	00000021 	move	zero,zero
    c340:	00000021 	move	zero,zero
    c344:	00000021 	move	zero,zero
    c348:	00000021 	move	zero,zero
    c34c:	3c086088 	lui	t0,0x6088
    c350:	35080d60 	ori	t0,t0,0xd60
    c354:	0510ffeb 	bltzal	t0,c304 <n35_bltzal_test+0xc304>
    c358:	00000000 	nop
    c35c:	10000013 	b	c3ac <n35_bltzal_test+0xc3ac>
    c360:	00000000 	nop
    c364:	00000000 	nop
    c368:	00000021 	move	zero,zero
    c36c:	00000021 	move	zero,zero
    c370:	00000021 	move	zero,zero
    c374:	00000021 	move	zero,zero
    c378:	00000021 	move	zero,zero
    c37c:	00000021 	move	zero,zero
    c380:	00000021 	move	zero,zero
    c384:	00000021 	move	zero,zero
    c388:	00000021 	move	zero,zero
    c38c:	00000021 	move	zero,zero
    c390:	00000021 	move	zero,zero
    c394:	00000021 	move	zero,zero
    c398:	00000021 	move	zero,zero
    c39c:	00000021 	move	zero,zero
    c3a0:	00000021 	move	zero,zero
    c3a4:	3c12aac6 	lui	s2,0xaac6
    c3a8:	3652de74 	ori	s2,s2,0xde74
    c3ac:	001fa021 	addu	s4,zero,ra
    c3b0:	0015f821 	addu	ra,zero,s5
    c3b4:	3c150001 	lui	s5,0x1
    c3b8:	26b5c30c 	addiu	s5,s5,-15604
    c3bc:	3c160001 	lui	s6,0x1
    c3c0:	26d6c354 	addiu	s6,s6,-15532
    c3c4:	24180000 	li	t8,0
    c3c8:	1618180b 	bne	s0,t8,123f8 <inst_error>
    c3cc:	00000000 	nop
    c3d0:	00000000 	nop
    c3d4:	24180000 	li	t8,0
    c3d8:	16581807 	bne	s2,t8,123f8 <inst_error>
    c3dc:	00000000 	nop
    c3e0:	00000000 	nop
    c3e4:	3c19bfc0 	lui	t9,0xbfc0
    c3e8:	37397524 	ori	t9,t9,0x7524
    c3ec:	3c18bfc0 	lui	t8,0xbfc0
    c3f0:	371874ec 	ori	t8,t8,0x74ec
    c3f4:	27180008 	addiu	t8,t8,8
    c3f8:	1319000a 	beq	t8,t9,c424 <n35_bltzal_test+0xc424>
    c3fc:	00000000 	nop
    c400:	00000000 	nop
    c404:	3c18bfc0 	lui	t8,0xbfc0
    c408:	3718751c 	ori	t8,t8,0x751c
    c40c:	27180008 	addiu	t8,t8,8
    c410:	1319000a 	beq	t8,t9,c43c <n35_bltzal_test+0xc43c>
    c414:	00000000 	nop
    c418:	100017f7 	b	123f8 <inst_error>
    c41c:	00000000 	nop
    c420:	00000000 	nop
    c424:	26b50008 	addiu	s5,s5,8
    c428:	169517f3 	bne	s4,s5,123f8 <inst_error>
    c42c:	00000000 	nop
    c430:	10000006 	b	c44c <n35_bltzal_test+0xc44c>
    c434:	00000000 	nop
    c438:	00000000 	nop
    c43c:	26d60008 	addiu	s6,s6,8
    c440:	169617ed 	bne	s4,s6,123f8 <inst_error>
    c444:	00000000 	nop
	...
    c450:	001fa821 	addu	s5,zero,ra
    c454:	3c0c3645 	lui	t4,0x3645
    c458:	358c4702 	ori	t4,t4,0x4702
    c45c:	3c0dd297 	lui	t5,0xd297
    c460:	35adfe88 	ori	t5,t5,0xfe88
    c464:	24100000 	li	s0,0
    c468:	10000014 	b	c4bc <n35_bltzal_test+0xc4bc>
    c46c:	24120000 	li	s2,0
    c470:	00000000 	nop
    c474:	3c103645 	lui	s0,0x3645
    c478:	36104702 	ori	s0,s0,0x4702
    c47c:	05100025 	bltzal	t0,c514 <n35_bltzal_test+0xc514>
    c480:	00000000 	nop
    c484:	10000025 	b	c51c <n35_bltzal_test+0xc51c>
    c488:	00000000 	nop
    c48c:	00000000 	nop
    c490:	00000021 	move	zero,zero
    c494:	00000021 	move	zero,zero
    c498:	00000021 	move	zero,zero
    c49c:	00000021 	move	zero,zero
    c4a0:	00000021 	move	zero,zero
    c4a4:	00000021 	move	zero,zero
    c4a8:	00000021 	move	zero,zero
    c4ac:	00000021 	move	zero,zero
    c4b0:	00000021 	move	zero,zero
    c4b4:	00000021 	move	zero,zero
    c4b8:	00000021 	move	zero,zero
    c4bc:	3c0862fc 	lui	t0,0x62fc
    c4c0:	35089300 	ori	t0,t0,0x9300
    c4c4:	0510ffeb 	bltzal	t0,c474 <n35_bltzal_test+0xc474>
    c4c8:	00000000 	nop
    c4cc:	10000013 	b	c51c <n35_bltzal_test+0xc51c>
    c4d0:	00000000 	nop
    c4d4:	00000000 	nop
    c4d8:	00000021 	move	zero,zero
    c4dc:	00000021 	move	zero,zero
    c4e0:	00000021 	move	zero,zero
    c4e4:	00000021 	move	zero,zero
    c4e8:	00000021 	move	zero,zero
    c4ec:	00000021 	move	zero,zero
    c4f0:	00000021 	move	zero,zero
    c4f4:	00000021 	move	zero,zero
    c4f8:	00000021 	move	zero,zero
    c4fc:	00000021 	move	zero,zero
    c500:	00000021 	move	zero,zero
    c504:	00000021 	move	zero,zero
    c508:	00000021 	move	zero,zero
    c50c:	00000021 	move	zero,zero
    c510:	00000021 	move	zero,zero
    c514:	3c12d297 	lui	s2,0xd297
    c518:	3652fe88 	ori	s2,s2,0xfe88
    c51c:	001fa021 	addu	s4,zero,ra
    c520:	0015f821 	addu	ra,zero,s5
    c524:	3c150001 	lui	s5,0x1
    c528:	26b5c47c 	addiu	s5,s5,-15236
    c52c:	3c160001 	lui	s6,0x1
    c530:	26d6c4c4 	addiu	s6,s6,-15164
    c534:	24180000 	li	t8,0
    c538:	161817af 	bne	s0,t8,123f8 <inst_error>
    c53c:	00000000 	nop
    c540:	00000000 	nop
    c544:	24180000 	li	t8,0
    c548:	165817ab 	bne	s2,t8,123f8 <inst_error>
    c54c:	00000000 	nop
    c550:	00000000 	nop
    c554:	3c19bfc0 	lui	t9,0xbfc0
    c558:	373975fc 	ori	t9,t9,0x75fc
    c55c:	3c18bfc0 	lui	t8,0xbfc0
    c560:	371875c4 	ori	t8,t8,0x75c4
    c564:	27180008 	addiu	t8,t8,8
    c568:	1319000a 	beq	t8,t9,c594 <n35_bltzal_test+0xc594>
    c56c:	00000000 	nop
    c570:	00000000 	nop
    c574:	3c18bfc0 	lui	t8,0xbfc0
    c578:	371875f4 	ori	t8,t8,0x75f4
    c57c:	27180008 	addiu	t8,t8,8
    c580:	1319000a 	beq	t8,t9,c5ac <n35_bltzal_test+0xc5ac>
    c584:	00000000 	nop
    c588:	1000179b 	b	123f8 <inst_error>
    c58c:	00000000 	nop
    c590:	00000000 	nop
    c594:	26b50008 	addiu	s5,s5,8
    c598:	16951797 	bne	s4,s5,123f8 <inst_error>
    c59c:	00000000 	nop
    c5a0:	10000006 	b	c5bc <n35_bltzal_test+0xc5bc>
    c5a4:	00000000 	nop
    c5a8:	00000000 	nop
    c5ac:	26d60008 	addiu	s6,s6,8
    c5b0:	16961791 	bne	s4,s6,123f8 <inst_error>
    c5b4:	00000000 	nop
	...
    c5c0:	001fa821 	addu	s5,zero,ra
    c5c4:	3c0c13bf 	lui	t4,0x13bf
    c5c8:	358c17a2 	ori	t4,t4,0x17a2
    c5cc:	3c0d6a10 	lui	t5,0x6a10
    c5d0:	35ad85c6 	ori	t5,t5,0x85c6
    c5d4:	24100000 	li	s0,0
    c5d8:	10000014 	b	c62c <n35_bltzal_test+0xc62c>
    c5dc:	24120000 	li	s2,0
    c5e0:	00000000 	nop
    c5e4:	3c1013bf 	lui	s0,0x13bf
    c5e8:	361017a2 	ori	s0,s0,0x17a2
    c5ec:	05100025 	bltzal	t0,c684 <n35_bltzal_test+0xc684>
    c5f0:	00000000 	nop
    c5f4:	10000025 	b	c68c <n35_bltzal_test+0xc68c>
    c5f8:	00000000 	nop
    c5fc:	00000000 	nop
    c600:	00000021 	move	zero,zero
    c604:	00000021 	move	zero,zero
    c608:	00000021 	move	zero,zero
    c60c:	00000021 	move	zero,zero
    c610:	00000021 	move	zero,zero
    c614:	00000021 	move	zero,zero
    c618:	00000021 	move	zero,zero
    c61c:	00000021 	move	zero,zero
    c620:	00000021 	move	zero,zero
    c624:	00000021 	move	zero,zero
    c628:	00000021 	move	zero,zero
    c62c:	3c0812cd 	lui	t0,0x12cd
    c630:	3508b320 	ori	t0,t0,0xb320
    c634:	0510ffeb 	bltzal	t0,c5e4 <n35_bltzal_test+0xc5e4>
    c638:	00000000 	nop
    c63c:	10000013 	b	c68c <n35_bltzal_test+0xc68c>
    c640:	00000000 	nop
    c644:	00000000 	nop
    c648:	00000021 	move	zero,zero
    c64c:	00000021 	move	zero,zero
    c650:	00000021 	move	zero,zero
    c654:	00000021 	move	zero,zero
    c658:	00000021 	move	zero,zero
    c65c:	00000021 	move	zero,zero
    c660:	00000021 	move	zero,zero
    c664:	00000021 	move	zero,zero
    c668:	00000021 	move	zero,zero
    c66c:	00000021 	move	zero,zero
    c670:	00000021 	move	zero,zero
    c674:	00000021 	move	zero,zero
    c678:	00000021 	move	zero,zero
    c67c:	00000021 	move	zero,zero
    c680:	00000021 	move	zero,zero
    c684:	3c126a10 	lui	s2,0x6a10
    c688:	365285c6 	ori	s2,s2,0x85c6
    c68c:	001fa021 	addu	s4,zero,ra
    c690:	0015f821 	addu	ra,zero,s5
    c694:	3c150001 	lui	s5,0x1
    c698:	26b5c5ec 	addiu	s5,s5,-14868
    c69c:	3c160001 	lui	s6,0x1
    c6a0:	26d6c634 	addiu	s6,s6,-14796
    c6a4:	24180000 	li	t8,0
    c6a8:	16181753 	bne	s0,t8,123f8 <inst_error>
    c6ac:	00000000 	nop
    c6b0:	00000000 	nop
    c6b4:	24180000 	li	t8,0
    c6b8:	1658174f 	bne	s2,t8,123f8 <inst_error>
    c6bc:	00000000 	nop
    c6c0:	00000000 	nop
    c6c4:	3c19bfc0 	lui	t9,0xbfc0
    c6c8:	373976d4 	ori	t9,t9,0x76d4
    c6cc:	3c18bfc0 	lui	t8,0xbfc0
    c6d0:	3718769c 	ori	t8,t8,0x769c
    c6d4:	27180008 	addiu	t8,t8,8
    c6d8:	1319000a 	beq	t8,t9,c704 <n35_bltzal_test+0xc704>
    c6dc:	00000000 	nop
    c6e0:	00000000 	nop
    c6e4:	3c18bfc0 	lui	t8,0xbfc0
    c6e8:	371876cc 	ori	t8,t8,0x76cc
    c6ec:	27180008 	addiu	t8,t8,8
    c6f0:	1319000a 	beq	t8,t9,c71c <n35_bltzal_test+0xc71c>
    c6f4:	00000000 	nop
    c6f8:	1000173f 	b	123f8 <inst_error>
    c6fc:	00000000 	nop
    c700:	00000000 	nop
    c704:	26b50008 	addiu	s5,s5,8
    c708:	1695173b 	bne	s4,s5,123f8 <inst_error>
    c70c:	00000000 	nop
    c710:	10000006 	b	c72c <n35_bltzal_test+0xc72c>
    c714:	00000000 	nop
    c718:	00000000 	nop
    c71c:	26d60008 	addiu	s6,s6,8
    c720:	16961735 	bne	s4,s6,123f8 <inst_error>
    c724:	00000000 	nop
	...
    c730:	001fa821 	addu	s5,zero,ra
    c734:	3c0ceb2f 	lui	t4,0xeb2f
    c738:	358c7fcc 	ori	t4,t4,0x7fcc
    c73c:	3c0ddcfb 	lui	t5,0xdcfb
    c740:	35add7b6 	ori	t5,t5,0xd7b6
    c744:	24100000 	li	s0,0
    c748:	10000014 	b	c79c <n35_bltzal_test+0xc79c>
    c74c:	24120000 	li	s2,0
    c750:	00000000 	nop
    c754:	3c10eb2f 	lui	s0,0xeb2f
    c758:	36107fcc 	ori	s0,s0,0x7fcc
    c75c:	05100025 	bltzal	t0,c7f4 <n35_bltzal_test+0xc7f4>
    c760:	00000000 	nop
    c764:	10000025 	b	c7fc <n35_bltzal_test+0xc7fc>
    c768:	00000000 	nop
    c76c:	00000000 	nop
    c770:	00000021 	move	zero,zero
    c774:	00000021 	move	zero,zero
    c778:	00000021 	move	zero,zero
    c77c:	00000021 	move	zero,zero
    c780:	00000021 	move	zero,zero
    c784:	00000021 	move	zero,zero
    c788:	00000021 	move	zero,zero
    c78c:	00000021 	move	zero,zero
    c790:	00000021 	move	zero,zero
    c794:	00000021 	move	zero,zero
    c798:	00000021 	move	zero,zero
    c79c:	3c083369 	lui	t0,0x3369
    c7a0:	35089318 	ori	t0,t0,0x9318
    c7a4:	0510ffeb 	bltzal	t0,c754 <n35_bltzal_test+0xc754>
    c7a8:	00000000 	nop
    c7ac:	10000013 	b	c7fc <n35_bltzal_test+0xc7fc>
    c7b0:	00000000 	nop
    c7b4:	00000000 	nop
    c7b8:	00000021 	move	zero,zero
    c7bc:	00000021 	move	zero,zero
    c7c0:	00000021 	move	zero,zero
    c7c4:	00000021 	move	zero,zero
    c7c8:	00000021 	move	zero,zero
    c7cc:	00000021 	move	zero,zero
    c7d0:	00000021 	move	zero,zero
    c7d4:	00000021 	move	zero,zero
    c7d8:	00000021 	move	zero,zero
    c7dc:	00000021 	move	zero,zero
    c7e0:	00000021 	move	zero,zero
    c7e4:	00000021 	move	zero,zero
    c7e8:	00000021 	move	zero,zero
    c7ec:	00000021 	move	zero,zero
    c7f0:	00000021 	move	zero,zero
    c7f4:	3c12dcfb 	lui	s2,0xdcfb
    c7f8:	3652d7b6 	ori	s2,s2,0xd7b6
    c7fc:	001fa021 	addu	s4,zero,ra
    c800:	0015f821 	addu	ra,zero,s5
    c804:	3c150001 	lui	s5,0x1
    c808:	26b5c75c 	addiu	s5,s5,-14500
    c80c:	3c160001 	lui	s6,0x1
    c810:	26d6c7a4 	addiu	s6,s6,-14428
    c814:	24180000 	li	t8,0
    c818:	161816f7 	bne	s0,t8,123f8 <inst_error>
    c81c:	00000000 	nop
    c820:	00000000 	nop
    c824:	24180000 	li	t8,0
    c828:	165816f3 	bne	s2,t8,123f8 <inst_error>
    c82c:	00000000 	nop
    c830:	00000000 	nop
    c834:	3c19bfc0 	lui	t9,0xbfc0
    c838:	373977ac 	ori	t9,t9,0x77ac
    c83c:	3c18bfc0 	lui	t8,0xbfc0
    c840:	37187774 	ori	t8,t8,0x7774
    c844:	27180008 	addiu	t8,t8,8
    c848:	1319000a 	beq	t8,t9,c874 <n35_bltzal_test+0xc874>
    c84c:	00000000 	nop
    c850:	00000000 	nop
    c854:	3c18bfc0 	lui	t8,0xbfc0
    c858:	371877a4 	ori	t8,t8,0x77a4
    c85c:	27180008 	addiu	t8,t8,8
    c860:	1319000a 	beq	t8,t9,c88c <n35_bltzal_test+0xc88c>
    c864:	00000000 	nop
    c868:	100016e3 	b	123f8 <inst_error>
    c86c:	00000000 	nop
    c870:	00000000 	nop
    c874:	26b50008 	addiu	s5,s5,8
    c878:	169516df 	bne	s4,s5,123f8 <inst_error>
    c87c:	00000000 	nop
    c880:	10000006 	b	c89c <n35_bltzal_test+0xc89c>
    c884:	00000000 	nop
    c888:	00000000 	nop
    c88c:	26d60008 	addiu	s6,s6,8
    c890:	169616d9 	bne	s4,s6,123f8 <inst_error>
    c894:	00000000 	nop
	...
    c8a0:	001fa821 	addu	s5,zero,ra
    c8a4:	3c0ce333 	lui	t4,0xe333
    c8a8:	358cf8e8 	ori	t4,t4,0xf8e8
    c8ac:	3c0dd492 	lui	t5,0xd492
    c8b0:	35add830 	ori	t5,t5,0xd830
    c8b4:	24100000 	li	s0,0
    c8b8:	10000014 	b	c90c <n35_bltzal_test+0xc90c>
    c8bc:	24120000 	li	s2,0
    c8c0:	00000000 	nop
    c8c4:	3c10e333 	lui	s0,0xe333
    c8c8:	3610f8e8 	ori	s0,s0,0xf8e8
    c8cc:	05100025 	bltzal	t0,c964 <n35_bltzal_test+0xc964>
    c8d0:	00000000 	nop
    c8d4:	10000025 	b	c96c <n35_bltzal_test+0xc96c>
    c8d8:	00000000 	nop
    c8dc:	00000000 	nop
    c8e0:	00000021 	move	zero,zero
    c8e4:	00000021 	move	zero,zero
    c8e8:	00000021 	move	zero,zero
    c8ec:	00000021 	move	zero,zero
    c8f0:	00000021 	move	zero,zero
    c8f4:	00000021 	move	zero,zero
    c8f8:	00000021 	move	zero,zero
    c8fc:	00000021 	move	zero,zero
    c900:	00000021 	move	zero,zero
    c904:	00000021 	move	zero,zero
    c908:	00000021 	move	zero,zero
    c90c:	3c081bea 	lui	t0,0x1bea
    c910:	3508cb00 	ori	t0,t0,0xcb00
    c914:	0510ffeb 	bltzal	t0,c8c4 <n35_bltzal_test+0xc8c4>
    c918:	00000000 	nop
    c91c:	10000013 	b	c96c <n35_bltzal_test+0xc96c>
    c920:	00000000 	nop
    c924:	00000000 	nop
    c928:	00000021 	move	zero,zero
    c92c:	00000021 	move	zero,zero
    c930:	00000021 	move	zero,zero
    c934:	00000021 	move	zero,zero
    c938:	00000021 	move	zero,zero
    c93c:	00000021 	move	zero,zero
    c940:	00000021 	move	zero,zero
    c944:	00000021 	move	zero,zero
    c948:	00000021 	move	zero,zero
    c94c:	00000021 	move	zero,zero
    c950:	00000021 	move	zero,zero
    c954:	00000021 	move	zero,zero
    c958:	00000021 	move	zero,zero
    c95c:	00000021 	move	zero,zero
    c960:	00000021 	move	zero,zero
    c964:	3c12d492 	lui	s2,0xd492
    c968:	3652d830 	ori	s2,s2,0xd830
    c96c:	001fa021 	addu	s4,zero,ra
    c970:	0015f821 	addu	ra,zero,s5
    c974:	3c150001 	lui	s5,0x1
    c978:	26b5c8cc 	addiu	s5,s5,-14132
    c97c:	3c160001 	lui	s6,0x1
    c980:	26d6c914 	addiu	s6,s6,-14060
    c984:	24180000 	li	t8,0
    c988:	1618169b 	bne	s0,t8,123f8 <inst_error>
    c98c:	00000000 	nop
    c990:	00000000 	nop
    c994:	24180000 	li	t8,0
    c998:	16581697 	bne	s2,t8,123f8 <inst_error>
    c99c:	00000000 	nop
    c9a0:	00000000 	nop
    c9a4:	3c19bfc0 	lui	t9,0xbfc0
    c9a8:	37397884 	ori	t9,t9,0x7884
    c9ac:	3c18bfc0 	lui	t8,0xbfc0
    c9b0:	3718784c 	ori	t8,t8,0x784c
    c9b4:	27180008 	addiu	t8,t8,8
    c9b8:	1319000a 	beq	t8,t9,c9e4 <n35_bltzal_test+0xc9e4>
    c9bc:	00000000 	nop
    c9c0:	00000000 	nop
    c9c4:	3c18bfc0 	lui	t8,0xbfc0
    c9c8:	3718787c 	ori	t8,t8,0x787c
    c9cc:	27180008 	addiu	t8,t8,8
    c9d0:	1319000a 	beq	t8,t9,c9fc <n35_bltzal_test+0xc9fc>
    c9d4:	00000000 	nop
    c9d8:	10001687 	b	123f8 <inst_error>
    c9dc:	00000000 	nop
    c9e0:	00000000 	nop
    c9e4:	26b50008 	addiu	s5,s5,8
    c9e8:	16951683 	bne	s4,s5,123f8 <inst_error>
    c9ec:	00000000 	nop
    c9f0:	10000006 	b	ca0c <n35_bltzal_test+0xca0c>
    c9f4:	00000000 	nop
    c9f8:	00000000 	nop
    c9fc:	26d60008 	addiu	s6,s6,8
    ca00:	1696167d 	bne	s4,s6,123f8 <inst_error>
    ca04:	00000000 	nop
	...
    ca10:	001fa821 	addu	s5,zero,ra
    ca14:	3c0cc25e 	lui	t4,0xc25e
    ca18:	358c31c0 	ori	t4,t4,0x31c0
    ca1c:	3c0df178 	lui	t5,0xf178
    ca20:	35adfcc7 	ori	t5,t5,0xfcc7
    ca24:	24100000 	li	s0,0
    ca28:	10000014 	b	ca7c <n35_bltzal_test+0xca7c>
    ca2c:	24120000 	li	s2,0
    ca30:	00000000 	nop
    ca34:	3c10c25e 	lui	s0,0xc25e
    ca38:	361031c0 	ori	s0,s0,0x31c0
    ca3c:	05100025 	bltzal	t0,cad4 <n35_bltzal_test+0xcad4>
    ca40:	00000000 	nop
    ca44:	10000025 	b	cadc <n35_bltzal_test+0xcadc>
    ca48:	00000000 	nop
    ca4c:	00000000 	nop
    ca50:	00000021 	move	zero,zero
    ca54:	00000021 	move	zero,zero
    ca58:	00000021 	move	zero,zero
    ca5c:	00000021 	move	zero,zero
    ca60:	00000021 	move	zero,zero
    ca64:	00000021 	move	zero,zero
    ca68:	00000021 	move	zero,zero
    ca6c:	00000021 	move	zero,zero
    ca70:	00000021 	move	zero,zero
    ca74:	00000021 	move	zero,zero
    ca78:	00000021 	move	zero,zero
    ca7c:	3c08f3ab 	lui	t0,0xf3ab
    ca80:	3508d08a 	ori	t0,t0,0xd08a
    ca84:	0510ffeb 	bltzal	t0,ca34 <n35_bltzal_test+0xca34>
    ca88:	00000000 	nop
    ca8c:	10000013 	b	cadc <n35_bltzal_test+0xcadc>
    ca90:	00000000 	nop
    ca94:	00000000 	nop
    ca98:	00000021 	move	zero,zero
    ca9c:	00000021 	move	zero,zero
    caa0:	00000021 	move	zero,zero
    caa4:	00000021 	move	zero,zero
    caa8:	00000021 	move	zero,zero
    caac:	00000021 	move	zero,zero
    cab0:	00000021 	move	zero,zero
    cab4:	00000021 	move	zero,zero
    cab8:	00000021 	move	zero,zero
    cabc:	00000021 	move	zero,zero
    cac0:	00000021 	move	zero,zero
    cac4:	00000021 	move	zero,zero
    cac8:	00000021 	move	zero,zero
    cacc:	00000021 	move	zero,zero
    cad0:	00000021 	move	zero,zero
    cad4:	3c12f178 	lui	s2,0xf178
    cad8:	3652fcc7 	ori	s2,s2,0xfcc7
    cadc:	001fa021 	addu	s4,zero,ra
    cae0:	0015f821 	addu	ra,zero,s5
    cae4:	3c150001 	lui	s5,0x1
    cae8:	26b5ca3c 	addiu	s5,s5,-13764
    caec:	3c160001 	lui	s6,0x1
    caf0:	26d6ca84 	addiu	s6,s6,-13692
    caf4:	3c18c25e 	lui	t8,0xc25e
    caf8:	371831c0 	ori	t8,t8,0x31c0
    cafc:	1618163e 	bne	s0,t8,123f8 <inst_error>
    cb00:	00000000 	nop
    cb04:	00000000 	nop
    cb08:	3c18f178 	lui	t8,0xf178
    cb0c:	3718fcc7 	ori	t8,t8,0xfcc7
    cb10:	16581639 	bne	s2,t8,123f8 <inst_error>
    cb14:	00000000 	nop
    cb18:	00000000 	nop
    cb1c:	3c19bfc0 	lui	t9,0xbfc0
    cb20:	3739792c 	ori	t9,t9,0x792c
    cb24:	3c18bfc0 	lui	t8,0xbfc0
    cb28:	37187924 	ori	t8,t8,0x7924
    cb2c:	27180008 	addiu	t8,t8,8
    cb30:	1319000a 	beq	t8,t9,cb5c <n35_bltzal_test+0xcb5c>
    cb34:	00000000 	nop
    cb38:	00000000 	nop
    cb3c:	3c18bfc0 	lui	t8,0xbfc0
    cb40:	37187954 	ori	t8,t8,0x7954
    cb44:	27180008 	addiu	t8,t8,8
    cb48:	1319000a 	beq	t8,t9,cb74 <n35_bltzal_test+0xcb74>
    cb4c:	00000000 	nop
    cb50:	10001629 	b	123f8 <inst_error>
    cb54:	00000000 	nop
    cb58:	00000000 	nop
    cb5c:	26b50008 	addiu	s5,s5,8
    cb60:	16951625 	bne	s4,s5,123f8 <inst_error>
    cb64:	00000000 	nop
    cb68:	10000006 	b	cb84 <n35_bltzal_test+0xcb84>
    cb6c:	00000000 	nop
    cb70:	00000000 	nop
    cb74:	26d60008 	addiu	s6,s6,8
    cb78:	1696161f 	bne	s4,s6,123f8 <inst_error>
    cb7c:	00000000 	nop
	...
    cb88:	001fa821 	addu	s5,zero,ra
    cb8c:	3c0c7470 	lui	t4,0x7470
    cb90:	358c14c0 	ori	t4,t4,0x14c0
    cb94:	3c0da2f6 	lui	t5,0xa2f6
    cb98:	35adfdf0 	ori	t5,t5,0xfdf0
    cb9c:	24100000 	li	s0,0
    cba0:	10000014 	b	cbf4 <n35_bltzal_test+0xcbf4>
    cba4:	24120000 	li	s2,0
    cba8:	00000000 	nop
    cbac:	3c107470 	lui	s0,0x7470
    cbb0:	361014c0 	ori	s0,s0,0x14c0
    cbb4:	05100025 	bltzal	t0,cc4c <n35_bltzal_test+0xcc4c>
    cbb8:	00000000 	nop
    cbbc:	10000025 	b	cc54 <n35_bltzal_test+0xcc54>
    cbc0:	00000000 	nop
    cbc4:	00000000 	nop
    cbc8:	00000021 	move	zero,zero
    cbcc:	00000021 	move	zero,zero
    cbd0:	00000021 	move	zero,zero
    cbd4:	00000021 	move	zero,zero
    cbd8:	00000021 	move	zero,zero
    cbdc:	00000021 	move	zero,zero
    cbe0:	00000021 	move	zero,zero
    cbe4:	00000021 	move	zero,zero
    cbe8:	00000021 	move	zero,zero
    cbec:	00000021 	move	zero,zero
    cbf0:	00000021 	move	zero,zero
    cbf4:	3c08bbb8 	lui	t0,0xbbb8
    cbf8:	35085c80 	ori	t0,t0,0x5c80
    cbfc:	0510ffeb 	bltzal	t0,cbac <n35_bltzal_test+0xcbac>
    cc00:	00000000 	nop
    cc04:	10000013 	b	cc54 <n35_bltzal_test+0xcc54>
    cc08:	00000000 	nop
    cc0c:	00000000 	nop
    cc10:	00000021 	move	zero,zero
    cc14:	00000021 	move	zero,zero
    cc18:	00000021 	move	zero,zero
    cc1c:	00000021 	move	zero,zero
    cc20:	00000021 	move	zero,zero
    cc24:	00000021 	move	zero,zero
    cc28:	00000021 	move	zero,zero
    cc2c:	00000021 	move	zero,zero
    cc30:	00000021 	move	zero,zero
    cc34:	00000021 	move	zero,zero
    cc38:	00000021 	move	zero,zero
    cc3c:	00000021 	move	zero,zero
    cc40:	00000021 	move	zero,zero
    cc44:	00000021 	move	zero,zero
    cc48:	00000021 	move	zero,zero
    cc4c:	3c12a2f6 	lui	s2,0xa2f6
    cc50:	3652fdf0 	ori	s2,s2,0xfdf0
    cc54:	001fa021 	addu	s4,zero,ra
    cc58:	0015f821 	addu	ra,zero,s5
    cc5c:	3c150001 	lui	s5,0x1
    cc60:	26b5cbb4 	addiu	s5,s5,-13388
    cc64:	3c160001 	lui	s6,0x1
    cc68:	26d6cbfc 	addiu	s6,s6,-13316
    cc6c:	3c187470 	lui	t8,0x7470
    cc70:	371814c0 	ori	t8,t8,0x14c0
    cc74:	161815e0 	bne	s0,t8,123f8 <inst_error>
    cc78:	00000000 	nop
    cc7c:	00000000 	nop
    cc80:	3c18a2f6 	lui	t8,0xa2f6
    cc84:	3718fdf0 	ori	t8,t8,0xfdf0
    cc88:	165815db 	bne	s2,t8,123f8 <inst_error>
    cc8c:	00000000 	nop
    cc90:	00000000 	nop
    cc94:	3c19bfc0 	lui	t9,0xbfc0
    cc98:	37397a04 	ori	t9,t9,0x7a04
    cc9c:	3c18bfc0 	lui	t8,0xbfc0
    cca0:	371879fc 	ori	t8,t8,0x79fc
    cca4:	27180008 	addiu	t8,t8,8
    cca8:	1319000a 	beq	t8,t9,ccd4 <n35_bltzal_test+0xccd4>
    ccac:	00000000 	nop
    ccb0:	00000000 	nop
    ccb4:	3c18bfc0 	lui	t8,0xbfc0
    ccb8:	37187a2c 	ori	t8,t8,0x7a2c
    ccbc:	27180008 	addiu	t8,t8,8
    ccc0:	1319000a 	beq	t8,t9,ccec <n35_bltzal_test+0xccec>
    ccc4:	00000000 	nop
    ccc8:	100015cb 	b	123f8 <inst_error>
    cccc:	00000000 	nop
    ccd0:	00000000 	nop
    ccd4:	26b50008 	addiu	s5,s5,8
    ccd8:	169515c7 	bne	s4,s5,123f8 <inst_error>
    ccdc:	00000000 	nop
    cce0:	10000006 	b	ccfc <n35_bltzal_test+0xccfc>
    cce4:	00000000 	nop
    cce8:	00000000 	nop
    ccec:	26d60008 	addiu	s6,s6,8
    ccf0:	169615c1 	bne	s4,s6,123f8 <inst_error>
    ccf4:	00000000 	nop
	...
    cd00:	001fa821 	addu	s5,zero,ra
    cd04:	3c0ceeed 	lui	t4,0xeeed
    cd08:	358c819a 	ori	t4,t4,0x819a
    cd0c:	3c0db2fa 	lui	t5,0xb2fa
    cd10:	35add2e0 	ori	t5,t5,0xd2e0
    cd14:	24100000 	li	s0,0
    cd18:	10000014 	b	cd6c <n35_bltzal_test+0xcd6c>
    cd1c:	24120000 	li	s2,0
    cd20:	00000000 	nop
    cd24:	3c10eeed 	lui	s0,0xeeed
    cd28:	3610819a 	ori	s0,s0,0x819a
    cd2c:	05100025 	bltzal	t0,cdc4 <n35_bltzal_test+0xcdc4>
    cd30:	00000000 	nop
    cd34:	10000025 	b	cdcc <n35_bltzal_test+0xcdcc>
    cd38:	00000000 	nop
    cd3c:	00000000 	nop
    cd40:	00000021 	move	zero,zero
    cd44:	00000021 	move	zero,zero
    cd48:	00000021 	move	zero,zero
    cd4c:	00000021 	move	zero,zero
    cd50:	00000021 	move	zero,zero
    cd54:	00000021 	move	zero,zero
    cd58:	00000021 	move	zero,zero
    cd5c:	00000021 	move	zero,zero
    cd60:	00000021 	move	zero,zero
    cd64:	00000021 	move	zero,zero
    cd68:	00000021 	move	zero,zero
    cd6c:	3c083a43 	lui	t0,0x3a43
    cd70:	3508003a 	ori	t0,t0,0x3a
    cd74:	0510ffeb 	bltzal	t0,cd24 <n35_bltzal_test+0xcd24>
    cd78:	00000000 	nop
    cd7c:	10000013 	b	cdcc <n35_bltzal_test+0xcdcc>
    cd80:	00000000 	nop
    cd84:	00000000 	nop
    cd88:	00000021 	move	zero,zero
    cd8c:	00000021 	move	zero,zero
    cd90:	00000021 	move	zero,zero
    cd94:	00000021 	move	zero,zero
    cd98:	00000021 	move	zero,zero
    cd9c:	00000021 	move	zero,zero
    cda0:	00000021 	move	zero,zero
    cda4:	00000021 	move	zero,zero
    cda8:	00000021 	move	zero,zero
    cdac:	00000021 	move	zero,zero
    cdb0:	00000021 	move	zero,zero
    cdb4:	00000021 	move	zero,zero
    cdb8:	00000021 	move	zero,zero
    cdbc:	00000021 	move	zero,zero
    cdc0:	00000021 	move	zero,zero
    cdc4:	3c12b2fa 	lui	s2,0xb2fa
    cdc8:	3652d2e0 	ori	s2,s2,0xd2e0
    cdcc:	001fa021 	addu	s4,zero,ra
    cdd0:	0015f821 	addu	ra,zero,s5
    cdd4:	3c150001 	lui	s5,0x1
    cdd8:	26b5cd2c 	addiu	s5,s5,-13012
    cddc:	3c160001 	lui	s6,0x1
    cde0:	26d6cd74 	addiu	s6,s6,-12940
    cde4:	24180000 	li	t8,0
    cde8:	16181583 	bne	s0,t8,123f8 <inst_error>
    cdec:	00000000 	nop
    cdf0:	00000000 	nop
    cdf4:	24180000 	li	t8,0
    cdf8:	1658157f 	bne	s2,t8,123f8 <inst_error>
    cdfc:	00000000 	nop
    ce00:	00000000 	nop
    ce04:	3c19bfc0 	lui	t9,0xbfc0
    ce08:	37397b0c 	ori	t9,t9,0x7b0c
    ce0c:	3c18bfc0 	lui	t8,0xbfc0
    ce10:	37187ad4 	ori	t8,t8,0x7ad4
    ce14:	27180008 	addiu	t8,t8,8
    ce18:	1319000a 	beq	t8,t9,ce44 <n35_bltzal_test+0xce44>
    ce1c:	00000000 	nop
    ce20:	00000000 	nop
    ce24:	3c18bfc0 	lui	t8,0xbfc0
    ce28:	37187b04 	ori	t8,t8,0x7b04
    ce2c:	27180008 	addiu	t8,t8,8
    ce30:	1319000a 	beq	t8,t9,ce5c <n35_bltzal_test+0xce5c>
    ce34:	00000000 	nop
    ce38:	1000156f 	b	123f8 <inst_error>
    ce3c:	00000000 	nop
    ce40:	00000000 	nop
    ce44:	26b50008 	addiu	s5,s5,8
    ce48:	1695156b 	bne	s4,s5,123f8 <inst_error>
    ce4c:	00000000 	nop
    ce50:	10000006 	b	ce6c <n35_bltzal_test+0xce6c>
    ce54:	00000000 	nop
    ce58:	00000000 	nop
    ce5c:	26d60008 	addiu	s6,s6,8
    ce60:	16961565 	bne	s4,s6,123f8 <inst_error>
    ce64:	00000000 	nop
	...
    ce70:	001fa821 	addu	s5,zero,ra
    ce74:	3c0cdc5b 	lui	t4,0xdc5b
    ce78:	358c45a0 	ori	t4,t4,0x45a0
    ce7c:	3c0d2ec3 	lui	t5,0x2ec3
    ce80:	35adec30 	ori	t5,t5,0xec30
    ce84:	24100000 	li	s0,0
    ce88:	10000014 	b	cedc <n35_bltzal_test+0xcedc>
    ce8c:	24120000 	li	s2,0
    ce90:	00000000 	nop
    ce94:	3c10dc5b 	lui	s0,0xdc5b
    ce98:	361045a0 	ori	s0,s0,0x45a0
    ce9c:	05100025 	bltzal	t0,cf34 <n35_bltzal_test+0xcf34>
    cea0:	00000000 	nop
    cea4:	10000025 	b	cf3c <n35_bltzal_test+0xcf3c>
    cea8:	00000000 	nop
    ceac:	00000000 	nop
    ceb0:	00000021 	move	zero,zero
    ceb4:	00000021 	move	zero,zero
    ceb8:	00000021 	move	zero,zero
    cebc:	00000021 	move	zero,zero
    cec0:	00000021 	move	zero,zero
    cec4:	00000021 	move	zero,zero
    cec8:	00000021 	move	zero,zero
    cecc:	00000021 	move	zero,zero
    ced0:	00000021 	move	zero,zero
    ced4:	00000021 	move	zero,zero
    ced8:	00000021 	move	zero,zero
    cedc:	3c085037 	lui	t0,0x5037
    cee0:	3508f2c4 	ori	t0,t0,0xf2c4
    cee4:	0510ffeb 	bltzal	t0,ce94 <n35_bltzal_test+0xce94>
    cee8:	00000000 	nop
    ceec:	10000013 	b	cf3c <n35_bltzal_test+0xcf3c>
    cef0:	00000000 	nop
    cef4:	00000000 	nop
    cef8:	00000021 	move	zero,zero
    cefc:	00000021 	move	zero,zero
    cf00:	00000021 	move	zero,zero
    cf04:	00000021 	move	zero,zero
    cf08:	00000021 	move	zero,zero
    cf0c:	00000021 	move	zero,zero
    cf10:	00000021 	move	zero,zero
    cf14:	00000021 	move	zero,zero
    cf18:	00000021 	move	zero,zero
    cf1c:	00000021 	move	zero,zero
    cf20:	00000021 	move	zero,zero
    cf24:	00000021 	move	zero,zero
    cf28:	00000021 	move	zero,zero
    cf2c:	00000021 	move	zero,zero
    cf30:	00000021 	move	zero,zero
    cf34:	3c122ec3 	lui	s2,0x2ec3
    cf38:	3652ec30 	ori	s2,s2,0xec30
    cf3c:	001fa021 	addu	s4,zero,ra
    cf40:	0015f821 	addu	ra,zero,s5
    cf44:	3c150001 	lui	s5,0x1
    cf48:	26b5ce9c 	addiu	s5,s5,-12644
    cf4c:	3c160001 	lui	s6,0x1
    cf50:	26d6cee4 	addiu	s6,s6,-12572
    cf54:	24180000 	li	t8,0
    cf58:	16181527 	bne	s0,t8,123f8 <inst_error>
    cf5c:	00000000 	nop
    cf60:	00000000 	nop
    cf64:	24180000 	li	t8,0
    cf68:	16581523 	bne	s2,t8,123f8 <inst_error>
    cf6c:	00000000 	nop
    cf70:	00000000 	nop
    cf74:	3c19bfc0 	lui	t9,0xbfc0
    cf78:	37397be4 	ori	t9,t9,0x7be4
    cf7c:	3c18bfc0 	lui	t8,0xbfc0
    cf80:	37187bac 	ori	t8,t8,0x7bac
    cf84:	27180008 	addiu	t8,t8,8
    cf88:	1319000a 	beq	t8,t9,cfb4 <n35_bltzal_test+0xcfb4>
    cf8c:	00000000 	nop
    cf90:	00000000 	nop
    cf94:	3c18bfc0 	lui	t8,0xbfc0
    cf98:	37187bdc 	ori	t8,t8,0x7bdc
    cf9c:	27180008 	addiu	t8,t8,8
    cfa0:	1319000a 	beq	t8,t9,cfcc <n35_bltzal_test+0xcfcc>
    cfa4:	00000000 	nop
    cfa8:	10001513 	b	123f8 <inst_error>
    cfac:	00000000 	nop
    cfb0:	00000000 	nop
    cfb4:	26b50008 	addiu	s5,s5,8
    cfb8:	1695150f 	bne	s4,s5,123f8 <inst_error>
    cfbc:	00000000 	nop
    cfc0:	10000006 	b	cfdc <n35_bltzal_test+0xcfdc>
    cfc4:	00000000 	nop
    cfc8:	00000000 	nop
    cfcc:	26d60008 	addiu	s6,s6,8
    cfd0:	16961509 	bne	s4,s6,123f8 <inst_error>
    cfd4:	00000000 	nop
	...
    cfe0:	001fa821 	addu	s5,zero,ra
    cfe4:	3c0caff2 	lui	t4,0xaff2
    cfe8:	358c4380 	ori	t4,t4,0x4380
    cfec:	3c0d319e 	lui	t5,0x319e
    cff0:	35ad3974 	ori	t5,t5,0x3974
    cff4:	24100000 	li	s0,0
    cff8:	10000014 	b	d04c <n35_bltzal_test+0xd04c>
    cffc:	24120000 	li	s2,0
    d000:	00000000 	nop
    d004:	3c10aff2 	lui	s0,0xaff2
    d008:	36104380 	ori	s0,s0,0x4380
    d00c:	05100025 	bltzal	t0,d0a4 <n35_bltzal_test+0xd0a4>
    d010:	00000000 	nop
    d014:	10000025 	b	d0ac <n35_bltzal_test+0xd0ac>
    d018:	00000000 	nop
    d01c:	00000000 	nop
    d020:	00000021 	move	zero,zero
    d024:	00000021 	move	zero,zero
    d028:	00000021 	move	zero,zero
    d02c:	00000021 	move	zero,zero
    d030:	00000021 	move	zero,zero
    d034:	00000021 	move	zero,zero
    d038:	00000021 	move	zero,zero
    d03c:	00000021 	move	zero,zero
    d040:	00000021 	move	zero,zero
    d044:	00000021 	move	zero,zero
    d048:	00000021 	move	zero,zero
    d04c:	3c08a845 	lui	t0,0xa845
    d050:	35086f6e 	ori	t0,t0,0x6f6e
    d054:	0510ffeb 	bltzal	t0,d004 <n35_bltzal_test+0xd004>
    d058:	00000000 	nop
    d05c:	10000013 	b	d0ac <n35_bltzal_test+0xd0ac>
    d060:	00000000 	nop
    d064:	00000000 	nop
    d068:	00000021 	move	zero,zero
    d06c:	00000021 	move	zero,zero
    d070:	00000021 	move	zero,zero
    d074:	00000021 	move	zero,zero
    d078:	00000021 	move	zero,zero
    d07c:	00000021 	move	zero,zero
    d080:	00000021 	move	zero,zero
    d084:	00000021 	move	zero,zero
    d088:	00000021 	move	zero,zero
    d08c:	00000021 	move	zero,zero
    d090:	00000021 	move	zero,zero
    d094:	00000021 	move	zero,zero
    d098:	00000021 	move	zero,zero
    d09c:	00000021 	move	zero,zero
    d0a0:	00000021 	move	zero,zero
    d0a4:	3c12319e 	lui	s2,0x319e
    d0a8:	36523974 	ori	s2,s2,0x3974
    d0ac:	001fa021 	addu	s4,zero,ra
    d0b0:	0015f821 	addu	ra,zero,s5
    d0b4:	3c150001 	lui	s5,0x1
    d0b8:	26b5d00c 	addiu	s5,s5,-12276
    d0bc:	3c160001 	lui	s6,0x1
    d0c0:	26d6d054 	addiu	s6,s6,-12204
    d0c4:	3c18aff2 	lui	t8,0xaff2
    d0c8:	37184380 	ori	t8,t8,0x4380
    d0cc:	161814ca 	bne	s0,t8,123f8 <inst_error>
    d0d0:	00000000 	nop
    d0d4:	00000000 	nop
    d0d8:	3c18319e 	lui	t8,0x319e
    d0dc:	37183974 	ori	t8,t8,0x3974
    d0e0:	165814c5 	bne	s2,t8,123f8 <inst_error>
    d0e4:	00000000 	nop
    d0e8:	00000000 	nop
    d0ec:	3c19bfc0 	lui	t9,0xbfc0
    d0f0:	37397c8c 	ori	t9,t9,0x7c8c
    d0f4:	3c18bfc0 	lui	t8,0xbfc0
    d0f8:	37187c84 	ori	t8,t8,0x7c84
    d0fc:	27180008 	addiu	t8,t8,8
    d100:	1319000a 	beq	t8,t9,d12c <n35_bltzal_test+0xd12c>
    d104:	00000000 	nop
    d108:	00000000 	nop
    d10c:	3c18bfc0 	lui	t8,0xbfc0
    d110:	37187cb4 	ori	t8,t8,0x7cb4
    d114:	27180008 	addiu	t8,t8,8
    d118:	1319000a 	beq	t8,t9,d144 <n35_bltzal_test+0xd144>
    d11c:	00000000 	nop
    d120:	100014b5 	b	123f8 <inst_error>
    d124:	00000000 	nop
    d128:	00000000 	nop
    d12c:	26b50008 	addiu	s5,s5,8
    d130:	169514b1 	bne	s4,s5,123f8 <inst_error>
    d134:	00000000 	nop
    d138:	10000006 	b	d154 <n35_bltzal_test+0xd154>
    d13c:	00000000 	nop
    d140:	00000000 	nop
    d144:	26d60008 	addiu	s6,s6,8
    d148:	169614ab 	bne	s4,s6,123f8 <inst_error>
    d14c:	00000000 	nop
	...
    d158:	001fa821 	addu	s5,zero,ra
    d15c:	3c0c6374 	lui	t4,0x6374
    d160:	358c39d2 	ori	t4,t4,0x39d2
    d164:	3c0d6693 	lui	t5,0x6693
    d168:	35add9c0 	ori	t5,t5,0xd9c0
    d16c:	24100000 	li	s0,0
    d170:	10000014 	b	d1c4 <n35_bltzal_test+0xd1c4>
    d174:	24120000 	li	s2,0
    d178:	00000000 	nop
    d17c:	3c106374 	lui	s0,0x6374
    d180:	361039d2 	ori	s0,s0,0x39d2
    d184:	05100025 	bltzal	t0,d21c <n35_bltzal_test+0xd21c>
    d188:	00000000 	nop
    d18c:	10000025 	b	d224 <n35_bltzal_test+0xd224>
    d190:	00000000 	nop
    d194:	00000000 	nop
    d198:	00000021 	move	zero,zero
    d19c:	00000021 	move	zero,zero
    d1a0:	00000021 	move	zero,zero
    d1a4:	00000021 	move	zero,zero
    d1a8:	00000021 	move	zero,zero
    d1ac:	00000021 	move	zero,zero
    d1b0:	00000021 	move	zero,zero
    d1b4:	00000021 	move	zero,zero
    d1b8:	00000021 	move	zero,zero
    d1bc:	00000021 	move	zero,zero
    d1c0:	00000021 	move	zero,zero
    d1c4:	3c084148 	lui	t0,0x4148
    d1c8:	350853a0 	ori	t0,t0,0x53a0
    d1cc:	0510ffeb 	bltzal	t0,d17c <n35_bltzal_test+0xd17c>
    d1d0:	00000000 	nop
    d1d4:	10000013 	b	d224 <n35_bltzal_test+0xd224>
    d1d8:	00000000 	nop
    d1dc:	00000000 	nop
    d1e0:	00000021 	move	zero,zero
    d1e4:	00000021 	move	zero,zero
    d1e8:	00000021 	move	zero,zero
    d1ec:	00000021 	move	zero,zero
    d1f0:	00000021 	move	zero,zero
    d1f4:	00000021 	move	zero,zero
    d1f8:	00000021 	move	zero,zero
    d1fc:	00000021 	move	zero,zero
    d200:	00000021 	move	zero,zero
    d204:	00000021 	move	zero,zero
    d208:	00000021 	move	zero,zero
    d20c:	00000021 	move	zero,zero
    d210:	00000021 	move	zero,zero
    d214:	00000021 	move	zero,zero
    d218:	00000021 	move	zero,zero
    d21c:	3c126693 	lui	s2,0x6693
    d220:	3652d9c0 	ori	s2,s2,0xd9c0
    d224:	001fa021 	addu	s4,zero,ra
    d228:	0015f821 	addu	ra,zero,s5
    d22c:	3c150001 	lui	s5,0x1
    d230:	26b5d184 	addiu	s5,s5,-11900
    d234:	3c160001 	lui	s6,0x1
    d238:	26d6d1cc 	addiu	s6,s6,-11828
    d23c:	24180000 	li	t8,0
    d240:	1618146d 	bne	s0,t8,123f8 <inst_error>
    d244:	00000000 	nop
    d248:	00000000 	nop
    d24c:	24180000 	li	t8,0
    d250:	16581469 	bne	s2,t8,123f8 <inst_error>
    d254:	00000000 	nop
    d258:	00000000 	nop
    d25c:	3c19bfc0 	lui	t9,0xbfc0
    d260:	37397d94 	ori	t9,t9,0x7d94
    d264:	3c18bfc0 	lui	t8,0xbfc0
    d268:	37187d5c 	ori	t8,t8,0x7d5c
    d26c:	27180008 	addiu	t8,t8,8
    d270:	1319000a 	beq	t8,t9,d29c <n35_bltzal_test+0xd29c>
    d274:	00000000 	nop
    d278:	00000000 	nop
    d27c:	3c18bfc0 	lui	t8,0xbfc0
    d280:	37187d8c 	ori	t8,t8,0x7d8c
    d284:	27180008 	addiu	t8,t8,8
    d288:	1319000a 	beq	t8,t9,d2b4 <n35_bltzal_test+0xd2b4>
    d28c:	00000000 	nop
    d290:	10001459 	b	123f8 <inst_error>
    d294:	00000000 	nop
    d298:	00000000 	nop
    d29c:	26b50008 	addiu	s5,s5,8
    d2a0:	16951455 	bne	s4,s5,123f8 <inst_error>
    d2a4:	00000000 	nop
    d2a8:	10000006 	b	d2c4 <n35_bltzal_test+0xd2c4>
    d2ac:	00000000 	nop
    d2b0:	00000000 	nop
    d2b4:	26d60008 	addiu	s6,s6,8
    d2b8:	1696144f 	bne	s4,s6,123f8 <inst_error>
    d2bc:	00000000 	nop
	...
    d2c8:	001fa821 	addu	s5,zero,ra
    d2cc:	3c0c51b4 	lui	t4,0x51b4
    d2d0:	358c161c 	ori	t4,t4,0x161c
    d2d4:	3c0dfeaa 	lui	t5,0xfeaa
    d2d8:	35ad18a0 	ori	t5,t5,0x18a0
    d2dc:	24100000 	li	s0,0
    d2e0:	10000014 	b	d334 <n35_bltzal_test+0xd334>
    d2e4:	24120000 	li	s2,0
    d2e8:	00000000 	nop
    d2ec:	3c1051b4 	lui	s0,0x51b4
    d2f0:	3610161c 	ori	s0,s0,0x161c
    d2f4:	05100025 	bltzal	t0,d38c <n35_bltzal_test+0xd38c>
    d2f8:	00000000 	nop
    d2fc:	10000025 	b	d394 <n35_bltzal_test+0xd394>
    d300:	00000000 	nop
    d304:	00000000 	nop
    d308:	00000021 	move	zero,zero
    d30c:	00000021 	move	zero,zero
    d310:	00000021 	move	zero,zero
    d314:	00000021 	move	zero,zero
    d318:	00000021 	move	zero,zero
    d31c:	00000021 	move	zero,zero
    d320:	00000021 	move	zero,zero
    d324:	00000021 	move	zero,zero
    d328:	00000021 	move	zero,zero
    d32c:	00000021 	move	zero,zero
    d330:	00000021 	move	zero,zero
    d334:	3c08e745 	lui	t0,0xe745
    d338:	35086b0a 	ori	t0,t0,0x6b0a
    d33c:	0510ffeb 	bltzal	t0,d2ec <n35_bltzal_test+0xd2ec>
    d340:	00000000 	nop
    d344:	10000013 	b	d394 <n35_bltzal_test+0xd394>
    d348:	00000000 	nop
    d34c:	00000000 	nop
    d350:	00000021 	move	zero,zero
    d354:	00000021 	move	zero,zero
    d358:	00000021 	move	zero,zero
    d35c:	00000021 	move	zero,zero
    d360:	00000021 	move	zero,zero
    d364:	00000021 	move	zero,zero
    d368:	00000021 	move	zero,zero
    d36c:	00000021 	move	zero,zero
    d370:	00000021 	move	zero,zero
    d374:	00000021 	move	zero,zero
    d378:	00000021 	move	zero,zero
    d37c:	00000021 	move	zero,zero
    d380:	00000021 	move	zero,zero
    d384:	00000021 	move	zero,zero
    d388:	00000021 	move	zero,zero
    d38c:	3c12feaa 	lui	s2,0xfeaa
    d390:	365218a0 	ori	s2,s2,0x18a0
    d394:	001fa021 	addu	s4,zero,ra
    d398:	0015f821 	addu	ra,zero,s5
    d39c:	3c150001 	lui	s5,0x1
    d3a0:	26b5d2f4 	addiu	s5,s5,-11532
    d3a4:	3c160001 	lui	s6,0x1
    d3a8:	26d6d33c 	addiu	s6,s6,-11460
    d3ac:	3c1851b4 	lui	t8,0x51b4
    d3b0:	3718161c 	ori	t8,t8,0x161c
    d3b4:	16181410 	bne	s0,t8,123f8 <inst_error>
    d3b8:	00000000 	nop
    d3bc:	00000000 	nop
    d3c0:	3c18feaa 	lui	t8,0xfeaa
    d3c4:	371818a0 	ori	t8,t8,0x18a0
    d3c8:	1658140b 	bne	s2,t8,123f8 <inst_error>
    d3cc:	00000000 	nop
    d3d0:	00000000 	nop
    d3d4:	3c19bfc0 	lui	t9,0xbfc0
    d3d8:	37397e3c 	ori	t9,t9,0x7e3c
    d3dc:	3c18bfc0 	lui	t8,0xbfc0
    d3e0:	37187e34 	ori	t8,t8,0x7e34
    d3e4:	27180008 	addiu	t8,t8,8
    d3e8:	1319000a 	beq	t8,t9,d414 <n35_bltzal_test+0xd414>
    d3ec:	00000000 	nop
    d3f0:	00000000 	nop
    d3f4:	3c18bfc0 	lui	t8,0xbfc0
    d3f8:	37187e64 	ori	t8,t8,0x7e64
    d3fc:	27180008 	addiu	t8,t8,8
    d400:	1319000a 	beq	t8,t9,d42c <n35_bltzal_test+0xd42c>
    d404:	00000000 	nop
    d408:	100013fb 	b	123f8 <inst_error>
    d40c:	00000000 	nop
    d410:	00000000 	nop
    d414:	26b50008 	addiu	s5,s5,8
    d418:	169513f7 	bne	s4,s5,123f8 <inst_error>
    d41c:	00000000 	nop
    d420:	10000006 	b	d43c <n35_bltzal_test+0xd43c>
    d424:	00000000 	nop
    d428:	00000000 	nop
    d42c:	26d60008 	addiu	s6,s6,8
    d430:	169613f1 	bne	s4,s6,123f8 <inst_error>
    d434:	00000000 	nop
	...
    d440:	001fa821 	addu	s5,zero,ra
    d444:	3c0c6ed7 	lui	t4,0x6ed7
    d448:	358c4130 	ori	t4,t4,0x4130
    d44c:	3c0d984f 	lui	t5,0x984f
    d450:	35ad6072 	ori	t5,t5,0x6072
    d454:	24100000 	li	s0,0
    d458:	10000014 	b	d4ac <n35_bltzal_test+0xd4ac>
    d45c:	24120000 	li	s2,0
    d460:	00000000 	nop
    d464:	3c106ed7 	lui	s0,0x6ed7
    d468:	36104130 	ori	s0,s0,0x4130
    d46c:	05100025 	bltzal	t0,d504 <n35_bltzal_test+0xd504>
    d470:	00000000 	nop
    d474:	10000025 	b	d50c <n35_bltzal_test+0xd50c>
    d478:	00000000 	nop
    d47c:	00000000 	nop
    d480:	00000021 	move	zero,zero
    d484:	00000021 	move	zero,zero
    d488:	00000021 	move	zero,zero
    d48c:	00000021 	move	zero,zero
    d490:	00000021 	move	zero,zero
    d494:	00000021 	move	zero,zero
    d498:	00000021 	move	zero,zero
    d49c:	00000021 	move	zero,zero
    d4a0:	00000021 	move	zero,zero
    d4a4:	00000021 	move	zero,zero
    d4a8:	00000021 	move	zero,zero
    d4ac:	3c08bb74 	lui	t0,0xbb74
    d4b0:	3508e538 	ori	t0,t0,0xe538
    d4b4:	0510ffeb 	bltzal	t0,d464 <n35_bltzal_test+0xd464>
    d4b8:	00000000 	nop
    d4bc:	10000013 	b	d50c <n35_bltzal_test+0xd50c>
    d4c0:	00000000 	nop
    d4c4:	00000000 	nop
    d4c8:	00000021 	move	zero,zero
    d4cc:	00000021 	move	zero,zero
    d4d0:	00000021 	move	zero,zero
    d4d4:	00000021 	move	zero,zero
    d4d8:	00000021 	move	zero,zero
    d4dc:	00000021 	move	zero,zero
    d4e0:	00000021 	move	zero,zero
    d4e4:	00000021 	move	zero,zero
    d4e8:	00000021 	move	zero,zero
    d4ec:	00000021 	move	zero,zero
    d4f0:	00000021 	move	zero,zero
    d4f4:	00000021 	move	zero,zero
    d4f8:	00000021 	move	zero,zero
    d4fc:	00000021 	move	zero,zero
    d500:	00000021 	move	zero,zero
    d504:	3c12984f 	lui	s2,0x984f
    d508:	36526072 	ori	s2,s2,0x6072
    d50c:	001fa021 	addu	s4,zero,ra
    d510:	0015f821 	addu	ra,zero,s5
    d514:	3c150001 	lui	s5,0x1
    d518:	26b5d46c 	addiu	s5,s5,-11156
    d51c:	3c160001 	lui	s6,0x1
    d520:	26d6d4b4 	addiu	s6,s6,-11084
    d524:	3c186ed7 	lui	t8,0x6ed7
    d528:	37184130 	ori	t8,t8,0x4130
    d52c:	161813b2 	bne	s0,t8,123f8 <inst_error>
    d530:	00000000 	nop
    d534:	00000000 	nop
    d538:	3c18984f 	lui	t8,0x984f
    d53c:	37186072 	ori	t8,t8,0x6072
    d540:	165813ad 	bne	s2,t8,123f8 <inst_error>
    d544:	00000000 	nop
    d548:	00000000 	nop
    d54c:	3c19bfc0 	lui	t9,0xbfc0
    d550:	37397f14 	ori	t9,t9,0x7f14
    d554:	3c18bfc0 	lui	t8,0xbfc0
    d558:	37187f0c 	ori	t8,t8,0x7f0c
    d55c:	27180008 	addiu	t8,t8,8
    d560:	1319000a 	beq	t8,t9,d58c <n35_bltzal_test+0xd58c>
    d564:	00000000 	nop
    d568:	00000000 	nop
    d56c:	3c18bfc0 	lui	t8,0xbfc0
    d570:	37187f3c 	ori	t8,t8,0x7f3c
    d574:	27180008 	addiu	t8,t8,8
    d578:	1319000a 	beq	t8,t9,d5a4 <n35_bltzal_test+0xd5a4>
    d57c:	00000000 	nop
    d580:	1000139d 	b	123f8 <inst_error>
    d584:	00000000 	nop
    d588:	00000000 	nop
    d58c:	26b50008 	addiu	s5,s5,8
    d590:	16951399 	bne	s4,s5,123f8 <inst_error>
    d594:	00000000 	nop
    d598:	10000006 	b	d5b4 <n35_bltzal_test+0xd5b4>
    d59c:	00000000 	nop
    d5a0:	00000000 	nop
    d5a4:	26d60008 	addiu	s6,s6,8
    d5a8:	16961393 	bne	s4,s6,123f8 <inst_error>
    d5ac:	00000000 	nop
	...
    d5b8:	001fa821 	addu	s5,zero,ra
    d5bc:	3c0ca425 	lui	t4,0xa425
    d5c0:	358c43e0 	ori	t4,t4,0x43e0
    d5c4:	3c0d4e7c 	lui	t5,0x4e7c
    d5c8:	35adf014 	ori	t5,t5,0xf014
    d5cc:	24100000 	li	s0,0
    d5d0:	10000014 	b	d624 <n35_bltzal_test+0xd624>
    d5d4:	24120000 	li	s2,0
    d5d8:	00000000 	nop
    d5dc:	3c10a425 	lui	s0,0xa425
    d5e0:	361043e0 	ori	s0,s0,0x43e0
    d5e4:	05100025 	bltzal	t0,d67c <n35_bltzal_test+0xd67c>
    d5e8:	00000000 	nop
    d5ec:	10000025 	b	d684 <n35_bltzal_test+0xd684>
    d5f0:	00000000 	nop
    d5f4:	00000000 	nop
    d5f8:	00000021 	move	zero,zero
    d5fc:	00000021 	move	zero,zero
    d600:	00000021 	move	zero,zero
    d604:	00000021 	move	zero,zero
    d608:	00000021 	move	zero,zero
    d60c:	00000021 	move	zero,zero
    d610:	00000021 	move	zero,zero
    d614:	00000021 	move	zero,zero
    d618:	00000021 	move	zero,zero
    d61c:	00000021 	move	zero,zero
    d620:	00000021 	move	zero,zero
    d624:	3c0822d3 	lui	t0,0x22d3
    d628:	350813b0 	ori	t0,t0,0x13b0
    d62c:	0510ffeb 	bltzal	t0,d5dc <n35_bltzal_test+0xd5dc>
    d630:	00000000 	nop
    d634:	10000013 	b	d684 <n35_bltzal_test+0xd684>
    d638:	00000000 	nop
    d63c:	00000000 	nop
    d640:	00000021 	move	zero,zero
    d644:	00000021 	move	zero,zero
    d648:	00000021 	move	zero,zero
    d64c:	00000021 	move	zero,zero
    d650:	00000021 	move	zero,zero
    d654:	00000021 	move	zero,zero
    d658:	00000021 	move	zero,zero
    d65c:	00000021 	move	zero,zero
    d660:	00000021 	move	zero,zero
    d664:	00000021 	move	zero,zero
    d668:	00000021 	move	zero,zero
    d66c:	00000021 	move	zero,zero
    d670:	00000021 	move	zero,zero
    d674:	00000021 	move	zero,zero
    d678:	00000021 	move	zero,zero
    d67c:	3c124e7c 	lui	s2,0x4e7c
    d680:	3652f014 	ori	s2,s2,0xf014
    d684:	001fa021 	addu	s4,zero,ra
    d688:	0015f821 	addu	ra,zero,s5
    d68c:	3c150001 	lui	s5,0x1
    d690:	26b5d5e4 	addiu	s5,s5,-10780
    d694:	3c160001 	lui	s6,0x1
    d698:	26d6d62c 	addiu	s6,s6,-10708
    d69c:	24180000 	li	t8,0
    d6a0:	16181355 	bne	s0,t8,123f8 <inst_error>
    d6a4:	00000000 	nop
    d6a8:	00000000 	nop
    d6ac:	24180000 	li	t8,0
    d6b0:	16581351 	bne	s2,t8,123f8 <inst_error>
    d6b4:	00000000 	nop
    d6b8:	00000000 	nop
    d6bc:	3c19bfc0 	lui	t9,0xbfc0
    d6c0:	3739801c 	ori	t9,t9,0x801c
    d6c4:	3c18bfc0 	lui	t8,0xbfc0
    d6c8:	37187fe4 	ori	t8,t8,0x7fe4
    d6cc:	27180008 	addiu	t8,t8,8
    d6d0:	1319000a 	beq	t8,t9,d6fc <n35_bltzal_test+0xd6fc>
    d6d4:	00000000 	nop
    d6d8:	00000000 	nop
    d6dc:	3c18bfc0 	lui	t8,0xbfc0
    d6e0:	37188014 	ori	t8,t8,0x8014
    d6e4:	27180008 	addiu	t8,t8,8
    d6e8:	1319000a 	beq	t8,t9,d714 <n35_bltzal_test+0xd714>
    d6ec:	00000000 	nop
    d6f0:	10001341 	b	123f8 <inst_error>
    d6f4:	00000000 	nop
    d6f8:	00000000 	nop
    d6fc:	26b50008 	addiu	s5,s5,8
    d700:	1695133d 	bne	s4,s5,123f8 <inst_error>
    d704:	00000000 	nop
    d708:	10000006 	b	d724 <n35_bltzal_test+0xd724>
    d70c:	00000000 	nop
    d710:	00000000 	nop
    d714:	26d60008 	addiu	s6,s6,8
    d718:	16961337 	bne	s4,s6,123f8 <inst_error>
    d71c:	00000000 	nop
	...
    d728:	001fa821 	addu	s5,zero,ra
    d72c:	3c0c80ef 	lui	t4,0x80ef
    d730:	358c8300 	ori	t4,t4,0x8300
    d734:	3c0d3576 	lui	t5,0x3576
    d738:	35ad293c 	ori	t5,t5,0x293c
    d73c:	24100000 	li	s0,0
    d740:	10000014 	b	d794 <n35_bltzal_test+0xd794>
    d744:	24120000 	li	s2,0
    d748:	00000000 	nop
    d74c:	3c1080ef 	lui	s0,0x80ef
    d750:	36108300 	ori	s0,s0,0x8300
    d754:	05100025 	bltzal	t0,d7ec <n35_bltzal_test+0xd7ec>
    d758:	00000000 	nop
    d75c:	10000025 	b	d7f4 <n35_bltzal_test+0xd7f4>
    d760:	00000000 	nop
    d764:	00000000 	nop
    d768:	00000021 	move	zero,zero
    d76c:	00000021 	move	zero,zero
    d770:	00000021 	move	zero,zero
    d774:	00000021 	move	zero,zero
    d778:	00000021 	move	zero,zero
    d77c:	00000021 	move	zero,zero
    d780:	00000021 	move	zero,zero
    d784:	00000021 	move	zero,zero
    d788:	00000021 	move	zero,zero
    d78c:	00000021 	move	zero,zero
    d790:	00000021 	move	zero,zero
    d794:	3c085879 	lui	t0,0x5879
    d798:	3508a989 	ori	t0,t0,0xa989
    d79c:	0510ffeb 	bltzal	t0,d74c <n35_bltzal_test+0xd74c>
    d7a0:	00000000 	nop
    d7a4:	10000013 	b	d7f4 <n35_bltzal_test+0xd7f4>
    d7a8:	00000000 	nop
    d7ac:	00000000 	nop
    d7b0:	00000021 	move	zero,zero
    d7b4:	00000021 	move	zero,zero
    d7b8:	00000021 	move	zero,zero
    d7bc:	00000021 	move	zero,zero
    d7c0:	00000021 	move	zero,zero
    d7c4:	00000021 	move	zero,zero
    d7c8:	00000021 	move	zero,zero
    d7cc:	00000021 	move	zero,zero
    d7d0:	00000021 	move	zero,zero
    d7d4:	00000021 	move	zero,zero
    d7d8:	00000021 	move	zero,zero
    d7dc:	00000021 	move	zero,zero
    d7e0:	00000021 	move	zero,zero
    d7e4:	00000021 	move	zero,zero
    d7e8:	00000021 	move	zero,zero
    d7ec:	3c123576 	lui	s2,0x3576
    d7f0:	3652293c 	ori	s2,s2,0x293c
    d7f4:	001fa021 	addu	s4,zero,ra
    d7f8:	0015f821 	addu	ra,zero,s5
    d7fc:	3c150001 	lui	s5,0x1
    d800:	26b5d754 	addiu	s5,s5,-10412
    d804:	3c160001 	lui	s6,0x1
    d808:	26d6d79c 	addiu	s6,s6,-10340
    d80c:	24180000 	li	t8,0
    d810:	161812f9 	bne	s0,t8,123f8 <inst_error>
    d814:	00000000 	nop
    d818:	00000000 	nop
    d81c:	24180000 	li	t8,0
    d820:	165812f5 	bne	s2,t8,123f8 <inst_error>
    d824:	00000000 	nop
    d828:	00000000 	nop
    d82c:	3c19bfc0 	lui	t9,0xbfc0
    d830:	373980f4 	ori	t9,t9,0x80f4
    d834:	3c18bfc0 	lui	t8,0xbfc0
    d838:	371880bc 	ori	t8,t8,0x80bc
    d83c:	27180008 	addiu	t8,t8,8
    d840:	1319000a 	beq	t8,t9,d86c <n35_bltzal_test+0xd86c>
    d844:	00000000 	nop
    d848:	00000000 	nop
    d84c:	3c18bfc0 	lui	t8,0xbfc0
    d850:	371880ec 	ori	t8,t8,0x80ec
    d854:	27180008 	addiu	t8,t8,8
    d858:	1319000a 	beq	t8,t9,d884 <n35_bltzal_test+0xd884>
    d85c:	00000000 	nop
    d860:	100012e5 	b	123f8 <inst_error>
    d864:	00000000 	nop
    d868:	00000000 	nop
    d86c:	26b50008 	addiu	s5,s5,8
    d870:	169512e1 	bne	s4,s5,123f8 <inst_error>
    d874:	00000000 	nop
    d878:	10000006 	b	d894 <n35_bltzal_test+0xd894>
    d87c:	00000000 	nop
    d880:	00000000 	nop
    d884:	26d60008 	addiu	s6,s6,8
    d888:	169612db 	bne	s4,s6,123f8 <inst_error>
    d88c:	00000000 	nop
	...
    d898:	001fa821 	addu	s5,zero,ra
    d89c:	3c0c67f8 	lui	t4,0x67f8
    d8a0:	358c2b20 	ori	t4,t4,0x2b20
    d8a4:	3c0d3eed 	lui	t5,0x3eed
    d8a8:	35addf3c 	ori	t5,t5,0xdf3c
    d8ac:	24100000 	li	s0,0
    d8b0:	10000014 	b	d904 <n35_bltzal_test+0xd904>
    d8b4:	24120000 	li	s2,0
    d8b8:	00000000 	nop
    d8bc:	3c1067f8 	lui	s0,0x67f8
    d8c0:	36102b20 	ori	s0,s0,0x2b20
    d8c4:	05100025 	bltzal	t0,d95c <n35_bltzal_test+0xd95c>
    d8c8:	00000000 	nop
    d8cc:	10000025 	b	d964 <n35_bltzal_test+0xd964>
    d8d0:	00000000 	nop
    d8d4:	00000000 	nop
    d8d8:	00000021 	move	zero,zero
    d8dc:	00000021 	move	zero,zero
    d8e0:	00000021 	move	zero,zero
    d8e4:	00000021 	move	zero,zero
    d8e8:	00000021 	move	zero,zero
    d8ec:	00000021 	move	zero,zero
    d8f0:	00000021 	move	zero,zero
    d8f4:	00000021 	move	zero,zero
    d8f8:	00000021 	move	zero,zero
    d8fc:	00000021 	move	zero,zero
    d900:	00000021 	move	zero,zero
    d904:	3c086dd7 	lui	t0,0x6dd7
    d908:	3508a283 	ori	t0,t0,0xa283
    d90c:	0510ffeb 	bltzal	t0,d8bc <n35_bltzal_test+0xd8bc>
    d910:	00000000 	nop
    d914:	10000013 	b	d964 <n35_bltzal_test+0xd964>
    d918:	00000000 	nop
    d91c:	00000000 	nop
    d920:	00000021 	move	zero,zero
    d924:	00000021 	move	zero,zero
    d928:	00000021 	move	zero,zero
    d92c:	00000021 	move	zero,zero
    d930:	00000021 	move	zero,zero
    d934:	00000021 	move	zero,zero
    d938:	00000021 	move	zero,zero
    d93c:	00000021 	move	zero,zero
    d940:	00000021 	move	zero,zero
    d944:	00000021 	move	zero,zero
    d948:	00000021 	move	zero,zero
    d94c:	00000021 	move	zero,zero
    d950:	00000021 	move	zero,zero
    d954:	00000021 	move	zero,zero
    d958:	00000021 	move	zero,zero
    d95c:	3c123eed 	lui	s2,0x3eed
    d960:	3652df3c 	ori	s2,s2,0xdf3c
    d964:	001fa021 	addu	s4,zero,ra
    d968:	0015f821 	addu	ra,zero,s5
    d96c:	3c150001 	lui	s5,0x1
    d970:	26b5d8c4 	addiu	s5,s5,-10044
    d974:	3c160001 	lui	s6,0x1
    d978:	26d6d90c 	addiu	s6,s6,-9972
    d97c:	24180000 	li	t8,0
    d980:	1618129d 	bne	s0,t8,123f8 <inst_error>
    d984:	00000000 	nop
    d988:	00000000 	nop
    d98c:	24180000 	li	t8,0
    d990:	16581299 	bne	s2,t8,123f8 <inst_error>
    d994:	00000000 	nop
    d998:	00000000 	nop
    d99c:	3c19bfc0 	lui	t9,0xbfc0
    d9a0:	373981cc 	ori	t9,t9,0x81cc
    d9a4:	3c18bfc0 	lui	t8,0xbfc0
    d9a8:	37188194 	ori	t8,t8,0x8194
    d9ac:	27180008 	addiu	t8,t8,8
    d9b0:	1319000a 	beq	t8,t9,d9dc <n35_bltzal_test+0xd9dc>
    d9b4:	00000000 	nop
    d9b8:	00000000 	nop
    d9bc:	3c18bfc0 	lui	t8,0xbfc0
    d9c0:	371881c4 	ori	t8,t8,0x81c4
    d9c4:	27180008 	addiu	t8,t8,8
    d9c8:	1319000a 	beq	t8,t9,d9f4 <n35_bltzal_test+0xd9f4>
    d9cc:	00000000 	nop
    d9d0:	10001289 	b	123f8 <inst_error>
    d9d4:	00000000 	nop
    d9d8:	00000000 	nop
    d9dc:	26b50008 	addiu	s5,s5,8
    d9e0:	16951285 	bne	s4,s5,123f8 <inst_error>
    d9e4:	00000000 	nop
    d9e8:	10000006 	b	da04 <n35_bltzal_test+0xda04>
    d9ec:	00000000 	nop
    d9f0:	00000000 	nop
    d9f4:	26d60008 	addiu	s6,s6,8
    d9f8:	1696127f 	bne	s4,s6,123f8 <inst_error>
    d9fc:	00000000 	nop
	...
    da08:	001fa821 	addu	s5,zero,ra
    da0c:	3c0c6b6c 	lui	t4,0x6b6c
    da10:	358cd290 	ori	t4,t4,0xd290
    da14:	3c0d3607 	lui	t5,0x3607
    da18:	35ad83ea 	ori	t5,t5,0x83ea
    da1c:	24100000 	li	s0,0
    da20:	10000014 	b	da74 <n35_bltzal_test+0xda74>
    da24:	24120000 	li	s2,0
    da28:	00000000 	nop
    da2c:	3c106b6c 	lui	s0,0x6b6c
    da30:	3610d290 	ori	s0,s0,0xd290
    da34:	05100025 	bltzal	t0,dacc <n35_bltzal_test+0xdacc>
    da38:	00000000 	nop
    da3c:	10000025 	b	dad4 <n35_bltzal_test+0xdad4>
    da40:	00000000 	nop
    da44:	00000000 	nop
    da48:	00000021 	move	zero,zero
    da4c:	00000021 	move	zero,zero
    da50:	00000021 	move	zero,zero
    da54:	00000021 	move	zero,zero
    da58:	00000021 	move	zero,zero
    da5c:	00000021 	move	zero,zero
    da60:	00000021 	move	zero,zero
    da64:	00000021 	move	zero,zero
    da68:	00000021 	move	zero,zero
    da6c:	00000021 	move	zero,zero
    da70:	00000021 	move	zero,zero
    da74:	3c088c3e 	lui	t0,0x8c3e
    da78:	35086232 	ori	t0,t0,0x6232
    da7c:	0510ffeb 	bltzal	t0,da2c <n35_bltzal_test+0xda2c>
    da80:	00000000 	nop
    da84:	10000013 	b	dad4 <n35_bltzal_test+0xdad4>
    da88:	00000000 	nop
    da8c:	00000000 	nop
    da90:	00000021 	move	zero,zero
    da94:	00000021 	move	zero,zero
    da98:	00000021 	move	zero,zero
    da9c:	00000021 	move	zero,zero
    daa0:	00000021 	move	zero,zero
    daa4:	00000021 	move	zero,zero
    daa8:	00000021 	move	zero,zero
    daac:	00000021 	move	zero,zero
    dab0:	00000021 	move	zero,zero
    dab4:	00000021 	move	zero,zero
    dab8:	00000021 	move	zero,zero
    dabc:	00000021 	move	zero,zero
    dac0:	00000021 	move	zero,zero
    dac4:	00000021 	move	zero,zero
    dac8:	00000021 	move	zero,zero
    dacc:	3c123607 	lui	s2,0x3607
    dad0:	365283ea 	ori	s2,s2,0x83ea
    dad4:	001fa021 	addu	s4,zero,ra
    dad8:	0015f821 	addu	ra,zero,s5
    dadc:	3c150001 	lui	s5,0x1
    dae0:	26b5da34 	addiu	s5,s5,-9676
    dae4:	3c160001 	lui	s6,0x1
    dae8:	26d6da7c 	addiu	s6,s6,-9604
    daec:	3c186b6c 	lui	t8,0x6b6c
    daf0:	3718d290 	ori	t8,t8,0xd290
    daf4:	16181240 	bne	s0,t8,123f8 <inst_error>
    daf8:	00000000 	nop
    dafc:	00000000 	nop
    db00:	3c183607 	lui	t8,0x3607
    db04:	371883ea 	ori	t8,t8,0x83ea
    db08:	1658123b 	bne	s2,t8,123f8 <inst_error>
    db0c:	00000000 	nop
    db10:	00000000 	nop
    db14:	3c19bfc0 	lui	t9,0xbfc0
    db18:	37398274 	ori	t9,t9,0x8274
    db1c:	3c18bfc0 	lui	t8,0xbfc0
    db20:	3718826c 	ori	t8,t8,0x826c
    db24:	27180008 	addiu	t8,t8,8
    db28:	1319000a 	beq	t8,t9,db54 <n35_bltzal_test+0xdb54>
    db2c:	00000000 	nop
    db30:	00000000 	nop
    db34:	3c18bfc0 	lui	t8,0xbfc0
    db38:	3718829c 	ori	t8,t8,0x829c
    db3c:	27180008 	addiu	t8,t8,8
    db40:	1319000a 	beq	t8,t9,db6c <n35_bltzal_test+0xdb6c>
    db44:	00000000 	nop
    db48:	1000122b 	b	123f8 <inst_error>
    db4c:	00000000 	nop
    db50:	00000000 	nop
    db54:	26b50008 	addiu	s5,s5,8
    db58:	16951227 	bne	s4,s5,123f8 <inst_error>
    db5c:	00000000 	nop
    db60:	10000006 	b	db7c <n35_bltzal_test+0xdb7c>
    db64:	00000000 	nop
    db68:	00000000 	nop
    db6c:	26d60008 	addiu	s6,s6,8
    db70:	16961221 	bne	s4,s6,123f8 <inst_error>
    db74:	00000000 	nop
	...
    db80:	001fa821 	addu	s5,zero,ra
    db84:	3c0ccaaa 	lui	t4,0xcaaa
    db88:	358c3fe0 	ori	t4,t4,0x3fe0
    db8c:	3c0dbfbf 	lui	t5,0xbfbf
    db90:	35ad76f0 	ori	t5,t5,0x76f0
    db94:	24100000 	li	s0,0
    db98:	10000014 	b	dbec <n35_bltzal_test+0xdbec>
    db9c:	24120000 	li	s2,0
    dba0:	00000000 	nop
    dba4:	3c10caaa 	lui	s0,0xcaaa
    dba8:	36103fe0 	ori	s0,s0,0x3fe0
    dbac:	05100025 	bltzal	t0,dc44 <n35_bltzal_test+0xdc44>
    dbb0:	00000000 	nop
    dbb4:	10000025 	b	dc4c <n35_bltzal_test+0xdc4c>
    dbb8:	00000000 	nop
    dbbc:	00000000 	nop
    dbc0:	00000021 	move	zero,zero
    dbc4:	00000021 	move	zero,zero
    dbc8:	00000021 	move	zero,zero
    dbcc:	00000021 	move	zero,zero
    dbd0:	00000021 	move	zero,zero
    dbd4:	00000021 	move	zero,zero
    dbd8:	00000021 	move	zero,zero
    dbdc:	00000021 	move	zero,zero
    dbe0:	00000021 	move	zero,zero
    dbe4:	00000021 	move	zero,zero
    dbe8:	00000021 	move	zero,zero
    dbec:	3c089935 	lui	t0,0x9935
    dbf0:	3508c478 	ori	t0,t0,0xc478
    dbf4:	0510ffeb 	bltzal	t0,dba4 <n35_bltzal_test+0xdba4>
    dbf8:	00000000 	nop
    dbfc:	10000013 	b	dc4c <n35_bltzal_test+0xdc4c>
    dc00:	00000000 	nop
    dc04:	00000000 	nop
    dc08:	00000021 	move	zero,zero
    dc0c:	00000021 	move	zero,zero
    dc10:	00000021 	move	zero,zero
    dc14:	00000021 	move	zero,zero
    dc18:	00000021 	move	zero,zero
    dc1c:	00000021 	move	zero,zero
    dc20:	00000021 	move	zero,zero
    dc24:	00000021 	move	zero,zero
    dc28:	00000021 	move	zero,zero
    dc2c:	00000021 	move	zero,zero
    dc30:	00000021 	move	zero,zero
    dc34:	00000021 	move	zero,zero
    dc38:	00000021 	move	zero,zero
    dc3c:	00000021 	move	zero,zero
    dc40:	00000021 	move	zero,zero
    dc44:	3c12bfbf 	lui	s2,0xbfbf
    dc48:	365276f0 	ori	s2,s2,0x76f0
    dc4c:	001fa021 	addu	s4,zero,ra
    dc50:	0015f821 	addu	ra,zero,s5
    dc54:	3c150001 	lui	s5,0x1
    dc58:	26b5dbac 	addiu	s5,s5,-9300
    dc5c:	3c160001 	lui	s6,0x1
    dc60:	26d6dbf4 	addiu	s6,s6,-9228
    dc64:	3c18caaa 	lui	t8,0xcaaa
    dc68:	37183fe0 	ori	t8,t8,0x3fe0
    dc6c:	161811e2 	bne	s0,t8,123f8 <inst_error>
    dc70:	00000000 	nop
    dc74:	00000000 	nop
    dc78:	3c18bfbf 	lui	t8,0xbfbf
    dc7c:	371876f0 	ori	t8,t8,0x76f0
    dc80:	165811dd 	bne	s2,t8,123f8 <inst_error>
    dc84:	00000000 	nop
    dc88:	00000000 	nop
    dc8c:	3c19bfc0 	lui	t9,0xbfc0
    dc90:	3739834c 	ori	t9,t9,0x834c
    dc94:	3c18bfc0 	lui	t8,0xbfc0
    dc98:	37188344 	ori	t8,t8,0x8344
    dc9c:	27180008 	addiu	t8,t8,8
    dca0:	1319000a 	beq	t8,t9,dccc <n35_bltzal_test+0xdccc>
    dca4:	00000000 	nop
    dca8:	00000000 	nop
    dcac:	3c18bfc0 	lui	t8,0xbfc0
    dcb0:	37188374 	ori	t8,t8,0x8374
    dcb4:	27180008 	addiu	t8,t8,8
    dcb8:	1319000a 	beq	t8,t9,dce4 <n35_bltzal_test+0xdce4>
    dcbc:	00000000 	nop
    dcc0:	100011cd 	b	123f8 <inst_error>
    dcc4:	00000000 	nop
    dcc8:	00000000 	nop
    dccc:	26b50008 	addiu	s5,s5,8
    dcd0:	169511c9 	bne	s4,s5,123f8 <inst_error>
    dcd4:	00000000 	nop
    dcd8:	10000006 	b	dcf4 <n35_bltzal_test+0xdcf4>
    dcdc:	00000000 	nop
    dce0:	00000000 	nop
    dce4:	26d60008 	addiu	s6,s6,8
    dce8:	169611c3 	bne	s4,s6,123f8 <inst_error>
    dcec:	00000000 	nop
	...
    dcf8:	001fa821 	addu	s5,zero,ra
    dcfc:	3c0cd065 	lui	t4,0xd065
    dd00:	358c8f18 	ori	t4,t4,0x8f18
    dd04:	3c0d2794 	lui	t5,0x2794
    dd08:	35ad7ea4 	ori	t5,t5,0x7ea4
    dd0c:	24100000 	li	s0,0
    dd10:	10000014 	b	dd64 <n35_bltzal_test+0xdd64>
    dd14:	24120000 	li	s2,0
    dd18:	00000000 	nop
    dd1c:	3c10d065 	lui	s0,0xd065
    dd20:	36108f18 	ori	s0,s0,0x8f18
    dd24:	05100025 	bltzal	t0,ddbc <n35_bltzal_test+0xddbc>
    dd28:	00000000 	nop
    dd2c:	10000025 	b	ddc4 <n35_bltzal_test+0xddc4>
    dd30:	00000000 	nop
    dd34:	00000000 	nop
    dd38:	00000021 	move	zero,zero
    dd3c:	00000021 	move	zero,zero
    dd40:	00000021 	move	zero,zero
    dd44:	00000021 	move	zero,zero
    dd48:	00000021 	move	zero,zero
    dd4c:	00000021 	move	zero,zero
    dd50:	00000021 	move	zero,zero
    dd54:	00000021 	move	zero,zero
    dd58:	00000021 	move	zero,zero
    dd5c:	00000021 	move	zero,zero
    dd60:	00000021 	move	zero,zero
    dd64:	3c08aa40 	lui	t0,0xaa40
    dd68:	3508e800 	ori	t0,t0,0xe800
    dd6c:	0510ffeb 	bltzal	t0,dd1c <n35_bltzal_test+0xdd1c>
    dd70:	00000000 	nop
    dd74:	10000013 	b	ddc4 <n35_bltzal_test+0xddc4>
    dd78:	00000000 	nop
    dd7c:	00000000 	nop
    dd80:	00000021 	move	zero,zero
    dd84:	00000021 	move	zero,zero
    dd88:	00000021 	move	zero,zero
    dd8c:	00000021 	move	zero,zero
    dd90:	00000021 	move	zero,zero
    dd94:	00000021 	move	zero,zero
    dd98:	00000021 	move	zero,zero
    dd9c:	00000021 	move	zero,zero
    dda0:	00000021 	move	zero,zero
    dda4:	00000021 	move	zero,zero
    dda8:	00000021 	move	zero,zero
    ddac:	00000021 	move	zero,zero
    ddb0:	00000021 	move	zero,zero
    ddb4:	00000021 	move	zero,zero
    ddb8:	00000021 	move	zero,zero
    ddbc:	3c122794 	lui	s2,0x2794
    ddc0:	36527ea4 	ori	s2,s2,0x7ea4
    ddc4:	001fa021 	addu	s4,zero,ra
    ddc8:	0015f821 	addu	ra,zero,s5
    ddcc:	3c150001 	lui	s5,0x1
    ddd0:	26b5dd24 	addiu	s5,s5,-8924
    ddd4:	3c160001 	lui	s6,0x1
    ddd8:	26d6dd6c 	addiu	s6,s6,-8852
    dddc:	3c18d065 	lui	t8,0xd065
    dde0:	37188f18 	ori	t8,t8,0x8f18
    dde4:	16181184 	bne	s0,t8,123f8 <inst_error>
    dde8:	00000000 	nop
    ddec:	00000000 	nop
    ddf0:	3c182794 	lui	t8,0x2794
    ddf4:	37187ea4 	ori	t8,t8,0x7ea4
    ddf8:	1658117f 	bne	s2,t8,123f8 <inst_error>
    ddfc:	00000000 	nop
    de00:	00000000 	nop
    de04:	3c19bfc0 	lui	t9,0xbfc0
    de08:	37398424 	ori	t9,t9,0x8424
    de0c:	3c18bfc0 	lui	t8,0xbfc0
    de10:	3718841c 	ori	t8,t8,0x841c
    de14:	27180008 	addiu	t8,t8,8
    de18:	1319000a 	beq	t8,t9,de44 <n35_bltzal_test+0xde44>
    de1c:	00000000 	nop
    de20:	00000000 	nop
    de24:	3c18bfc0 	lui	t8,0xbfc0
    de28:	3718844c 	ori	t8,t8,0x844c
    de2c:	27180008 	addiu	t8,t8,8
    de30:	1319000a 	beq	t8,t9,de5c <n35_bltzal_test+0xde5c>
    de34:	00000000 	nop
    de38:	1000116f 	b	123f8 <inst_error>
    de3c:	00000000 	nop
    de40:	00000000 	nop
    de44:	26b50008 	addiu	s5,s5,8
    de48:	1695116b 	bne	s4,s5,123f8 <inst_error>
    de4c:	00000000 	nop
    de50:	10000006 	b	de6c <n35_bltzal_test+0xde6c>
    de54:	00000000 	nop
    de58:	00000000 	nop
    de5c:	26d60008 	addiu	s6,s6,8
    de60:	16961165 	bne	s4,s6,123f8 <inst_error>
    de64:	00000000 	nop
	...
    de70:	001fa821 	addu	s5,zero,ra
    de74:	3c0c2c0a 	lui	t4,0x2c0a
    de78:	358c79d8 	ori	t4,t4,0x79d8
    de7c:	3c0dba26 	lui	t5,0xba26
    de80:	35ad9468 	ori	t5,t5,0x9468
    de84:	24100000 	li	s0,0
    de88:	10000014 	b	dedc <n35_bltzal_test+0xdedc>
    de8c:	24120000 	li	s2,0
    de90:	00000000 	nop
    de94:	3c102c0a 	lui	s0,0x2c0a
    de98:	361079d8 	ori	s0,s0,0x79d8
    de9c:	05100025 	bltzal	t0,df34 <n35_bltzal_test+0xdf34>
    dea0:	00000000 	nop
    dea4:	10000025 	b	df3c <n35_bltzal_test+0xdf3c>
    dea8:	00000000 	nop
    deac:	00000000 	nop
    deb0:	00000021 	move	zero,zero
    deb4:	00000021 	move	zero,zero
    deb8:	00000021 	move	zero,zero
    debc:	00000021 	move	zero,zero
    dec0:	00000021 	move	zero,zero
    dec4:	00000021 	move	zero,zero
    dec8:	00000021 	move	zero,zero
    decc:	00000021 	move	zero,zero
    ded0:	00000021 	move	zero,zero
    ded4:	00000021 	move	zero,zero
    ded8:	00000021 	move	zero,zero
    dedc:	3c0895c5 	lui	t0,0x95c5
    dee0:	35084b0e 	ori	t0,t0,0x4b0e
    dee4:	0510ffeb 	bltzal	t0,de94 <n35_bltzal_test+0xde94>
    dee8:	00000000 	nop
    deec:	10000013 	b	df3c <n35_bltzal_test+0xdf3c>
    def0:	00000000 	nop
    def4:	00000000 	nop
    def8:	00000021 	move	zero,zero
    defc:	00000021 	move	zero,zero
    df00:	00000021 	move	zero,zero
    df04:	00000021 	move	zero,zero
    df08:	00000021 	move	zero,zero
    df0c:	00000021 	move	zero,zero
    df10:	00000021 	move	zero,zero
    df14:	00000021 	move	zero,zero
    df18:	00000021 	move	zero,zero
    df1c:	00000021 	move	zero,zero
    df20:	00000021 	move	zero,zero
    df24:	00000021 	move	zero,zero
    df28:	00000021 	move	zero,zero
    df2c:	00000021 	move	zero,zero
    df30:	00000021 	move	zero,zero
    df34:	3c12ba26 	lui	s2,0xba26
    df38:	36529468 	ori	s2,s2,0x9468
    df3c:	001fa021 	addu	s4,zero,ra
    df40:	0015f821 	addu	ra,zero,s5
    df44:	3c150001 	lui	s5,0x1
    df48:	26b5de9c 	addiu	s5,s5,-8548
    df4c:	3c160001 	lui	s6,0x1
    df50:	26d6dee4 	addiu	s6,s6,-8476
    df54:	3c182c0a 	lui	t8,0x2c0a
    df58:	371879d8 	ori	t8,t8,0x79d8
    df5c:	16181126 	bne	s0,t8,123f8 <inst_error>
    df60:	00000000 	nop
    df64:	00000000 	nop
    df68:	3c18ba26 	lui	t8,0xba26
    df6c:	37189468 	ori	t8,t8,0x9468
    df70:	16581121 	bne	s2,t8,123f8 <inst_error>
    df74:	00000000 	nop
    df78:	00000000 	nop
    df7c:	3c19bfc0 	lui	t9,0xbfc0
    df80:	373984fc 	ori	t9,t9,0x84fc
    df84:	3c18bfc0 	lui	t8,0xbfc0
    df88:	371884f4 	ori	t8,t8,0x84f4
    df8c:	27180008 	addiu	t8,t8,8
    df90:	1319000a 	beq	t8,t9,dfbc <n35_bltzal_test+0xdfbc>
    df94:	00000000 	nop
    df98:	00000000 	nop
    df9c:	3c18bfc0 	lui	t8,0xbfc0
    dfa0:	37188524 	ori	t8,t8,0x8524
    dfa4:	27180008 	addiu	t8,t8,8
    dfa8:	1319000a 	beq	t8,t9,dfd4 <n35_bltzal_test+0xdfd4>
    dfac:	00000000 	nop
    dfb0:	10001111 	b	123f8 <inst_error>
    dfb4:	00000000 	nop
    dfb8:	00000000 	nop
    dfbc:	26b50008 	addiu	s5,s5,8
    dfc0:	1695110d 	bne	s4,s5,123f8 <inst_error>
    dfc4:	00000000 	nop
    dfc8:	10000006 	b	dfe4 <n35_bltzal_test+0xdfe4>
    dfcc:	00000000 	nop
    dfd0:	00000000 	nop
    dfd4:	26d60008 	addiu	s6,s6,8
    dfd8:	16961107 	bne	s4,s6,123f8 <inst_error>
    dfdc:	00000000 	nop
	...
    dfe8:	001fa821 	addu	s5,zero,ra
    dfec:	3c0cb70c 	lui	t4,0xb70c
    dff0:	358c9fb0 	ori	t4,t4,0x9fb0
    dff4:	3c0dfc67 	lui	t5,0xfc67
    dff8:	35ad98bc 	ori	t5,t5,0x98bc
    dffc:	24100000 	li	s0,0
    e000:	10000014 	b	e054 <n35_bltzal_test+0xe054>
    e004:	24120000 	li	s2,0
    e008:	00000000 	nop
    e00c:	3c10b70c 	lui	s0,0xb70c
    e010:	36109fb0 	ori	s0,s0,0x9fb0
    e014:	05100025 	bltzal	t0,e0ac <n35_bltzal_test+0xe0ac>
    e018:	00000000 	nop
    e01c:	10000025 	b	e0b4 <n35_bltzal_test+0xe0b4>
    e020:	00000000 	nop
    e024:	00000000 	nop
    e028:	00000021 	move	zero,zero
    e02c:	00000021 	move	zero,zero
    e030:	00000021 	move	zero,zero
    e034:	00000021 	move	zero,zero
    e038:	00000021 	move	zero,zero
    e03c:	00000021 	move	zero,zero
    e040:	00000021 	move	zero,zero
    e044:	00000021 	move	zero,zero
    e048:	00000021 	move	zero,zero
    e04c:	00000021 	move	zero,zero
    e050:	00000021 	move	zero,zero
    e054:	3c080c64 	lui	t0,0xc64
    e058:	35083508 	ori	t0,t0,0x3508
    e05c:	0510ffeb 	bltzal	t0,e00c <n35_bltzal_test+0xe00c>
    e060:	00000000 	nop
    e064:	10000013 	b	e0b4 <n35_bltzal_test+0xe0b4>
    e068:	00000000 	nop
    e06c:	00000000 	nop
    e070:	00000021 	move	zero,zero
    e074:	00000021 	move	zero,zero
    e078:	00000021 	move	zero,zero
    e07c:	00000021 	move	zero,zero
    e080:	00000021 	move	zero,zero
    e084:	00000021 	move	zero,zero
    e088:	00000021 	move	zero,zero
    e08c:	00000021 	move	zero,zero
    e090:	00000021 	move	zero,zero
    e094:	00000021 	move	zero,zero
    e098:	00000021 	move	zero,zero
    e09c:	00000021 	move	zero,zero
    e0a0:	00000021 	move	zero,zero
    e0a4:	00000021 	move	zero,zero
    e0a8:	00000021 	move	zero,zero
    e0ac:	3c12fc67 	lui	s2,0xfc67
    e0b0:	365298bc 	ori	s2,s2,0x98bc
    e0b4:	001fa021 	addu	s4,zero,ra
    e0b8:	0015f821 	addu	ra,zero,s5
    e0bc:	3c150001 	lui	s5,0x1
    e0c0:	26b5e014 	addiu	s5,s5,-8172
    e0c4:	3c160001 	lui	s6,0x1
    e0c8:	26d6e05c 	addiu	s6,s6,-8100
    e0cc:	24180000 	li	t8,0
    e0d0:	161810c9 	bne	s0,t8,123f8 <inst_error>
    e0d4:	00000000 	nop
    e0d8:	00000000 	nop
    e0dc:	24180000 	li	t8,0
    e0e0:	165810c5 	bne	s2,t8,123f8 <inst_error>
    e0e4:	00000000 	nop
    e0e8:	00000000 	nop
    e0ec:	3c19bfc0 	lui	t9,0xbfc0
    e0f0:	37398604 	ori	t9,t9,0x8604
    e0f4:	3c18bfc0 	lui	t8,0xbfc0
    e0f8:	371885cc 	ori	t8,t8,0x85cc
    e0fc:	27180008 	addiu	t8,t8,8
    e100:	1319000a 	beq	t8,t9,e12c <n35_bltzal_test+0xe12c>
    e104:	00000000 	nop
    e108:	00000000 	nop
    e10c:	3c18bfc0 	lui	t8,0xbfc0
    e110:	371885fc 	ori	t8,t8,0x85fc
    e114:	27180008 	addiu	t8,t8,8
    e118:	1319000a 	beq	t8,t9,e144 <n35_bltzal_test+0xe144>
    e11c:	00000000 	nop
    e120:	100010b5 	b	123f8 <inst_error>
    e124:	00000000 	nop
    e128:	00000000 	nop
    e12c:	26b50008 	addiu	s5,s5,8
    e130:	169510b1 	bne	s4,s5,123f8 <inst_error>
    e134:	00000000 	nop
    e138:	10000006 	b	e154 <n35_bltzal_test+0xe154>
    e13c:	00000000 	nop
    e140:	00000000 	nop
    e144:	26d60008 	addiu	s6,s6,8
    e148:	169610ab 	bne	s4,s6,123f8 <inst_error>
    e14c:	00000000 	nop
	...
    e158:	001fa821 	addu	s5,zero,ra
    e15c:	3c0c1bde 	lui	t4,0x1bde
    e160:	358c5440 	ori	t4,t4,0x5440
    e164:	3c0d0a02 	lui	t5,0xa02
    e168:	35add616 	ori	t5,t5,0xd616
    e16c:	24100000 	li	s0,0
    e170:	10000014 	b	e1c4 <n35_bltzal_test+0xe1c4>
    e174:	24120000 	li	s2,0
    e178:	00000000 	nop
    e17c:	3c101bde 	lui	s0,0x1bde
    e180:	36105440 	ori	s0,s0,0x5440
    e184:	05100025 	bltzal	t0,e21c <n35_bltzal_test+0xe21c>
    e188:	00000000 	nop
    e18c:	10000025 	b	e224 <n35_bltzal_test+0xe224>
    e190:	00000000 	nop
    e194:	00000000 	nop
    e198:	00000021 	move	zero,zero
    e19c:	00000021 	move	zero,zero
    e1a0:	00000021 	move	zero,zero
    e1a4:	00000021 	move	zero,zero
    e1a8:	00000021 	move	zero,zero
    e1ac:	00000021 	move	zero,zero
    e1b0:	00000021 	move	zero,zero
    e1b4:	00000021 	move	zero,zero
    e1b8:	00000021 	move	zero,zero
    e1bc:	00000021 	move	zero,zero
    e1c0:	00000021 	move	zero,zero
    e1c4:	3c087c26 	lui	t0,0x7c26
    e1c8:	3508fe64 	ori	t0,t0,0xfe64
    e1cc:	0510ffeb 	bltzal	t0,e17c <n35_bltzal_test+0xe17c>
    e1d0:	00000000 	nop
    e1d4:	10000013 	b	e224 <n35_bltzal_test+0xe224>
    e1d8:	00000000 	nop
    e1dc:	00000000 	nop
    e1e0:	00000021 	move	zero,zero
    e1e4:	00000021 	move	zero,zero
    e1e8:	00000021 	move	zero,zero
    e1ec:	00000021 	move	zero,zero
    e1f0:	00000021 	move	zero,zero
    e1f4:	00000021 	move	zero,zero
    e1f8:	00000021 	move	zero,zero
    e1fc:	00000021 	move	zero,zero
    e200:	00000021 	move	zero,zero
    e204:	00000021 	move	zero,zero
    e208:	00000021 	move	zero,zero
    e20c:	00000021 	move	zero,zero
    e210:	00000021 	move	zero,zero
    e214:	00000021 	move	zero,zero
    e218:	00000021 	move	zero,zero
    e21c:	3c120a02 	lui	s2,0xa02
    e220:	3652d616 	ori	s2,s2,0xd616
    e224:	001fa021 	addu	s4,zero,ra
    e228:	0015f821 	addu	ra,zero,s5
    e22c:	3c150001 	lui	s5,0x1
    e230:	26b5e184 	addiu	s5,s5,-7804
    e234:	3c160001 	lui	s6,0x1
    e238:	26d6e1cc 	addiu	s6,s6,-7732
    e23c:	24180000 	li	t8,0
    e240:	1618106d 	bne	s0,t8,123f8 <inst_error>
    e244:	00000000 	nop
    e248:	00000000 	nop
    e24c:	24180000 	li	t8,0
    e250:	16581069 	bne	s2,t8,123f8 <inst_error>
    e254:	00000000 	nop
    e258:	00000000 	nop
    e25c:	3c19bfc0 	lui	t9,0xbfc0
    e260:	373986dc 	ori	t9,t9,0x86dc
    e264:	3c18bfc0 	lui	t8,0xbfc0
    e268:	371886a4 	ori	t8,t8,0x86a4
    e26c:	27180008 	addiu	t8,t8,8
    e270:	1319000a 	beq	t8,t9,e29c <n35_bltzal_test+0xe29c>
    e274:	00000000 	nop
    e278:	00000000 	nop
    e27c:	3c18bfc0 	lui	t8,0xbfc0
    e280:	371886d4 	ori	t8,t8,0x86d4
    e284:	27180008 	addiu	t8,t8,8
    e288:	1319000a 	beq	t8,t9,e2b4 <n35_bltzal_test+0xe2b4>
    e28c:	00000000 	nop
    e290:	10001059 	b	123f8 <inst_error>
    e294:	00000000 	nop
    e298:	00000000 	nop
    e29c:	26b50008 	addiu	s5,s5,8
    e2a0:	16951055 	bne	s4,s5,123f8 <inst_error>
    e2a4:	00000000 	nop
    e2a8:	10000006 	b	e2c4 <n35_bltzal_test+0xe2c4>
    e2ac:	00000000 	nop
    e2b0:	00000000 	nop
    e2b4:	26d60008 	addiu	s6,s6,8
    e2b8:	1696104f 	bne	s4,s6,123f8 <inst_error>
    e2bc:	00000000 	nop
	...
    e2c8:	001fa821 	addu	s5,zero,ra
    e2cc:	3c0c375d 	lui	t4,0x375d
    e2d0:	358c3388 	ori	t4,t4,0x3388
    e2d4:	3c0d9317 	lui	t5,0x9317
    e2d8:	35ad32c2 	ori	t5,t5,0x32c2
    e2dc:	24100000 	li	s0,0
    e2e0:	10000014 	b	e334 <n35_bltzal_test+0xe334>
    e2e4:	24120000 	li	s2,0
    e2e8:	00000000 	nop
    e2ec:	3c10375d 	lui	s0,0x375d
    e2f0:	36103388 	ori	s0,s0,0x3388
    e2f4:	05100025 	bltzal	t0,e38c <n35_bltzal_test+0xe38c>
    e2f8:	00000000 	nop
    e2fc:	10000025 	b	e394 <n35_bltzal_test+0xe394>
    e300:	00000000 	nop
    e304:	00000000 	nop
    e308:	00000021 	move	zero,zero
    e30c:	00000021 	move	zero,zero
    e310:	00000021 	move	zero,zero
    e314:	00000021 	move	zero,zero
    e318:	00000021 	move	zero,zero
    e31c:	00000021 	move	zero,zero
    e320:	00000021 	move	zero,zero
    e324:	00000021 	move	zero,zero
    e328:	00000021 	move	zero,zero
    e32c:	00000021 	move	zero,zero
    e330:	00000021 	move	zero,zero
    e334:	3c08fd4d 	lui	t0,0xfd4d
    e338:	350812cc 	ori	t0,t0,0x12cc
    e33c:	0510ffeb 	bltzal	t0,e2ec <n35_bltzal_test+0xe2ec>
    e340:	00000000 	nop
    e344:	10000013 	b	e394 <n35_bltzal_test+0xe394>
    e348:	00000000 	nop
    e34c:	00000000 	nop
    e350:	00000021 	move	zero,zero
    e354:	00000021 	move	zero,zero
    e358:	00000021 	move	zero,zero
    e35c:	00000021 	move	zero,zero
    e360:	00000021 	move	zero,zero
    e364:	00000021 	move	zero,zero
    e368:	00000021 	move	zero,zero
    e36c:	00000021 	move	zero,zero
    e370:	00000021 	move	zero,zero
    e374:	00000021 	move	zero,zero
    e378:	00000021 	move	zero,zero
    e37c:	00000021 	move	zero,zero
    e380:	00000021 	move	zero,zero
    e384:	00000021 	move	zero,zero
    e388:	00000021 	move	zero,zero
    e38c:	3c129317 	lui	s2,0x9317
    e390:	365232c2 	ori	s2,s2,0x32c2
    e394:	001fa021 	addu	s4,zero,ra
    e398:	0015f821 	addu	ra,zero,s5
    e39c:	3c150001 	lui	s5,0x1
    e3a0:	26b5e2f4 	addiu	s5,s5,-7436
    e3a4:	3c160001 	lui	s6,0x1
    e3a8:	26d6e33c 	addiu	s6,s6,-7364
    e3ac:	3c18375d 	lui	t8,0x375d
    e3b0:	37183388 	ori	t8,t8,0x3388
    e3b4:	16181010 	bne	s0,t8,123f8 <inst_error>
    e3b8:	00000000 	nop
    e3bc:	00000000 	nop
    e3c0:	3c189317 	lui	t8,0x9317
    e3c4:	371832c2 	ori	t8,t8,0x32c2
    e3c8:	1658100b 	bne	s2,t8,123f8 <inst_error>
    e3cc:	00000000 	nop
    e3d0:	00000000 	nop
    e3d4:	3c19bfc0 	lui	t9,0xbfc0
    e3d8:	37398784 	ori	t9,t9,0x8784
    e3dc:	3c18bfc0 	lui	t8,0xbfc0
    e3e0:	3718877c 	ori	t8,t8,0x877c
    e3e4:	27180008 	addiu	t8,t8,8
    e3e8:	1319000a 	beq	t8,t9,e414 <n35_bltzal_test+0xe414>
    e3ec:	00000000 	nop
    e3f0:	00000000 	nop
    e3f4:	3c18bfc0 	lui	t8,0xbfc0
    e3f8:	371887ac 	ori	t8,t8,0x87ac
    e3fc:	27180008 	addiu	t8,t8,8
    e400:	1319000a 	beq	t8,t9,e42c <n35_bltzal_test+0xe42c>
    e404:	00000000 	nop
    e408:	10000ffb 	b	123f8 <inst_error>
    e40c:	00000000 	nop
    e410:	00000000 	nop
    e414:	26b50008 	addiu	s5,s5,8
    e418:	16950ff7 	bne	s4,s5,123f8 <inst_error>
    e41c:	00000000 	nop
    e420:	10000006 	b	e43c <n35_bltzal_test+0xe43c>
    e424:	00000000 	nop
    e428:	00000000 	nop
    e42c:	26d60008 	addiu	s6,s6,8
    e430:	16960ff1 	bne	s4,s6,123f8 <inst_error>
    e434:	00000000 	nop
	...
    e440:	001fa821 	addu	s5,zero,ra
    e444:	3c0c9a02 	lui	t4,0x9a02
    e448:	358cb930 	ori	t4,t4,0xb930
    e44c:	3c0dbca4 	lui	t5,0xbca4
    e450:	35adf17c 	ori	t5,t5,0xf17c
    e454:	24100000 	li	s0,0
    e458:	10000014 	b	e4ac <n35_bltzal_test+0xe4ac>
    e45c:	24120000 	li	s2,0
    e460:	00000000 	nop
    e464:	3c109a02 	lui	s0,0x9a02
    e468:	3610b930 	ori	s0,s0,0xb930
    e46c:	05100025 	bltzal	t0,e504 <n35_bltzal_test+0xe504>
    e470:	00000000 	nop
    e474:	10000025 	b	e50c <n35_bltzal_test+0xe50c>
    e478:	00000000 	nop
    e47c:	00000000 	nop
    e480:	00000021 	move	zero,zero
    e484:	00000021 	move	zero,zero
    e488:	00000021 	move	zero,zero
    e48c:	00000021 	move	zero,zero
    e490:	00000021 	move	zero,zero
    e494:	00000021 	move	zero,zero
    e498:	00000021 	move	zero,zero
    e49c:	00000021 	move	zero,zero
    e4a0:	00000021 	move	zero,zero
    e4a4:	00000021 	move	zero,zero
    e4a8:	00000021 	move	zero,zero
    e4ac:	3c083bb5 	lui	t0,0x3bb5
    e4b0:	350816cb 	ori	t0,t0,0x16cb
    e4b4:	0510ffeb 	bltzal	t0,e464 <n35_bltzal_test+0xe464>
    e4b8:	00000000 	nop
    e4bc:	10000013 	b	e50c <n35_bltzal_test+0xe50c>
    e4c0:	00000000 	nop
    e4c4:	00000000 	nop
    e4c8:	00000021 	move	zero,zero
    e4cc:	00000021 	move	zero,zero
    e4d0:	00000021 	move	zero,zero
    e4d4:	00000021 	move	zero,zero
    e4d8:	00000021 	move	zero,zero
    e4dc:	00000021 	move	zero,zero
    e4e0:	00000021 	move	zero,zero
    e4e4:	00000021 	move	zero,zero
    e4e8:	00000021 	move	zero,zero
    e4ec:	00000021 	move	zero,zero
    e4f0:	00000021 	move	zero,zero
    e4f4:	00000021 	move	zero,zero
    e4f8:	00000021 	move	zero,zero
    e4fc:	00000021 	move	zero,zero
    e500:	00000021 	move	zero,zero
    e504:	3c12bca4 	lui	s2,0xbca4
    e508:	3652f17c 	ori	s2,s2,0xf17c
    e50c:	001fa021 	addu	s4,zero,ra
    e510:	0015f821 	addu	ra,zero,s5
    e514:	3c150001 	lui	s5,0x1
    e518:	26b5e46c 	addiu	s5,s5,-7060
    e51c:	3c160001 	lui	s6,0x1
    e520:	26d6e4b4 	addiu	s6,s6,-6988
    e524:	24180000 	li	t8,0
    e528:	16180fb3 	bne	s0,t8,123f8 <inst_error>
    e52c:	00000000 	nop
    e530:	00000000 	nop
    e534:	24180000 	li	t8,0
    e538:	16580faf 	bne	s2,t8,123f8 <inst_error>
    e53c:	00000000 	nop
    e540:	00000000 	nop
    e544:	3c19bfc0 	lui	t9,0xbfc0
    e548:	3739888c 	ori	t9,t9,0x888c
    e54c:	3c18bfc0 	lui	t8,0xbfc0
    e550:	37188854 	ori	t8,t8,0x8854
    e554:	27180008 	addiu	t8,t8,8
    e558:	1319000a 	beq	t8,t9,e584 <n35_bltzal_test+0xe584>
    e55c:	00000000 	nop
    e560:	00000000 	nop
    e564:	3c18bfc0 	lui	t8,0xbfc0
    e568:	37188884 	ori	t8,t8,0x8884
    e56c:	27180008 	addiu	t8,t8,8
    e570:	1319000a 	beq	t8,t9,e59c <n35_bltzal_test+0xe59c>
    e574:	00000000 	nop
    e578:	10000f9f 	b	123f8 <inst_error>
    e57c:	00000000 	nop
    e580:	00000000 	nop
    e584:	26b50008 	addiu	s5,s5,8
    e588:	16950f9b 	bne	s4,s5,123f8 <inst_error>
    e58c:	00000000 	nop
    e590:	10000006 	b	e5ac <n35_bltzal_test+0xe5ac>
    e594:	00000000 	nop
    e598:	00000000 	nop
    e59c:	26d60008 	addiu	s6,s6,8
    e5a0:	16960f95 	bne	s4,s6,123f8 <inst_error>
    e5a4:	00000000 	nop
	...
    e5b0:	001fa821 	addu	s5,zero,ra
    e5b4:	3c0cdc25 	lui	t4,0xdc25
    e5b8:	358c67e4 	ori	t4,t4,0x67e4
    e5bc:	3c0d7028 	lui	t5,0x7028
    e5c0:	35ad0859 	ori	t5,t5,0x859
    e5c4:	24100000 	li	s0,0
    e5c8:	10000014 	b	e61c <n35_bltzal_test+0xe61c>
    e5cc:	24120000 	li	s2,0
    e5d0:	00000000 	nop
    e5d4:	3c10dc25 	lui	s0,0xdc25
    e5d8:	361067e4 	ori	s0,s0,0x67e4
    e5dc:	05100025 	bltzal	t0,e674 <n35_bltzal_test+0xe674>
    e5e0:	00000000 	nop
    e5e4:	10000025 	b	e67c <n35_bltzal_test+0xe67c>
    e5e8:	00000000 	nop
    e5ec:	00000000 	nop
    e5f0:	00000021 	move	zero,zero
    e5f4:	00000021 	move	zero,zero
    e5f8:	00000021 	move	zero,zero
    e5fc:	00000021 	move	zero,zero
    e600:	00000021 	move	zero,zero
    e604:	00000021 	move	zero,zero
    e608:	00000021 	move	zero,zero
    e60c:	00000021 	move	zero,zero
    e610:	00000021 	move	zero,zero
    e614:	00000021 	move	zero,zero
    e618:	00000021 	move	zero,zero
    e61c:	3c0872a5 	lui	t0,0x72a5
    e620:	35083c58 	ori	t0,t0,0x3c58
    e624:	0510ffeb 	bltzal	t0,e5d4 <n35_bltzal_test+0xe5d4>
    e628:	00000000 	nop
    e62c:	10000013 	b	e67c <n35_bltzal_test+0xe67c>
    e630:	00000000 	nop
    e634:	00000000 	nop
    e638:	00000021 	move	zero,zero
    e63c:	00000021 	move	zero,zero
    e640:	00000021 	move	zero,zero
    e644:	00000021 	move	zero,zero
    e648:	00000021 	move	zero,zero
    e64c:	00000021 	move	zero,zero
    e650:	00000021 	move	zero,zero
    e654:	00000021 	move	zero,zero
    e658:	00000021 	move	zero,zero
    e65c:	00000021 	move	zero,zero
    e660:	00000021 	move	zero,zero
    e664:	00000021 	move	zero,zero
    e668:	00000021 	move	zero,zero
    e66c:	00000021 	move	zero,zero
    e670:	00000021 	move	zero,zero
    e674:	3c127028 	lui	s2,0x7028
    e678:	36520859 	ori	s2,s2,0x859
    e67c:	001fa021 	addu	s4,zero,ra
    e680:	0015f821 	addu	ra,zero,s5
    e684:	3c150001 	lui	s5,0x1
    e688:	26b5e5dc 	addiu	s5,s5,-6692
    e68c:	3c160001 	lui	s6,0x1
    e690:	26d6e624 	addiu	s6,s6,-6620
    e694:	24180000 	li	t8,0
    e698:	16180f57 	bne	s0,t8,123f8 <inst_error>
    e69c:	00000000 	nop
    e6a0:	00000000 	nop
    e6a4:	24180000 	li	t8,0
    e6a8:	16580f53 	bne	s2,t8,123f8 <inst_error>
    e6ac:	00000000 	nop
    e6b0:	00000000 	nop
    e6b4:	3c19bfc0 	lui	t9,0xbfc0
    e6b8:	37398964 	ori	t9,t9,0x8964
    e6bc:	3c18bfc0 	lui	t8,0xbfc0
    e6c0:	3718892c 	ori	t8,t8,0x892c
    e6c4:	27180008 	addiu	t8,t8,8
    e6c8:	1319000a 	beq	t8,t9,e6f4 <n35_bltzal_test+0xe6f4>
    e6cc:	00000000 	nop
    e6d0:	00000000 	nop
    e6d4:	3c18bfc0 	lui	t8,0xbfc0
    e6d8:	3718895c 	ori	t8,t8,0x895c
    e6dc:	27180008 	addiu	t8,t8,8
    e6e0:	1319000a 	beq	t8,t9,e70c <n35_bltzal_test+0xe70c>
    e6e4:	00000000 	nop
    e6e8:	10000f43 	b	123f8 <inst_error>
    e6ec:	00000000 	nop
    e6f0:	00000000 	nop
    e6f4:	26b50008 	addiu	s5,s5,8
    e6f8:	16950f3f 	bne	s4,s5,123f8 <inst_error>
    e6fc:	00000000 	nop
    e700:	10000006 	b	e71c <n35_bltzal_test+0xe71c>
    e704:	00000000 	nop
    e708:	00000000 	nop
    e70c:	26d60008 	addiu	s6,s6,8
    e710:	16960f39 	bne	s4,s6,123f8 <inst_error>
    e714:	00000000 	nop
	...
    e720:	001fa821 	addu	s5,zero,ra
    e724:	3c0c184a 	lui	t4,0x184a
    e728:	358cc668 	ori	t4,t4,0xc668
    e72c:	3c0d2127 	lui	t5,0x2127
    e730:	35adb7d2 	ori	t5,t5,0xb7d2
    e734:	24100000 	li	s0,0
    e738:	10000014 	b	e78c <n35_bltzal_test+0xe78c>
    e73c:	24120000 	li	s2,0
    e740:	00000000 	nop
    e744:	3c10184a 	lui	s0,0x184a
    e748:	3610c668 	ori	s0,s0,0xc668
    e74c:	05100025 	bltzal	t0,e7e4 <n35_bltzal_test+0xe7e4>
    e750:	00000000 	nop
    e754:	10000025 	b	e7ec <n35_bltzal_test+0xe7ec>
    e758:	00000000 	nop
    e75c:	00000000 	nop
    e760:	00000021 	move	zero,zero
    e764:	00000021 	move	zero,zero
    e768:	00000021 	move	zero,zero
    e76c:	00000021 	move	zero,zero
    e770:	00000021 	move	zero,zero
    e774:	00000021 	move	zero,zero
    e778:	00000021 	move	zero,zero
    e77c:	00000021 	move	zero,zero
    e780:	00000021 	move	zero,zero
    e784:	00000021 	move	zero,zero
    e788:	00000021 	move	zero,zero
    e78c:	3c089911 	lui	t0,0x9911
    e790:	35089a2e 	ori	t0,t0,0x9a2e
    e794:	0510ffeb 	bltzal	t0,e744 <n35_bltzal_test+0xe744>
    e798:	00000000 	nop
    e79c:	10000013 	b	e7ec <n35_bltzal_test+0xe7ec>
    e7a0:	00000000 	nop
    e7a4:	00000000 	nop
    e7a8:	00000021 	move	zero,zero
    e7ac:	00000021 	move	zero,zero
    e7b0:	00000021 	move	zero,zero
    e7b4:	00000021 	move	zero,zero
    e7b8:	00000021 	move	zero,zero
    e7bc:	00000021 	move	zero,zero
    e7c0:	00000021 	move	zero,zero
    e7c4:	00000021 	move	zero,zero
    e7c8:	00000021 	move	zero,zero
    e7cc:	00000021 	move	zero,zero
    e7d0:	00000021 	move	zero,zero
    e7d4:	00000021 	move	zero,zero
    e7d8:	00000021 	move	zero,zero
    e7dc:	00000021 	move	zero,zero
    e7e0:	00000021 	move	zero,zero
    e7e4:	3c122127 	lui	s2,0x2127
    e7e8:	3652b7d2 	ori	s2,s2,0xb7d2
    e7ec:	001fa021 	addu	s4,zero,ra
    e7f0:	0015f821 	addu	ra,zero,s5
    e7f4:	3c150001 	lui	s5,0x1
    e7f8:	26b5e74c 	addiu	s5,s5,-6324
    e7fc:	3c160001 	lui	s6,0x1
    e800:	26d6e794 	addiu	s6,s6,-6252
    e804:	3c18184a 	lui	t8,0x184a
    e808:	3718c668 	ori	t8,t8,0xc668
    e80c:	16180efa 	bne	s0,t8,123f8 <inst_error>
    e810:	00000000 	nop
    e814:	00000000 	nop
    e818:	3c182127 	lui	t8,0x2127
    e81c:	3718b7d2 	ori	t8,t8,0xb7d2
    e820:	16580ef5 	bne	s2,t8,123f8 <inst_error>
    e824:	00000000 	nop
    e828:	00000000 	nop
    e82c:	3c19bfc0 	lui	t9,0xbfc0
    e830:	37398a0c 	ori	t9,t9,0x8a0c
    e834:	3c18bfc0 	lui	t8,0xbfc0
    e838:	37188a04 	ori	t8,t8,0x8a04
    e83c:	27180008 	addiu	t8,t8,8
    e840:	1319000a 	beq	t8,t9,e86c <n35_bltzal_test+0xe86c>
    e844:	00000000 	nop
    e848:	00000000 	nop
    e84c:	3c18bfc0 	lui	t8,0xbfc0
    e850:	37188a34 	ori	t8,t8,0x8a34
    e854:	27180008 	addiu	t8,t8,8
    e858:	1319000a 	beq	t8,t9,e884 <n35_bltzal_test+0xe884>
    e85c:	00000000 	nop
    e860:	10000ee5 	b	123f8 <inst_error>
    e864:	00000000 	nop
    e868:	00000000 	nop
    e86c:	26b50008 	addiu	s5,s5,8
    e870:	16950ee1 	bne	s4,s5,123f8 <inst_error>
    e874:	00000000 	nop
    e878:	10000006 	b	e894 <n35_bltzal_test+0xe894>
    e87c:	00000000 	nop
    e880:	00000000 	nop
    e884:	26d60008 	addiu	s6,s6,8
    e888:	16960edb 	bne	s4,s6,123f8 <inst_error>
    e88c:	00000000 	nop
	...
    e898:	001fa821 	addu	s5,zero,ra
    e89c:	3c0c7d1f 	lui	t4,0x7d1f
    e8a0:	358c992e 	ori	t4,t4,0x992e
    e8a4:	3c0d3cde 	lui	t5,0x3cde
    e8a8:	35ad2960 	ori	t5,t5,0x2960
    e8ac:	24100000 	li	s0,0
    e8b0:	10000014 	b	e904 <n35_bltzal_test+0xe904>
    e8b4:	24120000 	li	s2,0
    e8b8:	00000000 	nop
    e8bc:	3c107d1f 	lui	s0,0x7d1f
    e8c0:	3610992e 	ori	s0,s0,0x992e
    e8c4:	05100025 	bltzal	t0,e95c <n35_bltzal_test+0xe95c>
    e8c8:	00000000 	nop
    e8cc:	10000025 	b	e964 <n35_bltzal_test+0xe964>
    e8d0:	00000000 	nop
    e8d4:	00000000 	nop
    e8d8:	00000021 	move	zero,zero
    e8dc:	00000021 	move	zero,zero
    e8e0:	00000021 	move	zero,zero
    e8e4:	00000021 	move	zero,zero
    e8e8:	00000021 	move	zero,zero
    e8ec:	00000021 	move	zero,zero
    e8f0:	00000021 	move	zero,zero
    e8f4:	00000021 	move	zero,zero
    e8f8:	00000021 	move	zero,zero
    e8fc:	00000021 	move	zero,zero
    e900:	00000021 	move	zero,zero
    e904:	3c08b446 	lui	t0,0xb446
    e908:	3508190a 	ori	t0,t0,0x190a
    e90c:	0510ffeb 	bltzal	t0,e8bc <n35_bltzal_test+0xe8bc>
    e910:	00000000 	nop
    e914:	10000013 	b	e964 <n35_bltzal_test+0xe964>
    e918:	00000000 	nop
    e91c:	00000000 	nop
    e920:	00000021 	move	zero,zero
    e924:	00000021 	move	zero,zero
    e928:	00000021 	move	zero,zero
    e92c:	00000021 	move	zero,zero
    e930:	00000021 	move	zero,zero
    e934:	00000021 	move	zero,zero
    e938:	00000021 	move	zero,zero
    e93c:	00000021 	move	zero,zero
    e940:	00000021 	move	zero,zero
    e944:	00000021 	move	zero,zero
    e948:	00000021 	move	zero,zero
    e94c:	00000021 	move	zero,zero
    e950:	00000021 	move	zero,zero
    e954:	00000021 	move	zero,zero
    e958:	00000021 	move	zero,zero
    e95c:	3c123cde 	lui	s2,0x3cde
    e960:	36522960 	ori	s2,s2,0x2960
    e964:	001fa021 	addu	s4,zero,ra
    e968:	0015f821 	addu	ra,zero,s5
    e96c:	3c150001 	lui	s5,0x1
    e970:	26b5e8c4 	addiu	s5,s5,-5948
    e974:	3c160001 	lui	s6,0x1
    e978:	26d6e90c 	addiu	s6,s6,-5876
    e97c:	3c187d1f 	lui	t8,0x7d1f
    e980:	3718992e 	ori	t8,t8,0x992e
    e984:	16180e9c 	bne	s0,t8,123f8 <inst_error>
    e988:	00000000 	nop
    e98c:	00000000 	nop
    e990:	3c183cde 	lui	t8,0x3cde
    e994:	37182960 	ori	t8,t8,0x2960
    e998:	16580e97 	bne	s2,t8,123f8 <inst_error>
    e99c:	00000000 	nop
    e9a0:	00000000 	nop
    e9a4:	3c19bfc0 	lui	t9,0xbfc0
    e9a8:	37398ae4 	ori	t9,t9,0x8ae4
    e9ac:	3c18bfc0 	lui	t8,0xbfc0
    e9b0:	37188adc 	ori	t8,t8,0x8adc
    e9b4:	27180008 	addiu	t8,t8,8
    e9b8:	1319000a 	beq	t8,t9,e9e4 <n35_bltzal_test+0xe9e4>
    e9bc:	00000000 	nop
    e9c0:	00000000 	nop
    e9c4:	3c18bfc0 	lui	t8,0xbfc0
    e9c8:	37188b0c 	ori	t8,t8,0x8b0c
    e9cc:	27180008 	addiu	t8,t8,8
    e9d0:	1319000a 	beq	t8,t9,e9fc <n35_bltzal_test+0xe9fc>
    e9d4:	00000000 	nop
    e9d8:	10000e87 	b	123f8 <inst_error>
    e9dc:	00000000 	nop
    e9e0:	00000000 	nop
    e9e4:	26b50008 	addiu	s5,s5,8
    e9e8:	16950e83 	bne	s4,s5,123f8 <inst_error>
    e9ec:	00000000 	nop
    e9f0:	10000006 	b	ea0c <n35_bltzal_test+0xea0c>
    e9f4:	00000000 	nop
    e9f8:	00000000 	nop
    e9fc:	26d60008 	addiu	s6,s6,8
    ea00:	16960e7d 	bne	s4,s6,123f8 <inst_error>
    ea04:	00000000 	nop
	...
    ea10:	001fa821 	addu	s5,zero,ra
    ea14:	3c0cf3cd 	lui	t4,0xf3cd
    ea18:	358cf593 	ori	t4,t4,0xf593
    ea1c:	3c0d97e1 	lui	t5,0x97e1
    ea20:	35adfbbc 	ori	t5,t5,0xfbbc
    ea24:	24100000 	li	s0,0
    ea28:	10000014 	b	ea7c <n35_bltzal_test+0xea7c>
    ea2c:	24120000 	li	s2,0
    ea30:	00000000 	nop
    ea34:	3c10f3cd 	lui	s0,0xf3cd
    ea38:	3610f593 	ori	s0,s0,0xf593
    ea3c:	05100025 	bltzal	t0,ead4 <n35_bltzal_test+0xead4>
    ea40:	00000000 	nop
    ea44:	10000025 	b	eadc <n35_bltzal_test+0xeadc>
    ea48:	00000000 	nop
    ea4c:	00000000 	nop
    ea50:	00000021 	move	zero,zero
    ea54:	00000021 	move	zero,zero
    ea58:	00000021 	move	zero,zero
    ea5c:	00000021 	move	zero,zero
    ea60:	00000021 	move	zero,zero
    ea64:	00000021 	move	zero,zero
    ea68:	00000021 	move	zero,zero
    ea6c:	00000021 	move	zero,zero
    ea70:	00000021 	move	zero,zero
    ea74:	00000021 	move	zero,zero
    ea78:	00000021 	move	zero,zero
    ea7c:	3c081b8f 	lui	t0,0x1b8f
    ea80:	350896bc 	ori	t0,t0,0x96bc
    ea84:	0510ffeb 	bltzal	t0,ea34 <n35_bltzal_test+0xea34>
    ea88:	00000000 	nop
    ea8c:	10000013 	b	eadc <n35_bltzal_test+0xeadc>
    ea90:	00000000 	nop
    ea94:	00000000 	nop
    ea98:	00000021 	move	zero,zero
    ea9c:	00000021 	move	zero,zero
    eaa0:	00000021 	move	zero,zero
    eaa4:	00000021 	move	zero,zero
    eaa8:	00000021 	move	zero,zero
    eaac:	00000021 	move	zero,zero
    eab0:	00000021 	move	zero,zero
    eab4:	00000021 	move	zero,zero
    eab8:	00000021 	move	zero,zero
    eabc:	00000021 	move	zero,zero
    eac0:	00000021 	move	zero,zero
    eac4:	00000021 	move	zero,zero
    eac8:	00000021 	move	zero,zero
    eacc:	00000021 	move	zero,zero
    ead0:	00000021 	move	zero,zero
    ead4:	3c1297e1 	lui	s2,0x97e1
    ead8:	3652fbbc 	ori	s2,s2,0xfbbc
    eadc:	001fa021 	addu	s4,zero,ra
    eae0:	0015f821 	addu	ra,zero,s5
    eae4:	3c150001 	lui	s5,0x1
    eae8:	26b5ea3c 	addiu	s5,s5,-5572
    eaec:	3c160001 	lui	s6,0x1
    eaf0:	26d6ea84 	addiu	s6,s6,-5500
    eaf4:	24180000 	li	t8,0
    eaf8:	16180e3f 	bne	s0,t8,123f8 <inst_error>
    eafc:	00000000 	nop
    eb00:	00000000 	nop
    eb04:	24180000 	li	t8,0
    eb08:	16580e3b 	bne	s2,t8,123f8 <inst_error>
    eb0c:	00000000 	nop
    eb10:	00000000 	nop
    eb14:	3c19bfc0 	lui	t9,0xbfc0
    eb18:	37398bec 	ori	t9,t9,0x8bec
    eb1c:	3c18bfc0 	lui	t8,0xbfc0
    eb20:	37188bb4 	ori	t8,t8,0x8bb4
    eb24:	27180008 	addiu	t8,t8,8
    eb28:	1319000a 	beq	t8,t9,eb54 <n35_bltzal_test+0xeb54>
    eb2c:	00000000 	nop
    eb30:	00000000 	nop
    eb34:	3c18bfc0 	lui	t8,0xbfc0
    eb38:	37188be4 	ori	t8,t8,0x8be4
    eb3c:	27180008 	addiu	t8,t8,8
    eb40:	1319000a 	beq	t8,t9,eb6c <n35_bltzal_test+0xeb6c>
    eb44:	00000000 	nop
    eb48:	10000e2b 	b	123f8 <inst_error>
    eb4c:	00000000 	nop
    eb50:	00000000 	nop
    eb54:	26b50008 	addiu	s5,s5,8
    eb58:	16950e27 	bne	s4,s5,123f8 <inst_error>
    eb5c:	00000000 	nop
    eb60:	10000006 	b	eb7c <n35_bltzal_test+0xeb7c>
    eb64:	00000000 	nop
    eb68:	00000000 	nop
    eb6c:	26d60008 	addiu	s6,s6,8
    eb70:	16960e21 	bne	s4,s6,123f8 <inst_error>
    eb74:	00000000 	nop
	...
    eb80:	001fa821 	addu	s5,zero,ra
    eb84:	3c0cdcdb 	lui	t4,0xdcdb
    eb88:	358cab7f 	ori	t4,t4,0xab7f
    eb8c:	3c0d1e34 	lui	t5,0x1e34
    eb90:	35ad1cf8 	ori	t5,t5,0x1cf8
    eb94:	24100000 	li	s0,0
    eb98:	10000014 	b	ebec <n35_bltzal_test+0xebec>
    eb9c:	24120000 	li	s2,0
    eba0:	00000000 	nop
    eba4:	3c10dcdb 	lui	s0,0xdcdb
    eba8:	3610ab7f 	ori	s0,s0,0xab7f
    ebac:	05100025 	bltzal	t0,ec44 <n35_bltzal_test+0xec44>
    ebb0:	00000000 	nop
    ebb4:	10000025 	b	ec4c <n35_bltzal_test+0xec4c>
    ebb8:	00000000 	nop
    ebbc:	00000000 	nop
    ebc0:	00000021 	move	zero,zero
    ebc4:	00000021 	move	zero,zero
    ebc8:	00000021 	move	zero,zero
    ebcc:	00000021 	move	zero,zero
    ebd0:	00000021 	move	zero,zero
    ebd4:	00000021 	move	zero,zero
    ebd8:	00000021 	move	zero,zero
    ebdc:	00000021 	move	zero,zero
    ebe0:	00000021 	move	zero,zero
    ebe4:	00000021 	move	zero,zero
    ebe8:	00000021 	move	zero,zero
    ebec:	3c087891 	lui	t0,0x7891
    ebf0:	350894bf 	ori	t0,t0,0x94bf
    ebf4:	0510ffeb 	bltzal	t0,eba4 <n35_bltzal_test+0xeba4>
    ebf8:	00000000 	nop
    ebfc:	10000013 	b	ec4c <n35_bltzal_test+0xec4c>
    ec00:	00000000 	nop
    ec04:	00000000 	nop
    ec08:	00000021 	move	zero,zero
    ec0c:	00000021 	move	zero,zero
    ec10:	00000021 	move	zero,zero
    ec14:	00000021 	move	zero,zero
    ec18:	00000021 	move	zero,zero
    ec1c:	00000021 	move	zero,zero
    ec20:	00000021 	move	zero,zero
    ec24:	00000021 	move	zero,zero
    ec28:	00000021 	move	zero,zero
    ec2c:	00000021 	move	zero,zero
    ec30:	00000021 	move	zero,zero
    ec34:	00000021 	move	zero,zero
    ec38:	00000021 	move	zero,zero
    ec3c:	00000021 	move	zero,zero
    ec40:	00000021 	move	zero,zero
    ec44:	3c121e34 	lui	s2,0x1e34
    ec48:	36521cf8 	ori	s2,s2,0x1cf8
    ec4c:	001fa021 	addu	s4,zero,ra
    ec50:	0015f821 	addu	ra,zero,s5
    ec54:	3c150001 	lui	s5,0x1
    ec58:	26b5ebac 	addiu	s5,s5,-5204
    ec5c:	3c160001 	lui	s6,0x1
    ec60:	26d6ebf4 	addiu	s6,s6,-5132
    ec64:	24180000 	li	t8,0
    ec68:	16180de3 	bne	s0,t8,123f8 <inst_error>
    ec6c:	00000000 	nop
    ec70:	00000000 	nop
    ec74:	24180000 	li	t8,0
    ec78:	16580ddf 	bne	s2,t8,123f8 <inst_error>
    ec7c:	00000000 	nop
    ec80:	00000000 	nop
    ec84:	3c19bfc0 	lui	t9,0xbfc0
    ec88:	37398cc4 	ori	t9,t9,0x8cc4
    ec8c:	3c18bfc0 	lui	t8,0xbfc0
    ec90:	37188c8c 	ori	t8,t8,0x8c8c
    ec94:	27180008 	addiu	t8,t8,8
    ec98:	1319000a 	beq	t8,t9,ecc4 <n35_bltzal_test+0xecc4>
    ec9c:	00000000 	nop
    eca0:	00000000 	nop
    eca4:	3c18bfc0 	lui	t8,0xbfc0
    eca8:	37188cbc 	ori	t8,t8,0x8cbc
    ecac:	27180008 	addiu	t8,t8,8
    ecb0:	1319000a 	beq	t8,t9,ecdc <n35_bltzal_test+0xecdc>
    ecb4:	00000000 	nop
    ecb8:	10000dcf 	b	123f8 <inst_error>
    ecbc:	00000000 	nop
    ecc0:	00000000 	nop
    ecc4:	26b50008 	addiu	s5,s5,8
    ecc8:	16950dcb 	bne	s4,s5,123f8 <inst_error>
    eccc:	00000000 	nop
    ecd0:	10000006 	b	ecec <n35_bltzal_test+0xecec>
    ecd4:	00000000 	nop
    ecd8:	00000000 	nop
    ecdc:	26d60008 	addiu	s6,s6,8
    ece0:	16960dc5 	bne	s4,s6,123f8 <inst_error>
    ece4:	00000000 	nop
	...
    ecf0:	001fa821 	addu	s5,zero,ra
    ecf4:	3c0c9962 	lui	t4,0x9962
    ecf8:	358ce5f0 	ori	t4,t4,0xe5f0
    ecfc:	3c0dad6c 	lui	t5,0xad6c
    ed00:	35adcba6 	ori	t5,t5,0xcba6
    ed04:	24100000 	li	s0,0
    ed08:	10000014 	b	ed5c <n35_bltzal_test+0xed5c>
    ed0c:	24120000 	li	s2,0
    ed10:	00000000 	nop
    ed14:	3c109962 	lui	s0,0x9962
    ed18:	3610e5f0 	ori	s0,s0,0xe5f0
    ed1c:	05100025 	bltzal	t0,edb4 <n35_bltzal_test+0xedb4>
    ed20:	00000000 	nop
    ed24:	10000025 	b	edbc <n35_bltzal_test+0xedbc>
    ed28:	00000000 	nop
    ed2c:	00000000 	nop
    ed30:	00000021 	move	zero,zero
    ed34:	00000021 	move	zero,zero
    ed38:	00000021 	move	zero,zero
    ed3c:	00000021 	move	zero,zero
    ed40:	00000021 	move	zero,zero
    ed44:	00000021 	move	zero,zero
    ed48:	00000021 	move	zero,zero
    ed4c:	00000021 	move	zero,zero
    ed50:	00000021 	move	zero,zero
    ed54:	00000021 	move	zero,zero
    ed58:	00000021 	move	zero,zero
    ed5c:	3c082369 	lui	t0,0x2369
    ed60:	35088dbe 	ori	t0,t0,0x8dbe
    ed64:	0510ffeb 	bltzal	t0,ed14 <n35_bltzal_test+0xed14>
    ed68:	00000000 	nop
    ed6c:	10000013 	b	edbc <n35_bltzal_test+0xedbc>
    ed70:	00000000 	nop
    ed74:	00000000 	nop
    ed78:	00000021 	move	zero,zero
    ed7c:	00000021 	move	zero,zero
    ed80:	00000021 	move	zero,zero
    ed84:	00000021 	move	zero,zero
    ed88:	00000021 	move	zero,zero
    ed8c:	00000021 	move	zero,zero
    ed90:	00000021 	move	zero,zero
    ed94:	00000021 	move	zero,zero
    ed98:	00000021 	move	zero,zero
    ed9c:	00000021 	move	zero,zero
    eda0:	00000021 	move	zero,zero
    eda4:	00000021 	move	zero,zero
    eda8:	00000021 	move	zero,zero
    edac:	00000021 	move	zero,zero
    edb0:	00000021 	move	zero,zero
    edb4:	3c12ad6c 	lui	s2,0xad6c
    edb8:	3652cba6 	ori	s2,s2,0xcba6
    edbc:	001fa021 	addu	s4,zero,ra
    edc0:	0015f821 	addu	ra,zero,s5
    edc4:	3c150001 	lui	s5,0x1
    edc8:	26b5ed1c 	addiu	s5,s5,-4836
    edcc:	3c160001 	lui	s6,0x1
    edd0:	26d6ed64 	addiu	s6,s6,-4764
    edd4:	24180000 	li	t8,0
    edd8:	16180d87 	bne	s0,t8,123f8 <inst_error>
    eddc:	00000000 	nop
    ede0:	00000000 	nop
    ede4:	24180000 	li	t8,0
    ede8:	16580d83 	bne	s2,t8,123f8 <inst_error>
    edec:	00000000 	nop
    edf0:	00000000 	nop
    edf4:	3c19bfc0 	lui	t9,0xbfc0
    edf8:	37398d9c 	ori	t9,t9,0x8d9c
    edfc:	3c18bfc0 	lui	t8,0xbfc0
    ee00:	37188d64 	ori	t8,t8,0x8d64
    ee04:	27180008 	addiu	t8,t8,8
    ee08:	1319000a 	beq	t8,t9,ee34 <n35_bltzal_test+0xee34>
    ee0c:	00000000 	nop
    ee10:	00000000 	nop
    ee14:	3c18bfc0 	lui	t8,0xbfc0
    ee18:	37188d94 	ori	t8,t8,0x8d94
    ee1c:	27180008 	addiu	t8,t8,8
    ee20:	1319000a 	beq	t8,t9,ee4c <n35_bltzal_test+0xee4c>
    ee24:	00000000 	nop
    ee28:	10000d73 	b	123f8 <inst_error>
    ee2c:	00000000 	nop
    ee30:	00000000 	nop
    ee34:	26b50008 	addiu	s5,s5,8
    ee38:	16950d6f 	bne	s4,s5,123f8 <inst_error>
    ee3c:	00000000 	nop
    ee40:	10000006 	b	ee5c <n35_bltzal_test+0xee5c>
    ee44:	00000000 	nop
    ee48:	00000000 	nop
    ee4c:	26d60008 	addiu	s6,s6,8
    ee50:	16960d69 	bne	s4,s6,123f8 <inst_error>
    ee54:	00000000 	nop
	...
    ee60:	001fa821 	addu	s5,zero,ra
    ee64:	3c0cb96f 	lui	t4,0xb96f
    ee68:	358c903d 	ori	t4,t4,0x903d
    ee6c:	3c0d85e7 	lui	t5,0x85e7
    ee70:	35ad6370 	ori	t5,t5,0x6370
    ee74:	24100000 	li	s0,0
    ee78:	10000014 	b	eecc <n35_bltzal_test+0xeecc>
    ee7c:	24120000 	li	s2,0
    ee80:	00000000 	nop
    ee84:	3c10b96f 	lui	s0,0xb96f
    ee88:	3610903d 	ori	s0,s0,0x903d
    ee8c:	05100025 	bltzal	t0,ef24 <n35_bltzal_test+0xef24>
    ee90:	00000000 	nop
    ee94:	10000025 	b	ef2c <n35_bltzal_test+0xef2c>
    ee98:	00000000 	nop
    ee9c:	00000000 	nop
    eea0:	00000021 	move	zero,zero
    eea4:	00000021 	move	zero,zero
    eea8:	00000021 	move	zero,zero
    eeac:	00000021 	move	zero,zero
    eeb0:	00000021 	move	zero,zero
    eeb4:	00000021 	move	zero,zero
    eeb8:	00000021 	move	zero,zero
    eebc:	00000021 	move	zero,zero
    eec0:	00000021 	move	zero,zero
    eec4:	00000021 	move	zero,zero
    eec8:	00000021 	move	zero,zero
    eecc:	3c087b96 	lui	t0,0x7b96
    eed0:	3508aa28 	ori	t0,t0,0xaa28
    eed4:	0510ffeb 	bltzal	t0,ee84 <n35_bltzal_test+0xee84>
    eed8:	00000000 	nop
    eedc:	10000013 	b	ef2c <n35_bltzal_test+0xef2c>
    eee0:	00000000 	nop
    eee4:	00000000 	nop
    eee8:	00000021 	move	zero,zero
    eeec:	00000021 	move	zero,zero
    eef0:	00000021 	move	zero,zero
    eef4:	00000021 	move	zero,zero
    eef8:	00000021 	move	zero,zero
    eefc:	00000021 	move	zero,zero
    ef00:	00000021 	move	zero,zero
    ef04:	00000021 	move	zero,zero
    ef08:	00000021 	move	zero,zero
    ef0c:	00000021 	move	zero,zero
    ef10:	00000021 	move	zero,zero
    ef14:	00000021 	move	zero,zero
    ef18:	00000021 	move	zero,zero
    ef1c:	00000021 	move	zero,zero
    ef20:	00000021 	move	zero,zero
    ef24:	3c1285e7 	lui	s2,0x85e7
    ef28:	36526370 	ori	s2,s2,0x6370
    ef2c:	001fa021 	addu	s4,zero,ra
    ef30:	0015f821 	addu	ra,zero,s5
    ef34:	3c150001 	lui	s5,0x1
    ef38:	26b5ee8c 	addiu	s5,s5,-4468
    ef3c:	3c160001 	lui	s6,0x1
    ef40:	26d6eed4 	addiu	s6,s6,-4396
    ef44:	24180000 	li	t8,0
    ef48:	16180d2b 	bne	s0,t8,123f8 <inst_error>
    ef4c:	00000000 	nop
    ef50:	00000000 	nop
    ef54:	24180000 	li	t8,0
    ef58:	16580d27 	bne	s2,t8,123f8 <inst_error>
    ef5c:	00000000 	nop
    ef60:	00000000 	nop
    ef64:	3c19bfc0 	lui	t9,0xbfc0
    ef68:	37398e74 	ori	t9,t9,0x8e74
    ef6c:	3c18bfc0 	lui	t8,0xbfc0
    ef70:	37188e3c 	ori	t8,t8,0x8e3c
    ef74:	27180008 	addiu	t8,t8,8
    ef78:	1319000a 	beq	t8,t9,efa4 <n35_bltzal_test+0xefa4>
    ef7c:	00000000 	nop
    ef80:	00000000 	nop
    ef84:	3c18bfc0 	lui	t8,0xbfc0
    ef88:	37188e6c 	ori	t8,t8,0x8e6c
    ef8c:	27180008 	addiu	t8,t8,8
    ef90:	1319000a 	beq	t8,t9,efbc <n35_bltzal_test+0xefbc>
    ef94:	00000000 	nop
    ef98:	10000d17 	b	123f8 <inst_error>
    ef9c:	00000000 	nop
    efa0:	00000000 	nop
    efa4:	26b50008 	addiu	s5,s5,8
    efa8:	16950d13 	bne	s4,s5,123f8 <inst_error>
    efac:	00000000 	nop
    efb0:	10000006 	b	efcc <n35_bltzal_test+0xefcc>
    efb4:	00000000 	nop
    efb8:	00000000 	nop
    efbc:	26d60008 	addiu	s6,s6,8
    efc0:	16960d0d 	bne	s4,s6,123f8 <inst_error>
    efc4:	00000000 	nop
	...
    efd0:	001fa821 	addu	s5,zero,ra
    efd4:	3c0c5257 	lui	t4,0x5257
    efd8:	358ca372 	ori	t4,t4,0xa372
    efdc:	3c0d865c 	lui	t5,0x865c
    efe0:	35ad7e28 	ori	t5,t5,0x7e28
    efe4:	24100000 	li	s0,0
    efe8:	10000014 	b	f03c <n35_bltzal_test+0xf03c>
    efec:	24120000 	li	s2,0
    eff0:	00000000 	nop
    eff4:	3c105257 	lui	s0,0x5257
    eff8:	3610a372 	ori	s0,s0,0xa372
    effc:	05100025 	bltzal	t0,f094 <n35_bltzal_test+0xf094>
    f000:	00000000 	nop
    f004:	10000025 	b	f09c <n35_bltzal_test+0xf09c>
    f008:	00000000 	nop
    f00c:	00000000 	nop
    f010:	00000021 	move	zero,zero
    f014:	00000021 	move	zero,zero
    f018:	00000021 	move	zero,zero
    f01c:	00000021 	move	zero,zero
    f020:	00000021 	move	zero,zero
    f024:	00000021 	move	zero,zero
    f028:	00000021 	move	zero,zero
    f02c:	00000021 	move	zero,zero
    f030:	00000021 	move	zero,zero
    f034:	00000021 	move	zero,zero
    f038:	00000021 	move	zero,zero
    f03c:	3c086a9a 	lui	t0,0x6a9a
    f040:	3508e400 	ori	t0,t0,0xe400
    f044:	0510ffeb 	bltzal	t0,eff4 <n35_bltzal_test+0xeff4>
    f048:	00000000 	nop
    f04c:	10000013 	b	f09c <n35_bltzal_test+0xf09c>
    f050:	00000000 	nop
    f054:	00000000 	nop
    f058:	00000021 	move	zero,zero
    f05c:	00000021 	move	zero,zero
    f060:	00000021 	move	zero,zero
    f064:	00000021 	move	zero,zero
    f068:	00000021 	move	zero,zero
    f06c:	00000021 	move	zero,zero
    f070:	00000021 	move	zero,zero
    f074:	00000021 	move	zero,zero
    f078:	00000021 	move	zero,zero
    f07c:	00000021 	move	zero,zero
    f080:	00000021 	move	zero,zero
    f084:	00000021 	move	zero,zero
    f088:	00000021 	move	zero,zero
    f08c:	00000021 	move	zero,zero
    f090:	00000021 	move	zero,zero
    f094:	3c12865c 	lui	s2,0x865c
    f098:	36527e28 	ori	s2,s2,0x7e28
    f09c:	001fa021 	addu	s4,zero,ra
    f0a0:	0015f821 	addu	ra,zero,s5
    f0a4:	3c150001 	lui	s5,0x1
    f0a8:	26b5effc 	addiu	s5,s5,-4100
    f0ac:	3c160001 	lui	s6,0x1
    f0b0:	26d6f044 	addiu	s6,s6,-4028
    f0b4:	24180000 	li	t8,0
    f0b8:	16180ccf 	bne	s0,t8,123f8 <inst_error>
    f0bc:	00000000 	nop
    f0c0:	00000000 	nop
    f0c4:	24180000 	li	t8,0
    f0c8:	16580ccb 	bne	s2,t8,123f8 <inst_error>
    f0cc:	00000000 	nop
    f0d0:	00000000 	nop
    f0d4:	3c19bfc0 	lui	t9,0xbfc0
    f0d8:	37398f4c 	ori	t9,t9,0x8f4c
    f0dc:	3c18bfc0 	lui	t8,0xbfc0
    f0e0:	37188f14 	ori	t8,t8,0x8f14
    f0e4:	27180008 	addiu	t8,t8,8
    f0e8:	1319000a 	beq	t8,t9,f114 <n35_bltzal_test+0xf114>
    f0ec:	00000000 	nop
    f0f0:	00000000 	nop
    f0f4:	3c18bfc0 	lui	t8,0xbfc0
    f0f8:	37188f44 	ori	t8,t8,0x8f44
    f0fc:	27180008 	addiu	t8,t8,8
    f100:	1319000a 	beq	t8,t9,f12c <n35_bltzal_test+0xf12c>
    f104:	00000000 	nop
    f108:	10000cbb 	b	123f8 <inst_error>
    f10c:	00000000 	nop
    f110:	00000000 	nop
    f114:	26b50008 	addiu	s5,s5,8
    f118:	16950cb7 	bne	s4,s5,123f8 <inst_error>
    f11c:	00000000 	nop
    f120:	10000006 	b	f13c <n35_bltzal_test+0xf13c>
    f124:	00000000 	nop
    f128:	00000000 	nop
    f12c:	26d60008 	addiu	s6,s6,8
    f130:	16960cb1 	bne	s4,s6,123f8 <inst_error>
    f134:	00000000 	nop
	...
    f140:	001fa821 	addu	s5,zero,ra
    f144:	3c0c061e 	lui	t4,0x61e
    f148:	358c6658 	ori	t4,t4,0x6658
    f14c:	3c0d322f 	lui	t5,0x322f
    f150:	35adf830 	ori	t5,t5,0xf830
    f154:	24100000 	li	s0,0
    f158:	10000014 	b	f1ac <n35_bltzal_test+0xf1ac>
    f15c:	24120000 	li	s2,0
    f160:	00000000 	nop
    f164:	3c10061e 	lui	s0,0x61e
    f168:	36106658 	ori	s0,s0,0x6658
    f16c:	05100025 	bltzal	t0,f204 <n35_bltzal_test+0xf204>
    f170:	00000000 	nop
    f174:	10000025 	b	f20c <n35_bltzal_test+0xf20c>
    f178:	00000000 	nop
    f17c:	00000000 	nop
    f180:	00000021 	move	zero,zero
    f184:	00000021 	move	zero,zero
    f188:	00000021 	move	zero,zero
    f18c:	00000021 	move	zero,zero
    f190:	00000021 	move	zero,zero
    f194:	00000021 	move	zero,zero
    f198:	00000021 	move	zero,zero
    f19c:	00000021 	move	zero,zero
    f1a0:	00000021 	move	zero,zero
    f1a4:	00000021 	move	zero,zero
    f1a8:	00000021 	move	zero,zero
    f1ac:	3c0863c5 	lui	t0,0x63c5
    f1b0:	35080b28 	ori	t0,t0,0xb28
    f1b4:	0510ffeb 	bltzal	t0,f164 <n35_bltzal_test+0xf164>
    f1b8:	00000000 	nop
    f1bc:	10000013 	b	f20c <n35_bltzal_test+0xf20c>
    f1c0:	00000000 	nop
    f1c4:	00000000 	nop
    f1c8:	00000021 	move	zero,zero
    f1cc:	00000021 	move	zero,zero
    f1d0:	00000021 	move	zero,zero
    f1d4:	00000021 	move	zero,zero
    f1d8:	00000021 	move	zero,zero
    f1dc:	00000021 	move	zero,zero
    f1e0:	00000021 	move	zero,zero
    f1e4:	00000021 	move	zero,zero
    f1e8:	00000021 	move	zero,zero
    f1ec:	00000021 	move	zero,zero
    f1f0:	00000021 	move	zero,zero
    f1f4:	00000021 	move	zero,zero
    f1f8:	00000021 	move	zero,zero
    f1fc:	00000021 	move	zero,zero
    f200:	00000021 	move	zero,zero
    f204:	3c12322f 	lui	s2,0x322f
    f208:	3652f830 	ori	s2,s2,0xf830
    f20c:	001fa021 	addu	s4,zero,ra
    f210:	0015f821 	addu	ra,zero,s5
    f214:	3c150001 	lui	s5,0x1
    f218:	26b5f16c 	addiu	s5,s5,-3732
    f21c:	3c160001 	lui	s6,0x1
    f220:	26d6f1b4 	addiu	s6,s6,-3660
    f224:	24180000 	li	t8,0
    f228:	16180c73 	bne	s0,t8,123f8 <inst_error>
    f22c:	00000000 	nop
    f230:	00000000 	nop
    f234:	24180000 	li	t8,0
    f238:	16580c6f 	bne	s2,t8,123f8 <inst_error>
    f23c:	00000000 	nop
    f240:	00000000 	nop
    f244:	3c19bfc0 	lui	t9,0xbfc0
    f248:	37399024 	ori	t9,t9,0x9024
    f24c:	3c18bfc0 	lui	t8,0xbfc0
    f250:	37188fec 	ori	t8,t8,0x8fec
    f254:	27180008 	addiu	t8,t8,8
    f258:	1319000a 	beq	t8,t9,f284 <n35_bltzal_test+0xf284>
    f25c:	00000000 	nop
    f260:	00000000 	nop
    f264:	3c18bfc0 	lui	t8,0xbfc0
    f268:	3718901c 	ori	t8,t8,0x901c
    f26c:	27180008 	addiu	t8,t8,8
    f270:	1319000a 	beq	t8,t9,f29c <n35_bltzal_test+0xf29c>
    f274:	00000000 	nop
    f278:	10000c5f 	b	123f8 <inst_error>
    f27c:	00000000 	nop
    f280:	00000000 	nop
    f284:	26b50008 	addiu	s5,s5,8
    f288:	16950c5b 	bne	s4,s5,123f8 <inst_error>
    f28c:	00000000 	nop
    f290:	10000006 	b	f2ac <n35_bltzal_test+0xf2ac>
    f294:	00000000 	nop
    f298:	00000000 	nop
    f29c:	26d60008 	addiu	s6,s6,8
    f2a0:	16960c55 	bne	s4,s6,123f8 <inst_error>
    f2a4:	00000000 	nop
	...
    f2b0:	001fa821 	addu	s5,zero,ra
    f2b4:	3c0cc069 	lui	t4,0xc069
    f2b8:	358c53e0 	ori	t4,t4,0x53e0
    f2bc:	3c0da92e 	lui	t5,0xa92e
    f2c0:	35ad9bbc 	ori	t5,t5,0x9bbc
    f2c4:	24100000 	li	s0,0
    f2c8:	10000014 	b	f31c <n35_bltzal_test+0xf31c>
    f2cc:	24120000 	li	s2,0
    f2d0:	00000000 	nop
    f2d4:	3c10c069 	lui	s0,0xc069
    f2d8:	361053e0 	ori	s0,s0,0x53e0
    f2dc:	05100025 	bltzal	t0,f374 <n35_bltzal_test+0xf374>
    f2e0:	00000000 	nop
    f2e4:	10000025 	b	f37c <n35_bltzal_test+0xf37c>
    f2e8:	00000000 	nop
    f2ec:	00000000 	nop
    f2f0:	00000021 	move	zero,zero
    f2f4:	00000021 	move	zero,zero
    f2f8:	00000021 	move	zero,zero
    f2fc:	00000021 	move	zero,zero
    f300:	00000021 	move	zero,zero
    f304:	00000021 	move	zero,zero
    f308:	00000021 	move	zero,zero
    f30c:	00000021 	move	zero,zero
    f310:	00000021 	move	zero,zero
    f314:	00000021 	move	zero,zero
    f318:	00000021 	move	zero,zero
    f31c:	3c0846e9 	lui	t0,0x46e9
    f320:	350806bc 	ori	t0,t0,0x6bc
    f324:	0510ffeb 	bltzal	t0,f2d4 <n35_bltzal_test+0xf2d4>
    f328:	00000000 	nop
    f32c:	10000013 	b	f37c <n35_bltzal_test+0xf37c>
    f330:	00000000 	nop
    f334:	00000000 	nop
    f338:	00000021 	move	zero,zero
    f33c:	00000021 	move	zero,zero
    f340:	00000021 	move	zero,zero
    f344:	00000021 	move	zero,zero
    f348:	00000021 	move	zero,zero
    f34c:	00000021 	move	zero,zero
    f350:	00000021 	move	zero,zero
    f354:	00000021 	move	zero,zero
    f358:	00000021 	move	zero,zero
    f35c:	00000021 	move	zero,zero
    f360:	00000021 	move	zero,zero
    f364:	00000021 	move	zero,zero
    f368:	00000021 	move	zero,zero
    f36c:	00000021 	move	zero,zero
    f370:	00000021 	move	zero,zero
    f374:	3c12a92e 	lui	s2,0xa92e
    f378:	36529bbc 	ori	s2,s2,0x9bbc
    f37c:	001fa021 	addu	s4,zero,ra
    f380:	0015f821 	addu	ra,zero,s5
    f384:	3c150001 	lui	s5,0x1
    f388:	26b5f2dc 	addiu	s5,s5,-3364
    f38c:	3c160001 	lui	s6,0x1
    f390:	26d6f324 	addiu	s6,s6,-3292
    f394:	24180000 	li	t8,0
    f398:	16180c17 	bne	s0,t8,123f8 <inst_error>
    f39c:	00000000 	nop
    f3a0:	00000000 	nop
    f3a4:	24180000 	li	t8,0
    f3a8:	16580c13 	bne	s2,t8,123f8 <inst_error>
    f3ac:	00000000 	nop
    f3b0:	00000000 	nop
    f3b4:	3c19bfc0 	lui	t9,0xbfc0
    f3b8:	373990fc 	ori	t9,t9,0x90fc
    f3bc:	3c18bfc0 	lui	t8,0xbfc0
    f3c0:	371890c4 	ori	t8,t8,0x90c4
    f3c4:	27180008 	addiu	t8,t8,8
    f3c8:	1319000a 	beq	t8,t9,f3f4 <n35_bltzal_test+0xf3f4>
    f3cc:	00000000 	nop
    f3d0:	00000000 	nop
    f3d4:	3c18bfc0 	lui	t8,0xbfc0
    f3d8:	371890f4 	ori	t8,t8,0x90f4
    f3dc:	27180008 	addiu	t8,t8,8
    f3e0:	1319000a 	beq	t8,t9,f40c <n35_bltzal_test+0xf40c>
    f3e4:	00000000 	nop
    f3e8:	10000c03 	b	123f8 <inst_error>
    f3ec:	00000000 	nop
    f3f0:	00000000 	nop
    f3f4:	26b50008 	addiu	s5,s5,8
    f3f8:	16950bff 	bne	s4,s5,123f8 <inst_error>
    f3fc:	00000000 	nop
    f400:	10000006 	b	f41c <n35_bltzal_test+0xf41c>
    f404:	00000000 	nop
    f408:	00000000 	nop
    f40c:	26d60008 	addiu	s6,s6,8
    f410:	16960bf9 	bne	s4,s6,123f8 <inst_error>
    f414:	00000000 	nop
	...
    f420:	001fa821 	addu	s5,zero,ra
    f424:	3c0c563a 	lui	t4,0x563a
    f428:	358c0440 	ori	t4,t4,0x440
    f42c:	3c0d0817 	lui	t5,0x817
    f430:	35adb7a8 	ori	t5,t5,0xb7a8
    f434:	24100000 	li	s0,0
    f438:	10000014 	b	f48c <n35_bltzal_test+0xf48c>
    f43c:	24120000 	li	s2,0
    f440:	00000000 	nop
    f444:	3c10563a 	lui	s0,0x563a
    f448:	36100440 	ori	s0,s0,0x440
    f44c:	05100025 	bltzal	t0,f4e4 <n35_bltzal_test+0xf4e4>
    f450:	00000000 	nop
    f454:	10000025 	b	f4ec <n35_bltzal_test+0xf4ec>
    f458:	00000000 	nop
    f45c:	00000000 	nop
    f460:	00000021 	move	zero,zero
    f464:	00000021 	move	zero,zero
    f468:	00000021 	move	zero,zero
    f46c:	00000021 	move	zero,zero
    f470:	00000021 	move	zero,zero
    f474:	00000021 	move	zero,zero
    f478:	00000021 	move	zero,zero
    f47c:	00000021 	move	zero,zero
    f480:	00000021 	move	zero,zero
    f484:	00000021 	move	zero,zero
    f488:	00000021 	move	zero,zero
    f48c:	3c083bc5 	lui	t0,0x3bc5
    f490:	3508a0e0 	ori	t0,t0,0xa0e0
    f494:	0510ffeb 	bltzal	t0,f444 <n35_bltzal_test+0xf444>
    f498:	00000000 	nop
    f49c:	10000013 	b	f4ec <n35_bltzal_test+0xf4ec>
    f4a0:	00000000 	nop
    f4a4:	00000000 	nop
    f4a8:	00000021 	move	zero,zero
    f4ac:	00000021 	move	zero,zero
    f4b0:	00000021 	move	zero,zero
    f4b4:	00000021 	move	zero,zero
    f4b8:	00000021 	move	zero,zero
    f4bc:	00000021 	move	zero,zero
    f4c0:	00000021 	move	zero,zero
    f4c4:	00000021 	move	zero,zero
    f4c8:	00000021 	move	zero,zero
    f4cc:	00000021 	move	zero,zero
    f4d0:	00000021 	move	zero,zero
    f4d4:	00000021 	move	zero,zero
    f4d8:	00000021 	move	zero,zero
    f4dc:	00000021 	move	zero,zero
    f4e0:	00000021 	move	zero,zero
    f4e4:	3c120817 	lui	s2,0x817
    f4e8:	3652b7a8 	ori	s2,s2,0xb7a8
    f4ec:	001fa021 	addu	s4,zero,ra
    f4f0:	0015f821 	addu	ra,zero,s5
    f4f4:	3c150001 	lui	s5,0x1
    f4f8:	26b5f44c 	addiu	s5,s5,-2996
    f4fc:	3c160001 	lui	s6,0x1
    f500:	26d6f494 	addiu	s6,s6,-2924
    f504:	24180000 	li	t8,0
    f508:	16180bbb 	bne	s0,t8,123f8 <inst_error>
    f50c:	00000000 	nop
    f510:	00000000 	nop
    f514:	24180000 	li	t8,0
    f518:	16580bb7 	bne	s2,t8,123f8 <inst_error>
    f51c:	00000000 	nop
    f520:	00000000 	nop
    f524:	3c19bfc0 	lui	t9,0xbfc0
    f528:	373991d4 	ori	t9,t9,0x91d4
    f52c:	3c18bfc0 	lui	t8,0xbfc0
    f530:	3718919c 	ori	t8,t8,0x919c
    f534:	27180008 	addiu	t8,t8,8
    f538:	1319000a 	beq	t8,t9,f564 <n35_bltzal_test+0xf564>
    f53c:	00000000 	nop
    f540:	00000000 	nop
    f544:	3c18bfc0 	lui	t8,0xbfc0
    f548:	371891cc 	ori	t8,t8,0x91cc
    f54c:	27180008 	addiu	t8,t8,8
    f550:	1319000a 	beq	t8,t9,f57c <n35_bltzal_test+0xf57c>
    f554:	00000000 	nop
    f558:	10000ba7 	b	123f8 <inst_error>
    f55c:	00000000 	nop
    f560:	00000000 	nop
    f564:	26b50008 	addiu	s5,s5,8
    f568:	16950ba3 	bne	s4,s5,123f8 <inst_error>
    f56c:	00000000 	nop
    f570:	10000006 	b	f58c <n35_bltzal_test+0xf58c>
    f574:	00000000 	nop
    f578:	00000000 	nop
    f57c:	26d60008 	addiu	s6,s6,8
    f580:	16960b9d 	bne	s4,s6,123f8 <inst_error>
    f584:	00000000 	nop
	...
    f590:	001fa821 	addu	s5,zero,ra
    f594:	3c0ce27e 	lui	t4,0xe27e
    f598:	358c6888 	ori	t4,t4,0x6888
    f59c:	3c0d4e28 	lui	t5,0x4e28
    f5a0:	35adc838 	ori	t5,t5,0xc838
    f5a4:	24100000 	li	s0,0
    f5a8:	10000014 	b	f5fc <n35_bltzal_test+0xf5fc>
    f5ac:	24120000 	li	s2,0
    f5b0:	00000000 	nop
    f5b4:	3c10e27e 	lui	s0,0xe27e
    f5b8:	36106888 	ori	s0,s0,0x6888
    f5bc:	05100025 	bltzal	t0,f654 <n35_bltzal_test+0xf654>
    f5c0:	00000000 	nop
    f5c4:	10000025 	b	f65c <n35_bltzal_test+0xf65c>
    f5c8:	00000000 	nop
    f5cc:	00000000 	nop
    f5d0:	00000021 	move	zero,zero
    f5d4:	00000021 	move	zero,zero
    f5d8:	00000021 	move	zero,zero
    f5dc:	00000021 	move	zero,zero
    f5e0:	00000021 	move	zero,zero
    f5e4:	00000021 	move	zero,zero
    f5e8:	00000021 	move	zero,zero
    f5ec:	00000021 	move	zero,zero
    f5f0:	00000021 	move	zero,zero
    f5f4:	00000021 	move	zero,zero
    f5f8:	00000021 	move	zero,zero
    f5fc:	3c0892c1 	lui	t0,0x92c1
    f600:	350867f8 	ori	t0,t0,0x67f8
    f604:	0510ffeb 	bltzal	t0,f5b4 <n35_bltzal_test+0xf5b4>
    f608:	00000000 	nop
    f60c:	10000013 	b	f65c <n35_bltzal_test+0xf65c>
    f610:	00000000 	nop
    f614:	00000000 	nop
    f618:	00000021 	move	zero,zero
    f61c:	00000021 	move	zero,zero
    f620:	00000021 	move	zero,zero
    f624:	00000021 	move	zero,zero
    f628:	00000021 	move	zero,zero
    f62c:	00000021 	move	zero,zero
    f630:	00000021 	move	zero,zero
    f634:	00000021 	move	zero,zero
    f638:	00000021 	move	zero,zero
    f63c:	00000021 	move	zero,zero
    f640:	00000021 	move	zero,zero
    f644:	00000021 	move	zero,zero
    f648:	00000021 	move	zero,zero
    f64c:	00000021 	move	zero,zero
    f650:	00000021 	move	zero,zero
    f654:	3c124e28 	lui	s2,0x4e28
    f658:	3652c838 	ori	s2,s2,0xc838
    f65c:	001fa021 	addu	s4,zero,ra
    f660:	0015f821 	addu	ra,zero,s5
    f664:	3c150001 	lui	s5,0x1
    f668:	26b5f5bc 	addiu	s5,s5,-2628
    f66c:	3c160001 	lui	s6,0x1
    f670:	26d6f604 	addiu	s6,s6,-2556
    f674:	3c18e27e 	lui	t8,0xe27e
    f678:	37186888 	ori	t8,t8,0x6888
    f67c:	16180b5e 	bne	s0,t8,123f8 <inst_error>
    f680:	00000000 	nop
    f684:	00000000 	nop
    f688:	3c184e28 	lui	t8,0x4e28
    f68c:	3718c838 	ori	t8,t8,0xc838
    f690:	16580b59 	bne	s2,t8,123f8 <inst_error>
    f694:	00000000 	nop
    f698:	00000000 	nop
    f69c:	3c19bfc0 	lui	t9,0xbfc0
    f6a0:	3739927c 	ori	t9,t9,0x927c
    f6a4:	3c18bfc0 	lui	t8,0xbfc0
    f6a8:	37189274 	ori	t8,t8,0x9274
    f6ac:	27180008 	addiu	t8,t8,8
    f6b0:	1319000a 	beq	t8,t9,f6dc <n35_bltzal_test+0xf6dc>
    f6b4:	00000000 	nop
    f6b8:	00000000 	nop
    f6bc:	3c18bfc0 	lui	t8,0xbfc0
    f6c0:	371892a4 	ori	t8,t8,0x92a4
    f6c4:	27180008 	addiu	t8,t8,8
    f6c8:	1319000a 	beq	t8,t9,f6f4 <n35_bltzal_test+0xf6f4>
    f6cc:	00000000 	nop
    f6d0:	10000b49 	b	123f8 <inst_error>
    f6d4:	00000000 	nop
    f6d8:	00000000 	nop
    f6dc:	26b50008 	addiu	s5,s5,8
    f6e0:	16950b45 	bne	s4,s5,123f8 <inst_error>
    f6e4:	00000000 	nop
    f6e8:	10000006 	b	f704 <n35_bltzal_test+0xf704>
    f6ec:	00000000 	nop
    f6f0:	00000000 	nop
    f6f4:	26d60008 	addiu	s6,s6,8
    f6f8:	16960b3f 	bne	s4,s6,123f8 <inst_error>
    f6fc:	00000000 	nop
	...
    f708:	001fa821 	addu	s5,zero,ra
    f70c:	3c0c3e09 	lui	t4,0x3e09
    f710:	358cbb40 	ori	t4,t4,0xbb40
    f714:	3c0d65b1 	lui	t5,0x65b1
    f718:	35ad7d20 	ori	t5,t5,0x7d20
    f71c:	24100000 	li	s0,0
    f720:	10000014 	b	f774 <n35_bltzal_test+0xf774>
    f724:	24120000 	li	s2,0
    f728:	00000000 	nop
    f72c:	3c103e09 	lui	s0,0x3e09
    f730:	3610bb40 	ori	s0,s0,0xbb40
    f734:	05100025 	bltzal	t0,f7cc <n35_bltzal_test+0xf7cc>
    f738:	00000000 	nop
    f73c:	10000025 	b	f7d4 <n35_bltzal_test+0xf7d4>
    f740:	00000000 	nop
    f744:	00000000 	nop
    f748:	00000021 	move	zero,zero
    f74c:	00000021 	move	zero,zero
    f750:	00000021 	move	zero,zero
    f754:	00000021 	move	zero,zero
    f758:	00000021 	move	zero,zero
    f75c:	00000021 	move	zero,zero
    f760:	00000021 	move	zero,zero
    f764:	00000021 	move	zero,zero
    f768:	00000021 	move	zero,zero
    f76c:	00000021 	move	zero,zero
    f770:	00000021 	move	zero,zero
    f774:	3c083ee4 	lui	t0,0x3ee4
    f778:	350883a8 	ori	t0,t0,0x83a8
    f77c:	0510ffeb 	bltzal	t0,f72c <n35_bltzal_test+0xf72c>
    f780:	00000000 	nop
    f784:	10000013 	b	f7d4 <n35_bltzal_test+0xf7d4>
    f788:	00000000 	nop
    f78c:	00000000 	nop
    f790:	00000021 	move	zero,zero
    f794:	00000021 	move	zero,zero
    f798:	00000021 	move	zero,zero
    f79c:	00000021 	move	zero,zero
    f7a0:	00000021 	move	zero,zero
    f7a4:	00000021 	move	zero,zero
    f7a8:	00000021 	move	zero,zero
    f7ac:	00000021 	move	zero,zero
    f7b0:	00000021 	move	zero,zero
    f7b4:	00000021 	move	zero,zero
    f7b8:	00000021 	move	zero,zero
    f7bc:	00000021 	move	zero,zero
    f7c0:	00000021 	move	zero,zero
    f7c4:	00000021 	move	zero,zero
    f7c8:	00000021 	move	zero,zero
    f7cc:	3c1265b1 	lui	s2,0x65b1
    f7d0:	36527d20 	ori	s2,s2,0x7d20
    f7d4:	001fa021 	addu	s4,zero,ra
    f7d8:	0015f821 	addu	ra,zero,s5
    f7dc:	3c150001 	lui	s5,0x1
    f7e0:	26b5f734 	addiu	s5,s5,-2252
    f7e4:	3c160001 	lui	s6,0x1
    f7e8:	26d6f77c 	addiu	s6,s6,-2180
    f7ec:	24180000 	li	t8,0
    f7f0:	16180b01 	bne	s0,t8,123f8 <inst_error>
    f7f4:	00000000 	nop
    f7f8:	00000000 	nop
    f7fc:	24180000 	li	t8,0
    f800:	16580afd 	bne	s2,t8,123f8 <inst_error>
    f804:	00000000 	nop
    f808:	00000000 	nop
    f80c:	3c19bfc0 	lui	t9,0xbfc0
    f810:	37399384 	ori	t9,t9,0x9384
    f814:	3c18bfc0 	lui	t8,0xbfc0
    f818:	3718934c 	ori	t8,t8,0x934c
    f81c:	27180008 	addiu	t8,t8,8
    f820:	1319000a 	beq	t8,t9,f84c <n35_bltzal_test+0xf84c>
    f824:	00000000 	nop
    f828:	00000000 	nop
    f82c:	3c18bfc0 	lui	t8,0xbfc0
    f830:	3718937c 	ori	t8,t8,0x937c
    f834:	27180008 	addiu	t8,t8,8
    f838:	1319000a 	beq	t8,t9,f864 <n35_bltzal_test+0xf864>
    f83c:	00000000 	nop
    f840:	10000aed 	b	123f8 <inst_error>
    f844:	00000000 	nop
    f848:	00000000 	nop
    f84c:	26b50008 	addiu	s5,s5,8
    f850:	16950ae9 	bne	s4,s5,123f8 <inst_error>
    f854:	00000000 	nop
    f858:	10000006 	b	f874 <n35_bltzal_test+0xf874>
    f85c:	00000000 	nop
    f860:	00000000 	nop
    f864:	26d60008 	addiu	s6,s6,8
    f868:	16960ae3 	bne	s4,s6,123f8 <inst_error>
    f86c:	00000000 	nop
	...
    f878:	001fa821 	addu	s5,zero,ra
    f87c:	3c0c6edf 	lui	t4,0x6edf
    f880:	358c66a4 	ori	t4,t4,0x66a4
    f884:	3c0d2726 	lui	t5,0x2726
    f888:	35ad4b04 	ori	t5,t5,0x4b04
    f88c:	24100000 	li	s0,0
    f890:	10000014 	b	f8e4 <n35_bltzal_test+0xf8e4>
    f894:	24120000 	li	s2,0
    f898:	00000000 	nop
    f89c:	3c106edf 	lui	s0,0x6edf
    f8a0:	361066a4 	ori	s0,s0,0x66a4
    f8a4:	05100025 	bltzal	t0,f93c <n35_bltzal_test+0xf93c>
    f8a8:	00000000 	nop
    f8ac:	10000025 	b	f944 <n35_bltzal_test+0xf944>
    f8b0:	00000000 	nop
    f8b4:	00000000 	nop
    f8b8:	00000021 	move	zero,zero
    f8bc:	00000021 	move	zero,zero
    f8c0:	00000021 	move	zero,zero
    f8c4:	00000021 	move	zero,zero
    f8c8:	00000021 	move	zero,zero
    f8cc:	00000021 	move	zero,zero
    f8d0:	00000021 	move	zero,zero
    f8d4:	00000021 	move	zero,zero
    f8d8:	00000021 	move	zero,zero
    f8dc:	00000021 	move	zero,zero
    f8e0:	00000021 	move	zero,zero
    f8e4:	3c084eaa 	lui	t0,0x4eaa
    f8e8:	35085a80 	ori	t0,t0,0x5a80
    f8ec:	0510ffeb 	bltzal	t0,f89c <n35_bltzal_test+0xf89c>
    f8f0:	00000000 	nop
    f8f4:	10000013 	b	f944 <n35_bltzal_test+0xf944>
    f8f8:	00000000 	nop
    f8fc:	00000000 	nop
    f900:	00000021 	move	zero,zero
    f904:	00000021 	move	zero,zero
    f908:	00000021 	move	zero,zero
    f90c:	00000021 	move	zero,zero
    f910:	00000021 	move	zero,zero
    f914:	00000021 	move	zero,zero
    f918:	00000021 	move	zero,zero
    f91c:	00000021 	move	zero,zero
    f920:	00000021 	move	zero,zero
    f924:	00000021 	move	zero,zero
    f928:	00000021 	move	zero,zero
    f92c:	00000021 	move	zero,zero
    f930:	00000021 	move	zero,zero
    f934:	00000021 	move	zero,zero
    f938:	00000021 	move	zero,zero
    f93c:	3c122726 	lui	s2,0x2726
    f940:	36524b04 	ori	s2,s2,0x4b04
    f944:	001fa021 	addu	s4,zero,ra
    f948:	0015f821 	addu	ra,zero,s5
    f94c:	3c150001 	lui	s5,0x1
    f950:	26b5f8a4 	addiu	s5,s5,-1884
    f954:	3c160001 	lui	s6,0x1
    f958:	26d6f8ec 	addiu	s6,s6,-1812
    f95c:	24180000 	li	t8,0
    f960:	16180aa5 	bne	s0,t8,123f8 <inst_error>
    f964:	00000000 	nop
    f968:	00000000 	nop
    f96c:	24180000 	li	t8,0
    f970:	16580aa1 	bne	s2,t8,123f8 <inst_error>
    f974:	00000000 	nop
    f978:	00000000 	nop
    f97c:	3c19bfc0 	lui	t9,0xbfc0
    f980:	3739945c 	ori	t9,t9,0x945c
    f984:	3c18bfc0 	lui	t8,0xbfc0
    f988:	37189424 	ori	t8,t8,0x9424
    f98c:	27180008 	addiu	t8,t8,8
    f990:	1319000a 	beq	t8,t9,f9bc <n35_bltzal_test+0xf9bc>
    f994:	00000000 	nop
    f998:	00000000 	nop
    f99c:	3c18bfc0 	lui	t8,0xbfc0
    f9a0:	37189454 	ori	t8,t8,0x9454
    f9a4:	27180008 	addiu	t8,t8,8
    f9a8:	1319000a 	beq	t8,t9,f9d4 <n35_bltzal_test+0xf9d4>
    f9ac:	00000000 	nop
    f9b0:	10000a91 	b	123f8 <inst_error>
    f9b4:	00000000 	nop
    f9b8:	00000000 	nop
    f9bc:	26b50008 	addiu	s5,s5,8
    f9c0:	16950a8d 	bne	s4,s5,123f8 <inst_error>
    f9c4:	00000000 	nop
    f9c8:	10000006 	b	f9e4 <n35_bltzal_test+0xf9e4>
    f9cc:	00000000 	nop
    f9d0:	00000000 	nop
    f9d4:	26d60008 	addiu	s6,s6,8
    f9d8:	16960a87 	bne	s4,s6,123f8 <inst_error>
    f9dc:	00000000 	nop
	...
    f9e8:	001fa821 	addu	s5,zero,ra
    f9ec:	3c0c1664 	lui	t4,0x1664
    f9f0:	358c8180 	ori	t4,t4,0x8180
    f9f4:	3c0dceff 	lui	t5,0xceff
    f9f8:	35ad49a0 	ori	t5,t5,0x49a0
    f9fc:	24100000 	li	s0,0
    fa00:	10000014 	b	fa54 <n35_bltzal_test+0xfa54>
    fa04:	24120000 	li	s2,0
    fa08:	00000000 	nop
    fa0c:	3c101664 	lui	s0,0x1664
    fa10:	36108180 	ori	s0,s0,0x8180
    fa14:	05100025 	bltzal	t0,faac <n35_bltzal_test+0xfaac>
    fa18:	00000000 	nop
    fa1c:	10000025 	b	fab4 <n35_bltzal_test+0xfab4>
    fa20:	00000000 	nop
    fa24:	00000000 	nop
    fa28:	00000021 	move	zero,zero
    fa2c:	00000021 	move	zero,zero
    fa30:	00000021 	move	zero,zero
    fa34:	00000021 	move	zero,zero
    fa38:	00000021 	move	zero,zero
    fa3c:	00000021 	move	zero,zero
    fa40:	00000021 	move	zero,zero
    fa44:	00000021 	move	zero,zero
    fa48:	00000021 	move	zero,zero
    fa4c:	00000021 	move	zero,zero
    fa50:	00000021 	move	zero,zero
    fa54:	3c08c25a 	lui	t0,0xc25a
    fa58:	350894c0 	ori	t0,t0,0x94c0
    fa5c:	0510ffeb 	bltzal	t0,fa0c <n35_bltzal_test+0xfa0c>
    fa60:	00000000 	nop
    fa64:	10000013 	b	fab4 <n35_bltzal_test+0xfab4>
    fa68:	00000000 	nop
    fa6c:	00000000 	nop
    fa70:	00000021 	move	zero,zero
    fa74:	00000021 	move	zero,zero
    fa78:	00000021 	move	zero,zero
    fa7c:	00000021 	move	zero,zero
    fa80:	00000021 	move	zero,zero
    fa84:	00000021 	move	zero,zero
    fa88:	00000021 	move	zero,zero
    fa8c:	00000021 	move	zero,zero
    fa90:	00000021 	move	zero,zero
    fa94:	00000021 	move	zero,zero
    fa98:	00000021 	move	zero,zero
    fa9c:	00000021 	move	zero,zero
    faa0:	00000021 	move	zero,zero
    faa4:	00000021 	move	zero,zero
    faa8:	00000021 	move	zero,zero
    faac:	3c12ceff 	lui	s2,0xceff
    fab0:	365249a0 	ori	s2,s2,0x49a0
    fab4:	001fa021 	addu	s4,zero,ra
    fab8:	0015f821 	addu	ra,zero,s5
    fabc:	3c150001 	lui	s5,0x1
    fac0:	26b5fa14 	addiu	s5,s5,-1516
    fac4:	3c160001 	lui	s6,0x1
    fac8:	26d6fa5c 	addiu	s6,s6,-1444
    facc:	3c181664 	lui	t8,0x1664
    fad0:	37188180 	ori	t8,t8,0x8180
    fad4:	16180a48 	bne	s0,t8,123f8 <inst_error>
    fad8:	00000000 	nop
    fadc:	00000000 	nop
    fae0:	3c18ceff 	lui	t8,0xceff
    fae4:	371849a0 	ori	t8,t8,0x49a0
    fae8:	16580a43 	bne	s2,t8,123f8 <inst_error>
    faec:	00000000 	nop
    faf0:	00000000 	nop
    faf4:	3c19bfc0 	lui	t9,0xbfc0
    faf8:	37399504 	ori	t9,t9,0x9504
    fafc:	3c18bfc0 	lui	t8,0xbfc0
    fb00:	371894fc 	ori	t8,t8,0x94fc
    fb04:	27180008 	addiu	t8,t8,8
    fb08:	1319000a 	beq	t8,t9,fb34 <n35_bltzal_test+0xfb34>
    fb0c:	00000000 	nop
    fb10:	00000000 	nop
    fb14:	3c18bfc0 	lui	t8,0xbfc0
    fb18:	3718952c 	ori	t8,t8,0x952c
    fb1c:	27180008 	addiu	t8,t8,8
    fb20:	1319000a 	beq	t8,t9,fb4c <n35_bltzal_test+0xfb4c>
    fb24:	00000000 	nop
    fb28:	10000a33 	b	123f8 <inst_error>
    fb2c:	00000000 	nop
    fb30:	00000000 	nop
    fb34:	26b50008 	addiu	s5,s5,8
    fb38:	16950a2f 	bne	s4,s5,123f8 <inst_error>
    fb3c:	00000000 	nop
    fb40:	10000006 	b	fb5c <n35_bltzal_test+0xfb5c>
    fb44:	00000000 	nop
    fb48:	00000000 	nop
    fb4c:	26d60008 	addiu	s6,s6,8
    fb50:	16960a29 	bne	s4,s6,123f8 <inst_error>
    fb54:	00000000 	nop
	...
    fb60:	001fa821 	addu	s5,zero,ra
    fb64:	3c0ca5b5 	lui	t4,0xa5b5
    fb68:	358ca538 	ori	t4,t4,0xa538
    fb6c:	3c0dc444 	lui	t5,0xc444
    fb70:	35ad0224 	ori	t5,t5,0x224
    fb74:	24100000 	li	s0,0
    fb78:	10000014 	b	fbcc <n35_bltzal_test+0xfbcc>
    fb7c:	24120000 	li	s2,0
    fb80:	00000000 	nop
    fb84:	3c10a5b5 	lui	s0,0xa5b5
    fb88:	3610a538 	ori	s0,s0,0xa538
    fb8c:	05100025 	bltzal	t0,fc24 <n35_bltzal_test+0xfc24>
    fb90:	00000000 	nop
    fb94:	10000025 	b	fc2c <n35_bltzal_test+0xfc2c>
    fb98:	00000000 	nop
    fb9c:	00000000 	nop
    fba0:	00000021 	move	zero,zero
    fba4:	00000021 	move	zero,zero
    fba8:	00000021 	move	zero,zero
    fbac:	00000021 	move	zero,zero
    fbb0:	00000021 	move	zero,zero
    fbb4:	00000021 	move	zero,zero
    fbb8:	00000021 	move	zero,zero
    fbbc:	00000021 	move	zero,zero
    fbc0:	00000021 	move	zero,zero
    fbc4:	00000021 	move	zero,zero
    fbc8:	00000021 	move	zero,zero
    fbcc:	3c08178e 	lui	t0,0x178e
    fbd0:	350829a0 	ori	t0,t0,0x29a0
    fbd4:	0510ffeb 	bltzal	t0,fb84 <n35_bltzal_test+0xfb84>
    fbd8:	00000000 	nop
    fbdc:	10000013 	b	fc2c <n35_bltzal_test+0xfc2c>
    fbe0:	00000000 	nop
    fbe4:	00000000 	nop
    fbe8:	00000021 	move	zero,zero
    fbec:	00000021 	move	zero,zero
    fbf0:	00000021 	move	zero,zero
    fbf4:	00000021 	move	zero,zero
    fbf8:	00000021 	move	zero,zero
    fbfc:	00000021 	move	zero,zero
    fc00:	00000021 	move	zero,zero
    fc04:	00000021 	move	zero,zero
    fc08:	00000021 	move	zero,zero
    fc0c:	00000021 	move	zero,zero
    fc10:	00000021 	move	zero,zero
    fc14:	00000021 	move	zero,zero
    fc18:	00000021 	move	zero,zero
    fc1c:	00000021 	move	zero,zero
    fc20:	00000021 	move	zero,zero
    fc24:	3c12c444 	lui	s2,0xc444
    fc28:	36520224 	ori	s2,s2,0x224
    fc2c:	001fa021 	addu	s4,zero,ra
    fc30:	0015f821 	addu	ra,zero,s5
    fc34:	3c150001 	lui	s5,0x1
    fc38:	26b5fb8c 	addiu	s5,s5,-1140
    fc3c:	3c160001 	lui	s6,0x1
    fc40:	26d6fbd4 	addiu	s6,s6,-1068
    fc44:	24180000 	li	t8,0
    fc48:	161809eb 	bne	s0,t8,123f8 <inst_error>
    fc4c:	00000000 	nop
    fc50:	00000000 	nop
    fc54:	24180000 	li	t8,0
    fc58:	165809e7 	bne	s2,t8,123f8 <inst_error>
    fc5c:	00000000 	nop
    fc60:	00000000 	nop
    fc64:	3c19bfc0 	lui	t9,0xbfc0
    fc68:	3739960c 	ori	t9,t9,0x960c
    fc6c:	3c18bfc0 	lui	t8,0xbfc0
    fc70:	371895d4 	ori	t8,t8,0x95d4
    fc74:	27180008 	addiu	t8,t8,8
    fc78:	1319000a 	beq	t8,t9,fca4 <n35_bltzal_test+0xfca4>
    fc7c:	00000000 	nop
    fc80:	00000000 	nop
    fc84:	3c18bfc0 	lui	t8,0xbfc0
    fc88:	37189604 	ori	t8,t8,0x9604
    fc8c:	27180008 	addiu	t8,t8,8
    fc90:	1319000a 	beq	t8,t9,fcbc <n35_bltzal_test+0xfcbc>
    fc94:	00000000 	nop
    fc98:	100009d7 	b	123f8 <inst_error>
    fc9c:	00000000 	nop
    fca0:	00000000 	nop
    fca4:	26b50008 	addiu	s5,s5,8
    fca8:	169509d3 	bne	s4,s5,123f8 <inst_error>
    fcac:	00000000 	nop
    fcb0:	10000006 	b	fccc <n35_bltzal_test+0xfccc>
    fcb4:	00000000 	nop
    fcb8:	00000000 	nop
    fcbc:	26d60008 	addiu	s6,s6,8
    fcc0:	169609cd 	bne	s4,s6,123f8 <inst_error>
    fcc4:	00000000 	nop
	...
    fcd0:	001fa821 	addu	s5,zero,ra
    fcd4:	3c0caa83 	lui	t4,0xaa83
    fcd8:	358cb7aa 	ori	t4,t4,0xb7aa
    fcdc:	3c0dc924 	lui	t5,0xc924
    fce0:	35ad4bf5 	ori	t5,t5,0x4bf5
    fce4:	24100000 	li	s0,0
    fce8:	10000014 	b	fd3c <n35_bltzal_test+0xfd3c>
    fcec:	24120000 	li	s2,0
    fcf0:	00000000 	nop
    fcf4:	3c10aa83 	lui	s0,0xaa83
    fcf8:	3610b7aa 	ori	s0,s0,0xb7aa
    fcfc:	05100025 	bltzal	t0,fd94 <n35_bltzal_test+0xfd94>
    fd00:	00000000 	nop
    fd04:	10000025 	b	fd9c <n35_bltzal_test+0xfd9c>
    fd08:	00000000 	nop
    fd0c:	00000000 	nop
    fd10:	00000021 	move	zero,zero
    fd14:	00000021 	move	zero,zero
    fd18:	00000021 	move	zero,zero
    fd1c:	00000021 	move	zero,zero
    fd20:	00000021 	move	zero,zero
    fd24:	00000021 	move	zero,zero
    fd28:	00000021 	move	zero,zero
    fd2c:	00000021 	move	zero,zero
    fd30:	00000021 	move	zero,zero
    fd34:	00000021 	move	zero,zero
    fd38:	00000021 	move	zero,zero
    fd3c:	3c081946 	lui	t0,0x1946
    fd40:	3508faac 	ori	t0,t0,0xfaac
    fd44:	0510ffeb 	bltzal	t0,fcf4 <n35_bltzal_test+0xfcf4>
    fd48:	00000000 	nop
    fd4c:	10000013 	b	fd9c <n35_bltzal_test+0xfd9c>
    fd50:	00000000 	nop
    fd54:	00000000 	nop
    fd58:	00000021 	move	zero,zero
    fd5c:	00000021 	move	zero,zero
    fd60:	00000021 	move	zero,zero
    fd64:	00000021 	move	zero,zero
    fd68:	00000021 	move	zero,zero
    fd6c:	00000021 	move	zero,zero
    fd70:	00000021 	move	zero,zero
    fd74:	00000021 	move	zero,zero
    fd78:	00000021 	move	zero,zero
    fd7c:	00000021 	move	zero,zero
    fd80:	00000021 	move	zero,zero
    fd84:	00000021 	move	zero,zero
    fd88:	00000021 	move	zero,zero
    fd8c:	00000021 	move	zero,zero
    fd90:	00000021 	move	zero,zero
    fd94:	3c12c924 	lui	s2,0xc924
    fd98:	36524bf5 	ori	s2,s2,0x4bf5
    fd9c:	001fa021 	addu	s4,zero,ra
    fda0:	0015f821 	addu	ra,zero,s5
    fda4:	3c150001 	lui	s5,0x1
    fda8:	26b5fcfc 	addiu	s5,s5,-772
    fdac:	3c160001 	lui	s6,0x1
    fdb0:	26d6fd44 	addiu	s6,s6,-700
    fdb4:	24180000 	li	t8,0
    fdb8:	1618098f 	bne	s0,t8,123f8 <inst_error>
    fdbc:	00000000 	nop
    fdc0:	00000000 	nop
    fdc4:	24180000 	li	t8,0
    fdc8:	1658098b 	bne	s2,t8,123f8 <inst_error>
    fdcc:	00000000 	nop
    fdd0:	00000000 	nop
    fdd4:	3c19bfc0 	lui	t9,0xbfc0
    fdd8:	373996e4 	ori	t9,t9,0x96e4
    fddc:	3c18bfc0 	lui	t8,0xbfc0
    fde0:	371896ac 	ori	t8,t8,0x96ac
    fde4:	27180008 	addiu	t8,t8,8
    fde8:	1319000a 	beq	t8,t9,fe14 <n35_bltzal_test+0xfe14>
    fdec:	00000000 	nop
    fdf0:	00000000 	nop
    fdf4:	3c18bfc0 	lui	t8,0xbfc0
    fdf8:	371896dc 	ori	t8,t8,0x96dc
    fdfc:	27180008 	addiu	t8,t8,8
    fe00:	1319000a 	beq	t8,t9,fe2c <n35_bltzal_test+0xfe2c>
    fe04:	00000000 	nop
    fe08:	1000097b 	b	123f8 <inst_error>
    fe0c:	00000000 	nop
    fe10:	00000000 	nop
    fe14:	26b50008 	addiu	s5,s5,8
    fe18:	16950977 	bne	s4,s5,123f8 <inst_error>
    fe1c:	00000000 	nop
    fe20:	10000006 	b	fe3c <n35_bltzal_test+0xfe3c>
    fe24:	00000000 	nop
    fe28:	00000000 	nop
    fe2c:	26d60008 	addiu	s6,s6,8
    fe30:	16960971 	bne	s4,s6,123f8 <inst_error>
    fe34:	00000000 	nop
	...
    fe40:	001fa821 	addu	s5,zero,ra
    fe44:	3c0c5479 	lui	t4,0x5479
    fe48:	358c233d 	ori	t4,t4,0x233d
    fe4c:	3c0d0fe5 	lui	t5,0xfe5
    fe50:	35ad1340 	ori	t5,t5,0x1340
    fe54:	24100000 	li	s0,0
    fe58:	10000014 	b	feac <n35_bltzal_test+0xfeac>
    fe5c:	24120000 	li	s2,0
    fe60:	00000000 	nop
    fe64:	3c105479 	lui	s0,0x5479
    fe68:	3610233d 	ori	s0,s0,0x233d
    fe6c:	05100025 	bltzal	t0,ff04 <n35_bltzal_test+0xff04>
    fe70:	00000000 	nop
    fe74:	10000025 	b	ff0c <n35_bltzal_test+0xff0c>
    fe78:	00000000 	nop
    fe7c:	00000000 	nop
    fe80:	00000021 	move	zero,zero
    fe84:	00000021 	move	zero,zero
    fe88:	00000021 	move	zero,zero
    fe8c:	00000021 	move	zero,zero
    fe90:	00000021 	move	zero,zero
    fe94:	00000021 	move	zero,zero
    fe98:	00000021 	move	zero,zero
    fe9c:	00000021 	move	zero,zero
    fea0:	00000021 	move	zero,zero
    fea4:	00000021 	move	zero,zero
    fea8:	00000021 	move	zero,zero
    feac:	3c088a6e 	lui	t0,0x8a6e
    feb0:	350827ba 	ori	t0,t0,0x27ba
    feb4:	0510ffeb 	bltzal	t0,fe64 <n35_bltzal_test+0xfe64>
    feb8:	00000000 	nop
    febc:	10000013 	b	ff0c <n35_bltzal_test+0xff0c>
    fec0:	00000000 	nop
    fec4:	00000000 	nop
    fec8:	00000021 	move	zero,zero
    fecc:	00000021 	move	zero,zero
    fed0:	00000021 	move	zero,zero
    fed4:	00000021 	move	zero,zero
    fed8:	00000021 	move	zero,zero
    fedc:	00000021 	move	zero,zero
    fee0:	00000021 	move	zero,zero
    fee4:	00000021 	move	zero,zero
    fee8:	00000021 	move	zero,zero
    feec:	00000021 	move	zero,zero
    fef0:	00000021 	move	zero,zero
    fef4:	00000021 	move	zero,zero
    fef8:	00000021 	move	zero,zero
    fefc:	00000021 	move	zero,zero
    ff00:	00000021 	move	zero,zero
    ff04:	3c120fe5 	lui	s2,0xfe5
    ff08:	36521340 	ori	s2,s2,0x1340
    ff0c:	001fa021 	addu	s4,zero,ra
    ff10:	0015f821 	addu	ra,zero,s5
    ff14:	3c150001 	lui	s5,0x1
    ff18:	26b5fe6c 	addiu	s5,s5,-404
    ff1c:	3c160001 	lui	s6,0x1
    ff20:	26d6feb4 	addiu	s6,s6,-332
    ff24:	3c185479 	lui	t8,0x5479
    ff28:	3718233d 	ori	t8,t8,0x233d
    ff2c:	16180932 	bne	s0,t8,123f8 <inst_error>
    ff30:	00000000 	nop
    ff34:	00000000 	nop
    ff38:	3c180fe5 	lui	t8,0xfe5
    ff3c:	37181340 	ori	t8,t8,0x1340
    ff40:	1658092d 	bne	s2,t8,123f8 <inst_error>
    ff44:	00000000 	nop
    ff48:	00000000 	nop
    ff4c:	3c19bfc0 	lui	t9,0xbfc0
    ff50:	3739978c 	ori	t9,t9,0x978c
    ff54:	3c18bfc0 	lui	t8,0xbfc0
    ff58:	37189784 	ori	t8,t8,0x9784
    ff5c:	27180008 	addiu	t8,t8,8
    ff60:	1319000a 	beq	t8,t9,ff8c <n35_bltzal_test+0xff8c>
    ff64:	00000000 	nop
    ff68:	00000000 	nop
    ff6c:	3c18bfc0 	lui	t8,0xbfc0
    ff70:	371897b4 	ori	t8,t8,0x97b4
    ff74:	27180008 	addiu	t8,t8,8
    ff78:	1319000a 	beq	t8,t9,ffa4 <n35_bltzal_test+0xffa4>
    ff7c:	00000000 	nop
    ff80:	1000091d 	b	123f8 <inst_error>
    ff84:	00000000 	nop
    ff88:	00000000 	nop
    ff8c:	26b50008 	addiu	s5,s5,8
    ff90:	16950919 	bne	s4,s5,123f8 <inst_error>
    ff94:	00000000 	nop
    ff98:	10000006 	b	ffb4 <n35_bltzal_test+0xffb4>
    ff9c:	00000000 	nop
    ffa0:	00000000 	nop
    ffa4:	26d60008 	addiu	s6,s6,8
    ffa8:	16960913 	bne	s4,s6,123f8 <inst_error>
    ffac:	00000000 	nop
	...
    ffb8:	001fa821 	addu	s5,zero,ra
    ffbc:	3c0c4081 	lui	t4,0x4081
    ffc0:	358c010d 	ori	t4,t4,0x10d
    ffc4:	3c0dff79 	lui	t5,0xff79
    ffc8:	35ad1604 	ori	t5,t5,0x1604
    ffcc:	24100000 	li	s0,0
    ffd0:	10000014 	b	10024 <n35_bltzal_test+0x10024>
    ffd4:	24120000 	li	s2,0
    ffd8:	00000000 	nop
    ffdc:	3c104081 	lui	s0,0x4081
    ffe0:	3610010d 	ori	s0,s0,0x10d
    ffe4:	05100025 	bltzal	t0,1007c <n35_bltzal_test+0x1007c>
    ffe8:	00000000 	nop
    ffec:	10000025 	b	10084 <n35_bltzal_test+0x10084>
    fff0:	00000000 	nop
    fff4:	00000000 	nop
    fff8:	00000021 	move	zero,zero
    fffc:	00000021 	move	zero,zero
   10000:	00000021 	move	zero,zero
   10004:	00000021 	move	zero,zero
   10008:	00000021 	move	zero,zero
   1000c:	00000021 	move	zero,zero
   10010:	00000021 	move	zero,zero
   10014:	00000021 	move	zero,zero
   10018:	00000021 	move	zero,zero
   1001c:	00000021 	move	zero,zero
   10020:	00000021 	move	zero,zero
   10024:	3c08c1a1 	lui	t0,0xc1a1
   10028:	35087acc 	ori	t0,t0,0x7acc
   1002c:	0510ffeb 	bltzal	t0,ffdc <n35_bltzal_test+0xffdc>
   10030:	00000000 	nop
   10034:	10000013 	b	10084 <n35_bltzal_test+0x10084>
   10038:	00000000 	nop
   1003c:	00000000 	nop
   10040:	00000021 	move	zero,zero
   10044:	00000021 	move	zero,zero
   10048:	00000021 	move	zero,zero
   1004c:	00000021 	move	zero,zero
   10050:	00000021 	move	zero,zero
   10054:	00000021 	move	zero,zero
   10058:	00000021 	move	zero,zero
   1005c:	00000021 	move	zero,zero
   10060:	00000021 	move	zero,zero
   10064:	00000021 	move	zero,zero
   10068:	00000021 	move	zero,zero
   1006c:	00000021 	move	zero,zero
   10070:	00000021 	move	zero,zero
   10074:	00000021 	move	zero,zero
   10078:	00000021 	move	zero,zero
   1007c:	3c12ff79 	lui	s2,0xff79
   10080:	36521604 	ori	s2,s2,0x1604
   10084:	001fa021 	addu	s4,zero,ra
   10088:	0015f821 	addu	ra,zero,s5
   1008c:	3c150001 	lui	s5,0x1
   10090:	26b5ffe4 	addiu	s5,s5,-28
   10094:	3c160001 	lui	s6,0x1
   10098:	26d6002c 	addiu	s6,s6,44
   1009c:	3c184081 	lui	t8,0x4081
   100a0:	3718010d 	ori	t8,t8,0x10d
   100a4:	161808d4 	bne	s0,t8,123f8 <inst_error>
   100a8:	00000000 	nop
   100ac:	00000000 	nop
   100b0:	3c18ff79 	lui	t8,0xff79
   100b4:	37181604 	ori	t8,t8,0x1604
   100b8:	165808cf 	bne	s2,t8,123f8 <inst_error>
   100bc:	00000000 	nop
   100c0:	00000000 	nop
   100c4:	3c19bfc0 	lui	t9,0xbfc0
   100c8:	37399864 	ori	t9,t9,0x9864
   100cc:	3c18bfc0 	lui	t8,0xbfc0
   100d0:	3718985c 	ori	t8,t8,0x985c
   100d4:	27180008 	addiu	t8,t8,8
   100d8:	1319000a 	beq	t8,t9,10104 <n35_bltzal_test+0x10104>
   100dc:	00000000 	nop
   100e0:	00000000 	nop
   100e4:	3c18bfc0 	lui	t8,0xbfc0
   100e8:	3718988c 	ori	t8,t8,0x988c
   100ec:	27180008 	addiu	t8,t8,8
   100f0:	1319000a 	beq	t8,t9,1011c <n35_bltzal_test+0x1011c>
   100f4:	00000000 	nop
   100f8:	100008bf 	b	123f8 <inst_error>
   100fc:	00000000 	nop
   10100:	00000000 	nop
   10104:	26b50008 	addiu	s5,s5,8
   10108:	169508bb 	bne	s4,s5,123f8 <inst_error>
   1010c:	00000000 	nop
   10110:	10000006 	b	1012c <n35_bltzal_test+0x1012c>
   10114:	00000000 	nop
   10118:	00000000 	nop
   1011c:	26d60008 	addiu	s6,s6,8
   10120:	169608b5 	bne	s4,s6,123f8 <inst_error>
   10124:	00000000 	nop
	...
   10130:	001fa821 	addu	s5,zero,ra
   10134:	3c0cd701 	lui	t4,0xd701
   10138:	358cb72c 	ori	t4,t4,0xb72c
   1013c:	3c0d5888 	lui	t5,0x5888
   10140:	35adfdd8 	ori	t5,t5,0xfdd8
   10144:	24100000 	li	s0,0
   10148:	10000014 	b	1019c <n35_bltzal_test+0x1019c>
   1014c:	24120000 	li	s2,0
   10150:	00000000 	nop
   10154:	3c10d701 	lui	s0,0xd701
   10158:	3610b72c 	ori	s0,s0,0xb72c
   1015c:	05100025 	bltzal	t0,101f4 <n35_bltzal_test+0x101f4>
   10160:	00000000 	nop
   10164:	10000025 	b	101fc <n35_bltzal_test+0x101fc>
   10168:	00000000 	nop
   1016c:	00000000 	nop
   10170:	00000021 	move	zero,zero
   10174:	00000021 	move	zero,zero
   10178:	00000021 	move	zero,zero
   1017c:	00000021 	move	zero,zero
   10180:	00000021 	move	zero,zero
   10184:	00000021 	move	zero,zero
   10188:	00000021 	move	zero,zero
   1018c:	00000021 	move	zero,zero
   10190:	00000021 	move	zero,zero
   10194:	00000021 	move	zero,zero
   10198:	00000021 	move	zero,zero
   1019c:	3c0845e5 	lui	t0,0x45e5
   101a0:	3508dec0 	ori	t0,t0,0xdec0
   101a4:	0510ffeb 	bltzal	t0,10154 <n35_bltzal_test+0x10154>
   101a8:	00000000 	nop
   101ac:	10000013 	b	101fc <n35_bltzal_test+0x101fc>
   101b0:	00000000 	nop
   101b4:	00000000 	nop
   101b8:	00000021 	move	zero,zero
   101bc:	00000021 	move	zero,zero
   101c0:	00000021 	move	zero,zero
   101c4:	00000021 	move	zero,zero
   101c8:	00000021 	move	zero,zero
   101cc:	00000021 	move	zero,zero
   101d0:	00000021 	move	zero,zero
   101d4:	00000021 	move	zero,zero
   101d8:	00000021 	move	zero,zero
   101dc:	00000021 	move	zero,zero
   101e0:	00000021 	move	zero,zero
   101e4:	00000021 	move	zero,zero
   101e8:	00000021 	move	zero,zero
   101ec:	00000021 	move	zero,zero
   101f0:	00000021 	move	zero,zero
   101f4:	3c125888 	lui	s2,0x5888
   101f8:	3652fdd8 	ori	s2,s2,0xfdd8
   101fc:	001fa021 	addu	s4,zero,ra
   10200:	0015f821 	addu	ra,zero,s5
   10204:	3c150001 	lui	s5,0x1
   10208:	26b5015c 	addiu	s5,s5,348
   1020c:	3c160001 	lui	s6,0x1
   10210:	26d601a4 	addiu	s6,s6,420
   10214:	24180000 	li	t8,0
   10218:	16180877 	bne	s0,t8,123f8 <inst_error>
   1021c:	00000000 	nop
   10220:	00000000 	nop
   10224:	24180000 	li	t8,0
   10228:	16580873 	bne	s2,t8,123f8 <inst_error>
   1022c:	00000000 	nop
   10230:	00000000 	nop
   10234:	3c19bfc0 	lui	t9,0xbfc0
   10238:	3739996c 	ori	t9,t9,0x996c
   1023c:	3c18bfc0 	lui	t8,0xbfc0
   10240:	37189934 	ori	t8,t8,0x9934
   10244:	27180008 	addiu	t8,t8,8
   10248:	1319000a 	beq	t8,t9,10274 <n35_bltzal_test+0x10274>
   1024c:	00000000 	nop
   10250:	00000000 	nop
   10254:	3c18bfc0 	lui	t8,0xbfc0
   10258:	37189964 	ori	t8,t8,0x9964
   1025c:	27180008 	addiu	t8,t8,8
   10260:	1319000a 	beq	t8,t9,1028c <n35_bltzal_test+0x1028c>
   10264:	00000000 	nop
   10268:	10000863 	b	123f8 <inst_error>
   1026c:	00000000 	nop
   10270:	00000000 	nop
   10274:	26b50008 	addiu	s5,s5,8
   10278:	1695085f 	bne	s4,s5,123f8 <inst_error>
   1027c:	00000000 	nop
   10280:	10000006 	b	1029c <n35_bltzal_test+0x1029c>
   10284:	00000000 	nop
   10288:	00000000 	nop
   1028c:	26d60008 	addiu	s6,s6,8
   10290:	16960859 	bne	s4,s6,123f8 <inst_error>
   10294:	00000000 	nop
	...
   102a0:	001fa821 	addu	s5,zero,ra
   102a4:	3c0cf1f9 	lui	t4,0xf1f9
   102a8:	358c55c0 	ori	t4,t4,0x55c0
   102ac:	3c0dcf5e 	lui	t5,0xcf5e
   102b0:	35ad55ca 	ori	t5,t5,0x55ca
   102b4:	24100000 	li	s0,0
   102b8:	10000014 	b	1030c <n35_bltzal_test+0x1030c>
   102bc:	24120000 	li	s2,0
   102c0:	00000000 	nop
   102c4:	3c10f1f9 	lui	s0,0xf1f9
   102c8:	361055c0 	ori	s0,s0,0x55c0
   102cc:	05100025 	bltzal	t0,10364 <n35_bltzal_test+0x10364>
   102d0:	00000000 	nop
   102d4:	10000025 	b	1036c <n35_bltzal_test+0x1036c>
   102d8:	00000000 	nop
   102dc:	00000000 	nop
   102e0:	00000021 	move	zero,zero
   102e4:	00000021 	move	zero,zero
   102e8:	00000021 	move	zero,zero
   102ec:	00000021 	move	zero,zero
   102f0:	00000021 	move	zero,zero
   102f4:	00000021 	move	zero,zero
   102f8:	00000021 	move	zero,zero
   102fc:	00000021 	move	zero,zero
   10300:	00000021 	move	zero,zero
   10304:	00000021 	move	zero,zero
   10308:	00000021 	move	zero,zero
   1030c:	3c089332 	lui	t0,0x9332
   10310:	35086582 	ori	t0,t0,0x6582
   10314:	0510ffeb 	bltzal	t0,102c4 <n35_bltzal_test+0x102c4>
   10318:	00000000 	nop
   1031c:	10000013 	b	1036c <n35_bltzal_test+0x1036c>
   10320:	00000000 	nop
   10324:	00000000 	nop
   10328:	00000021 	move	zero,zero
   1032c:	00000021 	move	zero,zero
   10330:	00000021 	move	zero,zero
   10334:	00000021 	move	zero,zero
   10338:	00000021 	move	zero,zero
   1033c:	00000021 	move	zero,zero
   10340:	00000021 	move	zero,zero
   10344:	00000021 	move	zero,zero
   10348:	00000021 	move	zero,zero
   1034c:	00000021 	move	zero,zero
   10350:	00000021 	move	zero,zero
   10354:	00000021 	move	zero,zero
   10358:	00000021 	move	zero,zero
   1035c:	00000021 	move	zero,zero
   10360:	00000021 	move	zero,zero
   10364:	3c12cf5e 	lui	s2,0xcf5e
   10368:	365255ca 	ori	s2,s2,0x55ca
   1036c:	001fa021 	addu	s4,zero,ra
   10370:	0015f821 	addu	ra,zero,s5
   10374:	3c150001 	lui	s5,0x1
   10378:	26b502cc 	addiu	s5,s5,716
   1037c:	3c160001 	lui	s6,0x1
   10380:	26d60314 	addiu	s6,s6,788
   10384:	3c18f1f9 	lui	t8,0xf1f9
   10388:	371855c0 	ori	t8,t8,0x55c0
   1038c:	1618081a 	bne	s0,t8,123f8 <inst_error>
   10390:	00000000 	nop
   10394:	00000000 	nop
   10398:	3c18cf5e 	lui	t8,0xcf5e
   1039c:	371855ca 	ori	t8,t8,0x55ca
   103a0:	16580815 	bne	s2,t8,123f8 <inst_error>
   103a4:	00000000 	nop
   103a8:	00000000 	nop
   103ac:	3c19bfc0 	lui	t9,0xbfc0
   103b0:	37399a14 	ori	t9,t9,0x9a14
   103b4:	3c18bfc0 	lui	t8,0xbfc0
   103b8:	37189a0c 	ori	t8,t8,0x9a0c
   103bc:	27180008 	addiu	t8,t8,8
   103c0:	1319000a 	beq	t8,t9,103ec <n35_bltzal_test+0x103ec>
   103c4:	00000000 	nop
   103c8:	00000000 	nop
   103cc:	3c18bfc0 	lui	t8,0xbfc0
   103d0:	37189a3c 	ori	t8,t8,0x9a3c
   103d4:	27180008 	addiu	t8,t8,8
   103d8:	1319000a 	beq	t8,t9,10404 <n35_bltzal_test+0x10404>
   103dc:	00000000 	nop
   103e0:	10000805 	b	123f8 <inst_error>
   103e4:	00000000 	nop
   103e8:	00000000 	nop
   103ec:	26b50008 	addiu	s5,s5,8
   103f0:	16950801 	bne	s4,s5,123f8 <inst_error>
   103f4:	00000000 	nop
   103f8:	10000006 	b	10414 <n35_bltzal_test+0x10414>
   103fc:	00000000 	nop
   10400:	00000000 	nop
   10404:	26d60008 	addiu	s6,s6,8
   10408:	169607fb 	bne	s4,s6,123f8 <inst_error>
   1040c:	00000000 	nop
	...
   10418:	001fa821 	addu	s5,zero,ra
   1041c:	3c0c0904 	lui	t4,0x904
   10420:	358c55b2 	ori	t4,t4,0x55b2
   10424:	3c0df5c1 	lui	t5,0xf5c1
   10428:	35adb600 	ori	t5,t5,0xb600
   1042c:	24100000 	li	s0,0
   10430:	10000014 	b	10484 <n35_bltzal_test+0x10484>
   10434:	24120000 	li	s2,0
   10438:	00000000 	nop
   1043c:	3c100904 	lui	s0,0x904
   10440:	361055b2 	ori	s0,s0,0x55b2
   10444:	05100025 	bltzal	t0,104dc <n35_bltzal_test+0x104dc>
   10448:	00000000 	nop
   1044c:	10000025 	b	104e4 <n35_bltzal_test+0x104e4>
   10450:	00000000 	nop
   10454:	00000000 	nop
   10458:	00000021 	move	zero,zero
   1045c:	00000021 	move	zero,zero
   10460:	00000021 	move	zero,zero
   10464:	00000021 	move	zero,zero
   10468:	00000021 	move	zero,zero
   1046c:	00000021 	move	zero,zero
   10470:	00000021 	move	zero,zero
   10474:	00000021 	move	zero,zero
   10478:	00000021 	move	zero,zero
   1047c:	00000021 	move	zero,zero
   10480:	00000021 	move	zero,zero
   10484:	3c080092 	lui	t0,0x92
   10488:	35088868 	ori	t0,t0,0x8868
   1048c:	0510ffeb 	bltzal	t0,1043c <n35_bltzal_test+0x1043c>
   10490:	00000000 	nop
   10494:	10000013 	b	104e4 <n35_bltzal_test+0x104e4>
   10498:	00000000 	nop
   1049c:	00000000 	nop
   104a0:	00000021 	move	zero,zero
   104a4:	00000021 	move	zero,zero
   104a8:	00000021 	move	zero,zero
   104ac:	00000021 	move	zero,zero
   104b0:	00000021 	move	zero,zero
   104b4:	00000021 	move	zero,zero
   104b8:	00000021 	move	zero,zero
   104bc:	00000021 	move	zero,zero
   104c0:	00000021 	move	zero,zero
   104c4:	00000021 	move	zero,zero
   104c8:	00000021 	move	zero,zero
   104cc:	00000021 	move	zero,zero
   104d0:	00000021 	move	zero,zero
   104d4:	00000021 	move	zero,zero
   104d8:	00000021 	move	zero,zero
   104dc:	3c12f5c1 	lui	s2,0xf5c1
   104e0:	3652b600 	ori	s2,s2,0xb600
   104e4:	001fa021 	addu	s4,zero,ra
   104e8:	0015f821 	addu	ra,zero,s5
   104ec:	3c150001 	lui	s5,0x1
   104f0:	26b50444 	addiu	s5,s5,1092
   104f4:	3c160001 	lui	s6,0x1
   104f8:	26d6048c 	addiu	s6,s6,1164
   104fc:	24180000 	li	t8,0
   10500:	161807bd 	bne	s0,t8,123f8 <inst_error>
   10504:	00000000 	nop
   10508:	00000000 	nop
   1050c:	24180000 	li	t8,0
   10510:	165807b9 	bne	s2,t8,123f8 <inst_error>
   10514:	00000000 	nop
   10518:	00000000 	nop
   1051c:	3c19bfc0 	lui	t9,0xbfc0
   10520:	37399b1c 	ori	t9,t9,0x9b1c
   10524:	3c18bfc0 	lui	t8,0xbfc0
   10528:	37189ae4 	ori	t8,t8,0x9ae4
   1052c:	27180008 	addiu	t8,t8,8
   10530:	1319000a 	beq	t8,t9,1055c <n35_bltzal_test+0x1055c>
   10534:	00000000 	nop
   10538:	00000000 	nop
   1053c:	3c18bfc0 	lui	t8,0xbfc0
   10540:	37189b14 	ori	t8,t8,0x9b14
   10544:	27180008 	addiu	t8,t8,8
   10548:	1319000a 	beq	t8,t9,10574 <n35_bltzal_test+0x10574>
   1054c:	00000000 	nop
   10550:	100007a9 	b	123f8 <inst_error>
   10554:	00000000 	nop
   10558:	00000000 	nop
   1055c:	26b50008 	addiu	s5,s5,8
   10560:	169507a5 	bne	s4,s5,123f8 <inst_error>
   10564:	00000000 	nop
   10568:	10000006 	b	10584 <n35_bltzal_test+0x10584>
   1056c:	00000000 	nop
   10570:	00000000 	nop
   10574:	26d60008 	addiu	s6,s6,8
   10578:	1696079f 	bne	s4,s6,123f8 <inst_error>
   1057c:	00000000 	nop
	...
   10588:	001fa821 	addu	s5,zero,ra
   1058c:	3c0c1633 	lui	t4,0x1633
   10590:	358c2a88 	ori	t4,t4,0x2a88
   10594:	3c0d5496 	lui	t5,0x5496
   10598:	35ad8884 	ori	t5,t5,0x8884
   1059c:	24100000 	li	s0,0
   105a0:	10000014 	b	105f4 <n35_bltzal_test+0x105f4>
   105a4:	24120000 	li	s2,0
   105a8:	00000000 	nop
   105ac:	3c101633 	lui	s0,0x1633
   105b0:	36102a88 	ori	s0,s0,0x2a88
   105b4:	05100025 	bltzal	t0,1064c <n35_bltzal_test+0x1064c>
   105b8:	00000000 	nop
   105bc:	10000025 	b	10654 <n35_bltzal_test+0x10654>
   105c0:	00000000 	nop
   105c4:	00000000 	nop
   105c8:	00000021 	move	zero,zero
   105cc:	00000021 	move	zero,zero
   105d0:	00000021 	move	zero,zero
   105d4:	00000021 	move	zero,zero
   105d8:	00000021 	move	zero,zero
   105dc:	00000021 	move	zero,zero
   105e0:	00000021 	move	zero,zero
   105e4:	00000021 	move	zero,zero
   105e8:	00000021 	move	zero,zero
   105ec:	00000021 	move	zero,zero
   105f0:	00000021 	move	zero,zero
   105f4:	3c08f7cc 	lui	t0,0xf7cc
   105f8:	3508d1e8 	ori	t0,t0,0xd1e8
   105fc:	0510ffeb 	bltzal	t0,105ac <n35_bltzal_test+0x105ac>
   10600:	00000000 	nop
   10604:	10000013 	b	10654 <n35_bltzal_test+0x10654>
   10608:	00000000 	nop
   1060c:	00000000 	nop
   10610:	00000021 	move	zero,zero
   10614:	00000021 	move	zero,zero
   10618:	00000021 	move	zero,zero
   1061c:	00000021 	move	zero,zero
   10620:	00000021 	move	zero,zero
   10624:	00000021 	move	zero,zero
   10628:	00000021 	move	zero,zero
   1062c:	00000021 	move	zero,zero
   10630:	00000021 	move	zero,zero
   10634:	00000021 	move	zero,zero
   10638:	00000021 	move	zero,zero
   1063c:	00000021 	move	zero,zero
   10640:	00000021 	move	zero,zero
   10644:	00000021 	move	zero,zero
   10648:	00000021 	move	zero,zero
   1064c:	3c125496 	lui	s2,0x5496
   10650:	36528884 	ori	s2,s2,0x8884
   10654:	001fa021 	addu	s4,zero,ra
   10658:	0015f821 	addu	ra,zero,s5
   1065c:	3c150001 	lui	s5,0x1
   10660:	26b505b4 	addiu	s5,s5,1460
   10664:	3c160001 	lui	s6,0x1
   10668:	26d605fc 	addiu	s6,s6,1532
   1066c:	3c181633 	lui	t8,0x1633
   10670:	37182a88 	ori	t8,t8,0x2a88
   10674:	16180760 	bne	s0,t8,123f8 <inst_error>
   10678:	00000000 	nop
   1067c:	00000000 	nop
   10680:	3c185496 	lui	t8,0x5496
   10684:	37188884 	ori	t8,t8,0x8884
   10688:	1658075b 	bne	s2,t8,123f8 <inst_error>
   1068c:	00000000 	nop
   10690:	00000000 	nop
   10694:	3c19bfc0 	lui	t9,0xbfc0
   10698:	37399bc4 	ori	t9,t9,0x9bc4
   1069c:	3c18bfc0 	lui	t8,0xbfc0
   106a0:	37189bbc 	ori	t8,t8,0x9bbc
   106a4:	27180008 	addiu	t8,t8,8
   106a8:	1319000a 	beq	t8,t9,106d4 <n35_bltzal_test+0x106d4>
   106ac:	00000000 	nop
   106b0:	00000000 	nop
   106b4:	3c18bfc0 	lui	t8,0xbfc0
   106b8:	37189bec 	ori	t8,t8,0x9bec
   106bc:	27180008 	addiu	t8,t8,8
   106c0:	1319000a 	beq	t8,t9,106ec <n35_bltzal_test+0x106ec>
   106c4:	00000000 	nop
   106c8:	1000074b 	b	123f8 <inst_error>
   106cc:	00000000 	nop
   106d0:	00000000 	nop
   106d4:	26b50008 	addiu	s5,s5,8
   106d8:	16950747 	bne	s4,s5,123f8 <inst_error>
   106dc:	00000000 	nop
   106e0:	10000006 	b	106fc <n35_bltzal_test+0x106fc>
   106e4:	00000000 	nop
   106e8:	00000000 	nop
   106ec:	26d60008 	addiu	s6,s6,8
   106f0:	16960741 	bne	s4,s6,123f8 <inst_error>
   106f4:	00000000 	nop
	...
   10700:	001fa821 	addu	s5,zero,ra
   10704:	3c0cfb8f 	lui	t4,0xfb8f
   10708:	358c16d5 	ori	t4,t4,0x16d5
   1070c:	3c0d09b6 	lui	t5,0x9b6
   10710:	35ad9d60 	ori	t5,t5,0x9d60
   10714:	24100000 	li	s0,0
   10718:	10000014 	b	1076c <n35_bltzal_test+0x1076c>
   1071c:	24120000 	li	s2,0
   10720:	00000000 	nop
   10724:	3c10fb8f 	lui	s0,0xfb8f
   10728:	361016d5 	ori	s0,s0,0x16d5
   1072c:	05100025 	bltzal	t0,107c4 <n35_bltzal_test+0x107c4>
   10730:	00000000 	nop
   10734:	10000025 	b	107cc <n35_bltzal_test+0x107cc>
   10738:	00000000 	nop
   1073c:	00000000 	nop
   10740:	00000021 	move	zero,zero
   10744:	00000021 	move	zero,zero
   10748:	00000021 	move	zero,zero
   1074c:	00000021 	move	zero,zero
   10750:	00000021 	move	zero,zero
   10754:	00000021 	move	zero,zero
   10758:	00000021 	move	zero,zero
   1075c:	00000021 	move	zero,zero
   10760:	00000021 	move	zero,zero
   10764:	00000021 	move	zero,zero
   10768:	00000021 	move	zero,zero
   1076c:	3c086ec4 	lui	t0,0x6ec4
   10770:	35083ef0 	ori	t0,t0,0x3ef0
   10774:	0510ffeb 	bltzal	t0,10724 <n35_bltzal_test+0x10724>
   10778:	00000000 	nop
   1077c:	10000013 	b	107cc <n35_bltzal_test+0x107cc>
   10780:	00000000 	nop
   10784:	00000000 	nop
   10788:	00000021 	move	zero,zero
   1078c:	00000021 	move	zero,zero
   10790:	00000021 	move	zero,zero
   10794:	00000021 	move	zero,zero
   10798:	00000021 	move	zero,zero
   1079c:	00000021 	move	zero,zero
   107a0:	00000021 	move	zero,zero
   107a4:	00000021 	move	zero,zero
   107a8:	00000021 	move	zero,zero
   107ac:	00000021 	move	zero,zero
   107b0:	00000021 	move	zero,zero
   107b4:	00000021 	move	zero,zero
   107b8:	00000021 	move	zero,zero
   107bc:	00000021 	move	zero,zero
   107c0:	00000021 	move	zero,zero
   107c4:	3c1209b6 	lui	s2,0x9b6
   107c8:	36529d60 	ori	s2,s2,0x9d60
   107cc:	001fa021 	addu	s4,zero,ra
   107d0:	0015f821 	addu	ra,zero,s5
   107d4:	3c150001 	lui	s5,0x1
   107d8:	26b5072c 	addiu	s5,s5,1836
   107dc:	3c160001 	lui	s6,0x1
   107e0:	26d60774 	addiu	s6,s6,1908
   107e4:	24180000 	li	t8,0
   107e8:	16180703 	bne	s0,t8,123f8 <inst_error>
   107ec:	00000000 	nop
   107f0:	00000000 	nop
   107f4:	24180000 	li	t8,0
   107f8:	165806ff 	bne	s2,t8,123f8 <inst_error>
   107fc:	00000000 	nop
   10800:	00000000 	nop
   10804:	3c19bfc0 	lui	t9,0xbfc0
   10808:	37399ccc 	ori	t9,t9,0x9ccc
   1080c:	3c18bfc0 	lui	t8,0xbfc0
   10810:	37189c94 	ori	t8,t8,0x9c94
   10814:	27180008 	addiu	t8,t8,8
   10818:	1319000a 	beq	t8,t9,10844 <n35_bltzal_test+0x10844>
   1081c:	00000000 	nop
   10820:	00000000 	nop
   10824:	3c18bfc0 	lui	t8,0xbfc0
   10828:	37189cc4 	ori	t8,t8,0x9cc4
   1082c:	27180008 	addiu	t8,t8,8
   10830:	1319000a 	beq	t8,t9,1085c <n35_bltzal_test+0x1085c>
   10834:	00000000 	nop
   10838:	100006ef 	b	123f8 <inst_error>
   1083c:	00000000 	nop
   10840:	00000000 	nop
   10844:	26b50008 	addiu	s5,s5,8
   10848:	169506eb 	bne	s4,s5,123f8 <inst_error>
   1084c:	00000000 	nop
   10850:	10000006 	b	1086c <n35_bltzal_test+0x1086c>
   10854:	00000000 	nop
   10858:	00000000 	nop
   1085c:	26d60008 	addiu	s6,s6,8
   10860:	169606e5 	bne	s4,s6,123f8 <inst_error>
   10864:	00000000 	nop
	...
   10870:	001fa821 	addu	s5,zero,ra
   10874:	3c0c37da 	lui	t4,0x37da
   10878:	358cacd7 	ori	t4,t4,0xacd7
   1087c:	3c0d7986 	lui	t5,0x7986
   10880:	35add400 	ori	t5,t5,0xd400
   10884:	24100000 	li	s0,0
   10888:	10000014 	b	108dc <n35_bltzal_test+0x108dc>
   1088c:	24120000 	li	s2,0
   10890:	00000000 	nop
   10894:	3c1037da 	lui	s0,0x37da
   10898:	3610acd7 	ori	s0,s0,0xacd7
   1089c:	05100025 	bltzal	t0,10934 <n35_bltzal_test+0x10934>
   108a0:	00000000 	nop
   108a4:	10000025 	b	1093c <n35_bltzal_test+0x1093c>
   108a8:	00000000 	nop
   108ac:	00000000 	nop
   108b0:	00000021 	move	zero,zero
   108b4:	00000021 	move	zero,zero
   108b8:	00000021 	move	zero,zero
   108bc:	00000021 	move	zero,zero
   108c0:	00000021 	move	zero,zero
   108c4:	00000021 	move	zero,zero
   108c8:	00000021 	move	zero,zero
   108cc:	00000021 	move	zero,zero
   108d0:	00000021 	move	zero,zero
   108d4:	00000021 	move	zero,zero
   108d8:	00000021 	move	zero,zero
   108dc:	3c0816c9 	lui	t0,0x16c9
   108e0:	3508ba2e 	ori	t0,t0,0xba2e
   108e4:	0510ffeb 	bltzal	t0,10894 <n35_bltzal_test+0x10894>
   108e8:	00000000 	nop
   108ec:	10000013 	b	1093c <n35_bltzal_test+0x1093c>
   108f0:	00000000 	nop
   108f4:	00000000 	nop
   108f8:	00000021 	move	zero,zero
   108fc:	00000021 	move	zero,zero
   10900:	00000021 	move	zero,zero
   10904:	00000021 	move	zero,zero
   10908:	00000021 	move	zero,zero
   1090c:	00000021 	move	zero,zero
   10910:	00000021 	move	zero,zero
   10914:	00000021 	move	zero,zero
   10918:	00000021 	move	zero,zero
   1091c:	00000021 	move	zero,zero
   10920:	00000021 	move	zero,zero
   10924:	00000021 	move	zero,zero
   10928:	00000021 	move	zero,zero
   1092c:	00000021 	move	zero,zero
   10930:	00000021 	move	zero,zero
   10934:	3c127986 	lui	s2,0x7986
   10938:	3652d400 	ori	s2,s2,0xd400
   1093c:	001fa021 	addu	s4,zero,ra
   10940:	0015f821 	addu	ra,zero,s5
   10944:	3c150001 	lui	s5,0x1
   10948:	26b5089c 	addiu	s5,s5,2204
   1094c:	3c160001 	lui	s6,0x1
   10950:	26d608e4 	addiu	s6,s6,2276
   10954:	24180000 	li	t8,0
   10958:	161806a7 	bne	s0,t8,123f8 <inst_error>
   1095c:	00000000 	nop
   10960:	00000000 	nop
   10964:	24180000 	li	t8,0
   10968:	165806a3 	bne	s2,t8,123f8 <inst_error>
   1096c:	00000000 	nop
   10970:	00000000 	nop
   10974:	3c19bfc0 	lui	t9,0xbfc0
   10978:	37399da4 	ori	t9,t9,0x9da4
   1097c:	3c18bfc0 	lui	t8,0xbfc0
   10980:	37189d6c 	ori	t8,t8,0x9d6c
   10984:	27180008 	addiu	t8,t8,8
   10988:	1319000a 	beq	t8,t9,109b4 <n35_bltzal_test+0x109b4>
   1098c:	00000000 	nop
   10990:	00000000 	nop
   10994:	3c18bfc0 	lui	t8,0xbfc0
   10998:	37189d9c 	ori	t8,t8,0x9d9c
   1099c:	27180008 	addiu	t8,t8,8
   109a0:	1319000a 	beq	t8,t9,109cc <n35_bltzal_test+0x109cc>
   109a4:	00000000 	nop
   109a8:	10000693 	b	123f8 <inst_error>
   109ac:	00000000 	nop
   109b0:	00000000 	nop
   109b4:	26b50008 	addiu	s5,s5,8
   109b8:	1695068f 	bne	s4,s5,123f8 <inst_error>
   109bc:	00000000 	nop
   109c0:	10000006 	b	109dc <n35_bltzal_test+0x109dc>
   109c4:	00000000 	nop
   109c8:	00000000 	nop
   109cc:	26d60008 	addiu	s6,s6,8
   109d0:	16960689 	bne	s4,s6,123f8 <inst_error>
   109d4:	00000000 	nop
	...
   109e0:	001fa821 	addu	s5,zero,ra
   109e4:	3c0ce096 	lui	t4,0xe096
   109e8:	358ceec2 	ori	t4,t4,0xeec2
   109ec:	3c0d15e2 	lui	t5,0x15e2
   109f0:	35ade1e0 	ori	t5,t5,0xe1e0
   109f4:	24100000 	li	s0,0
   109f8:	10000014 	b	10a4c <n35_bltzal_test+0x10a4c>
   109fc:	24120000 	li	s2,0
   10a00:	00000000 	nop
   10a04:	3c10e096 	lui	s0,0xe096
   10a08:	3610eec2 	ori	s0,s0,0xeec2
   10a0c:	05100025 	bltzal	t0,10aa4 <n35_bltzal_test+0x10aa4>
   10a10:	00000000 	nop
   10a14:	10000025 	b	10aac <n35_bltzal_test+0x10aac>
   10a18:	00000000 	nop
   10a1c:	00000000 	nop
   10a20:	00000021 	move	zero,zero
   10a24:	00000021 	move	zero,zero
   10a28:	00000021 	move	zero,zero
   10a2c:	00000021 	move	zero,zero
   10a30:	00000021 	move	zero,zero
   10a34:	00000021 	move	zero,zero
   10a38:	00000021 	move	zero,zero
   10a3c:	00000021 	move	zero,zero
   10a40:	00000021 	move	zero,zero
   10a44:	00000021 	move	zero,zero
   10a48:	00000021 	move	zero,zero
   10a4c:	3c08bae4 	lui	t0,0xbae4
   10a50:	350801b8 	ori	t0,t0,0x1b8
   10a54:	0510ffeb 	bltzal	t0,10a04 <n35_bltzal_test+0x10a04>
   10a58:	00000000 	nop
   10a5c:	10000013 	b	10aac <n35_bltzal_test+0x10aac>
   10a60:	00000000 	nop
   10a64:	00000000 	nop
   10a68:	00000021 	move	zero,zero
   10a6c:	00000021 	move	zero,zero
   10a70:	00000021 	move	zero,zero
   10a74:	00000021 	move	zero,zero
   10a78:	00000021 	move	zero,zero
   10a7c:	00000021 	move	zero,zero
   10a80:	00000021 	move	zero,zero
   10a84:	00000021 	move	zero,zero
   10a88:	00000021 	move	zero,zero
   10a8c:	00000021 	move	zero,zero
   10a90:	00000021 	move	zero,zero
   10a94:	00000021 	move	zero,zero
   10a98:	00000021 	move	zero,zero
   10a9c:	00000021 	move	zero,zero
   10aa0:	00000021 	move	zero,zero
   10aa4:	3c1215e2 	lui	s2,0x15e2
   10aa8:	3652e1e0 	ori	s2,s2,0xe1e0
   10aac:	001fa021 	addu	s4,zero,ra
   10ab0:	0015f821 	addu	ra,zero,s5
   10ab4:	3c150001 	lui	s5,0x1
   10ab8:	26b50a0c 	addiu	s5,s5,2572
   10abc:	3c160001 	lui	s6,0x1
   10ac0:	26d60a54 	addiu	s6,s6,2644
   10ac4:	3c18e096 	lui	t8,0xe096
   10ac8:	3718eec2 	ori	t8,t8,0xeec2
   10acc:	1618064a 	bne	s0,t8,123f8 <inst_error>
   10ad0:	00000000 	nop
   10ad4:	00000000 	nop
   10ad8:	3c1815e2 	lui	t8,0x15e2
   10adc:	3718e1e0 	ori	t8,t8,0xe1e0
   10ae0:	16580645 	bne	s2,t8,123f8 <inst_error>
   10ae4:	00000000 	nop
   10ae8:	00000000 	nop
   10aec:	3c19bfc0 	lui	t9,0xbfc0
   10af0:	37399e4c 	ori	t9,t9,0x9e4c
   10af4:	3c18bfc0 	lui	t8,0xbfc0
   10af8:	37189e44 	ori	t8,t8,0x9e44
   10afc:	27180008 	addiu	t8,t8,8
   10b00:	1319000a 	beq	t8,t9,10b2c <n35_bltzal_test+0x10b2c>
   10b04:	00000000 	nop
   10b08:	00000000 	nop
   10b0c:	3c18bfc0 	lui	t8,0xbfc0
   10b10:	37189e74 	ori	t8,t8,0x9e74
   10b14:	27180008 	addiu	t8,t8,8
   10b18:	1319000a 	beq	t8,t9,10b44 <n35_bltzal_test+0x10b44>
   10b1c:	00000000 	nop
   10b20:	10000635 	b	123f8 <inst_error>
   10b24:	00000000 	nop
   10b28:	00000000 	nop
   10b2c:	26b50008 	addiu	s5,s5,8
   10b30:	16950631 	bne	s4,s5,123f8 <inst_error>
   10b34:	00000000 	nop
   10b38:	10000006 	b	10b54 <n35_bltzal_test+0x10b54>
   10b3c:	00000000 	nop
   10b40:	00000000 	nop
   10b44:	26d60008 	addiu	s6,s6,8
   10b48:	1696062b 	bne	s4,s6,123f8 <inst_error>
   10b4c:	00000000 	nop
	...
   10b58:	001fa821 	addu	s5,zero,ra
   10b5c:	3c0c1fd9 	lui	t4,0x1fd9
   10b60:	358cb7a8 	ori	t4,t4,0xb7a8
   10b64:	3c0d7f6b 	lui	t5,0x7f6b
   10b68:	35ad7a00 	ori	t5,t5,0x7a00
   10b6c:	24100000 	li	s0,0
   10b70:	10000014 	b	10bc4 <n35_bltzal_test+0x10bc4>
   10b74:	24120000 	li	s2,0
   10b78:	00000000 	nop
   10b7c:	3c101fd9 	lui	s0,0x1fd9
   10b80:	3610b7a8 	ori	s0,s0,0xb7a8
   10b84:	05100025 	bltzal	t0,10c1c <n35_bltzal_test+0x10c1c>
   10b88:	00000000 	nop
   10b8c:	10000025 	b	10c24 <n35_bltzal_test+0x10c24>
   10b90:	00000000 	nop
   10b94:	00000000 	nop
   10b98:	00000021 	move	zero,zero
   10b9c:	00000021 	move	zero,zero
   10ba0:	00000021 	move	zero,zero
   10ba4:	00000021 	move	zero,zero
   10ba8:	00000021 	move	zero,zero
   10bac:	00000021 	move	zero,zero
   10bb0:	00000021 	move	zero,zero
   10bb4:	00000021 	move	zero,zero
   10bb8:	00000021 	move	zero,zero
   10bbc:	00000021 	move	zero,zero
   10bc0:	00000021 	move	zero,zero
   10bc4:	3c087a4a 	lui	t0,0x7a4a
   10bc8:	35085eb6 	ori	t0,t0,0x5eb6
   10bcc:	0510ffeb 	bltzal	t0,10b7c <n35_bltzal_test+0x10b7c>
   10bd0:	00000000 	nop
   10bd4:	10000013 	b	10c24 <n35_bltzal_test+0x10c24>
   10bd8:	00000000 	nop
   10bdc:	00000000 	nop
   10be0:	00000021 	move	zero,zero
   10be4:	00000021 	move	zero,zero
   10be8:	00000021 	move	zero,zero
   10bec:	00000021 	move	zero,zero
   10bf0:	00000021 	move	zero,zero
   10bf4:	00000021 	move	zero,zero
   10bf8:	00000021 	move	zero,zero
   10bfc:	00000021 	move	zero,zero
   10c00:	00000021 	move	zero,zero
   10c04:	00000021 	move	zero,zero
   10c08:	00000021 	move	zero,zero
   10c0c:	00000021 	move	zero,zero
   10c10:	00000021 	move	zero,zero
   10c14:	00000021 	move	zero,zero
   10c18:	00000021 	move	zero,zero
   10c1c:	3c127f6b 	lui	s2,0x7f6b
   10c20:	36527a00 	ori	s2,s2,0x7a00
   10c24:	001fa021 	addu	s4,zero,ra
   10c28:	0015f821 	addu	ra,zero,s5
   10c2c:	3c150001 	lui	s5,0x1
   10c30:	26b50b84 	addiu	s5,s5,2948
   10c34:	3c160001 	lui	s6,0x1
   10c38:	26d60bcc 	addiu	s6,s6,3020
   10c3c:	24180000 	li	t8,0
   10c40:	161805ed 	bne	s0,t8,123f8 <inst_error>
   10c44:	00000000 	nop
   10c48:	00000000 	nop
   10c4c:	24180000 	li	t8,0
   10c50:	165805e9 	bne	s2,t8,123f8 <inst_error>
   10c54:	00000000 	nop
   10c58:	00000000 	nop
   10c5c:	3c19bfc0 	lui	t9,0xbfc0
   10c60:	37399f54 	ori	t9,t9,0x9f54
   10c64:	3c18bfc0 	lui	t8,0xbfc0
   10c68:	37189f1c 	ori	t8,t8,0x9f1c
   10c6c:	27180008 	addiu	t8,t8,8
   10c70:	1319000a 	beq	t8,t9,10c9c <n35_bltzal_test+0x10c9c>
   10c74:	00000000 	nop
   10c78:	00000000 	nop
   10c7c:	3c18bfc0 	lui	t8,0xbfc0
   10c80:	37189f4c 	ori	t8,t8,0x9f4c
   10c84:	27180008 	addiu	t8,t8,8
   10c88:	1319000a 	beq	t8,t9,10cb4 <n35_bltzal_test+0x10cb4>
   10c8c:	00000000 	nop
   10c90:	100005d9 	b	123f8 <inst_error>
   10c94:	00000000 	nop
   10c98:	00000000 	nop
   10c9c:	26b50008 	addiu	s5,s5,8
   10ca0:	169505d5 	bne	s4,s5,123f8 <inst_error>
   10ca4:	00000000 	nop
   10ca8:	10000006 	b	10cc4 <n35_bltzal_test+0x10cc4>
   10cac:	00000000 	nop
   10cb0:	00000000 	nop
   10cb4:	26d60008 	addiu	s6,s6,8
   10cb8:	169605cf 	bne	s4,s6,123f8 <inst_error>
   10cbc:	00000000 	nop
	...
   10cc8:	001fa821 	addu	s5,zero,ra
   10ccc:	3c0cdc65 	lui	t4,0xdc65
   10cd0:	358c605e 	ori	t4,t4,0x605e
   10cd4:	3c0dddb8 	lui	t5,0xddb8
   10cd8:	35ad579c 	ori	t5,t5,0x579c
   10cdc:	24100000 	li	s0,0
   10ce0:	10000014 	b	10d34 <n35_bltzal_test+0x10d34>
   10ce4:	24120000 	li	s2,0
   10ce8:	00000000 	nop
   10cec:	3c10dc65 	lui	s0,0xdc65
   10cf0:	3610605e 	ori	s0,s0,0x605e
   10cf4:	05100025 	bltzal	t0,10d8c <n35_bltzal_test+0x10d8c>
   10cf8:	00000000 	nop
   10cfc:	10000025 	b	10d94 <n35_bltzal_test+0x10d94>
   10d00:	00000000 	nop
   10d04:	00000000 	nop
   10d08:	00000021 	move	zero,zero
   10d0c:	00000021 	move	zero,zero
   10d10:	00000021 	move	zero,zero
   10d14:	00000021 	move	zero,zero
   10d18:	00000021 	move	zero,zero
   10d1c:	00000021 	move	zero,zero
   10d20:	00000021 	move	zero,zero
   10d24:	00000021 	move	zero,zero
   10d28:	00000021 	move	zero,zero
   10d2c:	00000021 	move	zero,zero
   10d30:	00000021 	move	zero,zero
   10d34:	3c0859b2 	lui	t0,0x59b2
   10d38:	35080d00 	ori	t0,t0,0xd00
   10d3c:	0510ffeb 	bltzal	t0,10cec <n35_bltzal_test+0x10cec>
   10d40:	00000000 	nop
   10d44:	10000013 	b	10d94 <n35_bltzal_test+0x10d94>
   10d48:	00000000 	nop
   10d4c:	00000000 	nop
   10d50:	00000021 	move	zero,zero
   10d54:	00000021 	move	zero,zero
   10d58:	00000021 	move	zero,zero
   10d5c:	00000021 	move	zero,zero
   10d60:	00000021 	move	zero,zero
   10d64:	00000021 	move	zero,zero
   10d68:	00000021 	move	zero,zero
   10d6c:	00000021 	move	zero,zero
   10d70:	00000021 	move	zero,zero
   10d74:	00000021 	move	zero,zero
   10d78:	00000021 	move	zero,zero
   10d7c:	00000021 	move	zero,zero
   10d80:	00000021 	move	zero,zero
   10d84:	00000021 	move	zero,zero
   10d88:	00000021 	move	zero,zero
   10d8c:	3c12ddb8 	lui	s2,0xddb8
   10d90:	3652579c 	ori	s2,s2,0x579c
   10d94:	001fa021 	addu	s4,zero,ra
   10d98:	0015f821 	addu	ra,zero,s5
   10d9c:	3c150001 	lui	s5,0x1
   10da0:	26b50cf4 	addiu	s5,s5,3316
   10da4:	3c160001 	lui	s6,0x1
   10da8:	26d60d3c 	addiu	s6,s6,3388
   10dac:	24180000 	li	t8,0
   10db0:	16180591 	bne	s0,t8,123f8 <inst_error>
   10db4:	00000000 	nop
   10db8:	00000000 	nop
   10dbc:	24180000 	li	t8,0
   10dc0:	1658058d 	bne	s2,t8,123f8 <inst_error>
   10dc4:	00000000 	nop
   10dc8:	00000000 	nop
   10dcc:	3c19bfc0 	lui	t9,0xbfc0
   10dd0:	3739a02c 	ori	t9,t9,0xa02c
   10dd4:	3c18bfc0 	lui	t8,0xbfc0
   10dd8:	37189ff4 	ori	t8,t8,0x9ff4
   10ddc:	27180008 	addiu	t8,t8,8
   10de0:	1319000a 	beq	t8,t9,10e0c <n35_bltzal_test+0x10e0c>
   10de4:	00000000 	nop
   10de8:	00000000 	nop
   10dec:	3c18bfc0 	lui	t8,0xbfc0
   10df0:	3718a024 	ori	t8,t8,0xa024
   10df4:	27180008 	addiu	t8,t8,8
   10df8:	1319000a 	beq	t8,t9,10e24 <n35_bltzal_test+0x10e24>
   10dfc:	00000000 	nop
   10e00:	1000057d 	b	123f8 <inst_error>
   10e04:	00000000 	nop
   10e08:	00000000 	nop
   10e0c:	26b50008 	addiu	s5,s5,8
   10e10:	16950579 	bne	s4,s5,123f8 <inst_error>
   10e14:	00000000 	nop
   10e18:	10000006 	b	10e34 <n35_bltzal_test+0x10e34>
   10e1c:	00000000 	nop
   10e20:	00000000 	nop
   10e24:	26d60008 	addiu	s6,s6,8
   10e28:	16960573 	bne	s4,s6,123f8 <inst_error>
   10e2c:	00000000 	nop
	...
   10e38:	001fa821 	addu	s5,zero,ra
   10e3c:	3c0cde52 	lui	t4,0xde52
   10e40:	358cb38f 	ori	t4,t4,0xb38f
   10e44:	3c0d1484 	lui	t5,0x1484
   10e48:	35ad8570 	ori	t5,t5,0x8570
   10e4c:	24100000 	li	s0,0
   10e50:	10000014 	b	10ea4 <n35_bltzal_test+0x10ea4>
   10e54:	24120000 	li	s2,0
   10e58:	00000000 	nop
   10e5c:	3c10de52 	lui	s0,0xde52
   10e60:	3610b38f 	ori	s0,s0,0xb38f
   10e64:	05100025 	bltzal	t0,10efc <n35_bltzal_test+0x10efc>
   10e68:	00000000 	nop
   10e6c:	10000025 	b	10f04 <n35_bltzal_test+0x10f04>
   10e70:	00000000 	nop
   10e74:	00000000 	nop
   10e78:	00000021 	move	zero,zero
   10e7c:	00000021 	move	zero,zero
   10e80:	00000021 	move	zero,zero
   10e84:	00000021 	move	zero,zero
   10e88:	00000021 	move	zero,zero
   10e8c:	00000021 	move	zero,zero
   10e90:	00000021 	move	zero,zero
   10e94:	00000021 	move	zero,zero
   10e98:	00000021 	move	zero,zero
   10e9c:	00000021 	move	zero,zero
   10ea0:	00000021 	move	zero,zero
   10ea4:	3c0848e7 	lui	t0,0x48e7
   10ea8:	3508307c 	ori	t0,t0,0x307c
   10eac:	0510ffeb 	bltzal	t0,10e5c <n35_bltzal_test+0x10e5c>
   10eb0:	00000000 	nop
   10eb4:	10000013 	b	10f04 <n35_bltzal_test+0x10f04>
   10eb8:	00000000 	nop
   10ebc:	00000000 	nop
   10ec0:	00000021 	move	zero,zero
   10ec4:	00000021 	move	zero,zero
   10ec8:	00000021 	move	zero,zero
   10ecc:	00000021 	move	zero,zero
   10ed0:	00000021 	move	zero,zero
   10ed4:	00000021 	move	zero,zero
   10ed8:	00000021 	move	zero,zero
   10edc:	00000021 	move	zero,zero
   10ee0:	00000021 	move	zero,zero
   10ee4:	00000021 	move	zero,zero
   10ee8:	00000021 	move	zero,zero
   10eec:	00000021 	move	zero,zero
   10ef0:	00000021 	move	zero,zero
   10ef4:	00000021 	move	zero,zero
   10ef8:	00000021 	move	zero,zero
   10efc:	3c121484 	lui	s2,0x1484
   10f00:	36528570 	ori	s2,s2,0x8570
   10f04:	001fa021 	addu	s4,zero,ra
   10f08:	0015f821 	addu	ra,zero,s5
   10f0c:	3c150001 	lui	s5,0x1
   10f10:	26b50e64 	addiu	s5,s5,3684
   10f14:	3c160001 	lui	s6,0x1
   10f18:	26d60eac 	addiu	s6,s6,3756
   10f1c:	24180000 	li	t8,0
   10f20:	16180535 	bne	s0,t8,123f8 <inst_error>
   10f24:	00000000 	nop
   10f28:	00000000 	nop
   10f2c:	24180000 	li	t8,0
   10f30:	16580531 	bne	s2,t8,123f8 <inst_error>
   10f34:	00000000 	nop
   10f38:	00000000 	nop
   10f3c:	3c19bfc0 	lui	t9,0xbfc0
   10f40:	3739a104 	ori	t9,t9,0xa104
   10f44:	3c18bfc0 	lui	t8,0xbfc0
   10f48:	3718a0cc 	ori	t8,t8,0xa0cc
   10f4c:	27180008 	addiu	t8,t8,8
   10f50:	1319000a 	beq	t8,t9,10f7c <n35_bltzal_test+0x10f7c>
   10f54:	00000000 	nop
   10f58:	00000000 	nop
   10f5c:	3c18bfc0 	lui	t8,0xbfc0
   10f60:	3718a0fc 	ori	t8,t8,0xa0fc
   10f64:	27180008 	addiu	t8,t8,8
   10f68:	1319000a 	beq	t8,t9,10f94 <n35_bltzal_test+0x10f94>
   10f6c:	00000000 	nop
   10f70:	10000521 	b	123f8 <inst_error>
   10f74:	00000000 	nop
   10f78:	00000000 	nop
   10f7c:	26b50008 	addiu	s5,s5,8
   10f80:	1695051d 	bne	s4,s5,123f8 <inst_error>
   10f84:	00000000 	nop
   10f88:	10000006 	b	10fa4 <n35_bltzal_test+0x10fa4>
   10f8c:	00000000 	nop
   10f90:	00000000 	nop
   10f94:	26d60008 	addiu	s6,s6,8
   10f98:	16960517 	bne	s4,s6,123f8 <inst_error>
   10f9c:	00000000 	nop
	...
   10fa8:	001fa821 	addu	s5,zero,ra
   10fac:	3c0cb9eb 	lui	t4,0xb9eb
   10fb0:	358c186e 	ori	t4,t4,0x186e
   10fb4:	3c0d403c 	lui	t5,0x403c
   10fb8:	35adcc04 	ori	t5,t5,0xcc04
   10fbc:	24100000 	li	s0,0
   10fc0:	10000014 	b	11014 <n35_bltzal_test+0x11014>
   10fc4:	24120000 	li	s2,0
   10fc8:	00000000 	nop
   10fcc:	3c10b9eb 	lui	s0,0xb9eb
   10fd0:	3610186e 	ori	s0,s0,0x186e
   10fd4:	05100025 	bltzal	t0,1106c <n35_bltzal_test+0x1106c>
   10fd8:	00000000 	nop
   10fdc:	10000025 	b	11074 <n35_bltzal_test+0x11074>
   10fe0:	00000000 	nop
   10fe4:	00000000 	nop
   10fe8:	00000021 	move	zero,zero
   10fec:	00000021 	move	zero,zero
   10ff0:	00000021 	move	zero,zero
   10ff4:	00000021 	move	zero,zero
   10ff8:	00000021 	move	zero,zero
   10ffc:	00000021 	move	zero,zero
   11000:	00000021 	move	zero,zero
   11004:	00000021 	move	zero,zero
   11008:	00000021 	move	zero,zero
   1100c:	00000021 	move	zero,zero
   11010:	00000021 	move	zero,zero
   11014:	3c082fe0 	lui	t0,0x2fe0
   11018:	35083e13 	ori	t0,t0,0x3e13
   1101c:	0510ffeb 	bltzal	t0,10fcc <n35_bltzal_test+0x10fcc>
   11020:	00000000 	nop
   11024:	10000013 	b	11074 <n35_bltzal_test+0x11074>
   11028:	00000000 	nop
   1102c:	00000000 	nop
   11030:	00000021 	move	zero,zero
   11034:	00000021 	move	zero,zero
   11038:	00000021 	move	zero,zero
   1103c:	00000021 	move	zero,zero
   11040:	00000021 	move	zero,zero
   11044:	00000021 	move	zero,zero
   11048:	00000021 	move	zero,zero
   1104c:	00000021 	move	zero,zero
   11050:	00000021 	move	zero,zero
   11054:	00000021 	move	zero,zero
   11058:	00000021 	move	zero,zero
   1105c:	00000021 	move	zero,zero
   11060:	00000021 	move	zero,zero
   11064:	00000021 	move	zero,zero
   11068:	00000021 	move	zero,zero
   1106c:	3c12403c 	lui	s2,0x403c
   11070:	3652cc04 	ori	s2,s2,0xcc04
   11074:	001fa021 	addu	s4,zero,ra
   11078:	0015f821 	addu	ra,zero,s5
   1107c:	3c150001 	lui	s5,0x1
   11080:	26b50fd4 	addiu	s5,s5,4052
   11084:	3c160001 	lui	s6,0x1
   11088:	26d6101c 	addiu	s6,s6,4124
   1108c:	24180000 	li	t8,0
   11090:	161804d9 	bne	s0,t8,123f8 <inst_error>
   11094:	00000000 	nop
   11098:	00000000 	nop
   1109c:	24180000 	li	t8,0
   110a0:	165804d5 	bne	s2,t8,123f8 <inst_error>
   110a4:	00000000 	nop
   110a8:	00000000 	nop
   110ac:	3c19bfc0 	lui	t9,0xbfc0
   110b0:	3739a1dc 	ori	t9,t9,0xa1dc
   110b4:	3c18bfc0 	lui	t8,0xbfc0
   110b8:	3718a1a4 	ori	t8,t8,0xa1a4
   110bc:	27180008 	addiu	t8,t8,8
   110c0:	1319000a 	beq	t8,t9,110ec <n35_bltzal_test+0x110ec>
   110c4:	00000000 	nop
   110c8:	00000000 	nop
   110cc:	3c18bfc0 	lui	t8,0xbfc0
   110d0:	3718a1d4 	ori	t8,t8,0xa1d4
   110d4:	27180008 	addiu	t8,t8,8
   110d8:	1319000a 	beq	t8,t9,11104 <n35_bltzal_test+0x11104>
   110dc:	00000000 	nop
   110e0:	100004c5 	b	123f8 <inst_error>
   110e4:	00000000 	nop
   110e8:	00000000 	nop
   110ec:	26b50008 	addiu	s5,s5,8
   110f0:	169504c1 	bne	s4,s5,123f8 <inst_error>
   110f4:	00000000 	nop
   110f8:	10000006 	b	11114 <n35_bltzal_test+0x11114>
   110fc:	00000000 	nop
   11100:	00000000 	nop
   11104:	26d60008 	addiu	s6,s6,8
   11108:	169604bb 	bne	s4,s6,123f8 <inst_error>
   1110c:	00000000 	nop
	...
   11118:	001fa821 	addu	s5,zero,ra
   1111c:	3c0c5b45 	lui	t4,0x5b45
   11120:	358c8d34 	ori	t4,t4,0x8d34
   11124:	3c0db3e5 	lui	t5,0xb3e5
   11128:	35adb6c0 	ori	t5,t5,0xb6c0
   1112c:	24100000 	li	s0,0
   11130:	10000014 	b	11184 <n35_bltzal_test+0x11184>
   11134:	24120000 	li	s2,0
   11138:	00000000 	nop
   1113c:	3c105b45 	lui	s0,0x5b45
   11140:	36108d34 	ori	s0,s0,0x8d34
   11144:	05100025 	bltzal	t0,111dc <n35_bltzal_test+0x111dc>
   11148:	00000000 	nop
   1114c:	10000025 	b	111e4 <n35_bltzal_test+0x111e4>
   11150:	00000000 	nop
   11154:	00000000 	nop
   11158:	00000021 	move	zero,zero
   1115c:	00000021 	move	zero,zero
   11160:	00000021 	move	zero,zero
   11164:	00000021 	move	zero,zero
   11168:	00000021 	move	zero,zero
   1116c:	00000021 	move	zero,zero
   11170:	00000021 	move	zero,zero
   11174:	00000021 	move	zero,zero
   11178:	00000021 	move	zero,zero
   1117c:	00000021 	move	zero,zero
   11180:	00000021 	move	zero,zero
   11184:	3c0850d8 	lui	t0,0x50d8
   11188:	35083460 	ori	t0,t0,0x3460
   1118c:	0510ffeb 	bltzal	t0,1113c <n35_bltzal_test+0x1113c>
   11190:	00000000 	nop
   11194:	10000013 	b	111e4 <n35_bltzal_test+0x111e4>
   11198:	00000000 	nop
   1119c:	00000000 	nop
   111a0:	00000021 	move	zero,zero
   111a4:	00000021 	move	zero,zero
   111a8:	00000021 	move	zero,zero
   111ac:	00000021 	move	zero,zero
   111b0:	00000021 	move	zero,zero
   111b4:	00000021 	move	zero,zero
   111b8:	00000021 	move	zero,zero
   111bc:	00000021 	move	zero,zero
   111c0:	00000021 	move	zero,zero
   111c4:	00000021 	move	zero,zero
   111c8:	00000021 	move	zero,zero
   111cc:	00000021 	move	zero,zero
   111d0:	00000021 	move	zero,zero
   111d4:	00000021 	move	zero,zero
   111d8:	00000021 	move	zero,zero
   111dc:	3c12b3e5 	lui	s2,0xb3e5
   111e0:	3652b6c0 	ori	s2,s2,0xb6c0
   111e4:	001fa021 	addu	s4,zero,ra
   111e8:	0015f821 	addu	ra,zero,s5
   111ec:	3c150001 	lui	s5,0x1
   111f0:	26b51144 	addiu	s5,s5,4420
   111f4:	3c160001 	lui	s6,0x1
   111f8:	26d6118c 	addiu	s6,s6,4492
   111fc:	24180000 	li	t8,0
   11200:	1618047d 	bne	s0,t8,123f8 <inst_error>
   11204:	00000000 	nop
   11208:	00000000 	nop
   1120c:	24180000 	li	t8,0
   11210:	16580479 	bne	s2,t8,123f8 <inst_error>
   11214:	00000000 	nop
   11218:	00000000 	nop
   1121c:	3c19bfc0 	lui	t9,0xbfc0
   11220:	3739a2b4 	ori	t9,t9,0xa2b4
   11224:	3c18bfc0 	lui	t8,0xbfc0
   11228:	3718a27c 	ori	t8,t8,0xa27c
   1122c:	27180008 	addiu	t8,t8,8
   11230:	1319000a 	beq	t8,t9,1125c <n35_bltzal_test+0x1125c>
   11234:	00000000 	nop
   11238:	00000000 	nop
   1123c:	3c18bfc0 	lui	t8,0xbfc0
   11240:	3718a2ac 	ori	t8,t8,0xa2ac
   11244:	27180008 	addiu	t8,t8,8
   11248:	1319000a 	beq	t8,t9,11274 <n35_bltzal_test+0x11274>
   1124c:	00000000 	nop
   11250:	10000469 	b	123f8 <inst_error>
   11254:	00000000 	nop
   11258:	00000000 	nop
   1125c:	26b50008 	addiu	s5,s5,8
   11260:	16950465 	bne	s4,s5,123f8 <inst_error>
   11264:	00000000 	nop
   11268:	10000006 	b	11284 <n35_bltzal_test+0x11284>
   1126c:	00000000 	nop
   11270:	00000000 	nop
   11274:	26d60008 	addiu	s6,s6,8
   11278:	1696045f 	bne	s4,s6,123f8 <inst_error>
   1127c:	00000000 	nop
	...
   11288:	001fa821 	addu	s5,zero,ra
   1128c:	3c0ce3ef 	lui	t4,0xe3ef
   11290:	358cdfde 	ori	t4,t4,0xdfde
   11294:	3c0d0d3d 	lui	t5,0xd3d
   11298:	35ad9b80 	ori	t5,t5,0x9b80
   1129c:	24100000 	li	s0,0
   112a0:	10000014 	b	112f4 <n35_bltzal_test+0x112f4>
   112a4:	24120000 	li	s2,0
   112a8:	00000000 	nop
   112ac:	3c10e3ef 	lui	s0,0xe3ef
   112b0:	3610dfde 	ori	s0,s0,0xdfde
   112b4:	05100025 	bltzal	t0,1134c <n35_bltzal_test+0x1134c>
   112b8:	00000000 	nop
   112bc:	10000025 	b	11354 <n35_bltzal_test+0x11354>
   112c0:	00000000 	nop
   112c4:	00000000 	nop
   112c8:	00000021 	move	zero,zero
   112cc:	00000021 	move	zero,zero
   112d0:	00000021 	move	zero,zero
   112d4:	00000021 	move	zero,zero
   112d8:	00000021 	move	zero,zero
   112dc:	00000021 	move	zero,zero
   112e0:	00000021 	move	zero,zero
   112e4:	00000021 	move	zero,zero
   112e8:	00000021 	move	zero,zero
   112ec:	00000021 	move	zero,zero
   112f0:	00000021 	move	zero,zero
   112f4:	3c0842e7 	lui	t0,0x42e7
   112f8:	3508c900 	ori	t0,t0,0xc900
   112fc:	0510ffeb 	bltzal	t0,112ac <n35_bltzal_test+0x112ac>
   11300:	00000000 	nop
   11304:	10000013 	b	11354 <n35_bltzal_test+0x11354>
   11308:	00000000 	nop
   1130c:	00000000 	nop
   11310:	00000021 	move	zero,zero
   11314:	00000021 	move	zero,zero
   11318:	00000021 	move	zero,zero
   1131c:	00000021 	move	zero,zero
   11320:	00000021 	move	zero,zero
   11324:	00000021 	move	zero,zero
   11328:	00000021 	move	zero,zero
   1132c:	00000021 	move	zero,zero
   11330:	00000021 	move	zero,zero
   11334:	00000021 	move	zero,zero
   11338:	00000021 	move	zero,zero
   1133c:	00000021 	move	zero,zero
   11340:	00000021 	move	zero,zero
   11344:	00000021 	move	zero,zero
   11348:	00000021 	move	zero,zero
   1134c:	3c120d3d 	lui	s2,0xd3d
   11350:	36529b80 	ori	s2,s2,0x9b80
   11354:	001fa021 	addu	s4,zero,ra
   11358:	0015f821 	addu	ra,zero,s5
   1135c:	3c150001 	lui	s5,0x1
   11360:	26b512b4 	addiu	s5,s5,4788
   11364:	3c160001 	lui	s6,0x1
   11368:	26d612fc 	addiu	s6,s6,4860
   1136c:	24180000 	li	t8,0
   11370:	16180421 	bne	s0,t8,123f8 <inst_error>
   11374:	00000000 	nop
   11378:	00000000 	nop
   1137c:	24180000 	li	t8,0
   11380:	1658041d 	bne	s2,t8,123f8 <inst_error>
   11384:	00000000 	nop
   11388:	00000000 	nop
   1138c:	3c19bfc0 	lui	t9,0xbfc0
   11390:	3739a38c 	ori	t9,t9,0xa38c
   11394:	3c18bfc0 	lui	t8,0xbfc0
   11398:	3718a354 	ori	t8,t8,0xa354
   1139c:	27180008 	addiu	t8,t8,8
   113a0:	1319000a 	beq	t8,t9,113cc <n35_bltzal_test+0x113cc>
   113a4:	00000000 	nop
   113a8:	00000000 	nop
   113ac:	3c18bfc0 	lui	t8,0xbfc0
   113b0:	3718a384 	ori	t8,t8,0xa384
   113b4:	27180008 	addiu	t8,t8,8
   113b8:	1319000a 	beq	t8,t9,113e4 <n35_bltzal_test+0x113e4>
   113bc:	00000000 	nop
   113c0:	1000040d 	b	123f8 <inst_error>
   113c4:	00000000 	nop
   113c8:	00000000 	nop
   113cc:	26b50008 	addiu	s5,s5,8
   113d0:	16950409 	bne	s4,s5,123f8 <inst_error>
   113d4:	00000000 	nop
   113d8:	10000006 	b	113f4 <n35_bltzal_test+0x113f4>
   113dc:	00000000 	nop
   113e0:	00000000 	nop
   113e4:	26d60008 	addiu	s6,s6,8
   113e8:	16960403 	bne	s4,s6,123f8 <inst_error>
   113ec:	00000000 	nop
	...
   113f8:	001fa821 	addu	s5,zero,ra
   113fc:	3c0c7299 	lui	t4,0x7299
   11400:	358c68e0 	ori	t4,t4,0x68e0
   11404:	3c0d16e1 	lui	t5,0x16e1
   11408:	35ad3cca 	ori	t5,t5,0x3cca
   1140c:	24100000 	li	s0,0
   11410:	10000014 	b	11464 <n35_bltzal_test+0x11464>
   11414:	24120000 	li	s2,0
   11418:	00000000 	nop
   1141c:	3c107299 	lui	s0,0x7299
   11420:	361068e0 	ori	s0,s0,0x68e0
   11424:	05100025 	bltzal	t0,114bc <n35_bltzal_test+0x114bc>
   11428:	00000000 	nop
   1142c:	10000025 	b	114c4 <n35_bltzal_test+0x114c4>
   11430:	00000000 	nop
   11434:	00000000 	nop
   11438:	00000021 	move	zero,zero
   1143c:	00000021 	move	zero,zero
   11440:	00000021 	move	zero,zero
   11444:	00000021 	move	zero,zero
   11448:	00000021 	move	zero,zero
   1144c:	00000021 	move	zero,zero
   11450:	00000021 	move	zero,zero
   11454:	00000021 	move	zero,zero
   11458:	00000021 	move	zero,zero
   1145c:	00000021 	move	zero,zero
   11460:	00000021 	move	zero,zero
   11464:	3c08f884 	lui	t0,0xf884
   11468:	35081282 	ori	t0,t0,0x1282
   1146c:	0510ffeb 	bltzal	t0,1141c <n35_bltzal_test+0x1141c>
   11470:	00000000 	nop
   11474:	10000013 	b	114c4 <n35_bltzal_test+0x114c4>
   11478:	00000000 	nop
   1147c:	00000000 	nop
   11480:	00000021 	move	zero,zero
   11484:	00000021 	move	zero,zero
   11488:	00000021 	move	zero,zero
   1148c:	00000021 	move	zero,zero
   11490:	00000021 	move	zero,zero
   11494:	00000021 	move	zero,zero
   11498:	00000021 	move	zero,zero
   1149c:	00000021 	move	zero,zero
   114a0:	00000021 	move	zero,zero
   114a4:	00000021 	move	zero,zero
   114a8:	00000021 	move	zero,zero
   114ac:	00000021 	move	zero,zero
   114b0:	00000021 	move	zero,zero
   114b4:	00000021 	move	zero,zero
   114b8:	00000021 	move	zero,zero
   114bc:	3c1216e1 	lui	s2,0x16e1
   114c0:	36523cca 	ori	s2,s2,0x3cca
   114c4:	001fa021 	addu	s4,zero,ra
   114c8:	0015f821 	addu	ra,zero,s5
   114cc:	3c150001 	lui	s5,0x1
   114d0:	26b51424 	addiu	s5,s5,5156
   114d4:	3c160001 	lui	s6,0x1
   114d8:	26d6146c 	addiu	s6,s6,5228
   114dc:	3c187299 	lui	t8,0x7299
   114e0:	371868e0 	ori	t8,t8,0x68e0
   114e4:	161803c4 	bne	s0,t8,123f8 <inst_error>
   114e8:	00000000 	nop
   114ec:	00000000 	nop
   114f0:	3c1816e1 	lui	t8,0x16e1
   114f4:	37183cca 	ori	t8,t8,0x3cca
   114f8:	165803bf 	bne	s2,t8,123f8 <inst_error>
   114fc:	00000000 	nop
   11500:	00000000 	nop
   11504:	3c19bfc0 	lui	t9,0xbfc0
   11508:	3739a434 	ori	t9,t9,0xa434
   1150c:	3c18bfc0 	lui	t8,0xbfc0
   11510:	3718a42c 	ori	t8,t8,0xa42c
   11514:	27180008 	addiu	t8,t8,8
   11518:	1319000a 	beq	t8,t9,11544 <n35_bltzal_test+0x11544>
   1151c:	00000000 	nop
   11520:	00000000 	nop
   11524:	3c18bfc0 	lui	t8,0xbfc0
   11528:	3718a45c 	ori	t8,t8,0xa45c
   1152c:	27180008 	addiu	t8,t8,8
   11530:	1319000a 	beq	t8,t9,1155c <n35_bltzal_test+0x1155c>
   11534:	00000000 	nop
   11538:	100003af 	b	123f8 <inst_error>
   1153c:	00000000 	nop
   11540:	00000000 	nop
   11544:	26b50008 	addiu	s5,s5,8
   11548:	169503ab 	bne	s4,s5,123f8 <inst_error>
   1154c:	00000000 	nop
   11550:	10000006 	b	1156c <n35_bltzal_test+0x1156c>
   11554:	00000000 	nop
   11558:	00000000 	nop
   1155c:	26d60008 	addiu	s6,s6,8
   11560:	169603a5 	bne	s4,s6,123f8 <inst_error>
   11564:	00000000 	nop
	...
   11570:	001fa821 	addu	s5,zero,ra
   11574:	3c0cbc44 	lui	t4,0xbc44
   11578:	358c3ce7 	ori	t4,t4,0x3ce7
   1157c:	3c0dae75 	lui	t5,0xae75
   11580:	35ad6fac 	ori	t5,t5,0x6fac
   11584:	24100000 	li	s0,0
   11588:	10000014 	b	115dc <n35_bltzal_test+0x115dc>
   1158c:	24120000 	li	s2,0
   11590:	00000000 	nop
   11594:	3c10bc44 	lui	s0,0xbc44
   11598:	36103ce7 	ori	s0,s0,0x3ce7
   1159c:	05100025 	bltzal	t0,11634 <n35_bltzal_test+0x11634>
   115a0:	00000000 	nop
   115a4:	10000025 	b	1163c <n35_bltzal_test+0x1163c>
   115a8:	00000000 	nop
   115ac:	00000000 	nop
   115b0:	00000021 	move	zero,zero
   115b4:	00000021 	move	zero,zero
   115b8:	00000021 	move	zero,zero
   115bc:	00000021 	move	zero,zero
   115c0:	00000021 	move	zero,zero
   115c4:	00000021 	move	zero,zero
   115c8:	00000021 	move	zero,zero
   115cc:	00000021 	move	zero,zero
   115d0:	00000021 	move	zero,zero
   115d4:	00000021 	move	zero,zero
   115d8:	00000021 	move	zero,zero
   115dc:	3c08a984 	lui	t0,0xa984
   115e0:	350825f8 	ori	t0,t0,0x25f8
   115e4:	0510ffeb 	bltzal	t0,11594 <n35_bltzal_test+0x11594>
   115e8:	00000000 	nop
   115ec:	10000013 	b	1163c <n35_bltzal_test+0x1163c>
   115f0:	00000000 	nop
   115f4:	00000000 	nop
   115f8:	00000021 	move	zero,zero
   115fc:	00000021 	move	zero,zero
   11600:	00000021 	move	zero,zero
   11604:	00000021 	move	zero,zero
   11608:	00000021 	move	zero,zero
   1160c:	00000021 	move	zero,zero
   11610:	00000021 	move	zero,zero
   11614:	00000021 	move	zero,zero
   11618:	00000021 	move	zero,zero
   1161c:	00000021 	move	zero,zero
   11620:	00000021 	move	zero,zero
   11624:	00000021 	move	zero,zero
   11628:	00000021 	move	zero,zero
   1162c:	00000021 	move	zero,zero
   11630:	00000021 	move	zero,zero
   11634:	3c12ae75 	lui	s2,0xae75
   11638:	36526fac 	ori	s2,s2,0x6fac
   1163c:	001fa021 	addu	s4,zero,ra
   11640:	0015f821 	addu	ra,zero,s5
   11644:	3c150001 	lui	s5,0x1
   11648:	26b5159c 	addiu	s5,s5,5532
   1164c:	3c160001 	lui	s6,0x1
   11650:	26d615e4 	addiu	s6,s6,5604
   11654:	3c18bc44 	lui	t8,0xbc44
   11658:	37183ce7 	ori	t8,t8,0x3ce7
   1165c:	16180366 	bne	s0,t8,123f8 <inst_error>
   11660:	00000000 	nop
   11664:	00000000 	nop
   11668:	3c18ae75 	lui	t8,0xae75
   1166c:	37186fac 	ori	t8,t8,0x6fac
   11670:	16580361 	bne	s2,t8,123f8 <inst_error>
   11674:	00000000 	nop
   11678:	00000000 	nop
   1167c:	3c19bfc0 	lui	t9,0xbfc0
   11680:	3739a50c 	ori	t9,t9,0xa50c
   11684:	3c18bfc0 	lui	t8,0xbfc0
   11688:	3718a504 	ori	t8,t8,0xa504
   1168c:	27180008 	addiu	t8,t8,8
   11690:	1319000a 	beq	t8,t9,116bc <n35_bltzal_test+0x116bc>
   11694:	00000000 	nop
   11698:	00000000 	nop
   1169c:	3c18bfc0 	lui	t8,0xbfc0
   116a0:	3718a534 	ori	t8,t8,0xa534
   116a4:	27180008 	addiu	t8,t8,8
   116a8:	1319000a 	beq	t8,t9,116d4 <n35_bltzal_test+0x116d4>
   116ac:	00000000 	nop
   116b0:	10000351 	b	123f8 <inst_error>
   116b4:	00000000 	nop
   116b8:	00000000 	nop
   116bc:	26b50008 	addiu	s5,s5,8
   116c0:	1695034d 	bne	s4,s5,123f8 <inst_error>
   116c4:	00000000 	nop
   116c8:	10000006 	b	116e4 <n35_bltzal_test+0x116e4>
   116cc:	00000000 	nop
   116d0:	00000000 	nop
   116d4:	26d60008 	addiu	s6,s6,8
   116d8:	16960347 	bne	s4,s6,123f8 <inst_error>
   116dc:	00000000 	nop
	...
   116e8:	001fa821 	addu	s5,zero,ra
   116ec:	3c0c1afd 	lui	t4,0x1afd
   116f0:	358ccbfa 	ori	t4,t4,0xcbfa
   116f4:	3c0d9ccd 	lui	t5,0x9ccd
   116f8:	35ade33e 	ori	t5,t5,0xe33e
   116fc:	24100000 	li	s0,0
   11700:	10000014 	b	11754 <n35_bltzal_test+0x11754>
   11704:	24120000 	li	s2,0
   11708:	00000000 	nop
   1170c:	3c101afd 	lui	s0,0x1afd
   11710:	3610cbfa 	ori	s0,s0,0xcbfa
   11714:	05100025 	bltzal	t0,117ac <n35_bltzal_test+0x117ac>
   11718:	00000000 	nop
   1171c:	10000025 	b	117b4 <n35_bltzal_test+0x117b4>
   11720:	00000000 	nop
   11724:	00000000 	nop
   11728:	00000021 	move	zero,zero
   1172c:	00000021 	move	zero,zero
   11730:	00000021 	move	zero,zero
   11734:	00000021 	move	zero,zero
   11738:	00000021 	move	zero,zero
   1173c:	00000021 	move	zero,zero
   11740:	00000021 	move	zero,zero
   11744:	00000021 	move	zero,zero
   11748:	00000021 	move	zero,zero
   1174c:	00000021 	move	zero,zero
   11750:	00000021 	move	zero,zero
   11754:	3c086c1f 	lui	t0,0x6c1f
   11758:	35080d47 	ori	t0,t0,0xd47
   1175c:	0510ffeb 	bltzal	t0,1170c <n35_bltzal_test+0x1170c>
   11760:	00000000 	nop
   11764:	10000013 	b	117b4 <n35_bltzal_test+0x117b4>
   11768:	00000000 	nop
   1176c:	00000000 	nop
   11770:	00000021 	move	zero,zero
   11774:	00000021 	move	zero,zero
   11778:	00000021 	move	zero,zero
   1177c:	00000021 	move	zero,zero
   11780:	00000021 	move	zero,zero
   11784:	00000021 	move	zero,zero
   11788:	00000021 	move	zero,zero
   1178c:	00000021 	move	zero,zero
   11790:	00000021 	move	zero,zero
   11794:	00000021 	move	zero,zero
   11798:	00000021 	move	zero,zero
   1179c:	00000021 	move	zero,zero
   117a0:	00000021 	move	zero,zero
   117a4:	00000021 	move	zero,zero
   117a8:	00000021 	move	zero,zero
   117ac:	3c129ccd 	lui	s2,0x9ccd
   117b0:	3652e33e 	ori	s2,s2,0xe33e
   117b4:	001fa021 	addu	s4,zero,ra
   117b8:	0015f821 	addu	ra,zero,s5
   117bc:	3c150001 	lui	s5,0x1
   117c0:	26b51714 	addiu	s5,s5,5908
   117c4:	3c160001 	lui	s6,0x1
   117c8:	26d6175c 	addiu	s6,s6,5980
   117cc:	24180000 	li	t8,0
   117d0:	16180309 	bne	s0,t8,123f8 <inst_error>
   117d4:	00000000 	nop
   117d8:	00000000 	nop
   117dc:	24180000 	li	t8,0
   117e0:	16580305 	bne	s2,t8,123f8 <inst_error>
   117e4:	00000000 	nop
   117e8:	00000000 	nop
   117ec:	3c19bfc0 	lui	t9,0xbfc0
   117f0:	3739a614 	ori	t9,t9,0xa614
   117f4:	3c18bfc0 	lui	t8,0xbfc0
   117f8:	3718a5dc 	ori	t8,t8,0xa5dc
   117fc:	27180008 	addiu	t8,t8,8
   11800:	1319000a 	beq	t8,t9,1182c <n35_bltzal_test+0x1182c>
   11804:	00000000 	nop
   11808:	00000000 	nop
   1180c:	3c18bfc0 	lui	t8,0xbfc0
   11810:	3718a60c 	ori	t8,t8,0xa60c
   11814:	27180008 	addiu	t8,t8,8
   11818:	1319000a 	beq	t8,t9,11844 <n35_bltzal_test+0x11844>
   1181c:	00000000 	nop
   11820:	100002f5 	b	123f8 <inst_error>
   11824:	00000000 	nop
   11828:	00000000 	nop
   1182c:	26b50008 	addiu	s5,s5,8
   11830:	169502f1 	bne	s4,s5,123f8 <inst_error>
   11834:	00000000 	nop
   11838:	10000006 	b	11854 <n35_bltzal_test+0x11854>
   1183c:	00000000 	nop
   11840:	00000000 	nop
   11844:	26d60008 	addiu	s6,s6,8
   11848:	169602eb 	bne	s4,s6,123f8 <inst_error>
   1184c:	00000000 	nop
	...
   11858:	001fa821 	addu	s5,zero,ra
   1185c:	3c0c8954 	lui	t4,0x8954
   11860:	358cbe60 	ori	t4,t4,0xbe60
   11864:	3c0d82ec 	lui	t5,0x82ec
   11868:	35ad2818 	ori	t5,t5,0x2818
   1186c:	24100000 	li	s0,0
   11870:	10000014 	b	118c4 <n35_bltzal_test+0x118c4>
   11874:	24120000 	li	s2,0
   11878:	00000000 	nop
   1187c:	3c108954 	lui	s0,0x8954
   11880:	3610be60 	ori	s0,s0,0xbe60
   11884:	05100025 	bltzal	t0,1191c <n35_bltzal_test+0x1191c>
   11888:	00000000 	nop
   1188c:	10000025 	b	11924 <n35_bltzal_test+0x11924>
   11890:	00000000 	nop
   11894:	00000000 	nop
   11898:	00000021 	move	zero,zero
   1189c:	00000021 	move	zero,zero
   118a0:	00000021 	move	zero,zero
   118a4:	00000021 	move	zero,zero
   118a8:	00000021 	move	zero,zero
   118ac:	00000021 	move	zero,zero
   118b0:	00000021 	move	zero,zero
   118b4:	00000021 	move	zero,zero
   118b8:	00000021 	move	zero,zero
   118bc:	00000021 	move	zero,zero
   118c0:	00000021 	move	zero,zero
   118c4:	3c08fcf9 	lui	t0,0xfcf9
   118c8:	350850ca 	ori	t0,t0,0x50ca
   118cc:	0510ffeb 	bltzal	t0,1187c <n35_bltzal_test+0x1187c>
   118d0:	00000000 	nop
   118d4:	10000013 	b	11924 <n35_bltzal_test+0x11924>
   118d8:	00000000 	nop
   118dc:	00000000 	nop
   118e0:	00000021 	move	zero,zero
   118e4:	00000021 	move	zero,zero
   118e8:	00000021 	move	zero,zero
   118ec:	00000021 	move	zero,zero
   118f0:	00000021 	move	zero,zero
   118f4:	00000021 	move	zero,zero
   118f8:	00000021 	move	zero,zero
   118fc:	00000021 	move	zero,zero
   11900:	00000021 	move	zero,zero
   11904:	00000021 	move	zero,zero
   11908:	00000021 	move	zero,zero
   1190c:	00000021 	move	zero,zero
   11910:	00000021 	move	zero,zero
   11914:	00000021 	move	zero,zero
   11918:	00000021 	move	zero,zero
   1191c:	3c1282ec 	lui	s2,0x82ec
   11920:	36522818 	ori	s2,s2,0x2818
   11924:	001fa021 	addu	s4,zero,ra
   11928:	0015f821 	addu	ra,zero,s5
   1192c:	3c150001 	lui	s5,0x1
   11930:	26b51884 	addiu	s5,s5,6276
   11934:	3c160001 	lui	s6,0x1
   11938:	26d618cc 	addiu	s6,s6,6348
   1193c:	3c188954 	lui	t8,0x8954
   11940:	3718be60 	ori	t8,t8,0xbe60
   11944:	161802ac 	bne	s0,t8,123f8 <inst_error>
   11948:	00000000 	nop
   1194c:	00000000 	nop
   11950:	3c1882ec 	lui	t8,0x82ec
   11954:	37182818 	ori	t8,t8,0x2818
   11958:	165802a7 	bne	s2,t8,123f8 <inst_error>
   1195c:	00000000 	nop
   11960:	00000000 	nop
   11964:	3c19bfc0 	lui	t9,0xbfc0
   11968:	3739a6bc 	ori	t9,t9,0xa6bc
   1196c:	3c18bfc0 	lui	t8,0xbfc0
   11970:	3718a6b4 	ori	t8,t8,0xa6b4
   11974:	27180008 	addiu	t8,t8,8
   11978:	1319000a 	beq	t8,t9,119a4 <n35_bltzal_test+0x119a4>
   1197c:	00000000 	nop
   11980:	00000000 	nop
   11984:	3c18bfc0 	lui	t8,0xbfc0
   11988:	3718a6e4 	ori	t8,t8,0xa6e4
   1198c:	27180008 	addiu	t8,t8,8
   11990:	1319000a 	beq	t8,t9,119bc <n35_bltzal_test+0x119bc>
   11994:	00000000 	nop
   11998:	10000297 	b	123f8 <inst_error>
   1199c:	00000000 	nop
   119a0:	00000000 	nop
   119a4:	26b50008 	addiu	s5,s5,8
   119a8:	16950293 	bne	s4,s5,123f8 <inst_error>
   119ac:	00000000 	nop
   119b0:	10000006 	b	119cc <n35_bltzal_test+0x119cc>
   119b4:	00000000 	nop
   119b8:	00000000 	nop
   119bc:	26d60008 	addiu	s6,s6,8
   119c0:	1696028d 	bne	s4,s6,123f8 <inst_error>
   119c4:	00000000 	nop
	...
   119d0:	001fa821 	addu	s5,zero,ra
   119d4:	3c0cb115 	lui	t4,0xb115
   119d8:	358c1634 	ori	t4,t4,0x1634
   119dc:	3c0da1cb 	lui	t5,0xa1cb
   119e0:	35ad0328 	ori	t5,t5,0x328
   119e4:	24100000 	li	s0,0
   119e8:	10000014 	b	11a3c <n35_bltzal_test+0x11a3c>
   119ec:	24120000 	li	s2,0
   119f0:	00000000 	nop
   119f4:	3c10b115 	lui	s0,0xb115
   119f8:	36101634 	ori	s0,s0,0x1634
   119fc:	05100025 	bltzal	t0,11a94 <n35_bltzal_test+0x11a94>
   11a00:	00000000 	nop
   11a04:	10000025 	b	11a9c <n35_bltzal_test+0x11a9c>
   11a08:	00000000 	nop
   11a0c:	00000000 	nop
   11a10:	00000021 	move	zero,zero
   11a14:	00000021 	move	zero,zero
   11a18:	00000021 	move	zero,zero
   11a1c:	00000021 	move	zero,zero
   11a20:	00000021 	move	zero,zero
   11a24:	00000021 	move	zero,zero
   11a28:	00000021 	move	zero,zero
   11a2c:	00000021 	move	zero,zero
   11a30:	00000021 	move	zero,zero
   11a34:	00000021 	move	zero,zero
   11a38:	00000021 	move	zero,zero
   11a3c:	3c0874f5 	lui	t0,0x74f5
   11a40:	350824b2 	ori	t0,t0,0x24b2
   11a44:	0510ffeb 	bltzal	t0,119f4 <n35_bltzal_test+0x119f4>
   11a48:	00000000 	nop
   11a4c:	10000013 	b	11a9c <n35_bltzal_test+0x11a9c>
   11a50:	00000000 	nop
   11a54:	00000000 	nop
   11a58:	00000021 	move	zero,zero
   11a5c:	00000021 	move	zero,zero
   11a60:	00000021 	move	zero,zero
   11a64:	00000021 	move	zero,zero
   11a68:	00000021 	move	zero,zero
   11a6c:	00000021 	move	zero,zero
   11a70:	00000021 	move	zero,zero
   11a74:	00000021 	move	zero,zero
   11a78:	00000021 	move	zero,zero
   11a7c:	00000021 	move	zero,zero
   11a80:	00000021 	move	zero,zero
   11a84:	00000021 	move	zero,zero
   11a88:	00000021 	move	zero,zero
   11a8c:	00000021 	move	zero,zero
   11a90:	00000021 	move	zero,zero
   11a94:	3c12a1cb 	lui	s2,0xa1cb
   11a98:	36520328 	ori	s2,s2,0x328
   11a9c:	001fa021 	addu	s4,zero,ra
   11aa0:	0015f821 	addu	ra,zero,s5
   11aa4:	3c150001 	lui	s5,0x1
   11aa8:	26b519fc 	addiu	s5,s5,6652
   11aac:	3c160001 	lui	s6,0x1
   11ab0:	26d61a44 	addiu	s6,s6,6724
   11ab4:	24180000 	li	t8,0
   11ab8:	1618024f 	bne	s0,t8,123f8 <inst_error>
   11abc:	00000000 	nop
   11ac0:	00000000 	nop
   11ac4:	24180000 	li	t8,0
   11ac8:	1658024b 	bne	s2,t8,123f8 <inst_error>
   11acc:	00000000 	nop
   11ad0:	00000000 	nop
   11ad4:	3c19bfc0 	lui	t9,0xbfc0
   11ad8:	3739a7c4 	ori	t9,t9,0xa7c4
   11adc:	3c18bfc0 	lui	t8,0xbfc0
   11ae0:	3718a78c 	ori	t8,t8,0xa78c
   11ae4:	27180008 	addiu	t8,t8,8
   11ae8:	1319000a 	beq	t8,t9,11b14 <n35_bltzal_test+0x11b14>
   11aec:	00000000 	nop
   11af0:	00000000 	nop
   11af4:	3c18bfc0 	lui	t8,0xbfc0
   11af8:	3718a7bc 	ori	t8,t8,0xa7bc
   11afc:	27180008 	addiu	t8,t8,8
   11b00:	1319000a 	beq	t8,t9,11b2c <n35_bltzal_test+0x11b2c>
   11b04:	00000000 	nop
   11b08:	1000023b 	b	123f8 <inst_error>
   11b0c:	00000000 	nop
   11b10:	00000000 	nop
   11b14:	26b50008 	addiu	s5,s5,8
   11b18:	16950237 	bne	s4,s5,123f8 <inst_error>
   11b1c:	00000000 	nop
   11b20:	10000006 	b	11b3c <n35_bltzal_test+0x11b3c>
   11b24:	00000000 	nop
   11b28:	00000000 	nop
   11b2c:	26d60008 	addiu	s6,s6,8
   11b30:	16960231 	bne	s4,s6,123f8 <inst_error>
   11b34:	00000000 	nop
	...
   11b40:	001fa821 	addu	s5,zero,ra
   11b44:	3c0c2a1a 	lui	t4,0x2a1a
   11b48:	358c3688 	ori	t4,t4,0x3688
   11b4c:	3c0dea2b 	lui	t5,0xea2b
   11b50:	35adb980 	ori	t5,t5,0xb980
   11b54:	24100000 	li	s0,0
   11b58:	10000014 	b	11bac <n35_bltzal_test+0x11bac>
   11b5c:	24120000 	li	s2,0
   11b60:	00000000 	nop
   11b64:	3c102a1a 	lui	s0,0x2a1a
   11b68:	36103688 	ori	s0,s0,0x3688
   11b6c:	05100025 	bltzal	t0,11c04 <n35_bltzal_test+0x11c04>
   11b70:	00000000 	nop
   11b74:	10000025 	b	11c0c <n35_bltzal_test+0x11c0c>
   11b78:	00000000 	nop
   11b7c:	00000000 	nop
   11b80:	00000021 	move	zero,zero
   11b84:	00000021 	move	zero,zero
   11b88:	00000021 	move	zero,zero
   11b8c:	00000021 	move	zero,zero
   11b90:	00000021 	move	zero,zero
   11b94:	00000021 	move	zero,zero
   11b98:	00000021 	move	zero,zero
   11b9c:	00000021 	move	zero,zero
   11ba0:	00000021 	move	zero,zero
   11ba4:	00000021 	move	zero,zero
   11ba8:	00000021 	move	zero,zero
   11bac:	3c08c9bc 	lui	t0,0xc9bc
   11bb0:	3508a1a8 	ori	t0,t0,0xa1a8
   11bb4:	0510ffeb 	bltzal	t0,11b64 <n35_bltzal_test+0x11b64>
   11bb8:	00000000 	nop
   11bbc:	10000013 	b	11c0c <n35_bltzal_test+0x11c0c>
   11bc0:	00000000 	nop
   11bc4:	00000000 	nop
   11bc8:	00000021 	move	zero,zero
   11bcc:	00000021 	move	zero,zero
   11bd0:	00000021 	move	zero,zero
   11bd4:	00000021 	move	zero,zero
   11bd8:	00000021 	move	zero,zero
   11bdc:	00000021 	move	zero,zero
   11be0:	00000021 	move	zero,zero
   11be4:	00000021 	move	zero,zero
   11be8:	00000021 	move	zero,zero
   11bec:	00000021 	move	zero,zero
   11bf0:	00000021 	move	zero,zero
   11bf4:	00000021 	move	zero,zero
   11bf8:	00000021 	move	zero,zero
   11bfc:	00000021 	move	zero,zero
   11c00:	00000021 	move	zero,zero
   11c04:	3c12ea2b 	lui	s2,0xea2b
   11c08:	3652b980 	ori	s2,s2,0xb980
   11c0c:	001fa021 	addu	s4,zero,ra
   11c10:	0015f821 	addu	ra,zero,s5
   11c14:	3c150001 	lui	s5,0x1
   11c18:	26b51b6c 	addiu	s5,s5,7020
   11c1c:	3c160001 	lui	s6,0x1
   11c20:	26d61bb4 	addiu	s6,s6,7092
   11c24:	3c182a1a 	lui	t8,0x2a1a
   11c28:	37183688 	ori	t8,t8,0x3688
   11c2c:	161801f2 	bne	s0,t8,123f8 <inst_error>
   11c30:	00000000 	nop
   11c34:	00000000 	nop
   11c38:	3c18ea2b 	lui	t8,0xea2b
   11c3c:	3718b980 	ori	t8,t8,0xb980
   11c40:	165801ed 	bne	s2,t8,123f8 <inst_error>
   11c44:	00000000 	nop
   11c48:	00000000 	nop
   11c4c:	3c19bfc0 	lui	t9,0xbfc0
   11c50:	3739a86c 	ori	t9,t9,0xa86c
   11c54:	3c18bfc0 	lui	t8,0xbfc0
   11c58:	3718a864 	ori	t8,t8,0xa864
   11c5c:	27180008 	addiu	t8,t8,8
   11c60:	1319000a 	beq	t8,t9,11c8c <n35_bltzal_test+0x11c8c>
   11c64:	00000000 	nop
   11c68:	00000000 	nop
   11c6c:	3c18bfc0 	lui	t8,0xbfc0
   11c70:	3718a894 	ori	t8,t8,0xa894
   11c74:	27180008 	addiu	t8,t8,8
   11c78:	1319000a 	beq	t8,t9,11ca4 <n35_bltzal_test+0x11ca4>
   11c7c:	00000000 	nop
   11c80:	100001dd 	b	123f8 <inst_error>
   11c84:	00000000 	nop
   11c88:	00000000 	nop
   11c8c:	26b50008 	addiu	s5,s5,8
   11c90:	169501d9 	bne	s4,s5,123f8 <inst_error>
   11c94:	00000000 	nop
   11c98:	10000006 	b	11cb4 <n35_bltzal_test+0x11cb4>
   11c9c:	00000000 	nop
   11ca0:	00000000 	nop
   11ca4:	26d60008 	addiu	s6,s6,8
   11ca8:	169601d3 	bne	s4,s6,123f8 <inst_error>
   11cac:	00000000 	nop
	...
   11cb8:	001fa821 	addu	s5,zero,ra
   11cbc:	3c0c5604 	lui	t4,0x5604
   11cc0:	358c09a8 	ori	t4,t4,0x9a8
   11cc4:	3c0d5df8 	lui	t5,0x5df8
   11cc8:	35ad3060 	ori	t5,t5,0x3060
   11ccc:	24100000 	li	s0,0
   11cd0:	10000014 	b	11d24 <n35_bltzal_test+0x11d24>
   11cd4:	24120000 	li	s2,0
   11cd8:	00000000 	nop
   11cdc:	3c105604 	lui	s0,0x5604
   11ce0:	361009a8 	ori	s0,s0,0x9a8
   11ce4:	05100025 	bltzal	t0,11d7c <n35_bltzal_test+0x11d7c>
   11ce8:	00000000 	nop
   11cec:	10000025 	b	11d84 <n35_bltzal_test+0x11d84>
   11cf0:	00000000 	nop
   11cf4:	00000000 	nop
   11cf8:	00000021 	move	zero,zero
   11cfc:	00000021 	move	zero,zero
   11d00:	00000021 	move	zero,zero
   11d04:	00000021 	move	zero,zero
   11d08:	00000021 	move	zero,zero
   11d0c:	00000021 	move	zero,zero
   11d10:	00000021 	move	zero,zero
   11d14:	00000021 	move	zero,zero
   11d18:	00000021 	move	zero,zero
   11d1c:	00000021 	move	zero,zero
   11d20:	00000021 	move	zero,zero
   11d24:	3c084f8b 	lui	t0,0x4f8b
   11d28:	35081162 	ori	t0,t0,0x1162
   11d2c:	0510ffeb 	bltzal	t0,11cdc <n35_bltzal_test+0x11cdc>
   11d30:	00000000 	nop
   11d34:	10000013 	b	11d84 <n35_bltzal_test+0x11d84>
   11d38:	00000000 	nop
   11d3c:	00000000 	nop
   11d40:	00000021 	move	zero,zero
   11d44:	00000021 	move	zero,zero
   11d48:	00000021 	move	zero,zero
   11d4c:	00000021 	move	zero,zero
   11d50:	00000021 	move	zero,zero
   11d54:	00000021 	move	zero,zero
   11d58:	00000021 	move	zero,zero
   11d5c:	00000021 	move	zero,zero
   11d60:	00000021 	move	zero,zero
   11d64:	00000021 	move	zero,zero
   11d68:	00000021 	move	zero,zero
   11d6c:	00000021 	move	zero,zero
   11d70:	00000021 	move	zero,zero
   11d74:	00000021 	move	zero,zero
   11d78:	00000021 	move	zero,zero
   11d7c:	3c125df8 	lui	s2,0x5df8
   11d80:	36523060 	ori	s2,s2,0x3060
   11d84:	001fa021 	addu	s4,zero,ra
   11d88:	0015f821 	addu	ra,zero,s5
   11d8c:	3c150001 	lui	s5,0x1
   11d90:	26b51ce4 	addiu	s5,s5,7396
   11d94:	3c160001 	lui	s6,0x1
   11d98:	26d61d2c 	addiu	s6,s6,7468
   11d9c:	24180000 	li	t8,0
   11da0:	16180195 	bne	s0,t8,123f8 <inst_error>
   11da4:	00000000 	nop
   11da8:	00000000 	nop
   11dac:	24180000 	li	t8,0
   11db0:	16580191 	bne	s2,t8,123f8 <inst_error>
   11db4:	00000000 	nop
   11db8:	00000000 	nop
   11dbc:	3c19bfc0 	lui	t9,0xbfc0
   11dc0:	3739a974 	ori	t9,t9,0xa974
   11dc4:	3c18bfc0 	lui	t8,0xbfc0
   11dc8:	3718a93c 	ori	t8,t8,0xa93c
   11dcc:	27180008 	addiu	t8,t8,8
   11dd0:	1319000a 	beq	t8,t9,11dfc <n35_bltzal_test+0x11dfc>
   11dd4:	00000000 	nop
   11dd8:	00000000 	nop
   11ddc:	3c18bfc0 	lui	t8,0xbfc0
   11de0:	3718a96c 	ori	t8,t8,0xa96c
   11de4:	27180008 	addiu	t8,t8,8
   11de8:	1319000a 	beq	t8,t9,11e14 <n35_bltzal_test+0x11e14>
   11dec:	00000000 	nop
   11df0:	10000181 	b	123f8 <inst_error>
   11df4:	00000000 	nop
   11df8:	00000000 	nop
   11dfc:	26b50008 	addiu	s5,s5,8
   11e00:	1695017d 	bne	s4,s5,123f8 <inst_error>
   11e04:	00000000 	nop
   11e08:	10000006 	b	11e24 <n35_bltzal_test+0x11e24>
   11e0c:	00000000 	nop
   11e10:	00000000 	nop
   11e14:	26d60008 	addiu	s6,s6,8
   11e18:	16960177 	bne	s4,s6,123f8 <inst_error>
   11e1c:	00000000 	nop
	...
   11e28:	001fa821 	addu	s5,zero,ra
   11e2c:	3c0cff65 	lui	t4,0xff65
   11e30:	358c5f88 	ori	t4,t4,0x5f88
   11e34:	3c0de7eb 	lui	t5,0xe7eb
   11e38:	35ad1ef4 	ori	t5,t5,0x1ef4
   11e3c:	24100000 	li	s0,0
   11e40:	10000014 	b	11e94 <n35_bltzal_test+0x11e94>
   11e44:	24120000 	li	s2,0
   11e48:	00000000 	nop
   11e4c:	3c10ff65 	lui	s0,0xff65
   11e50:	36105f88 	ori	s0,s0,0x5f88
   11e54:	05100025 	bltzal	t0,11eec <n35_bltzal_test+0x11eec>
   11e58:	00000000 	nop
   11e5c:	10000025 	b	11ef4 <n35_bltzal_test+0x11ef4>
   11e60:	00000000 	nop
   11e64:	00000000 	nop
   11e68:	00000021 	move	zero,zero
   11e6c:	00000021 	move	zero,zero
   11e70:	00000021 	move	zero,zero
   11e74:	00000021 	move	zero,zero
   11e78:	00000021 	move	zero,zero
   11e7c:	00000021 	move	zero,zero
   11e80:	00000021 	move	zero,zero
   11e84:	00000021 	move	zero,zero
   11e88:	00000021 	move	zero,zero
   11e8c:	00000021 	move	zero,zero
   11e90:	00000021 	move	zero,zero
   11e94:	3c0800db 	lui	t0,0xdb
   11e98:	3508a000 	ori	t0,t0,0xa000
   11e9c:	0510ffeb 	bltzal	t0,11e4c <n35_bltzal_test+0x11e4c>
   11ea0:	00000000 	nop
   11ea4:	10000013 	b	11ef4 <n35_bltzal_test+0x11ef4>
   11ea8:	00000000 	nop
   11eac:	00000000 	nop
   11eb0:	00000021 	move	zero,zero
   11eb4:	00000021 	move	zero,zero
   11eb8:	00000021 	move	zero,zero
   11ebc:	00000021 	move	zero,zero
   11ec0:	00000021 	move	zero,zero
   11ec4:	00000021 	move	zero,zero
   11ec8:	00000021 	move	zero,zero
   11ecc:	00000021 	move	zero,zero
   11ed0:	00000021 	move	zero,zero
   11ed4:	00000021 	move	zero,zero
   11ed8:	00000021 	move	zero,zero
   11edc:	00000021 	move	zero,zero
   11ee0:	00000021 	move	zero,zero
   11ee4:	00000021 	move	zero,zero
   11ee8:	00000021 	move	zero,zero
   11eec:	3c12e7eb 	lui	s2,0xe7eb
   11ef0:	36521ef4 	ori	s2,s2,0x1ef4
   11ef4:	001fa021 	addu	s4,zero,ra
   11ef8:	0015f821 	addu	ra,zero,s5
   11efc:	3c150001 	lui	s5,0x1
   11f00:	26b51e54 	addiu	s5,s5,7764
   11f04:	3c160001 	lui	s6,0x1
   11f08:	26d61e9c 	addiu	s6,s6,7836
   11f0c:	24180000 	li	t8,0
   11f10:	16180139 	bne	s0,t8,123f8 <inst_error>
   11f14:	00000000 	nop
   11f18:	00000000 	nop
   11f1c:	24180000 	li	t8,0
   11f20:	16580135 	bne	s2,t8,123f8 <inst_error>
   11f24:	00000000 	nop
   11f28:	00000000 	nop
   11f2c:	3c19bfc0 	lui	t9,0xbfc0
   11f30:	3739aa4c 	ori	t9,t9,0xaa4c
   11f34:	3c18bfc0 	lui	t8,0xbfc0
   11f38:	3718aa14 	ori	t8,t8,0xaa14
   11f3c:	27180008 	addiu	t8,t8,8
   11f40:	1319000a 	beq	t8,t9,11f6c <n35_bltzal_test+0x11f6c>
   11f44:	00000000 	nop
   11f48:	00000000 	nop
   11f4c:	3c18bfc0 	lui	t8,0xbfc0
   11f50:	3718aa44 	ori	t8,t8,0xaa44
   11f54:	27180008 	addiu	t8,t8,8
   11f58:	1319000a 	beq	t8,t9,11f84 <n35_bltzal_test+0x11f84>
   11f5c:	00000000 	nop
   11f60:	10000125 	b	123f8 <inst_error>
   11f64:	00000000 	nop
   11f68:	00000000 	nop
   11f6c:	26b50008 	addiu	s5,s5,8
   11f70:	16950121 	bne	s4,s5,123f8 <inst_error>
   11f74:	00000000 	nop
   11f78:	10000006 	b	11f94 <n35_bltzal_test+0x11f94>
   11f7c:	00000000 	nop
   11f80:	00000000 	nop
   11f84:	26d60008 	addiu	s6,s6,8
   11f88:	1696011b 	bne	s4,s6,123f8 <inst_error>
   11f8c:	00000000 	nop
	...
   11f98:	001fa821 	addu	s5,zero,ra
   11f9c:	3c0c92b6 	lui	t4,0x92b6
   11fa0:	358c4a0c 	ori	t4,t4,0x4a0c
   11fa4:	3c0de866 	lui	t5,0xe866
   11fa8:	35ad9a08 	ori	t5,t5,0x9a08
   11fac:	24100000 	li	s0,0
   11fb0:	10000014 	b	12004 <n35_bltzal_test+0x12004>
   11fb4:	24120000 	li	s2,0
   11fb8:	00000000 	nop
   11fbc:	3c1092b6 	lui	s0,0x92b6
   11fc0:	36104a0c 	ori	s0,s0,0x4a0c
   11fc4:	05100025 	bltzal	t0,1205c <n35_bltzal_test+0x1205c>
   11fc8:	00000000 	nop
   11fcc:	10000025 	b	12064 <n35_bltzal_test+0x12064>
   11fd0:	00000000 	nop
   11fd4:	00000000 	nop
   11fd8:	00000021 	move	zero,zero
   11fdc:	00000021 	move	zero,zero
   11fe0:	00000021 	move	zero,zero
   11fe4:	00000021 	move	zero,zero
   11fe8:	00000021 	move	zero,zero
   11fec:	00000021 	move	zero,zero
   11ff0:	00000021 	move	zero,zero
   11ff4:	00000021 	move	zero,zero
   11ff8:	00000021 	move	zero,zero
   11ffc:	00000021 	move	zero,zero
   12000:	00000021 	move	zero,zero
   12004:	3c08a199 	lui	t0,0xa199
   12008:	3508561e 	ori	t0,t0,0x561e
   1200c:	0510ffeb 	bltzal	t0,11fbc <n35_bltzal_test+0x11fbc>
   12010:	00000000 	nop
   12014:	10000013 	b	12064 <n35_bltzal_test+0x12064>
   12018:	00000000 	nop
   1201c:	00000000 	nop
   12020:	00000021 	move	zero,zero
   12024:	00000021 	move	zero,zero
   12028:	00000021 	move	zero,zero
   1202c:	00000021 	move	zero,zero
   12030:	00000021 	move	zero,zero
   12034:	00000021 	move	zero,zero
   12038:	00000021 	move	zero,zero
   1203c:	00000021 	move	zero,zero
   12040:	00000021 	move	zero,zero
   12044:	00000021 	move	zero,zero
   12048:	00000021 	move	zero,zero
   1204c:	00000021 	move	zero,zero
   12050:	00000021 	move	zero,zero
   12054:	00000021 	move	zero,zero
   12058:	00000021 	move	zero,zero
   1205c:	3c12e866 	lui	s2,0xe866
   12060:	36529a08 	ori	s2,s2,0x9a08
   12064:	001fa021 	addu	s4,zero,ra
   12068:	0015f821 	addu	ra,zero,s5
   1206c:	3c150001 	lui	s5,0x1
   12070:	26b51fc4 	addiu	s5,s5,8132
   12074:	3c160001 	lui	s6,0x1
   12078:	26d6200c 	addiu	s6,s6,8204
   1207c:	3c1892b6 	lui	t8,0x92b6
   12080:	37184a0c 	ori	t8,t8,0x4a0c
   12084:	161800dc 	bne	s0,t8,123f8 <inst_error>
   12088:	00000000 	nop
   1208c:	00000000 	nop
   12090:	3c18e866 	lui	t8,0xe866
   12094:	37189a08 	ori	t8,t8,0x9a08
   12098:	165800d7 	bne	s2,t8,123f8 <inst_error>
   1209c:	00000000 	nop
   120a0:	00000000 	nop
   120a4:	3c19bfc0 	lui	t9,0xbfc0
   120a8:	3739aaf4 	ori	t9,t9,0xaaf4
   120ac:	3c18bfc0 	lui	t8,0xbfc0
   120b0:	3718aaec 	ori	t8,t8,0xaaec
   120b4:	27180008 	addiu	t8,t8,8
   120b8:	1319000a 	beq	t8,t9,120e4 <n35_bltzal_test+0x120e4>
   120bc:	00000000 	nop
   120c0:	00000000 	nop
   120c4:	3c18bfc0 	lui	t8,0xbfc0
   120c8:	3718ab1c 	ori	t8,t8,0xab1c
   120cc:	27180008 	addiu	t8,t8,8
   120d0:	1319000a 	beq	t8,t9,120fc <n35_bltzal_test+0x120fc>
   120d4:	00000000 	nop
   120d8:	100000c7 	b	123f8 <inst_error>
   120dc:	00000000 	nop
   120e0:	00000000 	nop
   120e4:	26b50008 	addiu	s5,s5,8
   120e8:	169500c3 	bne	s4,s5,123f8 <inst_error>
   120ec:	00000000 	nop
   120f0:	10000006 	b	1210c <n35_bltzal_test+0x1210c>
   120f4:	00000000 	nop
   120f8:	00000000 	nop
   120fc:	26d60008 	addiu	s6,s6,8
   12100:	169600bd 	bne	s4,s6,123f8 <inst_error>
   12104:	00000000 	nop
	...
   12110:	001fa821 	addu	s5,zero,ra
   12114:	3c0cd7a5 	lui	t4,0xd7a5
   12118:	358c6490 	ori	t4,t4,0x6490
   1211c:	3c0d7951 	lui	t5,0x7951
   12120:	35ad8f38 	ori	t5,t5,0x8f38
   12124:	24100000 	li	s0,0
   12128:	10000014 	b	1217c <n35_bltzal_test+0x1217c>
   1212c:	24120000 	li	s2,0
   12130:	00000000 	nop
   12134:	3c10d7a5 	lui	s0,0xd7a5
   12138:	36106490 	ori	s0,s0,0x6490
   1213c:	05100025 	bltzal	t0,121d4 <n35_bltzal_test+0x121d4>
   12140:	00000000 	nop
   12144:	10000025 	b	121dc <n35_bltzal_test+0x121dc>
   12148:	00000000 	nop
   1214c:	00000000 	nop
   12150:	00000021 	move	zero,zero
   12154:	00000021 	move	zero,zero
   12158:	00000021 	move	zero,zero
   1215c:	00000021 	move	zero,zero
   12160:	00000021 	move	zero,zero
   12164:	00000021 	move	zero,zero
   12168:	00000021 	move	zero,zero
   1216c:	00000021 	move	zero,zero
   12170:	00000021 	move	zero,zero
   12174:	00000021 	move	zero,zero
   12178:	00000021 	move	zero,zero
   1217c:	3c0873ee 	lui	t0,0x73ee
   12180:	35088202 	ori	t0,t0,0x8202
   12184:	0510ffeb 	bltzal	t0,12134 <n35_bltzal_test+0x12134>
   12188:	00000000 	nop
   1218c:	10000013 	b	121dc <n35_bltzal_test+0x121dc>
   12190:	00000000 	nop
   12194:	00000000 	nop
   12198:	00000021 	move	zero,zero
   1219c:	00000021 	move	zero,zero
   121a0:	00000021 	move	zero,zero
   121a4:	00000021 	move	zero,zero
   121a8:	00000021 	move	zero,zero
   121ac:	00000021 	move	zero,zero
   121b0:	00000021 	move	zero,zero
   121b4:	00000021 	move	zero,zero
   121b8:	00000021 	move	zero,zero
   121bc:	00000021 	move	zero,zero
   121c0:	00000021 	move	zero,zero
   121c4:	00000021 	move	zero,zero
   121c8:	00000021 	move	zero,zero
   121cc:	00000021 	move	zero,zero
   121d0:	00000021 	move	zero,zero
   121d4:	3c127951 	lui	s2,0x7951
   121d8:	36528f38 	ori	s2,s2,0x8f38
   121dc:	001fa021 	addu	s4,zero,ra
   121e0:	0015f821 	addu	ra,zero,s5
   121e4:	3c150001 	lui	s5,0x1
   121e8:	26b5213c 	addiu	s5,s5,8508
   121ec:	3c160001 	lui	s6,0x1
   121f0:	26d62184 	addiu	s6,s6,8580
   121f4:	24180000 	li	t8,0
   121f8:	1618007f 	bne	s0,t8,123f8 <inst_error>
   121fc:	00000000 	nop
   12200:	00000000 	nop
   12204:	24180000 	li	t8,0
   12208:	1658007b 	bne	s2,t8,123f8 <inst_error>
   1220c:	00000000 	nop
   12210:	00000000 	nop
   12214:	3c19bfc0 	lui	t9,0xbfc0
   12218:	3739abfc 	ori	t9,t9,0xabfc
   1221c:	3c18bfc0 	lui	t8,0xbfc0
   12220:	3718abc4 	ori	t8,t8,0xabc4
   12224:	27180008 	addiu	t8,t8,8
   12228:	1319000a 	beq	t8,t9,12254 <n35_bltzal_test+0x12254>
   1222c:	00000000 	nop
   12230:	00000000 	nop
   12234:	3c18bfc0 	lui	t8,0xbfc0
   12238:	3718abf4 	ori	t8,t8,0xabf4
   1223c:	27180008 	addiu	t8,t8,8
   12240:	1319000a 	beq	t8,t9,1226c <n35_bltzal_test+0x1226c>
   12244:	00000000 	nop
   12248:	1000006b 	b	123f8 <inst_error>
   1224c:	00000000 	nop
   12250:	00000000 	nop
   12254:	26b50008 	addiu	s5,s5,8
   12258:	16950067 	bne	s4,s5,123f8 <inst_error>
   1225c:	00000000 	nop
   12260:	10000006 	b	1227c <n35_bltzal_test+0x1227c>
   12264:	00000000 	nop
   12268:	00000000 	nop
   1226c:	26d60008 	addiu	s6,s6,8
   12270:	16960061 	bne	s4,s6,123f8 <inst_error>
   12274:	00000000 	nop
	...
   12280:	001fa821 	addu	s5,zero,ra
   12284:	3c0cafba 	lui	t4,0xafba
   12288:	358cc4d4 	ori	t4,t4,0xc4d4
   1228c:	3c0df06f 	lui	t5,0xf06f
   12290:	35adb6ae 	ori	t5,t5,0xb6ae
   12294:	24100000 	li	s0,0
   12298:	10000014 	b	122ec <n35_bltzal_test+0x122ec>
   1229c:	24120000 	li	s2,0
   122a0:	00000000 	nop
   122a4:	3c10afba 	lui	s0,0xafba
   122a8:	3610c4d4 	ori	s0,s0,0xc4d4
   122ac:	05100024 	bltzal	t0,12340 <n35_bltzal_test+0x12340>
   122b0:	00000000 	nop
   122b4:	10000024 	b	12348 <n35_bltzal_test+0x12348>
   122b8:	00000000 	nop
   122bc:	00000000 	nop
   122c0:	00000021 	move	zero,zero
   122c4:	00000021 	move	zero,zero
   122c8:	00000021 	move	zero,zero
   122cc:	00000021 	move	zero,zero
   122d0:	00000021 	move	zero,zero
   122d4:	00000021 	move	zero,zero
   122d8:	00000021 	move	zero,zero
   122dc:	00000021 	move	zero,zero
   122e0:	00000021 	move	zero,zero
   122e4:	00000021 	move	zero,zero
   122e8:	00000021 	move	zero,zero
   122ec:	24080000 	li	t0,0
   122f0:	0510ffec 	bltzal	t0,122a4 <n35_bltzal_test+0x122a4>
   122f4:	00000000 	nop
   122f8:	10000013 	b	12348 <n35_bltzal_test+0x12348>
   122fc:	00000000 	nop
   12300:	00000000 	nop
   12304:	00000021 	move	zero,zero
   12308:	00000021 	move	zero,zero
   1230c:	00000021 	move	zero,zero
   12310:	00000021 	move	zero,zero
   12314:	00000021 	move	zero,zero
   12318:	00000021 	move	zero,zero
   1231c:	00000021 	move	zero,zero
   12320:	00000021 	move	zero,zero
   12324:	00000021 	move	zero,zero
   12328:	00000021 	move	zero,zero
   1232c:	00000021 	move	zero,zero
   12330:	00000021 	move	zero,zero
   12334:	00000021 	move	zero,zero
   12338:	00000021 	move	zero,zero
   1233c:	00000021 	move	zero,zero
   12340:	3c12f06f 	lui	s2,0xf06f
   12344:	3652b6ae 	ori	s2,s2,0xb6ae
   12348:	001fa021 	addu	s4,zero,ra
   1234c:	0015f821 	addu	ra,zero,s5
   12350:	3c150001 	lui	s5,0x1
   12354:	26b522ac 	addiu	s5,s5,8876
   12358:	3c160001 	lui	s6,0x1
   1235c:	26d622f0 	addiu	s6,s6,8944
   12360:	24180000 	li	t8,0
   12364:	16180024 	bne	s0,t8,123f8 <inst_error>
   12368:	00000000 	nop
   1236c:	00000000 	nop
   12370:	24180000 	li	t8,0
   12374:	16580020 	bne	s2,t8,123f8 <inst_error>
   12378:	00000000 	nop
   1237c:	00000000 	nop
   12380:	3c19bfc0 	lui	t9,0xbfc0
   12384:	3739acd0 	ori	t9,t9,0xacd0
   12388:	3c18bfc0 	lui	t8,0xbfc0
   1238c:	3718ac9c 	ori	t8,t8,0xac9c
   12390:	27180008 	addiu	t8,t8,8
   12394:	1319000a 	beq	t8,t9,123c0 <n35_bltzal_test+0x123c0>
   12398:	00000000 	nop
   1239c:	00000000 	nop
   123a0:	3c18bfc0 	lui	t8,0xbfc0
   123a4:	3718acc8 	ori	t8,t8,0xacc8
   123a8:	27180008 	addiu	t8,t8,8
   123ac:	1319000a 	beq	t8,t9,123d8 <n35_bltzal_test+0x123d8>
   123b0:	00000000 	nop
   123b4:	10000010 	b	123f8 <inst_error>
   123b8:	00000000 	nop
   123bc:	00000000 	nop
   123c0:	26b50008 	addiu	s5,s5,8
   123c4:	1695000c 	bne	s4,s5,123f8 <inst_error>
   123c8:	00000000 	nop
   123cc:	10000006 	b	123e8 <n35_bltzal_test+0x123e8>
   123d0:	00000000 	nop
   123d4:	00000000 	nop
   123d8:	26d60008 	addiu	s6,s6,8
   123dc:	16960006 	bne	s4,s6,123f8 <inst_error>
   123e0:	00000000 	nop
   123e4:	00000000 	nop
   123e8:	14400003 	bnez	v0,123f8 <inst_error>
   123ec:	00000000 	nop
   123f0:	00000000 	nop
   123f4:	26730001 	addiu	s3,s3,1

000123f8 <inst_error>:
   123f8:	00934025 	or	t0,a0,s3
   123fc:	03e00008 	jr	ra
   12400:	ae280000 	sw	t0,0(s1)
