00000000 <n36_bgezal_test>:
       0:	3c042400 	lui	a0,0x2400		a0 = 2400 0000
       4:	24020000 	li	v0,0
       8:	001fa821 	addu	s5,zero,ra  000000 00000 11111 10101 00000 100001  									 11111(31号寄存器)		
       c:	3c0c029a 	lui	t4,0x29a
      10:	358caf84 	ori	t4,t4,0xaf84		t4 = 029a af84
      14:	3c0db5a8 	lui	t5,0xb5a8
      18:	35adcca0 	ori	t5,t5,0xcca0		t5 = b5a8 cca0
      1c:	24100000 	li	s0,0
      20:	10000012 	b	6c <n36_bgezal_test+0x6c> 跳 
      24:	24120000 	li	s2,0
      28:	00000000 	nop
      2c:	3c10029a 	lui	s0,0x29a
      30:	3610af84 	ori	s0,s0,0xaf84
      34:	05110023 	bgezal	t0,c4 <n36_bgezal_test+0xc4>
      38:	00000000 	nop
      3c:	10000023 	b	cc <n36_bgezal_test+0xcc>
      40:	00000000 	nop
      44:	00000000 	nop
      48:	00000021 	move	zero,zero
      4c:	00000021 	move	zero,zero
      50:	00000021 	move	zero,zero
      54:	00000021 	move	zero,zero
      58:	00000021 	move	zero,zero
      5c:	00000021 	move	zero,zero
      60:	00000021 	move	zero,zero
      64:	00000021 	move	zero,zero
      68:	00000021 	move	zero,zero
      6c:	3c089ec9 	lui	t0,0x9ec9		 跳到这
      70:	3508db66 	ori	t0,t0,0xdb66		t0 = 9ec9 db66
						1001 1110 1100 1001 1101 1011 0110 0110
      74:	0511ffed 	bgezal	t0,2c <n36_bgezal_test+0x2c> 	t0 < 0
      78:	00000000 	nop
      7c:	10000013 	b	cc <n36_bgezal_test+0xcc>
      80:	00000000 	nop
      84:	00000000 	nop
      88:	00000021 	move	zero,zero
      8c:	00000021 	move	zero,zero
      90:	00000021 	move	zero,zero
      94:	00000021 	move	zero,zero
      98:	00000021 	move	zero,zero
      9c:	00000021 	move	zero,zero
      a0:	00000021 	move	zero,zero
      a4:	00000021 	move	zero,zero
      a8:	00000021 	move	zero,zero
      ac:	00000021 	move	zero,zero
      b0:	00000021 	move	zero,zero
      b4:	00000021 	move	zero,zero
      b8:	00000021 	move	zero,zero
      bc:	00000021 	move	zero,zero
      c0:	00000021 	move	zero,zero
      c4:	3c12b5a8 	lui	s2,0xb5a8
      c8:	3652cca0 	ori	s2,s2,0xcca0	s2 = b5a8 cca0
      cc:	001fa021 	addu	s4,zero,ra		跳到这里
						    000000 00000 001111 110100 00000 100001
      d0:	0015f821 	addu	ra,zero,s5
      d4:	3c150000 	lui	s5,0x0
      d8:	26b50034 	addiu	s5,s5,52
      dc:	3c160000 	lui	s6,0x0
      e0:	26d60074 	addiu	s6,s6,116	s6 = 00000074
      e4:	24180000 	li	t8,0
      e8:	1618473d 	bne	s0,t8,11de0 <inst_error>
      ec:	00000000 	nop
      f0:	00000000 	nop
      f4:	24180000 	li	t8,0
      f8:	16584739 	bne	s2,t8,11de0 <inst_error>
      fc:	00000000 	nop
     100:	00000000 	nop
     104:	3c19bfc0 	lui	t9,0xbfc0
     108:	3739041c 	ori	t9,t9,0x41c
     10c:	3c18bfc0 	lui	t8,0xbfc0
     110:	371803dc 	ori	t8,t8,0x3dc
     114:	27180008 	addiu	t8,t8,8
     118:	1319000a 	beq	t8,t9,144 <n36_bgezal_test+0x144>
     11c:	00000000 	nop
     120:	00000000 	nop
     124:	3c18bfc0 	lui	t8,0xbfc0
     128:	37180414 	ori	t8,t8,0x414
     12c:	27180008 	addiu	t8,t8,8
     130:	1319000a 	beq	t8,t9,15c <n36_bgezal_test+0x15c>
     134:	00000000 	nop
     138:	10004729 	b	11de0 <inst_error>
     13c:	00000000 	nop
     140:	00000000 	nop
     144:	26b50008 	addiu	s5,s5,8
     148:	16954725 	bne	s4,s5,11de0 <inst_error>
     14c:	00000000 	nop
     150:	10000006 	b	16c <n36_bgezal_test+0x16c>
     154:	00000000 	nop
     158:	00000000 	nop
     15c:	26d60008 	addiu	s6,s6,8
     160:	1696471f 	bne	s4,s6,11de0 <inst_error>	80 7c	//出错
     164:	00000000 	nop
	...
     170:	001fa821 	addu	s5,zero,ra
     174:	3c0c288d 	lui	t4,0x288d
     178:	358cbddc 	ori	t4,t4,0xbddc
     17c:	3c0dabcf 	lui	t5,0xabcf
     180:	35ad87b8 	ori	t5,t5,0x87b8
     184:	24100000 	li	s0,0
     188:	10000012 	b	1d4 <n36_bgezal_test+0x1d4>
     18c:	24120000 	li	s2,0
     190:	00000000 	nop
     194:	3c10288d 	lui	s0,0x288d
     198:	3610bddc 	ori	s0,s0,0xbddc
     19c:	05110023 	bgezal	t0,22c <n36_bgezal_test+0x22c>
     1a0:	00000000 	nop
     1a4:	10000023 	b	234 <n36_bgezal_test+0x234>
     1a8:	00000000 	nop
     1ac:	00000000 	nop
     1b0:	00000021 	move	zero,zero
     1b4:	00000021 	move	zero,zero
     1b8:	00000021 	move	zero,zero
     1bc:	00000021 	move	zero,zero
     1c0:	00000021 	move	zero,zero
     1c4:	00000021 	move	zero,zero
     1c8:	00000021 	move	zero,zero
     1cc:	00000021 	move	zero,zero
     1d0:	00000021 	move	zero,zero
     1d4:	3c0848f5 	lui	t0,0x48f5
     1d8:	350855d0 	ori	t0,t0,0x55d0
     1dc:	0511ffed 	bgezal	t0,194 <n36_bgezal_test+0x194>
     1e0:	00000000 	nop
     1e4:	10000013 	b	234 <n36_bgezal_test+0x234>
     1e8:	00000000 	nop
     1ec:	00000000 	nop
     1f0:	00000021 	move	zero,zero
     1f4:	00000021 	move	zero,zero
     1f8:	00000021 	move	zero,zero
     1fc:	00000021 	move	zero,zero
     200:	00000021 	move	zero,zero
     204:	00000021 	move	zero,zero
     208:	00000021 	move	zero,zero
     20c:	00000021 	move	zero,zero
     210:	00000021 	move	zero,zero
     214:	00000021 	move	zero,zero
     218:	00000021 	move	zero,zero
     21c:	00000021 	move	zero,zero
     220:	00000021 	move	zero,zero
     224:	00000021 	move	zero,zero
     228:	00000021 	move	zero,zero
     22c:	3c12abcf 	lui	s2,0xabcf
     230:	365287b8 	ori	s2,s2,0x87b8
     234:	001fa021 	addu	s4,zero,ra
     238:	0015f821 	addu	ra,zero,s5
     23c:	3c150000 	lui	s5,0x0
     240:	26b5019c 	addiu	s5,s5,412
     244:	3c160000 	lui	s6,0x0
     248:	26d601dc 	addiu	s6,s6,476
     24c:	3c18288d 	lui	t8,0x288d
     250:	3718bddc 	ori	t8,t8,0xbddc
     254:	161846e2 	bne	s0,t8,11de0 <inst_error>
     258:	00000000 	nop
     25c:	00000000 	nop
     260:	3c18abcf 	lui	t8,0xabcf
     264:	371887b8 	ori	t8,t8,0x87b8
     268:	165846dd 	bne	s2,t8,11de0 <inst_error>
     26c:	00000000 	nop
     270:	00000000 	nop
     274:	3c19bfc0 	lui	t9,0xbfc0
     278:	373904a0 	ori	t9,t9,0x4a0
     27c:	3c18bfc0 	lui	t8,0xbfc0
     280:	37180498 	ori	t8,t8,0x498
     284:	27180008 	addiu	t8,t8,8
     288:	1319000a 	beq	t8,t9,2b4 <n36_bgezal_test+0x2b4>
     28c:	00000000 	nop
     290:	00000000 	nop
     294:	3c18bfc0 	lui	t8,0xbfc0
     298:	371804d0 	ori	t8,t8,0x4d0
     29c:	27180008 	addiu	t8,t8,8
     2a0:	1319000a 	beq	t8,t9,2cc <n36_bgezal_test+0x2cc>
     2a4:	00000000 	nop
     2a8:	100046cd 	b	11de0 <inst_error>
     2ac:	00000000 	nop
     2b0:	00000000 	nop
     2b4:	26b50008 	addiu	s5,s5,8
     2b8:	169546c9 	bne	s4,s5,11de0 <inst_error>
     2bc:	00000000 	nop
     2c0:	10000006 	b	2dc <n36_bgezal_test+0x2dc>
     2c4:	00000000 	nop
     2c8:	00000000 	nop
     2cc:	26d60008 	addiu	s6,s6,8
     2d0:	169646c3 	bne	s4,s6,11de0 <inst_error>
     2d4:	00000000 	nop
	...
     2e0:	001fa821 	addu	s5,zero,ra
     2e4:	3c0cc6bf 	lui	t4,0xc6bf
     2e8:	358c36e0 	ori	t4,t4,0x36e0
     2ec:	3c0d1eb3 	lui	t5,0x1eb3
     2f0:	35ade3a0 	ori	t5,t5,0xe3a0
     2f4:	24100000 	li	s0,0
     2f8:	10000012 	b	344 <n36_bgezal_test+0x344>
     2fc:	24120000 	li	s2,0
     300:	00000000 	nop
     304:	3c10c6bf 	lui	s0,0xc6bf
     308:	361036e0 	ori	s0,s0,0x36e0
     30c:	05110023 	bgezal	t0,39c <n36_bgezal_test+0x39c>
     310:	00000000 	nop
     314:	10000023 	b	3a4 <n36_bgezal_test+0x3a4>
     318:	00000000 	nop
     31c:	00000000 	nop
     320:	00000021 	move	zero,zero
     324:	00000021 	move	zero,zero
     328:	00000021 	move	zero,zero
     32c:	00000021 	move	zero,zero
     330:	00000021 	move	zero,zero
     334:	00000021 	move	zero,zero
     338:	00000021 	move	zero,zero
     33c:	00000021 	move	zero,zero
     340:	00000021 	move	zero,zero
     344:	3c08e47b 	lui	t0,0xe47b
     348:	35082aa0 	ori	t0,t0,0x2aa0
     34c:	0511ffed 	bgezal	t0,304 <n36_bgezal_test+0x304>
     350:	00000000 	nop
     354:	10000013 	b	3a4 <n36_bgezal_test+0x3a4>
     358:	00000000 	nop
     35c:	00000000 	nop
     360:	00000021 	move	zero,zero
     364:	00000021 	move	zero,zero
     368:	00000021 	move	zero,zero
     36c:	00000021 	move	zero,zero
     370:	00000021 	move	zero,zero
     374:	00000021 	move	zero,zero
     378:	00000021 	move	zero,zero
     37c:	00000021 	move	zero,zero
     380:	00000021 	move	zero,zero
     384:	00000021 	move	zero,zero
     388:	00000021 	move	zero,zero
     38c:	00000021 	move	zero,zero
     390:	00000021 	move	zero,zero
     394:	00000021 	move	zero,zero
     398:	00000021 	move	zero,zero
     39c:	3c121eb3 	lui	s2,0x1eb3
     3a0:	3652e3a0 	ori	s2,s2,0xe3a0
     3a4:	001fa021 	addu	s4,zero,ra
     3a8:	0015f821 	addu	ra,zero,s5
     3ac:	3c150000 	lui	s5,0x0
     3b0:	26b5030c 	addiu	s5,s5,780
     3b4:	3c160000 	lui	s6,0x0
     3b8:	26d6034c 	addiu	s6,s6,844
     3bc:	24180000 	li	t8,0
     3c0:	16184687 	bne	s0,t8,11de0 <inst_error>
     3c4:	00000000 	nop
     3c8:	00000000 	nop
     3cc:	24180000 	li	t8,0
     3d0:	16584683 	bne	s2,t8,11de0 <inst_error>
     3d4:	00000000 	nop
     3d8:	00000000 	nop
     3dc:	3c19bfc0 	lui	t9,0xbfc0
     3e0:	37390594 	ori	t9,t9,0x594
     3e4:	3c18bfc0 	lui	t8,0xbfc0
     3e8:	37180554 	ori	t8,t8,0x554
     3ec:	27180008 	addiu	t8,t8,8
     3f0:	1319000a 	beq	t8,t9,41c <n36_bgezal_test+0x41c>
     3f4:	00000000 	nop
     3f8:	00000000 	nop
     3fc:	3c18bfc0 	lui	t8,0xbfc0
     400:	3718058c 	ori	t8,t8,0x58c
     404:	27180008 	addiu	t8,t8,8
     408:	1319000a 	beq	t8,t9,434 <n36_bgezal_test+0x434>
     40c:	00000000 	nop
     410:	10004673 	b	11de0 <inst_error>
     414:	00000000 	nop
     418:	00000000 	nop
     41c:	26b50008 	addiu	s5,s5,8
     420:	1695466f 	bne	s4,s5,11de0 <inst_error>
     424:	00000000 	nop
     428:	10000006 	b	444 <n36_bgezal_test+0x444>
     42c:	00000000 	nop
     430:	00000000 	nop
     434:	26d60008 	addiu	s6,s6,8
     438:	16964669 	bne	s4,s6,11de0 <inst_error>
     43c:	00000000 	nop
	...
     448:	001fa821 	addu	s5,zero,ra
     44c:	3c0ca444 	lui	t4,0xa444
     450:	358c67a3 	ori	t4,t4,0x67a3
     454:	3c0ddbe0 	lui	t5,0xdbe0
     458:	35ad04f7 	ori	t5,t5,0x4f7
     45c:	24100000 	li	s0,0
     460:	10000012 	b	4ac <n36_bgezal_test+0x4ac>
     464:	24120000 	li	s2,0
     468:	00000000 	nop
     46c:	3c10a444 	lui	s0,0xa444
     470:	361067a3 	ori	s0,s0,0x67a3
     474:	05110023 	bgezal	t0,504 <n36_bgezal_test+0x504>
     478:	00000000 	nop
     47c:	10000023 	b	50c <n36_bgezal_test+0x50c>
     480:	00000000 	nop
     484:	00000000 	nop
     488:	00000021 	move	zero,zero
     48c:	00000021 	move	zero,zero
     490:	00000021 	move	zero,zero
     494:	00000021 	move	zero,zero
     498:	00000021 	move	zero,zero
     49c:	00000021 	move	zero,zero
     4a0:	00000021 	move	zero,zero
     4a4:	00000021 	move	zero,zero
     4a8:	00000021 	move	zero,zero
     4ac:	3c085955 	lui	t0,0x5955
     4b0:	3508ebd6 	ori	t0,t0,0xebd6
     4b4:	0511ffed 	bgezal	t0,46c <n36_bgezal_test+0x46c>
     4b8:	00000000 	nop
     4bc:	10000013 	b	50c <n36_bgezal_test+0x50c>
     4c0:	00000000 	nop
     4c4:	00000000 	nop
     4c8:	00000021 	move	zero,zero
     4cc:	00000021 	move	zero,zero
     4d0:	00000021 	move	zero,zero
     4d4:	00000021 	move	zero,zero
     4d8:	00000021 	move	zero,zero
     4dc:	00000021 	move	zero,zero
     4e0:	00000021 	move	zero,zero
     4e4:	00000021 	move	zero,zero
     4e8:	00000021 	move	zero,zero
     4ec:	00000021 	move	zero,zero
     4f0:	00000021 	move	zero,zero
     4f4:	00000021 	move	zero,zero
     4f8:	00000021 	move	zero,zero
     4fc:	00000021 	move	zero,zero
     500:	00000021 	move	zero,zero
     504:	3c12dbe0 	lui	s2,0xdbe0
     508:	365204f7 	ori	s2,s2,0x4f7
     50c:	001fa021 	addu	s4,zero,ra
     510:	0015f821 	addu	ra,zero,s5
     514:	3c150000 	lui	s5,0x0
     518:	26b50474 	addiu	s5,s5,1140
     51c:	3c160000 	lui	s6,0x0
     520:	26d604b4 	addiu	s6,s6,1204
     524:	3c18a444 	lui	t8,0xa444
     528:	371867a3 	ori	t8,t8,0x67a3
     52c:	1618462c 	bne	s0,t8,11de0 <inst_error>
     530:	00000000 	nop
     534:	00000000 	nop
     538:	3c18dbe0 	lui	t8,0xdbe0
     53c:	371804f7 	ori	t8,t8,0x4f7
     540:	16584627 	bne	s2,t8,11de0 <inst_error>
     544:	00000000 	nop
     548:	00000000 	nop
     54c:	3c19bfc0 	lui	t9,0xbfc0
     550:	37390618 	ori	t9,t9,0x618
     554:	3c18bfc0 	lui	t8,0xbfc0
     558:	37180610 	ori	t8,t8,0x610
     55c:	27180008 	addiu	t8,t8,8
     560:	1319000a 	beq	t8,t9,58c <n36_bgezal_test+0x58c>
     564:	00000000 	nop
     568:	00000000 	nop
     56c:	3c18bfc0 	lui	t8,0xbfc0
     570:	37180648 	ori	t8,t8,0x648
     574:	27180008 	addiu	t8,t8,8
     578:	1319000a 	beq	t8,t9,5a4 <n36_bgezal_test+0x5a4>
     57c:	00000000 	nop
     580:	10004617 	b	11de0 <inst_error>
     584:	00000000 	nop
     588:	00000000 	nop
     58c:	26b50008 	addiu	s5,s5,8
     590:	16954613 	bne	s4,s5,11de0 <inst_error>
     594:	00000000 	nop
     598:	10000006 	b	5b4 <n36_bgezal_test+0x5b4>
     59c:	00000000 	nop
     5a0:	00000000 	nop
     5a4:	26d60008 	addiu	s6,s6,8
     5a8:	1696460d 	bne	s4,s6,11de0 <inst_error>
     5ac:	00000000 	nop
	...
     5b8:	001fa821 	addu	s5,zero,ra
     5bc:	3c0c7998 	lui	t4,0x7998
     5c0:	358cf600 	ori	t4,t4,0xf600
     5c4:	3c0df047 	lui	t5,0xf047
     5c8:	35add898 	ori	t5,t5,0xd898
     5cc:	24100000 	li	s0,0
     5d0:	10000012 	b	61c <n36_bgezal_test+0x61c>
     5d4:	24120000 	li	s2,0
     5d8:	00000000 	nop
     5dc:	3c107998 	lui	s0,0x7998
     5e0:	3610f600 	ori	s0,s0,0xf600
     5e4:	05110023 	bgezal	t0,674 <n36_bgezal_test+0x674>
     5e8:	00000000 	nop
     5ec:	10000023 	b	67c <n36_bgezal_test+0x67c>
     5f0:	00000000 	nop
     5f4:	00000000 	nop
     5f8:	00000021 	move	zero,zero
     5fc:	00000021 	move	zero,zero
     600:	00000021 	move	zero,zero
     604:	00000021 	move	zero,zero
     608:	00000021 	move	zero,zero
     60c:	00000021 	move	zero,zero
     610:	00000021 	move	zero,zero
     614:	00000021 	move	zero,zero
     618:	00000021 	move	zero,zero
     61c:	3c083baa 	lui	t0,0x3baa
     620:	35084ab0 	ori	t0,t0,0x4ab0
     624:	0511ffed 	bgezal	t0,5dc <n36_bgezal_test+0x5dc>
     628:	00000000 	nop
     62c:	10000013 	b	67c <n36_bgezal_test+0x67c>
     630:	00000000 	nop
     634:	00000000 	nop
     638:	00000021 	move	zero,zero
     63c:	00000021 	move	zero,zero
     640:	00000021 	move	zero,zero
     644:	00000021 	move	zero,zero
     648:	00000021 	move	zero,zero
     64c:	00000021 	move	zero,zero
     650:	00000021 	move	zero,zero
     654:	00000021 	move	zero,zero
     658:	00000021 	move	zero,zero
     65c:	00000021 	move	zero,zero
     660:	00000021 	move	zero,zero
     664:	00000021 	move	zero,zero
     668:	00000021 	move	zero,zero
     66c:	00000021 	move	zero,zero
     670:	00000021 	move	zero,zero
     674:	3c12f047 	lui	s2,0xf047
     678:	3652d898 	ori	s2,s2,0xd898
     67c:	001fa021 	addu	s4,zero,ra
     680:	0015f821 	addu	ra,zero,s5
     684:	3c150000 	lui	s5,0x0
     688:	26b505e4 	addiu	s5,s5,1508
     68c:	3c160000 	lui	s6,0x0
     690:	26d60624 	addiu	s6,s6,1572
     694:	3c187998 	lui	t8,0x7998
     698:	3718f600 	ori	t8,t8,0xf600
     69c:	161845d0 	bne	s0,t8,11de0 <inst_error>
     6a0:	00000000 	nop
     6a4:	00000000 	nop
     6a8:	3c18f047 	lui	t8,0xf047
     6ac:	3718d898 	ori	t8,t8,0xd898
     6b0:	165845cb 	bne	s2,t8,11de0 <inst_error>
     6b4:	00000000 	nop
     6b8:	00000000 	nop
     6bc:	3c19bfc0 	lui	t9,0xbfc0
     6c0:	373906d4 	ori	t9,t9,0x6d4
     6c4:	3c18bfc0 	lui	t8,0xbfc0
     6c8:	371806cc 	ori	t8,t8,0x6cc
     6cc:	27180008 	addiu	t8,t8,8
     6d0:	1319000a 	beq	t8,t9,6fc <n36_bgezal_test+0x6fc>
     6d4:	00000000 	nop
     6d8:	00000000 	nop
     6dc:	3c18bfc0 	lui	t8,0xbfc0
     6e0:	37180704 	ori	t8,t8,0x704
     6e4:	27180008 	addiu	t8,t8,8
     6e8:	1319000a 	beq	t8,t9,714 <n36_bgezal_test+0x714>
     6ec:	00000000 	nop
     6f0:	100045bb 	b	11de0 <inst_error>
     6f4:	00000000 	nop
     6f8:	00000000 	nop
     6fc:	26b50008 	addiu	s5,s5,8
     700:	169545b7 	bne	s4,s5,11de0 <inst_error>
     704:	00000000 	nop
     708:	10000006 	b	724 <n36_bgezal_test+0x724>
     70c:	00000000 	nop
     710:	00000000 	nop
     714:	26d60008 	addiu	s6,s6,8
     718:	169645b1 	bne	s4,s6,11de0 <inst_error>
     71c:	00000000 	nop
	...
     728:	001fa821 	addu	s5,zero,ra
     72c:	3c0c82bf 	lui	t4,0x82bf
     730:	358c9c2c 	ori	t4,t4,0x9c2c
     734:	3c0d68d4 	lui	t5,0x68d4
     738:	35ad4fa0 	ori	t5,t5,0x4fa0
     73c:	24100000 	li	s0,0
     740:	10000012 	b	78c <n36_bgezal_test+0x78c>
     744:	24120000 	li	s2,0
     748:	00000000 	nop
     74c:	3c1082bf 	lui	s0,0x82bf
     750:	36109c2c 	ori	s0,s0,0x9c2c
     754:	05110023 	bgezal	t0,7e4 <n36_bgezal_test+0x7e4>
     758:	00000000 	nop
     75c:	10000023 	b	7ec <n36_bgezal_test+0x7ec>
     760:	00000000 	nop
     764:	00000000 	nop
     768:	00000021 	move	zero,zero
     76c:	00000021 	move	zero,zero
     770:	00000021 	move	zero,zero
     774:	00000021 	move	zero,zero
     778:	00000021 	move	zero,zero
     77c:	00000021 	move	zero,zero
     780:	00000021 	move	zero,zero
     784:	00000021 	move	zero,zero
     788:	00000021 	move	zero,zero
     78c:	3c08bff7 	lui	t0,0xbff7
     790:	3508aa00 	ori	t0,t0,0xaa00
     794:	0511ffed 	bgezal	t0,74c <n36_bgezal_test+0x74c>
     798:	00000000 	nop
     79c:	10000013 	b	7ec <n36_bgezal_test+0x7ec>
     7a0:	00000000 	nop
     7a4:	00000000 	nop
     7a8:	00000021 	move	zero,zero
     7ac:	00000021 	move	zero,zero
     7b0:	00000021 	move	zero,zero
     7b4:	00000021 	move	zero,zero
     7b8:	00000021 	move	zero,zero
     7bc:	00000021 	move	zero,zero
     7c0:	00000021 	move	zero,zero
     7c4:	00000021 	move	zero,zero
     7c8:	00000021 	move	zero,zero
     7cc:	00000021 	move	zero,zero
     7d0:	00000021 	move	zero,zero
     7d4:	00000021 	move	zero,zero
     7d8:	00000021 	move	zero,zero
     7dc:	00000021 	move	zero,zero
     7e0:	00000021 	move	zero,zero
     7e4:	3c1268d4 	lui	s2,0x68d4
     7e8:	36524fa0 	ori	s2,s2,0x4fa0
     7ec:	001fa021 	addu	s4,zero,ra
     7f0:	0015f821 	addu	ra,zero,s5
     7f4:	3c150000 	lui	s5,0x0
     7f8:	26b50754 	addiu	s5,s5,1876
     7fc:	3c160000 	lui	s6,0x0
     800:	26d60794 	addiu	s6,s6,1940
     804:	24180000 	li	t8,0
     808:	16184575 	bne	s0,t8,11de0 <inst_error>
     80c:	00000000 	nop
     810:	00000000 	nop
     814:	24180000 	li	t8,0
     818:	16584571 	bne	s2,t8,11de0 <inst_error>
     81c:	00000000 	nop
     820:	00000000 	nop
     824:	3c19bfc0 	lui	t9,0xbfc0
     828:	373907c8 	ori	t9,t9,0x7c8
     82c:	3c18bfc0 	lui	t8,0xbfc0
     830:	37180788 	ori	t8,t8,0x788
     834:	27180008 	addiu	t8,t8,8
     838:	1319000a 	beq	t8,t9,864 <n36_bgezal_test+0x864>
     83c:	00000000 	nop
     840:	00000000 	nop
     844:	3c18bfc0 	lui	t8,0xbfc0
     848:	371807c0 	ori	t8,t8,0x7c0
     84c:	27180008 	addiu	t8,t8,8
     850:	1319000a 	beq	t8,t9,87c <n36_bgezal_test+0x87c>
     854:	00000000 	nop
     858:	10004561 	b	11de0 <inst_error>
     85c:	00000000 	nop
     860:	00000000 	nop
     864:	26b50008 	addiu	s5,s5,8
     868:	1695455d 	bne	s4,s5,11de0 <inst_error>
     86c:	00000000 	nop
     870:	10000006 	b	88c <n36_bgezal_test+0x88c>
     874:	00000000 	nop
     878:	00000000 	nop
     87c:	26d60008 	addiu	s6,s6,8
     880:	16964557 	bne	s4,s6,11de0 <inst_error>
     884:	00000000 	nop
	...
     890:	001fa821 	addu	s5,zero,ra
     894:	3c0c72df 	lui	t4,0x72df
     898:	358c5726 	ori	t4,t4,0x5726
     89c:	3c0ddfbd 	lui	t5,0xdfbd
     8a0:	35ad8610 	ori	t5,t5,0x8610
     8a4:	24100000 	li	s0,0
     8a8:	10000012 	b	8f4 <n36_bgezal_test+0x8f4>
     8ac:	24120000 	li	s2,0
     8b0:	00000000 	nop
     8b4:	3c1072df 	lui	s0,0x72df
     8b8:	36105726 	ori	s0,s0,0x5726
     8bc:	05110023 	bgezal	t0,94c <n36_bgezal_test+0x94c>
     8c0:	00000000 	nop
     8c4:	10000023 	b	954 <n36_bgezal_test+0x954>
     8c8:	00000000 	nop
     8cc:	00000000 	nop
     8d0:	00000021 	move	zero,zero
     8d4:	00000021 	move	zero,zero
     8d8:	00000021 	move	zero,zero
     8dc:	00000021 	move	zero,zero
     8e0:	00000021 	move	zero,zero
     8e4:	00000021 	move	zero,zero
     8e8:	00000021 	move	zero,zero
     8ec:	00000021 	move	zero,zero
     8f0:	00000021 	move	zero,zero
     8f4:	3c08f72c 	lui	t0,0xf72c
     8f8:	3508d104 	ori	t0,t0,0xd104
     8fc:	0511ffed 	bgezal	t0,8b4 <n36_bgezal_test+0x8b4>
     900:	00000000 	nop
     904:	10000013 	b	954 <n36_bgezal_test+0x954>
     908:	00000000 	nop
     90c:	00000000 	nop
     910:	00000021 	move	zero,zero
     914:	00000021 	move	zero,zero
     918:	00000021 	move	zero,zero
     91c:	00000021 	move	zero,zero
     920:	00000021 	move	zero,zero
     924:	00000021 	move	zero,zero
     928:	00000021 	move	zero,zero
     92c:	00000021 	move	zero,zero
     930:	00000021 	move	zero,zero
     934:	00000021 	move	zero,zero
     938:	00000021 	move	zero,zero
     93c:	00000021 	move	zero,zero
     940:	00000021 	move	zero,zero
     944:	00000021 	move	zero,zero
     948:	00000021 	move	zero,zero
     94c:	3c12dfbd 	lui	s2,0xdfbd
     950:	36528610 	ori	s2,s2,0x8610
     954:	001fa021 	addu	s4,zero,ra
     958:	0015f821 	addu	ra,zero,s5
     95c:	3c150000 	lui	s5,0x0
     960:	26b508bc 	addiu	s5,s5,2236
     964:	3c160000 	lui	s6,0x0
     968:	26d608fc 	addiu	s6,s6,2300
     96c:	24180000 	li	t8,0
     970:	1618451b 	bne	s0,t8,11de0 <inst_error>
     974:	00000000 	nop
     978:	00000000 	nop
     97c:	24180000 	li	t8,0
     980:	16584517 	bne	s2,t8,11de0 <inst_error>
     984:	00000000 	nop
     988:	00000000 	nop
     98c:	3c19bfc0 	lui	t9,0xbfc0
     990:	37390884 	ori	t9,t9,0x884
     994:	3c18bfc0 	lui	t8,0xbfc0
     998:	37180844 	ori	t8,t8,0x844
     99c:	27180008 	addiu	t8,t8,8
     9a0:	1319000a 	beq	t8,t9,9cc <n36_bgezal_test+0x9cc>
     9a4:	00000000 	nop
     9a8:	00000000 	nop
     9ac:	3c18bfc0 	lui	t8,0xbfc0
     9b0:	3718087c 	ori	t8,t8,0x87c
     9b4:	27180008 	addiu	t8,t8,8
     9b8:	1319000a 	beq	t8,t9,9e4 <n36_bgezal_test+0x9e4>
     9bc:	00000000 	nop
     9c0:	10004507 	b	11de0 <inst_error>
     9c4:	00000000 	nop
     9c8:	00000000 	nop
     9cc:	26b50008 	addiu	s5,s5,8
     9d0:	16954503 	bne	s4,s5,11de0 <inst_error>
     9d4:	00000000 	nop
     9d8:	10000006 	b	9f4 <n36_bgezal_test+0x9f4>
     9dc:	00000000 	nop
     9e0:	00000000 	nop
     9e4:	26d60008 	addiu	s6,s6,8
     9e8:	169644fd 	bne	s4,s6,11de0 <inst_error>
     9ec:	00000000 	nop
	...
     9f8:	001fa821 	addu	s5,zero,ra
     9fc:	3c0c3c5b 	lui	t4,0x3c5b
     a00:	358ca4aa 	ori	t4,t4,0xa4aa
     a04:	3c0d7af3 	lui	t5,0x7af3
     a08:	35ad2580 	ori	t5,t5,0x2580
     a0c:	24100000 	li	s0,0
     a10:	10000012 	b	a5c <n36_bgezal_test+0xa5c>
     a14:	24120000 	li	s2,0
     a18:	00000000 	nop
     a1c:	3c103c5b 	lui	s0,0x3c5b
     a20:	3610a4aa 	ori	s0,s0,0xa4aa
     a24:	05110023 	bgezal	t0,ab4 <n36_bgezal_test+0xab4>
     a28:	00000000 	nop
     a2c:	10000023 	b	abc <n36_bgezal_test+0xabc>
     a30:	00000000 	nop
     a34:	00000000 	nop
     a38:	00000021 	move	zero,zero
     a3c:	00000021 	move	zero,zero
     a40:	00000021 	move	zero,zero
     a44:	00000021 	move	zero,zero
     a48:	00000021 	move	zero,zero
     a4c:	00000021 	move	zero,zero
     a50:	00000021 	move	zero,zero
     a54:	00000021 	move	zero,zero
     a58:	00000021 	move	zero,zero
     a5c:	3c08d8b3 	lui	t0,0xd8b3
     a60:	3508ba00 	ori	t0,t0,0xba00
     a64:	0511ffed 	bgezal	t0,a1c <n36_bgezal_test+0xa1c>
     a68:	00000000 	nop
     a6c:	10000013 	b	abc <n36_bgezal_test+0xabc>
     a70:	00000000 	nop
     a74:	00000000 	nop
     a78:	00000021 	move	zero,zero
     a7c:	00000021 	move	zero,zero
     a80:	00000021 	move	zero,zero
     a84:	00000021 	move	zero,zero
     a88:	00000021 	move	zero,zero
     a8c:	00000021 	move	zero,zero
     a90:	00000021 	move	zero,zero
     a94:	00000021 	move	zero,zero
     a98:	00000021 	move	zero,zero
     a9c:	00000021 	move	zero,zero
     aa0:	00000021 	move	zero,zero
     aa4:	00000021 	move	zero,zero
     aa8:	00000021 	move	zero,zero
     aac:	00000021 	move	zero,zero
     ab0:	00000021 	move	zero,zero
     ab4:	3c127af3 	lui	s2,0x7af3
     ab8:	36522580 	ori	s2,s2,0x2580
     abc:	001fa021 	addu	s4,zero,ra
     ac0:	0015f821 	addu	ra,zero,s5
     ac4:	3c150000 	lui	s5,0x0
     ac8:	26b50a24 	addiu	s5,s5,2596
     acc:	3c160000 	lui	s6,0x0
     ad0:	26d60a64 	addiu	s6,s6,2660
     ad4:	24180000 	li	t8,0
     ad8:	161844c1 	bne	s0,t8,11de0 <inst_error>
     adc:	00000000 	nop
     ae0:	00000000 	nop
     ae4:	24180000 	li	t8,0
     ae8:	165844bd 	bne	s2,t8,11de0 <inst_error>
     aec:	00000000 	nop
     af0:	00000000 	nop
     af4:	3c19bfc0 	lui	t9,0xbfc0
     af8:	37390940 	ori	t9,t9,0x940
     afc:	3c18bfc0 	lui	t8,0xbfc0
     b00:	37180900 	ori	t8,t8,0x900
     b04:	27180008 	addiu	t8,t8,8
     b08:	1319000a 	beq	t8,t9,b34 <n36_bgezal_test+0xb34>
     b0c:	00000000 	nop
     b10:	00000000 	nop
     b14:	3c18bfc0 	lui	t8,0xbfc0
     b18:	37180938 	ori	t8,t8,0x938
     b1c:	27180008 	addiu	t8,t8,8
     b20:	1319000a 	beq	t8,t9,b4c <n36_bgezal_test+0xb4c>
     b24:	00000000 	nop
     b28:	100044ad 	b	11de0 <inst_error>
     b2c:	00000000 	nop
     b30:	00000000 	nop
     b34:	26b50008 	addiu	s5,s5,8
     b38:	169544a9 	bne	s4,s5,11de0 <inst_error>
     b3c:	00000000 	nop
     b40:	10000006 	b	b5c <n36_bgezal_test+0xb5c>
     b44:	00000000 	nop
     b48:	00000000 	nop
     b4c:	26d60008 	addiu	s6,s6,8
     b50:	169644a3 	bne	s4,s6,11de0 <inst_error>
     b54:	00000000 	nop
	...
     b60:	001fa821 	addu	s5,zero,ra
     b64:	3c0ccc24 	lui	t4,0xcc24
     b68:	358ca355 	ori	t4,t4,0xa355
     b6c:	3c0d38bd 	lui	t5,0x38bd
     b70:	35ad0e50 	ori	t5,t5,0xe50
     b74:	24100000 	li	s0,0
     b78:	10000012 	b	bc4 <n36_bgezal_test+0xbc4>
     b7c:	24120000 	li	s2,0
     b80:	00000000 	nop
     b84:	3c10cc24 	lui	s0,0xcc24
     b88:	3610a355 	ori	s0,s0,0xa355
     b8c:	05110023 	bgezal	t0,c1c <n36_bgezal_test+0xc1c>
     b90:	00000000 	nop
     b94:	10000023 	b	c24 <n36_bgezal_test+0xc24>
     b98:	00000000 	nop
     b9c:	00000000 	nop
     ba0:	00000021 	move	zero,zero
     ba4:	00000021 	move	zero,zero
     ba8:	00000021 	move	zero,zero
     bac:	00000021 	move	zero,zero
     bb0:	00000021 	move	zero,zero
     bb4:	00000021 	move	zero,zero
     bb8:	00000021 	move	zero,zero
     bbc:	00000021 	move	zero,zero
     bc0:	00000021 	move	zero,zero
     bc4:	3c087ade 	lui	t0,0x7ade
     bc8:	35087232 	ori	t0,t0,0x7232
     bcc:	0511ffed 	bgezal	t0,b84 <n36_bgezal_test+0xb84>
     bd0:	00000000 	nop
     bd4:	10000013 	b	c24 <n36_bgezal_test+0xc24>
     bd8:	00000000 	nop
     bdc:	00000000 	nop
     be0:	00000021 	move	zero,zero
     be4:	00000021 	move	zero,zero
     be8:	00000021 	move	zero,zero
     bec:	00000021 	move	zero,zero
     bf0:	00000021 	move	zero,zero
     bf4:	00000021 	move	zero,zero
     bf8:	00000021 	move	zero,zero
     bfc:	00000021 	move	zero,zero
     c00:	00000021 	move	zero,zero
     c04:	00000021 	move	zero,zero
     c08:	00000021 	move	zero,zero
     c0c:	00000021 	move	zero,zero
     c10:	00000021 	move	zero,zero
     c14:	00000021 	move	zero,zero
     c18:	00000021 	move	zero,zero
     c1c:	3c1238bd 	lui	s2,0x38bd
     c20:	36520e50 	ori	s2,s2,0xe50
     c24:	001fa021 	addu	s4,zero,ra
     c28:	0015f821 	addu	ra,zero,s5
     c2c:	3c150000 	lui	s5,0x0
     c30:	26b50b8c 	addiu	s5,s5,2956
     c34:	3c160000 	lui	s6,0x0
     c38:	26d60bcc 	addiu	s6,s6,3020
     c3c:	3c18cc24 	lui	t8,0xcc24
     c40:	3718a355 	ori	t8,t8,0xa355
     c44:	16184466 	bne	s0,t8,11de0 <inst_error>
     c48:	00000000 	nop
     c4c:	00000000 	nop
     c50:	3c1838bd 	lui	t8,0x38bd
     c54:	37180e50 	ori	t8,t8,0xe50
     c58:	16584461 	bne	s2,t8,11de0 <inst_error>
     c5c:	00000000 	nop
     c60:	00000000 	nop
     c64:	3c19bfc0 	lui	t9,0xbfc0
     c68:	373909c4 	ori	t9,t9,0x9c4
     c6c:	3c18bfc0 	lui	t8,0xbfc0
     c70:	371809bc 	ori	t8,t8,0x9bc
     c74:	27180008 	addiu	t8,t8,8
     c78:	1319000a 	beq	t8,t9,ca4 <n36_bgezal_test+0xca4>
     c7c:	00000000 	nop
     c80:	00000000 	nop
     c84:	3c18bfc0 	lui	t8,0xbfc0
     c88:	371809f4 	ori	t8,t8,0x9f4
     c8c:	27180008 	addiu	t8,t8,8
     c90:	1319000a 	beq	t8,t9,cbc <n36_bgezal_test+0xcbc>
     c94:	00000000 	nop
     c98:	10004451 	b	11de0 <inst_error>
     c9c:	00000000 	nop
     ca0:	00000000 	nop
     ca4:	26b50008 	addiu	s5,s5,8
     ca8:	1695444d 	bne	s4,s5,11de0 <inst_error>
     cac:	00000000 	nop
     cb0:	10000006 	b	ccc <n36_bgezal_test+0xccc>
     cb4:	00000000 	nop
     cb8:	00000000 	nop
     cbc:	26d60008 	addiu	s6,s6,8
     cc0:	16964447 	bne	s4,s6,11de0 <inst_error>
     cc4:	00000000 	nop
	...
     cd0:	001fa821 	addu	s5,zero,ra
     cd4:	3c0c448e 	lui	t4,0x448e
     cd8:	358c3e59 	ori	t4,t4,0x3e59
     cdc:	3c0df188 	lui	t5,0xf188
     ce0:	35adc7f8 	ori	t5,t5,0xc7f8
     ce4:	24100000 	li	s0,0
     ce8:	10000012 	b	d34 <n36_bgezal_test+0xd34>
     cec:	24120000 	li	s2,0
     cf0:	00000000 	nop
     cf4:	3c10448e 	lui	s0,0x448e
     cf8:	36103e59 	ori	s0,s0,0x3e59
     cfc:	05110023 	bgezal	t0,d8c <n36_bgezal_test+0xd8c>
     d00:	00000000 	nop
     d04:	10000023 	b	d94 <n36_bgezal_test+0xd94>
     d08:	00000000 	nop
     d0c:	00000000 	nop
     d10:	00000021 	move	zero,zero
     d14:	00000021 	move	zero,zero
     d18:	00000021 	move	zero,zero
     d1c:	00000021 	move	zero,zero
     d20:	00000021 	move	zero,zero
     d24:	00000021 	move	zero,zero
     d28:	00000021 	move	zero,zero
     d2c:	00000021 	move	zero,zero
     d30:	00000021 	move	zero,zero
     d34:	3c08decd 	lui	t0,0xdecd
     d38:	350838ca 	ori	t0,t0,0x38ca
     d3c:	0511ffed 	bgezal	t0,cf4 <n36_bgezal_test+0xcf4>
     d40:	00000000 	nop
     d44:	10000013 	b	d94 <n36_bgezal_test+0xd94>
     d48:	00000000 	nop
     d4c:	00000000 	nop
     d50:	00000021 	move	zero,zero
     d54:	00000021 	move	zero,zero
     d58:	00000021 	move	zero,zero
     d5c:	00000021 	move	zero,zero
     d60:	00000021 	move	zero,zero
     d64:	00000021 	move	zero,zero
     d68:	00000021 	move	zero,zero
     d6c:	00000021 	move	zero,zero
     d70:	00000021 	move	zero,zero
     d74:	00000021 	move	zero,zero
     d78:	00000021 	move	zero,zero
     d7c:	00000021 	move	zero,zero
     d80:	00000021 	move	zero,zero
     d84:	00000021 	move	zero,zero
     d88:	00000021 	move	zero,zero
     d8c:	3c12f188 	lui	s2,0xf188
     d90:	3652c7f8 	ori	s2,s2,0xc7f8
     d94:	001fa021 	addu	s4,zero,ra
     d98:	0015f821 	addu	ra,zero,s5
     d9c:	3c150000 	lui	s5,0x0
     da0:	26b50cfc 	addiu	s5,s5,3324
     da4:	3c160000 	lui	s6,0x0
     da8:	26d60d3c 	addiu	s6,s6,3388
     dac:	24180000 	li	t8,0
     db0:	1618440b 	bne	s0,t8,11de0 <inst_error>
     db4:	00000000 	nop
     db8:	00000000 	nop
     dbc:	24180000 	li	t8,0
     dc0:	16584407 	bne	s2,t8,11de0 <inst_error>
     dc4:	00000000 	nop
     dc8:	00000000 	nop
     dcc:	3c19bfc0 	lui	t9,0xbfc0
     dd0:	37390ab8 	ori	t9,t9,0xab8
     dd4:	3c18bfc0 	lui	t8,0xbfc0
     dd8:	37180a78 	ori	t8,t8,0xa78
     ddc:	27180008 	addiu	t8,t8,8
     de0:	1319000a 	beq	t8,t9,e0c <n36_bgezal_test+0xe0c>
     de4:	00000000 	nop
     de8:	00000000 	nop
     dec:	3c18bfc0 	lui	t8,0xbfc0
     df0:	37180ab0 	ori	t8,t8,0xab0
     df4:	27180008 	addiu	t8,t8,8
     df8:	1319000a 	beq	t8,t9,e24 <n36_bgezal_test+0xe24>
     dfc:	00000000 	nop
     e00:	100043f7 	b	11de0 <inst_error>
     e04:	00000000 	nop
     e08:	00000000 	nop
     e0c:	26b50008 	addiu	s5,s5,8
     e10:	169543f3 	bne	s4,s5,11de0 <inst_error>
     e14:	00000000 	nop
     e18:	10000006 	b	e34 <n36_bgezal_test+0xe34>
     e1c:	00000000 	nop
     e20:	00000000 	nop
     e24:	26d60008 	addiu	s6,s6,8
     e28:	169643ed 	bne	s4,s6,11de0 <inst_error>
     e2c:	00000000 	nop
	...
     e38:	001fa821 	addu	s5,zero,ra
     e3c:	3c0ce5b2 	lui	t4,0xe5b2
     e40:	358c5fb8 	ori	t4,t4,0x5fb8
     e44:	3c0d7ca7 	lui	t5,0x7ca7
     e48:	35ad863d 	ori	t5,t5,0x863d
     e4c:	24100000 	li	s0,0
     e50:	10000012 	b	e9c <n36_bgezal_test+0xe9c>
     e54:	24120000 	li	s2,0
     e58:	00000000 	nop
     e5c:	3c10e5b2 	lui	s0,0xe5b2
     e60:	36105fb8 	ori	s0,s0,0x5fb8
     e64:	05110023 	bgezal	t0,ef4 <n36_bgezal_test+0xef4>
     e68:	00000000 	nop
     e6c:	10000023 	b	efc <n36_bgezal_test+0xefc>
     e70:	00000000 	nop
     e74:	00000000 	nop
     e78:	00000021 	move	zero,zero
     e7c:	00000021 	move	zero,zero
     e80:	00000021 	move	zero,zero
     e84:	00000021 	move	zero,zero
     e88:	00000021 	move	zero,zero
     e8c:	00000021 	move	zero,zero
     e90:	00000021 	move	zero,zero
     e94:	00000021 	move	zero,zero
     e98:	00000021 	move	zero,zero
     e9c:	3c087831 	lui	t0,0x7831
     ea0:	35081f7a 	ori	t0,t0,0x1f7a
     ea4:	0511ffed 	bgezal	t0,e5c <n36_bgezal_test+0xe5c>
     ea8:	00000000 	nop
     eac:	10000013 	b	efc <n36_bgezal_test+0xefc>
     eb0:	00000000 	nop
     eb4:	00000000 	nop
     eb8:	00000021 	move	zero,zero
     ebc:	00000021 	move	zero,zero
     ec0:	00000021 	move	zero,zero
     ec4:	00000021 	move	zero,zero
     ec8:	00000021 	move	zero,zero
     ecc:	00000021 	move	zero,zero
     ed0:	00000021 	move	zero,zero
     ed4:	00000021 	move	zero,zero
     ed8:	00000021 	move	zero,zero
     edc:	00000021 	move	zero,zero
     ee0:	00000021 	move	zero,zero
     ee4:	00000021 	move	zero,zero
     ee8:	00000021 	move	zero,zero
     eec:	00000021 	move	zero,zero
     ef0:	00000021 	move	zero,zero
     ef4:	3c127ca7 	lui	s2,0x7ca7
     ef8:	3652863d 	ori	s2,s2,0x863d
     efc:	001fa021 	addu	s4,zero,ra
     f00:	0015f821 	addu	ra,zero,s5
     f04:	3c150000 	lui	s5,0x0
     f08:	26b50e64 	addiu	s5,s5,3684
     f0c:	3c160000 	lui	s6,0x0
     f10:	26d60ea4 	addiu	s6,s6,3748
     f14:	3c18e5b2 	lui	t8,0xe5b2
     f18:	37185fb8 	ori	t8,t8,0x5fb8
     f1c:	161843b0 	bne	s0,t8,11de0 <inst_error>
     f20:	00000000 	nop
     f24:	00000000 	nop
     f28:	3c187ca7 	lui	t8,0x7ca7
     f2c:	3718863d 	ori	t8,t8,0x863d
     f30:	165843ab 	bne	s2,t8,11de0 <inst_error>
     f34:	00000000 	nop
     f38:	00000000 	nop
     f3c:	3c19bfc0 	lui	t9,0xbfc0
     f40:	37390b3c 	ori	t9,t9,0xb3c
     f44:	3c18bfc0 	lui	t8,0xbfc0
     f48:	37180b34 	ori	t8,t8,0xb34
     f4c:	27180008 	addiu	t8,t8,8
     f50:	1319000a 	beq	t8,t9,f7c <n36_bgezal_test+0xf7c>
     f54:	00000000 	nop
     f58:	00000000 	nop
     f5c:	3c18bfc0 	lui	t8,0xbfc0
     f60:	37180b6c 	ori	t8,t8,0xb6c
     f64:	27180008 	addiu	t8,t8,8
     f68:	1319000a 	beq	t8,t9,f94 <n36_bgezal_test+0xf94>
     f6c:	00000000 	nop
     f70:	1000439b 	b	11de0 <inst_error>
     f74:	00000000 	nop
     f78:	00000000 	nop
     f7c:	26b50008 	addiu	s5,s5,8
     f80:	16954397 	bne	s4,s5,11de0 <inst_error>
     f84:	00000000 	nop
     f88:	10000006 	b	fa4 <n36_bgezal_test+0xfa4>
     f8c:	00000000 	nop
     f90:	00000000 	nop
     f94:	26d60008 	addiu	s6,s6,8
     f98:	16964391 	bne	s4,s6,11de0 <inst_error>
     f9c:	00000000 	nop
	...
     fa8:	001fa821 	addu	s5,zero,ra
     fac:	3c0c104f 	lui	t4,0x104f
     fb0:	358c8b6e 	ori	t4,t4,0x8b6e
     fb4:	3c0d2c9e 	lui	t5,0x2c9e
     fb8:	35aded51 	ori	t5,t5,0xed51
     fbc:	24100000 	li	s0,0
     fc0:	10000012 	b	100c <n36_bgezal_test+0x100c>
     fc4:	24120000 	li	s2,0
     fc8:	00000000 	nop
     fcc:	3c10104f 	lui	s0,0x104f
     fd0:	36108b6e 	ori	s0,s0,0x8b6e
     fd4:	05110023 	bgezal	t0,1064 <n36_bgezal_test+0x1064>
     fd8:	00000000 	nop
     fdc:	10000023 	b	106c <n36_bgezal_test+0x106c>
     fe0:	00000000 	nop
     fe4:	00000000 	nop
     fe8:	00000021 	move	zero,zero
     fec:	00000021 	move	zero,zero
     ff0:	00000021 	move	zero,zero
     ff4:	00000021 	move	zero,zero
     ff8:	00000021 	move	zero,zero
     ffc:	00000021 	move	zero,zero
    1000:	00000021 	move	zero,zero
    1004:	00000021 	move	zero,zero
    1008:	00000021 	move	zero,zero
    100c:	3c08d727 	lui	t0,0xd727
    1010:	350804a0 	ori	t0,t0,0x4a0
    1014:	0511ffed 	bgezal	t0,fcc <n36_bgezal_test+0xfcc>
    1018:	00000000 	nop
    101c:	10000013 	b	106c <n36_bgezal_test+0x106c>
    1020:	00000000 	nop
    1024:	00000000 	nop
    1028:	00000021 	move	zero,zero
    102c:	00000021 	move	zero,zero
    1030:	00000021 	move	zero,zero
    1034:	00000021 	move	zero,zero
    1038:	00000021 	move	zero,zero
    103c:	00000021 	move	zero,zero
    1040:	00000021 	move	zero,zero
    1044:	00000021 	move	zero,zero
    1048:	00000021 	move	zero,zero
    104c:	00000021 	move	zero,zero
    1050:	00000021 	move	zero,zero
    1054:	00000021 	move	zero,zero
    1058:	00000021 	move	zero,zero
    105c:	00000021 	move	zero,zero
    1060:	00000021 	move	zero,zero
    1064:	3c122c9e 	lui	s2,0x2c9e
    1068:	3652ed51 	ori	s2,s2,0xed51
    106c:	001fa021 	addu	s4,zero,ra
    1070:	0015f821 	addu	ra,zero,s5
    1074:	3c150000 	lui	s5,0x0
    1078:	26b50fd4 	addiu	s5,s5,4052
    107c:	3c160000 	lui	s6,0x0
    1080:	26d61014 	addiu	s6,s6,4116
    1084:	24180000 	li	t8,0
    1088:	16184355 	bne	s0,t8,11de0 <inst_error>
    108c:	00000000 	nop
    1090:	00000000 	nop
    1094:	24180000 	li	t8,0
    1098:	16584351 	bne	s2,t8,11de0 <inst_error>
    109c:	00000000 	nop
    10a0:	00000000 	nop
    10a4:	3c19bfc0 	lui	t9,0xbfc0
    10a8:	37390c30 	ori	t9,t9,0xc30
    10ac:	3c18bfc0 	lui	t8,0xbfc0
    10b0:	37180bf0 	ori	t8,t8,0xbf0
    10b4:	27180008 	addiu	t8,t8,8
    10b8:	1319000a 	beq	t8,t9,10e4 <n36_bgezal_test+0x10e4>
    10bc:	00000000 	nop
    10c0:	00000000 	nop
    10c4:	3c18bfc0 	lui	t8,0xbfc0
    10c8:	37180c28 	ori	t8,t8,0xc28
    10cc:	27180008 	addiu	t8,t8,8
    10d0:	1319000a 	beq	t8,t9,10fc <n36_bgezal_test+0x10fc>
    10d4:	00000000 	nop
    10d8:	10004341 	b	11de0 <inst_error>
    10dc:	00000000 	nop
    10e0:	00000000 	nop
    10e4:	26b50008 	addiu	s5,s5,8
    10e8:	1695433d 	bne	s4,s5,11de0 <inst_error>
    10ec:	00000000 	nop
    10f0:	10000006 	b	110c <n36_bgezal_test+0x110c>
    10f4:	00000000 	nop
    10f8:	00000000 	nop
    10fc:	26d60008 	addiu	s6,s6,8
    1100:	16964337 	bne	s4,s6,11de0 <inst_error>
    1104:	00000000 	nop
	...
    1110:	001fa821 	addu	s5,zero,ra
    1114:	3c0cd85e 	lui	t4,0xd85e
    1118:	358cd6a8 	ori	t4,t4,0xd6a8
    111c:	3c0d1d5b 	lui	t5,0x1d5b
    1120:	35adc2a6 	ori	t5,t5,0xc2a6
    1124:	24100000 	li	s0,0
    1128:	10000012 	b	1174 <n36_bgezal_test+0x1174>
    112c:	24120000 	li	s2,0
    1130:	00000000 	nop
    1134:	3c10d85e 	lui	s0,0xd85e
    1138:	3610d6a8 	ori	s0,s0,0xd6a8
    113c:	05110023 	bgezal	t0,11cc <n36_bgezal_test+0x11cc>
    1140:	00000000 	nop
    1144:	10000023 	b	11d4 <n36_bgezal_test+0x11d4>
    1148:	00000000 	nop
    114c:	00000000 	nop
    1150:	00000021 	move	zero,zero
    1154:	00000021 	move	zero,zero
    1158:	00000021 	move	zero,zero
    115c:	00000021 	move	zero,zero
    1160:	00000021 	move	zero,zero
    1164:	00000021 	move	zero,zero
    1168:	00000021 	move	zero,zero
    116c:	00000021 	move	zero,zero
    1170:	00000021 	move	zero,zero
    1174:	3c08d431 	lui	t0,0xd431
    1178:	3508c144 	ori	t0,t0,0xc144
    117c:	0511ffed 	bgezal	t0,1134 <n36_bgezal_test+0x1134>
    1180:	00000000 	nop
    1184:	10000013 	b	11d4 <n36_bgezal_test+0x11d4>
    1188:	00000000 	nop
    118c:	00000000 	nop
    1190:	00000021 	move	zero,zero
    1194:	00000021 	move	zero,zero
    1198:	00000021 	move	zero,zero
    119c:	00000021 	move	zero,zero
    11a0:	00000021 	move	zero,zero
    11a4:	00000021 	move	zero,zero
    11a8:	00000021 	move	zero,zero
    11ac:	00000021 	move	zero,zero
    11b0:	00000021 	move	zero,zero
    11b4:	00000021 	move	zero,zero
    11b8:	00000021 	move	zero,zero
    11bc:	00000021 	move	zero,zero
    11c0:	00000021 	move	zero,zero
    11c4:	00000021 	move	zero,zero
    11c8:	00000021 	move	zero,zero
    11cc:	3c121d5b 	lui	s2,0x1d5b
    11d0:	3652c2a6 	ori	s2,s2,0xc2a6
    11d4:	001fa021 	addu	s4,zero,ra
    11d8:	0015f821 	addu	ra,zero,s5
    11dc:	3c150000 	lui	s5,0x0
    11e0:	26b5113c 	addiu	s5,s5,4412
    11e4:	3c160000 	lui	s6,0x0
    11e8:	26d6117c 	addiu	s6,s6,4476
    11ec:	24180000 	li	t8,0
    11f0:	161842fb 	bne	s0,t8,11de0 <inst_error>
    11f4:	00000000 	nop
    11f8:	00000000 	nop
    11fc:	24180000 	li	t8,0
    1200:	165842f7 	bne	s2,t8,11de0 <inst_error>
    1204:	00000000 	nop
    1208:	00000000 	nop
    120c:	3c19bfc0 	lui	t9,0xbfc0
    1210:	37390cec 	ori	t9,t9,0xcec
    1214:	3c18bfc0 	lui	t8,0xbfc0
    1218:	37180cac 	ori	t8,t8,0xcac
    121c:	27180008 	addiu	t8,t8,8
    1220:	1319000a 	beq	t8,t9,124c <n36_bgezal_test+0x124c>
    1224:	00000000 	nop
    1228:	00000000 	nop
    122c:	3c18bfc0 	lui	t8,0xbfc0
    1230:	37180ce4 	ori	t8,t8,0xce4
    1234:	27180008 	addiu	t8,t8,8
    1238:	1319000a 	beq	t8,t9,1264 <n36_bgezal_test+0x1264>
    123c:	00000000 	nop
    1240:	100042e7 	b	11de0 <inst_error>
    1244:	00000000 	nop
    1248:	00000000 	nop
    124c:	26b50008 	addiu	s5,s5,8
    1250:	169542e3 	bne	s4,s5,11de0 <inst_error>
    1254:	00000000 	nop
    1258:	10000006 	b	1274 <n36_bgezal_test+0x1274>
    125c:	00000000 	nop
    1260:	00000000 	nop
    1264:	26d60008 	addiu	s6,s6,8
    1268:	169642dd 	bne	s4,s6,11de0 <inst_error>
    126c:	00000000 	nop
	...
    1278:	001fa821 	addu	s5,zero,ra
    127c:	3c0c7783 	lui	t4,0x7783
    1280:	358ca600 	ori	t4,t4,0xa600
    1284:	3c0ddd8f 	lui	t5,0xdd8f
    1288:	35ad904a 	ori	t5,t5,0x904a
    128c:	24100000 	li	s0,0
    1290:	10000012 	b	12dc <n36_bgezal_test+0x12dc>
    1294:	24120000 	li	s2,0
    1298:	00000000 	nop
    129c:	3c107783 	lui	s0,0x7783
    12a0:	3610a600 	ori	s0,s0,0xa600
    12a4:	05110023 	bgezal	t0,1334 <n36_bgezal_test+0x1334>
    12a8:	00000000 	nop
    12ac:	10000023 	b	133c <n36_bgezal_test+0x133c>
    12b0:	00000000 	nop
    12b4:	00000000 	nop
    12b8:	00000021 	move	zero,zero
    12bc:	00000021 	move	zero,zero
    12c0:	00000021 	move	zero,zero
    12c4:	00000021 	move	zero,zero
    12c8:	00000021 	move	zero,zero
    12cc:	00000021 	move	zero,zero
    12d0:	00000021 	move	zero,zero
    12d4:	00000021 	move	zero,zero
    12d8:	00000021 	move	zero,zero
    12dc:	3c089156 	lui	t0,0x9156
    12e0:	35082900 	ori	t0,t0,0x2900
    12e4:	0511ffed 	bgezal	t0,129c <n36_bgezal_test+0x129c>
    12e8:	00000000 	nop
    12ec:	10000013 	b	133c <n36_bgezal_test+0x133c>
    12f0:	00000000 	nop
    12f4:	00000000 	nop
    12f8:	00000021 	move	zero,zero
    12fc:	00000021 	move	zero,zero
    1300:	00000021 	move	zero,zero
    1304:	00000021 	move	zero,zero
    1308:	00000021 	move	zero,zero
    130c:	00000021 	move	zero,zero
    1310:	00000021 	move	zero,zero
    1314:	00000021 	move	zero,zero
    1318:	00000021 	move	zero,zero
    131c:	00000021 	move	zero,zero
    1320:	00000021 	move	zero,zero
    1324:	00000021 	move	zero,zero
    1328:	00000021 	move	zero,zero
    132c:	00000021 	move	zero,zero
    1330:	00000021 	move	zero,zero
    1334:	3c12dd8f 	lui	s2,0xdd8f
    1338:	3652904a 	ori	s2,s2,0x904a
    133c:	001fa021 	addu	s4,zero,ra
    1340:	0015f821 	addu	ra,zero,s5
    1344:	3c150000 	lui	s5,0x0
    1348:	26b512a4 	addiu	s5,s5,4772
    134c:	3c160000 	lui	s6,0x0
    1350:	26d612e4 	addiu	s6,s6,4836
    1354:	24180000 	li	t8,0
    1358:	161842a1 	bne	s0,t8,11de0 <inst_error>
    135c:	00000000 	nop
    1360:	00000000 	nop
    1364:	24180000 	li	t8,0
    1368:	1658429d 	bne	s2,t8,11de0 <inst_error>
    136c:	00000000 	nop
    1370:	00000000 	nop
    1374:	3c19bfc0 	lui	t9,0xbfc0
    1378:	37390da8 	ori	t9,t9,0xda8
    137c:	3c18bfc0 	lui	t8,0xbfc0
    1380:	37180d68 	ori	t8,t8,0xd68
    1384:	27180008 	addiu	t8,t8,8
    1388:	1319000a 	beq	t8,t9,13b4 <n36_bgezal_test+0x13b4>
    138c:	00000000 	nop
    1390:	00000000 	nop
    1394:	3c18bfc0 	lui	t8,0xbfc0
    1398:	37180da0 	ori	t8,t8,0xda0
    139c:	27180008 	addiu	t8,t8,8
    13a0:	1319000a 	beq	t8,t9,13cc <n36_bgezal_test+0x13cc>
    13a4:	00000000 	nop
    13a8:	1000428d 	b	11de0 <inst_error>
    13ac:	00000000 	nop
    13b0:	00000000 	nop
    13b4:	26b50008 	addiu	s5,s5,8
    13b8:	16954289 	bne	s4,s5,11de0 <inst_error>
    13bc:	00000000 	nop
    13c0:	10000006 	b	13dc <n36_bgezal_test+0x13dc>
    13c4:	00000000 	nop
    13c8:	00000000 	nop
    13cc:	26d60008 	addiu	s6,s6,8
    13d0:	16964283 	bne	s4,s6,11de0 <inst_error>
    13d4:	00000000 	nop
	...
    13e0:	001fa821 	addu	s5,zero,ra
    13e4:	3c0c2e4b 	lui	t4,0x2e4b
    13e8:	358c13e8 	ori	t4,t4,0x13e8
    13ec:	3c0d51ce 	lui	t5,0x51ce
    13f0:	35ad2d10 	ori	t5,t5,0x2d10
    13f4:	24100000 	li	s0,0
    13f8:	10000012 	b	1444 <n36_bgezal_test+0x1444>
    13fc:	24120000 	li	s2,0
    1400:	00000000 	nop
    1404:	3c102e4b 	lui	s0,0x2e4b
    1408:	361013e8 	ori	s0,s0,0x13e8
    140c:	05110023 	bgezal	t0,149c <n36_bgezal_test+0x149c>
    1410:	00000000 	nop
    1414:	10000023 	b	14a4 <n36_bgezal_test+0x14a4>
    1418:	00000000 	nop
    141c:	00000000 	nop
    1420:	00000021 	move	zero,zero
    1424:	00000021 	move	zero,zero
    1428:	00000021 	move	zero,zero
    142c:	00000021 	move	zero,zero
    1430:	00000021 	move	zero,zero
    1434:	00000021 	move	zero,zero
    1438:	00000021 	move	zero,zero
    143c:	00000021 	move	zero,zero
    1440:	00000021 	move	zero,zero
    1444:	3c080ce6 	lui	t0,0xce6
    1448:	3508fe4c 	ori	t0,t0,0xfe4c
    144c:	0511ffed 	bgezal	t0,1404 <n36_bgezal_test+0x1404>
    1450:	00000000 	nop
    1454:	10000013 	b	14a4 <n36_bgezal_test+0x14a4>
    1458:	00000000 	nop
    145c:	00000000 	nop
    1460:	00000021 	move	zero,zero
    1464:	00000021 	move	zero,zero
    1468:	00000021 	move	zero,zero
    146c:	00000021 	move	zero,zero
    1470:	00000021 	move	zero,zero
    1474:	00000021 	move	zero,zero
    1478:	00000021 	move	zero,zero
    147c:	00000021 	move	zero,zero
    1480:	00000021 	move	zero,zero
    1484:	00000021 	move	zero,zero
    1488:	00000021 	move	zero,zero
    148c:	00000021 	move	zero,zero
    1490:	00000021 	move	zero,zero
    1494:	00000021 	move	zero,zero
    1498:	00000021 	move	zero,zero
    149c:	3c1251ce 	lui	s2,0x51ce
    14a0:	36522d10 	ori	s2,s2,0x2d10
    14a4:	001fa021 	addu	s4,zero,ra
    14a8:	0015f821 	addu	ra,zero,s5
    14ac:	3c150000 	lui	s5,0x0
    14b0:	26b5140c 	addiu	s5,s5,5132
    14b4:	3c160000 	lui	s6,0x0
    14b8:	26d6144c 	addiu	s6,s6,5196
    14bc:	3c182e4b 	lui	t8,0x2e4b
    14c0:	371813e8 	ori	t8,t8,0x13e8
    14c4:	16184246 	bne	s0,t8,11de0 <inst_error>
    14c8:	00000000 	nop
    14cc:	00000000 	nop
    14d0:	3c1851ce 	lui	t8,0x51ce
    14d4:	37182d10 	ori	t8,t8,0x2d10
    14d8:	16584241 	bne	s2,t8,11de0 <inst_error>
    14dc:	00000000 	nop
    14e0:	00000000 	nop
    14e4:	3c19bfc0 	lui	t9,0xbfc0
    14e8:	37390e2c 	ori	t9,t9,0xe2c
    14ec:	3c18bfc0 	lui	t8,0xbfc0
    14f0:	37180e24 	ori	t8,t8,0xe24
    14f4:	27180008 	addiu	t8,t8,8
    14f8:	1319000a 	beq	t8,t9,1524 <n36_bgezal_test+0x1524>
    14fc:	00000000 	nop
    1500:	00000000 	nop
    1504:	3c18bfc0 	lui	t8,0xbfc0
    1508:	37180e5c 	ori	t8,t8,0xe5c
    150c:	27180008 	addiu	t8,t8,8
    1510:	1319000a 	beq	t8,t9,153c <n36_bgezal_test+0x153c>
    1514:	00000000 	nop
    1518:	10004231 	b	11de0 <inst_error>
    151c:	00000000 	nop
    1520:	00000000 	nop
    1524:	26b50008 	addiu	s5,s5,8
    1528:	1695422d 	bne	s4,s5,11de0 <inst_error>
    152c:	00000000 	nop
    1530:	10000006 	b	154c <n36_bgezal_test+0x154c>
    1534:	00000000 	nop
    1538:	00000000 	nop
    153c:	26d60008 	addiu	s6,s6,8
    1540:	16964227 	bne	s4,s6,11de0 <inst_error>
    1544:	00000000 	nop
	...
    1550:	001fa821 	addu	s5,zero,ra
    1554:	3c0c968b 	lui	t4,0x968b
    1558:	358c3a48 	ori	t4,t4,0x3a48
    155c:	3c0d6a70 	lui	t5,0x6a70
    1560:	35adb840 	ori	t5,t5,0xb840
    1564:	24100000 	li	s0,0
    1568:	10000012 	b	15b4 <n36_bgezal_test+0x15b4>
    156c:	24120000 	li	s2,0
    1570:	00000000 	nop
    1574:	3c10968b 	lui	s0,0x968b
    1578:	36103a48 	ori	s0,s0,0x3a48
    157c:	05110023 	bgezal	t0,160c <n36_bgezal_test+0x160c>
    1580:	00000000 	nop
    1584:	10000023 	b	1614 <n36_bgezal_test+0x1614>
    1588:	00000000 	nop
    158c:	00000000 	nop
    1590:	00000021 	move	zero,zero
    1594:	00000021 	move	zero,zero
    1598:	00000021 	move	zero,zero
    159c:	00000021 	move	zero,zero
    15a0:	00000021 	move	zero,zero
    15a4:	00000021 	move	zero,zero
    15a8:	00000021 	move	zero,zero
    15ac:	00000021 	move	zero,zero
    15b0:	00000021 	move	zero,zero
    15b4:	3c0826f4 	lui	t0,0x26f4
    15b8:	3508c05b 	ori	t0,t0,0xc05b
    15bc:	0511ffed 	bgezal	t0,1574 <n36_bgezal_test+0x1574>
    15c0:	00000000 	nop
    15c4:	10000013 	b	1614 <n36_bgezal_test+0x1614>
    15c8:	00000000 	nop
    15cc:	00000000 	nop
    15d0:	00000021 	move	zero,zero
    15d4:	00000021 	move	zero,zero
    15d8:	00000021 	move	zero,zero
    15dc:	00000021 	move	zero,zero
    15e0:	00000021 	move	zero,zero
    15e4:	00000021 	move	zero,zero
    15e8:	00000021 	move	zero,zero
    15ec:	00000021 	move	zero,zero
    15f0:	00000021 	move	zero,zero
    15f4:	00000021 	move	zero,zero
    15f8:	00000021 	move	zero,zero
    15fc:	00000021 	move	zero,zero
    1600:	00000021 	move	zero,zero
    1604:	00000021 	move	zero,zero
    1608:	00000021 	move	zero,zero
    160c:	3c126a70 	lui	s2,0x6a70
    1610:	3652b840 	ori	s2,s2,0xb840
    1614:	001fa021 	addu	s4,zero,ra
    1618:	0015f821 	addu	ra,zero,s5
    161c:	3c150000 	lui	s5,0x0
    1620:	26b5157c 	addiu	s5,s5,5500
    1624:	3c160000 	lui	s6,0x0
    1628:	26d615bc 	addiu	s6,s6,5564
    162c:	3c18968b 	lui	t8,0x968b
    1630:	37183a48 	ori	t8,t8,0x3a48
    1634:	161841ea 	bne	s0,t8,11de0 <inst_error>
    1638:	00000000 	nop
    163c:	00000000 	nop
    1640:	3c186a70 	lui	t8,0x6a70
    1644:	3718b840 	ori	t8,t8,0xb840
    1648:	165841e5 	bne	s2,t8,11de0 <inst_error>
    164c:	00000000 	nop
    1650:	00000000 	nop
    1654:	3c19bfc0 	lui	t9,0xbfc0
    1658:	37390ee8 	ori	t9,t9,0xee8
    165c:	3c18bfc0 	lui	t8,0xbfc0
    1660:	37180ee0 	ori	t8,t8,0xee0
    1664:	27180008 	addiu	t8,t8,8
    1668:	1319000a 	beq	t8,t9,1694 <n36_bgezal_test+0x1694>
    166c:	00000000 	nop
    1670:	00000000 	nop
    1674:	3c18bfc0 	lui	t8,0xbfc0
    1678:	37180f18 	ori	t8,t8,0xf18
    167c:	27180008 	addiu	t8,t8,8
    1680:	1319000a 	beq	t8,t9,16ac <n36_bgezal_test+0x16ac>
    1684:	00000000 	nop
    1688:	100041d5 	b	11de0 <inst_error>
    168c:	00000000 	nop
    1690:	00000000 	nop
    1694:	26b50008 	addiu	s5,s5,8
    1698:	169541d1 	bne	s4,s5,11de0 <inst_error>
    169c:	00000000 	nop
    16a0:	10000006 	b	16bc <n36_bgezal_test+0x16bc>
    16a4:	00000000 	nop
    16a8:	00000000 	nop
    16ac:	26d60008 	addiu	s6,s6,8
    16b0:	169641cb 	bne	s4,s6,11de0 <inst_error>
    16b4:	00000000 	nop
	...
    16c0:	001fa821 	addu	s5,zero,ra
    16c4:	3c0cd3f8 	lui	t4,0xd3f8
    16c8:	358cc2d8 	ori	t4,t4,0xc2d8
    16cc:	3c0ddfff 	lui	t5,0xdfff
    16d0:	35ada3a8 	ori	t5,t5,0xa3a8
    16d4:	24100000 	li	s0,0
    16d8:	10000012 	b	1724 <n36_bgezal_test+0x1724>
    16dc:	24120000 	li	s2,0
    16e0:	00000000 	nop
    16e4:	3c10d3f8 	lui	s0,0xd3f8
    16e8:	3610c2d8 	ori	s0,s0,0xc2d8
    16ec:	05110023 	bgezal	t0,177c <n36_bgezal_test+0x177c>
    16f0:	00000000 	nop
    16f4:	10000023 	b	1784 <n36_bgezal_test+0x1784>
    16f8:	00000000 	nop
    16fc:	00000000 	nop
    1700:	00000021 	move	zero,zero
    1704:	00000021 	move	zero,zero
    1708:	00000021 	move	zero,zero
    170c:	00000021 	move	zero,zero
    1710:	00000021 	move	zero,zero
    1714:	00000021 	move	zero,zero
    1718:	00000021 	move	zero,zero
    171c:	00000021 	move	zero,zero
    1720:	00000021 	move	zero,zero
    1724:	3c08c76b 	lui	t0,0xc76b
    1728:	35086cdb 	ori	t0,t0,0x6cdb
    172c:	0511ffed 	bgezal	t0,16e4 <n36_bgezal_test+0x16e4>
    1730:	00000000 	nop
    1734:	10000013 	b	1784 <n36_bgezal_test+0x1784>
    1738:	00000000 	nop
    173c:	00000000 	nop
    1740:	00000021 	move	zero,zero
    1744:	00000021 	move	zero,zero
    1748:	00000021 	move	zero,zero
    174c:	00000021 	move	zero,zero
    1750:	00000021 	move	zero,zero
    1754:	00000021 	move	zero,zero
    1758:	00000021 	move	zero,zero
    175c:	00000021 	move	zero,zero
    1760:	00000021 	move	zero,zero
    1764:	00000021 	move	zero,zero
    1768:	00000021 	move	zero,zero
    176c:	00000021 	move	zero,zero
    1770:	00000021 	move	zero,zero
    1774:	00000021 	move	zero,zero
    1778:	00000021 	move	zero,zero
    177c:	3c12dfff 	lui	s2,0xdfff
    1780:	3652a3a8 	ori	s2,s2,0xa3a8
    1784:	001fa021 	addu	s4,zero,ra
    1788:	0015f821 	addu	ra,zero,s5
    178c:	3c150000 	lui	s5,0x0
    1790:	26b516ec 	addiu	s5,s5,5868
    1794:	3c160000 	lui	s6,0x0
    1798:	26d6172c 	addiu	s6,s6,5932
    179c:	24180000 	li	t8,0
    17a0:	1618418f 	bne	s0,t8,11de0 <inst_error>
    17a4:	00000000 	nop
    17a8:	00000000 	nop
    17ac:	24180000 	li	t8,0
    17b0:	1658418b 	bne	s2,t8,11de0 <inst_error>
    17b4:	00000000 	nop
    17b8:	00000000 	nop
    17bc:	3c19bfc0 	lui	t9,0xbfc0
    17c0:	37390fdc 	ori	t9,t9,0xfdc
    17c4:	3c18bfc0 	lui	t8,0xbfc0
    17c8:	37180f9c 	ori	t8,t8,0xf9c
    17cc:	27180008 	addiu	t8,t8,8
    17d0:	1319000a 	beq	t8,t9,17fc <n36_bgezal_test+0x17fc>
    17d4:	00000000 	nop
    17d8:	00000000 	nop
    17dc:	3c18bfc0 	lui	t8,0xbfc0
    17e0:	37180fd4 	ori	t8,t8,0xfd4
    17e4:	27180008 	addiu	t8,t8,8
    17e8:	1319000a 	beq	t8,t9,1814 <n36_bgezal_test+0x1814>
    17ec:	00000000 	nop
    17f0:	1000417b 	b	11de0 <inst_error>
    17f4:	00000000 	nop
    17f8:	00000000 	nop
    17fc:	26b50008 	addiu	s5,s5,8
    1800:	16954177 	bne	s4,s5,11de0 <inst_error>
    1804:	00000000 	nop
    1808:	10000006 	b	1824 <n36_bgezal_test+0x1824>
    180c:	00000000 	nop
    1810:	00000000 	nop
    1814:	26d60008 	addiu	s6,s6,8
    1818:	16964171 	bne	s4,s6,11de0 <inst_error>
    181c:	00000000 	nop
	...
    1828:	001fa821 	addu	s5,zero,ra
    182c:	3c0c6887 	lui	t4,0x6887
    1830:	358c8e40 	ori	t4,t4,0x8e40
    1834:	3c0d9447 	lui	t5,0x9447
    1838:	35ad1180 	ori	t5,t5,0x1180
    183c:	24100000 	li	s0,0
    1840:	10000012 	b	188c <n36_bgezal_test+0x188c>
    1844:	24120000 	li	s2,0
    1848:	00000000 	nop
    184c:	3c106887 	lui	s0,0x6887
    1850:	36108e40 	ori	s0,s0,0x8e40
    1854:	05110023 	bgezal	t0,18e4 <n36_bgezal_test+0x18e4>
    1858:	00000000 	nop
    185c:	10000023 	b	18ec <n36_bgezal_test+0x18ec>
    1860:	00000000 	nop
    1864:	00000000 	nop
    1868:	00000021 	move	zero,zero
    186c:	00000021 	move	zero,zero
    1870:	00000021 	move	zero,zero
    1874:	00000021 	move	zero,zero
    1878:	00000021 	move	zero,zero
    187c:	00000021 	move	zero,zero
    1880:	00000021 	move	zero,zero
    1884:	00000021 	move	zero,zero
    1888:	00000021 	move	zero,zero
    188c:	3c089660 	lui	t0,0x9660
    1890:	3508824c 	ori	t0,t0,0x824c
    1894:	0511ffed 	bgezal	t0,184c <n36_bgezal_test+0x184c>
    1898:	00000000 	nop
    189c:	10000013 	b	18ec <n36_bgezal_test+0x18ec>
    18a0:	00000000 	nop
    18a4:	00000000 	nop
    18a8:	00000021 	move	zero,zero
    18ac:	00000021 	move	zero,zero
    18b0:	00000021 	move	zero,zero
    18b4:	00000021 	move	zero,zero
    18b8:	00000021 	move	zero,zero
    18bc:	00000021 	move	zero,zero
    18c0:	00000021 	move	zero,zero
    18c4:	00000021 	move	zero,zero
    18c8:	00000021 	move	zero,zero
    18cc:	00000021 	move	zero,zero
    18d0:	00000021 	move	zero,zero
    18d4:	00000021 	move	zero,zero
    18d8:	00000021 	move	zero,zero
    18dc:	00000021 	move	zero,zero
    18e0:	00000021 	move	zero,zero
    18e4:	3c129447 	lui	s2,0x9447
    18e8:	36521180 	ori	s2,s2,0x1180
    18ec:	001fa021 	addu	s4,zero,ra
    18f0:	0015f821 	addu	ra,zero,s5
    18f4:	3c150000 	lui	s5,0x0
    18f8:	26b51854 	addiu	s5,s5,6228
    18fc:	3c160000 	lui	s6,0x0
    1900:	26d61894 	addiu	s6,s6,6292
    1904:	24180000 	li	t8,0
    1908:	16184135 	bne	s0,t8,11de0 <inst_error>
    190c:	00000000 	nop
    1910:	00000000 	nop
    1914:	24180000 	li	t8,0
    1918:	16584131 	bne	s2,t8,11de0 <inst_error>
    191c:	00000000 	nop
    1920:	00000000 	nop
    1924:	3c19bfc0 	lui	t9,0xbfc0
    1928:	37391098 	ori	t9,t9,0x1098
    192c:	3c18bfc0 	lui	t8,0xbfc0
    1930:	37181058 	ori	t8,t8,0x1058
    1934:	27180008 	addiu	t8,t8,8
    1938:	1319000a 	beq	t8,t9,1964 <n36_bgezal_test+0x1964>
    193c:	00000000 	nop
    1940:	00000000 	nop
    1944:	3c18bfc0 	lui	t8,0xbfc0
    1948:	37181090 	ori	t8,t8,0x1090
    194c:	27180008 	addiu	t8,t8,8
    1950:	1319000a 	beq	t8,t9,197c <n36_bgezal_test+0x197c>
    1954:	00000000 	nop
    1958:	10004121 	b	11de0 <inst_error>
    195c:	00000000 	nop
    1960:	00000000 	nop
    1964:	26b50008 	addiu	s5,s5,8
    1968:	1695411d 	bne	s4,s5,11de0 <inst_error>
    196c:	00000000 	nop
    1970:	10000006 	b	198c <n36_bgezal_test+0x198c>
    1974:	00000000 	nop
    1978:	00000000 	nop
    197c:	26d60008 	addiu	s6,s6,8
    1980:	16964117 	bne	s4,s6,11de0 <inst_error>
    1984:	00000000 	nop
	...
    1990:	001fa821 	addu	s5,zero,ra
    1994:	3c0cf7b4 	lui	t4,0xf7b4
    1998:	358c7398 	ori	t4,t4,0x7398
    199c:	3c0db75b 	lui	t5,0xb75b
    19a0:	35ad3f50 	ori	t5,t5,0x3f50
    19a4:	24100000 	li	s0,0
    19a8:	10000012 	b	19f4 <n36_bgezal_test+0x19f4>
    19ac:	24120000 	li	s2,0
    19b0:	00000000 	nop
    19b4:	3c10f7b4 	lui	s0,0xf7b4
    19b8:	36107398 	ori	s0,s0,0x7398
    19bc:	05110023 	bgezal	t0,1a4c <n36_bgezal_test+0x1a4c>
    19c0:	00000000 	nop
    19c4:	10000023 	b	1a54 <n36_bgezal_test+0x1a54>
    19c8:	00000000 	nop
    19cc:	00000000 	nop
    19d0:	00000021 	move	zero,zero
    19d4:	00000021 	move	zero,zero
    19d8:	00000021 	move	zero,zero
    19dc:	00000021 	move	zero,zero
    19e0:	00000021 	move	zero,zero
    19e4:	00000021 	move	zero,zero
    19e8:	00000021 	move	zero,zero
    19ec:	00000021 	move	zero,zero
    19f0:	00000021 	move	zero,zero
    19f4:	3c086c99 	lui	t0,0x6c99
    19f8:	3508e116 	ori	t0,t0,0xe116
    19fc:	0511ffed 	bgezal	t0,19b4 <n36_bgezal_test+0x19b4>
    1a00:	00000000 	nop
    1a04:	10000013 	b	1a54 <n36_bgezal_test+0x1a54>
    1a08:	00000000 	nop
    1a0c:	00000000 	nop
    1a10:	00000021 	move	zero,zero
    1a14:	00000021 	move	zero,zero
    1a18:	00000021 	move	zero,zero
    1a1c:	00000021 	move	zero,zero
    1a20:	00000021 	move	zero,zero
    1a24:	00000021 	move	zero,zero
    1a28:	00000021 	move	zero,zero
    1a2c:	00000021 	move	zero,zero
    1a30:	00000021 	move	zero,zero
    1a34:	00000021 	move	zero,zero
    1a38:	00000021 	move	zero,zero
    1a3c:	00000021 	move	zero,zero
    1a40:	00000021 	move	zero,zero
    1a44:	00000021 	move	zero,zero
    1a48:	00000021 	move	zero,zero
    1a4c:	3c12b75b 	lui	s2,0xb75b
    1a50:	36523f50 	ori	s2,s2,0x3f50
    1a54:	001fa021 	addu	s4,zero,ra
    1a58:	0015f821 	addu	ra,zero,s5
    1a5c:	3c150000 	lui	s5,0x0
    1a60:	26b519bc 	addiu	s5,s5,6588
    1a64:	3c160000 	lui	s6,0x0
    1a68:	26d619fc 	addiu	s6,s6,6652
    1a6c:	3c18f7b4 	lui	t8,0xf7b4
    1a70:	37187398 	ori	t8,t8,0x7398
    1a74:	161840da 	bne	s0,t8,11de0 <inst_error>
    1a78:	00000000 	nop
    1a7c:	00000000 	nop
    1a80:	3c18b75b 	lui	t8,0xb75b
    1a84:	37183f50 	ori	t8,t8,0x3f50
    1a88:	165840d5 	bne	s2,t8,11de0 <inst_error>
    1a8c:	00000000 	nop
    1a90:	00000000 	nop
    1a94:	3c19bfc0 	lui	t9,0xbfc0
    1a98:	3739111c 	ori	t9,t9,0x111c
    1a9c:	3c18bfc0 	lui	t8,0xbfc0
    1aa0:	37181114 	ori	t8,t8,0x1114
    1aa4:	27180008 	addiu	t8,t8,8
    1aa8:	1319000a 	beq	t8,t9,1ad4 <n36_bgezal_test+0x1ad4>
    1aac:	00000000 	nop
    1ab0:	00000000 	nop
    1ab4:	3c18bfc0 	lui	t8,0xbfc0
    1ab8:	3718114c 	ori	t8,t8,0x114c
    1abc:	27180008 	addiu	t8,t8,8
    1ac0:	1319000a 	beq	t8,t9,1aec <n36_bgezal_test+0x1aec>
    1ac4:	00000000 	nop
    1ac8:	100040c5 	b	11de0 <inst_error>
    1acc:	00000000 	nop
    1ad0:	00000000 	nop
    1ad4:	26b50008 	addiu	s5,s5,8
    1ad8:	169540c1 	bne	s4,s5,11de0 <inst_error>
    1adc:	00000000 	nop
    1ae0:	10000006 	b	1afc <n36_bgezal_test+0x1afc>
    1ae4:	00000000 	nop
    1ae8:	00000000 	nop
    1aec:	26d60008 	addiu	s6,s6,8
    1af0:	169640bb 	bne	s4,s6,11de0 <inst_error>
    1af4:	00000000 	nop
	...
    1b00:	001fa821 	addu	s5,zero,ra
    1b04:	3c0c86a2 	lui	t4,0x86a2
    1b08:	358c5bbc 	ori	t4,t4,0x5bbc
    1b0c:	3c0dff4d 	lui	t5,0xff4d
    1b10:	35ad116e 	ori	t5,t5,0x116e
    1b14:	24100000 	li	s0,0
    1b18:	10000012 	b	1b64 <n36_bgezal_test+0x1b64>
    1b1c:	24120000 	li	s2,0
    1b20:	00000000 	nop
    1b24:	3c1086a2 	lui	s0,0x86a2
    1b28:	36105bbc 	ori	s0,s0,0x5bbc
    1b2c:	05110023 	bgezal	t0,1bbc <n36_bgezal_test+0x1bbc>
    1b30:	00000000 	nop
    1b34:	10000023 	b	1bc4 <n36_bgezal_test+0x1bc4>
    1b38:	00000000 	nop
    1b3c:	00000000 	nop
    1b40:	00000021 	move	zero,zero
    1b44:	00000021 	move	zero,zero
    1b48:	00000021 	move	zero,zero
    1b4c:	00000021 	move	zero,zero
    1b50:	00000021 	move	zero,zero
    1b54:	00000021 	move	zero,zero
    1b58:	00000021 	move	zero,zero
    1b5c:	00000021 	move	zero,zero
    1b60:	00000021 	move	zero,zero
    1b64:	3c08ad1c 	lui	t0,0xad1c
    1b68:	3508a3a4 	ori	t0,t0,0xa3a4
    1b6c:	0511ffed 	bgezal	t0,1b24 <n36_bgezal_test+0x1b24>
    1b70:	00000000 	nop
    1b74:	10000013 	b	1bc4 <n36_bgezal_test+0x1bc4>
    1b78:	00000000 	nop
    1b7c:	00000000 	nop
    1b80:	00000021 	move	zero,zero
    1b84:	00000021 	move	zero,zero
    1b88:	00000021 	move	zero,zero
    1b8c:	00000021 	move	zero,zero
    1b90:	00000021 	move	zero,zero
    1b94:	00000021 	move	zero,zero
    1b98:	00000021 	move	zero,zero
    1b9c:	00000021 	move	zero,zero
    1ba0:	00000021 	move	zero,zero
    1ba4:	00000021 	move	zero,zero
    1ba8:	00000021 	move	zero,zero
    1bac:	00000021 	move	zero,zero
    1bb0:	00000021 	move	zero,zero
    1bb4:	00000021 	move	zero,zero
    1bb8:	00000021 	move	zero,zero
    1bbc:	3c12ff4d 	lui	s2,0xff4d
    1bc0:	3652116e 	ori	s2,s2,0x116e
    1bc4:	001fa021 	addu	s4,zero,ra
    1bc8:	0015f821 	addu	ra,zero,s5
    1bcc:	3c150000 	lui	s5,0x0
    1bd0:	26b51b2c 	addiu	s5,s5,6956
    1bd4:	3c160000 	lui	s6,0x0
    1bd8:	26d61b6c 	addiu	s6,s6,7020
    1bdc:	24180000 	li	t8,0
    1be0:	1618407f 	bne	s0,t8,11de0 <inst_error>
    1be4:	00000000 	nop
    1be8:	00000000 	nop
    1bec:	24180000 	li	t8,0
    1bf0:	1658407b 	bne	s2,t8,11de0 <inst_error>
    1bf4:	00000000 	nop
    1bf8:	00000000 	nop
    1bfc:	3c19bfc0 	lui	t9,0xbfc0
    1c00:	37391210 	ori	t9,t9,0x1210
    1c04:	3c18bfc0 	lui	t8,0xbfc0
    1c08:	371811d0 	ori	t8,t8,0x11d0
    1c0c:	27180008 	addiu	t8,t8,8
    1c10:	1319000a 	beq	t8,t9,1c3c <n36_bgezal_test+0x1c3c>
    1c14:	00000000 	nop
    1c18:	00000000 	nop
    1c1c:	3c18bfc0 	lui	t8,0xbfc0
    1c20:	37181208 	ori	t8,t8,0x1208
    1c24:	27180008 	addiu	t8,t8,8
    1c28:	1319000a 	beq	t8,t9,1c54 <n36_bgezal_test+0x1c54>
    1c2c:	00000000 	nop
    1c30:	1000406b 	b	11de0 <inst_error>
    1c34:	00000000 	nop
    1c38:	00000000 	nop
    1c3c:	26b50008 	addiu	s5,s5,8
    1c40:	16954067 	bne	s4,s5,11de0 <inst_error>
    1c44:	00000000 	nop
    1c48:	10000006 	b	1c64 <n36_bgezal_test+0x1c64>
    1c4c:	00000000 	nop
    1c50:	00000000 	nop
    1c54:	26d60008 	addiu	s6,s6,8
    1c58:	16964061 	bne	s4,s6,11de0 <inst_error>
    1c5c:	00000000 	nop
	...
    1c68:	001fa821 	addu	s5,zero,ra
    1c6c:	3c0c55c6 	lui	t4,0x55c6
    1c70:	358c980e 	ori	t4,t4,0x980e
    1c74:	3c0d2f31 	lui	t5,0x2f31
    1c78:	35ad8e50 	ori	t5,t5,0x8e50
    1c7c:	24100000 	li	s0,0
    1c80:	10000012 	b	1ccc <n36_bgezal_test+0x1ccc>
    1c84:	24120000 	li	s2,0
    1c88:	00000000 	nop
    1c8c:	3c1055c6 	lui	s0,0x55c6
    1c90:	3610980e 	ori	s0,s0,0x980e
    1c94:	05110023 	bgezal	t0,1d24 <n36_bgezal_test+0x1d24>
    1c98:	00000000 	nop
    1c9c:	10000023 	b	1d2c <n36_bgezal_test+0x1d2c>
    1ca0:	00000000 	nop
    1ca4:	00000000 	nop
    1ca8:	00000021 	move	zero,zero
    1cac:	00000021 	move	zero,zero
    1cb0:	00000021 	move	zero,zero
    1cb4:	00000021 	move	zero,zero
    1cb8:	00000021 	move	zero,zero
    1cbc:	00000021 	move	zero,zero
    1cc0:	00000021 	move	zero,zero
    1cc4:	00000021 	move	zero,zero
    1cc8:	00000021 	move	zero,zero
    1ccc:	3c08bd1d 	lui	t0,0xbd1d
    1cd0:	3508eccb 	ori	t0,t0,0xeccb
    1cd4:	0511ffed 	bgezal	t0,1c8c <n36_bgezal_test+0x1c8c>
    1cd8:	00000000 	nop
    1cdc:	10000013 	b	1d2c <n36_bgezal_test+0x1d2c>
    1ce0:	00000000 	nop
    1ce4:	00000000 	nop
    1ce8:	00000021 	move	zero,zero
    1cec:	00000021 	move	zero,zero
    1cf0:	00000021 	move	zero,zero
    1cf4:	00000021 	move	zero,zero
    1cf8:	00000021 	move	zero,zero
    1cfc:	00000021 	move	zero,zero
    1d00:	00000021 	move	zero,zero
    1d04:	00000021 	move	zero,zero
    1d08:	00000021 	move	zero,zero
    1d0c:	00000021 	move	zero,zero
    1d10:	00000021 	move	zero,zero
    1d14:	00000021 	move	zero,zero
    1d18:	00000021 	move	zero,zero
    1d1c:	00000021 	move	zero,zero
    1d20:	00000021 	move	zero,zero
    1d24:	3c122f31 	lui	s2,0x2f31
    1d28:	36528e50 	ori	s2,s2,0x8e50
    1d2c:	001fa021 	addu	s4,zero,ra
    1d30:	0015f821 	addu	ra,zero,s5
    1d34:	3c150000 	lui	s5,0x0
    1d38:	26b51c94 	addiu	s5,s5,7316
    1d3c:	3c160000 	lui	s6,0x0
    1d40:	26d61cd4 	addiu	s6,s6,7380
    1d44:	24180000 	li	t8,0
    1d48:	16184025 	bne	s0,t8,11de0 <inst_error>
    1d4c:	00000000 	nop
    1d50:	00000000 	nop
    1d54:	24180000 	li	t8,0
    1d58:	16584021 	bne	s2,t8,11de0 <inst_error>
    1d5c:	00000000 	nop
    1d60:	00000000 	nop
    1d64:	3c19bfc0 	lui	t9,0xbfc0
    1d68:	373912cc 	ori	t9,t9,0x12cc
    1d6c:	3c18bfc0 	lui	t8,0xbfc0
    1d70:	3718128c 	ori	t8,t8,0x128c
    1d74:	27180008 	addiu	t8,t8,8
    1d78:	1319000a 	beq	t8,t9,1da4 <n36_bgezal_test+0x1da4>
    1d7c:	00000000 	nop
    1d80:	00000000 	nop
    1d84:	3c18bfc0 	lui	t8,0xbfc0
    1d88:	371812c4 	ori	t8,t8,0x12c4
    1d8c:	27180008 	addiu	t8,t8,8
    1d90:	1319000a 	beq	t8,t9,1dbc <n36_bgezal_test+0x1dbc>
    1d94:	00000000 	nop
    1d98:	10004011 	b	11de0 <inst_error>
    1d9c:	00000000 	nop
    1da0:	00000000 	nop
    1da4:	26b50008 	addiu	s5,s5,8
    1da8:	1695400d 	bne	s4,s5,11de0 <inst_error>
    1dac:	00000000 	nop
    1db0:	10000006 	b	1dcc <n36_bgezal_test+0x1dcc>
    1db4:	00000000 	nop
    1db8:	00000000 	nop
    1dbc:	26d60008 	addiu	s6,s6,8
    1dc0:	16964007 	bne	s4,s6,11de0 <inst_error>
    1dc4:	00000000 	nop
	...
    1dd0:	001fa821 	addu	s5,zero,ra
    1dd4:	3c0c67f2 	lui	t4,0x67f2
    1dd8:	358c80e6 	ori	t4,t4,0x80e6
    1ddc:	3c0d0752 	lui	t5,0x752
    1de0:	35ad45b0 	ori	t5,t5,0x45b0
    1de4:	24100000 	li	s0,0
    1de8:	10000012 	b	1e34 <n36_bgezal_test+0x1e34>
    1dec:	24120000 	li	s2,0
    1df0:	00000000 	nop
    1df4:	3c1067f2 	lui	s0,0x67f2
    1df8:	361080e6 	ori	s0,s0,0x80e6
    1dfc:	05110023 	bgezal	t0,1e8c <n36_bgezal_test+0x1e8c>
    1e00:	00000000 	nop
    1e04:	10000023 	b	1e94 <n36_bgezal_test+0x1e94>
    1e08:	00000000 	nop
    1e0c:	00000000 	nop
    1e10:	00000021 	move	zero,zero
    1e14:	00000021 	move	zero,zero
    1e18:	00000021 	move	zero,zero
    1e1c:	00000021 	move	zero,zero
    1e20:	00000021 	move	zero,zero
    1e24:	00000021 	move	zero,zero
    1e28:	00000021 	move	zero,zero
    1e2c:	00000021 	move	zero,zero
    1e30:	00000021 	move	zero,zero
    1e34:	3c08355b 	lui	t0,0x355b
    1e38:	35084ad4 	ori	t0,t0,0x4ad4
    1e3c:	0511ffed 	bgezal	t0,1df4 <n36_bgezal_test+0x1df4>
    1e40:	00000000 	nop
    1e44:	10000013 	b	1e94 <n36_bgezal_test+0x1e94>
    1e48:	00000000 	nop
    1e4c:	00000000 	nop
    1e50:	00000021 	move	zero,zero
    1e54:	00000021 	move	zero,zero
    1e58:	00000021 	move	zero,zero
    1e5c:	00000021 	move	zero,zero
    1e60:	00000021 	move	zero,zero
    1e64:	00000021 	move	zero,zero
    1e68:	00000021 	move	zero,zero
    1e6c:	00000021 	move	zero,zero
    1e70:	00000021 	move	zero,zero
    1e74:	00000021 	move	zero,zero
    1e78:	00000021 	move	zero,zero
    1e7c:	00000021 	move	zero,zero
    1e80:	00000021 	move	zero,zero
    1e84:	00000021 	move	zero,zero
    1e88:	00000021 	move	zero,zero
    1e8c:	3c120752 	lui	s2,0x752
    1e90:	365245b0 	ori	s2,s2,0x45b0
    1e94:	001fa021 	addu	s4,zero,ra
    1e98:	0015f821 	addu	ra,zero,s5
    1e9c:	3c150000 	lui	s5,0x0
    1ea0:	26b51dfc 	addiu	s5,s5,7676
    1ea4:	3c160000 	lui	s6,0x0
    1ea8:	26d61e3c 	addiu	s6,s6,7740
    1eac:	3c1867f2 	lui	t8,0x67f2
    1eb0:	371880e6 	ori	t8,t8,0x80e6
    1eb4:	16183fca 	bne	s0,t8,11de0 <inst_error>
    1eb8:	00000000 	nop
    1ebc:	00000000 	nop
    1ec0:	3c180752 	lui	t8,0x752
    1ec4:	371845b0 	ori	t8,t8,0x45b0
    1ec8:	16583fc5 	bne	s2,t8,11de0 <inst_error>
    1ecc:	00000000 	nop
    1ed0:	00000000 	nop
    1ed4:	3c19bfc0 	lui	t9,0xbfc0
    1ed8:	37391350 	ori	t9,t9,0x1350
    1edc:	3c18bfc0 	lui	t8,0xbfc0
    1ee0:	37181348 	ori	t8,t8,0x1348
    1ee4:	27180008 	addiu	t8,t8,8
    1ee8:	1319000a 	beq	t8,t9,1f14 <n36_bgezal_test+0x1f14>
    1eec:	00000000 	nop
    1ef0:	00000000 	nop
    1ef4:	3c18bfc0 	lui	t8,0xbfc0
    1ef8:	37181380 	ori	t8,t8,0x1380
    1efc:	27180008 	addiu	t8,t8,8
    1f00:	1319000a 	beq	t8,t9,1f2c <n36_bgezal_test+0x1f2c>
    1f04:	00000000 	nop
    1f08:	10003fb5 	b	11de0 <inst_error>
    1f0c:	00000000 	nop
    1f10:	00000000 	nop
    1f14:	26b50008 	addiu	s5,s5,8
    1f18:	16953fb1 	bne	s4,s5,11de0 <inst_error>
    1f1c:	00000000 	nop
    1f20:	10000006 	b	1f3c <n36_bgezal_test+0x1f3c>
    1f24:	00000000 	nop
    1f28:	00000000 	nop
    1f2c:	26d60008 	addiu	s6,s6,8
    1f30:	16963fab 	bne	s4,s6,11de0 <inst_error>
    1f34:	00000000 	nop
	...
    1f40:	001fa821 	addu	s5,zero,ra
    1f44:	3c0c6639 	lui	t4,0x6639
    1f48:	358c6481 	ori	t4,t4,0x6481
    1f4c:	3c0d9cf8 	lui	t5,0x9cf8
    1f50:	35adf555 	ori	t5,t5,0xf555
    1f54:	24100000 	li	s0,0
    1f58:	10000012 	b	1fa4 <n36_bgezal_test+0x1fa4>
    1f5c:	24120000 	li	s2,0
    1f60:	00000000 	nop
    1f64:	3c106639 	lui	s0,0x6639
    1f68:	36106481 	ori	s0,s0,0x6481
    1f6c:	05110023 	bgezal	t0,1ffc <n36_bgezal_test+0x1ffc>
    1f70:	00000000 	nop
    1f74:	10000023 	b	2004 <n36_bgezal_test+0x2004>
    1f78:	00000000 	nop
    1f7c:	00000000 	nop
    1f80:	00000021 	move	zero,zero
    1f84:	00000021 	move	zero,zero
    1f88:	00000021 	move	zero,zero
    1f8c:	00000021 	move	zero,zero
    1f90:	00000021 	move	zero,zero
    1f94:	00000021 	move	zero,zero
    1f98:	00000021 	move	zero,zero
    1f9c:	00000021 	move	zero,zero
    1fa0:	00000021 	move	zero,zero
    1fa4:	3c083df9 	lui	t0,0x3df9
    1fa8:	35082cb0 	ori	t0,t0,0x2cb0
    1fac:	0511ffed 	bgezal	t0,1f64 <n36_bgezal_test+0x1f64>
    1fb0:	00000000 	nop
    1fb4:	10000013 	b	2004 <n36_bgezal_test+0x2004>
    1fb8:	00000000 	nop
    1fbc:	00000000 	nop
    1fc0:	00000021 	move	zero,zero
    1fc4:	00000021 	move	zero,zero
    1fc8:	00000021 	move	zero,zero
    1fcc:	00000021 	move	zero,zero
    1fd0:	00000021 	move	zero,zero
    1fd4:	00000021 	move	zero,zero
    1fd8:	00000021 	move	zero,zero
    1fdc:	00000021 	move	zero,zero
    1fe0:	00000021 	move	zero,zero
    1fe4:	00000021 	move	zero,zero
    1fe8:	00000021 	move	zero,zero
    1fec:	00000021 	move	zero,zero
    1ff0:	00000021 	move	zero,zero
    1ff4:	00000021 	move	zero,zero
    1ff8:	00000021 	move	zero,zero
    1ffc:	3c129cf8 	lui	s2,0x9cf8
    2000:	3652f555 	ori	s2,s2,0xf555
    2004:	001fa021 	addu	s4,zero,ra
    2008:	0015f821 	addu	ra,zero,s5
    200c:	3c150000 	lui	s5,0x0
    2010:	26b51f6c 	addiu	s5,s5,8044
    2014:	3c160000 	lui	s6,0x0
    2018:	26d61fac 	addiu	s6,s6,8108
    201c:	3c186639 	lui	t8,0x6639
    2020:	37186481 	ori	t8,t8,0x6481
    2024:	16183f6e 	bne	s0,t8,11de0 <inst_error>
    2028:	00000000 	nop
    202c:	00000000 	nop
    2030:	3c189cf8 	lui	t8,0x9cf8
    2034:	3718f555 	ori	t8,t8,0xf555
    2038:	16583f69 	bne	s2,t8,11de0 <inst_error>
    203c:	00000000 	nop
    2040:	00000000 	nop
    2044:	3c19bfc0 	lui	t9,0xbfc0
    2048:	3739140c 	ori	t9,t9,0x140c
    204c:	3c18bfc0 	lui	t8,0xbfc0
    2050:	37181404 	ori	t8,t8,0x1404
    2054:	27180008 	addiu	t8,t8,8
    2058:	1319000a 	beq	t8,t9,2084 <n36_bgezal_test+0x2084>
    205c:	00000000 	nop
    2060:	00000000 	nop
    2064:	3c18bfc0 	lui	t8,0xbfc0
    2068:	3718143c 	ori	t8,t8,0x143c
    206c:	27180008 	addiu	t8,t8,8
    2070:	1319000a 	beq	t8,t9,209c <n36_bgezal_test+0x209c>
    2074:	00000000 	nop
    2078:	10003f59 	b	11de0 <inst_error>
    207c:	00000000 	nop
    2080:	00000000 	nop
    2084:	26b50008 	addiu	s5,s5,8
    2088:	16953f55 	bne	s4,s5,11de0 <inst_error>
    208c:	00000000 	nop
    2090:	10000006 	b	20ac <n36_bgezal_test+0x20ac>
    2094:	00000000 	nop
    2098:	00000000 	nop
    209c:	26d60008 	addiu	s6,s6,8
    20a0:	16963f4f 	bne	s4,s6,11de0 <inst_error>
    20a4:	00000000 	nop
	...
    20b0:	001fa821 	addu	s5,zero,ra
    20b4:	3c0c9d72 	lui	t4,0x9d72
    20b8:	358c6900 	ori	t4,t4,0x6900
    20bc:	3c0ddff4 	lui	t5,0xdff4
    20c0:	35ad4568 	ori	t5,t5,0x4568
    20c4:	24100000 	li	s0,0
    20c8:	10000012 	b	2114 <n36_bgezal_test+0x2114>
    20cc:	24120000 	li	s2,0
    20d0:	00000000 	nop
    20d4:	3c109d72 	lui	s0,0x9d72
    20d8:	36106900 	ori	s0,s0,0x6900
    20dc:	05110023 	bgezal	t0,216c <n36_bgezal_test+0x216c>
    20e0:	00000000 	nop
    20e4:	10000023 	b	2174 <n36_bgezal_test+0x2174>
    20e8:	00000000 	nop
    20ec:	00000000 	nop
    20f0:	00000021 	move	zero,zero
    20f4:	00000021 	move	zero,zero
    20f8:	00000021 	move	zero,zero
    20fc:	00000021 	move	zero,zero
    2100:	00000021 	move	zero,zero
    2104:	00000021 	move	zero,zero
    2108:	00000021 	move	zero,zero
    210c:	00000021 	move	zero,zero
    2110:	00000021 	move	zero,zero
    2114:	3c08e999 	lui	t0,0xe999
    2118:	35088d40 	ori	t0,t0,0x8d40
    211c:	0511ffed 	bgezal	t0,20d4 <n36_bgezal_test+0x20d4>
    2120:	00000000 	nop
    2124:	10000013 	b	2174 <n36_bgezal_test+0x2174>
    2128:	00000000 	nop
    212c:	00000000 	nop
    2130:	00000021 	move	zero,zero
    2134:	00000021 	move	zero,zero
    2138:	00000021 	move	zero,zero
    213c:	00000021 	move	zero,zero
    2140:	00000021 	move	zero,zero
    2144:	00000021 	move	zero,zero
    2148:	00000021 	move	zero,zero
    214c:	00000021 	move	zero,zero
    2150:	00000021 	move	zero,zero
    2154:	00000021 	move	zero,zero
    2158:	00000021 	move	zero,zero
    215c:	00000021 	move	zero,zero
    2160:	00000021 	move	zero,zero
    2164:	00000021 	move	zero,zero
    2168:	00000021 	move	zero,zero
    216c:	3c12dff4 	lui	s2,0xdff4
    2170:	36524568 	ori	s2,s2,0x4568
    2174:	001fa021 	addu	s4,zero,ra
    2178:	0015f821 	addu	ra,zero,s5
    217c:	3c150000 	lui	s5,0x0
    2180:	26b520dc 	addiu	s5,s5,8412
    2184:	3c160000 	lui	s6,0x0
    2188:	26d6211c 	addiu	s6,s6,8476
    218c:	24180000 	li	t8,0
    2190:	16183f13 	bne	s0,t8,11de0 <inst_error>
    2194:	00000000 	nop
    2198:	00000000 	nop
    219c:	24180000 	li	t8,0
    21a0:	16583f0f 	bne	s2,t8,11de0 <inst_error>
    21a4:	00000000 	nop
    21a8:	00000000 	nop
    21ac:	3c19bfc0 	lui	t9,0xbfc0
    21b0:	37391500 	ori	t9,t9,0x1500
    21b4:	3c18bfc0 	lui	t8,0xbfc0
    21b8:	371814c0 	ori	t8,t8,0x14c0
    21bc:	27180008 	addiu	t8,t8,8
    21c0:	1319000a 	beq	t8,t9,21ec <n36_bgezal_test+0x21ec>
    21c4:	00000000 	nop
    21c8:	00000000 	nop
    21cc:	3c18bfc0 	lui	t8,0xbfc0
    21d0:	371814f8 	ori	t8,t8,0x14f8
    21d4:	27180008 	addiu	t8,t8,8
    21d8:	1319000a 	beq	t8,t9,2204 <n36_bgezal_test+0x2204>
    21dc:	00000000 	nop
    21e0:	10003eff 	b	11de0 <inst_error>
    21e4:	00000000 	nop
    21e8:	00000000 	nop
    21ec:	26b50008 	addiu	s5,s5,8
    21f0:	16953efb 	bne	s4,s5,11de0 <inst_error>
    21f4:	00000000 	nop
    21f8:	10000006 	b	2214 <n36_bgezal_test+0x2214>
    21fc:	00000000 	nop
    2200:	00000000 	nop
    2204:	26d60008 	addiu	s6,s6,8
    2208:	16963ef5 	bne	s4,s6,11de0 <inst_error>
    220c:	00000000 	nop
	...
    2218:	001fa821 	addu	s5,zero,ra
    221c:	3c0c209b 	lui	t4,0x209b
    2220:	358c13ea 	ori	t4,t4,0x13ea
    2224:	3c0d511a 	lui	t5,0x511a
    2228:	35adbe08 	ori	t5,t5,0xbe08
    222c:	24100000 	li	s0,0
    2230:	10000012 	b	227c <n36_bgezal_test+0x227c>
    2234:	24120000 	li	s2,0
    2238:	00000000 	nop
    223c:	3c10209b 	lui	s0,0x209b
    2240:	361013ea 	ori	s0,s0,0x13ea
    2244:	05110023 	bgezal	t0,22d4 <n36_bgezal_test+0x22d4>
    2248:	00000000 	nop
    224c:	10000023 	b	22dc <n36_bgezal_test+0x22dc>
    2250:	00000000 	nop
    2254:	00000000 	nop
    2258:	00000021 	move	zero,zero
    225c:	00000021 	move	zero,zero
    2260:	00000021 	move	zero,zero
    2264:	00000021 	move	zero,zero
    2268:	00000021 	move	zero,zero
    226c:	00000021 	move	zero,zero
    2270:	00000021 	move	zero,zero
    2274:	00000021 	move	zero,zero
    2278:	00000021 	move	zero,zero
    227c:	3c08ac74 	lui	t0,0xac74
    2280:	3508d8e0 	ori	t0,t0,0xd8e0
    2284:	0511ffed 	bgezal	t0,223c <n36_bgezal_test+0x223c>
    2288:	00000000 	nop
    228c:	10000013 	b	22dc <n36_bgezal_test+0x22dc>
    2290:	00000000 	nop
    2294:	00000000 	nop
    2298:	00000021 	move	zero,zero
    229c:	00000021 	move	zero,zero
    22a0:	00000021 	move	zero,zero
    22a4:	00000021 	move	zero,zero
    22a8:	00000021 	move	zero,zero
    22ac:	00000021 	move	zero,zero
    22b0:	00000021 	move	zero,zero
    22b4:	00000021 	move	zero,zero
    22b8:	00000021 	move	zero,zero
    22bc:	00000021 	move	zero,zero
    22c0:	00000021 	move	zero,zero
    22c4:	00000021 	move	zero,zero
    22c8:	00000021 	move	zero,zero
    22cc:	00000021 	move	zero,zero
    22d0:	00000021 	move	zero,zero
    22d4:	3c12511a 	lui	s2,0x511a
    22d8:	3652be08 	ori	s2,s2,0xbe08
    22dc:	001fa021 	addu	s4,zero,ra
    22e0:	0015f821 	addu	ra,zero,s5
    22e4:	3c150000 	lui	s5,0x0
    22e8:	26b52244 	addiu	s5,s5,8772
    22ec:	3c160000 	lui	s6,0x0
    22f0:	26d62284 	addiu	s6,s6,8836
    22f4:	24180000 	li	t8,0
    22f8:	16183eb9 	bne	s0,t8,11de0 <inst_error>
    22fc:	00000000 	nop
    2300:	00000000 	nop
    2304:	24180000 	li	t8,0
    2308:	16583eb5 	bne	s2,t8,11de0 <inst_error>
    230c:	00000000 	nop
    2310:	00000000 	nop
    2314:	3c19bfc0 	lui	t9,0xbfc0
    2318:	373915bc 	ori	t9,t9,0x15bc
    231c:	3c18bfc0 	lui	t8,0xbfc0
    2320:	3718157c 	ori	t8,t8,0x157c
    2324:	27180008 	addiu	t8,t8,8
    2328:	1319000a 	beq	t8,t9,2354 <n36_bgezal_test+0x2354>
    232c:	00000000 	nop
    2330:	00000000 	nop
    2334:	3c18bfc0 	lui	t8,0xbfc0
    2338:	371815b4 	ori	t8,t8,0x15b4
    233c:	27180008 	addiu	t8,t8,8
    2340:	1319000a 	beq	t8,t9,236c <n36_bgezal_test+0x236c>
    2344:	00000000 	nop
    2348:	10003ea5 	b	11de0 <inst_error>
    234c:	00000000 	nop
    2350:	00000000 	nop
    2354:	26b50008 	addiu	s5,s5,8
    2358:	16953ea1 	bne	s4,s5,11de0 <inst_error>
    235c:	00000000 	nop
    2360:	10000006 	b	237c <n36_bgezal_test+0x237c>
    2364:	00000000 	nop
    2368:	00000000 	nop
    236c:	26d60008 	addiu	s6,s6,8
    2370:	16963e9b 	bne	s4,s6,11de0 <inst_error>
    2374:	00000000 	nop
	...
    2380:	001fa821 	addu	s5,zero,ra
    2384:	3c0c49ca 	lui	t4,0x49ca
    2388:	358ccf20 	ori	t4,t4,0xcf20
    238c:	3c0d4269 	lui	t5,0x4269
    2390:	35ad3dc3 	ori	t5,t5,0x3dc3
    2394:	24100000 	li	s0,0
    2398:	10000012 	b	23e4 <n36_bgezal_test+0x23e4>
    239c:	24120000 	li	s2,0
    23a0:	00000000 	nop
    23a4:	3c1049ca 	lui	s0,0x49ca
    23a8:	3610cf20 	ori	s0,s0,0xcf20
    23ac:	05110023 	bgezal	t0,243c <n36_bgezal_test+0x243c>
    23b0:	00000000 	nop
    23b4:	10000023 	b	2444 <n36_bgezal_test+0x2444>
    23b8:	00000000 	nop
    23bc:	00000000 	nop
    23c0:	00000021 	move	zero,zero
    23c4:	00000021 	move	zero,zero
    23c8:	00000021 	move	zero,zero
    23cc:	00000021 	move	zero,zero
    23d0:	00000021 	move	zero,zero
    23d4:	00000021 	move	zero,zero
    23d8:	00000021 	move	zero,zero
    23dc:	00000021 	move	zero,zero
    23e0:	00000021 	move	zero,zero
    23e4:	3c08bf94 	lui	t0,0xbf94
    23e8:	350824d8 	ori	t0,t0,0x24d8
    23ec:	0511ffed 	bgezal	t0,23a4 <n36_bgezal_test+0x23a4>
    23f0:	00000000 	nop
    23f4:	10000013 	b	2444 <n36_bgezal_test+0x2444>
    23f8:	00000000 	nop
    23fc:	00000000 	nop
    2400:	00000021 	move	zero,zero
    2404:	00000021 	move	zero,zero
    2408:	00000021 	move	zero,zero
    240c:	00000021 	move	zero,zero
    2410:	00000021 	move	zero,zero
    2414:	00000021 	move	zero,zero
    2418:	00000021 	move	zero,zero
    241c:	00000021 	move	zero,zero
    2420:	00000021 	move	zero,zero
    2424:	00000021 	move	zero,zero
    2428:	00000021 	move	zero,zero
    242c:	00000021 	move	zero,zero
    2430:	00000021 	move	zero,zero
    2434:	00000021 	move	zero,zero
    2438:	00000021 	move	zero,zero
    243c:	3c124269 	lui	s2,0x4269
    2440:	36523dc3 	ori	s2,s2,0x3dc3
    2444:	001fa021 	addu	s4,zero,ra
    2448:	0015f821 	addu	ra,zero,s5
    244c:	3c150000 	lui	s5,0x0
    2450:	26b523ac 	addiu	s5,s5,9132
    2454:	3c160000 	lui	s6,0x0
    2458:	26d623ec 	addiu	s6,s6,9196
    245c:	24180000 	li	t8,0
    2460:	16183e5f 	bne	s0,t8,11de0 <inst_error>
    2464:	00000000 	nop
    2468:	00000000 	nop
    246c:	24180000 	li	t8,0
    2470:	16583e5b 	bne	s2,t8,11de0 <inst_error>
    2474:	00000000 	nop
    2478:	00000000 	nop
    247c:	3c19bfc0 	lui	t9,0xbfc0
    2480:	37391678 	ori	t9,t9,0x1678
    2484:	3c18bfc0 	lui	t8,0xbfc0
    2488:	37181638 	ori	t8,t8,0x1638
    248c:	27180008 	addiu	t8,t8,8
    2490:	1319000a 	beq	t8,t9,24bc <n36_bgezal_test+0x24bc>
    2494:	00000000 	nop
    2498:	00000000 	nop
    249c:	3c18bfc0 	lui	t8,0xbfc0
    24a0:	37181670 	ori	t8,t8,0x1670
    24a4:	27180008 	addiu	t8,t8,8
    24a8:	1319000a 	beq	t8,t9,24d4 <n36_bgezal_test+0x24d4>
    24ac:	00000000 	nop
    24b0:	10003e4b 	b	11de0 <inst_error>
    24b4:	00000000 	nop
    24b8:	00000000 	nop
    24bc:	26b50008 	addiu	s5,s5,8
    24c0:	16953e47 	bne	s4,s5,11de0 <inst_error>
    24c4:	00000000 	nop
    24c8:	10000006 	b	24e4 <n36_bgezal_test+0x24e4>
    24cc:	00000000 	nop
    24d0:	00000000 	nop
    24d4:	26d60008 	addiu	s6,s6,8
    24d8:	16963e41 	bne	s4,s6,11de0 <inst_error>
    24dc:	00000000 	nop
	...
    24e8:	001fa821 	addu	s5,zero,ra
    24ec:	3c0ca523 	lui	t4,0xa523
    24f0:	358cc75c 	ori	t4,t4,0xc75c
    24f4:	3c0d85bc 	lui	t5,0x85bc
    24f8:	35ade4c0 	ori	t5,t5,0xe4c0
    24fc:	24100000 	li	s0,0
    2500:	10000012 	b	254c <n36_bgezal_test+0x254c>
    2504:	24120000 	li	s2,0
    2508:	00000000 	nop
    250c:	3c10a523 	lui	s0,0xa523
    2510:	3610c75c 	ori	s0,s0,0xc75c
    2514:	05110023 	bgezal	t0,25a4 <n36_bgezal_test+0x25a4>
    2518:	00000000 	nop
    251c:	10000023 	b	25ac <n36_bgezal_test+0x25ac>
    2520:	00000000 	nop
    2524:	00000000 	nop
    2528:	00000021 	move	zero,zero
    252c:	00000021 	move	zero,zero
    2530:	00000021 	move	zero,zero
    2534:	00000021 	move	zero,zero
    2538:	00000021 	move	zero,zero
    253c:	00000021 	move	zero,zero
    2540:	00000021 	move	zero,zero
    2544:	00000021 	move	zero,zero
    2548:	00000021 	move	zero,zero
    254c:	3c0848e3 	lui	t0,0x48e3
    2550:	3508f22e 	ori	t0,t0,0xf22e
    2554:	0511ffed 	bgezal	t0,250c <n36_bgezal_test+0x250c>
    2558:	00000000 	nop
    255c:	10000013 	b	25ac <n36_bgezal_test+0x25ac>
    2560:	00000000 	nop
    2564:	00000000 	nop
    2568:	00000021 	move	zero,zero
    256c:	00000021 	move	zero,zero
    2570:	00000021 	move	zero,zero
    2574:	00000021 	move	zero,zero
    2578:	00000021 	move	zero,zero
    257c:	00000021 	move	zero,zero
    2580:	00000021 	move	zero,zero
    2584:	00000021 	move	zero,zero
    2588:	00000021 	move	zero,zero
    258c:	00000021 	move	zero,zero
    2590:	00000021 	move	zero,zero
    2594:	00000021 	move	zero,zero
    2598:	00000021 	move	zero,zero
    259c:	00000021 	move	zero,zero
    25a0:	00000021 	move	zero,zero
    25a4:	3c1285bc 	lui	s2,0x85bc
    25a8:	3652e4c0 	ori	s2,s2,0xe4c0
    25ac:	001fa021 	addu	s4,zero,ra
    25b0:	0015f821 	addu	ra,zero,s5
    25b4:	3c150000 	lui	s5,0x0
    25b8:	26b52514 	addiu	s5,s5,9492
    25bc:	3c160000 	lui	s6,0x0
    25c0:	26d62554 	addiu	s6,s6,9556
    25c4:	3c18a523 	lui	t8,0xa523
    25c8:	3718c75c 	ori	t8,t8,0xc75c
    25cc:	16183e04 	bne	s0,t8,11de0 <inst_error>
    25d0:	00000000 	nop
    25d4:	00000000 	nop
    25d8:	3c1885bc 	lui	t8,0x85bc
    25dc:	3718e4c0 	ori	t8,t8,0xe4c0
    25e0:	16583dff 	bne	s2,t8,11de0 <inst_error>
    25e4:	00000000 	nop
    25e8:	00000000 	nop
    25ec:	3c19bfc0 	lui	t9,0xbfc0
    25f0:	373916fc 	ori	t9,t9,0x16fc
    25f4:	3c18bfc0 	lui	t8,0xbfc0
    25f8:	371816f4 	ori	t8,t8,0x16f4
    25fc:	27180008 	addiu	t8,t8,8
    2600:	1319000a 	beq	t8,t9,262c <n36_bgezal_test+0x262c>
    2604:	00000000 	nop
    2608:	00000000 	nop
    260c:	3c18bfc0 	lui	t8,0xbfc0
    2610:	3718172c 	ori	t8,t8,0x172c
    2614:	27180008 	addiu	t8,t8,8
    2618:	1319000a 	beq	t8,t9,2644 <n36_bgezal_test+0x2644>
    261c:	00000000 	nop
    2620:	10003def 	b	11de0 <inst_error>
    2624:	00000000 	nop
    2628:	00000000 	nop
    262c:	26b50008 	addiu	s5,s5,8
    2630:	16953deb 	bne	s4,s5,11de0 <inst_error>
    2634:	00000000 	nop
    2638:	10000006 	b	2654 <n36_bgezal_test+0x2654>
    263c:	00000000 	nop
    2640:	00000000 	nop
    2644:	26d60008 	addiu	s6,s6,8
    2648:	16963de5 	bne	s4,s6,11de0 <inst_error>
    264c:	00000000 	nop
	...
    2658:	001fa821 	addu	s5,zero,ra
    265c:	3c0cb7b7 	lui	t4,0xb7b7
    2660:	358c16b0 	ori	t4,t4,0x16b0
    2664:	3c0d88cb 	lui	t5,0x88cb
    2668:	35ad0974 	ori	t5,t5,0x974
    266c:	24100000 	li	s0,0
    2670:	10000012 	b	26bc <n36_bgezal_test+0x26bc>
    2674:	24120000 	li	s2,0
    2678:	00000000 	nop
    267c:	3c10b7b7 	lui	s0,0xb7b7
    2680:	361016b0 	ori	s0,s0,0x16b0
    2684:	05110023 	bgezal	t0,2714 <n36_bgezal_test+0x2714>
    2688:	00000000 	nop
    268c:	10000023 	b	271c <n36_bgezal_test+0x271c>
    2690:	00000000 	nop
    2694:	00000000 	nop
    2698:	00000021 	move	zero,zero
    269c:	00000021 	move	zero,zero
    26a0:	00000021 	move	zero,zero
    26a4:	00000021 	move	zero,zero
    26a8:	00000021 	move	zero,zero
    26ac:	00000021 	move	zero,zero
    26b0:	00000021 	move	zero,zero
    26b4:	00000021 	move	zero,zero
    26b8:	00000021 	move	zero,zero
    26bc:	3c088ec7 	lui	t0,0x8ec7
    26c0:	35087978 	ori	t0,t0,0x7978
    26c4:	0511ffed 	bgezal	t0,267c <n36_bgezal_test+0x267c>
    26c8:	00000000 	nop
    26cc:	10000013 	b	271c <n36_bgezal_test+0x271c>
    26d0:	00000000 	nop
    26d4:	00000000 	nop
    26d8:	00000021 	move	zero,zero
    26dc:	00000021 	move	zero,zero
    26e0:	00000021 	move	zero,zero
    26e4:	00000021 	move	zero,zero
    26e8:	00000021 	move	zero,zero
    26ec:	00000021 	move	zero,zero
    26f0:	00000021 	move	zero,zero
    26f4:	00000021 	move	zero,zero
    26f8:	00000021 	move	zero,zero
    26fc:	00000021 	move	zero,zero
    2700:	00000021 	move	zero,zero
    2704:	00000021 	move	zero,zero
    2708:	00000021 	move	zero,zero
    270c:	00000021 	move	zero,zero
    2710:	00000021 	move	zero,zero
    2714:	3c1288cb 	lui	s2,0x88cb
    2718:	36520974 	ori	s2,s2,0x974
    271c:	001fa021 	addu	s4,zero,ra
    2720:	0015f821 	addu	ra,zero,s5
    2724:	3c150000 	lui	s5,0x0
    2728:	26b52684 	addiu	s5,s5,9860
    272c:	3c160000 	lui	s6,0x0
    2730:	26d626c4 	addiu	s6,s6,9924
    2734:	24180000 	li	t8,0
    2738:	16183da9 	bne	s0,t8,11de0 <inst_error>
    273c:	00000000 	nop
    2740:	00000000 	nop
    2744:	24180000 	li	t8,0
    2748:	16583da5 	bne	s2,t8,11de0 <inst_error>
    274c:	00000000 	nop
    2750:	00000000 	nop
    2754:	3c19bfc0 	lui	t9,0xbfc0
    2758:	373917f0 	ori	t9,t9,0x17f0
    275c:	3c18bfc0 	lui	t8,0xbfc0
    2760:	371817b0 	ori	t8,t8,0x17b0
    2764:	27180008 	addiu	t8,t8,8
    2768:	1319000a 	beq	t8,t9,2794 <n36_bgezal_test+0x2794>
    276c:	00000000 	nop
    2770:	00000000 	nop
    2774:	3c18bfc0 	lui	t8,0xbfc0
    2778:	371817e8 	ori	t8,t8,0x17e8
    277c:	27180008 	addiu	t8,t8,8
    2780:	1319000a 	beq	t8,t9,27ac <n36_bgezal_test+0x27ac>
    2784:	00000000 	nop
    2788:	10003d95 	b	11de0 <inst_error>
    278c:	00000000 	nop
    2790:	00000000 	nop
    2794:	26b50008 	addiu	s5,s5,8
    2798:	16953d91 	bne	s4,s5,11de0 <inst_error>
    279c:	00000000 	nop
    27a0:	10000006 	b	27bc <n36_bgezal_test+0x27bc>
    27a4:	00000000 	nop
    27a8:	00000000 	nop
    27ac:	26d60008 	addiu	s6,s6,8
    27b0:	16963d8b 	bne	s4,s6,11de0 <inst_error>
    27b4:	00000000 	nop
	...
    27c0:	001fa821 	addu	s5,zero,ra
    27c4:	3c0c0ef6 	lui	t4,0xef6
    27c8:	358c9dd0 	ori	t4,t4,0x9dd0
    27cc:	3c0dfa8c 	lui	t5,0xfa8c
    27d0:	35ade8f4 	ori	t5,t5,0xe8f4
    27d4:	24100000 	li	s0,0
    27d8:	10000012 	b	2824 <n36_bgezal_test+0x2824>
    27dc:	24120000 	li	s2,0
    27e0:	00000000 	nop
    27e4:	3c100ef6 	lui	s0,0xef6
    27e8:	36109dd0 	ori	s0,s0,0x9dd0
    27ec:	05110023 	bgezal	t0,287c <n36_bgezal_test+0x287c>
    27f0:	00000000 	nop
    27f4:	10000023 	b	2884 <n36_bgezal_test+0x2884>
    27f8:	00000000 	nop
    27fc:	00000000 	nop
    2800:	00000021 	move	zero,zero
    2804:	00000021 	move	zero,zero
    2808:	00000021 	move	zero,zero
    280c:	00000021 	move	zero,zero
    2810:	00000021 	move	zero,zero
    2814:	00000021 	move	zero,zero
    2818:	00000021 	move	zero,zero
    281c:	00000021 	move	zero,zero
    2820:	00000021 	move	zero,zero
    2824:	3c08c15e 	lui	t0,0xc15e
    2828:	3508fd20 	ori	t0,t0,0xfd20
    282c:	0511ffed 	bgezal	t0,27e4 <n36_bgezal_test+0x27e4>
    2830:	00000000 	nop
    2834:	10000013 	b	2884 <n36_bgezal_test+0x2884>
    2838:	00000000 	nop
    283c:	00000000 	nop
    2840:	00000021 	move	zero,zero
    2844:	00000021 	move	zero,zero
    2848:	00000021 	move	zero,zero
    284c:	00000021 	move	zero,zero
    2850:	00000021 	move	zero,zero
    2854:	00000021 	move	zero,zero
    2858:	00000021 	move	zero,zero
    285c:	00000021 	move	zero,zero
    2860:	00000021 	move	zero,zero
    2864:	00000021 	move	zero,zero
    2868:	00000021 	move	zero,zero
    286c:	00000021 	move	zero,zero
    2870:	00000021 	move	zero,zero
    2874:	00000021 	move	zero,zero
    2878:	00000021 	move	zero,zero
    287c:	3c12fa8c 	lui	s2,0xfa8c
    2880:	3652e8f4 	ori	s2,s2,0xe8f4
    2884:	001fa021 	addu	s4,zero,ra
    2888:	0015f821 	addu	ra,zero,s5
    288c:	3c150000 	lui	s5,0x0
    2890:	26b527ec 	addiu	s5,s5,10220
    2894:	3c160000 	lui	s6,0x0
    2898:	26d6282c 	addiu	s6,s6,10284
    289c:	24180000 	li	t8,0
    28a0:	16183d4f 	bne	s0,t8,11de0 <inst_error>
    28a4:	00000000 	nop
    28a8:	00000000 	nop
    28ac:	24180000 	li	t8,0
    28b0:	16583d4b 	bne	s2,t8,11de0 <inst_error>
    28b4:	00000000 	nop
    28b8:	00000000 	nop
    28bc:	3c19bfc0 	lui	t9,0xbfc0
    28c0:	373918ac 	ori	t9,t9,0x18ac
    28c4:	3c18bfc0 	lui	t8,0xbfc0
    28c8:	3718186c 	ori	t8,t8,0x186c
    28cc:	27180008 	addiu	t8,t8,8
    28d0:	1319000a 	beq	t8,t9,28fc <n36_bgezal_test+0x28fc>
    28d4:	00000000 	nop
    28d8:	00000000 	nop
    28dc:	3c18bfc0 	lui	t8,0xbfc0
    28e0:	371818a4 	ori	t8,t8,0x18a4
    28e4:	27180008 	addiu	t8,t8,8
    28e8:	1319000a 	beq	t8,t9,2914 <n36_bgezal_test+0x2914>
    28ec:	00000000 	nop
    28f0:	10003d3b 	b	11de0 <inst_error>
    28f4:	00000000 	nop
    28f8:	00000000 	nop
    28fc:	26b50008 	addiu	s5,s5,8
    2900:	16953d37 	bne	s4,s5,11de0 <inst_error>
    2904:	00000000 	nop
    2908:	10000006 	b	2924 <n36_bgezal_test+0x2924>
    290c:	00000000 	nop
    2910:	00000000 	nop
    2914:	26d60008 	addiu	s6,s6,8
    2918:	16963d31 	bne	s4,s6,11de0 <inst_error>
    291c:	00000000 	nop
	...
    2928:	001fa821 	addu	s5,zero,ra
    292c:	3c0cee20 	lui	t4,0xee20
    2930:	358ca3d8 	ori	t4,t4,0xa3d8
    2934:	3c0d2cb2 	lui	t5,0x2cb2
    2938:	35ad0ac8 	ori	t5,t5,0xac8
    293c:	24100000 	li	s0,0
    2940:	10000012 	b	298c <n36_bgezal_test+0x298c>
    2944:	24120000 	li	s2,0
    2948:	00000000 	nop
    294c:	3c10ee20 	lui	s0,0xee20
    2950:	3610a3d8 	ori	s0,s0,0xa3d8
    2954:	05110023 	bgezal	t0,29e4 <n36_bgezal_test+0x29e4>
    2958:	00000000 	nop
    295c:	10000023 	b	29ec <n36_bgezal_test+0x29ec>
    2960:	00000000 	nop
    2964:	00000000 	nop
    2968:	00000021 	move	zero,zero
    296c:	00000021 	move	zero,zero
    2970:	00000021 	move	zero,zero
    2974:	00000021 	move	zero,zero
    2978:	00000021 	move	zero,zero
    297c:	00000021 	move	zero,zero
    2980:	00000021 	move	zero,zero
    2984:	00000021 	move	zero,zero
    2988:	00000021 	move	zero,zero
    298c:	3c089c29 	lui	t0,0x9c29
    2990:	3508f658 	ori	t0,t0,0xf658
    2994:	0511ffed 	bgezal	t0,294c <n36_bgezal_test+0x294c>
    2998:	00000000 	nop
    299c:	10000013 	b	29ec <n36_bgezal_test+0x29ec>
    29a0:	00000000 	nop
    29a4:	00000000 	nop
    29a8:	00000021 	move	zero,zero
    29ac:	00000021 	move	zero,zero
    29b0:	00000021 	move	zero,zero
    29b4:	00000021 	move	zero,zero
    29b8:	00000021 	move	zero,zero
    29bc:	00000021 	move	zero,zero
    29c0:	00000021 	move	zero,zero
    29c4:	00000021 	move	zero,zero
    29c8:	00000021 	move	zero,zero
    29cc:	00000021 	move	zero,zero
    29d0:	00000021 	move	zero,zero
    29d4:	00000021 	move	zero,zero
    29d8:	00000021 	move	zero,zero
    29dc:	00000021 	move	zero,zero
    29e0:	00000021 	move	zero,zero
    29e4:	3c122cb2 	lui	s2,0x2cb2
    29e8:	36520ac8 	ori	s2,s2,0xac8
    29ec:	001fa021 	addu	s4,zero,ra
    29f0:	0015f821 	addu	ra,zero,s5
    29f4:	3c150000 	lui	s5,0x0
    29f8:	26b52954 	addiu	s5,s5,10580
    29fc:	3c160000 	lui	s6,0x0
    2a00:	26d62994 	addiu	s6,s6,10644
    2a04:	24180000 	li	t8,0
    2a08:	16183cf5 	bne	s0,t8,11de0 <inst_error>
    2a0c:	00000000 	nop
    2a10:	00000000 	nop
    2a14:	24180000 	li	t8,0
    2a18:	16583cf1 	bne	s2,t8,11de0 <inst_error>
    2a1c:	00000000 	nop
    2a20:	00000000 	nop
    2a24:	3c19bfc0 	lui	t9,0xbfc0
    2a28:	37391968 	ori	t9,t9,0x1968
    2a2c:	3c18bfc0 	lui	t8,0xbfc0
    2a30:	37181928 	ori	t8,t8,0x1928
    2a34:	27180008 	addiu	t8,t8,8
    2a38:	1319000a 	beq	t8,t9,2a64 <n36_bgezal_test+0x2a64>
    2a3c:	00000000 	nop
    2a40:	00000000 	nop
    2a44:	3c18bfc0 	lui	t8,0xbfc0
    2a48:	37181960 	ori	t8,t8,0x1960
    2a4c:	27180008 	addiu	t8,t8,8
    2a50:	1319000a 	beq	t8,t9,2a7c <n36_bgezal_test+0x2a7c>
    2a54:	00000000 	nop
    2a58:	10003ce1 	b	11de0 <inst_error>
    2a5c:	00000000 	nop
    2a60:	00000000 	nop
    2a64:	26b50008 	addiu	s5,s5,8
    2a68:	16953cdd 	bne	s4,s5,11de0 <inst_error>
    2a6c:	00000000 	nop
    2a70:	10000006 	b	2a8c <n36_bgezal_test+0x2a8c>
    2a74:	00000000 	nop
    2a78:	00000000 	nop
    2a7c:	26d60008 	addiu	s6,s6,8
    2a80:	16963cd7 	bne	s4,s6,11de0 <inst_error>
    2a84:	00000000 	nop
	...
    2a90:	001fa821 	addu	s5,zero,ra
    2a94:	3c0c838d 	lui	t4,0x838d
    2a98:	358c0cd4 	ori	t4,t4,0xcd4
    2a9c:	3c0dc0a5 	lui	t5,0xc0a5
    2aa0:	35adf39a 	ori	t5,t5,0xf39a
    2aa4:	24100000 	li	s0,0
    2aa8:	10000012 	b	2af4 <n36_bgezal_test+0x2af4>
    2aac:	24120000 	li	s2,0
    2ab0:	00000000 	nop
    2ab4:	3c10838d 	lui	s0,0x838d
    2ab8:	36100cd4 	ori	s0,s0,0xcd4
    2abc:	05110023 	bgezal	t0,2b4c <n36_bgezal_test+0x2b4c>
    2ac0:	00000000 	nop
    2ac4:	10000023 	b	2b54 <n36_bgezal_test+0x2b54>
    2ac8:	00000000 	nop
    2acc:	00000000 	nop
    2ad0:	00000021 	move	zero,zero
    2ad4:	00000021 	move	zero,zero
    2ad8:	00000021 	move	zero,zero
    2adc:	00000021 	move	zero,zero
    2ae0:	00000021 	move	zero,zero
    2ae4:	00000021 	move	zero,zero
    2ae8:	00000021 	move	zero,zero
    2aec:	00000021 	move	zero,zero
    2af0:	00000021 	move	zero,zero
    2af4:	3c081c62 	lui	t0,0x1c62
    2af8:	35084d80 	ori	t0,t0,0x4d80
    2afc:	0511ffed 	bgezal	t0,2ab4 <n36_bgezal_test+0x2ab4>
    2b00:	00000000 	nop
    2b04:	10000013 	b	2b54 <n36_bgezal_test+0x2b54>
    2b08:	00000000 	nop
    2b0c:	00000000 	nop
    2b10:	00000021 	move	zero,zero
    2b14:	00000021 	move	zero,zero
    2b18:	00000021 	move	zero,zero
    2b1c:	00000021 	move	zero,zero
    2b20:	00000021 	move	zero,zero
    2b24:	00000021 	move	zero,zero
    2b28:	00000021 	move	zero,zero
    2b2c:	00000021 	move	zero,zero
    2b30:	00000021 	move	zero,zero
    2b34:	00000021 	move	zero,zero
    2b38:	00000021 	move	zero,zero
    2b3c:	00000021 	move	zero,zero
    2b40:	00000021 	move	zero,zero
    2b44:	00000021 	move	zero,zero
    2b48:	00000021 	move	zero,zero
    2b4c:	3c12c0a5 	lui	s2,0xc0a5
    2b50:	3652f39a 	ori	s2,s2,0xf39a
    2b54:	001fa021 	addu	s4,zero,ra
    2b58:	0015f821 	addu	ra,zero,s5
    2b5c:	3c150000 	lui	s5,0x0
    2b60:	26b52abc 	addiu	s5,s5,10940
    2b64:	3c160000 	lui	s6,0x0
    2b68:	26d62afc 	addiu	s6,s6,11004
    2b6c:	3c18838d 	lui	t8,0x838d
    2b70:	37180cd4 	ori	t8,t8,0xcd4
    2b74:	16183c9a 	bne	s0,t8,11de0 <inst_error>
    2b78:	00000000 	nop
    2b7c:	00000000 	nop
    2b80:	3c18c0a5 	lui	t8,0xc0a5
    2b84:	3718f39a 	ori	t8,t8,0xf39a
    2b88:	16583c95 	bne	s2,t8,11de0 <inst_error>
    2b8c:	00000000 	nop
    2b90:	00000000 	nop
    2b94:	3c19bfc0 	lui	t9,0xbfc0
    2b98:	373919ec 	ori	t9,t9,0x19ec
    2b9c:	3c18bfc0 	lui	t8,0xbfc0
    2ba0:	371819e4 	ori	t8,t8,0x19e4
    2ba4:	27180008 	addiu	t8,t8,8
    2ba8:	1319000a 	beq	t8,t9,2bd4 <n36_bgezal_test+0x2bd4>
    2bac:	00000000 	nop
    2bb0:	00000000 	nop
    2bb4:	3c18bfc0 	lui	t8,0xbfc0
    2bb8:	37181a1c 	ori	t8,t8,0x1a1c
    2bbc:	27180008 	addiu	t8,t8,8
    2bc0:	1319000a 	beq	t8,t9,2bec <n36_bgezal_test+0x2bec>
    2bc4:	00000000 	nop
    2bc8:	10003c85 	b	11de0 <inst_error>
    2bcc:	00000000 	nop
    2bd0:	00000000 	nop
    2bd4:	26b50008 	addiu	s5,s5,8
    2bd8:	16953c81 	bne	s4,s5,11de0 <inst_error>
    2bdc:	00000000 	nop
    2be0:	10000006 	b	2bfc <n36_bgezal_test+0x2bfc>
    2be4:	00000000 	nop
    2be8:	00000000 	nop
    2bec:	26d60008 	addiu	s6,s6,8
    2bf0:	16963c7b 	bne	s4,s6,11de0 <inst_error>
    2bf4:	00000000 	nop
	...
    2c00:	001fa821 	addu	s5,zero,ra
    2c04:	3c0c2277 	lui	t4,0x2277
    2c08:	358cd010 	ori	t4,t4,0xd010
    2c0c:	3c0da318 	lui	t5,0xa318
    2c10:	35ad58e4 	ori	t5,t5,0x58e4
    2c14:	24100000 	li	s0,0
    2c18:	10000012 	b	2c64 <n36_bgezal_test+0x2c64>
    2c1c:	24120000 	li	s2,0
    2c20:	00000000 	nop
    2c24:	3c102277 	lui	s0,0x2277
    2c28:	3610d010 	ori	s0,s0,0xd010
    2c2c:	05110023 	bgezal	t0,2cbc <n36_bgezal_test+0x2cbc>
    2c30:	00000000 	nop
    2c34:	10000023 	b	2cc4 <n36_bgezal_test+0x2cc4>
    2c38:	00000000 	nop
    2c3c:	00000000 	nop
    2c40:	00000021 	move	zero,zero
    2c44:	00000021 	move	zero,zero
    2c48:	00000021 	move	zero,zero
    2c4c:	00000021 	move	zero,zero
    2c50:	00000021 	move	zero,zero
    2c54:	00000021 	move	zero,zero
    2c58:	00000021 	move	zero,zero
    2c5c:	00000021 	move	zero,zero
    2c60:	00000021 	move	zero,zero
    2c64:	3c08fafd 	lui	t0,0xfafd
    2c68:	35081778 	ori	t0,t0,0x1778
    2c6c:	0511ffed 	bgezal	t0,2c24 <n36_bgezal_test+0x2c24>
    2c70:	00000000 	nop
    2c74:	10000013 	b	2cc4 <n36_bgezal_test+0x2cc4>
    2c78:	00000000 	nop
    2c7c:	00000000 	nop
    2c80:	00000021 	move	zero,zero
    2c84:	00000021 	move	zero,zero
    2c88:	00000021 	move	zero,zero
    2c8c:	00000021 	move	zero,zero
    2c90:	00000021 	move	zero,zero
    2c94:	00000021 	move	zero,zero
    2c98:	00000021 	move	zero,zero
    2c9c:	00000021 	move	zero,zero
    2ca0:	00000021 	move	zero,zero
    2ca4:	00000021 	move	zero,zero
    2ca8:	00000021 	move	zero,zero
    2cac:	00000021 	move	zero,zero
    2cb0:	00000021 	move	zero,zero
    2cb4:	00000021 	move	zero,zero
    2cb8:	00000021 	move	zero,zero
    2cbc:	3c12a318 	lui	s2,0xa318
    2cc0:	365258e4 	ori	s2,s2,0x58e4
    2cc4:	001fa021 	addu	s4,zero,ra
    2cc8:	0015f821 	addu	ra,zero,s5
    2ccc:	3c150000 	lui	s5,0x0
    2cd0:	26b52c2c 	addiu	s5,s5,11308
    2cd4:	3c160000 	lui	s6,0x0
    2cd8:	26d62c6c 	addiu	s6,s6,11372
    2cdc:	24180000 	li	t8,0
    2ce0:	16183c3f 	bne	s0,t8,11de0 <inst_error>
    2ce4:	00000000 	nop
    2ce8:	00000000 	nop
    2cec:	24180000 	li	t8,0
    2cf0:	16583c3b 	bne	s2,t8,11de0 <inst_error>
    2cf4:	00000000 	nop
    2cf8:	00000000 	nop
    2cfc:	3c19bfc0 	lui	t9,0xbfc0
    2d00:	37391ae0 	ori	t9,t9,0x1ae0
    2d04:	3c18bfc0 	lui	t8,0xbfc0
    2d08:	37181aa0 	ori	t8,t8,0x1aa0
    2d0c:	27180008 	addiu	t8,t8,8
    2d10:	1319000a 	beq	t8,t9,2d3c <n36_bgezal_test+0x2d3c>
    2d14:	00000000 	nop
    2d18:	00000000 	nop
    2d1c:	3c18bfc0 	lui	t8,0xbfc0
    2d20:	37181ad8 	ori	t8,t8,0x1ad8
    2d24:	27180008 	addiu	t8,t8,8
    2d28:	1319000a 	beq	t8,t9,2d54 <n36_bgezal_test+0x2d54>
    2d2c:	00000000 	nop
    2d30:	10003c2b 	b	11de0 <inst_error>
    2d34:	00000000 	nop
    2d38:	00000000 	nop
    2d3c:	26b50008 	addiu	s5,s5,8
    2d40:	16953c27 	bne	s4,s5,11de0 <inst_error>
    2d44:	00000000 	nop
    2d48:	10000006 	b	2d64 <n36_bgezal_test+0x2d64>
    2d4c:	00000000 	nop
    2d50:	00000000 	nop
    2d54:	26d60008 	addiu	s6,s6,8
    2d58:	16963c21 	bne	s4,s6,11de0 <inst_error>
    2d5c:	00000000 	nop
	...
    2d68:	001fa821 	addu	s5,zero,ra
    2d6c:	3c0c4e4c 	lui	t4,0x4e4c
    2d70:	358cf3c3 	ori	t4,t4,0xf3c3
    2d74:	3c0d65cb 	lui	t5,0x65cb
    2d78:	35ad3d2a 	ori	t5,t5,0x3d2a
    2d7c:	24100000 	li	s0,0
    2d80:	10000012 	b	2dcc <n36_bgezal_test+0x2dcc>
    2d84:	24120000 	li	s2,0
    2d88:	00000000 	nop
    2d8c:	3c104e4c 	lui	s0,0x4e4c
    2d90:	3610f3c3 	ori	s0,s0,0xf3c3
    2d94:	05110023 	bgezal	t0,2e24 <n36_bgezal_test+0x2e24>
    2d98:	00000000 	nop
    2d9c:	10000023 	b	2e2c <n36_bgezal_test+0x2e2c>
    2da0:	00000000 	nop
    2da4:	00000000 	nop
    2da8:	00000021 	move	zero,zero
    2dac:	00000021 	move	zero,zero
    2db0:	00000021 	move	zero,zero
    2db4:	00000021 	move	zero,zero
    2db8:	00000021 	move	zero,zero
    2dbc:	00000021 	move	zero,zero
    2dc0:	00000021 	move	zero,zero
    2dc4:	00000021 	move	zero,zero
    2dc8:	00000021 	move	zero,zero
    2dcc:	3c08b129 	lui	t0,0xb129
    2dd0:	3508bb70 	ori	t0,t0,0xbb70
    2dd4:	0511ffed 	bgezal	t0,2d8c <n36_bgezal_test+0x2d8c>
    2dd8:	00000000 	nop
    2ddc:	10000013 	b	2e2c <n36_bgezal_test+0x2e2c>
    2de0:	00000000 	nop
    2de4:	00000000 	nop
    2de8:	00000021 	move	zero,zero
    2dec:	00000021 	move	zero,zero
    2df0:	00000021 	move	zero,zero
    2df4:	00000021 	move	zero,zero
    2df8:	00000021 	move	zero,zero
    2dfc:	00000021 	move	zero,zero
    2e00:	00000021 	move	zero,zero
    2e04:	00000021 	move	zero,zero
    2e08:	00000021 	move	zero,zero
    2e0c:	00000021 	move	zero,zero
    2e10:	00000021 	move	zero,zero
    2e14:	00000021 	move	zero,zero
    2e18:	00000021 	move	zero,zero
    2e1c:	00000021 	move	zero,zero
    2e20:	00000021 	move	zero,zero
    2e24:	3c1265cb 	lui	s2,0x65cb
    2e28:	36523d2a 	ori	s2,s2,0x3d2a
    2e2c:	001fa021 	addu	s4,zero,ra
    2e30:	0015f821 	addu	ra,zero,s5
    2e34:	3c150000 	lui	s5,0x0
    2e38:	26b52d94 	addiu	s5,s5,11668
    2e3c:	3c160000 	lui	s6,0x0
    2e40:	26d62dd4 	addiu	s6,s6,11732
    2e44:	24180000 	li	t8,0
    2e48:	16183be5 	bne	s0,t8,11de0 <inst_error>
    2e4c:	00000000 	nop
    2e50:	00000000 	nop
    2e54:	24180000 	li	t8,0
    2e58:	16583be1 	bne	s2,t8,11de0 <inst_error>
    2e5c:	00000000 	nop
    2e60:	00000000 	nop
    2e64:	3c19bfc0 	lui	t9,0xbfc0
    2e68:	37391b9c 	ori	t9,t9,0x1b9c
    2e6c:	3c18bfc0 	lui	t8,0xbfc0
    2e70:	37181b5c 	ori	t8,t8,0x1b5c
    2e74:	27180008 	addiu	t8,t8,8
    2e78:	1319000a 	beq	t8,t9,2ea4 <n36_bgezal_test+0x2ea4>
    2e7c:	00000000 	nop
    2e80:	00000000 	nop
    2e84:	3c18bfc0 	lui	t8,0xbfc0
    2e88:	37181b94 	ori	t8,t8,0x1b94
    2e8c:	27180008 	addiu	t8,t8,8
    2e90:	1319000a 	beq	t8,t9,2ebc <n36_bgezal_test+0x2ebc>
    2e94:	00000000 	nop
    2e98:	10003bd1 	b	11de0 <inst_error>
    2e9c:	00000000 	nop
    2ea0:	00000000 	nop
    2ea4:	26b50008 	addiu	s5,s5,8
    2ea8:	16953bcd 	bne	s4,s5,11de0 <inst_error>
    2eac:	00000000 	nop
    2eb0:	10000006 	b	2ecc <n36_bgezal_test+0x2ecc>
    2eb4:	00000000 	nop
    2eb8:	00000000 	nop
    2ebc:	26d60008 	addiu	s6,s6,8
    2ec0:	16963bc7 	bne	s4,s6,11de0 <inst_error>
    2ec4:	00000000 	nop
	...
    2ed0:	001fa821 	addu	s5,zero,ra
    2ed4:	3c0c3b80 	lui	t4,0x3b80
    2ed8:	358c0bd9 	ori	t4,t4,0xbd9
    2edc:	3c0ddc10 	lui	t5,0xdc10
    2ee0:	35ad2e20 	ori	t5,t5,0x2e20
    2ee4:	24100000 	li	s0,0
    2ee8:	10000012 	b	2f34 <n36_bgezal_test+0x2f34>
    2eec:	24120000 	li	s2,0
    2ef0:	00000000 	nop
    2ef4:	3c103b80 	lui	s0,0x3b80
    2ef8:	36100bd9 	ori	s0,s0,0xbd9
    2efc:	05110023 	bgezal	t0,2f8c <n36_bgezal_test+0x2f8c>
    2f00:	00000000 	nop
    2f04:	10000023 	b	2f94 <n36_bgezal_test+0x2f94>
    2f08:	00000000 	nop
    2f0c:	00000000 	nop
    2f10:	00000021 	move	zero,zero
    2f14:	00000021 	move	zero,zero
    2f18:	00000021 	move	zero,zero
    2f1c:	00000021 	move	zero,zero
    2f20:	00000021 	move	zero,zero
    2f24:	00000021 	move	zero,zero
    2f28:	00000021 	move	zero,zero
    2f2c:	00000021 	move	zero,zero
    2f30:	00000021 	move	zero,zero
    2f34:	3c087ab4 	lui	t0,0x7ab4
    2f38:	3508682c 	ori	t0,t0,0x682c
    2f3c:	0511ffed 	bgezal	t0,2ef4 <n36_bgezal_test+0x2ef4>
    2f40:	00000000 	nop
    2f44:	10000013 	b	2f94 <n36_bgezal_test+0x2f94>
    2f48:	00000000 	nop
    2f4c:	00000000 	nop
    2f50:	00000021 	move	zero,zero
    2f54:	00000021 	move	zero,zero
    2f58:	00000021 	move	zero,zero
    2f5c:	00000021 	move	zero,zero
    2f60:	00000021 	move	zero,zero
    2f64:	00000021 	move	zero,zero
    2f68:	00000021 	move	zero,zero
    2f6c:	00000021 	move	zero,zero
    2f70:	00000021 	move	zero,zero
    2f74:	00000021 	move	zero,zero
    2f78:	00000021 	move	zero,zero
    2f7c:	00000021 	move	zero,zero
    2f80:	00000021 	move	zero,zero
    2f84:	00000021 	move	zero,zero
    2f88:	00000021 	move	zero,zero
    2f8c:	3c12dc10 	lui	s2,0xdc10
    2f90:	36522e20 	ori	s2,s2,0x2e20
    2f94:	001fa021 	addu	s4,zero,ra
    2f98:	0015f821 	addu	ra,zero,s5
    2f9c:	3c150000 	lui	s5,0x0
    2fa0:	26b52efc 	addiu	s5,s5,12028
    2fa4:	3c160000 	lui	s6,0x0
    2fa8:	26d62f3c 	addiu	s6,s6,12092
    2fac:	3c183b80 	lui	t8,0x3b80
    2fb0:	37180bd9 	ori	t8,t8,0xbd9
    2fb4:	16183b8a 	bne	s0,t8,11de0 <inst_error>
    2fb8:	00000000 	nop
    2fbc:	00000000 	nop
    2fc0:	3c18dc10 	lui	t8,0xdc10
    2fc4:	37182e20 	ori	t8,t8,0x2e20
    2fc8:	16583b85 	bne	s2,t8,11de0 <inst_error>
    2fcc:	00000000 	nop
    2fd0:	00000000 	nop
    2fd4:	3c19bfc0 	lui	t9,0xbfc0
    2fd8:	37391c20 	ori	t9,t9,0x1c20
    2fdc:	3c18bfc0 	lui	t8,0xbfc0
    2fe0:	37181c18 	ori	t8,t8,0x1c18
    2fe4:	27180008 	addiu	t8,t8,8
    2fe8:	1319000a 	beq	t8,t9,3014 <n36_bgezal_test+0x3014>
    2fec:	00000000 	nop
    2ff0:	00000000 	nop
    2ff4:	3c18bfc0 	lui	t8,0xbfc0
    2ff8:	37181c50 	ori	t8,t8,0x1c50
    2ffc:	27180008 	addiu	t8,t8,8
    3000:	1319000a 	beq	t8,t9,302c <n36_bgezal_test+0x302c>
    3004:	00000000 	nop
    3008:	10003b75 	b	11de0 <inst_error>
    300c:	00000000 	nop
    3010:	00000000 	nop
    3014:	26b50008 	addiu	s5,s5,8
    3018:	16953b71 	bne	s4,s5,11de0 <inst_error>
    301c:	00000000 	nop
    3020:	10000006 	b	303c <n36_bgezal_test+0x303c>
    3024:	00000000 	nop
    3028:	00000000 	nop
    302c:	26d60008 	addiu	s6,s6,8
    3030:	16963b6b 	bne	s4,s6,11de0 <inst_error>
    3034:	00000000 	nop
	...
    3040:	001fa821 	addu	s5,zero,ra
    3044:	3c0c3d76 	lui	t4,0x3d76
    3048:	358c2dfa 	ori	t4,t4,0x2dfa
    304c:	3c0dbf9f 	lui	t5,0xbf9f
    3050:	35adbd50 	ori	t5,t5,0xbd50
    3054:	24100000 	li	s0,0
    3058:	10000012 	b	30a4 <n36_bgezal_test+0x30a4>
    305c:	24120000 	li	s2,0
    3060:	00000000 	nop
    3064:	3c103d76 	lui	s0,0x3d76
    3068:	36102dfa 	ori	s0,s0,0x2dfa
    306c:	05110023 	bgezal	t0,30fc <n36_bgezal_test+0x30fc>
    3070:	00000000 	nop
    3074:	10000023 	b	3104 <n36_bgezal_test+0x3104>
    3078:	00000000 	nop
    307c:	00000000 	nop
    3080:	00000021 	move	zero,zero
    3084:	00000021 	move	zero,zero
    3088:	00000021 	move	zero,zero
    308c:	00000021 	move	zero,zero
    3090:	00000021 	move	zero,zero
    3094:	00000021 	move	zero,zero
    3098:	00000021 	move	zero,zero
    309c:	00000021 	move	zero,zero
    30a0:	00000021 	move	zero,zero
    30a4:	3c08f0c2 	lui	t0,0xf0c2
    30a8:	35083ef0 	ori	t0,t0,0x3ef0
    30ac:	0511ffed 	bgezal	t0,3064 <n36_bgezal_test+0x3064>
    30b0:	00000000 	nop
    30b4:	10000013 	b	3104 <n36_bgezal_test+0x3104>
    30b8:	00000000 	nop
    30bc:	00000000 	nop
    30c0:	00000021 	move	zero,zero
    30c4:	00000021 	move	zero,zero
    30c8:	00000021 	move	zero,zero
    30cc:	00000021 	move	zero,zero
    30d0:	00000021 	move	zero,zero
    30d4:	00000021 	move	zero,zero
    30d8:	00000021 	move	zero,zero
    30dc:	00000021 	move	zero,zero
    30e0:	00000021 	move	zero,zero
    30e4:	00000021 	move	zero,zero
    30e8:	00000021 	move	zero,zero
    30ec:	00000021 	move	zero,zero
    30f0:	00000021 	move	zero,zero
    30f4:	00000021 	move	zero,zero
    30f8:	00000021 	move	zero,zero
    30fc:	3c12bf9f 	lui	s2,0xbf9f
    3100:	3652bd50 	ori	s2,s2,0xbd50
    3104:	001fa021 	addu	s4,zero,ra
    3108:	0015f821 	addu	ra,zero,s5
    310c:	3c150000 	lui	s5,0x0
    3110:	26b5306c 	addiu	s5,s5,12396
    3114:	3c160000 	lui	s6,0x0
    3118:	26d630ac 	addiu	s6,s6,12460
    311c:	24180000 	li	t8,0
    3120:	16183b2f 	bne	s0,t8,11de0 <inst_error>
    3124:	00000000 	nop
    3128:	00000000 	nop
    312c:	24180000 	li	t8,0
    3130:	16583b2b 	bne	s2,t8,11de0 <inst_error>
    3134:	00000000 	nop
    3138:	00000000 	nop
    313c:	3c19bfc0 	lui	t9,0xbfc0
    3140:	37391d14 	ori	t9,t9,0x1d14
    3144:	3c18bfc0 	lui	t8,0xbfc0
    3148:	37181cd4 	ori	t8,t8,0x1cd4
    314c:	27180008 	addiu	t8,t8,8
    3150:	1319000a 	beq	t8,t9,317c <n36_bgezal_test+0x317c>
    3154:	00000000 	nop
    3158:	00000000 	nop
    315c:	3c18bfc0 	lui	t8,0xbfc0
    3160:	37181d0c 	ori	t8,t8,0x1d0c
    3164:	27180008 	addiu	t8,t8,8
    3168:	1319000a 	beq	t8,t9,3194 <n36_bgezal_test+0x3194>
    316c:	00000000 	nop
    3170:	10003b1b 	b	11de0 <inst_error>
    3174:	00000000 	nop
    3178:	00000000 	nop
    317c:	26b50008 	addiu	s5,s5,8
    3180:	16953b17 	bne	s4,s5,11de0 <inst_error>
    3184:	00000000 	nop
    3188:	10000006 	b	31a4 <n36_bgezal_test+0x31a4>
    318c:	00000000 	nop
    3190:	00000000 	nop
    3194:	26d60008 	addiu	s6,s6,8
    3198:	16963b11 	bne	s4,s6,11de0 <inst_error>
    319c:	00000000 	nop
	...
    31a8:	001fa821 	addu	s5,zero,ra
    31ac:	3c0c5116 	lui	t4,0x5116
    31b0:	358cd1f8 	ori	t4,t4,0xd1f8
    31b4:	3c0dcdab 	lui	t5,0xcdab
    31b8:	35add338 	ori	t5,t5,0xd338
    31bc:	24100000 	li	s0,0
    31c0:	10000012 	b	320c <n36_bgezal_test+0x320c>
    31c4:	24120000 	li	s2,0
    31c8:	00000000 	nop
    31cc:	3c105116 	lui	s0,0x5116
    31d0:	3610d1f8 	ori	s0,s0,0xd1f8
    31d4:	05110023 	bgezal	t0,3264 <n36_bgezal_test+0x3264>
    31d8:	00000000 	nop
    31dc:	10000023 	b	326c <n36_bgezal_test+0x326c>
    31e0:	00000000 	nop
    31e4:	00000000 	nop
    31e8:	00000021 	move	zero,zero
    31ec:	00000021 	move	zero,zero
    31f0:	00000021 	move	zero,zero
    31f4:	00000021 	move	zero,zero
    31f8:	00000021 	move	zero,zero
    31fc:	00000021 	move	zero,zero
    3200:	00000021 	move	zero,zero
    3204:	00000021 	move	zero,zero
    3208:	00000021 	move	zero,zero
    320c:	3c083e78 	lui	t0,0x3e78
    3210:	3508666e 	ori	t0,t0,0x666e
    3214:	0511ffed 	bgezal	t0,31cc <n36_bgezal_test+0x31cc>
    3218:	00000000 	nop
    321c:	10000013 	b	326c <n36_bgezal_test+0x326c>
    3220:	00000000 	nop
    3224:	00000000 	nop
    3228:	00000021 	move	zero,zero
    322c:	00000021 	move	zero,zero
    3230:	00000021 	move	zero,zero
    3234:	00000021 	move	zero,zero
    3238:	00000021 	move	zero,zero
    323c:	00000021 	move	zero,zero
    3240:	00000021 	move	zero,zero
    3244:	00000021 	move	zero,zero
    3248:	00000021 	move	zero,zero
    324c:	00000021 	move	zero,zero
    3250:	00000021 	move	zero,zero
    3254:	00000021 	move	zero,zero
    3258:	00000021 	move	zero,zero
    325c:	00000021 	move	zero,zero
    3260:	00000021 	move	zero,zero
    3264:	3c12cdab 	lui	s2,0xcdab
    3268:	3652d338 	ori	s2,s2,0xd338
    326c:	001fa021 	addu	s4,zero,ra
    3270:	0015f821 	addu	ra,zero,s5
    3274:	3c150000 	lui	s5,0x0
    3278:	26b531d4 	addiu	s5,s5,12756
    327c:	3c160000 	lui	s6,0x0
    3280:	26d63214 	addiu	s6,s6,12820
    3284:	3c185116 	lui	t8,0x5116
    3288:	3718d1f8 	ori	t8,t8,0xd1f8
    328c:	16183ad4 	bne	s0,t8,11de0 <inst_error>
    3290:	00000000 	nop
    3294:	00000000 	nop
    3298:	3c18cdab 	lui	t8,0xcdab
    329c:	3718d338 	ori	t8,t8,0xd338
    32a0:	16583acf 	bne	s2,t8,11de0 <inst_error>
    32a4:	00000000 	nop
    32a8:	00000000 	nop
    32ac:	3c19bfc0 	lui	t9,0xbfc0
    32b0:	37391d98 	ori	t9,t9,0x1d98
    32b4:	3c18bfc0 	lui	t8,0xbfc0
    32b8:	37181d90 	ori	t8,t8,0x1d90
    32bc:	27180008 	addiu	t8,t8,8
    32c0:	1319000a 	beq	t8,t9,32ec <n36_bgezal_test+0x32ec>
    32c4:	00000000 	nop
    32c8:	00000000 	nop
    32cc:	3c18bfc0 	lui	t8,0xbfc0
    32d0:	37181dc8 	ori	t8,t8,0x1dc8
    32d4:	27180008 	addiu	t8,t8,8
    32d8:	1319000a 	beq	t8,t9,3304 <n36_bgezal_test+0x3304>
    32dc:	00000000 	nop
    32e0:	10003abf 	b	11de0 <inst_error>
    32e4:	00000000 	nop
    32e8:	00000000 	nop
    32ec:	26b50008 	addiu	s5,s5,8
    32f0:	16953abb 	bne	s4,s5,11de0 <inst_error>
    32f4:	00000000 	nop
    32f8:	10000006 	b	3314 <n36_bgezal_test+0x3314>
    32fc:	00000000 	nop
    3300:	00000000 	nop
    3304:	26d60008 	addiu	s6,s6,8
    3308:	16963ab5 	bne	s4,s6,11de0 <inst_error>
    330c:	00000000 	nop
	...
    3318:	001fa821 	addu	s5,zero,ra
    331c:	3c0c172c 	lui	t4,0x172c
    3320:	358c9ad7 	ori	t4,t4,0x9ad7
    3324:	3c0d67ac 	lui	t5,0x67ac
    3328:	35ad49e0 	ori	t5,t5,0x49e0
    332c:	24100000 	li	s0,0
    3330:	10000012 	b	337c <n36_bgezal_test+0x337c>
    3334:	24120000 	li	s2,0
    3338:	00000000 	nop
    333c:	3c10172c 	lui	s0,0x172c
    3340:	36109ad7 	ori	s0,s0,0x9ad7
    3344:	05110023 	bgezal	t0,33d4 <n36_bgezal_test+0x33d4>
    3348:	00000000 	nop
    334c:	10000023 	b	33dc <n36_bgezal_test+0x33dc>
    3350:	00000000 	nop
    3354:	00000000 	nop
    3358:	00000021 	move	zero,zero
    335c:	00000021 	move	zero,zero
    3360:	00000021 	move	zero,zero
    3364:	00000021 	move	zero,zero
    3368:	00000021 	move	zero,zero
    336c:	00000021 	move	zero,zero
    3370:	00000021 	move	zero,zero
    3374:	00000021 	move	zero,zero
    3378:	00000021 	move	zero,zero
    337c:	3c081033 	lui	t0,0x1033
    3380:	35081dba 	ori	t0,t0,0x1dba
    3384:	0511ffed 	bgezal	t0,333c <n36_bgezal_test+0x333c>
    3388:	00000000 	nop
    338c:	10000013 	b	33dc <n36_bgezal_test+0x33dc>
    3390:	00000000 	nop
    3394:	00000000 	nop
    3398:	00000021 	move	zero,zero
    339c:	00000021 	move	zero,zero
    33a0:	00000021 	move	zero,zero
    33a4:	00000021 	move	zero,zero
    33a8:	00000021 	move	zero,zero
    33ac:	00000021 	move	zero,zero
    33b0:	00000021 	move	zero,zero
    33b4:	00000021 	move	zero,zero
    33b8:	00000021 	move	zero,zero
    33bc:	00000021 	move	zero,zero
    33c0:	00000021 	move	zero,zero
    33c4:	00000021 	move	zero,zero
    33c8:	00000021 	move	zero,zero
    33cc:	00000021 	move	zero,zero
    33d0:	00000021 	move	zero,zero
    33d4:	3c1267ac 	lui	s2,0x67ac
    33d8:	365249e0 	ori	s2,s2,0x49e0
    33dc:	001fa021 	addu	s4,zero,ra
    33e0:	0015f821 	addu	ra,zero,s5
    33e4:	3c150000 	lui	s5,0x0
    33e8:	26b53344 	addiu	s5,s5,13124
    33ec:	3c160000 	lui	s6,0x0
    33f0:	26d63384 	addiu	s6,s6,13188
    33f4:	3c18172c 	lui	t8,0x172c
    33f8:	37189ad7 	ori	t8,t8,0x9ad7
    33fc:	16183a78 	bne	s0,t8,11de0 <inst_error>
    3400:	00000000 	nop
    3404:	00000000 	nop
    3408:	3c1867ac 	lui	t8,0x67ac
    340c:	371849e0 	ori	t8,t8,0x49e0
    3410:	16583a73 	bne	s2,t8,11de0 <inst_error>
    3414:	00000000 	nop
    3418:	00000000 	nop
    341c:	3c19bfc0 	lui	t9,0xbfc0
    3420:	37391e54 	ori	t9,t9,0x1e54
    3424:	3c18bfc0 	lui	t8,0xbfc0
    3428:	37181e4c 	ori	t8,t8,0x1e4c
    342c:	27180008 	addiu	t8,t8,8
    3430:	1319000a 	beq	t8,t9,345c <n36_bgezal_test+0x345c>
    3434:	00000000 	nop
    3438:	00000000 	nop
    343c:	3c18bfc0 	lui	t8,0xbfc0
    3440:	37181e84 	ori	t8,t8,0x1e84
    3444:	27180008 	addiu	t8,t8,8
    3448:	1319000a 	beq	t8,t9,3474 <n36_bgezal_test+0x3474>
    344c:	00000000 	nop
    3450:	10003a63 	b	11de0 <inst_error>
    3454:	00000000 	nop
    3458:	00000000 	nop
    345c:	26b50008 	addiu	s5,s5,8
    3460:	16953a5f 	bne	s4,s5,11de0 <inst_error>
    3464:	00000000 	nop
    3468:	10000006 	b	3484 <n36_bgezal_test+0x3484>
    346c:	00000000 	nop
    3470:	00000000 	nop
    3474:	26d60008 	addiu	s6,s6,8
    3478:	16963a59 	bne	s4,s6,11de0 <inst_error>
    347c:	00000000 	nop
	...
    3488:	001fa821 	addu	s5,zero,ra
    348c:	3c0cc918 	lui	t4,0xc918
    3490:	358c2114 	ori	t4,t4,0x2114
    3494:	3c0d3db8 	lui	t5,0x3db8
    3498:	35ad5058 	ori	t5,t5,0x5058
    349c:	24100000 	li	s0,0
    34a0:	10000012 	b	34ec <n36_bgezal_test+0x34ec>
    34a4:	24120000 	li	s2,0
    34a8:	00000000 	nop
    34ac:	3c10c918 	lui	s0,0xc918
    34b0:	36102114 	ori	s0,s0,0x2114
    34b4:	05110023 	bgezal	t0,3544 <n36_bgezal_test+0x3544>
    34b8:	00000000 	nop
    34bc:	10000023 	b	354c <n36_bgezal_test+0x354c>
    34c0:	00000000 	nop
    34c4:	00000000 	nop
    34c8:	00000021 	move	zero,zero
    34cc:	00000021 	move	zero,zero
    34d0:	00000021 	move	zero,zero
    34d4:	00000021 	move	zero,zero
    34d8:	00000021 	move	zero,zero
    34dc:	00000021 	move	zero,zero
    34e0:	00000021 	move	zero,zero
    34e4:	00000021 	move	zero,zero
    34e8:	00000021 	move	zero,zero
    34ec:	3c089af6 	lui	t0,0x9af6
    34f0:	35085ad8 	ori	t0,t0,0x5ad8
    34f4:	0511ffed 	bgezal	t0,34ac <n36_bgezal_test+0x34ac>
    34f8:	00000000 	nop
    34fc:	10000013 	b	354c <n36_bgezal_test+0x354c>
    3500:	00000000 	nop
    3504:	00000000 	nop
    3508:	00000021 	move	zero,zero
    350c:	00000021 	move	zero,zero
    3510:	00000021 	move	zero,zero
    3514:	00000021 	move	zero,zero
    3518:	00000021 	move	zero,zero
    351c:	00000021 	move	zero,zero
    3520:	00000021 	move	zero,zero
    3524:	00000021 	move	zero,zero
    3528:	00000021 	move	zero,zero
    352c:	00000021 	move	zero,zero
    3530:	00000021 	move	zero,zero
    3534:	00000021 	move	zero,zero
    3538:	00000021 	move	zero,zero
    353c:	00000021 	move	zero,zero
    3540:	00000021 	move	zero,zero
    3544:	3c123db8 	lui	s2,0x3db8
    3548:	36525058 	ori	s2,s2,0x5058
    354c:	001fa021 	addu	s4,zero,ra
    3550:	0015f821 	addu	ra,zero,s5
    3554:	3c150000 	lui	s5,0x0
    3558:	26b534b4 	addiu	s5,s5,13492
    355c:	3c160000 	lui	s6,0x0
    3560:	26d634f4 	addiu	s6,s6,13556
    3564:	24180000 	li	t8,0
    3568:	16183a1d 	bne	s0,t8,11de0 <inst_error>
    356c:	00000000 	nop
    3570:	00000000 	nop
    3574:	24180000 	li	t8,0
    3578:	16583a19 	bne	s2,t8,11de0 <inst_error>
    357c:	00000000 	nop
    3580:	00000000 	nop
    3584:	3c19bfc0 	lui	t9,0xbfc0
    3588:	37391f48 	ori	t9,t9,0x1f48
    358c:	3c18bfc0 	lui	t8,0xbfc0
    3590:	37181f08 	ori	t8,t8,0x1f08
    3594:	27180008 	addiu	t8,t8,8
    3598:	1319000a 	beq	t8,t9,35c4 <n36_bgezal_test+0x35c4>
    359c:	00000000 	nop
    35a0:	00000000 	nop
    35a4:	3c18bfc0 	lui	t8,0xbfc0
    35a8:	37181f40 	ori	t8,t8,0x1f40
    35ac:	27180008 	addiu	t8,t8,8
    35b0:	1319000a 	beq	t8,t9,35dc <n36_bgezal_test+0x35dc>
    35b4:	00000000 	nop
    35b8:	10003a09 	b	11de0 <inst_error>
    35bc:	00000000 	nop
    35c0:	00000000 	nop
    35c4:	26b50008 	addiu	s5,s5,8
    35c8:	16953a05 	bne	s4,s5,11de0 <inst_error>
    35cc:	00000000 	nop
    35d0:	10000006 	b	35ec <n36_bgezal_test+0x35ec>
    35d4:	00000000 	nop
    35d8:	00000000 	nop
    35dc:	26d60008 	addiu	s6,s6,8
    35e0:	169639ff 	bne	s4,s6,11de0 <inst_error>
    35e4:	00000000 	nop
	...
    35f0:	001fa821 	addu	s5,zero,ra
    35f4:	3c0cd179 	lui	t4,0xd179
    35f8:	358c6a5e 	ori	t4,t4,0x6a5e
    35fc:	3c0d3a49 	lui	t5,0x3a49
    3600:	35ad7608 	ori	t5,t5,0x7608
    3604:	24100000 	li	s0,0
    3608:	10000012 	b	3654 <n36_bgezal_test+0x3654>
    360c:	24120000 	li	s2,0
    3610:	00000000 	nop
    3614:	3c10d179 	lui	s0,0xd179
    3618:	36106a5e 	ori	s0,s0,0x6a5e
    361c:	05110023 	bgezal	t0,36ac <n36_bgezal_test+0x36ac>
    3620:	00000000 	nop
    3624:	10000023 	b	36b4 <n36_bgezal_test+0x36b4>
    3628:	00000000 	nop
    362c:	00000000 	nop
    3630:	00000021 	move	zero,zero
    3634:	00000021 	move	zero,zero
    3638:	00000021 	move	zero,zero
    363c:	00000021 	move	zero,zero
    3640:	00000021 	move	zero,zero
    3644:	00000021 	move	zero,zero
    3648:	00000021 	move	zero,zero
    364c:	00000021 	move	zero,zero
    3650:	00000021 	move	zero,zero
    3654:	3c088613 	lui	t0,0x8613
    3658:	3508d8e4 	ori	t0,t0,0xd8e4
    365c:	0511ffed 	bgezal	t0,3614 <n36_bgezal_test+0x3614>
    3660:	00000000 	nop
    3664:	10000013 	b	36b4 <n36_bgezal_test+0x36b4>
    3668:	00000000 	nop
    366c:	00000000 	nop
    3670:	00000021 	move	zero,zero
    3674:	00000021 	move	zero,zero
    3678:	00000021 	move	zero,zero
    367c:	00000021 	move	zero,zero
    3680:	00000021 	move	zero,zero
    3684:	00000021 	move	zero,zero
    3688:	00000021 	move	zero,zero
    368c:	00000021 	move	zero,zero
    3690:	00000021 	move	zero,zero
    3694:	00000021 	move	zero,zero
    3698:	00000021 	move	zero,zero
    369c:	00000021 	move	zero,zero
    36a0:	00000021 	move	zero,zero
    36a4:	00000021 	move	zero,zero
    36a8:	00000021 	move	zero,zero
    36ac:	3c123a49 	lui	s2,0x3a49
    36b0:	36527608 	ori	s2,s2,0x7608
    36b4:	001fa021 	addu	s4,zero,ra
    36b8:	0015f821 	addu	ra,zero,s5
    36bc:	3c150000 	lui	s5,0x0
    36c0:	26b5361c 	addiu	s5,s5,13852
    36c4:	3c160000 	lui	s6,0x0
    36c8:	26d6365c 	addiu	s6,s6,13916
    36cc:	24180000 	li	t8,0
    36d0:	161839c3 	bne	s0,t8,11de0 <inst_error>
    36d4:	00000000 	nop
    36d8:	00000000 	nop
    36dc:	24180000 	li	t8,0
    36e0:	165839bf 	bne	s2,t8,11de0 <inst_error>
    36e4:	00000000 	nop
    36e8:	00000000 	nop
    36ec:	3c19bfc0 	lui	t9,0xbfc0
    36f0:	37392004 	ori	t9,t9,0x2004
    36f4:	3c18bfc0 	lui	t8,0xbfc0
    36f8:	37181fc4 	ori	t8,t8,0x1fc4
    36fc:	27180008 	addiu	t8,t8,8
    3700:	1319000a 	beq	t8,t9,372c <n36_bgezal_test+0x372c>
    3704:	00000000 	nop
    3708:	00000000 	nop
    370c:	3c18bfc0 	lui	t8,0xbfc0
    3710:	37181ffc 	ori	t8,t8,0x1ffc
    3714:	27180008 	addiu	t8,t8,8
    3718:	1319000a 	beq	t8,t9,3744 <n36_bgezal_test+0x3744>
    371c:	00000000 	nop
    3720:	100039af 	b	11de0 <inst_error>
    3724:	00000000 	nop
    3728:	00000000 	nop
    372c:	26b50008 	addiu	s5,s5,8
    3730:	169539ab 	bne	s4,s5,11de0 <inst_error>
    3734:	00000000 	nop
    3738:	10000006 	b	3754 <n36_bgezal_test+0x3754>
    373c:	00000000 	nop
    3740:	00000000 	nop
    3744:	26d60008 	addiu	s6,s6,8
    3748:	169639a5 	bne	s4,s6,11de0 <inst_error>
    374c:	00000000 	nop
	...
    3758:	001fa821 	addu	s5,zero,ra
    375c:	3c0cef10 	lui	t4,0xef10
    3760:	358ccd54 	ori	t4,t4,0xcd54
    3764:	3c0d1241 	lui	t5,0x1241
    3768:	35ad6476 	ori	t5,t5,0x6476
    376c:	24100000 	li	s0,0
    3770:	10000012 	b	37bc <n36_bgezal_test+0x37bc>
    3774:	24120000 	li	s2,0
    3778:	00000000 	nop
    377c:	3c10ef10 	lui	s0,0xef10
    3780:	3610cd54 	ori	s0,s0,0xcd54
    3784:	05110023 	bgezal	t0,3814 <n36_bgezal_test+0x3814>
    3788:	00000000 	nop
    378c:	10000023 	b	381c <n36_bgezal_test+0x381c>
    3790:	00000000 	nop
    3794:	00000000 	nop
    3798:	00000021 	move	zero,zero
    379c:	00000021 	move	zero,zero
    37a0:	00000021 	move	zero,zero
    37a4:	00000021 	move	zero,zero
    37a8:	00000021 	move	zero,zero
    37ac:	00000021 	move	zero,zero
    37b0:	00000021 	move	zero,zero
    37b4:	00000021 	move	zero,zero
    37b8:	00000021 	move	zero,zero
    37bc:	3c080361 	lui	t0,0x361
    37c0:	3508585c 	ori	t0,t0,0x585c
    37c4:	0511ffed 	bgezal	t0,377c <n36_bgezal_test+0x377c>
    37c8:	00000000 	nop
    37cc:	10000013 	b	381c <n36_bgezal_test+0x381c>
    37d0:	00000000 	nop
    37d4:	00000000 	nop
    37d8:	00000021 	move	zero,zero
    37dc:	00000021 	move	zero,zero
    37e0:	00000021 	move	zero,zero
    37e4:	00000021 	move	zero,zero
    37e8:	00000021 	move	zero,zero
    37ec:	00000021 	move	zero,zero
    37f0:	00000021 	move	zero,zero
    37f4:	00000021 	move	zero,zero
    37f8:	00000021 	move	zero,zero
    37fc:	00000021 	move	zero,zero
    3800:	00000021 	move	zero,zero
    3804:	00000021 	move	zero,zero
    3808:	00000021 	move	zero,zero
    380c:	00000021 	move	zero,zero
    3810:	00000021 	move	zero,zero
    3814:	3c121241 	lui	s2,0x1241
    3818:	36526476 	ori	s2,s2,0x6476
    381c:	001fa021 	addu	s4,zero,ra
    3820:	0015f821 	addu	ra,zero,s5
    3824:	3c150000 	lui	s5,0x0
    3828:	26b53784 	addiu	s5,s5,14212
    382c:	3c160000 	lui	s6,0x0
    3830:	26d637c4 	addiu	s6,s6,14276
    3834:	3c18ef10 	lui	t8,0xef10
    3838:	3718cd54 	ori	t8,t8,0xcd54
    383c:	16183968 	bne	s0,t8,11de0 <inst_error>
    3840:	00000000 	nop
    3844:	00000000 	nop
    3848:	3c181241 	lui	t8,0x1241
    384c:	37186476 	ori	t8,t8,0x6476
    3850:	16583963 	bne	s2,t8,11de0 <inst_error>
    3854:	00000000 	nop
    3858:	00000000 	nop
    385c:	3c19bfc0 	lui	t9,0xbfc0
    3860:	37392088 	ori	t9,t9,0x2088
    3864:	3c18bfc0 	lui	t8,0xbfc0
    3868:	37182080 	ori	t8,t8,0x2080
    386c:	27180008 	addiu	t8,t8,8
    3870:	1319000a 	beq	t8,t9,389c <n36_bgezal_test+0x389c>
    3874:	00000000 	nop
    3878:	00000000 	nop
    387c:	3c18bfc0 	lui	t8,0xbfc0
    3880:	371820b8 	ori	t8,t8,0x20b8
    3884:	27180008 	addiu	t8,t8,8
    3888:	1319000a 	beq	t8,t9,38b4 <n36_bgezal_test+0x38b4>
    388c:	00000000 	nop
    3890:	10003953 	b	11de0 <inst_error>
    3894:	00000000 	nop
    3898:	00000000 	nop
    389c:	26b50008 	addiu	s5,s5,8
    38a0:	1695394f 	bne	s4,s5,11de0 <inst_error>
    38a4:	00000000 	nop
    38a8:	10000006 	b	38c4 <n36_bgezal_test+0x38c4>
    38ac:	00000000 	nop
    38b0:	00000000 	nop
    38b4:	26d60008 	addiu	s6,s6,8
    38b8:	16963949 	bne	s4,s6,11de0 <inst_error>
    38bc:	00000000 	nop
	...
    38c8:	001fa821 	addu	s5,zero,ra
    38cc:	3c0c463c 	lui	t4,0x463c
    38d0:	358c2acc 	ori	t4,t4,0x2acc
    38d4:	3c0da046 	lui	t5,0xa046
    38d8:	35adb6ca 	ori	t5,t5,0xb6ca
    38dc:	24100000 	li	s0,0
    38e0:	10000012 	b	392c <n36_bgezal_test+0x392c>
    38e4:	24120000 	li	s2,0
    38e8:	00000000 	nop
    38ec:	3c10463c 	lui	s0,0x463c
    38f0:	36102acc 	ori	s0,s0,0x2acc
    38f4:	05110023 	bgezal	t0,3984 <n36_bgezal_test+0x3984>
    38f8:	00000000 	nop
    38fc:	10000023 	b	398c <n36_bgezal_test+0x398c>
    3900:	00000000 	nop
    3904:	00000000 	nop
    3908:	00000021 	move	zero,zero
    390c:	00000021 	move	zero,zero
    3910:	00000021 	move	zero,zero
    3914:	00000021 	move	zero,zero
    3918:	00000021 	move	zero,zero
    391c:	00000021 	move	zero,zero
    3920:	00000021 	move	zero,zero
    3924:	00000021 	move	zero,zero
    3928:	00000021 	move	zero,zero
    392c:	3c08774d 	lui	t0,0x774d
    3930:	35082398 	ori	t0,t0,0x2398
    3934:	0511ffed 	bgezal	t0,38ec <n36_bgezal_test+0x38ec>
    3938:	00000000 	nop
    393c:	10000013 	b	398c <n36_bgezal_test+0x398c>
    3940:	00000000 	nop
    3944:	00000000 	nop
    3948:	00000021 	move	zero,zero
    394c:	00000021 	move	zero,zero
    3950:	00000021 	move	zero,zero
    3954:	00000021 	move	zero,zero
    3958:	00000021 	move	zero,zero
    395c:	00000021 	move	zero,zero
    3960:	00000021 	move	zero,zero
    3964:	00000021 	move	zero,zero
    3968:	00000021 	move	zero,zero
    396c:	00000021 	move	zero,zero
    3970:	00000021 	move	zero,zero
    3974:	00000021 	move	zero,zero
    3978:	00000021 	move	zero,zero
    397c:	00000021 	move	zero,zero
    3980:	00000021 	move	zero,zero
    3984:	3c12a046 	lui	s2,0xa046
    3988:	3652b6ca 	ori	s2,s2,0xb6ca
    398c:	001fa021 	addu	s4,zero,ra
    3990:	0015f821 	addu	ra,zero,s5
    3994:	3c150000 	lui	s5,0x0
    3998:	26b538f4 	addiu	s5,s5,14580
    399c:	3c160000 	lui	s6,0x0
    39a0:	26d63934 	addiu	s6,s6,14644
    39a4:	3c18463c 	lui	t8,0x463c
    39a8:	37182acc 	ori	t8,t8,0x2acc
    39ac:	1618390c 	bne	s0,t8,11de0 <inst_error>
    39b0:	00000000 	nop
    39b4:	00000000 	nop
    39b8:	3c18a046 	lui	t8,0xa046
    39bc:	3718b6ca 	ori	t8,t8,0xb6ca
    39c0:	16583907 	bne	s2,t8,11de0 <inst_error>
    39c4:	00000000 	nop
    39c8:	00000000 	nop
    39cc:	3c19bfc0 	lui	t9,0xbfc0
    39d0:	37392144 	ori	t9,t9,0x2144
    39d4:	3c18bfc0 	lui	t8,0xbfc0
    39d8:	3718213c 	ori	t8,t8,0x213c
    39dc:	27180008 	addiu	t8,t8,8
    39e0:	1319000a 	beq	t8,t9,3a0c <n36_bgezal_test+0x3a0c>
    39e4:	00000000 	nop
    39e8:	00000000 	nop
    39ec:	3c18bfc0 	lui	t8,0xbfc0
    39f0:	37182174 	ori	t8,t8,0x2174
    39f4:	27180008 	addiu	t8,t8,8
    39f8:	1319000a 	beq	t8,t9,3a24 <n36_bgezal_test+0x3a24>
    39fc:	00000000 	nop
    3a00:	100038f7 	b	11de0 <inst_error>
    3a04:	00000000 	nop
    3a08:	00000000 	nop
    3a0c:	26b50008 	addiu	s5,s5,8
    3a10:	169538f3 	bne	s4,s5,11de0 <inst_error>
    3a14:	00000000 	nop
    3a18:	10000006 	b	3a34 <n36_bgezal_test+0x3a34>
    3a1c:	00000000 	nop
    3a20:	00000000 	nop
    3a24:	26d60008 	addiu	s6,s6,8
    3a28:	169638ed 	bne	s4,s6,11de0 <inst_error>
    3a2c:	00000000 	nop
	...
    3a38:	001fa821 	addu	s5,zero,ra
    3a3c:	3c0ce309 	lui	t4,0xe309
    3a40:	358c6291 	ori	t4,t4,0x6291
    3a44:	3c0d92d1 	lui	t5,0x92d1
    3a48:	35ad67d4 	ori	t5,t5,0x67d4
    3a4c:	24100000 	li	s0,0
    3a50:	10000012 	b	3a9c <n36_bgezal_test+0x3a9c>
    3a54:	24120000 	li	s2,0
    3a58:	00000000 	nop
    3a5c:	3c10e309 	lui	s0,0xe309
    3a60:	36106291 	ori	s0,s0,0x6291
    3a64:	05110023 	bgezal	t0,3af4 <n36_bgezal_test+0x3af4>
    3a68:	00000000 	nop
    3a6c:	10000023 	b	3afc <n36_bgezal_test+0x3afc>
    3a70:	00000000 	nop
    3a74:	00000000 	nop
    3a78:	00000021 	move	zero,zero
    3a7c:	00000021 	move	zero,zero
    3a80:	00000021 	move	zero,zero
    3a84:	00000021 	move	zero,zero
    3a88:	00000021 	move	zero,zero
    3a8c:	00000021 	move	zero,zero
    3a90:	00000021 	move	zero,zero
    3a94:	00000021 	move	zero,zero
    3a98:	00000021 	move	zero,zero
    3a9c:	3c08aaa4 	lui	t0,0xaaa4
    3aa0:	350890d0 	ori	t0,t0,0x90d0
    3aa4:	0511ffed 	bgezal	t0,3a5c <n36_bgezal_test+0x3a5c>
    3aa8:	00000000 	nop
    3aac:	10000013 	b	3afc <n36_bgezal_test+0x3afc>
    3ab0:	00000000 	nop
    3ab4:	00000000 	nop
    3ab8:	00000021 	move	zero,zero
    3abc:	00000021 	move	zero,zero
    3ac0:	00000021 	move	zero,zero
    3ac4:	00000021 	move	zero,zero
    3ac8:	00000021 	move	zero,zero
    3acc:	00000021 	move	zero,zero
    3ad0:	00000021 	move	zero,zero
    3ad4:	00000021 	move	zero,zero
    3ad8:	00000021 	move	zero,zero
    3adc:	00000021 	move	zero,zero
    3ae0:	00000021 	move	zero,zero
    3ae4:	00000021 	move	zero,zero
    3ae8:	00000021 	move	zero,zero
    3aec:	00000021 	move	zero,zero
    3af0:	00000021 	move	zero,zero
    3af4:	3c1292d1 	lui	s2,0x92d1
    3af8:	365267d4 	ori	s2,s2,0x67d4
    3afc:	001fa021 	addu	s4,zero,ra
    3b00:	0015f821 	addu	ra,zero,s5
    3b04:	3c150000 	lui	s5,0x0
    3b08:	26b53a64 	addiu	s5,s5,14948
    3b0c:	3c160000 	lui	s6,0x0
    3b10:	26d63aa4 	addiu	s6,s6,15012
    3b14:	24180000 	li	t8,0
    3b18:	161838b1 	bne	s0,t8,11de0 <inst_error>
    3b1c:	00000000 	nop
    3b20:	00000000 	nop
    3b24:	24180000 	li	t8,0
    3b28:	165838ad 	bne	s2,t8,11de0 <inst_error>
    3b2c:	00000000 	nop
    3b30:	00000000 	nop
    3b34:	3c19bfc0 	lui	t9,0xbfc0
    3b38:	37392238 	ori	t9,t9,0x2238
    3b3c:	3c18bfc0 	lui	t8,0xbfc0
    3b40:	371821f8 	ori	t8,t8,0x21f8
    3b44:	27180008 	addiu	t8,t8,8
    3b48:	1319000a 	beq	t8,t9,3b74 <n36_bgezal_test+0x3b74>
    3b4c:	00000000 	nop
    3b50:	00000000 	nop
    3b54:	3c18bfc0 	lui	t8,0xbfc0
    3b58:	37182230 	ori	t8,t8,0x2230
    3b5c:	27180008 	addiu	t8,t8,8
    3b60:	1319000a 	beq	t8,t9,3b8c <n36_bgezal_test+0x3b8c>
    3b64:	00000000 	nop
    3b68:	1000389d 	b	11de0 <inst_error>
    3b6c:	00000000 	nop
    3b70:	00000000 	nop
    3b74:	26b50008 	addiu	s5,s5,8
    3b78:	16953899 	bne	s4,s5,11de0 <inst_error>
    3b7c:	00000000 	nop
    3b80:	10000006 	b	3b9c <n36_bgezal_test+0x3b9c>
    3b84:	00000000 	nop
    3b88:	00000000 	nop
    3b8c:	26d60008 	addiu	s6,s6,8
    3b90:	16963893 	bne	s4,s6,11de0 <inst_error>
    3b94:	00000000 	nop
	...
    3ba0:	001fa821 	addu	s5,zero,ra
    3ba4:	3c0ce286 	lui	t4,0xe286
    3ba8:	358c5f30 	ori	t4,t4,0x5f30
    3bac:	3c0d10c8 	lui	t5,0x10c8
    3bb0:	35adcf40 	ori	t5,t5,0xcf40
    3bb4:	24100000 	li	s0,0
    3bb8:	10000012 	b	3c04 <n36_bgezal_test+0x3c04>
    3bbc:	24120000 	li	s2,0
    3bc0:	00000000 	nop
    3bc4:	3c10e286 	lui	s0,0xe286
    3bc8:	36105f30 	ori	s0,s0,0x5f30
    3bcc:	05110023 	bgezal	t0,3c5c <n36_bgezal_test+0x3c5c>
    3bd0:	00000000 	nop
    3bd4:	10000023 	b	3c64 <n36_bgezal_test+0x3c64>
    3bd8:	00000000 	nop
    3bdc:	00000000 	nop
    3be0:	00000021 	move	zero,zero
    3be4:	00000021 	move	zero,zero
    3be8:	00000021 	move	zero,zero
    3bec:	00000021 	move	zero,zero
    3bf0:	00000021 	move	zero,zero
    3bf4:	00000021 	move	zero,zero
    3bf8:	00000021 	move	zero,zero
    3bfc:	00000021 	move	zero,zero
    3c00:	00000021 	move	zero,zero
    3c04:	3c08530c 	lui	t0,0x530c
    3c08:	3508ee60 	ori	t0,t0,0xee60
    3c0c:	0511ffed 	bgezal	t0,3bc4 <n36_bgezal_test+0x3bc4>
    3c10:	00000000 	nop
    3c14:	10000013 	b	3c64 <n36_bgezal_test+0x3c64>
    3c18:	00000000 	nop
    3c1c:	00000000 	nop
    3c20:	00000021 	move	zero,zero
    3c24:	00000021 	move	zero,zero
    3c28:	00000021 	move	zero,zero
    3c2c:	00000021 	move	zero,zero
    3c30:	00000021 	move	zero,zero
    3c34:	00000021 	move	zero,zero
    3c38:	00000021 	move	zero,zero
    3c3c:	00000021 	move	zero,zero
    3c40:	00000021 	move	zero,zero
    3c44:	00000021 	move	zero,zero
    3c48:	00000021 	move	zero,zero
    3c4c:	00000021 	move	zero,zero
    3c50:	00000021 	move	zero,zero
    3c54:	00000021 	move	zero,zero
    3c58:	00000021 	move	zero,zero
    3c5c:	3c1210c8 	lui	s2,0x10c8
    3c60:	3652cf40 	ori	s2,s2,0xcf40
    3c64:	001fa021 	addu	s4,zero,ra
    3c68:	0015f821 	addu	ra,zero,s5
    3c6c:	3c150000 	lui	s5,0x0
    3c70:	26b53bcc 	addiu	s5,s5,15308
    3c74:	3c160000 	lui	s6,0x0
    3c78:	26d63c0c 	addiu	s6,s6,15372
    3c7c:	3c18e286 	lui	t8,0xe286
    3c80:	37185f30 	ori	t8,t8,0x5f30
    3c84:	16183856 	bne	s0,t8,11de0 <inst_error>
    3c88:	00000000 	nop
    3c8c:	00000000 	nop
    3c90:	3c1810c8 	lui	t8,0x10c8
    3c94:	3718cf40 	ori	t8,t8,0xcf40
    3c98:	16583851 	bne	s2,t8,11de0 <inst_error>
    3c9c:	00000000 	nop
    3ca0:	00000000 	nop
    3ca4:	3c19bfc0 	lui	t9,0xbfc0
    3ca8:	373922bc 	ori	t9,t9,0x22bc
    3cac:	3c18bfc0 	lui	t8,0xbfc0
    3cb0:	371822b4 	ori	t8,t8,0x22b4
    3cb4:	27180008 	addiu	t8,t8,8
    3cb8:	1319000a 	beq	t8,t9,3ce4 <n36_bgezal_test+0x3ce4>
    3cbc:	00000000 	nop
    3cc0:	00000000 	nop
    3cc4:	3c18bfc0 	lui	t8,0xbfc0
    3cc8:	371822ec 	ori	t8,t8,0x22ec
    3ccc:	27180008 	addiu	t8,t8,8
    3cd0:	1319000a 	beq	t8,t9,3cfc <n36_bgezal_test+0x3cfc>
    3cd4:	00000000 	nop
    3cd8:	10003841 	b	11de0 <inst_error>
    3cdc:	00000000 	nop
    3ce0:	00000000 	nop
    3ce4:	26b50008 	addiu	s5,s5,8
    3ce8:	1695383d 	bne	s4,s5,11de0 <inst_error>
    3cec:	00000000 	nop
    3cf0:	10000006 	b	3d0c <n36_bgezal_test+0x3d0c>
    3cf4:	00000000 	nop
    3cf8:	00000000 	nop
    3cfc:	26d60008 	addiu	s6,s6,8
    3d00:	16963837 	bne	s4,s6,11de0 <inst_error>
    3d04:	00000000 	nop
	...
    3d10:	001fa821 	addu	s5,zero,ra
    3d14:	3c0c801c 	lui	t4,0x801c
    3d18:	358ced08 	ori	t4,t4,0xed08
    3d1c:	3c0d12db 	lui	t5,0x12db
    3d20:	35ad7c88 	ori	t5,t5,0x7c88
    3d24:	24100000 	li	s0,0
    3d28:	10000012 	b	3d74 <n36_bgezal_test+0x3d74>
    3d2c:	24120000 	li	s2,0
    3d30:	00000000 	nop
    3d34:	3c10801c 	lui	s0,0x801c
    3d38:	3610ed08 	ori	s0,s0,0xed08
    3d3c:	05110023 	bgezal	t0,3dcc <n36_bgezal_test+0x3dcc>
    3d40:	00000000 	nop
    3d44:	10000023 	b	3dd4 <n36_bgezal_test+0x3dd4>
    3d48:	00000000 	nop
    3d4c:	00000000 	nop
    3d50:	00000021 	move	zero,zero
    3d54:	00000021 	move	zero,zero
    3d58:	00000021 	move	zero,zero
    3d5c:	00000021 	move	zero,zero
    3d60:	00000021 	move	zero,zero
    3d64:	00000021 	move	zero,zero
    3d68:	00000021 	move	zero,zero
    3d6c:	00000021 	move	zero,zero
    3d70:	00000021 	move	zero,zero
    3d74:	3c08103d 	lui	t0,0x103d
    3d78:	35084d72 	ori	t0,t0,0x4d72
    3d7c:	0511ffed 	bgezal	t0,3d34 <n36_bgezal_test+0x3d34>
    3d80:	00000000 	nop
    3d84:	10000013 	b	3dd4 <n36_bgezal_test+0x3dd4>
    3d88:	00000000 	nop
    3d8c:	00000000 	nop
    3d90:	00000021 	move	zero,zero
    3d94:	00000021 	move	zero,zero
    3d98:	00000021 	move	zero,zero
    3d9c:	00000021 	move	zero,zero
    3da0:	00000021 	move	zero,zero
    3da4:	00000021 	move	zero,zero
    3da8:	00000021 	move	zero,zero
    3dac:	00000021 	move	zero,zero
    3db0:	00000021 	move	zero,zero
    3db4:	00000021 	move	zero,zero
    3db8:	00000021 	move	zero,zero
    3dbc:	00000021 	move	zero,zero
    3dc0:	00000021 	move	zero,zero
    3dc4:	00000021 	move	zero,zero
    3dc8:	00000021 	move	zero,zero
    3dcc:	3c1212db 	lui	s2,0x12db
    3dd0:	36527c88 	ori	s2,s2,0x7c88
    3dd4:	001fa021 	addu	s4,zero,ra
    3dd8:	0015f821 	addu	ra,zero,s5
    3ddc:	3c150000 	lui	s5,0x0
    3de0:	26b53d3c 	addiu	s5,s5,15676
    3de4:	3c160000 	lui	s6,0x0
    3de8:	26d63d7c 	addiu	s6,s6,15740
    3dec:	3c18801c 	lui	t8,0x801c
    3df0:	3718ed08 	ori	t8,t8,0xed08
    3df4:	161837fa 	bne	s0,t8,11de0 <inst_error>
    3df8:	00000000 	nop
    3dfc:	00000000 	nop
    3e00:	3c1812db 	lui	t8,0x12db
    3e04:	37187c88 	ori	t8,t8,0x7c88
    3e08:	165837f5 	bne	s2,t8,11de0 <inst_error>
    3e0c:	00000000 	nop
    3e10:	00000000 	nop
    3e14:	3c19bfc0 	lui	t9,0xbfc0
    3e18:	37392378 	ori	t9,t9,0x2378
    3e1c:	3c18bfc0 	lui	t8,0xbfc0
    3e20:	37182370 	ori	t8,t8,0x2370
    3e24:	27180008 	addiu	t8,t8,8
    3e28:	1319000a 	beq	t8,t9,3e54 <n36_bgezal_test+0x3e54>
    3e2c:	00000000 	nop
    3e30:	00000000 	nop
    3e34:	3c18bfc0 	lui	t8,0xbfc0
    3e38:	371823a8 	ori	t8,t8,0x23a8
    3e3c:	27180008 	addiu	t8,t8,8
    3e40:	1319000a 	beq	t8,t9,3e6c <n36_bgezal_test+0x3e6c>
    3e44:	00000000 	nop
    3e48:	100037e5 	b	11de0 <inst_error>
    3e4c:	00000000 	nop
    3e50:	00000000 	nop
    3e54:	26b50008 	addiu	s5,s5,8
    3e58:	169537e1 	bne	s4,s5,11de0 <inst_error>
    3e5c:	00000000 	nop
    3e60:	10000006 	b	3e7c <n36_bgezal_test+0x3e7c>
    3e64:	00000000 	nop
    3e68:	00000000 	nop
    3e6c:	26d60008 	addiu	s6,s6,8
    3e70:	169637db 	bne	s4,s6,11de0 <inst_error>
    3e74:	00000000 	nop
	...
    3e80:	001fa821 	addu	s5,zero,ra
    3e84:	3c0cb5f0 	lui	t4,0xb5f0
    3e88:	358cb262 	ori	t4,t4,0xb262
    3e8c:	3c0d61e0 	lui	t5,0x61e0
    3e90:	35ad2650 	ori	t5,t5,0x2650
    3e94:	24100000 	li	s0,0
    3e98:	10000012 	b	3ee4 <n36_bgezal_test+0x3ee4>
    3e9c:	24120000 	li	s2,0
    3ea0:	00000000 	nop
    3ea4:	3c10b5f0 	lui	s0,0xb5f0
    3ea8:	3610b262 	ori	s0,s0,0xb262
    3eac:	05110023 	bgezal	t0,3f3c <n36_bgezal_test+0x3f3c>
    3eb0:	00000000 	nop
    3eb4:	10000023 	b	3f44 <n36_bgezal_test+0x3f44>
    3eb8:	00000000 	nop
    3ebc:	00000000 	nop
    3ec0:	00000021 	move	zero,zero
    3ec4:	00000021 	move	zero,zero
    3ec8:	00000021 	move	zero,zero
    3ecc:	00000021 	move	zero,zero
    3ed0:	00000021 	move	zero,zero
    3ed4:	00000021 	move	zero,zero
    3ed8:	00000021 	move	zero,zero
    3edc:	00000021 	move	zero,zero
    3ee0:	00000021 	move	zero,zero
    3ee4:	3c0875b3 	lui	t0,0x75b3
    3ee8:	35085bb0 	ori	t0,t0,0x5bb0
    3eec:	0511ffed 	bgezal	t0,3ea4 <n36_bgezal_test+0x3ea4>
    3ef0:	00000000 	nop
    3ef4:	10000013 	b	3f44 <n36_bgezal_test+0x3f44>
    3ef8:	00000000 	nop
    3efc:	00000000 	nop
    3f00:	00000021 	move	zero,zero
    3f04:	00000021 	move	zero,zero
    3f08:	00000021 	move	zero,zero
    3f0c:	00000021 	move	zero,zero
    3f10:	00000021 	move	zero,zero
    3f14:	00000021 	move	zero,zero
    3f18:	00000021 	move	zero,zero
    3f1c:	00000021 	move	zero,zero
    3f20:	00000021 	move	zero,zero
    3f24:	00000021 	move	zero,zero
    3f28:	00000021 	move	zero,zero
    3f2c:	00000021 	move	zero,zero
    3f30:	00000021 	move	zero,zero
    3f34:	00000021 	move	zero,zero
    3f38:	00000021 	move	zero,zero
    3f3c:	3c1261e0 	lui	s2,0x61e0
    3f40:	36522650 	ori	s2,s2,0x2650
    3f44:	001fa021 	addu	s4,zero,ra
    3f48:	0015f821 	addu	ra,zero,s5
    3f4c:	3c150000 	lui	s5,0x0
    3f50:	26b53eac 	addiu	s5,s5,16044
    3f54:	3c160000 	lui	s6,0x0
    3f58:	26d63eec 	addiu	s6,s6,16108
    3f5c:	3c18b5f0 	lui	t8,0xb5f0
    3f60:	3718b262 	ori	t8,t8,0xb262
    3f64:	1618379e 	bne	s0,t8,11de0 <inst_error>
    3f68:	00000000 	nop
    3f6c:	00000000 	nop
    3f70:	3c1861e0 	lui	t8,0x61e0
    3f74:	37182650 	ori	t8,t8,0x2650
    3f78:	16583799 	bne	s2,t8,11de0 <inst_error>
    3f7c:	00000000 	nop
    3f80:	00000000 	nop
    3f84:	3c19bfc0 	lui	t9,0xbfc0
    3f88:	37392434 	ori	t9,t9,0x2434
    3f8c:	3c18bfc0 	lui	t8,0xbfc0
    3f90:	3718242c 	ori	t8,t8,0x242c
    3f94:	27180008 	addiu	t8,t8,8
    3f98:	1319000a 	beq	t8,t9,3fc4 <n36_bgezal_test+0x3fc4>
    3f9c:	00000000 	nop
    3fa0:	00000000 	nop
    3fa4:	3c18bfc0 	lui	t8,0xbfc0
    3fa8:	37182464 	ori	t8,t8,0x2464
    3fac:	27180008 	addiu	t8,t8,8
    3fb0:	1319000a 	beq	t8,t9,3fdc <n36_bgezal_test+0x3fdc>
    3fb4:	00000000 	nop
    3fb8:	10003789 	b	11de0 <inst_error>
    3fbc:	00000000 	nop
    3fc0:	00000000 	nop
    3fc4:	26b50008 	addiu	s5,s5,8
    3fc8:	16953785 	bne	s4,s5,11de0 <inst_error>
    3fcc:	00000000 	nop
    3fd0:	10000006 	b	3fec <n36_bgezal_test+0x3fec>
    3fd4:	00000000 	nop
    3fd8:	00000000 	nop
    3fdc:	26d60008 	addiu	s6,s6,8
    3fe0:	1696377f 	bne	s4,s6,11de0 <inst_error>
    3fe4:	00000000 	nop
	...
    3ff0:	001fa821 	addu	s5,zero,ra
    3ff4:	3c0c9b87 	lui	t4,0x9b87
    3ff8:	358c4393 	ori	t4,t4,0x4393
    3ffc:	3c0d9548 	lui	t5,0x9548
    4000:	35ad2680 	ori	t5,t5,0x2680
    4004:	24100000 	li	s0,0
    4008:	10000012 	b	4054 <n36_bgezal_test+0x4054>
    400c:	24120000 	li	s2,0
    4010:	00000000 	nop
    4014:	3c109b87 	lui	s0,0x9b87
    4018:	36104393 	ori	s0,s0,0x4393
    401c:	05110023 	bgezal	t0,40ac <n36_bgezal_test+0x40ac>
    4020:	00000000 	nop
    4024:	10000023 	b	40b4 <n36_bgezal_test+0x40b4>
    4028:	00000000 	nop
    402c:	00000000 	nop
    4030:	00000021 	move	zero,zero
    4034:	00000021 	move	zero,zero
    4038:	00000021 	move	zero,zero
    403c:	00000021 	move	zero,zero
    4040:	00000021 	move	zero,zero
    4044:	00000021 	move	zero,zero
    4048:	00000021 	move	zero,zero
    404c:	00000021 	move	zero,zero
    4050:	00000021 	move	zero,zero
    4054:	3c08558a 	lui	t0,0x558a
    4058:	3508c57d 	ori	t0,t0,0xc57d
    405c:	0511ffed 	bgezal	t0,4014 <n36_bgezal_test+0x4014>
    4060:	00000000 	nop
    4064:	10000013 	b	40b4 <n36_bgezal_test+0x40b4>
    4068:	00000000 	nop
    406c:	00000000 	nop
    4070:	00000021 	move	zero,zero
    4074:	00000021 	move	zero,zero
    4078:	00000021 	move	zero,zero
    407c:	00000021 	move	zero,zero
    4080:	00000021 	move	zero,zero
    4084:	00000021 	move	zero,zero
    4088:	00000021 	move	zero,zero
    408c:	00000021 	move	zero,zero
    4090:	00000021 	move	zero,zero
    4094:	00000021 	move	zero,zero
    4098:	00000021 	move	zero,zero
    409c:	00000021 	move	zero,zero
    40a0:	00000021 	move	zero,zero
    40a4:	00000021 	move	zero,zero
    40a8:	00000021 	move	zero,zero
    40ac:	3c129548 	lui	s2,0x9548
    40b0:	36522680 	ori	s2,s2,0x2680
    40b4:	001fa021 	addu	s4,zero,ra
    40b8:	0015f821 	addu	ra,zero,s5
    40bc:	3c150000 	lui	s5,0x0
    40c0:	26b5401c 	addiu	s5,s5,16412
    40c4:	3c160000 	lui	s6,0x0
    40c8:	26d6405c 	addiu	s6,s6,16476
    40cc:	3c189b87 	lui	t8,0x9b87
    40d0:	37184393 	ori	t8,t8,0x4393
    40d4:	16183742 	bne	s0,t8,11de0 <inst_error>
    40d8:	00000000 	nop
    40dc:	00000000 	nop
    40e0:	3c189548 	lui	t8,0x9548
    40e4:	37182680 	ori	t8,t8,0x2680
    40e8:	1658373d 	bne	s2,t8,11de0 <inst_error>
    40ec:	00000000 	nop
    40f0:	00000000 	nop
    40f4:	3c19bfc0 	lui	t9,0xbfc0
    40f8:	373924f0 	ori	t9,t9,0x24f0
    40fc:	3c18bfc0 	lui	t8,0xbfc0
    4100:	371824e8 	ori	t8,t8,0x24e8
    4104:	27180008 	addiu	t8,t8,8
    4108:	1319000a 	beq	t8,t9,4134 <n36_bgezal_test+0x4134>
    410c:	00000000 	nop
    4110:	00000000 	nop
    4114:	3c18bfc0 	lui	t8,0xbfc0
    4118:	37182520 	ori	t8,t8,0x2520
    411c:	27180008 	addiu	t8,t8,8
    4120:	1319000a 	beq	t8,t9,414c <n36_bgezal_test+0x414c>
    4124:	00000000 	nop
    4128:	1000372d 	b	11de0 <inst_error>
    412c:	00000000 	nop
    4130:	00000000 	nop
    4134:	26b50008 	addiu	s5,s5,8
    4138:	16953729 	bne	s4,s5,11de0 <inst_error>
    413c:	00000000 	nop
    4140:	10000006 	b	415c <n36_bgezal_test+0x415c>
    4144:	00000000 	nop
    4148:	00000000 	nop
    414c:	26d60008 	addiu	s6,s6,8
    4150:	16963723 	bne	s4,s6,11de0 <inst_error>
    4154:	00000000 	nop
	...
    4160:	001fa821 	addu	s5,zero,ra
    4164:	3c0cddbb 	lui	t4,0xddbb
    4168:	358c3172 	ori	t4,t4,0x3172
    416c:	3c0d573c 	lui	t5,0x573c
    4170:	35ad55da 	ori	t5,t5,0x55da
    4174:	24100000 	li	s0,0
    4178:	10000012 	b	41c4 <n36_bgezal_test+0x41c4>
    417c:	24120000 	li	s2,0
    4180:	00000000 	nop
    4184:	3c10ddbb 	lui	s0,0xddbb
    4188:	36103172 	ori	s0,s0,0x3172
    418c:	05110023 	bgezal	t0,421c <n36_bgezal_test+0x421c>
    4190:	00000000 	nop
    4194:	10000023 	b	4224 <n36_bgezal_test+0x4224>
    4198:	00000000 	nop
    419c:	00000000 	nop
    41a0:	00000021 	move	zero,zero
    41a4:	00000021 	move	zero,zero
    41a8:	00000021 	move	zero,zero
    41ac:	00000021 	move	zero,zero
    41b0:	00000021 	move	zero,zero
    41b4:	00000021 	move	zero,zero
    41b8:	00000021 	move	zero,zero
    41bc:	00000021 	move	zero,zero
    41c0:	00000021 	move	zero,zero
    41c4:	3c08df4f 	lui	t0,0xdf4f
    41c8:	35080f00 	ori	t0,t0,0xf00
    41cc:	0511ffed 	bgezal	t0,4184 <n36_bgezal_test+0x4184>
    41d0:	00000000 	nop
    41d4:	10000013 	b	4224 <n36_bgezal_test+0x4224>
    41d8:	00000000 	nop
    41dc:	00000000 	nop
    41e0:	00000021 	move	zero,zero
    41e4:	00000021 	move	zero,zero
    41e8:	00000021 	move	zero,zero
    41ec:	00000021 	move	zero,zero
    41f0:	00000021 	move	zero,zero
    41f4:	00000021 	move	zero,zero
    41f8:	00000021 	move	zero,zero
    41fc:	00000021 	move	zero,zero
    4200:	00000021 	move	zero,zero
    4204:	00000021 	move	zero,zero
    4208:	00000021 	move	zero,zero
    420c:	00000021 	move	zero,zero
    4210:	00000021 	move	zero,zero
    4214:	00000021 	move	zero,zero
    4218:	00000021 	move	zero,zero
    421c:	3c12573c 	lui	s2,0x573c
    4220:	365255da 	ori	s2,s2,0x55da
    4224:	001fa021 	addu	s4,zero,ra
    4228:	0015f821 	addu	ra,zero,s5
    422c:	3c150000 	lui	s5,0x0
    4230:	26b5418c 	addiu	s5,s5,16780
    4234:	3c160000 	lui	s6,0x0
    4238:	26d641cc 	addiu	s6,s6,16844
    423c:	24180000 	li	t8,0
    4240:	161836e7 	bne	s0,t8,11de0 <inst_error>
    4244:	00000000 	nop
    4248:	00000000 	nop
    424c:	24180000 	li	t8,0
    4250:	165836e3 	bne	s2,t8,11de0 <inst_error>
    4254:	00000000 	nop
    4258:	00000000 	nop
    425c:	3c19bfc0 	lui	t9,0xbfc0
    4260:	373925e4 	ori	t9,t9,0x25e4
    4264:	3c18bfc0 	lui	t8,0xbfc0
    4268:	371825a4 	ori	t8,t8,0x25a4
    426c:	27180008 	addiu	t8,t8,8
    4270:	1319000a 	beq	t8,t9,429c <n36_bgezal_test+0x429c>
    4274:	00000000 	nop
    4278:	00000000 	nop
    427c:	3c18bfc0 	lui	t8,0xbfc0
    4280:	371825dc 	ori	t8,t8,0x25dc
    4284:	27180008 	addiu	t8,t8,8
    4288:	1319000a 	beq	t8,t9,42b4 <n36_bgezal_test+0x42b4>
    428c:	00000000 	nop
    4290:	100036d3 	b	11de0 <inst_error>
    4294:	00000000 	nop
    4298:	00000000 	nop
    429c:	26b50008 	addiu	s5,s5,8
    42a0:	169536cf 	bne	s4,s5,11de0 <inst_error>
    42a4:	00000000 	nop
    42a8:	10000006 	b	42c4 <n36_bgezal_test+0x42c4>
    42ac:	00000000 	nop
    42b0:	00000000 	nop
    42b4:	26d60008 	addiu	s6,s6,8
    42b8:	169636c9 	bne	s4,s6,11de0 <inst_error>
    42bc:	00000000 	nop
	...
    42c8:	001fa821 	addu	s5,zero,ra
    42cc:	3c0c9adf 	lui	t4,0x9adf
    42d0:	358cc9b8 	ori	t4,t4,0xc9b8
    42d4:	3c0d8aa5 	lui	t5,0x8aa5
    42d8:	35ad4cc9 	ori	t5,t5,0x4cc9
    42dc:	24100000 	li	s0,0
    42e0:	10000012 	b	432c <n36_bgezal_test+0x432c>
    42e4:	24120000 	li	s2,0
    42e8:	00000000 	nop
    42ec:	3c109adf 	lui	s0,0x9adf
    42f0:	3610c9b8 	ori	s0,s0,0xc9b8
    42f4:	05110023 	bgezal	t0,4384 <n36_bgezal_test+0x4384>
    42f8:	00000000 	nop
    42fc:	10000023 	b	438c <n36_bgezal_test+0x438c>
    4300:	00000000 	nop
    4304:	00000000 	nop
    4308:	00000021 	move	zero,zero
    430c:	00000021 	move	zero,zero
    4310:	00000021 	move	zero,zero
    4314:	00000021 	move	zero,zero
    4318:	00000021 	move	zero,zero
    431c:	00000021 	move	zero,zero
    4320:	00000021 	move	zero,zero
    4324:	00000021 	move	zero,zero
    4328:	00000021 	move	zero,zero
    432c:	3c08d059 	lui	t0,0xd059
    4330:	350851cb 	ori	t0,t0,0x51cb
    4334:	0511ffed 	bgezal	t0,42ec <n36_bgezal_test+0x42ec>
    4338:	00000000 	nop
    433c:	10000013 	b	438c <n36_bgezal_test+0x438c>
    4340:	00000000 	nop
    4344:	00000000 	nop
    4348:	00000021 	move	zero,zero
    434c:	00000021 	move	zero,zero
    4350:	00000021 	move	zero,zero
    4354:	00000021 	move	zero,zero
    4358:	00000021 	move	zero,zero
    435c:	00000021 	move	zero,zero
    4360:	00000021 	move	zero,zero
    4364:	00000021 	move	zero,zero
    4368:	00000021 	move	zero,zero
    436c:	00000021 	move	zero,zero
    4370:	00000021 	move	zero,zero
    4374:	00000021 	move	zero,zero
    4378:	00000021 	move	zero,zero
    437c:	00000021 	move	zero,zero
    4380:	00000021 	move	zero,zero
    4384:	3c128aa5 	lui	s2,0x8aa5
    4388:	36524cc9 	ori	s2,s2,0x4cc9
    438c:	001fa021 	addu	s4,zero,ra
    4390:	0015f821 	addu	ra,zero,s5
    4394:	3c150000 	lui	s5,0x0
    4398:	26b542f4 	addiu	s5,s5,17140
    439c:	3c160000 	lui	s6,0x0
    43a0:	26d64334 	addiu	s6,s6,17204
    43a4:	24180000 	li	t8,0
    43a8:	1618368d 	bne	s0,t8,11de0 <inst_error>
    43ac:	00000000 	nop
    43b0:	00000000 	nop
    43b4:	24180000 	li	t8,0
    43b8:	16583689 	bne	s2,t8,11de0 <inst_error>
    43bc:	00000000 	nop
    43c0:	00000000 	nop
    43c4:	3c19bfc0 	lui	t9,0xbfc0
    43c8:	373926a0 	ori	t9,t9,0x26a0
    43cc:	3c18bfc0 	lui	t8,0xbfc0
    43d0:	37182660 	ori	t8,t8,0x2660
    43d4:	27180008 	addiu	t8,t8,8
    43d8:	1319000a 	beq	t8,t9,4404 <n36_bgezal_test+0x4404>
    43dc:	00000000 	nop
    43e0:	00000000 	nop
    43e4:	3c18bfc0 	lui	t8,0xbfc0
    43e8:	37182698 	ori	t8,t8,0x2698
    43ec:	27180008 	addiu	t8,t8,8
    43f0:	1319000a 	beq	t8,t9,441c <n36_bgezal_test+0x441c>
    43f4:	00000000 	nop
    43f8:	10003679 	b	11de0 <inst_error>
    43fc:	00000000 	nop
    4400:	00000000 	nop
    4404:	26b50008 	addiu	s5,s5,8
    4408:	16953675 	bne	s4,s5,11de0 <inst_error>
    440c:	00000000 	nop
    4410:	10000006 	b	442c <n36_bgezal_test+0x442c>
    4414:	00000000 	nop
    4418:	00000000 	nop
    441c:	26d60008 	addiu	s6,s6,8
    4420:	1696366f 	bne	s4,s6,11de0 <inst_error>
    4424:	00000000 	nop
	...
    4430:	001fa821 	addu	s5,zero,ra
    4434:	3c0c1bfa 	lui	t4,0x1bfa
    4438:	358c1c20 	ori	t4,t4,0x1c20
    443c:	3c0d47ff 	lui	t5,0x47ff
    4440:	35adc5a0 	ori	t5,t5,0xc5a0
    4444:	24100000 	li	s0,0
    4448:	10000012 	b	4494 <n36_bgezal_test+0x4494>
    444c:	24120000 	li	s2,0
    4450:	00000000 	nop
    4454:	3c101bfa 	lui	s0,0x1bfa
    4458:	36101c20 	ori	s0,s0,0x1c20
    445c:	05110023 	bgezal	t0,44ec <n36_bgezal_test+0x44ec>
    4460:	00000000 	nop
    4464:	10000023 	b	44f4 <n36_bgezal_test+0x44f4>
    4468:	00000000 	nop
    446c:	00000000 	nop
    4470:	00000021 	move	zero,zero
    4474:	00000021 	move	zero,zero
    4478:	00000021 	move	zero,zero
    447c:	00000021 	move	zero,zero
    4480:	00000021 	move	zero,zero
    4484:	00000021 	move	zero,zero
    4488:	00000021 	move	zero,zero
    448c:	00000021 	move	zero,zero
    4490:	00000021 	move	zero,zero
    4494:	3c08b512 	lui	t0,0xb512
    4498:	35088d6f 	ori	t0,t0,0x8d6f
    449c:	0511ffed 	bgezal	t0,4454 <n36_bgezal_test+0x4454>
    44a0:	00000000 	nop
    44a4:	10000013 	b	44f4 <n36_bgezal_test+0x44f4>
    44a8:	00000000 	nop
    44ac:	00000000 	nop
    44b0:	00000021 	move	zero,zero
    44b4:	00000021 	move	zero,zero
    44b8:	00000021 	move	zero,zero
    44bc:	00000021 	move	zero,zero
    44c0:	00000021 	move	zero,zero
    44c4:	00000021 	move	zero,zero
    44c8:	00000021 	move	zero,zero
    44cc:	00000021 	move	zero,zero
    44d0:	00000021 	move	zero,zero
    44d4:	00000021 	move	zero,zero
    44d8:	00000021 	move	zero,zero
    44dc:	00000021 	move	zero,zero
    44e0:	00000021 	move	zero,zero
    44e4:	00000021 	move	zero,zero
    44e8:	00000021 	move	zero,zero
    44ec:	3c1247ff 	lui	s2,0x47ff
    44f0:	3652c5a0 	ori	s2,s2,0xc5a0
    44f4:	001fa021 	addu	s4,zero,ra
    44f8:	0015f821 	addu	ra,zero,s5
    44fc:	3c150000 	lui	s5,0x0
    4500:	26b5445c 	addiu	s5,s5,17500
    4504:	3c160000 	lui	s6,0x0
    4508:	26d6449c 	addiu	s6,s6,17564
    450c:	24180000 	li	t8,0
    4510:	16183633 	bne	s0,t8,11de0 <inst_error>
    4514:	00000000 	nop
    4518:	00000000 	nop
    451c:	24180000 	li	t8,0
    4520:	1658362f 	bne	s2,t8,11de0 <inst_error>
    4524:	00000000 	nop
    4528:	00000000 	nop
    452c:	3c19bfc0 	lui	t9,0xbfc0
    4530:	3739275c 	ori	t9,t9,0x275c
    4534:	3c18bfc0 	lui	t8,0xbfc0
    4538:	3718271c 	ori	t8,t8,0x271c
    453c:	27180008 	addiu	t8,t8,8
    4540:	1319000a 	beq	t8,t9,456c <n36_bgezal_test+0x456c>
    4544:	00000000 	nop
    4548:	00000000 	nop
    454c:	3c18bfc0 	lui	t8,0xbfc0
    4550:	37182754 	ori	t8,t8,0x2754
    4554:	27180008 	addiu	t8,t8,8
    4558:	1319000a 	beq	t8,t9,4584 <n36_bgezal_test+0x4584>
    455c:	00000000 	nop
    4560:	1000361f 	b	11de0 <inst_error>
    4564:	00000000 	nop
    4568:	00000000 	nop
    456c:	26b50008 	addiu	s5,s5,8
    4570:	1695361b 	bne	s4,s5,11de0 <inst_error>
    4574:	00000000 	nop
    4578:	10000006 	b	4594 <n36_bgezal_test+0x4594>
    457c:	00000000 	nop
    4580:	00000000 	nop
    4584:	26d60008 	addiu	s6,s6,8
    4588:	16963615 	bne	s4,s6,11de0 <inst_error>
    458c:	00000000 	nop
	...
    4598:	001fa821 	addu	s5,zero,ra
    459c:	3c0c6310 	lui	t4,0x6310
    45a0:	358c0e90 	ori	t4,t4,0xe90
    45a4:	3c0dd0f1 	lui	t5,0xd0f1
    45a8:	35ad231c 	ori	t5,t5,0x231c
    45ac:	24100000 	li	s0,0
    45b0:	10000012 	b	45fc <n36_bgezal_test+0x45fc>
    45b4:	24120000 	li	s2,0
    45b8:	00000000 	nop
    45bc:	3c106310 	lui	s0,0x6310
    45c0:	36100e90 	ori	s0,s0,0xe90
    45c4:	05110023 	bgezal	t0,4654 <n36_bgezal_test+0x4654>
    45c8:	00000000 	nop
    45cc:	10000023 	b	465c <n36_bgezal_test+0x465c>
    45d0:	00000000 	nop
    45d4:	00000000 	nop
    45d8:	00000021 	move	zero,zero
    45dc:	00000021 	move	zero,zero
    45e0:	00000021 	move	zero,zero
    45e4:	00000021 	move	zero,zero
    45e8:	00000021 	move	zero,zero
    45ec:	00000021 	move	zero,zero
    45f0:	00000021 	move	zero,zero
    45f4:	00000021 	move	zero,zero
    45f8:	00000021 	move	zero,zero
    45fc:	3c08dfd5 	lui	t0,0xdfd5
    4600:	35083a06 	ori	t0,t0,0x3a06
    4604:	0511ffed 	bgezal	t0,45bc <n36_bgezal_test+0x45bc>
    4608:	00000000 	nop
    460c:	10000013 	b	465c <n36_bgezal_test+0x465c>
    4610:	00000000 	nop
    4614:	00000000 	nop
    4618:	00000021 	move	zero,zero
    461c:	00000021 	move	zero,zero
    4620:	00000021 	move	zero,zero
    4624:	00000021 	move	zero,zero
    4628:	00000021 	move	zero,zero
    462c:	00000021 	move	zero,zero
    4630:	00000021 	move	zero,zero
    4634:	00000021 	move	zero,zero
    4638:	00000021 	move	zero,zero
    463c:	00000021 	move	zero,zero
    4640:	00000021 	move	zero,zero
    4644:	00000021 	move	zero,zero
    4648:	00000021 	move	zero,zero
    464c:	00000021 	move	zero,zero
    4650:	00000021 	move	zero,zero
    4654:	3c12d0f1 	lui	s2,0xd0f1
    4658:	3652231c 	ori	s2,s2,0x231c
    465c:	001fa021 	addu	s4,zero,ra
    4660:	0015f821 	addu	ra,zero,s5
    4664:	3c150000 	lui	s5,0x0
    4668:	26b545c4 	addiu	s5,s5,17860
    466c:	3c160000 	lui	s6,0x0
    4670:	26d64604 	addiu	s6,s6,17924
    4674:	24180000 	li	t8,0
    4678:	161835d9 	bne	s0,t8,11de0 <inst_error>
    467c:	00000000 	nop
    4680:	00000000 	nop
    4684:	24180000 	li	t8,0
    4688:	165835d5 	bne	s2,t8,11de0 <inst_error>
    468c:	00000000 	nop
    4690:	00000000 	nop
    4694:	3c19bfc0 	lui	t9,0xbfc0
    4698:	37392818 	ori	t9,t9,0x2818
    469c:	3c18bfc0 	lui	t8,0xbfc0
    46a0:	371827d8 	ori	t8,t8,0x27d8
    46a4:	27180008 	addiu	t8,t8,8
    46a8:	1319000a 	beq	t8,t9,46d4 <n36_bgezal_test+0x46d4>
    46ac:	00000000 	nop
    46b0:	00000000 	nop
    46b4:	3c18bfc0 	lui	t8,0xbfc0
    46b8:	37182810 	ori	t8,t8,0x2810
    46bc:	27180008 	addiu	t8,t8,8
    46c0:	1319000a 	beq	t8,t9,46ec <n36_bgezal_test+0x46ec>
    46c4:	00000000 	nop
    46c8:	100035c5 	b	11de0 <inst_error>
    46cc:	00000000 	nop
    46d0:	00000000 	nop
    46d4:	26b50008 	addiu	s5,s5,8
    46d8:	169535c1 	bne	s4,s5,11de0 <inst_error>
    46dc:	00000000 	nop
    46e0:	10000006 	b	46fc <n36_bgezal_test+0x46fc>
    46e4:	00000000 	nop
    46e8:	00000000 	nop
    46ec:	26d60008 	addiu	s6,s6,8
    46f0:	169635bb 	bne	s4,s6,11de0 <inst_error>
    46f4:	00000000 	nop
	...
    4700:	001fa821 	addu	s5,zero,ra
    4704:	3c0c209b 	lui	t4,0x209b
    4708:	358c93c8 	ori	t4,t4,0x93c8
    470c:	3c0d7452 	lui	t5,0x7452
    4710:	35ad1540 	ori	t5,t5,0x1540
    4714:	24100000 	li	s0,0
    4718:	10000012 	b	4764 <n36_bgezal_test+0x4764>
    471c:	24120000 	li	s2,0
    4720:	00000000 	nop
    4724:	3c10209b 	lui	s0,0x209b
    4728:	361093c8 	ori	s0,s0,0x93c8
    472c:	05110023 	bgezal	t0,47bc <n36_bgezal_test+0x47bc>
    4730:	00000000 	nop
    4734:	10000023 	b	47c4 <n36_bgezal_test+0x47c4>
    4738:	00000000 	nop
    473c:	00000000 	nop
    4740:	00000021 	move	zero,zero
    4744:	00000021 	move	zero,zero
    4748:	00000021 	move	zero,zero
    474c:	00000021 	move	zero,zero
    4750:	00000021 	move	zero,zero
    4754:	00000021 	move	zero,zero
    4758:	00000021 	move	zero,zero
    475c:	00000021 	move	zero,zero
    4760:	00000021 	move	zero,zero
    4764:	3c0874ba 	lui	t0,0x74ba
    4768:	35080840 	ori	t0,t0,0x840
    476c:	0511ffed 	bgezal	t0,4724 <n36_bgezal_test+0x4724>
    4770:	00000000 	nop
    4774:	10000013 	b	47c4 <n36_bgezal_test+0x47c4>
    4778:	00000000 	nop
    477c:	00000000 	nop
    4780:	00000021 	move	zero,zero
    4784:	00000021 	move	zero,zero
    4788:	00000021 	move	zero,zero
    478c:	00000021 	move	zero,zero
    4790:	00000021 	move	zero,zero
    4794:	00000021 	move	zero,zero
    4798:	00000021 	move	zero,zero
    479c:	00000021 	move	zero,zero
    47a0:	00000021 	move	zero,zero
    47a4:	00000021 	move	zero,zero
    47a8:	00000021 	move	zero,zero
    47ac:	00000021 	move	zero,zero
    47b0:	00000021 	move	zero,zero
    47b4:	00000021 	move	zero,zero
    47b8:	00000021 	move	zero,zero
    47bc:	3c127452 	lui	s2,0x7452
    47c0:	36521540 	ori	s2,s2,0x1540
    47c4:	001fa021 	addu	s4,zero,ra
    47c8:	0015f821 	addu	ra,zero,s5
    47cc:	3c150000 	lui	s5,0x0
    47d0:	26b5472c 	addiu	s5,s5,18220
    47d4:	3c160000 	lui	s6,0x0
    47d8:	26d6476c 	addiu	s6,s6,18284
    47dc:	3c18209b 	lui	t8,0x209b
    47e0:	371893c8 	ori	t8,t8,0x93c8
    47e4:	1618357e 	bne	s0,t8,11de0 <inst_error>
    47e8:	00000000 	nop
    47ec:	00000000 	nop
    47f0:	3c187452 	lui	t8,0x7452
    47f4:	37181540 	ori	t8,t8,0x1540
    47f8:	16583579 	bne	s2,t8,11de0 <inst_error>
    47fc:	00000000 	nop
    4800:	00000000 	nop
    4804:	3c19bfc0 	lui	t9,0xbfc0
    4808:	3739289c 	ori	t9,t9,0x289c
    480c:	3c18bfc0 	lui	t8,0xbfc0
    4810:	37182894 	ori	t8,t8,0x2894
    4814:	27180008 	addiu	t8,t8,8
    4818:	1319000a 	beq	t8,t9,4844 <n36_bgezal_test+0x4844>
    481c:	00000000 	nop
    4820:	00000000 	nop
    4824:	3c18bfc0 	lui	t8,0xbfc0
    4828:	371828cc 	ori	t8,t8,0x28cc
    482c:	27180008 	addiu	t8,t8,8
    4830:	1319000a 	beq	t8,t9,485c <n36_bgezal_test+0x485c>
    4834:	00000000 	nop
    4838:	10003569 	b	11de0 <inst_error>
    483c:	00000000 	nop
    4840:	00000000 	nop
    4844:	26b50008 	addiu	s5,s5,8
    4848:	16953565 	bne	s4,s5,11de0 <inst_error>
    484c:	00000000 	nop
    4850:	10000006 	b	486c <n36_bgezal_test+0x486c>
    4854:	00000000 	nop
    4858:	00000000 	nop
    485c:	26d60008 	addiu	s6,s6,8
    4860:	1696355f 	bne	s4,s6,11de0 <inst_error>
    4864:	00000000 	nop
	...
    4870:	001fa821 	addu	s5,zero,ra
    4874:	3c0c4098 	lui	t4,0x4098
    4878:	358c744a 	ori	t4,t4,0x744a
    487c:	3c0d31b3 	lui	t5,0x31b3
    4880:	35ad4048 	ori	t5,t5,0x4048
    4884:	24100000 	li	s0,0
    4888:	10000012 	b	48d4 <n36_bgezal_test+0x48d4>
    488c:	24120000 	li	s2,0
    4890:	00000000 	nop
    4894:	3c104098 	lui	s0,0x4098
    4898:	3610744a 	ori	s0,s0,0x744a
    489c:	05110023 	bgezal	t0,492c <n36_bgezal_test+0x492c>
    48a0:	00000000 	nop
    48a4:	10000023 	b	4934 <n36_bgezal_test+0x4934>
    48a8:	00000000 	nop
    48ac:	00000000 	nop
    48b0:	00000021 	move	zero,zero
    48b4:	00000021 	move	zero,zero
    48b8:	00000021 	move	zero,zero
    48bc:	00000021 	move	zero,zero
    48c0:	00000021 	move	zero,zero
    48c4:	00000021 	move	zero,zero
    48c8:	00000021 	move	zero,zero
    48cc:	00000021 	move	zero,zero
    48d0:	00000021 	move	zero,zero
    48d4:	3c08e265 	lui	t0,0xe265
    48d8:	3508cd50 	ori	t0,t0,0xcd50
    48dc:	0511ffed 	bgezal	t0,4894 <n36_bgezal_test+0x4894>
    48e0:	00000000 	nop
    48e4:	10000013 	b	4934 <n36_bgezal_test+0x4934>
    48e8:	00000000 	nop
    48ec:	00000000 	nop
    48f0:	00000021 	move	zero,zero
    48f4:	00000021 	move	zero,zero
    48f8:	00000021 	move	zero,zero
    48fc:	00000021 	move	zero,zero
    4900:	00000021 	move	zero,zero
    4904:	00000021 	move	zero,zero
    4908:	00000021 	move	zero,zero
    490c:	00000021 	move	zero,zero
    4910:	00000021 	move	zero,zero
    4914:	00000021 	move	zero,zero
    4918:	00000021 	move	zero,zero
    491c:	00000021 	move	zero,zero
    4920:	00000021 	move	zero,zero
    4924:	00000021 	move	zero,zero
    4928:	00000021 	move	zero,zero
    492c:	3c1231b3 	lui	s2,0x31b3
    4930:	36524048 	ori	s2,s2,0x4048
    4934:	001fa021 	addu	s4,zero,ra
    4938:	0015f821 	addu	ra,zero,s5
    493c:	3c150000 	lui	s5,0x0
    4940:	26b5489c 	addiu	s5,s5,18588
    4944:	3c160000 	lui	s6,0x0
    4948:	26d648dc 	addiu	s6,s6,18652
    494c:	24180000 	li	t8,0
    4950:	16183523 	bne	s0,t8,11de0 <inst_error>
    4954:	00000000 	nop
    4958:	00000000 	nop
    495c:	24180000 	li	t8,0
    4960:	1658351f 	bne	s2,t8,11de0 <inst_error>
    4964:	00000000 	nop
    4968:	00000000 	nop
    496c:	3c19bfc0 	lui	t9,0xbfc0
    4970:	37392990 	ori	t9,t9,0x2990
    4974:	3c18bfc0 	lui	t8,0xbfc0
    4978:	37182950 	ori	t8,t8,0x2950
    497c:	27180008 	addiu	t8,t8,8
    4980:	1319000a 	beq	t8,t9,49ac <n36_bgezal_test+0x49ac>
    4984:	00000000 	nop
    4988:	00000000 	nop
    498c:	3c18bfc0 	lui	t8,0xbfc0
    4990:	37182988 	ori	t8,t8,0x2988
    4994:	27180008 	addiu	t8,t8,8
    4998:	1319000a 	beq	t8,t9,49c4 <n36_bgezal_test+0x49c4>
    499c:	00000000 	nop
    49a0:	1000350f 	b	11de0 <inst_error>
    49a4:	00000000 	nop
    49a8:	00000000 	nop
    49ac:	26b50008 	addiu	s5,s5,8
    49b0:	1695350b 	bne	s4,s5,11de0 <inst_error>
    49b4:	00000000 	nop
    49b8:	10000006 	b	49d4 <n36_bgezal_test+0x49d4>
    49bc:	00000000 	nop
    49c0:	00000000 	nop
    49c4:	26d60008 	addiu	s6,s6,8
    49c8:	16963505 	bne	s4,s6,11de0 <inst_error>
    49cc:	00000000 	nop
	...
    49d8:	001fa821 	addu	s5,zero,ra
    49dc:	3c0cc1dc 	lui	t4,0xc1dc
    49e0:	358cfe80 	ori	t4,t4,0xfe80
    49e4:	3c0d88a4 	lui	t5,0x88a4
    49e8:	35adcd80 	ori	t5,t5,0xcd80
    49ec:	24100000 	li	s0,0
    49f0:	10000012 	b	4a3c <n36_bgezal_test+0x4a3c>
    49f4:	24120000 	li	s2,0
    49f8:	00000000 	nop
    49fc:	3c10c1dc 	lui	s0,0xc1dc
    4a00:	3610fe80 	ori	s0,s0,0xfe80
    4a04:	05110023 	bgezal	t0,4a94 <n36_bgezal_test+0x4a94>
    4a08:	00000000 	nop
    4a0c:	10000023 	b	4a9c <n36_bgezal_test+0x4a9c>
    4a10:	00000000 	nop
    4a14:	00000000 	nop
    4a18:	00000021 	move	zero,zero
    4a1c:	00000021 	move	zero,zero
    4a20:	00000021 	move	zero,zero
    4a24:	00000021 	move	zero,zero
    4a28:	00000021 	move	zero,zero
    4a2c:	00000021 	move	zero,zero
    4a30:	00000021 	move	zero,zero
    4a34:	00000021 	move	zero,zero
    4a38:	00000021 	move	zero,zero
    4a3c:	3c086885 	lui	t0,0x6885
    4a40:	3508271e 	ori	t0,t0,0x271e
    4a44:	0511ffed 	bgezal	t0,49fc <n36_bgezal_test+0x49fc>
    4a48:	00000000 	nop
    4a4c:	10000013 	b	4a9c <n36_bgezal_test+0x4a9c>
    4a50:	00000000 	nop
    4a54:	00000000 	nop
    4a58:	00000021 	move	zero,zero
    4a5c:	00000021 	move	zero,zero
    4a60:	00000021 	move	zero,zero
    4a64:	00000021 	move	zero,zero
    4a68:	00000021 	move	zero,zero
    4a6c:	00000021 	move	zero,zero
    4a70:	00000021 	move	zero,zero
    4a74:	00000021 	move	zero,zero
    4a78:	00000021 	move	zero,zero
    4a7c:	00000021 	move	zero,zero
    4a80:	00000021 	move	zero,zero
    4a84:	00000021 	move	zero,zero
    4a88:	00000021 	move	zero,zero
    4a8c:	00000021 	move	zero,zero
    4a90:	00000021 	move	zero,zero
    4a94:	3c1288a4 	lui	s2,0x88a4
    4a98:	3652cd80 	ori	s2,s2,0xcd80
    4a9c:	001fa021 	addu	s4,zero,ra
    4aa0:	0015f821 	addu	ra,zero,s5
    4aa4:	3c150000 	lui	s5,0x0
    4aa8:	26b54a04 	addiu	s5,s5,18948
    4aac:	3c160000 	lui	s6,0x0
    4ab0:	26d64a44 	addiu	s6,s6,19012
    4ab4:	3c18c1dc 	lui	t8,0xc1dc
    4ab8:	3718fe80 	ori	t8,t8,0xfe80
    4abc:	161834c8 	bne	s0,t8,11de0 <inst_error>
    4ac0:	00000000 	nop
    4ac4:	00000000 	nop
    4ac8:	3c1888a4 	lui	t8,0x88a4
    4acc:	3718cd80 	ori	t8,t8,0xcd80
    4ad0:	165834c3 	bne	s2,t8,11de0 <inst_error>
    4ad4:	00000000 	nop
    4ad8:	00000000 	nop
    4adc:	3c19bfc0 	lui	t9,0xbfc0
    4ae0:	37392a14 	ori	t9,t9,0x2a14
    4ae4:	3c18bfc0 	lui	t8,0xbfc0
    4ae8:	37182a0c 	ori	t8,t8,0x2a0c
    4aec:	27180008 	addiu	t8,t8,8
    4af0:	1319000a 	beq	t8,t9,4b1c <n36_bgezal_test+0x4b1c>
    4af4:	00000000 	nop
    4af8:	00000000 	nop
    4afc:	3c18bfc0 	lui	t8,0xbfc0
    4b00:	37182a44 	ori	t8,t8,0x2a44
    4b04:	27180008 	addiu	t8,t8,8
    4b08:	1319000a 	beq	t8,t9,4b34 <n36_bgezal_test+0x4b34>
    4b0c:	00000000 	nop
    4b10:	100034b3 	b	11de0 <inst_error>
    4b14:	00000000 	nop
    4b18:	00000000 	nop
    4b1c:	26b50008 	addiu	s5,s5,8
    4b20:	169534af 	bne	s4,s5,11de0 <inst_error>
    4b24:	00000000 	nop
    4b28:	10000006 	b	4b44 <n36_bgezal_test+0x4b44>
    4b2c:	00000000 	nop
    4b30:	00000000 	nop
    4b34:	26d60008 	addiu	s6,s6,8
    4b38:	169634a9 	bne	s4,s6,11de0 <inst_error>
    4b3c:	00000000 	nop
	...
    4b48:	001fa821 	addu	s5,zero,ra
    4b4c:	3c0c54d1 	lui	t4,0x54d1
    4b50:	358c2648 	ori	t4,t4,0x2648
    4b54:	3c0de41a 	lui	t5,0xe41a
    4b58:	35adf3f0 	ori	t5,t5,0xf3f0
    4b5c:	24100000 	li	s0,0
    4b60:	10000012 	b	4bac <n36_bgezal_test+0x4bac>
    4b64:	24120000 	li	s2,0
    4b68:	00000000 	nop
    4b6c:	3c1054d1 	lui	s0,0x54d1
    4b70:	36102648 	ori	s0,s0,0x2648
    4b74:	05110023 	bgezal	t0,4c04 <n36_bgezal_test+0x4c04>
    4b78:	00000000 	nop
    4b7c:	10000023 	b	4c0c <n36_bgezal_test+0x4c0c>
    4b80:	00000000 	nop
    4b84:	00000000 	nop
    4b88:	00000021 	move	zero,zero
    4b8c:	00000021 	move	zero,zero
    4b90:	00000021 	move	zero,zero
    4b94:	00000021 	move	zero,zero
    4b98:	00000021 	move	zero,zero
    4b9c:	00000021 	move	zero,zero
    4ba0:	00000021 	move	zero,zero
    4ba4:	00000021 	move	zero,zero
    4ba8:	00000021 	move	zero,zero
    4bac:	3c08efc3 	lui	t0,0xefc3
    4bb0:	35086830 	ori	t0,t0,0x6830
    4bb4:	0511ffed 	bgezal	t0,4b6c <n36_bgezal_test+0x4b6c>
    4bb8:	00000000 	nop
    4bbc:	10000013 	b	4c0c <n36_bgezal_test+0x4c0c>
    4bc0:	00000000 	nop
    4bc4:	00000000 	nop
    4bc8:	00000021 	move	zero,zero
    4bcc:	00000021 	move	zero,zero
    4bd0:	00000021 	move	zero,zero
    4bd4:	00000021 	move	zero,zero
    4bd8:	00000021 	move	zero,zero
    4bdc:	00000021 	move	zero,zero
    4be0:	00000021 	move	zero,zero
    4be4:	00000021 	move	zero,zero
    4be8:	00000021 	move	zero,zero
    4bec:	00000021 	move	zero,zero
    4bf0:	00000021 	move	zero,zero
    4bf4:	00000021 	move	zero,zero
    4bf8:	00000021 	move	zero,zero
    4bfc:	00000021 	move	zero,zero
    4c00:	00000021 	move	zero,zero
    4c04:	3c12e41a 	lui	s2,0xe41a
    4c08:	3652f3f0 	ori	s2,s2,0xf3f0
    4c0c:	001fa021 	addu	s4,zero,ra
    4c10:	0015f821 	addu	ra,zero,s5
    4c14:	3c150000 	lui	s5,0x0
    4c18:	26b54b74 	addiu	s5,s5,19316
    4c1c:	3c160000 	lui	s6,0x0
    4c20:	26d64bb4 	addiu	s6,s6,19380
    4c24:	24180000 	li	t8,0
    4c28:	1618346d 	bne	s0,t8,11de0 <inst_error>
    4c2c:	00000000 	nop
    4c30:	00000000 	nop
    4c34:	24180000 	li	t8,0
    4c38:	16583469 	bne	s2,t8,11de0 <inst_error>
    4c3c:	00000000 	nop
    4c40:	00000000 	nop
    4c44:	3c19bfc0 	lui	t9,0xbfc0
    4c48:	37392b08 	ori	t9,t9,0x2b08
    4c4c:	3c18bfc0 	lui	t8,0xbfc0
    4c50:	37182ac8 	ori	t8,t8,0x2ac8
    4c54:	27180008 	addiu	t8,t8,8
    4c58:	1319000a 	beq	t8,t9,4c84 <n36_bgezal_test+0x4c84>
    4c5c:	00000000 	nop
    4c60:	00000000 	nop
    4c64:	3c18bfc0 	lui	t8,0xbfc0
    4c68:	37182b00 	ori	t8,t8,0x2b00
    4c6c:	27180008 	addiu	t8,t8,8
    4c70:	1319000a 	beq	t8,t9,4c9c <n36_bgezal_test+0x4c9c>
    4c74:	00000000 	nop
    4c78:	10003459 	b	11de0 <inst_error>
    4c7c:	00000000 	nop
    4c80:	00000000 	nop
    4c84:	26b50008 	addiu	s5,s5,8
    4c88:	16953455 	bne	s4,s5,11de0 <inst_error>
    4c8c:	00000000 	nop
    4c90:	10000006 	b	4cac <n36_bgezal_test+0x4cac>
    4c94:	00000000 	nop
    4c98:	00000000 	nop
    4c9c:	26d60008 	addiu	s6,s6,8
    4ca0:	1696344f 	bne	s4,s6,11de0 <inst_error>
    4ca4:	00000000 	nop
	...
    4cb0:	001fa821 	addu	s5,zero,ra
    4cb4:	3c0ce86f 	lui	t4,0xe86f
    4cb8:	358cfef3 	ori	t4,t4,0xfef3
    4cbc:	3c0d6920 	lui	t5,0x6920
    4cc0:	35ade15c 	ori	t5,t5,0xe15c
    4cc4:	24100000 	li	s0,0
    4cc8:	10000012 	b	4d14 <n36_bgezal_test+0x4d14>
    4ccc:	24120000 	li	s2,0
    4cd0:	00000000 	nop
    4cd4:	3c10e86f 	lui	s0,0xe86f
    4cd8:	3610fef3 	ori	s0,s0,0xfef3
    4cdc:	05110023 	bgezal	t0,4d6c <n36_bgezal_test+0x4d6c>
    4ce0:	00000000 	nop
    4ce4:	10000023 	b	4d74 <n36_bgezal_test+0x4d74>
    4ce8:	00000000 	nop
    4cec:	00000000 	nop
    4cf0:	00000021 	move	zero,zero
    4cf4:	00000021 	move	zero,zero
    4cf8:	00000021 	move	zero,zero
    4cfc:	00000021 	move	zero,zero
    4d00:	00000021 	move	zero,zero
    4d04:	00000021 	move	zero,zero
    4d08:	00000021 	move	zero,zero
    4d0c:	00000021 	move	zero,zero
    4d10:	00000021 	move	zero,zero
    4d14:	3c08ad25 	lui	t0,0xad25
    4d18:	3508a725 	ori	t0,t0,0xa725
    4d1c:	0511ffed 	bgezal	t0,4cd4 <n36_bgezal_test+0x4cd4>
    4d20:	00000000 	nop
    4d24:	10000013 	b	4d74 <n36_bgezal_test+0x4d74>
    4d28:	00000000 	nop
    4d2c:	00000000 	nop
    4d30:	00000021 	move	zero,zero
    4d34:	00000021 	move	zero,zero
    4d38:	00000021 	move	zero,zero
    4d3c:	00000021 	move	zero,zero
    4d40:	00000021 	move	zero,zero
    4d44:	00000021 	move	zero,zero
    4d48:	00000021 	move	zero,zero
    4d4c:	00000021 	move	zero,zero
    4d50:	00000021 	move	zero,zero
    4d54:	00000021 	move	zero,zero
    4d58:	00000021 	move	zero,zero
    4d5c:	00000021 	move	zero,zero
    4d60:	00000021 	move	zero,zero
    4d64:	00000021 	move	zero,zero
    4d68:	00000021 	move	zero,zero
    4d6c:	3c126920 	lui	s2,0x6920
    4d70:	3652e15c 	ori	s2,s2,0xe15c
    4d74:	001fa021 	addu	s4,zero,ra
    4d78:	0015f821 	addu	ra,zero,s5
    4d7c:	3c150000 	lui	s5,0x0
    4d80:	26b54cdc 	addiu	s5,s5,19676
    4d84:	3c160000 	lui	s6,0x0
    4d88:	26d64d1c 	addiu	s6,s6,19740
    4d8c:	24180000 	li	t8,0
    4d90:	16183413 	bne	s0,t8,11de0 <inst_error>
    4d94:	00000000 	nop
    4d98:	00000000 	nop
    4d9c:	24180000 	li	t8,0
    4da0:	1658340f 	bne	s2,t8,11de0 <inst_error>
    4da4:	00000000 	nop
    4da8:	00000000 	nop
    4dac:	3c19bfc0 	lui	t9,0xbfc0
    4db0:	37392bc4 	ori	t9,t9,0x2bc4
    4db4:	3c18bfc0 	lui	t8,0xbfc0
    4db8:	37182b84 	ori	t8,t8,0x2b84
    4dbc:	27180008 	addiu	t8,t8,8
    4dc0:	1319000a 	beq	t8,t9,4dec <n36_bgezal_test+0x4dec>
    4dc4:	00000000 	nop
    4dc8:	00000000 	nop
    4dcc:	3c18bfc0 	lui	t8,0xbfc0
    4dd0:	37182bbc 	ori	t8,t8,0x2bbc
    4dd4:	27180008 	addiu	t8,t8,8
    4dd8:	1319000a 	beq	t8,t9,4e04 <n36_bgezal_test+0x4e04>
    4ddc:	00000000 	nop
    4de0:	100033ff 	b	11de0 <inst_error>
    4de4:	00000000 	nop
    4de8:	00000000 	nop
    4dec:	26b50008 	addiu	s5,s5,8
    4df0:	169533fb 	bne	s4,s5,11de0 <inst_error>
    4df4:	00000000 	nop
    4df8:	10000006 	b	4e14 <n36_bgezal_test+0x4e14>
    4dfc:	00000000 	nop
    4e00:	00000000 	nop
    4e04:	26d60008 	addiu	s6,s6,8
    4e08:	169633f5 	bne	s4,s6,11de0 <inst_error>
    4e0c:	00000000 	nop
	...
    4e18:	001fa821 	addu	s5,zero,ra
    4e1c:	3c0c5221 	lui	t4,0x5221
    4e20:	358c3f70 	ori	t4,t4,0x3f70
    4e24:	3c0d1bbc 	lui	t5,0x1bbc
    4e28:	35ad4d28 	ori	t5,t5,0x4d28
    4e2c:	24100000 	li	s0,0
    4e30:	10000012 	b	4e7c <n36_bgezal_test+0x4e7c>
    4e34:	24120000 	li	s2,0
    4e38:	00000000 	nop
    4e3c:	3c105221 	lui	s0,0x5221
    4e40:	36103f70 	ori	s0,s0,0x3f70
    4e44:	05110023 	bgezal	t0,4ed4 <n36_bgezal_test+0x4ed4>
    4e48:	00000000 	nop
    4e4c:	10000023 	b	4edc <n36_bgezal_test+0x4edc>
    4e50:	00000000 	nop
    4e54:	00000000 	nop
    4e58:	00000021 	move	zero,zero
    4e5c:	00000021 	move	zero,zero
    4e60:	00000021 	move	zero,zero
    4e64:	00000021 	move	zero,zero
    4e68:	00000021 	move	zero,zero
    4e6c:	00000021 	move	zero,zero
    4e70:	00000021 	move	zero,zero
    4e74:	00000021 	move	zero,zero
    4e78:	00000021 	move	zero,zero
    4e7c:	3c087717 	lui	t0,0x7717
    4e80:	350829a0 	ori	t0,t0,0x29a0
    4e84:	0511ffed 	bgezal	t0,4e3c <n36_bgezal_test+0x4e3c>
    4e88:	00000000 	nop
    4e8c:	10000013 	b	4edc <n36_bgezal_test+0x4edc>
    4e90:	00000000 	nop
    4e94:	00000000 	nop
    4e98:	00000021 	move	zero,zero
    4e9c:	00000021 	move	zero,zero
    4ea0:	00000021 	move	zero,zero
    4ea4:	00000021 	move	zero,zero
    4ea8:	00000021 	move	zero,zero
    4eac:	00000021 	move	zero,zero
    4eb0:	00000021 	move	zero,zero
    4eb4:	00000021 	move	zero,zero
    4eb8:	00000021 	move	zero,zero
    4ebc:	00000021 	move	zero,zero
    4ec0:	00000021 	move	zero,zero
    4ec4:	00000021 	move	zero,zero
    4ec8:	00000021 	move	zero,zero
    4ecc:	00000021 	move	zero,zero
    4ed0:	00000021 	move	zero,zero
    4ed4:	3c121bbc 	lui	s2,0x1bbc
    4ed8:	36524d28 	ori	s2,s2,0x4d28
    4edc:	001fa021 	addu	s4,zero,ra
    4ee0:	0015f821 	addu	ra,zero,s5
    4ee4:	3c150000 	lui	s5,0x0
    4ee8:	26b54e44 	addiu	s5,s5,20036
    4eec:	3c160000 	lui	s6,0x0
    4ef0:	26d64e84 	addiu	s6,s6,20100
    4ef4:	3c185221 	lui	t8,0x5221
    4ef8:	37183f70 	ori	t8,t8,0x3f70
    4efc:	161833b8 	bne	s0,t8,11de0 <inst_error>
    4f00:	00000000 	nop
    4f04:	00000000 	nop
    4f08:	3c181bbc 	lui	t8,0x1bbc
    4f0c:	37184d28 	ori	t8,t8,0x4d28
    4f10:	165833b3 	bne	s2,t8,11de0 <inst_error>
    4f14:	00000000 	nop
    4f18:	00000000 	nop
    4f1c:	3c19bfc0 	lui	t9,0xbfc0
    4f20:	37392c48 	ori	t9,t9,0x2c48
    4f24:	3c18bfc0 	lui	t8,0xbfc0
    4f28:	37182c40 	ori	t8,t8,0x2c40
    4f2c:	27180008 	addiu	t8,t8,8
    4f30:	1319000a 	beq	t8,t9,4f5c <n36_bgezal_test+0x4f5c>
    4f34:	00000000 	nop
    4f38:	00000000 	nop
    4f3c:	3c18bfc0 	lui	t8,0xbfc0
    4f40:	37182c78 	ori	t8,t8,0x2c78
    4f44:	27180008 	addiu	t8,t8,8
    4f48:	1319000a 	beq	t8,t9,4f74 <n36_bgezal_test+0x4f74>
    4f4c:	00000000 	nop
    4f50:	100033a3 	b	11de0 <inst_error>
    4f54:	00000000 	nop
    4f58:	00000000 	nop
    4f5c:	26b50008 	addiu	s5,s5,8
    4f60:	1695339f 	bne	s4,s5,11de0 <inst_error>
    4f64:	00000000 	nop
    4f68:	10000006 	b	4f84 <n36_bgezal_test+0x4f84>
    4f6c:	00000000 	nop
    4f70:	00000000 	nop
    4f74:	26d60008 	addiu	s6,s6,8
    4f78:	16963399 	bne	s4,s6,11de0 <inst_error>
    4f7c:	00000000 	nop
	...
    4f88:	001fa821 	addu	s5,zero,ra
    4f8c:	3c0cc53e 	lui	t4,0xc53e
    4f90:	358c0410 	ori	t4,t4,0x410
    4f94:	3c0d7c0d 	lui	t5,0x7c0d
    4f98:	35ad79e3 	ori	t5,t5,0x79e3
    4f9c:	24100000 	li	s0,0
    4fa0:	10000012 	b	4fec <n36_bgezal_test+0x4fec>
    4fa4:	24120000 	li	s2,0
    4fa8:	00000000 	nop
    4fac:	3c10c53e 	lui	s0,0xc53e
    4fb0:	36100410 	ori	s0,s0,0x410
    4fb4:	05110023 	bgezal	t0,5044 <n36_bgezal_test+0x5044>
    4fb8:	00000000 	nop
    4fbc:	10000023 	b	504c <n36_bgezal_test+0x504c>
    4fc0:	00000000 	nop
    4fc4:	00000000 	nop
    4fc8:	00000021 	move	zero,zero
    4fcc:	00000021 	move	zero,zero
    4fd0:	00000021 	move	zero,zero
    4fd4:	00000021 	move	zero,zero
    4fd8:	00000021 	move	zero,zero
    4fdc:	00000021 	move	zero,zero
    4fe0:	00000021 	move	zero,zero
    4fe4:	00000021 	move	zero,zero
    4fe8:	00000021 	move	zero,zero
    4fec:	3c08051c 	lui	t0,0x51c
    4ff0:	35080bc2 	ori	t0,t0,0xbc2
    4ff4:	0511ffed 	bgezal	t0,4fac <n36_bgezal_test+0x4fac>
    4ff8:	00000000 	nop
    4ffc:	10000013 	b	504c <n36_bgezal_test+0x504c>
    5000:	00000000 	nop
    5004:	00000000 	nop
    5008:	00000021 	move	zero,zero
    500c:	00000021 	move	zero,zero
    5010:	00000021 	move	zero,zero
    5014:	00000021 	move	zero,zero
    5018:	00000021 	move	zero,zero
    501c:	00000021 	move	zero,zero
    5020:	00000021 	move	zero,zero
    5024:	00000021 	move	zero,zero
    5028:	00000021 	move	zero,zero
    502c:	00000021 	move	zero,zero
    5030:	00000021 	move	zero,zero
    5034:	00000021 	move	zero,zero
    5038:	00000021 	move	zero,zero
    503c:	00000021 	move	zero,zero
    5040:	00000021 	move	zero,zero
    5044:	3c127c0d 	lui	s2,0x7c0d
    5048:	365279e3 	ori	s2,s2,0x79e3
    504c:	001fa021 	addu	s4,zero,ra
    5050:	0015f821 	addu	ra,zero,s5
    5054:	3c150000 	lui	s5,0x0
    5058:	26b54fb4 	addiu	s5,s5,20404
    505c:	3c160000 	lui	s6,0x0
    5060:	26d64ff4 	addiu	s6,s6,20468
    5064:	3c18c53e 	lui	t8,0xc53e
    5068:	37180410 	ori	t8,t8,0x410
    506c:	1618335c 	bne	s0,t8,11de0 <inst_error>
    5070:	00000000 	nop
    5074:	00000000 	nop
    5078:	3c187c0d 	lui	t8,0x7c0d
    507c:	371879e3 	ori	t8,t8,0x79e3
    5080:	16583357 	bne	s2,t8,11de0 <inst_error>
    5084:	00000000 	nop
    5088:	00000000 	nop
    508c:	3c19bfc0 	lui	t9,0xbfc0
    5090:	37392d04 	ori	t9,t9,0x2d04
    5094:	3c18bfc0 	lui	t8,0xbfc0
    5098:	37182cfc 	ori	t8,t8,0x2cfc
    509c:	27180008 	addiu	t8,t8,8
    50a0:	1319000a 	beq	t8,t9,50cc <n36_bgezal_test+0x50cc>
    50a4:	00000000 	nop
    50a8:	00000000 	nop
    50ac:	3c18bfc0 	lui	t8,0xbfc0
    50b0:	37182d34 	ori	t8,t8,0x2d34
    50b4:	27180008 	addiu	t8,t8,8
    50b8:	1319000a 	beq	t8,t9,50e4 <n36_bgezal_test+0x50e4>
    50bc:	00000000 	nop
    50c0:	10003347 	b	11de0 <inst_error>
    50c4:	00000000 	nop
    50c8:	00000000 	nop
    50cc:	26b50008 	addiu	s5,s5,8
    50d0:	16953343 	bne	s4,s5,11de0 <inst_error>
    50d4:	00000000 	nop
    50d8:	10000006 	b	50f4 <n36_bgezal_test+0x50f4>
    50dc:	00000000 	nop
    50e0:	00000000 	nop
    50e4:	26d60008 	addiu	s6,s6,8
    50e8:	1696333d 	bne	s4,s6,11de0 <inst_error>
    50ec:	00000000 	nop
	...
    50f8:	001fa821 	addu	s5,zero,ra
    50fc:	3c0c4309 	lui	t4,0x4309
    5100:	358cff12 	ori	t4,t4,0xff12
    5104:	3c0d3abf 	lui	t5,0x3abf
    5108:	35ad1fbc 	ori	t5,t5,0x1fbc
    510c:	24100000 	li	s0,0
    5110:	10000012 	b	515c <n36_bgezal_test+0x515c>
    5114:	24120000 	li	s2,0
    5118:	00000000 	nop
    511c:	3c104309 	lui	s0,0x4309
    5120:	3610ff12 	ori	s0,s0,0xff12
    5124:	05110023 	bgezal	t0,51b4 <n36_bgezal_test+0x51b4>
    5128:	00000000 	nop
    512c:	10000023 	b	51bc <n36_bgezal_test+0x51bc>
    5130:	00000000 	nop
    5134:	00000000 	nop
    5138:	00000021 	move	zero,zero
    513c:	00000021 	move	zero,zero
    5140:	00000021 	move	zero,zero
    5144:	00000021 	move	zero,zero
    5148:	00000021 	move	zero,zero
    514c:	00000021 	move	zero,zero
    5150:	00000021 	move	zero,zero
    5154:	00000021 	move	zero,zero
    5158:	00000021 	move	zero,zero
    515c:	3c08ad4f 	lui	t0,0xad4f
    5160:	3508f0d4 	ori	t0,t0,0xf0d4
    5164:	0511ffed 	bgezal	t0,511c <n36_bgezal_test+0x511c>
    5168:	00000000 	nop
    516c:	10000013 	b	51bc <n36_bgezal_test+0x51bc>
    5170:	00000000 	nop
    5174:	00000000 	nop
    5178:	00000021 	move	zero,zero
    517c:	00000021 	move	zero,zero
    5180:	00000021 	move	zero,zero
    5184:	00000021 	move	zero,zero
    5188:	00000021 	move	zero,zero
    518c:	00000021 	move	zero,zero
    5190:	00000021 	move	zero,zero
    5194:	00000021 	move	zero,zero
    5198:	00000021 	move	zero,zero
    519c:	00000021 	move	zero,zero
    51a0:	00000021 	move	zero,zero
    51a4:	00000021 	move	zero,zero
    51a8:	00000021 	move	zero,zero
    51ac:	00000021 	move	zero,zero
    51b0:	00000021 	move	zero,zero
    51b4:	3c123abf 	lui	s2,0x3abf
    51b8:	36521fbc 	ori	s2,s2,0x1fbc
    51bc:	001fa021 	addu	s4,zero,ra
    51c0:	0015f821 	addu	ra,zero,s5
    51c4:	3c150000 	lui	s5,0x0
    51c8:	26b55124 	addiu	s5,s5,20772
    51cc:	3c160000 	lui	s6,0x0
    51d0:	26d65164 	addiu	s6,s6,20836
    51d4:	24180000 	li	t8,0
    51d8:	16183301 	bne	s0,t8,11de0 <inst_error>
    51dc:	00000000 	nop
    51e0:	00000000 	nop
    51e4:	24180000 	li	t8,0
    51e8:	165832fd 	bne	s2,t8,11de0 <inst_error>
    51ec:	00000000 	nop
    51f0:	00000000 	nop
    51f4:	3c19bfc0 	lui	t9,0xbfc0
    51f8:	37392df8 	ori	t9,t9,0x2df8
    51fc:	3c18bfc0 	lui	t8,0xbfc0
    5200:	37182db8 	ori	t8,t8,0x2db8
    5204:	27180008 	addiu	t8,t8,8
    5208:	1319000a 	beq	t8,t9,5234 <n36_bgezal_test+0x5234>
    520c:	00000000 	nop
    5210:	00000000 	nop
    5214:	3c18bfc0 	lui	t8,0xbfc0
    5218:	37182df0 	ori	t8,t8,0x2df0
    521c:	27180008 	addiu	t8,t8,8
    5220:	1319000a 	beq	t8,t9,524c <n36_bgezal_test+0x524c>
    5224:	00000000 	nop
    5228:	100032ed 	b	11de0 <inst_error>
    522c:	00000000 	nop
    5230:	00000000 	nop
    5234:	26b50008 	addiu	s5,s5,8
    5238:	169532e9 	bne	s4,s5,11de0 <inst_error>
    523c:	00000000 	nop
    5240:	10000006 	b	525c <n36_bgezal_test+0x525c>
    5244:	00000000 	nop
    5248:	00000000 	nop
    524c:	26d60008 	addiu	s6,s6,8
    5250:	169632e3 	bne	s4,s6,11de0 <inst_error>
    5254:	00000000 	nop
	...
    5260:	001fa821 	addu	s5,zero,ra
    5264:	3c0c1503 	lui	t4,0x1503
    5268:	358cba59 	ori	t4,t4,0xba59
    526c:	3c0d9628 	lui	t5,0x9628
    5270:	35adc7e0 	ori	t5,t5,0xc7e0
    5274:	24100000 	li	s0,0
    5278:	10000012 	b	52c4 <n36_bgezal_test+0x52c4>
    527c:	24120000 	li	s2,0
    5280:	00000000 	nop
    5284:	3c101503 	lui	s0,0x1503
    5288:	3610ba59 	ori	s0,s0,0xba59
    528c:	05110023 	bgezal	t0,531c <n36_bgezal_test+0x531c>
    5290:	00000000 	nop
    5294:	10000023 	b	5324 <n36_bgezal_test+0x5324>
    5298:	00000000 	nop
    529c:	00000000 	nop
    52a0:	00000021 	move	zero,zero
    52a4:	00000021 	move	zero,zero
    52a8:	00000021 	move	zero,zero
    52ac:	00000021 	move	zero,zero
    52b0:	00000021 	move	zero,zero
    52b4:	00000021 	move	zero,zero
    52b8:	00000021 	move	zero,zero
    52bc:	00000021 	move	zero,zero
    52c0:	00000021 	move	zero,zero
    52c4:	3c08e4db 	lui	t0,0xe4db
    52c8:	3508f4b8 	ori	t0,t0,0xf4b8
    52cc:	0511ffed 	bgezal	t0,5284 <n36_bgezal_test+0x5284>
    52d0:	00000000 	nop
    52d4:	10000013 	b	5324 <n36_bgezal_test+0x5324>
    52d8:	00000000 	nop
    52dc:	00000000 	nop
    52e0:	00000021 	move	zero,zero
    52e4:	00000021 	move	zero,zero
    52e8:	00000021 	move	zero,zero
    52ec:	00000021 	move	zero,zero
    52f0:	00000021 	move	zero,zero
    52f4:	00000021 	move	zero,zero
    52f8:	00000021 	move	zero,zero
    52fc:	00000021 	move	zero,zero
    5300:	00000021 	move	zero,zero
    5304:	00000021 	move	zero,zero
    5308:	00000021 	move	zero,zero
    530c:	00000021 	move	zero,zero
    5310:	00000021 	move	zero,zero
    5314:	00000021 	move	zero,zero
    5318:	00000021 	move	zero,zero
    531c:	3c129628 	lui	s2,0x9628
    5320:	3652c7e0 	ori	s2,s2,0xc7e0
    5324:	001fa021 	addu	s4,zero,ra
    5328:	0015f821 	addu	ra,zero,s5
    532c:	3c150000 	lui	s5,0x0
    5330:	26b5528c 	addiu	s5,s5,21132
    5334:	3c160000 	lui	s6,0x0
    5338:	26d652cc 	addiu	s6,s6,21196
    533c:	24180000 	li	t8,0
    5340:	161832a7 	bne	s0,t8,11de0 <inst_error>
    5344:	00000000 	nop
    5348:	00000000 	nop
    534c:	24180000 	li	t8,0
    5350:	165832a3 	bne	s2,t8,11de0 <inst_error>
    5354:	00000000 	nop
    5358:	00000000 	nop
    535c:	3c19bfc0 	lui	t9,0xbfc0
    5360:	37392eb4 	ori	t9,t9,0x2eb4
    5364:	3c18bfc0 	lui	t8,0xbfc0
    5368:	37182e74 	ori	t8,t8,0x2e74
    536c:	27180008 	addiu	t8,t8,8
    5370:	1319000a 	beq	t8,t9,539c <n36_bgezal_test+0x539c>
    5374:	00000000 	nop
    5378:	00000000 	nop
    537c:	3c18bfc0 	lui	t8,0xbfc0
    5380:	37182eac 	ori	t8,t8,0x2eac
    5384:	27180008 	addiu	t8,t8,8
    5388:	1319000a 	beq	t8,t9,53b4 <n36_bgezal_test+0x53b4>
    538c:	00000000 	nop
    5390:	10003293 	b	11de0 <inst_error>
    5394:	00000000 	nop
    5398:	00000000 	nop
    539c:	26b50008 	addiu	s5,s5,8
    53a0:	1695328f 	bne	s4,s5,11de0 <inst_error>
    53a4:	00000000 	nop
    53a8:	10000006 	b	53c4 <n36_bgezal_test+0x53c4>
    53ac:	00000000 	nop
    53b0:	00000000 	nop
    53b4:	26d60008 	addiu	s6,s6,8
    53b8:	16963289 	bne	s4,s6,11de0 <inst_error>
    53bc:	00000000 	nop
	...
    53c8:	001fa821 	addu	s5,zero,ra
    53cc:	3c0c40ba 	lui	t4,0x40ba
    53d0:	358c9d66 	ori	t4,t4,0x9d66
    53d4:	3c0d5fdb 	lui	t5,0x5fdb
    53d8:	35adaae0 	ori	t5,t5,0xaae0
    53dc:	24100000 	li	s0,0
    53e0:	10000012 	b	542c <n36_bgezal_test+0x542c>
    53e4:	24120000 	li	s2,0
    53e8:	00000000 	nop
    53ec:	3c1040ba 	lui	s0,0x40ba
    53f0:	36109d66 	ori	s0,s0,0x9d66
    53f4:	05110023 	bgezal	t0,5484 <n36_bgezal_test+0x5484>
    53f8:	00000000 	nop
    53fc:	10000023 	b	548c <n36_bgezal_test+0x548c>
    5400:	00000000 	nop
    5404:	00000000 	nop
    5408:	00000021 	move	zero,zero
    540c:	00000021 	move	zero,zero
    5410:	00000021 	move	zero,zero
    5414:	00000021 	move	zero,zero
    5418:	00000021 	move	zero,zero
    541c:	00000021 	move	zero,zero
    5420:	00000021 	move	zero,zero
    5424:	00000021 	move	zero,zero
    5428:	00000021 	move	zero,zero
    542c:	3c08e65e 	lui	t0,0xe65e
    5430:	3508affc 	ori	t0,t0,0xaffc
    5434:	0511ffed 	bgezal	t0,53ec <n36_bgezal_test+0x53ec>
    5438:	00000000 	nop
    543c:	10000013 	b	548c <n36_bgezal_test+0x548c>
    5440:	00000000 	nop
    5444:	00000000 	nop
    5448:	00000021 	move	zero,zero
    544c:	00000021 	move	zero,zero
    5450:	00000021 	move	zero,zero
    5454:	00000021 	move	zero,zero
    5458:	00000021 	move	zero,zero
    545c:	00000021 	move	zero,zero
    5460:	00000021 	move	zero,zero
    5464:	00000021 	move	zero,zero
    5468:	00000021 	move	zero,zero
    546c:	00000021 	move	zero,zero
    5470:	00000021 	move	zero,zero
    5474:	00000021 	move	zero,zero
    5478:	00000021 	move	zero,zero
    547c:	00000021 	move	zero,zero
    5480:	00000021 	move	zero,zero
    5484:	3c125fdb 	lui	s2,0x5fdb
    5488:	3652aae0 	ori	s2,s2,0xaae0
    548c:	001fa021 	addu	s4,zero,ra
    5490:	0015f821 	addu	ra,zero,s5
    5494:	3c150000 	lui	s5,0x0
    5498:	26b553f4 	addiu	s5,s5,21492
    549c:	3c160000 	lui	s6,0x0
    54a0:	26d65434 	addiu	s6,s6,21556
    54a4:	24180000 	li	t8,0
    54a8:	1618324d 	bne	s0,t8,11de0 <inst_error>
    54ac:	00000000 	nop
    54b0:	00000000 	nop
    54b4:	24180000 	li	t8,0
    54b8:	16583249 	bne	s2,t8,11de0 <inst_error>
    54bc:	00000000 	nop
    54c0:	00000000 	nop
    54c4:	3c19bfc0 	lui	t9,0xbfc0
    54c8:	37392f70 	ori	t9,t9,0x2f70
    54cc:	3c18bfc0 	lui	t8,0xbfc0
    54d0:	37182f30 	ori	t8,t8,0x2f30
    54d4:	27180008 	addiu	t8,t8,8
    54d8:	1319000a 	beq	t8,t9,5504 <n36_bgezal_test+0x5504>
    54dc:	00000000 	nop
    54e0:	00000000 	nop
    54e4:	3c18bfc0 	lui	t8,0xbfc0
    54e8:	37182f68 	ori	t8,t8,0x2f68
    54ec:	27180008 	addiu	t8,t8,8
    54f0:	1319000a 	beq	t8,t9,551c <n36_bgezal_test+0x551c>
    54f4:	00000000 	nop
    54f8:	10003239 	b	11de0 <inst_error>
    54fc:	00000000 	nop
    5500:	00000000 	nop
    5504:	26b50008 	addiu	s5,s5,8
    5508:	16953235 	bne	s4,s5,11de0 <inst_error>
    550c:	00000000 	nop
    5510:	10000006 	b	552c <n36_bgezal_test+0x552c>
    5514:	00000000 	nop
    5518:	00000000 	nop
    551c:	26d60008 	addiu	s6,s6,8
    5520:	1696322f 	bne	s4,s6,11de0 <inst_error>
    5524:	00000000 	nop
	...
    5530:	001fa821 	addu	s5,zero,ra
    5534:	3c0c5291 	lui	t4,0x5291
    5538:	358c7aa4 	ori	t4,t4,0x7aa4
    553c:	3c0dee0a 	lui	t5,0xee0a
    5540:	35ad26b0 	ori	t5,t5,0x26b0
    5544:	24100000 	li	s0,0
    5548:	10000012 	b	5594 <n36_bgezal_test+0x5594>
    554c:	24120000 	li	s2,0
    5550:	00000000 	nop
    5554:	3c105291 	lui	s0,0x5291
    5558:	36107aa4 	ori	s0,s0,0x7aa4
    555c:	05110023 	bgezal	t0,55ec <n36_bgezal_test+0x55ec>
    5560:	00000000 	nop
    5564:	10000023 	b	55f4 <n36_bgezal_test+0x55f4>
    5568:	00000000 	nop
    556c:	00000000 	nop
    5570:	00000021 	move	zero,zero
    5574:	00000021 	move	zero,zero
    5578:	00000021 	move	zero,zero
    557c:	00000021 	move	zero,zero
    5580:	00000021 	move	zero,zero
    5584:	00000021 	move	zero,zero
    5588:	00000021 	move	zero,zero
    558c:	00000021 	move	zero,zero
    5590:	00000021 	move	zero,zero
    5594:	3c08beb0 	lui	t0,0xbeb0
    5598:	3508f688 	ori	t0,t0,0xf688
    559c:	0511ffed 	bgezal	t0,5554 <n36_bgezal_test+0x5554>
    55a0:	00000000 	nop
    55a4:	10000013 	b	55f4 <n36_bgezal_test+0x55f4>
    55a8:	00000000 	nop
    55ac:	00000000 	nop
    55b0:	00000021 	move	zero,zero
    55b4:	00000021 	move	zero,zero
    55b8:	00000021 	move	zero,zero
    55bc:	00000021 	move	zero,zero
    55c0:	00000021 	move	zero,zero
    55c4:	00000021 	move	zero,zero
    55c8:	00000021 	move	zero,zero
    55cc:	00000021 	move	zero,zero
    55d0:	00000021 	move	zero,zero
    55d4:	00000021 	move	zero,zero
    55d8:	00000021 	move	zero,zero
    55dc:	00000021 	move	zero,zero
    55e0:	00000021 	move	zero,zero
    55e4:	00000021 	move	zero,zero
    55e8:	00000021 	move	zero,zero
    55ec:	3c12ee0a 	lui	s2,0xee0a
    55f0:	365226b0 	ori	s2,s2,0x26b0
    55f4:	001fa021 	addu	s4,zero,ra
    55f8:	0015f821 	addu	ra,zero,s5
    55fc:	3c150000 	lui	s5,0x0
    5600:	26b5555c 	addiu	s5,s5,21852
    5604:	3c160000 	lui	s6,0x0
    5608:	26d6559c 	addiu	s6,s6,21916
    560c:	24180000 	li	t8,0
    5610:	161831f3 	bne	s0,t8,11de0 <inst_error>
    5614:	00000000 	nop
    5618:	00000000 	nop
    561c:	24180000 	li	t8,0
    5620:	165831ef 	bne	s2,t8,11de0 <inst_error>
    5624:	00000000 	nop
    5628:	00000000 	nop
    562c:	3c19bfc0 	lui	t9,0xbfc0
    5630:	3739302c 	ori	t9,t9,0x302c
    5634:	3c18bfc0 	lui	t8,0xbfc0
    5638:	37182fec 	ori	t8,t8,0x2fec
    563c:	27180008 	addiu	t8,t8,8
    5640:	1319000a 	beq	t8,t9,566c <n36_bgezal_test+0x566c>
    5644:	00000000 	nop
    5648:	00000000 	nop
    564c:	3c18bfc0 	lui	t8,0xbfc0
    5650:	37183024 	ori	t8,t8,0x3024
    5654:	27180008 	addiu	t8,t8,8
    5658:	1319000a 	beq	t8,t9,5684 <n36_bgezal_test+0x5684>
    565c:	00000000 	nop
    5660:	100031df 	b	11de0 <inst_error>
    5664:	00000000 	nop
    5668:	00000000 	nop
    566c:	26b50008 	addiu	s5,s5,8
    5670:	169531db 	bne	s4,s5,11de0 <inst_error>
    5674:	00000000 	nop
    5678:	10000006 	b	5694 <n36_bgezal_test+0x5694>
    567c:	00000000 	nop
    5680:	00000000 	nop
    5684:	26d60008 	addiu	s6,s6,8
    5688:	169631d5 	bne	s4,s6,11de0 <inst_error>
    568c:	00000000 	nop
	...
    5698:	001fa821 	addu	s5,zero,ra
    569c:	3c0c7880 	lui	t4,0x7880
    56a0:	358cb230 	ori	t4,t4,0xb230
    56a4:	3c0d1f93 	lui	t5,0x1f93
    56a8:	35ade14a 	ori	t5,t5,0xe14a
    56ac:	24100000 	li	s0,0
    56b0:	10000012 	b	56fc <n36_bgezal_test+0x56fc>
    56b4:	24120000 	li	s2,0
    56b8:	00000000 	nop
    56bc:	3c107880 	lui	s0,0x7880
    56c0:	3610b230 	ori	s0,s0,0xb230
    56c4:	05110023 	bgezal	t0,5754 <n36_bgezal_test+0x5754>
    56c8:	00000000 	nop
    56cc:	10000023 	b	575c <n36_bgezal_test+0x575c>
    56d0:	00000000 	nop
    56d4:	00000000 	nop
    56d8:	00000021 	move	zero,zero
    56dc:	00000021 	move	zero,zero
    56e0:	00000021 	move	zero,zero
    56e4:	00000021 	move	zero,zero
    56e8:	00000021 	move	zero,zero
    56ec:	00000021 	move	zero,zero
    56f0:	00000021 	move	zero,zero
    56f4:	00000021 	move	zero,zero
    56f8:	00000021 	move	zero,zero
    56fc:	3c08efdf 	lui	t0,0xefdf
    5700:	3508d000 	ori	t0,t0,0xd000
    5704:	0511ffed 	bgezal	t0,56bc <n36_bgezal_test+0x56bc>
    5708:	00000000 	nop
    570c:	10000013 	b	575c <n36_bgezal_test+0x575c>
    5710:	00000000 	nop
    5714:	00000000 	nop
    5718:	00000021 	move	zero,zero
    571c:	00000021 	move	zero,zero
    5720:	00000021 	move	zero,zero
    5724:	00000021 	move	zero,zero
    5728:	00000021 	move	zero,zero
    572c:	00000021 	move	zero,zero
    5730:	00000021 	move	zero,zero
    5734:	00000021 	move	zero,zero
    5738:	00000021 	move	zero,zero
    573c:	00000021 	move	zero,zero
    5740:	00000021 	move	zero,zero
    5744:	00000021 	move	zero,zero
    5748:	00000021 	move	zero,zero
    574c:	00000021 	move	zero,zero
    5750:	00000021 	move	zero,zero
    5754:	3c121f93 	lui	s2,0x1f93
    5758:	3652e14a 	ori	s2,s2,0xe14a
    575c:	001fa021 	addu	s4,zero,ra
    5760:	0015f821 	addu	ra,zero,s5
    5764:	3c150000 	lui	s5,0x0
    5768:	26b556c4 	addiu	s5,s5,22212
    576c:	3c160000 	lui	s6,0x0
    5770:	26d65704 	addiu	s6,s6,22276
    5774:	24180000 	li	t8,0
    5778:	16183199 	bne	s0,t8,11de0 <inst_error>
    577c:	00000000 	nop
    5780:	00000000 	nop
    5784:	24180000 	li	t8,0
    5788:	16583195 	bne	s2,t8,11de0 <inst_error>
    578c:	00000000 	nop
    5790:	00000000 	nop
    5794:	3c19bfc0 	lui	t9,0xbfc0
    5798:	373930e8 	ori	t9,t9,0x30e8
    579c:	3c18bfc0 	lui	t8,0xbfc0
    57a0:	371830a8 	ori	t8,t8,0x30a8
    57a4:	27180008 	addiu	t8,t8,8
    57a8:	1319000a 	beq	t8,t9,57d4 <n36_bgezal_test+0x57d4>
    57ac:	00000000 	nop
    57b0:	00000000 	nop
    57b4:	3c18bfc0 	lui	t8,0xbfc0
    57b8:	371830e0 	ori	t8,t8,0x30e0
    57bc:	27180008 	addiu	t8,t8,8
    57c0:	1319000a 	beq	t8,t9,57ec <n36_bgezal_test+0x57ec>
    57c4:	00000000 	nop
    57c8:	10003185 	b	11de0 <inst_error>
    57cc:	00000000 	nop
    57d0:	00000000 	nop
    57d4:	26b50008 	addiu	s5,s5,8
    57d8:	16953181 	bne	s4,s5,11de0 <inst_error>
    57dc:	00000000 	nop
    57e0:	10000006 	b	57fc <n36_bgezal_test+0x57fc>
    57e4:	00000000 	nop
    57e8:	00000000 	nop
    57ec:	26d60008 	addiu	s6,s6,8
    57f0:	1696317b 	bne	s4,s6,11de0 <inst_error>
    57f4:	00000000 	nop
	...
    5800:	001fa821 	addu	s5,zero,ra
    5804:	3c0c45c9 	lui	t4,0x45c9
    5808:	358c3fa8 	ori	t4,t4,0x3fa8
    580c:	3c0df646 	lui	t5,0xf646
    5810:	35ada898 	ori	t5,t5,0xa898
    5814:	24100000 	li	s0,0
    5818:	10000012 	b	5864 <n36_bgezal_test+0x5864>
    581c:	24120000 	li	s2,0
    5820:	00000000 	nop
    5824:	3c1045c9 	lui	s0,0x45c9
    5828:	36103fa8 	ori	s0,s0,0x3fa8
    582c:	05110023 	bgezal	t0,58bc <n36_bgezal_test+0x58bc>
    5830:	00000000 	nop
    5834:	10000023 	b	58c4 <n36_bgezal_test+0x58c4>
    5838:	00000000 	nop
    583c:	00000000 	nop
    5840:	00000021 	move	zero,zero
    5844:	00000021 	move	zero,zero
    5848:	00000021 	move	zero,zero
    584c:	00000021 	move	zero,zero
    5850:	00000021 	move	zero,zero
    5854:	00000021 	move	zero,zero
    5858:	00000021 	move	zero,zero
    585c:	00000021 	move	zero,zero
    5860:	00000021 	move	zero,zero
    5864:	3c08e0a7 	lui	t0,0xe0a7
    5868:	350836fb 	ori	t0,t0,0x36fb
    586c:	0511ffed 	bgezal	t0,5824 <n36_bgezal_test+0x5824>
    5870:	00000000 	nop
    5874:	10000013 	b	58c4 <n36_bgezal_test+0x58c4>
    5878:	00000000 	nop
    587c:	00000000 	nop
    5880:	00000021 	move	zero,zero
    5884:	00000021 	move	zero,zero
    5888:	00000021 	move	zero,zero
    588c:	00000021 	move	zero,zero
    5890:	00000021 	move	zero,zero
    5894:	00000021 	move	zero,zero
    5898:	00000021 	move	zero,zero
    589c:	00000021 	move	zero,zero
    58a0:	00000021 	move	zero,zero
    58a4:	00000021 	move	zero,zero
    58a8:	00000021 	move	zero,zero
    58ac:	00000021 	move	zero,zero
    58b0:	00000021 	move	zero,zero
    58b4:	00000021 	move	zero,zero
    58b8:	00000021 	move	zero,zero
    58bc:	3c12f646 	lui	s2,0xf646
    58c0:	3652a898 	ori	s2,s2,0xa898
    58c4:	001fa021 	addu	s4,zero,ra
    58c8:	0015f821 	addu	ra,zero,s5
    58cc:	3c150000 	lui	s5,0x0
    58d0:	26b5582c 	addiu	s5,s5,22572
    58d4:	3c160000 	lui	s6,0x0
    58d8:	26d6586c 	addiu	s6,s6,22636
    58dc:	24180000 	li	t8,0
    58e0:	1618313f 	bne	s0,t8,11de0 <inst_error>
    58e4:	00000000 	nop
    58e8:	00000000 	nop
    58ec:	24180000 	li	t8,0
    58f0:	1658313b 	bne	s2,t8,11de0 <inst_error>
    58f4:	00000000 	nop
    58f8:	00000000 	nop
    58fc:	3c19bfc0 	lui	t9,0xbfc0
    5900:	373931a4 	ori	t9,t9,0x31a4
    5904:	3c18bfc0 	lui	t8,0xbfc0
    5908:	37183164 	ori	t8,t8,0x3164
    590c:	27180008 	addiu	t8,t8,8
    5910:	1319000a 	beq	t8,t9,593c <n36_bgezal_test+0x593c>
    5914:	00000000 	nop
    5918:	00000000 	nop
    591c:	3c18bfc0 	lui	t8,0xbfc0
    5920:	3718319c 	ori	t8,t8,0x319c
    5924:	27180008 	addiu	t8,t8,8
    5928:	1319000a 	beq	t8,t9,5954 <n36_bgezal_test+0x5954>
    592c:	00000000 	nop
    5930:	1000312b 	b	11de0 <inst_error>
    5934:	00000000 	nop
    5938:	00000000 	nop
    593c:	26b50008 	addiu	s5,s5,8
    5940:	16953127 	bne	s4,s5,11de0 <inst_error>
    5944:	00000000 	nop
    5948:	10000006 	b	5964 <n36_bgezal_test+0x5964>
    594c:	00000000 	nop
    5950:	00000000 	nop
    5954:	26d60008 	addiu	s6,s6,8
    5958:	16963121 	bne	s4,s6,11de0 <inst_error>
    595c:	00000000 	nop
	...
    5968:	001fa821 	addu	s5,zero,ra
    596c:	3c0cf368 	lui	t4,0xf368
    5970:	358ccb16 	ori	t4,t4,0xcb16
    5974:	3c0d8c03 	lui	t5,0x8c03
    5978:	35ada3f8 	ori	t5,t5,0xa3f8
    597c:	24100000 	li	s0,0
    5980:	10000012 	b	59cc <n36_bgezal_test+0x59cc>
    5984:	24120000 	li	s2,0
    5988:	00000000 	nop
    598c:	3c10f368 	lui	s0,0xf368
    5990:	3610cb16 	ori	s0,s0,0xcb16
    5994:	05110023 	bgezal	t0,5a24 <n36_bgezal_test+0x5a24>
    5998:	00000000 	nop
    599c:	10000023 	b	5a2c <n36_bgezal_test+0x5a2c>
    59a0:	00000000 	nop
    59a4:	00000000 	nop
    59a8:	00000021 	move	zero,zero
    59ac:	00000021 	move	zero,zero
    59b0:	00000021 	move	zero,zero
    59b4:	00000021 	move	zero,zero
    59b8:	00000021 	move	zero,zero
    59bc:	00000021 	move	zero,zero
    59c0:	00000021 	move	zero,zero
    59c4:	00000021 	move	zero,zero
    59c8:	00000021 	move	zero,zero
    59cc:	3c086360 	lui	t0,0x6360
    59d0:	3508c99b 	ori	t0,t0,0xc99b
    59d4:	0511ffed 	bgezal	t0,598c <n36_bgezal_test+0x598c>
    59d8:	00000000 	nop
    59dc:	10000013 	b	5a2c <n36_bgezal_test+0x5a2c>
    59e0:	00000000 	nop
    59e4:	00000000 	nop
    59e8:	00000021 	move	zero,zero
    59ec:	00000021 	move	zero,zero
    59f0:	00000021 	move	zero,zero
    59f4:	00000021 	move	zero,zero
    59f8:	00000021 	move	zero,zero
    59fc:	00000021 	move	zero,zero
    5a00:	00000021 	move	zero,zero
    5a04:	00000021 	move	zero,zero
    5a08:	00000021 	move	zero,zero
    5a0c:	00000021 	move	zero,zero
    5a10:	00000021 	move	zero,zero
    5a14:	00000021 	move	zero,zero
    5a18:	00000021 	move	zero,zero
    5a1c:	00000021 	move	zero,zero
    5a20:	00000021 	move	zero,zero
    5a24:	3c128c03 	lui	s2,0x8c03
    5a28:	3652a3f8 	ori	s2,s2,0xa3f8
    5a2c:	001fa021 	addu	s4,zero,ra
    5a30:	0015f821 	addu	ra,zero,s5
    5a34:	3c150000 	lui	s5,0x0
    5a38:	26b55994 	addiu	s5,s5,22932
    5a3c:	3c160000 	lui	s6,0x0
    5a40:	26d659d4 	addiu	s6,s6,22996
    5a44:	3c18f368 	lui	t8,0xf368
    5a48:	3718cb16 	ori	t8,t8,0xcb16
    5a4c:	161830e4 	bne	s0,t8,11de0 <inst_error>
    5a50:	00000000 	nop
    5a54:	00000000 	nop
    5a58:	3c188c03 	lui	t8,0x8c03
    5a5c:	3718a3f8 	ori	t8,t8,0xa3f8
    5a60:	165830df 	bne	s2,t8,11de0 <inst_error>
    5a64:	00000000 	nop
    5a68:	00000000 	nop
    5a6c:	3c19bfc0 	lui	t9,0xbfc0
    5a70:	37393228 	ori	t9,t9,0x3228
    5a74:	3c18bfc0 	lui	t8,0xbfc0
    5a78:	37183220 	ori	t8,t8,0x3220
    5a7c:	27180008 	addiu	t8,t8,8
    5a80:	1319000a 	beq	t8,t9,5aac <n36_bgezal_test+0x5aac>
    5a84:	00000000 	nop
    5a88:	00000000 	nop
    5a8c:	3c18bfc0 	lui	t8,0xbfc0
    5a90:	37183258 	ori	t8,t8,0x3258
    5a94:	27180008 	addiu	t8,t8,8
    5a98:	1319000a 	beq	t8,t9,5ac4 <n36_bgezal_test+0x5ac4>
    5a9c:	00000000 	nop
    5aa0:	100030cf 	b	11de0 <inst_error>
    5aa4:	00000000 	nop
    5aa8:	00000000 	nop
    5aac:	26b50008 	addiu	s5,s5,8
    5ab0:	169530cb 	bne	s4,s5,11de0 <inst_error>
    5ab4:	00000000 	nop
    5ab8:	10000006 	b	5ad4 <n36_bgezal_test+0x5ad4>
    5abc:	00000000 	nop
    5ac0:	00000000 	nop
    5ac4:	26d60008 	addiu	s6,s6,8
    5ac8:	169630c5 	bne	s4,s6,11de0 <inst_error>
    5acc:	00000000 	nop
	...
    5ad8:	001fa821 	addu	s5,zero,ra
    5adc:	3c0c52d6 	lui	t4,0x52d6
    5ae0:	358c3224 	ori	t4,t4,0x3224
    5ae4:	3c0dc7aa 	lui	t5,0xc7aa
    5ae8:	35adbdc1 	ori	t5,t5,0xbdc1
    5aec:	24100000 	li	s0,0
    5af0:	10000012 	b	5b3c <n36_bgezal_test+0x5b3c>
    5af4:	24120000 	li	s2,0
    5af8:	00000000 	nop
    5afc:	3c1052d6 	lui	s0,0x52d6
    5b00:	36103224 	ori	s0,s0,0x3224
    5b04:	05110023 	bgezal	t0,5b94 <n36_bgezal_test+0x5b94>
    5b08:	00000000 	nop
    5b0c:	10000023 	b	5b9c <n36_bgezal_test+0x5b9c>
    5b10:	00000000 	nop
    5b14:	00000000 	nop
    5b18:	00000021 	move	zero,zero
    5b1c:	00000021 	move	zero,zero
    5b20:	00000021 	move	zero,zero
    5b24:	00000021 	move	zero,zero
    5b28:	00000021 	move	zero,zero
    5b2c:	00000021 	move	zero,zero
    5b30:	00000021 	move	zero,zero
    5b34:	00000021 	move	zero,zero
    5b38:	00000021 	move	zero,zero
    5b3c:	3c08930c 	lui	t0,0x930c
    5b40:	3508f074 	ori	t0,t0,0xf074
    5b44:	0511ffed 	bgezal	t0,5afc <n36_bgezal_test+0x5afc>
    5b48:	00000000 	nop
    5b4c:	10000013 	b	5b9c <n36_bgezal_test+0x5b9c>
    5b50:	00000000 	nop
    5b54:	00000000 	nop
    5b58:	00000021 	move	zero,zero
    5b5c:	00000021 	move	zero,zero
    5b60:	00000021 	move	zero,zero
    5b64:	00000021 	move	zero,zero
    5b68:	00000021 	move	zero,zero
    5b6c:	00000021 	move	zero,zero
    5b70:	00000021 	move	zero,zero
    5b74:	00000021 	move	zero,zero
    5b78:	00000021 	move	zero,zero
    5b7c:	00000021 	move	zero,zero
    5b80:	00000021 	move	zero,zero
    5b84:	00000021 	move	zero,zero
    5b88:	00000021 	move	zero,zero
    5b8c:	00000021 	move	zero,zero
    5b90:	00000021 	move	zero,zero
    5b94:	3c12c7aa 	lui	s2,0xc7aa
    5b98:	3652bdc1 	ori	s2,s2,0xbdc1
    5b9c:	001fa021 	addu	s4,zero,ra
    5ba0:	0015f821 	addu	ra,zero,s5
    5ba4:	3c150000 	lui	s5,0x0
    5ba8:	26b55b04 	addiu	s5,s5,23300
    5bac:	3c160000 	lui	s6,0x0
    5bb0:	26d65b44 	addiu	s6,s6,23364
    5bb4:	24180000 	li	t8,0
    5bb8:	16183089 	bne	s0,t8,11de0 <inst_error>
    5bbc:	00000000 	nop
    5bc0:	00000000 	nop
    5bc4:	24180000 	li	t8,0
    5bc8:	16583085 	bne	s2,t8,11de0 <inst_error>
    5bcc:	00000000 	nop
    5bd0:	00000000 	nop
    5bd4:	3c19bfc0 	lui	t9,0xbfc0
    5bd8:	3739331c 	ori	t9,t9,0x331c
    5bdc:	3c18bfc0 	lui	t8,0xbfc0
    5be0:	371832dc 	ori	t8,t8,0x32dc
    5be4:	27180008 	addiu	t8,t8,8
    5be8:	1319000a 	beq	t8,t9,5c14 <n36_bgezal_test+0x5c14>
    5bec:	00000000 	nop
    5bf0:	00000000 	nop
    5bf4:	3c18bfc0 	lui	t8,0xbfc0
    5bf8:	37183314 	ori	t8,t8,0x3314
    5bfc:	27180008 	addiu	t8,t8,8
    5c00:	1319000a 	beq	t8,t9,5c2c <n36_bgezal_test+0x5c2c>
    5c04:	00000000 	nop
    5c08:	10003075 	b	11de0 <inst_error>
    5c0c:	00000000 	nop
    5c10:	00000000 	nop
    5c14:	26b50008 	addiu	s5,s5,8
    5c18:	16953071 	bne	s4,s5,11de0 <inst_error>
    5c1c:	00000000 	nop
    5c20:	10000006 	b	5c3c <n36_bgezal_test+0x5c3c>
    5c24:	00000000 	nop
    5c28:	00000000 	nop
    5c2c:	26d60008 	addiu	s6,s6,8
    5c30:	1696306b 	bne	s4,s6,11de0 <inst_error>
    5c34:	00000000 	nop
	...
    5c40:	001fa821 	addu	s5,zero,ra
    5c44:	3c0c096d 	lui	t4,0x96d
    5c48:	358c96a0 	ori	t4,t4,0x96a0
    5c4c:	3c0daec6 	lui	t5,0xaec6
    5c50:	35ad2677 	ori	t5,t5,0x2677
    5c54:	24100000 	li	s0,0
    5c58:	10000012 	b	5ca4 <n36_bgezal_test+0x5ca4>
    5c5c:	24120000 	li	s2,0
    5c60:	00000000 	nop
    5c64:	3c10096d 	lui	s0,0x96d
    5c68:	361096a0 	ori	s0,s0,0x96a0
    5c6c:	05110023 	bgezal	t0,5cfc <n36_bgezal_test+0x5cfc>
    5c70:	00000000 	nop
    5c74:	10000023 	b	5d04 <n36_bgezal_test+0x5d04>
    5c78:	00000000 	nop
    5c7c:	00000000 	nop
    5c80:	00000021 	move	zero,zero
    5c84:	00000021 	move	zero,zero
    5c88:	00000021 	move	zero,zero
    5c8c:	00000021 	move	zero,zero
    5c90:	00000021 	move	zero,zero
    5c94:	00000021 	move	zero,zero
    5c98:	00000021 	move	zero,zero
    5c9c:	00000021 	move	zero,zero
    5ca0:	00000021 	move	zero,zero
    5ca4:	3c08b034 	lui	t0,0xb034
    5ca8:	350818d0 	ori	t0,t0,0x18d0
    5cac:	0511ffed 	bgezal	t0,5c64 <n36_bgezal_test+0x5c64>
    5cb0:	00000000 	nop
    5cb4:	10000013 	b	5d04 <n36_bgezal_test+0x5d04>
    5cb8:	00000000 	nop
    5cbc:	00000000 	nop
    5cc0:	00000021 	move	zero,zero
    5cc4:	00000021 	move	zero,zero
    5cc8:	00000021 	move	zero,zero
    5ccc:	00000021 	move	zero,zero
    5cd0:	00000021 	move	zero,zero
    5cd4:	00000021 	move	zero,zero
    5cd8:	00000021 	move	zero,zero
    5cdc:	00000021 	move	zero,zero
    5ce0:	00000021 	move	zero,zero
    5ce4:	00000021 	move	zero,zero
    5ce8:	00000021 	move	zero,zero
    5cec:	00000021 	move	zero,zero
    5cf0:	00000021 	move	zero,zero
    5cf4:	00000021 	move	zero,zero
    5cf8:	00000021 	move	zero,zero
    5cfc:	3c12aec6 	lui	s2,0xaec6
    5d00:	36522677 	ori	s2,s2,0x2677
    5d04:	001fa021 	addu	s4,zero,ra
    5d08:	0015f821 	addu	ra,zero,s5
    5d0c:	3c150000 	lui	s5,0x0
    5d10:	26b55c6c 	addiu	s5,s5,23660
    5d14:	3c160000 	lui	s6,0x0
    5d18:	26d65cac 	addiu	s6,s6,23724
    5d1c:	24180000 	li	t8,0
    5d20:	1618302f 	bne	s0,t8,11de0 <inst_error>
    5d24:	00000000 	nop
    5d28:	00000000 	nop
    5d2c:	24180000 	li	t8,0
    5d30:	1658302b 	bne	s2,t8,11de0 <inst_error>
    5d34:	00000000 	nop
    5d38:	00000000 	nop
    5d3c:	3c19bfc0 	lui	t9,0xbfc0
    5d40:	373933d8 	ori	t9,t9,0x33d8
    5d44:	3c18bfc0 	lui	t8,0xbfc0
    5d48:	37183398 	ori	t8,t8,0x3398
    5d4c:	27180008 	addiu	t8,t8,8
    5d50:	1319000a 	beq	t8,t9,5d7c <n36_bgezal_test+0x5d7c>
    5d54:	00000000 	nop
    5d58:	00000000 	nop
    5d5c:	3c18bfc0 	lui	t8,0xbfc0
    5d60:	371833d0 	ori	t8,t8,0x33d0
    5d64:	27180008 	addiu	t8,t8,8
    5d68:	1319000a 	beq	t8,t9,5d94 <n36_bgezal_test+0x5d94>
    5d6c:	00000000 	nop
    5d70:	1000301b 	b	11de0 <inst_error>
    5d74:	00000000 	nop
    5d78:	00000000 	nop
    5d7c:	26b50008 	addiu	s5,s5,8
    5d80:	16953017 	bne	s4,s5,11de0 <inst_error>
    5d84:	00000000 	nop
    5d88:	10000006 	b	5da4 <n36_bgezal_test+0x5da4>
    5d8c:	00000000 	nop
    5d90:	00000000 	nop
    5d94:	26d60008 	addiu	s6,s6,8
    5d98:	16963011 	bne	s4,s6,11de0 <inst_error>
    5d9c:	00000000 	nop
	...
    5da8:	001fa821 	addu	s5,zero,ra
    5dac:	3c0c20bf 	lui	t4,0x20bf
    5db0:	358c711c 	ori	t4,t4,0x711c
    5db4:	3c0d1a2e 	lui	t5,0x1a2e
    5db8:	35ad2914 	ori	t5,t5,0x2914
    5dbc:	24100000 	li	s0,0
    5dc0:	10000012 	b	5e0c <n36_bgezal_test+0x5e0c>
    5dc4:	24120000 	li	s2,0
    5dc8:	00000000 	nop
    5dcc:	3c1020bf 	lui	s0,0x20bf
    5dd0:	3610711c 	ori	s0,s0,0x711c
    5dd4:	05110023 	bgezal	t0,5e64 <n36_bgezal_test+0x5e64>
    5dd8:	00000000 	nop
    5ddc:	10000023 	b	5e6c <n36_bgezal_test+0x5e6c>
    5de0:	00000000 	nop
    5de4:	00000000 	nop
    5de8:	00000021 	move	zero,zero
    5dec:	00000021 	move	zero,zero
    5df0:	00000021 	move	zero,zero
    5df4:	00000021 	move	zero,zero
    5df8:	00000021 	move	zero,zero
    5dfc:	00000021 	move	zero,zero
    5e00:	00000021 	move	zero,zero
    5e04:	00000021 	move	zero,zero
    5e08:	00000021 	move	zero,zero
    5e0c:	3c0879d1 	lui	t0,0x79d1
    5e10:	3508e580 	ori	t0,t0,0xe580
    5e14:	0511ffed 	bgezal	t0,5dcc <n36_bgezal_test+0x5dcc>
    5e18:	00000000 	nop
    5e1c:	10000013 	b	5e6c <n36_bgezal_test+0x5e6c>
    5e20:	00000000 	nop
    5e24:	00000000 	nop
    5e28:	00000021 	move	zero,zero
    5e2c:	00000021 	move	zero,zero
    5e30:	00000021 	move	zero,zero
    5e34:	00000021 	move	zero,zero
    5e38:	00000021 	move	zero,zero
    5e3c:	00000021 	move	zero,zero
    5e40:	00000021 	move	zero,zero
    5e44:	00000021 	move	zero,zero
    5e48:	00000021 	move	zero,zero
    5e4c:	00000021 	move	zero,zero
    5e50:	00000021 	move	zero,zero
    5e54:	00000021 	move	zero,zero
    5e58:	00000021 	move	zero,zero
    5e5c:	00000021 	move	zero,zero
    5e60:	00000021 	move	zero,zero
    5e64:	3c121a2e 	lui	s2,0x1a2e
    5e68:	36522914 	ori	s2,s2,0x2914
    5e6c:	001fa021 	addu	s4,zero,ra
    5e70:	0015f821 	addu	ra,zero,s5
    5e74:	3c150000 	lui	s5,0x0
    5e78:	26b55dd4 	addiu	s5,s5,24020
    5e7c:	3c160000 	lui	s6,0x0
    5e80:	26d65e14 	addiu	s6,s6,24084
    5e84:	3c1820bf 	lui	t8,0x20bf
    5e88:	3718711c 	ori	t8,t8,0x711c
    5e8c:	16182fd4 	bne	s0,t8,11de0 <inst_error>
    5e90:	00000000 	nop
    5e94:	00000000 	nop
    5e98:	3c181a2e 	lui	t8,0x1a2e
    5e9c:	37182914 	ori	t8,t8,0x2914
    5ea0:	16582fcf 	bne	s2,t8,11de0 <inst_error>
    5ea4:	00000000 	nop
    5ea8:	00000000 	nop
    5eac:	3c19bfc0 	lui	t9,0xbfc0
    5eb0:	3739345c 	ori	t9,t9,0x345c
    5eb4:	3c18bfc0 	lui	t8,0xbfc0
    5eb8:	37183454 	ori	t8,t8,0x3454
    5ebc:	27180008 	addiu	t8,t8,8
    5ec0:	1319000a 	beq	t8,t9,5eec <n36_bgezal_test+0x5eec>
    5ec4:	00000000 	nop
    5ec8:	00000000 	nop
    5ecc:	3c18bfc0 	lui	t8,0xbfc0
    5ed0:	3718348c 	ori	t8,t8,0x348c
    5ed4:	27180008 	addiu	t8,t8,8
    5ed8:	1319000a 	beq	t8,t9,5f04 <n36_bgezal_test+0x5f04>
    5edc:	00000000 	nop
    5ee0:	10002fbf 	b	11de0 <inst_error>
    5ee4:	00000000 	nop
    5ee8:	00000000 	nop
    5eec:	26b50008 	addiu	s5,s5,8
    5ef0:	16952fbb 	bne	s4,s5,11de0 <inst_error>
    5ef4:	00000000 	nop
    5ef8:	10000006 	b	5f14 <n36_bgezal_test+0x5f14>
    5efc:	00000000 	nop
    5f00:	00000000 	nop
    5f04:	26d60008 	addiu	s6,s6,8
    5f08:	16962fb5 	bne	s4,s6,11de0 <inst_error>
    5f0c:	00000000 	nop
	...
    5f18:	001fa821 	addu	s5,zero,ra
    5f1c:	3c0c212e 	lui	t4,0x212e
    5f20:	358c0cec 	ori	t4,t4,0xcec
    5f24:	3c0d9ea0 	lui	t5,0x9ea0
    5f28:	35ad7a8c 	ori	t5,t5,0x7a8c
    5f2c:	24100000 	li	s0,0
    5f30:	10000012 	b	5f7c <n36_bgezal_test+0x5f7c>
    5f34:	24120000 	li	s2,0
    5f38:	00000000 	nop
    5f3c:	3c10212e 	lui	s0,0x212e
    5f40:	36100cec 	ori	s0,s0,0xcec
    5f44:	05110023 	bgezal	t0,5fd4 <n36_bgezal_test+0x5fd4>
    5f48:	00000000 	nop
    5f4c:	10000023 	b	5fdc <n36_bgezal_test+0x5fdc>
    5f50:	00000000 	nop
    5f54:	00000000 	nop
    5f58:	00000021 	move	zero,zero
    5f5c:	00000021 	move	zero,zero
    5f60:	00000021 	move	zero,zero
    5f64:	00000021 	move	zero,zero
    5f68:	00000021 	move	zero,zero
    5f6c:	00000021 	move	zero,zero
    5f70:	00000021 	move	zero,zero
    5f74:	00000021 	move	zero,zero
    5f78:	00000021 	move	zero,zero
    5f7c:	3c0881e0 	lui	t0,0x81e0
    5f80:	35086df9 	ori	t0,t0,0x6df9
    5f84:	0511ffed 	bgezal	t0,5f3c <n36_bgezal_test+0x5f3c>
    5f88:	00000000 	nop
    5f8c:	10000013 	b	5fdc <n36_bgezal_test+0x5fdc>
    5f90:	00000000 	nop
    5f94:	00000000 	nop
    5f98:	00000021 	move	zero,zero
    5f9c:	00000021 	move	zero,zero
    5fa0:	00000021 	move	zero,zero
    5fa4:	00000021 	move	zero,zero
    5fa8:	00000021 	move	zero,zero
    5fac:	00000021 	move	zero,zero
    5fb0:	00000021 	move	zero,zero
    5fb4:	00000021 	move	zero,zero
    5fb8:	00000021 	move	zero,zero
    5fbc:	00000021 	move	zero,zero
    5fc0:	00000021 	move	zero,zero
    5fc4:	00000021 	move	zero,zero
    5fc8:	00000021 	move	zero,zero
    5fcc:	00000021 	move	zero,zero
    5fd0:	00000021 	move	zero,zero
    5fd4:	3c129ea0 	lui	s2,0x9ea0
    5fd8:	36527a8c 	ori	s2,s2,0x7a8c
    5fdc:	001fa021 	addu	s4,zero,ra
    5fe0:	0015f821 	addu	ra,zero,s5
    5fe4:	3c150000 	lui	s5,0x0
    5fe8:	26b55f44 	addiu	s5,s5,24388
    5fec:	3c160000 	lui	s6,0x0
    5ff0:	26d65f84 	addiu	s6,s6,24452
    5ff4:	24180000 	li	t8,0
    5ff8:	16182f79 	bne	s0,t8,11de0 <inst_error>
    5ffc:	00000000 	nop
    6000:	00000000 	nop
    6004:	24180000 	li	t8,0
    6008:	16582f75 	bne	s2,t8,11de0 <inst_error>
    600c:	00000000 	nop
    6010:	00000000 	nop
    6014:	3c19bfc0 	lui	t9,0xbfc0
    6018:	37393550 	ori	t9,t9,0x3550
    601c:	3c18bfc0 	lui	t8,0xbfc0
    6020:	37183510 	ori	t8,t8,0x3510
    6024:	27180008 	addiu	t8,t8,8
    6028:	1319000a 	beq	t8,t9,6054 <n36_bgezal_test+0x6054>
    602c:	00000000 	nop
    6030:	00000000 	nop
    6034:	3c18bfc0 	lui	t8,0xbfc0
    6038:	37183548 	ori	t8,t8,0x3548
    603c:	27180008 	addiu	t8,t8,8
    6040:	1319000a 	beq	t8,t9,606c <n36_bgezal_test+0x606c>
    6044:	00000000 	nop
    6048:	10002f65 	b	11de0 <inst_error>
    604c:	00000000 	nop
    6050:	00000000 	nop
    6054:	26b50008 	addiu	s5,s5,8
    6058:	16952f61 	bne	s4,s5,11de0 <inst_error>
    605c:	00000000 	nop
    6060:	10000006 	b	607c <n36_bgezal_test+0x607c>
    6064:	00000000 	nop
    6068:	00000000 	nop
    606c:	26d60008 	addiu	s6,s6,8
    6070:	16962f5b 	bne	s4,s6,11de0 <inst_error>
    6074:	00000000 	nop
	...
    6080:	001fa821 	addu	s5,zero,ra
    6084:	3c0c1895 	lui	t4,0x1895
    6088:	358c5140 	ori	t4,t4,0x5140
    608c:	3c0d86b2 	lui	t5,0x86b2
    6090:	35ade1f0 	ori	t5,t5,0xe1f0
    6094:	24100000 	li	s0,0
    6098:	10000012 	b	60e4 <n36_bgezal_test+0x60e4>
    609c:	24120000 	li	s2,0
    60a0:	00000000 	nop
    60a4:	3c101895 	lui	s0,0x1895
    60a8:	36105140 	ori	s0,s0,0x5140
    60ac:	05110023 	bgezal	t0,613c <n36_bgezal_test+0x613c>
    60b0:	00000000 	nop
    60b4:	10000023 	b	6144 <n36_bgezal_test+0x6144>
    60b8:	00000000 	nop
    60bc:	00000000 	nop
    60c0:	00000021 	move	zero,zero
    60c4:	00000021 	move	zero,zero
    60c8:	00000021 	move	zero,zero
    60cc:	00000021 	move	zero,zero
    60d0:	00000021 	move	zero,zero
    60d4:	00000021 	move	zero,zero
    60d8:	00000021 	move	zero,zero
    60dc:	00000021 	move	zero,zero
    60e0:	00000021 	move	zero,zero
    60e4:	3c086a06 	lui	t0,0x6a06
    60e8:	35084cef 	ori	t0,t0,0x4cef
    60ec:	0511ffed 	bgezal	t0,60a4 <n36_bgezal_test+0x60a4>
    60f0:	00000000 	nop
    60f4:	10000013 	b	6144 <n36_bgezal_test+0x6144>
    60f8:	00000000 	nop
    60fc:	00000000 	nop
    6100:	00000021 	move	zero,zero
    6104:	00000021 	move	zero,zero
    6108:	00000021 	move	zero,zero
    610c:	00000021 	move	zero,zero
    6110:	00000021 	move	zero,zero
    6114:	00000021 	move	zero,zero
    6118:	00000021 	move	zero,zero
    611c:	00000021 	move	zero,zero
    6120:	00000021 	move	zero,zero
    6124:	00000021 	move	zero,zero
    6128:	00000021 	move	zero,zero
    612c:	00000021 	move	zero,zero
    6130:	00000021 	move	zero,zero
    6134:	00000021 	move	zero,zero
    6138:	00000021 	move	zero,zero
    613c:	3c1286b2 	lui	s2,0x86b2
    6140:	3652e1f0 	ori	s2,s2,0xe1f0
    6144:	001fa021 	addu	s4,zero,ra
    6148:	0015f821 	addu	ra,zero,s5
    614c:	3c150000 	lui	s5,0x0
    6150:	26b560ac 	addiu	s5,s5,24748
    6154:	3c160000 	lui	s6,0x0
    6158:	26d660ec 	addiu	s6,s6,24812
    615c:	3c181895 	lui	t8,0x1895
    6160:	37185140 	ori	t8,t8,0x5140
    6164:	16182f1e 	bne	s0,t8,11de0 <inst_error>
    6168:	00000000 	nop
    616c:	00000000 	nop
    6170:	3c1886b2 	lui	t8,0x86b2
    6174:	3718e1f0 	ori	t8,t8,0xe1f0
    6178:	16582f19 	bne	s2,t8,11de0 <inst_error>
    617c:	00000000 	nop
    6180:	00000000 	nop
    6184:	3c19bfc0 	lui	t9,0xbfc0
    6188:	373935d4 	ori	t9,t9,0x35d4
    618c:	3c18bfc0 	lui	t8,0xbfc0
    6190:	371835cc 	ori	t8,t8,0x35cc
    6194:	27180008 	addiu	t8,t8,8
    6198:	1319000a 	beq	t8,t9,61c4 <n36_bgezal_test+0x61c4>
    619c:	00000000 	nop
    61a0:	00000000 	nop
    61a4:	3c18bfc0 	lui	t8,0xbfc0
    61a8:	37183604 	ori	t8,t8,0x3604
    61ac:	27180008 	addiu	t8,t8,8
    61b0:	1319000a 	beq	t8,t9,61dc <n36_bgezal_test+0x61dc>
    61b4:	00000000 	nop
    61b8:	10002f09 	b	11de0 <inst_error>
    61bc:	00000000 	nop
    61c0:	00000000 	nop
    61c4:	26b50008 	addiu	s5,s5,8
    61c8:	16952f05 	bne	s4,s5,11de0 <inst_error>
    61cc:	00000000 	nop
    61d0:	10000006 	b	61ec <n36_bgezal_test+0x61ec>
    61d4:	00000000 	nop
    61d8:	00000000 	nop
    61dc:	26d60008 	addiu	s6,s6,8
    61e0:	16962eff 	bne	s4,s6,11de0 <inst_error>
    61e4:	00000000 	nop
	...
    61f0:	001fa821 	addu	s5,zero,ra
    61f4:	3c0cffc3 	lui	t4,0xffc3
    61f8:	358cf740 	ori	t4,t4,0xf740
    61fc:	3c0dbe11 	lui	t5,0xbe11
    6200:	35adf92f 	ori	t5,t5,0xf92f
    6204:	24100000 	li	s0,0
    6208:	10000012 	b	6254 <n36_bgezal_test+0x6254>
    620c:	24120000 	li	s2,0
    6210:	00000000 	nop
    6214:	3c10ffc3 	lui	s0,0xffc3
    6218:	3610f740 	ori	s0,s0,0xf740
    621c:	05110023 	bgezal	t0,62ac <n36_bgezal_test+0x62ac>
    6220:	00000000 	nop
    6224:	10000023 	b	62b4 <n36_bgezal_test+0x62b4>
    6228:	00000000 	nop
    622c:	00000000 	nop
    6230:	00000021 	move	zero,zero
    6234:	00000021 	move	zero,zero
    6238:	00000021 	move	zero,zero
    623c:	00000021 	move	zero,zero
    6240:	00000021 	move	zero,zero
    6244:	00000021 	move	zero,zero
    6248:	00000021 	move	zero,zero
    624c:	00000021 	move	zero,zero
    6250:	00000021 	move	zero,zero
    6254:	3c08204d 	lui	t0,0x204d
    6258:	35088af0 	ori	t0,t0,0x8af0
    625c:	0511ffed 	bgezal	t0,6214 <n36_bgezal_test+0x6214>
    6260:	00000000 	nop
    6264:	10000013 	b	62b4 <n36_bgezal_test+0x62b4>
    6268:	00000000 	nop
    626c:	00000000 	nop
    6270:	00000021 	move	zero,zero
    6274:	00000021 	move	zero,zero
    6278:	00000021 	move	zero,zero
    627c:	00000021 	move	zero,zero
    6280:	00000021 	move	zero,zero
    6284:	00000021 	move	zero,zero
    6288:	00000021 	move	zero,zero
    628c:	00000021 	move	zero,zero
    6290:	00000021 	move	zero,zero
    6294:	00000021 	move	zero,zero
    6298:	00000021 	move	zero,zero
    629c:	00000021 	move	zero,zero
    62a0:	00000021 	move	zero,zero
    62a4:	00000021 	move	zero,zero
    62a8:	00000021 	move	zero,zero
    62ac:	3c12be11 	lui	s2,0xbe11
    62b0:	3652f92f 	ori	s2,s2,0xf92f
    62b4:	001fa021 	addu	s4,zero,ra
    62b8:	0015f821 	addu	ra,zero,s5
    62bc:	3c150000 	lui	s5,0x0
    62c0:	26b5621c 	addiu	s5,s5,25116
    62c4:	3c160000 	lui	s6,0x0
    62c8:	26d6625c 	addiu	s6,s6,25180
    62cc:	3c18ffc3 	lui	t8,0xffc3
    62d0:	3718f740 	ori	t8,t8,0xf740
    62d4:	16182ec2 	bne	s0,t8,11de0 <inst_error>
    62d8:	00000000 	nop
    62dc:	00000000 	nop
    62e0:	3c18be11 	lui	t8,0xbe11
    62e4:	3718f92f 	ori	t8,t8,0xf92f
    62e8:	16582ebd 	bne	s2,t8,11de0 <inst_error>
    62ec:	00000000 	nop
    62f0:	00000000 	nop
    62f4:	3c19bfc0 	lui	t9,0xbfc0
    62f8:	37393690 	ori	t9,t9,0x3690
    62fc:	3c18bfc0 	lui	t8,0xbfc0
    6300:	37183688 	ori	t8,t8,0x3688
    6304:	27180008 	addiu	t8,t8,8
    6308:	1319000a 	beq	t8,t9,6334 <n36_bgezal_test+0x6334>
    630c:	00000000 	nop
    6310:	00000000 	nop
    6314:	3c18bfc0 	lui	t8,0xbfc0
    6318:	371836c0 	ori	t8,t8,0x36c0
    631c:	27180008 	addiu	t8,t8,8
    6320:	1319000a 	beq	t8,t9,634c <n36_bgezal_test+0x634c>
    6324:	00000000 	nop
    6328:	10002ead 	b	11de0 <inst_error>
    632c:	00000000 	nop
    6330:	00000000 	nop
    6334:	26b50008 	addiu	s5,s5,8
    6338:	16952ea9 	bne	s4,s5,11de0 <inst_error>
    633c:	00000000 	nop
    6340:	10000006 	b	635c <n36_bgezal_test+0x635c>
    6344:	00000000 	nop
    6348:	00000000 	nop
    634c:	26d60008 	addiu	s6,s6,8
    6350:	16962ea3 	bne	s4,s6,11de0 <inst_error>
    6354:	00000000 	nop
	...
    6360:	001fa821 	addu	s5,zero,ra
    6364:	3c0c7602 	lui	t4,0x7602
    6368:	358c58c8 	ori	t4,t4,0x58c8
    636c:	3c0d771f 	lui	t5,0x771f
    6370:	35ad9bc2 	ori	t5,t5,0x9bc2
    6374:	24100000 	li	s0,0
    6378:	10000012 	b	63c4 <n36_bgezal_test+0x63c4>
    637c:	24120000 	li	s2,0
    6380:	00000000 	nop
    6384:	3c107602 	lui	s0,0x7602
    6388:	361058c8 	ori	s0,s0,0x58c8
    638c:	05110023 	bgezal	t0,641c <n36_bgezal_test+0x641c>
    6390:	00000000 	nop
    6394:	10000023 	b	6424 <n36_bgezal_test+0x6424>
    6398:	00000000 	nop
    639c:	00000000 	nop
    63a0:	00000021 	move	zero,zero
    63a4:	00000021 	move	zero,zero
    63a8:	00000021 	move	zero,zero
    63ac:	00000021 	move	zero,zero
    63b0:	00000021 	move	zero,zero
    63b4:	00000021 	move	zero,zero
    63b8:	00000021 	move	zero,zero
    63bc:	00000021 	move	zero,zero
    63c0:	00000021 	move	zero,zero
    63c4:	3c082d24 	lui	t0,0x2d24
    63c8:	3508d026 	ori	t0,t0,0xd026
    63cc:	0511ffed 	bgezal	t0,6384 <n36_bgezal_test+0x6384>
    63d0:	00000000 	nop
    63d4:	10000013 	b	6424 <n36_bgezal_test+0x6424>
    63d8:	00000000 	nop
    63dc:	00000000 	nop
    63e0:	00000021 	move	zero,zero
    63e4:	00000021 	move	zero,zero
    63e8:	00000021 	move	zero,zero
    63ec:	00000021 	move	zero,zero
    63f0:	00000021 	move	zero,zero
    63f4:	00000021 	move	zero,zero
    63f8:	00000021 	move	zero,zero
    63fc:	00000021 	move	zero,zero
    6400:	00000021 	move	zero,zero
    6404:	00000021 	move	zero,zero
    6408:	00000021 	move	zero,zero
    640c:	00000021 	move	zero,zero
    6410:	00000021 	move	zero,zero
    6414:	00000021 	move	zero,zero
    6418:	00000021 	move	zero,zero
    641c:	3c12771f 	lui	s2,0x771f
    6420:	36529bc2 	ori	s2,s2,0x9bc2
    6424:	001fa021 	addu	s4,zero,ra
    6428:	0015f821 	addu	ra,zero,s5
    642c:	3c150000 	lui	s5,0x0
    6430:	26b5638c 	addiu	s5,s5,25484
    6434:	3c160000 	lui	s6,0x0
    6438:	26d663cc 	addiu	s6,s6,25548
    643c:	3c187602 	lui	t8,0x7602
    6440:	371858c8 	ori	t8,t8,0x58c8
    6444:	16182e66 	bne	s0,t8,11de0 <inst_error>
    6448:	00000000 	nop
    644c:	00000000 	nop
    6450:	3c18771f 	lui	t8,0x771f
    6454:	37189bc2 	ori	t8,t8,0x9bc2
    6458:	16582e61 	bne	s2,t8,11de0 <inst_error>
    645c:	00000000 	nop
    6460:	00000000 	nop
    6464:	3c19bfc0 	lui	t9,0xbfc0
    6468:	3739374c 	ori	t9,t9,0x374c
    646c:	3c18bfc0 	lui	t8,0xbfc0
    6470:	37183744 	ori	t8,t8,0x3744
    6474:	27180008 	addiu	t8,t8,8
    6478:	1319000a 	beq	t8,t9,64a4 <n36_bgezal_test+0x64a4>
    647c:	00000000 	nop
    6480:	00000000 	nop
    6484:	3c18bfc0 	lui	t8,0xbfc0
    6488:	3718377c 	ori	t8,t8,0x377c
    648c:	27180008 	addiu	t8,t8,8
    6490:	1319000a 	beq	t8,t9,64bc <n36_bgezal_test+0x64bc>
    6494:	00000000 	nop
    6498:	10002e51 	b	11de0 <inst_error>
    649c:	00000000 	nop
    64a0:	00000000 	nop
    64a4:	26b50008 	addiu	s5,s5,8
    64a8:	16952e4d 	bne	s4,s5,11de0 <inst_error>
    64ac:	00000000 	nop
    64b0:	10000006 	b	64cc <n36_bgezal_test+0x64cc>
    64b4:	00000000 	nop
    64b8:	00000000 	nop
    64bc:	26d60008 	addiu	s6,s6,8
    64c0:	16962e47 	bne	s4,s6,11de0 <inst_error>
    64c4:	00000000 	nop
	...
    64d0:	001fa821 	addu	s5,zero,ra
    64d4:	3c0c8519 	lui	t4,0x8519
    64d8:	358c7cce 	ori	t4,t4,0x7cce
    64dc:	3c0df8c6 	lui	t5,0xf8c6
    64e0:	35adda8e 	ori	t5,t5,0xda8e
    64e4:	24100000 	li	s0,0
    64e8:	10000012 	b	6534 <n36_bgezal_test+0x6534>
    64ec:	24120000 	li	s2,0
    64f0:	00000000 	nop
    64f4:	3c108519 	lui	s0,0x8519
    64f8:	36107cce 	ori	s0,s0,0x7cce
    64fc:	05110023 	bgezal	t0,658c <n36_bgezal_test+0x658c>
    6500:	00000000 	nop
    6504:	10000023 	b	6594 <n36_bgezal_test+0x6594>
    6508:	00000000 	nop
    650c:	00000000 	nop
    6510:	00000021 	move	zero,zero
    6514:	00000021 	move	zero,zero
    6518:	00000021 	move	zero,zero
    651c:	00000021 	move	zero,zero
    6520:	00000021 	move	zero,zero
    6524:	00000021 	move	zero,zero
    6528:	00000021 	move	zero,zero
    652c:	00000021 	move	zero,zero
    6530:	00000021 	move	zero,zero
    6534:	3c08dd6a 	lui	t0,0xdd6a
    6538:	35084690 	ori	t0,t0,0x4690
    653c:	0511ffed 	bgezal	t0,64f4 <n36_bgezal_test+0x64f4>
    6540:	00000000 	nop
    6544:	10000013 	b	6594 <n36_bgezal_test+0x6594>
    6548:	00000000 	nop
    654c:	00000000 	nop
    6550:	00000021 	move	zero,zero
    6554:	00000021 	move	zero,zero
    6558:	00000021 	move	zero,zero
    655c:	00000021 	move	zero,zero
    6560:	00000021 	move	zero,zero
    6564:	00000021 	move	zero,zero
    6568:	00000021 	move	zero,zero
    656c:	00000021 	move	zero,zero
    6570:	00000021 	move	zero,zero
    6574:	00000021 	move	zero,zero
    6578:	00000021 	move	zero,zero
    657c:	00000021 	move	zero,zero
    6580:	00000021 	move	zero,zero
    6584:	00000021 	move	zero,zero
    6588:	00000021 	move	zero,zero
    658c:	3c12f8c6 	lui	s2,0xf8c6
    6590:	3652da8e 	ori	s2,s2,0xda8e
    6594:	001fa021 	addu	s4,zero,ra
    6598:	0015f821 	addu	ra,zero,s5
    659c:	3c150000 	lui	s5,0x0
    65a0:	26b564fc 	addiu	s5,s5,25852
    65a4:	3c160000 	lui	s6,0x0
    65a8:	26d6653c 	addiu	s6,s6,25916
    65ac:	24180000 	li	t8,0
    65b0:	16182e0b 	bne	s0,t8,11de0 <inst_error>
    65b4:	00000000 	nop
    65b8:	00000000 	nop
    65bc:	24180000 	li	t8,0
    65c0:	16582e07 	bne	s2,t8,11de0 <inst_error>
    65c4:	00000000 	nop
    65c8:	00000000 	nop
    65cc:	3c19bfc0 	lui	t9,0xbfc0
    65d0:	37393840 	ori	t9,t9,0x3840
    65d4:	3c18bfc0 	lui	t8,0xbfc0
    65d8:	37183800 	ori	t8,t8,0x3800
    65dc:	27180008 	addiu	t8,t8,8
    65e0:	1319000a 	beq	t8,t9,660c <n36_bgezal_test+0x660c>
    65e4:	00000000 	nop
    65e8:	00000000 	nop
    65ec:	3c18bfc0 	lui	t8,0xbfc0
    65f0:	37183838 	ori	t8,t8,0x3838
    65f4:	27180008 	addiu	t8,t8,8
    65f8:	1319000a 	beq	t8,t9,6624 <n36_bgezal_test+0x6624>
    65fc:	00000000 	nop
    6600:	10002df7 	b	11de0 <inst_error>
    6604:	00000000 	nop
    6608:	00000000 	nop
    660c:	26b50008 	addiu	s5,s5,8
    6610:	16952df3 	bne	s4,s5,11de0 <inst_error>
    6614:	00000000 	nop
    6618:	10000006 	b	6634 <n36_bgezal_test+0x6634>
    661c:	00000000 	nop
    6620:	00000000 	nop
    6624:	26d60008 	addiu	s6,s6,8
    6628:	16962ded 	bne	s4,s6,11de0 <inst_error>
    662c:	00000000 	nop
	...
    6638:	001fa821 	addu	s5,zero,ra
    663c:	3c0c29fd 	lui	t4,0x29fd
    6640:	358cc410 	ori	t4,t4,0xc410
    6644:	3c0d2c37 	lui	t5,0x2c37
    6648:	35ad7344 	ori	t5,t5,0x7344
    664c:	24100000 	li	s0,0
    6650:	10000012 	b	669c <n36_bgezal_test+0x669c>
    6654:	24120000 	li	s2,0
    6658:	00000000 	nop
    665c:	3c1029fd 	lui	s0,0x29fd
    6660:	3610c410 	ori	s0,s0,0xc410
    6664:	05110023 	bgezal	t0,66f4 <n36_bgezal_test+0x66f4>
    6668:	00000000 	nop
    666c:	10000023 	b	66fc <n36_bgezal_test+0x66fc>
    6670:	00000000 	nop
    6674:	00000000 	nop
    6678:	00000021 	move	zero,zero
    667c:	00000021 	move	zero,zero
    6680:	00000021 	move	zero,zero
    6684:	00000021 	move	zero,zero
    6688:	00000021 	move	zero,zero
    668c:	00000021 	move	zero,zero
    6690:	00000021 	move	zero,zero
    6694:	00000021 	move	zero,zero
    6698:	00000021 	move	zero,zero
    669c:	3c08e3a7 	lui	t0,0xe3a7
    66a0:	3508803c 	ori	t0,t0,0x803c
    66a4:	0511ffed 	bgezal	t0,665c <n36_bgezal_test+0x665c>
    66a8:	00000000 	nop
    66ac:	10000013 	b	66fc <n36_bgezal_test+0x66fc>
    66b0:	00000000 	nop
    66b4:	00000000 	nop
    66b8:	00000021 	move	zero,zero
    66bc:	00000021 	move	zero,zero
    66c0:	00000021 	move	zero,zero
    66c4:	00000021 	move	zero,zero
    66c8:	00000021 	move	zero,zero
    66cc:	00000021 	move	zero,zero
    66d0:	00000021 	move	zero,zero
    66d4:	00000021 	move	zero,zero
    66d8:	00000021 	move	zero,zero
    66dc:	00000021 	move	zero,zero
    66e0:	00000021 	move	zero,zero
    66e4:	00000021 	move	zero,zero
    66e8:	00000021 	move	zero,zero
    66ec:	00000021 	move	zero,zero
    66f0:	00000021 	move	zero,zero
    66f4:	3c122c37 	lui	s2,0x2c37
    66f8:	36527344 	ori	s2,s2,0x7344
    66fc:	001fa021 	addu	s4,zero,ra
    6700:	0015f821 	addu	ra,zero,s5
    6704:	3c150000 	lui	s5,0x0
    6708:	26b56664 	addiu	s5,s5,26212
    670c:	3c160000 	lui	s6,0x0
    6710:	26d666a4 	addiu	s6,s6,26276
    6714:	24180000 	li	t8,0
    6718:	16182db1 	bne	s0,t8,11de0 <inst_error>
    671c:	00000000 	nop
    6720:	00000000 	nop
    6724:	24180000 	li	t8,0
    6728:	16582dad 	bne	s2,t8,11de0 <inst_error>
    672c:	00000000 	nop
    6730:	00000000 	nop
    6734:	3c19bfc0 	lui	t9,0xbfc0
    6738:	373938fc 	ori	t9,t9,0x38fc
    673c:	3c18bfc0 	lui	t8,0xbfc0
    6740:	371838bc 	ori	t8,t8,0x38bc
    6744:	27180008 	addiu	t8,t8,8
    6748:	1319000a 	beq	t8,t9,6774 <n36_bgezal_test+0x6774>
    674c:	00000000 	nop
    6750:	00000000 	nop
    6754:	3c18bfc0 	lui	t8,0xbfc0
    6758:	371838f4 	ori	t8,t8,0x38f4
    675c:	27180008 	addiu	t8,t8,8
    6760:	1319000a 	beq	t8,t9,678c <n36_bgezal_test+0x678c>
    6764:	00000000 	nop
    6768:	10002d9d 	b	11de0 <inst_error>
    676c:	00000000 	nop
    6770:	00000000 	nop
    6774:	26b50008 	addiu	s5,s5,8
    6778:	16952d99 	bne	s4,s5,11de0 <inst_error>
    677c:	00000000 	nop
    6780:	10000006 	b	679c <n36_bgezal_test+0x679c>
    6784:	00000000 	nop
    6788:	00000000 	nop
    678c:	26d60008 	addiu	s6,s6,8
    6790:	16962d93 	bne	s4,s6,11de0 <inst_error>
    6794:	00000000 	nop
	...
    67a0:	001fa821 	addu	s5,zero,ra
    67a4:	3c0cff28 	lui	t4,0xff28
    67a8:	358c89a0 	ori	t4,t4,0x89a0
    67ac:	3c0d4731 	lui	t5,0x4731
    67b0:	35ad1a00 	ori	t5,t5,0x1a00
    67b4:	24100000 	li	s0,0
    67b8:	10000012 	b	6804 <n36_bgezal_test+0x6804>
    67bc:	24120000 	li	s2,0
    67c0:	00000000 	nop
    67c4:	3c10ff28 	lui	s0,0xff28
    67c8:	361089a0 	ori	s0,s0,0x89a0
    67cc:	05110023 	bgezal	t0,685c <n36_bgezal_test+0x685c>
    67d0:	00000000 	nop
    67d4:	10000023 	b	6864 <n36_bgezal_test+0x6864>
    67d8:	00000000 	nop
    67dc:	00000000 	nop
    67e0:	00000021 	move	zero,zero
    67e4:	00000021 	move	zero,zero
    67e8:	00000021 	move	zero,zero
    67ec:	00000021 	move	zero,zero
    67f0:	00000021 	move	zero,zero
    67f4:	00000021 	move	zero,zero
    67f8:	00000021 	move	zero,zero
    67fc:	00000021 	move	zero,zero
    6800:	00000021 	move	zero,zero
    6804:	3c08b1d5 	lui	t0,0xb1d5
    6808:	35089e1c 	ori	t0,t0,0x9e1c
    680c:	0511ffed 	bgezal	t0,67c4 <n36_bgezal_test+0x67c4>
    6810:	00000000 	nop
    6814:	10000013 	b	6864 <n36_bgezal_test+0x6864>
    6818:	00000000 	nop
    681c:	00000000 	nop
    6820:	00000021 	move	zero,zero
    6824:	00000021 	move	zero,zero
    6828:	00000021 	move	zero,zero
    682c:	00000021 	move	zero,zero
    6830:	00000021 	move	zero,zero
    6834:	00000021 	move	zero,zero
    6838:	00000021 	move	zero,zero
    683c:	00000021 	move	zero,zero
    6840:	00000021 	move	zero,zero
    6844:	00000021 	move	zero,zero
    6848:	00000021 	move	zero,zero
    684c:	00000021 	move	zero,zero
    6850:	00000021 	move	zero,zero
    6854:	00000021 	move	zero,zero
    6858:	00000021 	move	zero,zero
    685c:	3c124731 	lui	s2,0x4731
    6860:	36521a00 	ori	s2,s2,0x1a00
    6864:	001fa021 	addu	s4,zero,ra
    6868:	0015f821 	addu	ra,zero,s5
    686c:	3c150000 	lui	s5,0x0
    6870:	26b567cc 	addiu	s5,s5,26572
    6874:	3c160000 	lui	s6,0x0
    6878:	26d6680c 	addiu	s6,s6,26636
    687c:	24180000 	li	t8,0
    6880:	16182d57 	bne	s0,t8,11de0 <inst_error>
    6884:	00000000 	nop
    6888:	00000000 	nop
    688c:	24180000 	li	t8,0
    6890:	16582d53 	bne	s2,t8,11de0 <inst_error>
    6894:	00000000 	nop
    6898:	00000000 	nop
    689c:	3c19bfc0 	lui	t9,0xbfc0
    68a0:	373939b8 	ori	t9,t9,0x39b8
    68a4:	3c18bfc0 	lui	t8,0xbfc0
    68a8:	37183978 	ori	t8,t8,0x3978
    68ac:	27180008 	addiu	t8,t8,8
    68b0:	1319000a 	beq	t8,t9,68dc <n36_bgezal_test+0x68dc>
    68b4:	00000000 	nop
    68b8:	00000000 	nop
    68bc:	3c18bfc0 	lui	t8,0xbfc0
    68c0:	371839b0 	ori	t8,t8,0x39b0
    68c4:	27180008 	addiu	t8,t8,8
    68c8:	1319000a 	beq	t8,t9,68f4 <n36_bgezal_test+0x68f4>
    68cc:	00000000 	nop
    68d0:	10002d43 	b	11de0 <inst_error>
    68d4:	00000000 	nop
    68d8:	00000000 	nop
    68dc:	26b50008 	addiu	s5,s5,8
    68e0:	16952d3f 	bne	s4,s5,11de0 <inst_error>
    68e4:	00000000 	nop
    68e8:	10000006 	b	6904 <n36_bgezal_test+0x6904>
    68ec:	00000000 	nop
    68f0:	00000000 	nop
    68f4:	26d60008 	addiu	s6,s6,8
    68f8:	16962d39 	bne	s4,s6,11de0 <inst_error>
    68fc:	00000000 	nop
	...
    6908:	001fa821 	addu	s5,zero,ra
    690c:	3c0c70ba 	lui	t4,0x70ba
    6910:	358c29d0 	ori	t4,t4,0x29d0
    6914:	3c0d665a 	lui	t5,0x665a
    6918:	35ad0285 	ori	t5,t5,0x285
    691c:	24100000 	li	s0,0
    6920:	10000012 	b	696c <n36_bgezal_test+0x696c>
    6924:	24120000 	li	s2,0
    6928:	00000000 	nop
    692c:	3c1070ba 	lui	s0,0x70ba
    6930:	361029d0 	ori	s0,s0,0x29d0
    6934:	05110023 	bgezal	t0,69c4 <n36_bgezal_test+0x69c4>
    6938:	00000000 	nop
    693c:	10000023 	b	69cc <n36_bgezal_test+0x69cc>
    6940:	00000000 	nop
    6944:	00000000 	nop
    6948:	00000021 	move	zero,zero
    694c:	00000021 	move	zero,zero
    6950:	00000021 	move	zero,zero
    6954:	00000021 	move	zero,zero
    6958:	00000021 	move	zero,zero
    695c:	00000021 	move	zero,zero
    6960:	00000021 	move	zero,zero
    6964:	00000021 	move	zero,zero
    6968:	00000021 	move	zero,zero
    696c:	3c08ba40 	lui	t0,0xba40
    6970:	35085044 	ori	t0,t0,0x5044
    6974:	0511ffed 	bgezal	t0,692c <n36_bgezal_test+0x692c>
    6978:	00000000 	nop
    697c:	10000013 	b	69cc <n36_bgezal_test+0x69cc>
    6980:	00000000 	nop
    6984:	00000000 	nop
    6988:	00000021 	move	zero,zero
    698c:	00000021 	move	zero,zero
    6990:	00000021 	move	zero,zero
    6994:	00000021 	move	zero,zero
    6998:	00000021 	move	zero,zero
    699c:	00000021 	move	zero,zero
    69a0:	00000021 	move	zero,zero
    69a4:	00000021 	move	zero,zero
    69a8:	00000021 	move	zero,zero
    69ac:	00000021 	move	zero,zero
    69b0:	00000021 	move	zero,zero
    69b4:	00000021 	move	zero,zero
    69b8:	00000021 	move	zero,zero
    69bc:	00000021 	move	zero,zero
    69c0:	00000021 	move	zero,zero
    69c4:	3c12665a 	lui	s2,0x665a
    69c8:	36520285 	ori	s2,s2,0x285
    69cc:	001fa021 	addu	s4,zero,ra
    69d0:	0015f821 	addu	ra,zero,s5
    69d4:	3c150000 	lui	s5,0x0
    69d8:	26b56934 	addiu	s5,s5,26932
    69dc:	3c160000 	lui	s6,0x0
    69e0:	26d66974 	addiu	s6,s6,26996
    69e4:	24180000 	li	t8,0
    69e8:	16182cfd 	bne	s0,t8,11de0 <inst_error>
    69ec:	00000000 	nop
    69f0:	00000000 	nop
    69f4:	24180000 	li	t8,0
    69f8:	16582cf9 	bne	s2,t8,11de0 <inst_error>
    69fc:	00000000 	nop
    6a00:	00000000 	nop
    6a04:	3c19bfc0 	lui	t9,0xbfc0
    6a08:	37393a74 	ori	t9,t9,0x3a74
    6a0c:	3c18bfc0 	lui	t8,0xbfc0
    6a10:	37183a34 	ori	t8,t8,0x3a34
    6a14:	27180008 	addiu	t8,t8,8
    6a18:	1319000a 	beq	t8,t9,6a44 <n36_bgezal_test+0x6a44>
    6a1c:	00000000 	nop
    6a20:	00000000 	nop
    6a24:	3c18bfc0 	lui	t8,0xbfc0
    6a28:	37183a6c 	ori	t8,t8,0x3a6c
    6a2c:	27180008 	addiu	t8,t8,8
    6a30:	1319000a 	beq	t8,t9,6a5c <n36_bgezal_test+0x6a5c>
    6a34:	00000000 	nop
    6a38:	10002ce9 	b	11de0 <inst_error>
    6a3c:	00000000 	nop
    6a40:	00000000 	nop
    6a44:	26b50008 	addiu	s5,s5,8
    6a48:	16952ce5 	bne	s4,s5,11de0 <inst_error>
    6a4c:	00000000 	nop
    6a50:	10000006 	b	6a6c <n36_bgezal_test+0x6a6c>
    6a54:	00000000 	nop
    6a58:	00000000 	nop
    6a5c:	26d60008 	addiu	s6,s6,8
    6a60:	16962cdf 	bne	s4,s6,11de0 <inst_error>
    6a64:	00000000 	nop
	...
    6a70:	001fa821 	addu	s5,zero,ra
    6a74:	3c0c9532 	lui	t4,0x9532
    6a78:	358c0960 	ori	t4,t4,0x960
    6a7c:	3c0d472b 	lui	t5,0x472b
    6a80:	35ad06c6 	ori	t5,t5,0x6c6
    6a84:	24100000 	li	s0,0
    6a88:	10000012 	b	6ad4 <n36_bgezal_test+0x6ad4>
    6a8c:	24120000 	li	s2,0
    6a90:	00000000 	nop
    6a94:	3c109532 	lui	s0,0x9532
    6a98:	36100960 	ori	s0,s0,0x960
    6a9c:	05110023 	bgezal	t0,6b2c <n36_bgezal_test+0x6b2c>
    6aa0:	00000000 	nop
    6aa4:	10000023 	b	6b34 <n36_bgezal_test+0x6b34>
    6aa8:	00000000 	nop
    6aac:	00000000 	nop
    6ab0:	00000021 	move	zero,zero
    6ab4:	00000021 	move	zero,zero
    6ab8:	00000021 	move	zero,zero
    6abc:	00000021 	move	zero,zero
    6ac0:	00000021 	move	zero,zero
    6ac4:	00000021 	move	zero,zero
    6ac8:	00000021 	move	zero,zero
    6acc:	00000021 	move	zero,zero
    6ad0:	00000021 	move	zero,zero
    6ad4:	3c08966c 	lui	t0,0x966c
    6ad8:	350821d0 	ori	t0,t0,0x21d0
    6adc:	0511ffed 	bgezal	t0,6a94 <n36_bgezal_test+0x6a94>
    6ae0:	00000000 	nop
    6ae4:	10000013 	b	6b34 <n36_bgezal_test+0x6b34>
    6ae8:	00000000 	nop
    6aec:	00000000 	nop
    6af0:	00000021 	move	zero,zero
    6af4:	00000021 	move	zero,zero
    6af8:	00000021 	move	zero,zero
    6afc:	00000021 	move	zero,zero
    6b00:	00000021 	move	zero,zero
    6b04:	00000021 	move	zero,zero
    6b08:	00000021 	move	zero,zero
    6b0c:	00000021 	move	zero,zero
    6b10:	00000021 	move	zero,zero
    6b14:	00000021 	move	zero,zero
    6b18:	00000021 	move	zero,zero
    6b1c:	00000021 	move	zero,zero
    6b20:	00000021 	move	zero,zero
    6b24:	00000021 	move	zero,zero
    6b28:	00000021 	move	zero,zero
    6b2c:	3c12472b 	lui	s2,0x472b
    6b30:	365206c6 	ori	s2,s2,0x6c6
    6b34:	001fa021 	addu	s4,zero,ra
    6b38:	0015f821 	addu	ra,zero,s5
    6b3c:	3c150000 	lui	s5,0x0
    6b40:	26b56a9c 	addiu	s5,s5,27292
    6b44:	3c160000 	lui	s6,0x0
    6b48:	26d66adc 	addiu	s6,s6,27356
    6b4c:	24180000 	li	t8,0
    6b50:	16182ca3 	bne	s0,t8,11de0 <inst_error>
    6b54:	00000000 	nop
    6b58:	00000000 	nop
    6b5c:	24180000 	li	t8,0
    6b60:	16582c9f 	bne	s2,t8,11de0 <inst_error>
    6b64:	00000000 	nop
    6b68:	00000000 	nop
    6b6c:	3c19bfc0 	lui	t9,0xbfc0
    6b70:	37393b30 	ori	t9,t9,0x3b30
    6b74:	3c18bfc0 	lui	t8,0xbfc0
    6b78:	37183af0 	ori	t8,t8,0x3af0
    6b7c:	27180008 	addiu	t8,t8,8
    6b80:	1319000a 	beq	t8,t9,6bac <n36_bgezal_test+0x6bac>
    6b84:	00000000 	nop
    6b88:	00000000 	nop
    6b8c:	3c18bfc0 	lui	t8,0xbfc0
    6b90:	37183b28 	ori	t8,t8,0x3b28
    6b94:	27180008 	addiu	t8,t8,8
    6b98:	1319000a 	beq	t8,t9,6bc4 <n36_bgezal_test+0x6bc4>
    6b9c:	00000000 	nop
    6ba0:	10002c8f 	b	11de0 <inst_error>
    6ba4:	00000000 	nop
    6ba8:	00000000 	nop
    6bac:	26b50008 	addiu	s5,s5,8
    6bb0:	16952c8b 	bne	s4,s5,11de0 <inst_error>
    6bb4:	00000000 	nop
    6bb8:	10000006 	b	6bd4 <n36_bgezal_test+0x6bd4>
    6bbc:	00000000 	nop
    6bc0:	00000000 	nop
    6bc4:	26d60008 	addiu	s6,s6,8
    6bc8:	16962c85 	bne	s4,s6,11de0 <inst_error>
    6bcc:	00000000 	nop
	...
    6bd8:	001fa821 	addu	s5,zero,ra
    6bdc:	3c0cd2c9 	lui	t4,0xd2c9
    6be0:	358c245e 	ori	t4,t4,0x245e
    6be4:	3c0d2618 	lui	t5,0x2618
    6be8:	35ad88e8 	ori	t5,t5,0x88e8
    6bec:	24100000 	li	s0,0
    6bf0:	10000012 	b	6c3c <n36_bgezal_test+0x6c3c>
    6bf4:	24120000 	li	s2,0
    6bf8:	00000000 	nop
    6bfc:	3c10d2c9 	lui	s0,0xd2c9
    6c00:	3610245e 	ori	s0,s0,0x245e
    6c04:	05110023 	bgezal	t0,6c94 <n36_bgezal_test+0x6c94>
    6c08:	00000000 	nop
    6c0c:	10000023 	b	6c9c <n36_bgezal_test+0x6c9c>
    6c10:	00000000 	nop
    6c14:	00000000 	nop
    6c18:	00000021 	move	zero,zero
    6c1c:	00000021 	move	zero,zero
    6c20:	00000021 	move	zero,zero
    6c24:	00000021 	move	zero,zero
    6c28:	00000021 	move	zero,zero
    6c2c:	00000021 	move	zero,zero
    6c30:	00000021 	move	zero,zero
    6c34:	00000021 	move	zero,zero
    6c38:	00000021 	move	zero,zero
    6c3c:	3c082640 	lui	t0,0x2640
    6c40:	3508fab0 	ori	t0,t0,0xfab0
    6c44:	0511ffed 	bgezal	t0,6bfc <n36_bgezal_test+0x6bfc>
    6c48:	00000000 	nop
    6c4c:	10000013 	b	6c9c <n36_bgezal_test+0x6c9c>
    6c50:	00000000 	nop
    6c54:	00000000 	nop
    6c58:	00000021 	move	zero,zero
    6c5c:	00000021 	move	zero,zero
    6c60:	00000021 	move	zero,zero
    6c64:	00000021 	move	zero,zero
    6c68:	00000021 	move	zero,zero
    6c6c:	00000021 	move	zero,zero
    6c70:	00000021 	move	zero,zero
    6c74:	00000021 	move	zero,zero
    6c78:	00000021 	move	zero,zero
    6c7c:	00000021 	move	zero,zero
    6c80:	00000021 	move	zero,zero
    6c84:	00000021 	move	zero,zero
    6c88:	00000021 	move	zero,zero
    6c8c:	00000021 	move	zero,zero
    6c90:	00000021 	move	zero,zero
    6c94:	3c122618 	lui	s2,0x2618
    6c98:	365288e8 	ori	s2,s2,0x88e8
    6c9c:	001fa021 	addu	s4,zero,ra
    6ca0:	0015f821 	addu	ra,zero,s5
    6ca4:	3c150000 	lui	s5,0x0
    6ca8:	26b56c04 	addiu	s5,s5,27652
    6cac:	3c160000 	lui	s6,0x0
    6cb0:	26d66c44 	addiu	s6,s6,27716
    6cb4:	3c18d2c9 	lui	t8,0xd2c9
    6cb8:	3718245e 	ori	t8,t8,0x245e
    6cbc:	16182c48 	bne	s0,t8,11de0 <inst_error>
    6cc0:	00000000 	nop
    6cc4:	00000000 	nop
    6cc8:	3c182618 	lui	t8,0x2618
    6ccc:	371888e8 	ori	t8,t8,0x88e8
    6cd0:	16582c43 	bne	s2,t8,11de0 <inst_error>
    6cd4:	00000000 	nop
    6cd8:	00000000 	nop
    6cdc:	3c19bfc0 	lui	t9,0xbfc0
    6ce0:	37393bb4 	ori	t9,t9,0x3bb4
    6ce4:	3c18bfc0 	lui	t8,0xbfc0
    6ce8:	37183bac 	ori	t8,t8,0x3bac
    6cec:	27180008 	addiu	t8,t8,8
    6cf0:	1319000a 	beq	t8,t9,6d1c <n36_bgezal_test+0x6d1c>
    6cf4:	00000000 	nop
    6cf8:	00000000 	nop
    6cfc:	3c18bfc0 	lui	t8,0xbfc0
    6d00:	37183be4 	ori	t8,t8,0x3be4
    6d04:	27180008 	addiu	t8,t8,8
    6d08:	1319000a 	beq	t8,t9,6d34 <n36_bgezal_test+0x6d34>
    6d0c:	00000000 	nop
    6d10:	10002c33 	b	11de0 <inst_error>
    6d14:	00000000 	nop
    6d18:	00000000 	nop
    6d1c:	26b50008 	addiu	s5,s5,8
    6d20:	16952c2f 	bne	s4,s5,11de0 <inst_error>
    6d24:	00000000 	nop
    6d28:	10000006 	b	6d44 <n36_bgezal_test+0x6d44>
    6d2c:	00000000 	nop
    6d30:	00000000 	nop
    6d34:	26d60008 	addiu	s6,s6,8
    6d38:	16962c29 	bne	s4,s6,11de0 <inst_error>
    6d3c:	00000000 	nop
	...
    6d48:	001fa821 	addu	s5,zero,ra
    6d4c:	3c0c8a0b 	lui	t4,0x8a0b
    6d50:	358c4f16 	ori	t4,t4,0x4f16
    6d54:	3c0d981f 	lui	t5,0x981f
    6d58:	35ad1b40 	ori	t5,t5,0x1b40
    6d5c:	24100000 	li	s0,0
    6d60:	10000012 	b	6dac <n36_bgezal_test+0x6dac>
    6d64:	24120000 	li	s2,0
    6d68:	00000000 	nop
    6d6c:	3c108a0b 	lui	s0,0x8a0b
    6d70:	36104f16 	ori	s0,s0,0x4f16
    6d74:	05110023 	bgezal	t0,6e04 <n36_bgezal_test+0x6e04>
    6d78:	00000000 	nop
    6d7c:	10000023 	b	6e0c <n36_bgezal_test+0x6e0c>
    6d80:	00000000 	nop
    6d84:	00000000 	nop
    6d88:	00000021 	move	zero,zero
    6d8c:	00000021 	move	zero,zero
    6d90:	00000021 	move	zero,zero
    6d94:	00000021 	move	zero,zero
    6d98:	00000021 	move	zero,zero
    6d9c:	00000021 	move	zero,zero
    6da0:	00000021 	move	zero,zero
    6da4:	00000021 	move	zero,zero
    6da8:	00000021 	move	zero,zero
    6dac:	3c088919 	lui	t0,0x8919
    6db0:	3508d5ac 	ori	t0,t0,0xd5ac
    6db4:	0511ffed 	bgezal	t0,6d6c <n36_bgezal_test+0x6d6c>
    6db8:	00000000 	nop
    6dbc:	10000013 	b	6e0c <n36_bgezal_test+0x6e0c>
    6dc0:	00000000 	nop
    6dc4:	00000000 	nop
    6dc8:	00000021 	move	zero,zero
    6dcc:	00000021 	move	zero,zero
    6dd0:	00000021 	move	zero,zero
    6dd4:	00000021 	move	zero,zero
    6dd8:	00000021 	move	zero,zero
    6ddc:	00000021 	move	zero,zero
    6de0:	00000021 	move	zero,zero
    6de4:	00000021 	move	zero,zero
    6de8:	00000021 	move	zero,zero
    6dec:	00000021 	move	zero,zero
    6df0:	00000021 	move	zero,zero
    6df4:	00000021 	move	zero,zero
    6df8:	00000021 	move	zero,zero
    6dfc:	00000021 	move	zero,zero
    6e00:	00000021 	move	zero,zero
    6e04:	3c12981f 	lui	s2,0x981f
    6e08:	36521b40 	ori	s2,s2,0x1b40
    6e0c:	001fa021 	addu	s4,zero,ra
    6e10:	0015f821 	addu	ra,zero,s5
    6e14:	3c150000 	lui	s5,0x0
    6e18:	26b56d74 	addiu	s5,s5,28020
    6e1c:	3c160000 	lui	s6,0x0
    6e20:	26d66db4 	addiu	s6,s6,28084
    6e24:	24180000 	li	t8,0
    6e28:	16182bed 	bne	s0,t8,11de0 <inst_error>
    6e2c:	00000000 	nop
    6e30:	00000000 	nop
    6e34:	24180000 	li	t8,0
    6e38:	16582be9 	bne	s2,t8,11de0 <inst_error>
    6e3c:	00000000 	nop
    6e40:	00000000 	nop
    6e44:	3c19bfc0 	lui	t9,0xbfc0
    6e48:	37393ca8 	ori	t9,t9,0x3ca8
    6e4c:	3c18bfc0 	lui	t8,0xbfc0
    6e50:	37183c68 	ori	t8,t8,0x3c68
    6e54:	27180008 	addiu	t8,t8,8
    6e58:	1319000a 	beq	t8,t9,6e84 <n36_bgezal_test+0x6e84>
    6e5c:	00000000 	nop
    6e60:	00000000 	nop
    6e64:	3c18bfc0 	lui	t8,0xbfc0
    6e68:	37183ca0 	ori	t8,t8,0x3ca0
    6e6c:	27180008 	addiu	t8,t8,8
    6e70:	1319000a 	beq	t8,t9,6e9c <n36_bgezal_test+0x6e9c>
    6e74:	00000000 	nop
    6e78:	10002bd9 	b	11de0 <inst_error>
    6e7c:	00000000 	nop
    6e80:	00000000 	nop
    6e84:	26b50008 	addiu	s5,s5,8
    6e88:	16952bd5 	bne	s4,s5,11de0 <inst_error>
    6e8c:	00000000 	nop
    6e90:	10000006 	b	6eac <n36_bgezal_test+0x6eac>
    6e94:	00000000 	nop
    6e98:	00000000 	nop
    6e9c:	26d60008 	addiu	s6,s6,8
    6ea0:	16962bcf 	bne	s4,s6,11de0 <inst_error>
    6ea4:	00000000 	nop
	...
    6eb0:	001fa821 	addu	s5,zero,ra
    6eb4:	3c0cea8b 	lui	t4,0xea8b
    6eb8:	358c953c 	ori	t4,t4,0x953c
    6ebc:	3c0dc780 	lui	t5,0xc780
    6ec0:	35ad4f58 	ori	t5,t5,0x4f58
    6ec4:	24100000 	li	s0,0
    6ec8:	10000012 	b	6f14 <n36_bgezal_test+0x6f14>
    6ecc:	24120000 	li	s2,0
    6ed0:	00000000 	nop
    6ed4:	3c10ea8b 	lui	s0,0xea8b
    6ed8:	3610953c 	ori	s0,s0,0x953c
    6edc:	05110023 	bgezal	t0,6f6c <n36_bgezal_test+0x6f6c>
    6ee0:	00000000 	nop
    6ee4:	10000023 	b	6f74 <n36_bgezal_test+0x6f74>
    6ee8:	00000000 	nop
    6eec:	00000000 	nop
    6ef0:	00000021 	move	zero,zero
    6ef4:	00000021 	move	zero,zero
    6ef8:	00000021 	move	zero,zero
    6efc:	00000021 	move	zero,zero
    6f00:	00000021 	move	zero,zero
    6f04:	00000021 	move	zero,zero
    6f08:	00000021 	move	zero,zero
    6f0c:	00000021 	move	zero,zero
    6f10:	00000021 	move	zero,zero
    6f14:	3c08b4f0 	lui	t0,0xb4f0
    6f18:	35085260 	ori	t0,t0,0x5260
    6f1c:	0511ffed 	bgezal	t0,6ed4 <n36_bgezal_test+0x6ed4>
    6f20:	00000000 	nop
    6f24:	10000013 	b	6f74 <n36_bgezal_test+0x6f74>
    6f28:	00000000 	nop
    6f2c:	00000000 	nop
    6f30:	00000021 	move	zero,zero
    6f34:	00000021 	move	zero,zero
    6f38:	00000021 	move	zero,zero
    6f3c:	00000021 	move	zero,zero
    6f40:	00000021 	move	zero,zero
    6f44:	00000021 	move	zero,zero
    6f48:	00000021 	move	zero,zero
    6f4c:	00000021 	move	zero,zero
    6f50:	00000021 	move	zero,zero
    6f54:	00000021 	move	zero,zero
    6f58:	00000021 	move	zero,zero
    6f5c:	00000021 	move	zero,zero
    6f60:	00000021 	move	zero,zero
    6f64:	00000021 	move	zero,zero
    6f68:	00000021 	move	zero,zero
    6f6c:	3c12c780 	lui	s2,0xc780
    6f70:	36524f58 	ori	s2,s2,0x4f58
    6f74:	001fa021 	addu	s4,zero,ra
    6f78:	0015f821 	addu	ra,zero,s5
    6f7c:	3c150000 	lui	s5,0x0
    6f80:	26b56edc 	addiu	s5,s5,28380
    6f84:	3c160000 	lui	s6,0x0
    6f88:	26d66f1c 	addiu	s6,s6,28444
    6f8c:	24180000 	li	t8,0
    6f90:	16182b93 	bne	s0,t8,11de0 <inst_error>
    6f94:	00000000 	nop
    6f98:	00000000 	nop
    6f9c:	24180000 	li	t8,0
    6fa0:	16582b8f 	bne	s2,t8,11de0 <inst_error>
    6fa4:	00000000 	nop
    6fa8:	00000000 	nop
    6fac:	3c19bfc0 	lui	t9,0xbfc0
    6fb0:	37393d64 	ori	t9,t9,0x3d64
    6fb4:	3c18bfc0 	lui	t8,0xbfc0
    6fb8:	37183d24 	ori	t8,t8,0x3d24
    6fbc:	27180008 	addiu	t8,t8,8
    6fc0:	1319000a 	beq	t8,t9,6fec <n36_bgezal_test+0x6fec>
    6fc4:	00000000 	nop
    6fc8:	00000000 	nop
    6fcc:	3c18bfc0 	lui	t8,0xbfc0
    6fd0:	37183d5c 	ori	t8,t8,0x3d5c
    6fd4:	27180008 	addiu	t8,t8,8
    6fd8:	1319000a 	beq	t8,t9,7004 <n36_bgezal_test+0x7004>
    6fdc:	00000000 	nop
    6fe0:	10002b7f 	b	11de0 <inst_error>
    6fe4:	00000000 	nop
    6fe8:	00000000 	nop
    6fec:	26b50008 	addiu	s5,s5,8
    6ff0:	16952b7b 	bne	s4,s5,11de0 <inst_error>
    6ff4:	00000000 	nop
    6ff8:	10000006 	b	7014 <n36_bgezal_test+0x7014>
    6ffc:	00000000 	nop
    7000:	00000000 	nop
    7004:	26d60008 	addiu	s6,s6,8
    7008:	16962b75 	bne	s4,s6,11de0 <inst_error>
    700c:	00000000 	nop
	...
    7018:	001fa821 	addu	s5,zero,ra
    701c:	3c0c10e2 	lui	t4,0x10e2
    7020:	358c2c70 	ori	t4,t4,0x2c70
    7024:	3c0de777 	lui	t5,0xe777
    7028:	35ad2208 	ori	t5,t5,0x2208
    702c:	24100000 	li	s0,0
    7030:	10000012 	b	707c <n36_bgezal_test+0x707c>
    7034:	24120000 	li	s2,0
    7038:	00000000 	nop
    703c:	3c1010e2 	lui	s0,0x10e2
    7040:	36102c70 	ori	s0,s0,0x2c70
    7044:	05110023 	bgezal	t0,70d4 <n36_bgezal_test+0x70d4>
    7048:	00000000 	nop
    704c:	10000023 	b	70dc <n36_bgezal_test+0x70dc>
    7050:	00000000 	nop
    7054:	00000000 	nop
    7058:	00000021 	move	zero,zero
    705c:	00000021 	move	zero,zero
    7060:	00000021 	move	zero,zero
    7064:	00000021 	move	zero,zero
    7068:	00000021 	move	zero,zero
    706c:	00000021 	move	zero,zero
    7070:	00000021 	move	zero,zero
    7074:	00000021 	move	zero,zero
    7078:	00000021 	move	zero,zero
    707c:	3c0805cb 	lui	t0,0x5cb
    7080:	3508b32d 	ori	t0,t0,0xb32d
    7084:	0511ffed 	bgezal	t0,703c <n36_bgezal_test+0x703c>
    7088:	00000000 	nop
    708c:	10000013 	b	70dc <n36_bgezal_test+0x70dc>
    7090:	00000000 	nop
    7094:	00000000 	nop
    7098:	00000021 	move	zero,zero
    709c:	00000021 	move	zero,zero
    70a0:	00000021 	move	zero,zero
    70a4:	00000021 	move	zero,zero
    70a8:	00000021 	move	zero,zero
    70ac:	00000021 	move	zero,zero
    70b0:	00000021 	move	zero,zero
    70b4:	00000021 	move	zero,zero
    70b8:	00000021 	move	zero,zero
    70bc:	00000021 	move	zero,zero
    70c0:	00000021 	move	zero,zero
    70c4:	00000021 	move	zero,zero
    70c8:	00000021 	move	zero,zero
    70cc:	00000021 	move	zero,zero
    70d0:	00000021 	move	zero,zero
    70d4:	3c12e777 	lui	s2,0xe777
    70d8:	36522208 	ori	s2,s2,0x2208
    70dc:	001fa021 	addu	s4,zero,ra
    70e0:	0015f821 	addu	ra,zero,s5
    70e4:	3c150000 	lui	s5,0x0
    70e8:	26b57044 	addiu	s5,s5,28740
    70ec:	3c160000 	lui	s6,0x0
    70f0:	26d67084 	addiu	s6,s6,28804
    70f4:	3c1810e2 	lui	t8,0x10e2
    70f8:	37182c70 	ori	t8,t8,0x2c70
    70fc:	16182b38 	bne	s0,t8,11de0 <inst_error>
    7100:	00000000 	nop
    7104:	00000000 	nop
    7108:	3c18e777 	lui	t8,0xe777
    710c:	37182208 	ori	t8,t8,0x2208
    7110:	16582b33 	bne	s2,t8,11de0 <inst_error>
    7114:	00000000 	nop
    7118:	00000000 	nop
    711c:	3c19bfc0 	lui	t9,0xbfc0
    7120:	37393de8 	ori	t9,t9,0x3de8
    7124:	3c18bfc0 	lui	t8,0xbfc0
    7128:	37183de0 	ori	t8,t8,0x3de0
    712c:	27180008 	addiu	t8,t8,8
    7130:	1319000a 	beq	t8,t9,715c <n36_bgezal_test+0x715c>
    7134:	00000000 	nop
    7138:	00000000 	nop
    713c:	3c18bfc0 	lui	t8,0xbfc0
    7140:	37183e18 	ori	t8,t8,0x3e18
    7144:	27180008 	addiu	t8,t8,8
    7148:	1319000a 	beq	t8,t9,7174 <n36_bgezal_test+0x7174>
    714c:	00000000 	nop
    7150:	10002b23 	b	11de0 <inst_error>
    7154:	00000000 	nop
    7158:	00000000 	nop
    715c:	26b50008 	addiu	s5,s5,8
    7160:	16952b1f 	bne	s4,s5,11de0 <inst_error>
    7164:	00000000 	nop
    7168:	10000006 	b	7184 <n36_bgezal_test+0x7184>
    716c:	00000000 	nop
    7170:	00000000 	nop
    7174:	26d60008 	addiu	s6,s6,8
    7178:	16962b19 	bne	s4,s6,11de0 <inst_error>
    717c:	00000000 	nop
	...
    7188:	001fa821 	addu	s5,zero,ra
    718c:	3c0ce0d5 	lui	t4,0xe0d5
    7190:	358c33d6 	ori	t4,t4,0x33d6
    7194:	3c0dd48d 	lui	t5,0xd48d
    7198:	35ad1074 	ori	t5,t5,0x1074
    719c:	24100000 	li	s0,0
    71a0:	10000012 	b	71ec <n36_bgezal_test+0x71ec>
    71a4:	24120000 	li	s2,0
    71a8:	00000000 	nop
    71ac:	3c10e0d5 	lui	s0,0xe0d5
    71b0:	361033d6 	ori	s0,s0,0x33d6
    71b4:	05110023 	bgezal	t0,7244 <n36_bgezal_test+0x7244>
    71b8:	00000000 	nop
    71bc:	10000023 	b	724c <n36_bgezal_test+0x724c>
    71c0:	00000000 	nop
    71c4:	00000000 	nop
    71c8:	00000021 	move	zero,zero
    71cc:	00000021 	move	zero,zero
    71d0:	00000021 	move	zero,zero
    71d4:	00000021 	move	zero,zero
    71d8:	00000021 	move	zero,zero
    71dc:	00000021 	move	zero,zero
    71e0:	00000021 	move	zero,zero
    71e4:	00000021 	move	zero,zero
    71e8:	00000021 	move	zero,zero
    71ec:	3c08da6d 	lui	t0,0xda6d
    71f0:	3508e980 	ori	t0,t0,0xe980
    71f4:	0511ffed 	bgezal	t0,71ac <n36_bgezal_test+0x71ac>
    71f8:	00000000 	nop
    71fc:	10000013 	b	724c <n36_bgezal_test+0x724c>
    7200:	00000000 	nop
    7204:	00000000 	nop
    7208:	00000021 	move	zero,zero
    720c:	00000021 	move	zero,zero
    7210:	00000021 	move	zero,zero
    7214:	00000021 	move	zero,zero
    7218:	00000021 	move	zero,zero
    721c:	00000021 	move	zero,zero
    7220:	00000021 	move	zero,zero
    7224:	00000021 	move	zero,zero
    7228:	00000021 	move	zero,zero
--More--
    722c:	00000021 	move	zero,zero
    7230:	00000021 	move	zero,zero
    7234:	00000021 	move	zero,zero
    7238:	00000021 	move	zero,zero
    723c:	00000021 	move	zero,zero
    7240:	00000021 	move	zero,zero
    7244:	3c12d48d 	lui	s2,0xd48d
    7248:	36521074 	ori	s2,s2,0x1074
    724c:	001fa021 	addu	s4,zero,ra
    7250:	0015f821 	addu	ra,zero,s5
    7254:	3c150000 	lui	s5,0x0
    7258:	26b571b4 	addiu	s5,s5,29108
    725c:	3c160000 	lui	s6,0x0
    7260:	26d671f4 	addiu	s6,s6,29172
    7264:	24180000 	li	t8,0
    7268:	16182add 	bne	s0,t8,11de0 <inst_error>
    726c:	00000000 	nop
    7270:	00000000 	nop
    7274:	24180000 	li	t8,0
    7278:	16582ad9 	bne	s2,t8,11de0 <inst_error>
    727c:	00000000 	nop
    7280:	00000000 	nop
    7284:	3c19bfc0 	lui	t9,0xbfc0
    7288:	37393edc 	ori	t9,t9,0x3edc
    728c:	3c18bfc0 	lui	t8,0xbfc0
    7290:	37183e9c 	ori	t8,t8,0x3e9c
    7294:	27180008 	addiu	t8,t8,8
    7298:	1319000a 	beq	t8,t9,72c4 <n36_bgezal_test+0x72c4>
    729c:	00000000 	nop
    72a0:	00000000 	nop
    72a4:	3c18bfc0 	lui	t8,0xbfc0
    72a8:	37183ed4 	ori	t8,t8,0x3ed4
    72ac:	27180008 	addiu	t8,t8,8
    72b0:	1319000a 	beq	t8,t9,72dc <n36_bgezal_test+0x72dc>
    72b4:	00000000 	nop
    72b8:	10002ac9 	b	11de0 <inst_error>
    72bc:	00000000 	nop
    72c0:	00000000 	nop
    72c4:	26b50008 	addiu	s5,s5,8
    72c8:	16952ac5 	bne	s4,s5,11de0 <inst_error>
    72cc:	00000000 	nop
    72d0:	10000006 	b	72ec <n36_bgezal_test+0x72ec>
    72d4:	00000000 	nop
    72d8:	00000000 	nop
    72dc:	26d60008 	addiu	s6,s6,8
    72e0:	16962abf 	bne	s4,s6,11de0 <inst_error>
    72e4:	00000000 	nop
	...
    72f0:	001fa821 	addu	s5,zero,ra
    72f4:	3c0c6415 	lui	t4,0x6415
    72f8:	358cdb60 	ori	t4,t4,0xdb60
    72fc:	3c0d73aa 	lui	t5,0x73aa
    7300:	35adeff8 	ori	t5,t5,0xeff8
    7304:	24100000 	li	s0,0
    7308:	10000012 	b	7354 <n36_bgezal_test+0x7354>
    730c:	24120000 	li	s2,0
    7310:	00000000 	nop
    7314:	3c106415 	lui	s0,0x6415
    7318:	3610db60 	ori	s0,s0,0xdb60
    731c:	05110023 	bgezal	t0,73ac <n36_bgezal_test+0x73ac>
    7320:	00000000 	nop
    7324:	10000023 	b	73b4 <n36_bgezal_test+0x73b4>
    7328:	00000000 	nop
    732c:	00000000 	nop
    7330:	00000021 	move	zero,zero
    7334:	00000021 	move	zero,zero
    7338:	00000021 	move	zero,zero
    733c:	00000021 	move	zero,zero
    7340:	00000021 	move	zero,zero
    7344:	00000021 	move	zero,zero
    7348:	00000021 	move	zero,zero
    734c:	00000021 	move	zero,zero
    7350:	00000021 	move	zero,zero
    7354:	3c083004 	lui	t0,0x3004
    7358:	35083918 	ori	t0,t0,0x3918
    735c:	0511ffed 	bgezal	t0,7314 <n36_bgezal_test+0x7314>
    7360:	00000000 	nop
    7364:	10000013 	b	73b4 <n36_bgezal_test+0x73b4>
    7368:	00000000 	nop
    736c:	00000000 	nop
    7370:	00000021 	move	zero,zero
    7374:	00000021 	move	zero,zero
    7378:	00000021 	move	zero,zero
    737c:	00000021 	move	zero,zero
    7380:	00000021 	move	zero,zero
    7384:	00000021 	move	zero,zero
    7388:	00000021 	move	zero,zero
    738c:	00000021 	move	zero,zero
    7390:	00000021 	move	zero,zero
    7394:	00000021 	move	zero,zero
    7398:	00000021 	move	zero,zero
    739c:	00000021 	move	zero,zero
    73a0:	00000021 	move	zero,zero
    73a4:	00000021 	move	zero,zero
    73a8:	00000021 	move	zero,zero
    73ac:	3c1273aa 	lui	s2,0x73aa
    73b0:	3652eff8 	ori	s2,s2,0xeff8
    73b4:	001fa021 	addu	s4,zero,ra
    73b8:	0015f821 	addu	ra,zero,s5
    73bc:	3c150000 	lui	s5,0x0
    73c0:	26b5731c 	addiu	s5,s5,29468
    73c4:	3c160000 	lui	s6,0x0
    73c8:	26d6735c 	addiu	s6,s6,29532
    73cc:	3c186415 	lui	t8,0x6415
    73d0:	3718db60 	ori	t8,t8,0xdb60
    73d4:	16182a82 	bne	s0,t8,11de0 <inst_error>
    73d8:	00000000 	nop
    73dc:	00000000 	nop
    73e0:	3c1873aa 	lui	t8,0x73aa
    73e4:	3718eff8 	ori	t8,t8,0xeff8
    73e8:	16582a7d 	bne	s2,t8,11de0 <inst_error>
    73ec:	00000000 	nop
    73f0:	00000000 	nop
    73f4:	3c19bfc0 	lui	t9,0xbfc0
    73f8:	37393f60 	ori	t9,t9,0x3f60
    73fc:	3c18bfc0 	lui	t8,0xbfc0
    7400:	37183f58 	ori	t8,t8,0x3f58
    7404:	27180008 	addiu	t8,t8,8
    7408:	1319000a 	beq	t8,t9,7434 <n36_bgezal_test+0x7434>
    740c:	00000000 	nop
    7410:	00000000 	nop
    7414:	3c18bfc0 	lui	t8,0xbfc0
    7418:	37183f90 	ori	t8,t8,0x3f90
    741c:	27180008 	addiu	t8,t8,8
    7420:	1319000a 	beq	t8,t9,744c <n36_bgezal_test+0x744c>
    7424:	00000000 	nop
    7428:	10002a6d 	b	11de0 <inst_error>
    742c:	00000000 	nop
    7430:	00000000 	nop
    7434:	26b50008 	addiu	s5,s5,8
    7438:	16952a69 	bne	s4,s5,11de0 <inst_error>
    743c:	00000000 	nop
    7440:	10000006 	b	745c <n36_bgezal_test+0x745c>
    7444:	00000000 	nop
    7448:	00000000 	nop
    744c:	26d60008 	addiu	s6,s6,8
    7450:	16962a63 	bne	s4,s6,11de0 <inst_error>
    7454:	00000000 	nop
	...
    7460:	001fa821 	addu	s5,zero,ra
    7464:	3c0cb5ad 	lui	t4,0xb5ad
    7468:	358cc358 	ori	t4,t4,0xc358
    746c:	3c0d22f1 	lui	t5,0x22f1
    7470:	35ad2300 	ori	t5,t5,0x2300
    7474:	24100000 	li	s0,0
    7478:	10000012 	b	74c4 <n36_bgezal_test+0x74c4>
    747c:	24120000 	li	s2,0
    7480:	00000000 	nop
    7484:	3c10b5ad 	lui	s0,0xb5ad
    7488:	3610c358 	ori	s0,s0,0xc358
    748c:	05110023 	bgezal	t0,751c <n36_bgezal_test+0x751c>
    7490:	00000000 	nop
    7494:	10000023 	b	7524 <n36_bgezal_test+0x7524>
    7498:	00000000 	nop
    749c:	00000000 	nop
    74a0:	00000021 	move	zero,zero
    74a4:	00000021 	move	zero,zero
    74a8:	00000021 	move	zero,zero
    74ac:	00000021 	move	zero,zero
    74b0:	00000021 	move	zero,zero
    74b4:	00000021 	move	zero,zero
    74b8:	00000021 	move	zero,zero
    74bc:	00000021 	move	zero,zero
    74c0:	00000021 	move	zero,zero
    74c4:	3c083f59 	lui	t0,0x3f59
    74c8:	35088570 	ori	t0,t0,0x8570
    74cc:	0511ffed 	bgezal	t0,7484 <n36_bgezal_test+0x7484>
    74d0:	00000000 	nop
    74d4:	10000013 	b	7524 <n36_bgezal_test+0x7524>
    74d8:	00000000 	nop
    74dc:	00000000 	nop
    74e0:	00000021 	move	zero,zero
    74e4:	00000021 	move	zero,zero
    74e8:	00000021 	move	zero,zero
    74ec:	00000021 	move	zero,zero
    74f0:	00000021 	move	zero,zero
    74f4:	00000021 	move	zero,zero
    74f8:	00000021 	move	zero,zero
    74fc:	00000021 	move	zero,zero
    7500:	00000021 	move	zero,zero
    7504:	00000021 	move	zero,zero
    7508:	00000021 	move	zero,zero
    750c:	00000021 	move	zero,zero
    7510:	00000021 	move	zero,zero
    7514:	00000021 	move	zero,zero
    7518:	00000021 	move	zero,zero
    751c:	3c1222f1 	lui	s2,0x22f1
    7520:	36522300 	ori	s2,s2,0x2300
    7524:	001fa021 	addu	s4,zero,ra
    7528:	0015f821 	addu	ra,zero,s5
    752c:	3c150000 	lui	s5,0x0
    7530:	26b5748c 	addiu	s5,s5,29836
    7534:	3c160000 	lui	s6,0x0
    7538:	26d674cc 	addiu	s6,s6,29900
    753c:	3c18b5ad 	lui	t8,0xb5ad
    7540:	3718c358 	ori	t8,t8,0xc358
    7544:	16182a26 	bne	s0,t8,11de0 <inst_error>
    7548:	00000000 	nop
    754c:	00000000 	nop
    7550:	3c1822f1 	lui	t8,0x22f1
    7554:	37182300 	ori	t8,t8,0x2300
    7558:	16582a21 	bne	s2,t8,11de0 <inst_error>
    755c:	00000000 	nop
    7560:	00000000 	nop
    7564:	3c19bfc0 	lui	t9,0xbfc0
    7568:	3739401c 	ori	t9,t9,0x401c
    756c:	3c18bfc0 	lui	t8,0xbfc0
    7570:	37184014 	ori	t8,t8,0x4014
    7574:	27180008 	addiu	t8,t8,8
    7578:	1319000a 	beq	t8,t9,75a4 <n36_bgezal_test+0x75a4>
    757c:	00000000 	nop
    7580:	00000000 	nop
    7584:	3c18bfc0 	lui	t8,0xbfc0
    7588:	3718404c 	ori	t8,t8,0x404c
    758c:	27180008 	addiu	t8,t8,8
    7590:	1319000a 	beq	t8,t9,75bc <n36_bgezal_test+0x75bc>
    7594:	00000000 	nop
    7598:	10002a11 	b	11de0 <inst_error>
    759c:	00000000 	nop
    75a0:	00000000 	nop
    75a4:	26b50008 	addiu	s5,s5,8
    75a8:	16952a0d 	bne	s4,s5,11de0 <inst_error>
    75ac:	00000000 	nop
    75b0:	10000006 	b	75cc <n36_bgezal_test+0x75cc>
    75b4:	00000000 	nop
    75b8:	00000000 	nop
    75bc:	26d60008 	addiu	s6,s6,8
    75c0:	16962a07 	bne	s4,s6,11de0 <inst_error>
    75c4:	00000000 	nop
	...
    75d0:	001fa821 	addu	s5,zero,ra
    75d4:	3c0cff41 	lui	t4,0xff41
    75d8:	358cf972 	ori	t4,t4,0xf972
    75dc:	3c0dad18 	lui	t5,0xad18
    75e0:	35ad5750 	ori	t5,t5,0x5750
    75e4:	24100000 	li	s0,0
    75e8:	10000012 	b	7634 <n36_bgezal_test+0x7634>
    75ec:	24120000 	li	s2,0
    75f0:	00000000 	nop
    75f4:	3c10ff41 	lui	s0,0xff41
    75f8:	3610f972 	ori	s0,s0,0xf972
    75fc:	05110023 	bgezal	t0,768c <n36_bgezal_test+0x768c>
    7600:	00000000 	nop
    7604:	10000023 	b	7694 <n36_bgezal_test+0x7694>
    7608:	00000000 	nop
    760c:	00000000 	nop
    7610:	00000021 	move	zero,zero
    7614:	00000021 	move	zero,zero
    7618:	00000021 	move	zero,zero
    761c:	00000021 	move	zero,zero
    7620:	00000021 	move	zero,zero
    7624:	00000021 	move	zero,zero
    7628:	00000021 	move	zero,zero
    762c:	00000021 	move	zero,zero
    7630:	00000021 	move	zero,zero
    7634:	3c08d94a 	lui	t0,0xd94a
    7638:	35081fc4 	ori	t0,t0,0x1fc4
    763c:	0511ffed 	bgezal	t0,75f4 <n36_bgezal_test+0x75f4>
    7640:	00000000 	nop
    7644:	10000013 	b	7694 <n36_bgezal_test+0x7694>
    7648:	00000000 	nop
    764c:	00000000 	nop
    7650:	00000021 	move	zero,zero
    7654:	00000021 	move	zero,zero
    7658:	00000021 	move	zero,zero
    765c:	00000021 	move	zero,zero
    7660:	00000021 	move	zero,zero
    7664:	00000021 	move	zero,zero
    7668:	00000021 	move	zero,zero
    766c:	00000021 	move	zero,zero
    7670:	00000021 	move	zero,zero
    7674:	00000021 	move	zero,zero
    7678:	00000021 	move	zero,zero
    767c:	00000021 	move	zero,zero
    7680:	00000021 	move	zero,zero
    7684:	00000021 	move	zero,zero
    7688:	00000021 	move	zero,zero
    768c:	3c12ad18 	lui	s2,0xad18
    7690:	36525750 	ori	s2,s2,0x5750
    7694:	001fa021 	addu	s4,zero,ra
    7698:	0015f821 	addu	ra,zero,s5
    769c:	3c150000 	lui	s5,0x0
    76a0:	26b575fc 	addiu	s5,s5,30204
    76a4:	3c160000 	lui	s6,0x0
    76a8:	26d6763c 	addiu	s6,s6,30268
    76ac:	24180000 	li	t8,0
    76b0:	161829cb 	bne	s0,t8,11de0 <inst_error>
    76b4:	00000000 	nop
    76b8:	00000000 	nop
    76bc:	24180000 	li	t8,0
    76c0:	165829c7 	bne	s2,t8,11de0 <inst_error>
    76c4:	00000000 	nop
    76c8:	00000000 	nop
    76cc:	3c19bfc0 	lui	t9,0xbfc0
    76d0:	37394110 	ori	t9,t9,0x4110
    76d4:	3c18bfc0 	lui	t8,0xbfc0
    76d8:	371840d0 	ori	t8,t8,0x40d0
    76dc:	27180008 	addiu	t8,t8,8
    76e0:	1319000a 	beq	t8,t9,770c <n36_bgezal_test+0x770c>
    76e4:	00000000 	nop
    76e8:	00000000 	nop
    76ec:	3c18bfc0 	lui	t8,0xbfc0
    76f0:	37184108 	ori	t8,t8,0x4108
    76f4:	27180008 	addiu	t8,t8,8
    76f8:	1319000a 	beq	t8,t9,7724 <n36_bgezal_test+0x7724>
    76fc:	00000000 	nop
    7700:	100029b7 	b	11de0 <inst_error>
    7704:	00000000 	nop
    7708:	00000000 	nop
    770c:	26b50008 	addiu	s5,s5,8
    7710:	169529b3 	bne	s4,s5,11de0 <inst_error>
    7714:	00000000 	nop
    7718:	10000006 	b	7734 <n36_bgezal_test+0x7734>
    771c:	00000000 	nop
    7720:	00000000 	nop
    7724:	26d60008 	addiu	s6,s6,8
    7728:	169629ad 	bne	s4,s6,11de0 <inst_error>
    772c:	00000000 	nop
	...
    7738:	001fa821 	addu	s5,zero,ra
    773c:	3c0c6034 	lui	t4,0x6034
    7740:	358c2c78 	ori	t4,t4,0x2c78
    7744:	3c0d8ae7 	lui	t5,0x8ae7
    7748:	35ad5d1c 	ori	t5,t5,0x5d1c
    774c:	24100000 	li	s0,0
    7750:	10000012 	b	779c <n36_bgezal_test+0x779c>
    7754:	24120000 	li	s2,0
    7758:	00000000 	nop
    775c:	3c106034 	lui	s0,0x6034
    7760:	36102c78 	ori	s0,s0,0x2c78
    7764:	05110023 	bgezal	t0,77f4 <n36_bgezal_test+0x77f4>
    7768:	00000000 	nop
    776c:	10000023 	b	77fc <n36_bgezal_test+0x77fc>
    7770:	00000000 	nop
    7774:	00000000 	nop
    7778:	00000021 	move	zero,zero
    777c:	00000021 	move	zero,zero
    7780:	00000021 	move	zero,zero
    7784:	00000021 	move	zero,zero
    7788:	00000021 	move	zero,zero
    778c:	00000021 	move	zero,zero
    7790:	00000021 	move	zero,zero
    7794:	00000021 	move	zero,zero
    7798:	00000021 	move	zero,zero
    779c:	3c080307 	lui	t0,0x307
    77a0:	35080850 	ori	t0,t0,0x850
    77a4:	0511ffed 	bgezal	t0,775c <n36_bgezal_test+0x775c>
    77a8:	00000000 	nop
    77ac:	10000013 	b	77fc <n36_bgezal_test+0x77fc>
    77b0:	00000000 	nop
    77b4:	00000000 	nop
    77b8:	00000021 	move	zero,zero
    77bc:	00000021 	move	zero,zero
    77c0:	00000021 	move	zero,zero
    77c4:	00000021 	move	zero,zero
    77c8:	00000021 	move	zero,zero
    77cc:	00000021 	move	zero,zero
    77d0:	00000021 	move	zero,zero
    77d4:	00000021 	move	zero,zero
    77d8:	00000021 	move	zero,zero
    77dc:	00000021 	move	zero,zero
    77e0:	00000021 	move	zero,zero
    77e4:	00000021 	move	zero,zero
    77e8:	00000021 	move	zero,zero
    77ec:	00000021 	move	zero,zero
    77f0:	00000021 	move	zero,zero
    77f4:	3c128ae7 	lui	s2,0x8ae7
    77f8:	36525d1c 	ori	s2,s2,0x5d1c
    77fc:	001fa021 	addu	s4,zero,ra
    7800:	0015f821 	addu	ra,zero,s5
    7804:	3c150000 	lui	s5,0x0
    7808:	26b57764 	addiu	s5,s5,30564
    780c:	3c160000 	lui	s6,0x0
    7810:	26d677a4 	addiu	s6,s6,30628
    7814:	3c186034 	lui	t8,0x6034
    7818:	37182c78 	ori	t8,t8,0x2c78
    781c:	16182970 	bne	s0,t8,11de0 <inst_error>
    7820:	00000000 	nop
    7824:	00000000 	nop
    7828:	3c188ae7 	lui	t8,0x8ae7
    782c:	37185d1c 	ori	t8,t8,0x5d1c
    7830:	1658296b 	bne	s2,t8,11de0 <inst_error>
    7834:	00000000 	nop
    7838:	00000000 	nop
    783c:	3c19bfc0 	lui	t9,0xbfc0
    7840:	37394194 	ori	t9,t9,0x4194
    7844:	3c18bfc0 	lui	t8,0xbfc0
    7848:	3718418c 	ori	t8,t8,0x418c
    784c:	27180008 	addiu	t8,t8,8
    7850:	1319000a 	beq	t8,t9,787c <n36_bgezal_test+0x787c>
    7854:	00000000 	nop
    7858:	00000000 	nop
    785c:	3c18bfc0 	lui	t8,0xbfc0
    7860:	371841c4 	ori	t8,t8,0x41c4
    7864:	27180008 	addiu	t8,t8,8
    7868:	1319000a 	beq	t8,t9,7894 <n36_bgezal_test+0x7894>
    786c:	00000000 	nop
    7870:	1000295b 	b	11de0 <inst_error>
    7874:	00000000 	nop
    7878:	00000000 	nop
    787c:	26b50008 	addiu	s5,s5,8
    7880:	16952957 	bne	s4,s5,11de0 <inst_error>
    7884:	00000000 	nop
    7888:	10000006 	b	78a4 <n36_bgezal_test+0x78a4>
    788c:	00000000 	nop
    7890:	00000000 	nop
    7894:	26d60008 	addiu	s6,s6,8
    7898:	16962951 	bne	s4,s6,11de0 <inst_error>
    789c:	00000000 	nop
	...
    78a8:	001fa821 	addu	s5,zero,ra
    78ac:	3c0c62d5 	lui	t4,0x62d5
    78b0:	358c0b2c 	ori	t4,t4,0xb2c
    78b4:	3c0dbf7b 	lui	t5,0xbf7b
    78b8:	35adbbe0 	ori	t5,t5,0xbbe0
    78bc:	24100000 	li	s0,0
    78c0:	10000012 	b	790c <n36_bgezal_test+0x790c>
    78c4:	24120000 	li	s2,0
    78c8:	00000000 	nop
    78cc:	3c1062d5 	lui	s0,0x62d5
    78d0:	36100b2c 	ori	s0,s0,0xb2c
    78d4:	05110023 	bgezal	t0,7964 <n36_bgezal_test+0x7964>
    78d8:	00000000 	nop
    78dc:	10000023 	b	796c <n36_bgezal_test+0x796c>
    78e0:	00000000 	nop
    78e4:	00000000 	nop
    78e8:	00000021 	move	zero,zero
    78ec:	00000021 	move	zero,zero
    78f0:	00000021 	move	zero,zero
    78f4:	00000021 	move	zero,zero
    78f8:	00000021 	move	zero,zero
    78fc:	00000021 	move	zero,zero
    7900:	00000021 	move	zero,zero
    7904:	00000021 	move	zero,zero
    7908:	00000021 	move	zero,zero
    790c:	3c089d6c 	lui	t0,0x9d6c
    7910:	35085b50 	ori	t0,t0,0x5b50
    7914:	0511ffed 	bgezal	t0,78cc <n36_bgezal_test+0x78cc>
    7918:	00000000 	nop
    791c:	10000013 	b	796c <n36_bgezal_test+0x796c>
    7920:	00000000 	nop
    7924:	00000000 	nop
    7928:	00000021 	move	zero,zero
    792c:	00000021 	move	zero,zero
    7930:	00000021 	move	zero,zero
    7934:	00000021 	move	zero,zero
    7938:	00000021 	move	zero,zero
    793c:	00000021 	move	zero,zero
    7940:	00000021 	move	zero,zero
    7944:	00000021 	move	zero,zero
    7948:	00000021 	move	zero,zero
    794c:	00000021 	move	zero,zero
    7950:	00000021 	move	zero,zero
    7954:	00000021 	move	zero,zero
    7958:	00000021 	move	zero,zero
    795c:	00000021 	move	zero,zero
    7960:	00000021 	move	zero,zero
    7964:	3c12bf7b 	lui	s2,0xbf7b
    7968:	3652bbe0 	ori	s2,s2,0xbbe0
    796c:	001fa021 	addu	s4,zero,ra
    7970:	0015f821 	addu	ra,zero,s5
    7974:	3c150000 	lui	s5,0x0
    7978:	26b578d4 	addiu	s5,s5,30932
    797c:	3c160000 	lui	s6,0x0
    7980:	26d67914 	addiu	s6,s6,30996
    7984:	24180000 	li	t8,0
    7988:	16182915 	bne	s0,t8,11de0 <inst_error>
    798c:	00000000 	nop
    7990:	00000000 	nop
    7994:	24180000 	li	t8,0
    7998:	16582911 	bne	s2,t8,11de0 <inst_error>
    799c:	00000000 	nop
    79a0:	00000000 	nop
    79a4:	3c19bfc0 	lui	t9,0xbfc0
    79a8:	37394288 	ori	t9,t9,0x4288
    79ac:	3c18bfc0 	lui	t8,0xbfc0
    79b0:	37184248 	ori	t8,t8,0x4248
    79b4:	27180008 	addiu	t8,t8,8
    79b8:	1319000a 	beq	t8,t9,79e4 <n36_bgezal_test+0x79e4>
    79bc:	00000000 	nop
    79c0:	00000000 	nop
    79c4:	3c18bfc0 	lui	t8,0xbfc0
    79c8:	37184280 	ori	t8,t8,0x4280
    79cc:	27180008 	addiu	t8,t8,8
    79d0:	1319000a 	beq	t8,t9,79fc <n36_bgezal_test+0x79fc>
    79d4:	00000000 	nop
    79d8:	10002901 	b	11de0 <inst_error>
    79dc:	00000000 	nop
    79e0:	00000000 	nop
    79e4:	26b50008 	addiu	s5,s5,8
    79e8:	169528fd 	bne	s4,s5,11de0 <inst_error>
    79ec:	00000000 	nop
    79f0:	10000006 	b	7a0c <n36_bgezal_test+0x7a0c>
    79f4:	00000000 	nop
    79f8:	00000000 	nop
    79fc:	26d60008 	addiu	s6,s6,8
    7a00:	169628f7 	bne	s4,s6,11de0 <inst_error>
    7a04:	00000000 	nop
	...
    7a10:	001fa821 	addu	s5,zero,ra
    7a14:	3c0c41ad 	lui	t4,0x41ad
    7a18:	358cc580 	ori	t4,t4,0xc580
    7a1c:	3c0d4481 	lui	t5,0x4481
    7a20:	35ad1cea 	ori	t5,t5,0x1cea
    7a24:	24100000 	li	s0,0
    7a28:	10000012 	b	7a74 <n36_bgezal_test+0x7a74>
    7a2c:	24120000 	li	s2,0
    7a30:	00000000 	nop
    7a34:	3c1041ad 	lui	s0,0x41ad
    7a38:	3610c580 	ori	s0,s0,0xc580
    7a3c:	05110023 	bgezal	t0,7acc <n36_bgezal_test+0x7acc>
    7a40:	00000000 	nop
    7a44:	10000023 	b	7ad4 <n36_bgezal_test+0x7ad4>
    7a48:	00000000 	nop
    7a4c:	00000000 	nop
    7a50:	00000021 	move	zero,zero
    7a54:	00000021 	move	zero,zero
    7a58:	00000021 	move	zero,zero
    7a5c:	00000021 	move	zero,zero
    7a60:	00000021 	move	zero,zero
    7a64:	00000021 	move	zero,zero
    7a68:	00000021 	move	zero,zero
    7a6c:	00000021 	move	zero,zero
    7a70:	00000021 	move	zero,zero
    7a74:	3c08efc3 	lui	t0,0xefc3
    7a78:	3508fb6d 	ori	t0,t0,0xfb6d
    7a7c:	0511ffed 	bgezal	t0,7a34 <n36_bgezal_test+0x7a34>
    7a80:	00000000 	nop
    7a84:	10000013 	b	7ad4 <n36_bgezal_test+0x7ad4>
    7a88:	00000000 	nop
    7a8c:	00000000 	nop
    7a90:	00000021 	move	zero,zero
    7a94:	00000021 	move	zero,zero
    7a98:	00000021 	move	zero,zero
    7a9c:	00000021 	move	zero,zero
    7aa0:	00000021 	move	zero,zero
    7aa4:	00000021 	move	zero,zero
    7aa8:	00000021 	move	zero,zero
    7aac:	00000021 	move	zero,zero
    7ab0:	00000021 	move	zero,zero
    7ab4:	00000021 	move	zero,zero
    7ab8:	00000021 	move	zero,zero
    7abc:	00000021 	move	zero,zero
    7ac0:	00000021 	move	zero,zero
    7ac4:	00000021 	move	zero,zero
    7ac8:	00000021 	move	zero,zero
    7acc:	3c124481 	lui	s2,0x4481
    7ad0:	36521cea 	ori	s2,s2,0x1cea
    7ad4:	001fa021 	addu	s4,zero,ra
    7ad8:	0015f821 	addu	ra,zero,s5
    7adc:	3c150000 	lui	s5,0x0
    7ae0:	26b57a3c 	addiu	s5,s5,31292
    7ae4:	3c160000 	lui	s6,0x0
    7ae8:	26d67a7c 	addiu	s6,s6,31356
    7aec:	24180000 	li	t8,0
    7af0:	161828bb 	bne	s0,t8,11de0 <inst_error>
    7af4:	00000000 	nop
    7af8:	00000000 	nop
    7afc:	24180000 	li	t8,0
    7b00:	165828b7 	bne	s2,t8,11de0 <inst_error>
    7b04:	00000000 	nop
    7b08:	00000000 	nop
    7b0c:	3c19bfc0 	lui	t9,0xbfc0
    7b10:	37394344 	ori	t9,t9,0x4344
    7b14:	3c18bfc0 	lui	t8,0xbfc0
    7b18:	37184304 	ori	t8,t8,0x4304
    7b1c:	27180008 	addiu	t8,t8,8
    7b20:	1319000a 	beq	t8,t9,7b4c <n36_bgezal_test+0x7b4c>
    7b24:	00000000 	nop
    7b28:	00000000 	nop
    7b2c:	3c18bfc0 	lui	t8,0xbfc0
    7b30:	3718433c 	ori	t8,t8,0x433c
    7b34:	27180008 	addiu	t8,t8,8
    7b38:	1319000a 	beq	t8,t9,7b64 <n36_bgezal_test+0x7b64>
    7b3c:	00000000 	nop
    7b40:	100028a7 	b	11de0 <inst_error>
    7b44:	00000000 	nop
    7b48:	00000000 	nop
    7b4c:	26b50008 	addiu	s5,s5,8
    7b50:	169528a3 	bne	s4,s5,11de0 <inst_error>
    7b54:	00000000 	nop
    7b58:	10000006 	b	7b74 <n36_bgezal_test+0x7b74>
    7b5c:	00000000 	nop
    7b60:	00000000 	nop
    7b64:	26d60008 	addiu	s6,s6,8
    7b68:	1696289d 	bne	s4,s6,11de0 <inst_error>
    7b6c:	00000000 	nop
	...
    7b78:	001fa821 	addu	s5,zero,ra
    7b7c:	3c0c8d1e 	lui	t4,0x8d1e
    7b80:	358cbf10 	ori	t4,t4,0xbf10
    7b84:	3c0d6cbe 	lui	t5,0x6cbe
    7b88:	35ad3a80 	ori	t5,t5,0x3a80
    7b8c:	24100000 	li	s0,0
    7b90:	10000012 	b	7bdc <n36_bgezal_test+0x7bdc>
    7b94:	24120000 	li	s2,0
    7b98:	00000000 	nop
    7b9c:	3c108d1e 	lui	s0,0x8d1e
    7ba0:	3610bf10 	ori	s0,s0,0xbf10
    7ba4:	05110023 	bgezal	t0,7c34 <n36_bgezal_test+0x7c34>
    7ba8:	00000000 	nop
    7bac:	10000023 	b	7c3c <n36_bgezal_test+0x7c3c>
    7bb0:	00000000 	nop
    7bb4:	00000000 	nop
    7bb8:	00000021 	move	zero,zero
    7bbc:	00000021 	move	zero,zero
    7bc0:	00000021 	move	zero,zero
    7bc4:	00000021 	move	zero,zero
    7bc8:	00000021 	move	zero,zero
    7bcc:	00000021 	move	zero,zero
    7bd0:	00000021 	move	zero,zero
    7bd4:	00000021 	move	zero,zero
    7bd8:	00000021 	move	zero,zero
    7bdc:	3c084461 	lui	t0,0x4461
    7be0:	3508ad06 	ori	t0,t0,0xad06
    7be4:	0511ffed 	bgezal	t0,7b9c <n36_bgezal_test+0x7b9c>
    7be8:	00000000 	nop
    7bec:	10000013 	b	7c3c <n36_bgezal_test+0x7c3c>
    7bf0:	00000000 	nop
    7bf4:	00000000 	nop
    7bf8:	00000021 	move	zero,zero
    7bfc:	00000021 	move	zero,zero
    7c00:	00000021 	move	zero,zero
    7c04:	00000021 	move	zero,zero
    7c08:	00000021 	move	zero,zero
    7c0c:	00000021 	move	zero,zero
    7c10:	00000021 	move	zero,zero
    7c14:	00000021 	move	zero,zero
    7c18:	00000021 	move	zero,zero
    7c1c:	00000021 	move	zero,zero
    7c20:	00000021 	move	zero,zero
    7c24:	00000021 	move	zero,zero
    7c28:	00000021 	move	zero,zero
    7c2c:	00000021 	move	zero,zero
    7c30:	00000021 	move	zero,zero
    7c34:	3c126cbe 	lui	s2,0x6cbe
    7c38:	36523a80 	ori	s2,s2,0x3a80
    7c3c:	001fa021 	addu	s4,zero,ra
    7c40:	0015f821 	addu	ra,zero,s5
    7c44:	3c150000 	lui	s5,0x0
    7c48:	26b57ba4 	addiu	s5,s5,31652
    7c4c:	3c160000 	lui	s6,0x0
    7c50:	26d67be4 	addiu	s6,s6,31716
    7c54:	3c188d1e 	lui	t8,0x8d1e
    7c58:	3718bf10 	ori	t8,t8,0xbf10
    7c5c:	16182860 	bne	s0,t8,11de0 <inst_error>
    7c60:	00000000 	nop
    7c64:	00000000 	nop
    7c68:	3c186cbe 	lui	t8,0x6cbe
    7c6c:	37183a80 	ori	t8,t8,0x3a80
    7c70:	1658285b 	bne	s2,t8,11de0 <inst_error>
    7c74:	00000000 	nop
    7c78:	00000000 	nop
    7c7c:	3c19bfc0 	lui	t9,0xbfc0
    7c80:	373943c8 	ori	t9,t9,0x43c8
    7c84:	3c18bfc0 	lui	t8,0xbfc0
    7c88:	371843c0 	ori	t8,t8,0x43c0
    7c8c:	27180008 	addiu	t8,t8,8
    7c90:	1319000a 	beq	t8,t9,7cbc <n36_bgezal_test+0x7cbc>
    7c94:	00000000 	nop
    7c98:	00000000 	nop
    7c9c:	3c18bfc0 	lui	t8,0xbfc0
    7ca0:	371843f8 	ori	t8,t8,0x43f8
    7ca4:	27180008 	addiu	t8,t8,8
    7ca8:	1319000a 	beq	t8,t9,7cd4 <n36_bgezal_test+0x7cd4>
    7cac:	00000000 	nop
    7cb0:	1000284b 	b	11de0 <inst_error>
    7cb4:	00000000 	nop
    7cb8:	00000000 	nop
    7cbc:	26b50008 	addiu	s5,s5,8
    7cc0:	16952847 	bne	s4,s5,11de0 <inst_error>
    7cc4:	00000000 	nop
    7cc8:	10000006 	b	7ce4 <n36_bgezal_test+0x7ce4>
    7ccc:	00000000 	nop
    7cd0:	00000000 	nop
    7cd4:	26d60008 	addiu	s6,s6,8
    7cd8:	16962841 	bne	s4,s6,11de0 <inst_error>
    7cdc:	00000000 	nop
	...
    7ce8:	001fa821 	addu	s5,zero,ra
    7cec:	3c0c16af 	lui	t4,0x16af
    7cf0:	358c2f88 	ori	t4,t4,0x2f88
    7cf4:	3c0d70e0 	lui	t5,0x70e0
    7cf8:	35adf0c8 	ori	t5,t5,0xf0c8
    7cfc:	24100000 	li	s0,0
    7d00:	10000012 	b	7d4c <n36_bgezal_test+0x7d4c>
    7d04:	24120000 	li	s2,0
    7d08:	00000000 	nop
    7d0c:	3c1016af 	lui	s0,0x16af
    7d10:	36102f88 	ori	s0,s0,0x2f88
    7d14:	05110023 	bgezal	t0,7da4 <n36_bgezal_test+0x7da4>
    7d18:	00000000 	nop
    7d1c:	10000023 	b	7dac <n36_bgezal_test+0x7dac>
    7d20:	00000000 	nop
    7d24:	00000000 	nop
    7d28:	00000021 	move	zero,zero
    7d2c:	00000021 	move	zero,zero
    7d30:	00000021 	move	zero,zero
    7d34:	00000021 	move	zero,zero
    7d38:	00000021 	move	zero,zero
    7d3c:	00000021 	move	zero,zero
    7d40:	00000021 	move	zero,zero
    7d44:	00000021 	move	zero,zero
    7d48:	00000021 	move	zero,zero
    7d4c:	3c083eea 	lui	t0,0x3eea
    7d50:	35080f88 	ori	t0,t0,0xf88
    7d54:	0511ffed 	bgezal	t0,7d0c <n36_bgezal_test+0x7d0c>
    7d58:	00000000 	nop
    7d5c:	10000013 	b	7dac <n36_bgezal_test+0x7dac>
    7d60:	00000000 	nop
    7d64:	00000000 	nop
    7d68:	00000021 	move	zero,zero
    7d6c:	00000021 	move	zero,zero
    7d70:	00000021 	move	zero,zero
    7d74:	00000021 	move	zero,zero
    7d78:	00000021 	move	zero,zero
    7d7c:	00000021 	move	zero,zero
    7d80:	00000021 	move	zero,zero
    7d84:	00000021 	move	zero,zero
    7d88:	00000021 	move	zero,zero
    7d8c:	00000021 	move	zero,zero
    7d90:	00000021 	move	zero,zero
    7d94:	00000021 	move	zero,zero
    7d98:	00000021 	move	zero,zero
    7d9c:	00000021 	move	zero,zero
    7da0:	00000021 	move	zero,zero
    7da4:	3c1270e0 	lui	s2,0x70e0
    7da8:	3652f0c8 	ori	s2,s2,0xf0c8
    7dac:	001fa021 	addu	s4,zero,ra
    7db0:	0015f821 	addu	ra,zero,s5
    7db4:	3c150000 	lui	s5,0x0
    7db8:	26b57d14 	addiu	s5,s5,32020
    7dbc:	3c160000 	lui	s6,0x0
    7dc0:	26d67d54 	addiu	s6,s6,32084
    7dc4:	3c1816af 	lui	t8,0x16af
    7dc8:	37182f88 	ori	t8,t8,0x2f88
    7dcc:	16182804 	bne	s0,t8,11de0 <inst_error>
    7dd0:	00000000 	nop
    7dd4:	00000000 	nop
    7dd8:	3c1870e0 	lui	t8,0x70e0
    7ddc:	3718f0c8 	ori	t8,t8,0xf0c8
    7de0:	165827ff 	bne	s2,t8,11de0 <inst_error>
    7de4:	00000000 	nop
    7de8:	00000000 	nop
    7dec:	3c19bfc0 	lui	t9,0xbfc0
    7df0:	37394484 	ori	t9,t9,0x4484
    7df4:	3c18bfc0 	lui	t8,0xbfc0
    7df8:	3718447c 	ori	t8,t8,0x447c
    7dfc:	27180008 	addiu	t8,t8,8
    7e00:	1319000a 	beq	t8,t9,7e2c <n36_bgezal_test+0x7e2c>
    7e04:	00000000 	nop
    7e08:	00000000 	nop
    7e0c:	3c18bfc0 	lui	t8,0xbfc0
    7e10:	371844b4 	ori	t8,t8,0x44b4
    7e14:	27180008 	addiu	t8,t8,8
    7e18:	1319000a 	beq	t8,t9,7e44 <n36_bgezal_test+0x7e44>
    7e1c:	00000000 	nop
    7e20:	100027ef 	b	11de0 <inst_error>
    7e24:	00000000 	nop
    7e28:	00000000 	nop
    7e2c:	26b50008 	addiu	s5,s5,8
    7e30:	169527eb 	bne	s4,s5,11de0 <inst_error>
    7e34:	00000000 	nop
    7e38:	10000006 	b	7e54 <n36_bgezal_test+0x7e54>
    7e3c:	00000000 	nop
    7e40:	00000000 	nop
    7e44:	26d60008 	addiu	s6,s6,8
    7e48:	169627e5 	bne	s4,s6,11de0 <inst_error>
    7e4c:	00000000 	nop
	...
    7e58:	001fa821 	addu	s5,zero,ra
    7e5c:	3c0c7419 	lui	t4,0x7419
    7e60:	358ce600 	ori	t4,t4,0xe600
    7e64:	3c0d857e 	lui	t5,0x857e
    7e68:	35adde78 	ori	t5,t5,0xde78
    7e6c:	24100000 	li	s0,0
    7e70:	10000012 	b	7ebc <n36_bgezal_test+0x7ebc>
    7e74:	24120000 	li	s2,0
    7e78:	00000000 	nop
    7e7c:	3c107419 	lui	s0,0x7419
    7e80:	3610e600 	ori	s0,s0,0xe600
    7e84:	05110023 	bgezal	t0,7f14 <n36_bgezal_test+0x7f14>
    7e88:	00000000 	nop
    7e8c:	10000023 	b	7f1c <n36_bgezal_test+0x7f1c>
    7e90:	00000000 	nop
    7e94:	00000000 	nop
    7e98:	00000021 	move	zero,zero
    7e9c:	00000021 	move	zero,zero
    7ea0:	00000021 	move	zero,zero
    7ea4:	00000021 	move	zero,zero
    7ea8:	00000021 	move	zero,zero
    7eac:	00000021 	move	zero,zero
    7eb0:	00000021 	move	zero,zero
    7eb4:	00000021 	move	zero,zero
    7eb8:	00000021 	move	zero,zero
    7ebc:	3c080053 	lui	t0,0x53
    7ec0:	35089980 	ori	t0,t0,0x9980
    7ec4:	0511ffed 	bgezal	t0,7e7c <n36_bgezal_test+0x7e7c>
    7ec8:	00000000 	nop
    7ecc:	10000013 	b	7f1c <n36_bgezal_test+0x7f1c>
    7ed0:	00000000 	nop
    7ed4:	00000000 	nop
    7ed8:	00000021 	move	zero,zero
    7edc:	00000021 	move	zero,zero
    7ee0:	00000021 	move	zero,zero
    7ee4:	00000021 	move	zero,zero
    7ee8:	00000021 	move	zero,zero
    7eec:	00000021 	move	zero,zero
    7ef0:	00000021 	move	zero,zero
    7ef4:	00000021 	move	zero,zero
    7ef8:	00000021 	move	zero,zero
    7efc:	00000021 	move	zero,zero
    7f00:	00000021 	move	zero,zero
    7f04:	00000021 	move	zero,zero
    7f08:	00000021 	move	zero,zero
    7f0c:	00000021 	move	zero,zero
    7f10:	00000021 	move	zero,zero
    7f14:	3c12857e 	lui	s2,0x857e
    7f18:	3652de78 	ori	s2,s2,0xde78
    7f1c:	001fa021 	addu	s4,zero,ra
    7f20:	0015f821 	addu	ra,zero,s5
    7f24:	3c150000 	lui	s5,0x0
    7f28:	26b57e84 	addiu	s5,s5,32388
    7f2c:	3c160000 	lui	s6,0x0
    7f30:	26d67ec4 	addiu	s6,s6,32452
    7f34:	3c187419 	lui	t8,0x7419
    7f38:	3718e600 	ori	t8,t8,0xe600
    7f3c:	161827a8 	bne	s0,t8,11de0 <inst_error>
    7f40:	00000000 	nop
    7f44:	00000000 	nop
    7f48:	3c18857e 	lui	t8,0x857e
    7f4c:	3718de78 	ori	t8,t8,0xde78
    7f50:	165827a3 	bne	s2,t8,11de0 <inst_error>
    7f54:	00000000 	nop
    7f58:	00000000 	nop
    7f5c:	3c19bfc0 	lui	t9,0xbfc0
    7f60:	37394540 	ori	t9,t9,0x4540
    7f64:	3c18bfc0 	lui	t8,0xbfc0
    7f68:	37184538 	ori	t8,t8,0x4538
    7f6c:	27180008 	addiu	t8,t8,8
    7f70:	1319000a 	beq	t8,t9,7f9c <n36_bgezal_test+0x7f9c>
    7f74:	00000000 	nop
    7f78:	00000000 	nop
    7f7c:	3c18bfc0 	lui	t8,0xbfc0
    7f80:	37184570 	ori	t8,t8,0x4570
    7f84:	27180008 	addiu	t8,t8,8
    7f88:	1319000a 	beq	t8,t9,7fb4 <n36_bgezal_test+0x7fb4>
    7f8c:	00000000 	nop
    7f90:	10002793 	b	11de0 <inst_error>
    7f94:	00000000 	nop
    7f98:	00000000 	nop
    7f9c:	26b50008 	addiu	s5,s5,8
    7fa0:	1695278f 	bne	s4,s5,11de0 <inst_error>
    7fa4:	00000000 	nop
    7fa8:	10000006 	b	7fc4 <n36_bgezal_test+0x7fc4>
    7fac:	00000000 	nop
    7fb0:	00000000 	nop
    7fb4:	26d60008 	addiu	s6,s6,8
    7fb8:	16962789 	bne	s4,s6,11de0 <inst_error>
    7fbc:	00000000 	nop
	...
    7fc8:	001fa821 	addu	s5,zero,ra
    7fcc:	3c0c7f8d 	lui	t4,0x7f8d
    7fd0:	358c4c60 	ori	t4,t4,0x4c60
    7fd4:	3c0d35ba 	lui	t5,0x35ba
    7fd8:	35adf096 	ori	t5,t5,0xf096
    7fdc:	24100000 	li	s0,0
    7fe0:	10000012 	b	802c <n36_bgezal_test+0x802c>
    7fe4:	24120000 	li	s2,0
    7fe8:	00000000 	nop
    7fec:	3c107f8d 	lui	s0,0x7f8d
    7ff0:	36104c60 	ori	s0,s0,0x4c60
    7ff4:	05110023 	bgezal	t0,8084 <n36_bgezal_test+0x8084>
    7ff8:	00000000 	nop
    7ffc:	10000023 	b	808c <n36_bgezal_test+0x808c>
    8000:	00000000 	nop
    8004:	00000000 	nop
    8008:	00000021 	move	zero,zero
    800c:	00000021 	move	zero,zero
    8010:	00000021 	move	zero,zero
    8014:	00000021 	move	zero,zero
    8018:	00000021 	move	zero,zero
    801c:	00000021 	move	zero,zero
    8020:	00000021 	move	zero,zero
    8024:	00000021 	move	zero,zero
    8028:	00000021 	move	zero,zero
    802c:	3c081275 	lui	t0,0x1275
    8030:	35085708 	ori	t0,t0,0x5708
    8034:	0511ffed 	bgezal	t0,7fec <n36_bgezal_test+0x7fec>
    8038:	00000000 	nop
    803c:	10000013 	b	808c <n36_bgezal_test+0x808c>
    8040:	00000000 	nop
    8044:	00000000 	nop
    8048:	00000021 	move	zero,zero
    804c:	00000021 	move	zero,zero
    8050:	00000021 	move	zero,zero
    8054:	00000021 	move	zero,zero
    8058:	00000021 	move	zero,zero
    805c:	00000021 	move	zero,zero
    8060:	00000021 	move	zero,zero
    8064:	00000021 	move	zero,zero
    8068:	00000021 	move	zero,zero
    806c:	00000021 	move	zero,zero
    8070:	00000021 	move	zero,zero
    8074:	00000021 	move	zero,zero
    8078:	00000021 	move	zero,zero
    807c:	00000021 	move	zero,zero
    8080:	00000021 	move	zero,zero
    8084:	3c1235ba 	lui	s2,0x35ba
    8088:	3652f096 	ori	s2,s2,0xf096
    808c:	001fa021 	addu	s4,zero,ra
    8090:	0015f821 	addu	ra,zero,s5
    8094:	3c150000 	lui	s5,0x0
    8098:	26b57ff4 	addiu	s5,s5,32756
    809c:	3c160001 	lui	s6,0x1
    80a0:	26d68034 	addiu	s6,s6,-32716
    80a4:	3c187f8d 	lui	t8,0x7f8d
    80a8:	37184c60 	ori	t8,t8,0x4c60
    80ac:	1618274c 	bne	s0,t8,11de0 <inst_error>
    80b0:	00000000 	nop
    80b4:	00000000 	nop
    80b8:	3c1835ba 	lui	t8,0x35ba
    80bc:	3718f096 	ori	t8,t8,0xf096
    80c0:	16582747 	bne	s2,t8,11de0 <inst_error>
    80c4:	00000000 	nop
    80c8:	00000000 	nop
    80cc:	3c19bfc0 	lui	t9,0xbfc0
    80d0:	373945fc 	ori	t9,t9,0x45fc
    80d4:	3c18bfc0 	lui	t8,0xbfc0
    80d8:	371845f4 	ori	t8,t8,0x45f4
    80dc:	27180008 	addiu	t8,t8,8
    80e0:	1319000a 	beq	t8,t9,810c <n36_bgezal_test+0x810c>
    80e4:	00000000 	nop
    80e8:	00000000 	nop
    80ec:	3c18bfc0 	lui	t8,0xbfc0
    80f0:	3718462c 	ori	t8,t8,0x462c
    80f4:	27180008 	addiu	t8,t8,8
    80f8:	1319000a 	beq	t8,t9,8124 <n36_bgezal_test+0x8124>
    80fc:	00000000 	nop
    8100:	10002737 	b	11de0 <inst_error>
    8104:	00000000 	nop
    8108:	00000000 	nop
    810c:	26b50008 	addiu	s5,s5,8
    8110:	16952733 	bne	s4,s5,11de0 <inst_error>
    8114:	00000000 	nop
    8118:	10000006 	b	8134 <n36_bgezal_test+0x8134>
    811c:	00000000 	nop
    8120:	00000000 	nop
    8124:	26d60008 	addiu	s6,s6,8
    8128:	1696272d 	bne	s4,s6,11de0 <inst_error>
    812c:	00000000 	nop
	...
    8138:	001fa821 	addu	s5,zero,ra
    813c:	3c0ca0dc 	lui	t4,0xa0dc
    8140:	358c0850 	ori	t4,t4,0x850
    8144:	3c0d935b 	lui	t5,0x935b
    8148:	35ad76fc 	ori	t5,t5,0x76fc
    814c:	24100000 	li	s0,0
    8150:	10000012 	b	819c <n36_bgezal_test+0x819c>
    8154:	24120000 	li	s2,0
    8158:	00000000 	nop
    815c:	3c10a0dc 	lui	s0,0xa0dc
    8160:	36100850 	ori	s0,s0,0x850
    8164:	05110023 	bgezal	t0,81f4 <n36_bgezal_test+0x81f4>
    8168:	00000000 	nop
    816c:	10000023 	b	81fc <n36_bgezal_test+0x81fc>
    8170:	00000000 	nop
    8174:	00000000 	nop
    8178:	00000021 	move	zero,zero
    817c:	00000021 	move	zero,zero
    8180:	00000021 	move	zero,zero
    8184:	00000021 	move	zero,zero
    8188:	00000021 	move	zero,zero
    818c:	00000021 	move	zero,zero
    8190:	00000021 	move	zero,zero
    8194:	00000021 	move	zero,zero
    8198:	00000021 	move	zero,zero
    819c:	3c08a856 	lui	t0,0xa856
    81a0:	35086262 	ori	t0,t0,0x6262
    81a4:	0511ffed 	bgezal	t0,815c <n36_bgezal_test+0x815c>
    81a8:	00000000 	nop
    81ac:	10000013 	b	81fc <n36_bgezal_test+0x81fc>
    81b0:	00000000 	nop
    81b4:	00000000 	nop
    81b8:	00000021 	move	zero,zero
    81bc:	00000021 	move	zero,zero
    81c0:	00000021 	move	zero,zero
    81c4:	00000021 	move	zero,zero
    81c8:	00000021 	move	zero,zero
    81cc:	00000021 	move	zero,zero
    81d0:	00000021 	move	zero,zero
    81d4:	00000021 	move	zero,zero
    81d8:	00000021 	move	zero,zero
    81dc:	00000021 	move	zero,zero
    81e0:	00000021 	move	zero,zero
    81e4:	00000021 	move	zero,zero
    81e8:	00000021 	move	zero,zero
    81ec:	00000021 	move	zero,zero
    81f0:	00000021 	move	zero,zero
    81f4:	3c12935b 	lui	s2,0x935b
    81f8:	365276fc 	ori	s2,s2,0x76fc
    81fc:	001fa021 	addu	s4,zero,ra
    8200:	0015f821 	addu	ra,zero,s5
    8204:	3c150001 	lui	s5,0x1
    8208:	26b58164 	addiu	s5,s5,-32412
    820c:	3c160001 	lui	s6,0x1
    8210:	26d681a4 	addiu	s6,s6,-32348
    8214:	24180000 	li	t8,0
    8218:	161826f1 	bne	s0,t8,11de0 <inst_error>
    821c:	00000000 	nop
    8220:	00000000 	nop
    8224:	24180000 	li	t8,0
    8228:	165826ed 	bne	s2,t8,11de0 <inst_error>
    822c:	00000000 	nop
    8230:	00000000 	nop
    8234:	3c19bfc0 	lui	t9,0xbfc0
    8238:	373946f0 	ori	t9,t9,0x46f0
    823c:	3c18bfc0 	lui	t8,0xbfc0
    8240:	371846b0 	ori	t8,t8,0x46b0
    8244:	27180008 	addiu	t8,t8,8
    8248:	1319000a 	beq	t8,t9,8274 <n36_bgezal_test+0x8274>
    824c:	00000000 	nop
    8250:	00000000 	nop
    8254:	3c18bfc0 	lui	t8,0xbfc0
    8258:	371846e8 	ori	t8,t8,0x46e8
    825c:	27180008 	addiu	t8,t8,8
    8260:	1319000a 	beq	t8,t9,828c <n36_bgezal_test+0x828c>
    8264:	00000000 	nop
    8268:	100026dd 	b	11de0 <inst_error>
    826c:	00000000 	nop
    8270:	00000000 	nop
    8274:	26b50008 	addiu	s5,s5,8
    8278:	169526d9 	bne	s4,s5,11de0 <inst_error>
    827c:	00000000 	nop
    8280:	10000006 	b	829c <n36_bgezal_test+0x829c>
    8284:	00000000 	nop
    8288:	00000000 	nop
    828c:	26d60008 	addiu	s6,s6,8
    8290:	169626d3 	bne	s4,s6,11de0 <inst_error>
    8294:	00000000 	nop
	...
    82a0:	001fa821 	addu	s5,zero,ra
    82a4:	3c0c3bab 	lui	t4,0x3bab
    82a8:	358cfa88 	ori	t4,t4,0xfa88
    82ac:	3c0d8c74 	lui	t5,0x8c74
    82b0:	35ad4b40 	ori	t5,t5,0x4b40
    82b4:	24100000 	li	s0,0
    82b8:	10000012 	b	8304 <n36_bgezal_test+0x8304>
    82bc:	24120000 	li	s2,0
    82c0:	00000000 	nop
    82c4:	3c103bab 	lui	s0,0x3bab
    82c8:	3610fa88 	ori	s0,s0,0xfa88
    82cc:	05110023 	bgezal	t0,835c <n36_bgezal_test+0x835c>
    82d0:	00000000 	nop
    82d4:	10000023 	b	8364 <n36_bgezal_test+0x8364>
    82d8:	00000000 	nop
    82dc:	00000000 	nop
    82e0:	00000021 	move	zero,zero
    82e4:	00000021 	move	zero,zero
    82e8:	00000021 	move	zero,zero
    82ec:	00000021 	move	zero,zero
    82f0:	00000021 	move	zero,zero
    82f4:	00000021 	move	zero,zero
    82f8:	00000021 	move	zero,zero
    82fc:	00000021 	move	zero,zero
    8300:	00000021 	move	zero,zero
    8304:	3c084312 	lui	t0,0x4312
    8308:	3508482c 	ori	t0,t0,0x482c
    830c:	0511ffed 	bgezal	t0,82c4 <n36_bgezal_test+0x82c4>
    8310:	00000000 	nop
    8314:	10000013 	b	8364 <n36_bgezal_test+0x8364>
    8318:	00000000 	nop
    831c:	00000000 	nop
    8320:	00000021 	move	zero,zero
    8324:	00000021 	move	zero,zero
    8328:	00000021 	move	zero,zero
    832c:	00000021 	move	zero,zero
    8330:	00000021 	move	zero,zero
    8334:	00000021 	move	zero,zero
    8338:	00000021 	move	zero,zero
    833c:	00000021 	move	zero,zero
    8340:	00000021 	move	zero,zero
    8344:	00000021 	move	zero,zero
    8348:	00000021 	move	zero,zero
    834c:	00000021 	move	zero,zero
    8350:	00000021 	move	zero,zero
    8354:	00000021 	move	zero,zero
    8358:	00000021 	move	zero,zero
    835c:	3c128c74 	lui	s2,0x8c74
    8360:	36524b40 	ori	s2,s2,0x4b40
    8364:	001fa021 	addu	s4,zero,ra
    8368:	0015f821 	addu	ra,zero,s5
    836c:	3c150001 	lui	s5,0x1
    8370:	26b582cc 	addiu	s5,s5,-32052
    8374:	3c160001 	lui	s6,0x1
    8378:	26d6830c 	addiu	s6,s6,-31988
    837c:	3c183bab 	lui	t8,0x3bab
    8380:	3718fa88 	ori	t8,t8,0xfa88
    8384:	16182696 	bne	s0,t8,11de0 <inst_error>
    8388:	00000000 	nop
    838c:	00000000 	nop
    8390:	3c188c74 	lui	t8,0x8c74
    8394:	37184b40 	ori	t8,t8,0x4b40
    8398:	16582691 	bne	s2,t8,11de0 <inst_error>
    839c:	00000000 	nop
    83a0:	00000000 	nop
    83a4:	3c19bfc0 	lui	t9,0xbfc0
    83a8:	37394774 	ori	t9,t9,0x4774
    83ac:	3c18bfc0 	lui	t8,0xbfc0
    83b0:	3718476c 	ori	t8,t8,0x476c
    83b4:	27180008 	addiu	t8,t8,8
    83b8:	1319000a 	beq	t8,t9,83e4 <n36_bgezal_test+0x83e4>
    83bc:	00000000 	nop
    83c0:	00000000 	nop
    83c4:	3c18bfc0 	lui	t8,0xbfc0
    83c8:	371847a4 	ori	t8,t8,0x47a4
    83cc:	27180008 	addiu	t8,t8,8
    83d0:	1319000a 	beq	t8,t9,83fc <n36_bgezal_test+0x83fc>
    83d4:	00000000 	nop
    83d8:	10002681 	b	11de0 <inst_error>
    83dc:	00000000 	nop
    83e0:	00000000 	nop
    83e4:	26b50008 	addiu	s5,s5,8
    83e8:	1695267d 	bne	s4,s5,11de0 <inst_error>
    83ec:	00000000 	nop
    83f0:	10000006 	b	840c <n36_bgezal_test+0x840c>
    83f4:	00000000 	nop
    83f8:	00000000 	nop
    83fc:	26d60008 	addiu	s6,s6,8
    8400:	16962677 	bne	s4,s6,11de0 <inst_error>
    8404:	00000000 	nop
	...
    8410:	001fa821 	addu	s5,zero,ra
    8414:	3c0c3702 	lui	t4,0x3702
    8418:	358c5294 	ori	t4,t4,0x5294
    841c:	3c0d2442 	lui	t5,0x2442
    8420:	35addc78 	ori	t5,t5,0xdc78
    8424:	24100000 	li	s0,0
    8428:	10000012 	b	8474 <n36_bgezal_test+0x8474>
    842c:	24120000 	li	s2,0
    8430:	00000000 	nop
    8434:	3c103702 	lui	s0,0x3702
    8438:	36105294 	ori	s0,s0,0x5294
    843c:	05110023 	bgezal	t0,84cc <n36_bgezal_test+0x84cc>
    8440:	00000000 	nop
    8444:	10000023 	b	84d4 <n36_bgezal_test+0x84d4>
    8448:	00000000 	nop
    844c:	00000000 	nop
    8450:	00000021 	move	zero,zero
    8454:	00000021 	move	zero,zero
    8458:	00000021 	move	zero,zero
    845c:	00000021 	move	zero,zero
    8460:	00000021 	move	zero,zero
    8464:	00000021 	move	zero,zero
    8468:	00000021 	move	zero,zero
    846c:	00000021 	move	zero,zero
    8470:	00000021 	move	zero,zero
    8474:	3c087258 	lui	t0,0x7258
    8478:	3508b698 	ori	t0,t0,0xb698
    847c:	0511ffed 	bgezal	t0,8434 <n36_bgezal_test+0x8434>
    8480:	00000000 	nop
    8484:	10000013 	b	84d4 <n36_bgezal_test+0x84d4>
    8488:	00000000 	nop
    848c:	00000000 	nop
    8490:	00000021 	move	zero,zero
    8494:	00000021 	move	zero,zero
    8498:	00000021 	move	zero,zero
    849c:	00000021 	move	zero,zero
    84a0:	00000021 	move	zero,zero
    84a4:	00000021 	move	zero,zero
    84a8:	00000021 	move	zero,zero
    84ac:	00000021 	move	zero,zero
    84b0:	00000021 	move	zero,zero
    84b4:	00000021 	move	zero,zero
    84b8:	00000021 	move	zero,zero
    84bc:	00000021 	move	zero,zero
    84c0:	00000021 	move	zero,zero
    84c4:	00000021 	move	zero,zero
    84c8:	00000021 	move	zero,zero
    84cc:	3c122442 	lui	s2,0x2442
    84d0:	3652dc78 	ori	s2,s2,0xdc78
    84d4:	001fa021 	addu	s4,zero,ra
    84d8:	0015f821 	addu	ra,zero,s5
    84dc:	3c150001 	lui	s5,0x1
    84e0:	26b5843c 	addiu	s5,s5,-31684
    84e4:	3c160001 	lui	s6,0x1
    84e8:	26d6847c 	addiu	s6,s6,-31620
    84ec:	3c183702 	lui	t8,0x3702
    84f0:	37185294 	ori	t8,t8,0x5294
    84f4:	1618263a 	bne	s0,t8,11de0 <inst_error>
    84f8:	00000000 	nop
    84fc:	00000000 	nop
    8500:	3c182442 	lui	t8,0x2442
    8504:	3718dc78 	ori	t8,t8,0xdc78
    8508:	16582635 	bne	s2,t8,11de0 <inst_error>
    850c:	00000000 	nop
    8510:	00000000 	nop
    8514:	3c19bfc0 	lui	t9,0xbfc0
    8518:	37394830 	ori	t9,t9,0x4830
    851c:	3c18bfc0 	lui	t8,0xbfc0
    8520:	37184828 	ori	t8,t8,0x4828
    8524:	27180008 	addiu	t8,t8,8
    8528:	1319000a 	beq	t8,t9,8554 <n36_bgezal_test+0x8554>
    852c:	00000000 	nop
    8530:	00000000 	nop
    8534:	3c18bfc0 	lui	t8,0xbfc0
    8538:	37184860 	ori	t8,t8,0x4860
    853c:	27180008 	addiu	t8,t8,8
    8540:	1319000a 	beq	t8,t9,856c <n36_bgezal_test+0x856c>
    8544:	00000000 	nop
    8548:	10002625 	b	11de0 <inst_error>
    854c:	00000000 	nop
    8550:	00000000 	nop
    8554:	26b50008 	addiu	s5,s5,8
    8558:	16952621 	bne	s4,s5,11de0 <inst_error>
    855c:	00000000 	nop
    8560:	10000006 	b	857c <n36_bgezal_test+0x857c>
    8564:	00000000 	nop
    8568:	00000000 	nop
    856c:	26d60008 	addiu	s6,s6,8
    8570:	1696261b 	bne	s4,s6,11de0 <inst_error>
    8574:	00000000 	nop
	...
    8580:	001fa821 	addu	s5,zero,ra
    8584:	3c0ca7ed 	lui	t4,0xa7ed
    8588:	358cf5bc 	ori	t4,t4,0xf5bc
    858c:	3c0df05e 	lui	t5,0xf05e
    8590:	35adbc8a 	ori	t5,t5,0xbc8a
    8594:	24100000 	li	s0,0
    8598:	10000012 	b	85e4 <n36_bgezal_test+0x85e4>
    859c:	24120000 	li	s2,0
    85a0:	00000000 	nop
    85a4:	3c10a7ed 	lui	s0,0xa7ed
    85a8:	3610f5bc 	ori	s0,s0,0xf5bc
    85ac:	05110023 	bgezal	t0,863c <n36_bgezal_test+0x863c>
    85b0:	00000000 	nop
    85b4:	10000023 	b	8644 <n36_bgezal_test+0x8644>
    85b8:	00000000 	nop
    85bc:	00000000 	nop
    85c0:	00000021 	move	zero,zero
    85c4:	00000021 	move	zero,zero
    85c8:	00000021 	move	zero,zero
    85cc:	00000021 	move	zero,zero
    85d0:	00000021 	move	zero,zero
    85d4:	00000021 	move	zero,zero
    85d8:	00000021 	move	zero,zero
    85dc:	00000021 	move	zero,zero
    85e0:	00000021 	move	zero,zero
    85e4:	3c08c811 	lui	t0,0xc811
    85e8:	35082dce 	ori	t0,t0,0x2dce
    85ec:	0511ffed 	bgezal	t0,85a4 <n36_bgezal_test+0x85a4>
    85f0:	00000000 	nop
    85f4:	10000013 	b	8644 <n36_bgezal_test+0x8644>
    85f8:	00000000 	nop
    85fc:	00000000 	nop
    8600:	00000021 	move	zero,zero
    8604:	00000021 	move	zero,zero
    8608:	00000021 	move	zero,zero
    860c:	00000021 	move	zero,zero
    8610:	00000021 	move	zero,zero
    8614:	00000021 	move	zero,zero
    8618:	00000021 	move	zero,zero
    861c:	00000021 	move	zero,zero
    8620:	00000021 	move	zero,zero
    8624:	00000021 	move	zero,zero
    8628:	00000021 	move	zero,zero
    862c:	00000021 	move	zero,zero
    8630:	00000021 	move	zero,zero
    8634:	00000021 	move	zero,zero
    8638:	00000021 	move	zero,zero
    863c:	3c12f05e 	lui	s2,0xf05e
    8640:	3652bc8a 	ori	s2,s2,0xbc8a
    8644:	001fa021 	addu	s4,zero,ra
    8648:	0015f821 	addu	ra,zero,s5
    864c:	3c150001 	lui	s5,0x1
    8650:	26b585ac 	addiu	s5,s5,-31316
    8654:	3c160001 	lui	s6,0x1
    8658:	26d685ec 	addiu	s6,s6,-31252
    865c:	24180000 	li	t8,0
    8660:	161825df 	bne	s0,t8,11de0 <inst_error>
    8664:	00000000 	nop
    8668:	00000000 	nop
    866c:	24180000 	li	t8,0
    8670:	165825db 	bne	s2,t8,11de0 <inst_error>
    8674:	00000000 	nop
    8678:	00000000 	nop
    867c:	3c19bfc0 	lui	t9,0xbfc0
    8680:	37394924 	ori	t9,t9,0x4924
    8684:	3c18bfc0 	lui	t8,0xbfc0
    8688:	371848e4 	ori	t8,t8,0x48e4
    868c:	27180008 	addiu	t8,t8,8
    8690:	1319000a 	beq	t8,t9,86bc <n36_bgezal_test+0x86bc>
    8694:	00000000 	nop
    8698:	00000000 	nop
    869c:	3c18bfc0 	lui	t8,0xbfc0
    86a0:	3718491c 	ori	t8,t8,0x491c
    86a4:	27180008 	addiu	t8,t8,8
    86a8:	1319000a 	beq	t8,t9,86d4 <n36_bgezal_test+0x86d4>
    86ac:	00000000 	nop
    86b0:	100025cb 	b	11de0 <inst_error>
    86b4:	00000000 	nop
    86b8:	00000000 	nop
    86bc:	26b50008 	addiu	s5,s5,8
    86c0:	169525c7 	bne	s4,s5,11de0 <inst_error>
    86c4:	00000000 	nop
    86c8:	10000006 	b	86e4 <n36_bgezal_test+0x86e4>
    86cc:	00000000 	nop
    86d0:	00000000 	nop
    86d4:	26d60008 	addiu	s6,s6,8
    86d8:	169625c1 	bne	s4,s6,11de0 <inst_error>
    86dc:	00000000 	nop
	...
    86e8:	001fa821 	addu	s5,zero,ra
    86ec:	3c0c1a5e 	lui	t4,0x1a5e
    86f0:	358c8a78 	ori	t4,t4,0x8a78
    86f4:	3c0d8b96 	lui	t5,0x8b96
    86f8:	35aded40 	ori	t5,t5,0xed40
    86fc:	24100000 	li	s0,0
    8700:	10000012 	b	874c <n36_bgezal_test+0x874c>
    8704:	24120000 	li	s2,0
    8708:	00000000 	nop
    870c:	3c101a5e 	lui	s0,0x1a5e
    8710:	36108a78 	ori	s0,s0,0x8a78
    8714:	05110023 	bgezal	t0,87a4 <n36_bgezal_test+0x87a4>
    8718:	00000000 	nop
    871c:	10000023 	b	87ac <n36_bgezal_test+0x87ac>
    8720:	00000000 	nop
    8724:	00000000 	nop
    8728:	00000021 	move	zero,zero
    872c:	00000021 	move	zero,zero
    8730:	00000021 	move	zero,zero
    8734:	00000021 	move	zero,zero
    8738:	00000021 	move	zero,zero
    873c:	00000021 	move	zero,zero
    8740:	00000021 	move	zero,zero
    8744:	00000021 	move	zero,zero
    8748:	00000021 	move	zero,zero
    874c:	3c087682 	lui	t0,0x7682
    8750:	35085d9a 	ori	t0,t0,0x5d9a
    8754:	0511ffed 	bgezal	t0,870c <n36_bgezal_test+0x870c>
    8758:	00000000 	nop
    875c:	10000013 	b	87ac <n36_bgezal_test+0x87ac>
    8760:	00000000 	nop
    8764:	00000000 	nop
    8768:	00000021 	move	zero,zero
    876c:	00000021 	move	zero,zero
    8770:	00000021 	move	zero,zero
    8774:	00000021 	move	zero,zero
    8778:	00000021 	move	zero,zero
    877c:	00000021 	move	zero,zero
    8780:	00000021 	move	zero,zero
    8784:	00000021 	move	zero,zero
    8788:	00000021 	move	zero,zero
    878c:	00000021 	move	zero,zero
    8790:	00000021 	move	zero,zero
    8794:	00000021 	move	zero,zero
    8798:	00000021 	move	zero,zero
    879c:	00000021 	move	zero,zero
    87a0:	00000021 	move	zero,zero
    87a4:	3c128b96 	lui	s2,0x8b96
    87a8:	3652ed40 	ori	s2,s2,0xed40
    87ac:	001fa021 	addu	s4,zero,ra
    87b0:	0015f821 	addu	ra,zero,s5
    87b4:	3c150001 	lui	s5,0x1
    87b8:	26b58714 	addiu	s5,s5,-30956
    87bc:	3c160001 	lui	s6,0x1
    87c0:	26d68754 	addiu	s6,s6,-30892
    87c4:	3c181a5e 	lui	t8,0x1a5e
    87c8:	37188a78 	ori	t8,t8,0x8a78
    87cc:	16182584 	bne	s0,t8,11de0 <inst_error>
    87d0:	00000000 	nop
    87d4:	00000000 	nop
    87d8:	3c188b96 	lui	t8,0x8b96
    87dc:	3718ed40 	ori	t8,t8,0xed40
    87e0:	1658257f 	bne	s2,t8,11de0 <inst_error>
    87e4:	00000000 	nop
    87e8:	00000000 	nop
    87ec:	3c19bfc0 	lui	t9,0xbfc0
    87f0:	373949a8 	ori	t9,t9,0x49a8
    87f4:	3c18bfc0 	lui	t8,0xbfc0
    87f8:	371849a0 	ori	t8,t8,0x49a0
    87fc:	27180008 	addiu	t8,t8,8
    8800:	1319000a 	beq	t8,t9,882c <n36_bgezal_test+0x882c>
    8804:	00000000 	nop
    8808:	00000000 	nop
    880c:	3c18bfc0 	lui	t8,0xbfc0
    8810:	371849d8 	ori	t8,t8,0x49d8
    8814:	27180008 	addiu	t8,t8,8
    8818:	1319000a 	beq	t8,t9,8844 <n36_bgezal_test+0x8844>
    881c:	00000000 	nop
    8820:	1000256f 	b	11de0 <inst_error>
    8824:	00000000 	nop
    8828:	00000000 	nop
    882c:	26b50008 	addiu	s5,s5,8
    8830:	1695256b 	bne	s4,s5,11de0 <inst_error>
    8834:	00000000 	nop
    8838:	10000006 	b	8854 <n36_bgezal_test+0x8854>
    883c:	00000000 	nop
    8840:	00000000 	nop
    8844:	26d60008 	addiu	s6,s6,8
    8848:	16962565 	bne	s4,s6,11de0 <inst_error>
    884c:	00000000 	nop
	...
    8858:	001fa821 	addu	s5,zero,ra
    885c:	3c0c3786 	lui	t4,0x3786
    8860:	358ce87b 	ori	t4,t4,0xe87b
    8864:	3c0d33e1 	lui	t5,0x33e1
    8868:	35adad01 	ori	t5,t5,0xad01
    886c:	24100000 	li	s0,0
    8870:	10000012 	b	88bc <n36_bgezal_test+0x88bc>
    8874:	24120000 	li	s2,0
    8878:	00000000 	nop
    887c:	3c103786 	lui	s0,0x3786
    8880:	3610e87b 	ori	s0,s0,0xe87b
    8884:	05110023 	bgezal	t0,8914 <n36_bgezal_test+0x8914>
    8888:	00000000 	nop
    888c:	10000023 	b	891c <n36_bgezal_test+0x891c>
    8890:	00000000 	nop
    8894:	00000000 	nop
    8898:	00000021 	move	zero,zero
    889c:	00000021 	move	zero,zero
    88a0:	00000021 	move	zero,zero
    88a4:	00000021 	move	zero,zero
    88a8:	00000021 	move	zero,zero
    88ac:	00000021 	move	zero,zero
    88b0:	00000021 	move	zero,zero
    88b4:	00000021 	move	zero,zero
    88b8:	00000021 	move	zero,zero
    88bc:	3c08d5ac 	lui	t0,0xd5ac
    88c0:	3508f404 	ori	t0,t0,0xf404
    88c4:	0511ffed 	bgezal	t0,887c <n36_bgezal_test+0x887c>
    88c8:	00000000 	nop
    88cc:	10000013 	b	891c <n36_bgezal_test+0x891c>
    88d0:	00000000 	nop
    88d4:	00000000 	nop
    88d8:	00000021 	move	zero,zero
    88dc:	00000021 	move	zero,zero
    88e0:	00000021 	move	zero,zero
    88e4:	00000021 	move	zero,zero
    88e8:	00000021 	move	zero,zero
    88ec:	00000021 	move	zero,zero
    88f0:	00000021 	move	zero,zero
    88f4:	00000021 	move	zero,zero
    88f8:	00000021 	move	zero,zero
    88fc:	00000021 	move	zero,zero
    8900:	00000021 	move	zero,zero
    8904:	00000021 	move	zero,zero
    8908:	00000021 	move	zero,zero
    890c:	00000021 	move	zero,zero
    8910:	00000021 	move	zero,zero
    8914:	3c1233e1 	lui	s2,0x33e1
    8918:	3652ad01 	ori	s2,s2,0xad01
    891c:	001fa021 	addu	s4,zero,ra
    8920:	0015f821 	addu	ra,zero,s5
    8924:	3c150001 	lui	s5,0x1
    8928:	26b58884 	addiu	s5,s5,-30588
    892c:	3c160001 	lui	s6,0x1
    8930:	26d688c4 	addiu	s6,s6,-30524
    8934:	24180000 	li	t8,0
    8938:	16182529 	bne	s0,t8,11de0 <inst_error>
    893c:	00000000 	nop
    8940:	00000000 	nop
    8944:	24180000 	li	t8,0
    8948:	16582525 	bne	s2,t8,11de0 <inst_error>
    894c:	00000000 	nop
    8950:	00000000 	nop
    8954:	3c19bfc0 	lui	t9,0xbfc0
    8958:	37394a9c 	ori	t9,t9,0x4a9c
    895c:	3c18bfc0 	lui	t8,0xbfc0
    8960:	37184a5c 	ori	t8,t8,0x4a5c
    8964:	27180008 	addiu	t8,t8,8
    8968:	1319000a 	beq	t8,t9,8994 <n36_bgezal_test+0x8994>
    896c:	00000000 	nop
    8970:	00000000 	nop
    8974:	3c18bfc0 	lui	t8,0xbfc0
    8978:	37184a94 	ori	t8,t8,0x4a94
    897c:	27180008 	addiu	t8,t8,8
    8980:	1319000a 	beq	t8,t9,89ac <n36_bgezal_test+0x89ac>
    8984:	00000000 	nop
    8988:	10002515 	b	11de0 <inst_error>
    898c:	00000000 	nop
    8990:	00000000 	nop
    8994:	26b50008 	addiu	s5,s5,8
    8998:	16952511 	bne	s4,s5,11de0 <inst_error>
    899c:	00000000 	nop
    89a0:	10000006 	b	89bc <n36_bgezal_test+0x89bc>
    89a4:	00000000 	nop
    89a8:	00000000 	nop
    89ac:	26d60008 	addiu	s6,s6,8
    89b0:	1696250b 	bne	s4,s6,11de0 <inst_error>
    89b4:	00000000 	nop
	...
    89c0:	001fa821 	addu	s5,zero,ra
    89c4:	3c0c353a 	lui	t4,0x353a
    89c8:	358c658f 	ori	t4,t4,0x658f
    89cc:	3c0d3a78 	lui	t5,0x3a78
    89d0:	35ada716 	ori	t5,t5,0xa716
    89d4:	24100000 	li	s0,0
    89d8:	10000012 	b	8a24 <n36_bgezal_test+0x8a24>
    89dc:	24120000 	li	s2,0
    89e0:	00000000 	nop
    89e4:	3c10353a 	lui	s0,0x353a
    89e8:	3610658f 	ori	s0,s0,0x658f
    89ec:	05110023 	bgezal	t0,8a7c <n36_bgezal_test+0x8a7c>
    89f0:	00000000 	nop
    89f4:	10000023 	b	8a84 <n36_bgezal_test+0x8a84>
    89f8:	00000000 	nop
    89fc:	00000000 	nop
    8a00:	00000021 	move	zero,zero
    8a04:	00000021 	move	zero,zero
    8a08:	00000021 	move	zero,zero
    8a0c:	00000021 	move	zero,zero
    8a10:	00000021 	move	zero,zero
    8a14:	00000021 	move	zero,zero
    8a18:	00000021 	move	zero,zero
    8a1c:	00000021 	move	zero,zero
    8a20:	00000021 	move	zero,zero
    8a24:	3c082d68 	lui	t0,0x2d68
    8a28:	35084380 	ori	t0,t0,0x4380
    8a2c:	0511ffed 	bgezal	t0,89e4 <n36_bgezal_test+0x89e4>
    8a30:	00000000 	nop
    8a34:	10000013 	b	8a84 <n36_bgezal_test+0x8a84>
    8a38:	00000000 	nop
    8a3c:	00000000 	nop
    8a40:	00000021 	move	zero,zero
    8a44:	00000021 	move	zero,zero
    8a48:	00000021 	move	zero,zero
    8a4c:	00000021 	move	zero,zero
    8a50:	00000021 	move	zero,zero
    8a54:	00000021 	move	zero,zero
    8a58:	00000021 	move	zero,zero
    8a5c:	00000021 	move	zero,zero
    8a60:	00000021 	move	zero,zero
    8a64:	00000021 	move	zero,zero
    8a68:	00000021 	move	zero,zero
    8a6c:	00000021 	move	zero,zero
    8a70:	00000021 	move	zero,zero
    8a74:	00000021 	move	zero,zero
    8a78:	00000021 	move	zero,zero
    8a7c:	3c123a78 	lui	s2,0x3a78
    8a80:	3652a716 	ori	s2,s2,0xa716
    8a84:	001fa021 	addu	s4,zero,ra
    8a88:	0015f821 	addu	ra,zero,s5
    8a8c:	3c150001 	lui	s5,0x1
    8a90:	26b589ec 	addiu	s5,s5,-30228
    8a94:	3c160001 	lui	s6,0x1
    8a98:	26d68a2c 	addiu	s6,s6,-30164
    8a9c:	3c18353a 	lui	t8,0x353a
    8aa0:	3718658f 	ori	t8,t8,0x658f
    8aa4:	161824ce 	bne	s0,t8,11de0 <inst_error>
    8aa8:	00000000 	nop
    8aac:	00000000 	nop
    8ab0:	3c183a78 	lui	t8,0x3a78
    8ab4:	3718a716 	ori	t8,t8,0xa716
    8ab8:	165824c9 	bne	s2,t8,11de0 <inst_error>
    8abc:	00000000 	nop
    8ac0:	00000000 	nop
    8ac4:	3c19bfc0 	lui	t9,0xbfc0
    8ac8:	37394b20 	ori	t9,t9,0x4b20
    8acc:	3c18bfc0 	lui	t8,0xbfc0
    8ad0:	37184b18 	ori	t8,t8,0x4b18
    8ad4:	27180008 	addiu	t8,t8,8
    8ad8:	1319000a 	beq	t8,t9,8b04 <n36_bgezal_test+0x8b04>
    8adc:	00000000 	nop
    8ae0:	00000000 	nop
    8ae4:	3c18bfc0 	lui	t8,0xbfc0
    8ae8:	37184b50 	ori	t8,t8,0x4b50
    8aec:	27180008 	addiu	t8,t8,8
    8af0:	1319000a 	beq	t8,t9,8b1c <n36_bgezal_test+0x8b1c>
    8af4:	00000000 	nop
    8af8:	100024b9 	b	11de0 <inst_error>
    8afc:	00000000 	nop
    8b00:	00000000 	nop
    8b04:	26b50008 	addiu	s5,s5,8
    8b08:	169524b5 	bne	s4,s5,11de0 <inst_error>
    8b0c:	00000000 	nop
    8b10:	10000006 	b	8b2c <n36_bgezal_test+0x8b2c>
    8b14:	00000000 	nop
    8b18:	00000000 	nop
    8b1c:	26d60008 	addiu	s6,s6,8
    8b20:	169624af 	bne	s4,s6,11de0 <inst_error>
    8b24:	00000000 	nop
	...
    8b30:	001fa821 	addu	s5,zero,ra
    8b34:	3c0c4c07 	lui	t4,0x4c07
    8b38:	358caa70 	ori	t4,t4,0xaa70
    8b3c:	3c0d262d 	lui	t5,0x262d
    8b40:	35ad7a68 	ori	t5,t5,0x7a68
    8b44:	24100000 	li	s0,0
    8b48:	10000012 	b	8b94 <n36_bgezal_test+0x8b94>
    8b4c:	24120000 	li	s2,0
    8b50:	00000000 	nop
    8b54:	3c104c07 	lui	s0,0x4c07
    8b58:	3610aa70 	ori	s0,s0,0xaa70
    8b5c:	05110023 	bgezal	t0,8bec <n36_bgezal_test+0x8bec>
    8b60:	00000000 	nop
    8b64:	10000023 	b	8bf4 <n36_bgezal_test+0x8bf4>
    8b68:	00000000 	nop
    8b6c:	00000000 	nop
    8b70:	00000021 	move	zero,zero
    8b74:	00000021 	move	zero,zero
    8b78:	00000021 	move	zero,zero
    8b7c:	00000021 	move	zero,zero
    8b80:	00000021 	move	zero,zero
    8b84:	00000021 	move	zero,zero
    8b88:	00000021 	move	zero,zero
    8b8c:	00000021 	move	zero,zero
    8b90:	00000021 	move	zero,zero
    8b94:	3c086d24 	lui	t0,0x6d24
    8b98:	3508026c 	ori	t0,t0,0x26c
    8b9c:	0511ffed 	bgezal	t0,8b54 <n36_bgezal_test+0x8b54>
    8ba0:	00000000 	nop
    8ba4:	10000013 	b	8bf4 <n36_bgezal_test+0x8bf4>
    8ba8:	00000000 	nop
    8bac:	00000000 	nop
    8bb0:	00000021 	move	zero,zero
    8bb4:	00000021 	move	zero,zero
    8bb8:	00000021 	move	zero,zero
    8bbc:	00000021 	move	zero,zero
    8bc0:	00000021 	move	zero,zero
    8bc4:	00000021 	move	zero,zero
    8bc8:	00000021 	move	zero,zero
    8bcc:	00000021 	move	zero,zero
    8bd0:	00000021 	move	zero,zero
    8bd4:	00000021 	move	zero,zero
    8bd8:	00000021 	move	zero,zero
    8bdc:	00000021 	move	zero,zero
    8be0:	00000021 	move	zero,zero
    8be4:	00000021 	move	zero,zero
    8be8:	00000021 	move	zero,zero
    8bec:	3c12262d 	lui	s2,0x262d
    8bf0:	36527a68 	ori	s2,s2,0x7a68
    8bf4:	001fa021 	addu	s4,zero,ra
    8bf8:	0015f821 	addu	ra,zero,s5
    8bfc:	3c150001 	lui	s5,0x1
    8c00:	26b58b5c 	addiu	s5,s5,-29860
    8c04:	3c160001 	lui	s6,0x1
    8c08:	26d68b9c 	addiu	s6,s6,-29796
    8c0c:	3c184c07 	lui	t8,0x4c07
    8c10:	3718aa70 	ori	t8,t8,0xaa70
    8c14:	16182472 	bne	s0,t8,11de0 <inst_error>
    8c18:	00000000 	nop
    8c1c:	00000000 	nop
    8c20:	3c18262d 	lui	t8,0x262d
    8c24:	37187a68 	ori	t8,t8,0x7a68
    8c28:	1658246d 	bne	s2,t8,11de0 <inst_error>
    8c2c:	00000000 	nop
    8c30:	00000000 	nop
    8c34:	3c19bfc0 	lui	t9,0xbfc0
    8c38:	37394bdc 	ori	t9,t9,0x4bdc
    8c3c:	3c18bfc0 	lui	t8,0xbfc0
    8c40:	37184bd4 	ori	t8,t8,0x4bd4
    8c44:	27180008 	addiu	t8,t8,8
    8c48:	1319000a 	beq	t8,t9,8c74 <n36_bgezal_test+0x8c74>
    8c4c:	00000000 	nop
    8c50:	00000000 	nop
    8c54:	3c18bfc0 	lui	t8,0xbfc0
    8c58:	37184c0c 	ori	t8,t8,0x4c0c
    8c5c:	27180008 	addiu	t8,t8,8
    8c60:	1319000a 	beq	t8,t9,8c8c <n36_bgezal_test+0x8c8c>
    8c64:	00000000 	nop
    8c68:	1000245d 	b	11de0 <inst_error>
    8c6c:	00000000 	nop
    8c70:	00000000 	nop
    8c74:	26b50008 	addiu	s5,s5,8
    8c78:	16952459 	bne	s4,s5,11de0 <inst_error>
    8c7c:	00000000 	nop
    8c80:	10000006 	b	8c9c <n36_bgezal_test+0x8c9c>
    8c84:	00000000 	nop
    8c88:	00000000 	nop
    8c8c:	26d60008 	addiu	s6,s6,8
    8c90:	16962453 	bne	s4,s6,11de0 <inst_error>
    8c94:	00000000 	nop
	...
    8ca0:	001fa821 	addu	s5,zero,ra
    8ca4:	3c0cbb17 	lui	t4,0xbb17
    8ca8:	358c2b3f 	ori	t4,t4,0x2b3f
    8cac:	3c0d9506 	lui	t5,0x9506
    8cb0:	35adbf76 	ori	t5,t5,0xbf76
    8cb4:	24100000 	li	s0,0
    8cb8:	10000012 	b	8d04 <n36_bgezal_test+0x8d04>
    8cbc:	24120000 	li	s2,0
    8cc0:	00000000 	nop
    8cc4:	3c10bb17 	lui	s0,0xbb17
    8cc8:	36102b3f 	ori	s0,s0,0x2b3f
    8ccc:	05110023 	bgezal	t0,8d5c <n36_bgezal_test+0x8d5c>
    8cd0:	00000000 	nop
    8cd4:	10000023 	b	8d64 <n36_bgezal_test+0x8d64>
    8cd8:	00000000 	nop
    8cdc:	00000000 	nop
    8ce0:	00000021 	move	zero,zero
    8ce4:	00000021 	move	zero,zero
    8ce8:	00000021 	move	zero,zero
    8cec:	00000021 	move	zero,zero
    8cf0:	00000021 	move	zero,zero
    8cf4:	00000021 	move	zero,zero
    8cf8:	00000021 	move	zero,zero
    8cfc:	00000021 	move	zero,zero
    8d00:	00000021 	move	zero,zero
    8d04:	3c08e781 	lui	t0,0xe781
    8d08:	3508e987 	ori	t0,t0,0xe987
    8d0c:	0511ffed 	bgezal	t0,8cc4 <n36_bgezal_test+0x8cc4>
    8d10:	00000000 	nop
    8d14:	10000013 	b	8d64 <n36_bgezal_test+0x8d64>
    8d18:	00000000 	nop
    8d1c:	00000000 	nop
    8d20:	00000021 	move	zero,zero
    8d24:	00000021 	move	zero,zero
    8d28:	00000021 	move	zero,zero
    8d2c:	00000021 	move	zero,zero
    8d30:	00000021 	move	zero,zero
    8d34:	00000021 	move	zero,zero
    8d38:	00000021 	move	zero,zero
    8d3c:	00000021 	move	zero,zero
    8d40:	00000021 	move	zero,zero
    8d44:	00000021 	move	zero,zero
    8d48:	00000021 	move	zero,zero
    8d4c:	00000021 	move	zero,zero
    8d50:	00000021 	move	zero,zero
    8d54:	00000021 	move	zero,zero
    8d58:	00000021 	move	zero,zero
    8d5c:	3c129506 	lui	s2,0x9506
    8d60:	3652bf76 	ori	s2,s2,0xbf76
    8d64:	001fa021 	addu	s4,zero,ra
    8d68:	0015f821 	addu	ra,zero,s5
    8d6c:	3c150001 	lui	s5,0x1
    8d70:	26b58ccc 	addiu	s5,s5,-29492
    8d74:	3c160001 	lui	s6,0x1
    8d78:	26d68d0c 	addiu	s6,s6,-29428
    8d7c:	24180000 	li	t8,0
    8d80:	16182417 	bne	s0,t8,11de0 <inst_error>
    8d84:	00000000 	nop
    8d88:	00000000 	nop
    8d8c:	24180000 	li	t8,0
    8d90:	16582413 	bne	s2,t8,11de0 <inst_error>
    8d94:	00000000 	nop
    8d98:	00000000 	nop
    8d9c:	3c19bfc0 	lui	t9,0xbfc0
    8da0:	37394cd0 	ori	t9,t9,0x4cd0
    8da4:	3c18bfc0 	lui	t8,0xbfc0
    8da8:	37184c90 	ori	t8,t8,0x4c90
    8dac:	27180008 	addiu	t8,t8,8
    8db0:	1319000a 	beq	t8,t9,8ddc <n36_bgezal_test+0x8ddc>
    8db4:	00000000 	nop
    8db8:	00000000 	nop
    8dbc:	3c18bfc0 	lui	t8,0xbfc0
    8dc0:	37184cc8 	ori	t8,t8,0x4cc8
    8dc4:	27180008 	addiu	t8,t8,8
    8dc8:	1319000a 	beq	t8,t9,8df4 <n36_bgezal_test+0x8df4>
    8dcc:	00000000 	nop
    8dd0:	10002403 	b	11de0 <inst_error>
    8dd4:	00000000 	nop
    8dd8:	00000000 	nop
    8ddc:	26b50008 	addiu	s5,s5,8
    8de0:	169523ff 	bne	s4,s5,11de0 <inst_error>
    8de4:	00000000 	nop
    8de8:	10000006 	b	8e04 <n36_bgezal_test+0x8e04>
    8dec:	00000000 	nop
    8df0:	00000000 	nop
    8df4:	26d60008 	addiu	s6,s6,8
    8df8:	169623f9 	bne	s4,s6,11de0 <inst_error>
    8dfc:	00000000 	nop
	...
    8e08:	001fa821 	addu	s5,zero,ra
    8e0c:	3c0c95ea 	lui	t4,0x95ea
    8e10:	358ce311 	ori	t4,t4,0xe311
    8e14:	3c0d2a43 	lui	t5,0x2a43
    8e18:	35ad1460 	ori	t5,t5,0x1460
    8e1c:	24100000 	li	s0,0
    8e20:	10000012 	b	8e6c <n36_bgezal_test+0x8e6c>
    8e24:	24120000 	li	s2,0
    8e28:	00000000 	nop
    8e2c:	3c1095ea 	lui	s0,0x95ea
    8e30:	3610e311 	ori	s0,s0,0xe311
    8e34:	05110023 	bgezal	t0,8ec4 <n36_bgezal_test+0x8ec4>
    8e38:	00000000 	nop
    8e3c:	10000023 	b	8ecc <n36_bgezal_test+0x8ecc>
    8e40:	00000000 	nop
    8e44:	00000000 	nop
    8e48:	00000021 	move	zero,zero
    8e4c:	00000021 	move	zero,zero
    8e50:	00000021 	move	zero,zero
    8e54:	00000021 	move	zero,zero
    8e58:	00000021 	move	zero,zero
    8e5c:	00000021 	move	zero,zero
    8e60:	00000021 	move	zero,zero
    8e64:	00000021 	move	zero,zero
    8e68:	00000021 	move	zero,zero
    8e6c:	3c08849e 	lui	t0,0x849e
    8e70:	350887e0 	ori	t0,t0,0x87e0
    8e74:	0511ffed 	bgezal	t0,8e2c <n36_bgezal_test+0x8e2c>
    8e78:	00000000 	nop
    8e7c:	10000013 	b	8ecc <n36_bgezal_test+0x8ecc>
    8e80:	00000000 	nop
    8e84:	00000000 	nop
    8e88:	00000021 	move	zero,zero
    8e8c:	00000021 	move	zero,zero
    8e90:	00000021 	move	zero,zero
    8e94:	00000021 	move	zero,zero
    8e98:	00000021 	move	zero,zero
    8e9c:	00000021 	move	zero,zero
    8ea0:	00000021 	move	zero,zero
    8ea4:	00000021 	move	zero,zero
    8ea8:	00000021 	move	zero,zero
    8eac:	00000021 	move	zero,zero
    8eb0:	00000021 	move	zero,zero
    8eb4:	00000021 	move	zero,zero
    8eb8:	00000021 	move	zero,zero
    8ebc:	00000021 	move	zero,zero
    8ec0:	00000021 	move	zero,zero
    8ec4:	3c122a43 	lui	s2,0x2a43
    8ec8:	36521460 	ori	s2,s2,0x1460
    8ecc:	001fa021 	addu	s4,zero,ra
    8ed0:	0015f821 	addu	ra,zero,s5
    8ed4:	3c150001 	lui	s5,0x1
    8ed8:	26b58e34 	addiu	s5,s5,-29132
    8edc:	3c160001 	lui	s6,0x1
    8ee0:	26d68e74 	addiu	s6,s6,-29068
    8ee4:	24180000 	li	t8,0
    8ee8:	161823bd 	bne	s0,t8,11de0 <inst_error>
    8eec:	00000000 	nop
    8ef0:	00000000 	nop
    8ef4:	24180000 	li	t8,0
    8ef8:	165823b9 	bne	s2,t8,11de0 <inst_error>
    8efc:	00000000 	nop
    8f00:	00000000 	nop
    8f04:	3c19bfc0 	lui	t9,0xbfc0
    8f08:	37394d8c 	ori	t9,t9,0x4d8c
    8f0c:	3c18bfc0 	lui	t8,0xbfc0
    8f10:	37184d4c 	ori	t8,t8,0x4d4c
    8f14:	27180008 	addiu	t8,t8,8
    8f18:	1319000a 	beq	t8,t9,8f44 <n36_bgezal_test+0x8f44>
    8f1c:	00000000 	nop
    8f20:	00000000 	nop
    8f24:	3c18bfc0 	lui	t8,0xbfc0
    8f28:	37184d84 	ori	t8,t8,0x4d84
    8f2c:	27180008 	addiu	t8,t8,8
    8f30:	1319000a 	beq	t8,t9,8f5c <n36_bgezal_test+0x8f5c>
    8f34:	00000000 	nop
    8f38:	100023a9 	b	11de0 <inst_error>
    8f3c:	00000000 	nop
    8f40:	00000000 	nop
    8f44:	26b50008 	addiu	s5,s5,8
    8f48:	169523a5 	bne	s4,s5,11de0 <inst_error>
    8f4c:	00000000 	nop
    8f50:	10000006 	b	8f6c <n36_bgezal_test+0x8f6c>
    8f54:	00000000 	nop
    8f58:	00000000 	nop
    8f5c:	26d60008 	addiu	s6,s6,8
    8f60:	1696239f 	bne	s4,s6,11de0 <inst_error>
    8f64:	00000000 	nop
	...
    8f70:	001fa821 	addu	s5,zero,ra
    8f74:	3c0cb6cd 	lui	t4,0xb6cd
    8f78:	358c8f00 	ori	t4,t4,0x8f00
    8f7c:	3c0d599c 	lui	t5,0x599c
    8f80:	35ad33ac 	ori	t5,t5,0x33ac
    8f84:	24100000 	li	s0,0
    8f88:	10000012 	b	8fd4 <n36_bgezal_test+0x8fd4>
    8f8c:	24120000 	li	s2,0
    8f90:	00000000 	nop
    8f94:	3c10b6cd 	lui	s0,0xb6cd
    8f98:	36108f00 	ori	s0,s0,0x8f00
    8f9c:	05110023 	bgezal	t0,902c <n36_bgezal_test+0x902c>
    8fa0:	00000000 	nop
    8fa4:	10000023 	b	9034 <n36_bgezal_test+0x9034>
    8fa8:	00000000 	nop
    8fac:	00000000 	nop
    8fb0:	00000021 	move	zero,zero
    8fb4:	00000021 	move	zero,zero
    8fb8:	00000021 	move	zero,zero
    8fbc:	00000021 	move	zero,zero
    8fc0:	00000021 	move	zero,zero
    8fc4:	00000021 	move	zero,zero
    8fc8:	00000021 	move	zero,zero
    8fcc:	00000021 	move	zero,zero
    8fd0:	00000021 	move	zero,zero
    8fd4:	3c08b77b 	lui	t0,0xb77b
    8fd8:	35088830 	ori	t0,t0,0x8830
    8fdc:	0511ffed 	bgezal	t0,8f94 <n36_bgezal_test+0x8f94>
    8fe0:	00000000 	nop
    8fe4:	10000013 	b	9034 <n36_bgezal_test+0x9034>
    8fe8:	00000000 	nop
    8fec:	00000000 	nop
    8ff0:	00000021 	move	zero,zero
    8ff4:	00000021 	move	zero,zero
    8ff8:	00000021 	move	zero,zero
    8ffc:	00000021 	move	zero,zero
    9000:	00000021 	move	zero,zero
    9004:	00000021 	move	zero,zero
    9008:	00000021 	move	zero,zero
    900c:	00000021 	move	zero,zero
    9010:	00000021 	move	zero,zero
    9014:	00000021 	move	zero,zero
    9018:	00000021 	move	zero,zero
    901c:	00000021 	move	zero,zero
    9020:	00000021 	move	zero,zero
    9024:	00000021 	move	zero,zero
    9028:	00000021 	move	zero,zero
    902c:	3c12599c 	lui	s2,0x599c
    9030:	365233ac 	ori	s2,s2,0x33ac
    9034:	001fa021 	addu	s4,zero,ra
    9038:	0015f821 	addu	ra,zero,s5
    903c:	3c150001 	lui	s5,0x1
    9040:	26b58f9c 	addiu	s5,s5,-28772
    9044:	3c160001 	lui	s6,0x1
    9048:	26d68fdc 	addiu	s6,s6,-28708
    904c:	24180000 	li	t8,0
    9050:	16182363 	bne	s0,t8,11de0 <inst_error>
    9054:	00000000 	nop
    9058:	00000000 	nop
    905c:	24180000 	li	t8,0
    9060:	1658235f 	bne	s2,t8,11de0 <inst_error>
    9064:	00000000 	nop
    9068:	00000000 	nop
    906c:	3c19bfc0 	lui	t9,0xbfc0
    9070:	37394e48 	ori	t9,t9,0x4e48
    9074:	3c18bfc0 	lui	t8,0xbfc0
    9078:	37184e08 	ori	t8,t8,0x4e08
    907c:	27180008 	addiu	t8,t8,8
    9080:	1319000a 	beq	t8,t9,90ac <n36_bgezal_test+0x90ac>
    9084:	00000000 	nop
    9088:	00000000 	nop
    908c:	3c18bfc0 	lui	t8,0xbfc0
    9090:	37184e40 	ori	t8,t8,0x4e40
    9094:	27180008 	addiu	t8,t8,8
    9098:	1319000a 	beq	t8,t9,90c4 <n36_bgezal_test+0x90c4>
    909c:	00000000 	nop
    90a0:	1000234f 	b	11de0 <inst_error>
    90a4:	00000000 	nop
    90a8:	00000000 	nop
    90ac:	26b50008 	addiu	s5,s5,8
    90b0:	1695234b 	bne	s4,s5,11de0 <inst_error>
    90b4:	00000000 	nop
    90b8:	10000006 	b	90d4 <n36_bgezal_test+0x90d4>
    90bc:	00000000 	nop
    90c0:	00000000 	nop
    90c4:	26d60008 	addiu	s6,s6,8
    90c8:	16962345 	bne	s4,s6,11de0 <inst_error>
    90cc:	00000000 	nop
	...
    90d8:	001fa821 	addu	s5,zero,ra
    90dc:	3c0ccb06 	lui	t4,0xcb06
    90e0:	358cea2a 	ori	t4,t4,0xea2a
    90e4:	3c0d12b1 	lui	t5,0x12b1
    90e8:	35adbd66 	ori	t5,t5,0xbd66
    90ec:	24100000 	li	s0,0
    90f0:	10000012 	b	913c <n36_bgezal_test+0x913c>
    90f4:	24120000 	li	s2,0
    90f8:	00000000 	nop
    90fc:	3c10cb06 	lui	s0,0xcb06
    9100:	3610ea2a 	ori	s0,s0,0xea2a
    9104:	05110023 	bgezal	t0,9194 <n36_bgezal_test+0x9194>
    9108:	00000000 	nop
    910c:	10000023 	b	919c <n36_bgezal_test+0x919c>
    9110:	00000000 	nop
    9114:	00000000 	nop
    9118:	00000021 	move	zero,zero
    911c:	00000021 	move	zero,zero
    9120:	00000021 	move	zero,zero
    9124:	00000021 	move	zero,zero
    9128:	00000021 	move	zero,zero
    912c:	00000021 	move	zero,zero
    9130:	00000021 	move	zero,zero
    9134:	00000021 	move	zero,zero
    9138:	00000021 	move	zero,zero
    913c:	3c0838b3 	lui	t0,0x38b3
    9140:	35082afe 	ori	t0,t0,0x2afe
    9144:	0511ffed 	bgezal	t0,90fc <n36_bgezal_test+0x90fc>
    9148:	00000000 	nop
    914c:	10000013 	b	919c <n36_bgezal_test+0x919c>
    9150:	00000000 	nop
    9154:	00000000 	nop
    9158:	00000021 	move	zero,zero
    915c:	00000021 	move	zero,zero
    9160:	00000021 	move	zero,zero
    9164:	00000021 	move	zero,zero
    9168:	00000021 	move	zero,zero
    916c:	00000021 	move	zero,zero
    9170:	00000021 	move	zero,zero
    9174:	00000021 	move	zero,zero
    9178:	00000021 	move	zero,zero
    917c:	00000021 	move	zero,zero
    9180:	00000021 	move	zero,zero
    9184:	00000021 	move	zero,zero
    9188:	00000021 	move	zero,zero
    918c:	00000021 	move	zero,zero
    9190:	00000021 	move	zero,zero
    9194:	3c1212b1 	lui	s2,0x12b1
    9198:	3652bd66 	ori	s2,s2,0xbd66
    919c:	001fa021 	addu	s4,zero,ra
    91a0:	0015f821 	addu	ra,zero,s5
    91a4:	3c150001 	lui	s5,0x1
    91a8:	26b59104 	addiu	s5,s5,-28412
    91ac:	3c160001 	lui	s6,0x1
    91b0:	26d69144 	addiu	s6,s6,-28348
    91b4:	3c18cb06 	lui	t8,0xcb06
    91b8:	3718ea2a 	ori	t8,t8,0xea2a
    91bc:	16182308 	bne	s0,t8,11de0 <inst_error>
    91c0:	00000000 	nop
    91c4:	00000000 	nop
    91c8:	3c1812b1 	lui	t8,0x12b1
    91cc:	3718bd66 	ori	t8,t8,0xbd66
    91d0:	16582303 	bne	s2,t8,11de0 <inst_error>
    91d4:	00000000 	nop
    91d8:	00000000 	nop
    91dc:	3c19bfc0 	lui	t9,0xbfc0
    91e0:	37394ecc 	ori	t9,t9,0x4ecc
    91e4:	3c18bfc0 	lui	t8,0xbfc0
    91e8:	37184ec4 	ori	t8,t8,0x4ec4
    91ec:	27180008 	addiu	t8,t8,8
    91f0:	1319000a 	beq	t8,t9,921c <n36_bgezal_test+0x921c>
    91f4:	00000000 	nop
    91f8:	00000000 	nop
    91fc:	3c18bfc0 	lui	t8,0xbfc0
    9200:	37184efc 	ori	t8,t8,0x4efc
    9204:	27180008 	addiu	t8,t8,8
    9208:	1319000a 	beq	t8,t9,9234 <n36_bgezal_test+0x9234>
    920c:	00000000 	nop
    9210:	100022f3 	b	11de0 <inst_error>
    9214:	00000000 	nop
    9218:	00000000 	nop
    921c:	26b50008 	addiu	s5,s5,8
    9220:	169522ef 	bne	s4,s5,11de0 <inst_error>
    9224:	00000000 	nop
    9228:	10000006 	b	9244 <n36_bgezal_test+0x9244>
    922c:	00000000 	nop
    9230:	00000000 	nop
    9234:	26d60008 	addiu	s6,s6,8
    9238:	169622e9 	bne	s4,s6,11de0 <inst_error>
    923c:	00000000 	nop
	...
    9248:	001fa821 	addu	s5,zero,ra
    924c:	3c0c9d0b 	lui	t4,0x9d0b
    9250:	358c2668 	ori	t4,t4,0x2668
    9254:	3c0de1c5 	lui	t5,0xe1c5
    9258:	35ad9c78 	ori	t5,t5,0x9c78
    925c:	24100000 	li	s0,0
    9260:	10000012 	b	92ac <n36_bgezal_test+0x92ac>
    9264:	24120000 	li	s2,0
    9268:	00000000 	nop
    926c:	3c109d0b 	lui	s0,0x9d0b
    9270:	36102668 	ori	s0,s0,0x2668
    9274:	05110023 	bgezal	t0,9304 <n36_bgezal_test+0x9304>
    9278:	00000000 	nop
    927c:	10000023 	b	930c <n36_bgezal_test+0x930c>
    9280:	00000000 	nop
    9284:	00000000 	nop
    9288:	00000021 	move	zero,zero
    928c:	00000021 	move	zero,zero
    9290:	00000021 	move	zero,zero
    9294:	00000021 	move	zero,zero
    9298:	00000021 	move	zero,zero
    929c:	00000021 	move	zero,zero
    92a0:	00000021 	move	zero,zero
    92a4:	00000021 	move	zero,zero
    92a8:	00000021 	move	zero,zero
    92ac:	3c083645 	lui	t0,0x3645
    92b0:	350847e8 	ori	t0,t0,0x47e8
    92b4:	0511ffed 	bgezal	t0,926c <n36_bgezal_test+0x926c>
    92b8:	00000000 	nop
    92bc:	10000013 	b	930c <n36_bgezal_test+0x930c>
    92c0:	00000000 	nop
    92c4:	00000000 	nop
    92c8:	00000021 	move	zero,zero
    92cc:	00000021 	move	zero,zero
    92d0:	00000021 	move	zero,zero
    92d4:	00000021 	move	zero,zero
    92d8:	00000021 	move	zero,zero
    92dc:	00000021 	move	zero,zero
    92e0:	00000021 	move	zero,zero
    92e4:	00000021 	move	zero,zero
    92e8:	00000021 	move	zero,zero
    92ec:	00000021 	move	zero,zero
    92f0:	00000021 	move	zero,zero
    92f4:	00000021 	move	zero,zero
    92f8:	00000021 	move	zero,zero
    92fc:	00000021 	move	zero,zero
    9300:	00000021 	move	zero,zero
    9304:	3c12e1c5 	lui	s2,0xe1c5
    9308:	36529c78 	ori	s2,s2,0x9c78
    930c:	001fa021 	addu	s4,zero,ra
    9310:	0015f821 	addu	ra,zero,s5
    9314:	3c150001 	lui	s5,0x1
    9318:	26b59274 	addiu	s5,s5,-28044
    931c:	3c160001 	lui	s6,0x1
    9320:	26d692b4 	addiu	s6,s6,-27980
    9324:	3c189d0b 	lui	t8,0x9d0b
    9328:	37182668 	ori	t8,t8,0x2668
    932c:	161822ac 	bne	s0,t8,11de0 <inst_error>
    9330:	00000000 	nop
    9334:	00000000 	nop
    9338:	3c18e1c5 	lui	t8,0xe1c5
    933c:	37189c78 	ori	t8,t8,0x9c78
    9340:	165822a7 	bne	s2,t8,11de0 <inst_error>
    9344:	00000000 	nop
    9348:	00000000 	nop
    934c:	3c19bfc0 	lui	t9,0xbfc0
    9350:	37394f88 	ori	t9,t9,0x4f88
    9354:	3c18bfc0 	lui	t8,0xbfc0
    9358:	37184f80 	ori	t8,t8,0x4f80
    935c:	27180008 	addiu	t8,t8,8
    9360:	1319000a 	beq	t8,t9,938c <n36_bgezal_test+0x938c>
    9364:	00000000 	nop
    9368:	00000000 	nop
    936c:	3c18bfc0 	lui	t8,0xbfc0
    9370:	37184fb8 	ori	t8,t8,0x4fb8
    9374:	27180008 	addiu	t8,t8,8
    9378:	1319000a 	beq	t8,t9,93a4 <n36_bgezal_test+0x93a4>
    937c:	00000000 	nop
    9380:	10002297 	b	11de0 <inst_error>
    9384:	00000000 	nop
    9388:	00000000 	nop
    938c:	26b50008 	addiu	s5,s5,8
    9390:	16952293 	bne	s4,s5,11de0 <inst_error>
    9394:	00000000 	nop
    9398:	10000006 	b	93b4 <n36_bgezal_test+0x93b4>
    939c:	00000000 	nop
    93a0:	00000000 	nop
    93a4:	26d60008 	addiu	s6,s6,8
    93a8:	1696228d 	bne	s4,s6,11de0 <inst_error>
    93ac:	00000000 	nop
	...
    93b8:	001fa821 	addu	s5,zero,ra
    93bc:	3c0c10cb 	lui	t4,0x10cb
    93c0:	358ce1b8 	ori	t4,t4,0xe1b8
    93c4:	3c0d407d 	lui	t5,0x407d
    93c8:	35ada648 	ori	t5,t5,0xa648
    93cc:	24100000 	li	s0,0
    93d0:	10000012 	b	941c <n36_bgezal_test+0x941c>
    93d4:	24120000 	li	s2,0
    93d8:	00000000 	nop
    93dc:	3c1010cb 	lui	s0,0x10cb
    93e0:	3610e1b8 	ori	s0,s0,0xe1b8
    93e4:	05110023 	bgezal	t0,9474 <n36_bgezal_test+0x9474>
    93e8:	00000000 	nop
    93ec:	10000023 	b	947c <n36_bgezal_test+0x947c>
    93f0:	00000000 	nop
    93f4:	00000000 	nop
    93f8:	00000021 	move	zero,zero
    93fc:	00000021 	move	zero,zero
    9400:	00000021 	move	zero,zero
    9404:	00000021 	move	zero,zero
    9408:	00000021 	move	zero,zero
    940c:	00000021 	move	zero,zero
    9410:	00000021 	move	zero,zero
    9414:	00000021 	move	zero,zero
    9418:	00000021 	move	zero,zero
    941c:	3c089488 	lui	t0,0x9488
    9420:	3508b99c 	ori	t0,t0,0xb99c
    9424:	0511ffed 	bgezal	t0,93dc <n36_bgezal_test+0x93dc>
    9428:	00000000 	nop
    942c:	10000013 	b	947c <n36_bgezal_test+0x947c>
    9430:	00000000 	nop
    9434:	00000000 	nop
    9438:	00000021 	move	zero,zero
    943c:	00000021 	move	zero,zero
    9440:	00000021 	move	zero,zero
    9444:	00000021 	move	zero,zero
    9448:	00000021 	move	zero,zero
    944c:	00000021 	move	zero,zero
    9450:	00000021 	move	zero,zero
    9454:	00000021 	move	zero,zero
    9458:	00000021 	move	zero,zero
    945c:	00000021 	move	zero,zero
    9460:	00000021 	move	zero,zero
    9464:	00000021 	move	zero,zero
    9468:	00000021 	move	zero,zero
    946c:	00000021 	move	zero,zero
    9470:	00000021 	move	zero,zero
    9474:	3c12407d 	lui	s2,0x407d
    9478:	3652a648 	ori	s2,s2,0xa648
    947c:	001fa021 	addu	s4,zero,ra
    9480:	0015f821 	addu	ra,zero,s5
    9484:	3c150001 	lui	s5,0x1
    9488:	26b593e4 	addiu	s5,s5,-27676
    948c:	3c160001 	lui	s6,0x1
    9490:	26d69424 	addiu	s6,s6,-27612
    9494:	24180000 	li	t8,0
    9498:	16182251 	bne	s0,t8,11de0 <inst_error>
    949c:	00000000 	nop
    94a0:	00000000 	nop
    94a4:	24180000 	li	t8,0
    94a8:	1658224d 	bne	s2,t8,11de0 <inst_error>
    94ac:	00000000 	nop
    94b0:	00000000 	nop
    94b4:	3c19bfc0 	lui	t9,0xbfc0
    94b8:	3739507c 	ori	t9,t9,0x507c
    94bc:	3c18bfc0 	lui	t8,0xbfc0
    94c0:	3718503c 	ori	t8,t8,0x503c
    94c4:	27180008 	addiu	t8,t8,8
    94c8:	1319000a 	beq	t8,t9,94f4 <n36_bgezal_test+0x94f4>
    94cc:	00000000 	nop
    94d0:	00000000 	nop
    94d4:	3c18bfc0 	lui	t8,0xbfc0
    94d8:	37185074 	ori	t8,t8,0x5074
    94dc:	27180008 	addiu	t8,t8,8
    94e0:	1319000a 	beq	t8,t9,950c <n36_bgezal_test+0x950c>
    94e4:	00000000 	nop
    94e8:	1000223d 	b	11de0 <inst_error>
    94ec:	00000000 	nop
    94f0:	00000000 	nop
    94f4:	26b50008 	addiu	s5,s5,8
    94f8:	16952239 	bne	s4,s5,11de0 <inst_error>
    94fc:	00000000 	nop
    9500:	10000006 	b	951c <n36_bgezal_test+0x951c>
    9504:	00000000 	nop
    9508:	00000000 	nop
    950c:	26d60008 	addiu	s6,s6,8
    9510:	16962233 	bne	s4,s6,11de0 <inst_error>
    9514:	00000000 	nop
	...
    9520:	001fa821 	addu	s5,zero,ra
    9524:	3c0c2c5f 	lui	t4,0x2c5f
    9528:	358cfe58 	ori	t4,t4,0xfe58
    952c:	3c0d41c2 	lui	t5,0x41c2
    9530:	35ad3300 	ori	t5,t5,0x3300
    9534:	24100000 	li	s0,0
    9538:	10000012 	b	9584 <n36_bgezal_test+0x9584>
    953c:	24120000 	li	s2,0
    9540:	00000000 	nop
    9544:	3c102c5f 	lui	s0,0x2c5f
    9548:	3610fe58 	ori	s0,s0,0xfe58
    954c:	05110023 	bgezal	t0,95dc <n36_bgezal_test+0x95dc>
    9550:	00000000 	nop
    9554:	10000023 	b	95e4 <n36_bgezal_test+0x95e4>
    9558:	00000000 	nop
    955c:	00000000 	nop
    9560:	00000021 	move	zero,zero
    9564:	00000021 	move	zero,zero
    9568:	00000021 	move	zero,zero
    956c:	00000021 	move	zero,zero
    9570:	00000021 	move	zero,zero
    9574:	00000021 	move	zero,zero
    9578:	00000021 	move	zero,zero
    957c:	00000021 	move	zero,zero
    9580:	00000021 	move	zero,zero
    9584:	3c084555 	lui	t0,0x4555
    9588:	35087d80 	ori	t0,t0,0x7d80
    958c:	0511ffed 	bgezal	t0,9544 <n36_bgezal_test+0x9544>
    9590:	00000000 	nop
    9594:	10000013 	b	95e4 <n36_bgezal_test+0x95e4>
    9598:	00000000 	nop
    959c:	00000000 	nop
    95a0:	00000021 	move	zero,zero
    95a4:	00000021 	move	zero,zero
    95a8:	00000021 	move	zero,zero
    95ac:	00000021 	move	zero,zero
    95b0:	00000021 	move	zero,zero
    95b4:	00000021 	move	zero,zero
    95b8:	00000021 	move	zero,zero
    95bc:	00000021 	move	zero,zero
    95c0:	00000021 	move	zero,zero
    95c4:	00000021 	move	zero,zero
    95c8:	00000021 	move	zero,zero
    95cc:	00000021 	move	zero,zero
    95d0:	00000021 	move	zero,zero
    95d4:	00000021 	move	zero,zero
    95d8:	00000021 	move	zero,zero
    95dc:	3c1241c2 	lui	s2,0x41c2
    95e0:	36523300 	ori	s2,s2,0x3300
    95e4:	001fa021 	addu	s4,zero,ra
    95e8:	0015f821 	addu	ra,zero,s5
    95ec:	3c150001 	lui	s5,0x1
    95f0:	26b5954c 	addiu	s5,s5,-27316
    95f4:	3c160001 	lui	s6,0x1
    95f8:	26d6958c 	addiu	s6,s6,-27252
    95fc:	3c182c5f 	lui	t8,0x2c5f
    9600:	3718fe58 	ori	t8,t8,0xfe58
    9604:	161821f6 	bne	s0,t8,11de0 <inst_error>
    9608:	00000000 	nop
    960c:	00000000 	nop
    9610:	3c1841c2 	lui	t8,0x41c2
    9614:	37183300 	ori	t8,t8,0x3300
    9618:	165821f1 	bne	s2,t8,11de0 <inst_error>
    961c:	00000000 	nop
    9620:	00000000 	nop
    9624:	3c19bfc0 	lui	t9,0xbfc0
    9628:	37395100 	ori	t9,t9,0x5100
    962c:	3c18bfc0 	lui	t8,0xbfc0
    9630:	371850f8 	ori	t8,t8,0x50f8
    9634:	27180008 	addiu	t8,t8,8
    9638:	1319000a 	beq	t8,t9,9664 <n36_bgezal_test+0x9664>
    963c:	00000000 	nop
    9640:	00000000 	nop
    9644:	3c18bfc0 	lui	t8,0xbfc0
    9648:	37185130 	ori	t8,t8,0x5130
    964c:	27180008 	addiu	t8,t8,8
    9650:	1319000a 	beq	t8,t9,967c <n36_bgezal_test+0x967c>
    9654:	00000000 	nop
    9658:	100021e1 	b	11de0 <inst_error>
    965c:	00000000 	nop
    9660:	00000000 	nop
    9664:	26b50008 	addiu	s5,s5,8
    9668:	169521dd 	bne	s4,s5,11de0 <inst_error>
    966c:	00000000 	nop
    9670:	10000006 	b	968c <n36_bgezal_test+0x968c>
    9674:	00000000 	nop
    9678:	00000000 	nop
    967c:	26d60008 	addiu	s6,s6,8
    9680:	169621d7 	bne	s4,s6,11de0 <inst_error>
    9684:	00000000 	nop
	...
    9690:	001fa821 	addu	s5,zero,ra
    9694:	3c0c4859 	lui	t4,0x4859
    9698:	358cca40 	ori	t4,t4,0xca40
    969c:	3c0d6251 	lui	t5,0x6251
    96a0:	35ad1bd0 	ori	t5,t5,0x1bd0
    96a4:	24100000 	li	s0,0
    96a8:	10000012 	b	96f4 <n36_bgezal_test+0x96f4>
    96ac:	24120000 	li	s2,0
    96b0:	00000000 	nop
    96b4:	3c104859 	lui	s0,0x4859
    96b8:	3610ca40 	ori	s0,s0,0xca40
    96bc:	05110023 	bgezal	t0,974c <n36_bgezal_test+0x974c>
    96c0:	00000000 	nop
    96c4:	10000023 	b	9754 <n36_bgezal_test+0x9754>
    96c8:	00000000 	nop
    96cc:	00000000 	nop
    96d0:	00000021 	move	zero,zero
    96d4:	00000021 	move	zero,zero
    96d8:	00000021 	move	zero,zero
    96dc:	00000021 	move	zero,zero
    96e0:	00000021 	move	zero,zero
    96e4:	00000021 	move	zero,zero
    96e8:	00000021 	move	zero,zero
    96ec:	00000021 	move	zero,zero
    96f0:	00000021 	move	zero,zero
    96f4:	3c084162 	lui	t0,0x4162
    96f8:	3508a47e 	ori	t0,t0,0xa47e
    96fc:	0511ffed 	bgezal	t0,96b4 <n36_bgezal_test+0x96b4>
    9700:	00000000 	nop
    9704:	10000013 	b	9754 <n36_bgezal_test+0x9754>
    9708:	00000000 	nop
    970c:	00000000 	nop
    9710:	00000021 	move	zero,zero
    9714:	00000021 	move	zero,zero
    9718:	00000021 	move	zero,zero
    971c:	00000021 	move	zero,zero
    9720:	00000021 	move	zero,zero
    9724:	00000021 	move	zero,zero
    9728:	00000021 	move	zero,zero
    972c:	00000021 	move	zero,zero
    9730:	00000021 	move	zero,zero
    9734:	00000021 	move	zero,zero
    9738:	00000021 	move	zero,zero
    973c:	00000021 	move	zero,zero
    9740:	00000021 	move	zero,zero
    9744:	00000021 	move	zero,zero
    9748:	00000021 	move	zero,zero
    974c:	3c126251 	lui	s2,0x6251
    9750:	36521bd0 	ori	s2,s2,0x1bd0
    9754:	001fa021 	addu	s4,zero,ra
    9758:	0015f821 	addu	ra,zero,s5
    975c:	3c150001 	lui	s5,0x1
    9760:	26b596bc 	addiu	s5,s5,-26948
    9764:	3c160001 	lui	s6,0x1
    9768:	26d696fc 	addiu	s6,s6,-26884
    976c:	3c184859 	lui	t8,0x4859
    9770:	3718ca40 	ori	t8,t8,0xca40
    9774:	1618219a 	bne	s0,t8,11de0 <inst_error>
    9778:	00000000 	nop
    977c:	00000000 	nop
    9780:	3c186251 	lui	t8,0x6251
    9784:	37181bd0 	ori	t8,t8,0x1bd0
    9788:	16582195 	bne	s2,t8,11de0 <inst_error>
    978c:	00000000 	nop
    9790:	00000000 	nop
    9794:	3c19bfc0 	lui	t9,0xbfc0
    9798:	373951bc 	ori	t9,t9,0x51bc
    979c:	3c18bfc0 	lui	t8,0xbfc0
    97a0:	371851b4 	ori	t8,t8,0x51b4
    97a4:	27180008 	addiu	t8,t8,8
    97a8:	1319000a 	beq	t8,t9,97d4 <n36_bgezal_test+0x97d4>
    97ac:	00000000 	nop
    97b0:	00000000 	nop
    97b4:	3c18bfc0 	lui	t8,0xbfc0
    97b8:	371851ec 	ori	t8,t8,0x51ec
    97bc:	27180008 	addiu	t8,t8,8
    97c0:	1319000a 	beq	t8,t9,97ec <n36_bgezal_test+0x97ec>
    97c4:	00000000 	nop
    97c8:	10002185 	b	11de0 <inst_error>
    97cc:	00000000 	nop
    97d0:	00000000 	nop
    97d4:	26b50008 	addiu	s5,s5,8
    97d8:	16952181 	bne	s4,s5,11de0 <inst_error>
    97dc:	00000000 	nop
    97e0:	10000006 	b	97fc <n36_bgezal_test+0x97fc>
    97e4:	00000000 	nop
    97e8:	00000000 	nop
    97ec:	26d60008 	addiu	s6,s6,8
    97f0:	1696217b 	bne	s4,s6,11de0 <inst_error>
    97f4:	00000000 	nop
	...
    9800:	001fa821 	addu	s5,zero,ra
    9804:	3c0cbdc2 	lui	t4,0xbdc2
    9808:	358c0ca8 	ori	t4,t4,0xca8
    980c:	3c0d6ad8 	lui	t5,0x6ad8
    9810:	35ad501b 	ori	t5,t5,0x501b
    9814:	24100000 	li	s0,0
    9818:	10000012 	b	9864 <n36_bgezal_test+0x9864>
    981c:	24120000 	li	s2,0
    9820:	00000000 	nop
    9824:	3c10bdc2 	lui	s0,0xbdc2
    9828:	36100ca8 	ori	s0,s0,0xca8
    982c:	05110023 	bgezal	t0,98bc <n36_bgezal_test+0x98bc>
    9830:	00000000 	nop
    9834:	10000023 	b	98c4 <n36_bgezal_test+0x98c4>
    9838:	00000000 	nop
    983c:	00000000 	nop
    9840:	00000021 	move	zero,zero
    9844:	00000021 	move	zero,zero
    9848:	00000021 	move	zero,zero
    984c:	00000021 	move	zero,zero
    9850:	00000021 	move	zero,zero
    9854:	00000021 	move	zero,zero
    9858:	00000021 	move	zero,zero
    985c:	00000021 	move	zero,zero
    9860:	00000021 	move	zero,zero
    9864:	3c08d40f 	lui	t0,0xd40f
    9868:	35089260 	ori	t0,t0,0x9260
    986c:	0511ffed 	bgezal	t0,9824 <n36_bgezal_test+0x9824>
    9870:	00000000 	nop
    9874:	10000013 	b	98c4 <n36_bgezal_test+0x98c4>
    9878:	00000000 	nop
    987c:	00000000 	nop
    9880:	00000021 	move	zero,zero
    9884:	00000021 	move	zero,zero
    9888:	00000021 	move	zero,zero
    988c:	00000021 	move	zero,zero
    9890:	00000021 	move	zero,zero
    9894:	00000021 	move	zero,zero
    9898:	00000021 	move	zero,zero
    989c:	00000021 	move	zero,zero
    98a0:	00000021 	move	zero,zero
    98a4:	00000021 	move	zero,zero
    98a8:	00000021 	move	zero,zero
    98ac:	00000021 	move	zero,zero
    98b0:	00000021 	move	zero,zero
    98b4:	00000021 	move	zero,zero
    98b8:	00000021 	move	zero,zero
    98bc:	3c126ad8 	lui	s2,0x6ad8
    98c0:	3652501b 	ori	s2,s2,0x501b
    98c4:	001fa021 	addu	s4,zero,ra
    98c8:	0015f821 	addu	ra,zero,s5
    98cc:	3c150001 	lui	s5,0x1
    98d0:	26b5982c 	addiu	s5,s5,-26580
    98d4:	3c160001 	lui	s6,0x1
    98d8:	26d6986c 	addiu	s6,s6,-26516
    98dc:	24180000 	li	t8,0
    98e0:	1618213f 	bne	s0,t8,11de0 <inst_error>
    98e4:	00000000 	nop
    98e8:	00000000 	nop
    98ec:	24180000 	li	t8,0
    98f0:	1658213b 	bne	s2,t8,11de0 <inst_error>
    98f4:	00000000 	nop
    98f8:	00000000 	nop
    98fc:	3c19bfc0 	lui	t9,0xbfc0
    9900:	373952b0 	ori	t9,t9,0x52b0
    9904:	3c18bfc0 	lui	t8,0xbfc0
    9908:	37185270 	ori	t8,t8,0x5270
    990c:	27180008 	addiu	t8,t8,8
    9910:	1319000a 	beq	t8,t9,993c <n36_bgezal_test+0x993c>
    9914:	00000000 	nop
    9918:	00000000 	nop
    991c:	3c18bfc0 	lui	t8,0xbfc0
    9920:	371852a8 	ori	t8,t8,0x52a8
    9924:	27180008 	addiu	t8,t8,8
    9928:	1319000a 	beq	t8,t9,9954 <n36_bgezal_test+0x9954>
    992c:	00000000 	nop
    9930:	1000212b 	b	11de0 <inst_error>
    9934:	00000000 	nop
    9938:	00000000 	nop
    993c:	26b50008 	addiu	s5,s5,8
    9940:	16952127 	bne	s4,s5,11de0 <inst_error>
    9944:	00000000 	nop
    9948:	10000006 	b	9964 <n36_bgezal_test+0x9964>
    994c:	00000000 	nop
    9950:	00000000 	nop
    9954:	26d60008 	addiu	s6,s6,8
    9958:	16962121 	bne	s4,s6,11de0 <inst_error>
    995c:	00000000 	nop
	...
    9968:	001fa821 	addu	s5,zero,ra
    996c:	3c0c2f68 	lui	t4,0x2f68
    9970:	358c40b0 	ori	t4,t4,0x40b0
    9974:	3c0dd69e 	lui	t5,0xd69e
    9978:	35adbe4f 	ori	t5,t5,0xbe4f
    997c:	24100000 	li	s0,0
    9980:	10000012 	b	99cc <n36_bgezal_test+0x99cc>
    9984:	24120000 	li	s2,0
    9988:	00000000 	nop
    998c:	3c102f68 	lui	s0,0x2f68
    9990:	361040b0 	ori	s0,s0,0x40b0
    9994:	05110023 	bgezal	t0,9a24 <n36_bgezal_test+0x9a24>
    9998:	00000000 	nop
    999c:	10000023 	b	9a2c <n36_bgezal_test+0x9a2c>
    99a0:	00000000 	nop
    99a4:	00000000 	nop
    99a8:	00000021 	move	zero,zero
    99ac:	00000021 	move	zero,zero
    99b0:	00000021 	move	zero,zero
    99b4:	00000021 	move	zero,zero
    99b8:	00000021 	move	zero,zero
    99bc:	00000021 	move	zero,zero
    99c0:	00000021 	move	zero,zero
    99c4:	00000021 	move	zero,zero
    99c8:	00000021 	move	zero,zero
    99cc:	3c0821e0 	lui	t0,0x21e0
    99d0:	350807b0 	ori	t0,t0,0x7b0
    99d4:	0511ffed 	bgezal	t0,998c <n36_bgezal_test+0x998c>
    99d8:	00000000 	nop
    99dc:	10000013 	b	9a2c <n36_bgezal_test+0x9a2c>
    99e0:	00000000 	nop
    99e4:	00000000 	nop
    99e8:	00000021 	move	zero,zero
    99ec:	00000021 	move	zero,zero
    99f0:	00000021 	move	zero,zero
    99f4:	00000021 	move	zero,zero
    99f8:	00000021 	move	zero,zero
    99fc:	00000021 	move	zero,zero
    9a00:	00000021 	move	zero,zero
    9a04:	00000021 	move	zero,zero
    9a08:	00000021 	move	zero,zero
    9a0c:	00000021 	move	zero,zero
    9a10:	00000021 	move	zero,zero
    9a14:	00000021 	move	zero,zero
    9a18:	00000021 	move	zero,zero
    9a1c:	00000021 	move	zero,zero
    9a20:	00000021 	move	zero,zero
    9a24:	3c12d69e 	lui	s2,0xd69e
    9a28:	3652be4f 	ori	s2,s2,0xbe4f
    9a2c:	001fa021 	addu	s4,zero,ra
    9a30:	0015f821 	addu	ra,zero,s5
    9a34:	3c150001 	lui	s5,0x1
    9a38:	26b59994 	addiu	s5,s5,-26220
    9a3c:	3c160001 	lui	s6,0x1
    9a40:	26d699d4 	addiu	s6,s6,-26156
    9a44:	3c182f68 	lui	t8,0x2f68
    9a48:	371840b0 	ori	t8,t8,0x40b0
    9a4c:	161820e4 	bne	s0,t8,11de0 <inst_error>
    9a50:	00000000 	nop
    9a54:	00000000 	nop
    9a58:	3c18d69e 	lui	t8,0xd69e
    9a5c:	3718be4f 	ori	t8,t8,0xbe4f
    9a60:	165820df 	bne	s2,t8,11de0 <inst_error>
    9a64:	00000000 	nop
    9a68:	00000000 	nop
    9a6c:	3c19bfc0 	lui	t9,0xbfc0
    9a70:	37395334 	ori	t9,t9,0x5334
    9a74:	3c18bfc0 	lui	t8,0xbfc0
    9a78:	3718532c 	ori	t8,t8,0x532c
    9a7c:	27180008 	addiu	t8,t8,8
    9a80:	1319000a 	beq	t8,t9,9aac <n36_bgezal_test+0x9aac>
    9a84:	00000000 	nop
    9a88:	00000000 	nop
    9a8c:	3c18bfc0 	lui	t8,0xbfc0
    9a90:	37185364 	ori	t8,t8,0x5364
    9a94:	27180008 	addiu	t8,t8,8
    9a98:	1319000a 	beq	t8,t9,9ac4 <n36_bgezal_test+0x9ac4>
    9a9c:	00000000 	nop
    9aa0:	100020cf 	b	11de0 <inst_error>
    9aa4:	00000000 	nop
    9aa8:	00000000 	nop
    9aac:	26b50008 	addiu	s5,s5,8
    9ab0:	169520cb 	bne	s4,s5,11de0 <inst_error>
    9ab4:	00000000 	nop
    9ab8:	10000006 	b	9ad4 <n36_bgezal_test+0x9ad4>
    9abc:	00000000 	nop
    9ac0:	00000000 	nop
    9ac4:	26d60008 	addiu	s6,s6,8
    9ac8:	169620c5 	bne	s4,s6,11de0 <inst_error>
    9acc:	00000000 	nop
	...
    9ad8:	001fa821 	addu	s5,zero,ra
    9adc:	3c0c7c80 	lui	t4,0x7c80
    9ae0:	358cbd20 	ori	t4,t4,0xbd20
    9ae4:	3c0dea95 	lui	t5,0xea95
    9ae8:	35ad0588 	ori	t5,t5,0x588
    9aec:	24100000 	li	s0,0
    9af0:	10000012 	b	9b3c <n36_bgezal_test+0x9b3c>
    9af4:	24120000 	li	s2,0
    9af8:	00000000 	nop
    9afc:	3c107c80 	lui	s0,0x7c80
    9b00:	3610bd20 	ori	s0,s0,0xbd20
    9b04:	05110023 	bgezal	t0,9b94 <n36_bgezal_test+0x9b94>
    9b08:	00000000 	nop
    9b0c:	10000023 	b	9b9c <n36_bgezal_test+0x9b9c>
    9b10:	00000000 	nop
    9b14:	00000000 	nop
    9b18:	00000021 	move	zero,zero
    9b1c:	00000021 	move	zero,zero
    9b20:	00000021 	move	zero,zero
    9b24:	00000021 	move	zero,zero
    9b28:	00000021 	move	zero,zero
    9b2c:	00000021 	move	zero,zero
    9b30:	00000021 	move	zero,zero
    9b34:	00000021 	move	zero,zero
    9b38:	00000021 	move	zero,zero
    9b3c:	3c08e3f7 	lui	t0,0xe3f7
    9b40:	3508d594 	ori	t0,t0,0xd594
    9b44:	0511ffed 	bgezal	t0,9afc <n36_bgezal_test+0x9afc>
    9b48:	00000000 	nop
    9b4c:	10000013 	b	9b9c <n36_bgezal_test+0x9b9c>
    9b50:	00000000 	nop
    9b54:	00000000 	nop
    9b58:	00000021 	move	zero,zero
    9b5c:	00000021 	move	zero,zero
    9b60:	00000021 	move	zero,zero
    9b64:	00000021 	move	zero,zero
    9b68:	00000021 	move	zero,zero
    9b6c:	00000021 	move	zero,zero
    9b70:	00000021 	move	zero,zero
    9b74:	00000021 	move	zero,zero
    9b78:	00000021 	move	zero,zero
    9b7c:	00000021 	move	zero,zero
    9b80:	00000021 	move	zero,zero
    9b84:	00000021 	move	zero,zero
    9b88:	00000021 	move	zero,zero
    9b8c:	00000021 	move	zero,zero
    9b90:	00000021 	move	zero,zero
    9b94:	3c12ea95 	lui	s2,0xea95
    9b98:	36520588 	ori	s2,s2,0x588
    9b9c:	001fa021 	addu	s4,zero,ra
    9ba0:	0015f821 	addu	ra,zero,s5
    9ba4:	3c150001 	lui	s5,0x1
    9ba8:	26b59b04 	addiu	s5,s5,-25852
    9bac:	3c160001 	lui	s6,0x1
    9bb0:	26d69b44 	addiu	s6,s6,-25788
    9bb4:	24180000 	li	t8,0
    9bb8:	16182089 	bne	s0,t8,11de0 <inst_error>
    9bbc:	00000000 	nop
    9bc0:	00000000 	nop
    9bc4:	24180000 	li	t8,0
    9bc8:	16582085 	bne	s2,t8,11de0 <inst_error>
    9bcc:	00000000 	nop
    9bd0:	00000000 	nop
    9bd4:	3c19bfc0 	lui	t9,0xbfc0
    9bd8:	37395428 	ori	t9,t9,0x5428
    9bdc:	3c18bfc0 	lui	t8,0xbfc0
    9be0:	371853e8 	ori	t8,t8,0x53e8
    9be4:	27180008 	addiu	t8,t8,8
    9be8:	1319000a 	beq	t8,t9,9c14 <n36_bgezal_test+0x9c14>
    9bec:	00000000 	nop
    9bf0:	00000000 	nop
    9bf4:	3c18bfc0 	lui	t8,0xbfc0
    9bf8:	37185420 	ori	t8,t8,0x5420
    9bfc:	27180008 	addiu	t8,t8,8
    9c00:	1319000a 	beq	t8,t9,9c2c <n36_bgezal_test+0x9c2c>
    9c04:	00000000 	nop
    9c08:	10002075 	b	11de0 <inst_error>
    9c0c:	00000000 	nop
    9c10:	00000000 	nop
    9c14:	26b50008 	addiu	s5,s5,8
    9c18:	16952071 	bne	s4,s5,11de0 <inst_error>
    9c1c:	00000000 	nop
    9c20:	10000006 	b	9c3c <n36_bgezal_test+0x9c3c>
    9c24:	00000000 	nop
    9c28:	00000000 	nop
    9c2c:	26d60008 	addiu	s6,s6,8
    9c30:	1696206b 	bne	s4,s6,11de0 <inst_error>
    9c34:	00000000 	nop
	...
    9c40:	001fa821 	addu	s5,zero,ra
    9c44:	3c0c0f79 	lui	t4,0xf79
    9c48:	358c4fbe 	ori	t4,t4,0x4fbe
    9c4c:	3c0da51e 	lui	t5,0xa51e
    9c50:	35ad32c5 	ori	t5,t5,0x32c5
    9c54:	24100000 	li	s0,0
    9c58:	10000012 	b	9ca4 <n36_bgezal_test+0x9ca4>
    9c5c:	24120000 	li	s2,0
    9c60:	00000000 	nop
    9c64:	3c100f79 	lui	s0,0xf79
    9c68:	36104fbe 	ori	s0,s0,0x4fbe
    9c6c:	05110023 	bgezal	t0,9cfc <n36_bgezal_test+0x9cfc>
    9c70:	00000000 	nop
    9c74:	10000023 	b	9d04 <n36_bgezal_test+0x9d04>
    9c78:	00000000 	nop
    9c7c:	00000000 	nop
    9c80:	00000021 	move	zero,zero
    9c84:	00000021 	move	zero,zero
    9c88:	00000021 	move	zero,zero
    9c8c:	00000021 	move	zero,zero
    9c90:	00000021 	move	zero,zero
    9c94:	00000021 	move	zero,zero
    9c98:	00000021 	move	zero,zero
    9c9c:	00000021 	move	zero,zero
    9ca0:	00000021 	move	zero,zero
    9ca4:	3c08626f 	lui	t0,0x626f
    9ca8:	35089ad8 	ori	t0,t0,0x9ad8
    9cac:	0511ffed 	bgezal	t0,9c64 <n36_bgezal_test+0x9c64>
    9cb0:	00000000 	nop
    9cb4:	10000013 	b	9d04 <n36_bgezal_test+0x9d04>
    9cb8:	00000000 	nop
    9cbc:	00000000 	nop
    9cc0:	00000021 	move	zero,zero
    9cc4:	00000021 	move	zero,zero
    9cc8:	00000021 	move	zero,zero
    9ccc:	00000021 	move	zero,zero
    9cd0:	00000021 	move	zero,zero
    9cd4:	00000021 	move	zero,zero
    9cd8:	00000021 	move	zero,zero
    9cdc:	00000021 	move	zero,zero
    9ce0:	00000021 	move	zero,zero
    9ce4:	00000021 	move	zero,zero
    9ce8:	00000021 	move	zero,zero
    9cec:	00000021 	move	zero,zero
    9cf0:	00000021 	move	zero,zero
    9cf4:	00000021 	move	zero,zero
    9cf8:	00000021 	move	zero,zero
    9cfc:	3c12a51e 	lui	s2,0xa51e
    9d00:	365232c5 	ori	s2,s2,0x32c5
    9d04:	001fa021 	addu	s4,zero,ra
    9d08:	0015f821 	addu	ra,zero,s5
    9d0c:	3c150001 	lui	s5,0x1
    9d10:	26b59c6c 	addiu	s5,s5,-25492
    9d14:	3c160001 	lui	s6,0x1
    9d18:	26d69cac 	addiu	s6,s6,-25428
    9d1c:	3c180f79 	lui	t8,0xf79
    9d20:	37184fbe 	ori	t8,t8,0x4fbe
    9d24:	1618202e 	bne	s0,t8,11de0 <inst_error>
    9d28:	00000000 	nop
    9d2c:	00000000 	nop
    9d30:	3c18a51e 	lui	t8,0xa51e
    9d34:	371832c5 	ori	t8,t8,0x32c5
    9d38:	16582029 	bne	s2,t8,11de0 <inst_error>
    9d3c:	00000000 	nop
    9d40:	00000000 	nop
    9d44:	3c19bfc0 	lui	t9,0xbfc0
    9d48:	373954ac 	ori	t9,t9,0x54ac
    9d4c:	3c18bfc0 	lui	t8,0xbfc0
    9d50:	371854a4 	ori	t8,t8,0x54a4
    9d54:	27180008 	addiu	t8,t8,8
    9d58:	1319000a 	beq	t8,t9,9d84 <n36_bgezal_test+0x9d84>
    9d5c:	00000000 	nop
    9d60:	00000000 	nop
    9d64:	3c18bfc0 	lui	t8,0xbfc0
    9d68:	371854dc 	ori	t8,t8,0x54dc
    9d6c:	27180008 	addiu	t8,t8,8
    9d70:	1319000a 	beq	t8,t9,9d9c <n36_bgezal_test+0x9d9c>
    9d74:	00000000 	nop
    9d78:	10002019 	b	11de0 <inst_error>
    9d7c:	00000000 	nop
    9d80:	00000000 	nop
    9d84:	26b50008 	addiu	s5,s5,8
    9d88:	16952015 	bne	s4,s5,11de0 <inst_error>
    9d8c:	00000000 	nop
    9d90:	10000006 	b	9dac <n36_bgezal_test+0x9dac>
    9d94:	00000000 	nop
    9d98:	00000000 	nop
    9d9c:	26d60008 	addiu	s6,s6,8
    9da0:	1696200f 	bne	s4,s6,11de0 <inst_error>
    9da4:	00000000 	nop
	...
    9db0:	001fa821 	addu	s5,zero,ra
    9db4:	3c0c8470 	lui	t4,0x8470
    9db8:	358c7f22 	ori	t4,t4,0x7f22
    9dbc:	3c0d2986 	lui	t5,0x2986
    9dc0:	35add290 	ori	t5,t5,0xd290
    9dc4:	24100000 	li	s0,0
    9dc8:	10000012 	b	9e14 <n36_bgezal_test+0x9e14>
    9dcc:	24120000 	li	s2,0
    9dd0:	00000000 	nop
    9dd4:	3c108470 	lui	s0,0x8470
    9dd8:	36107f22 	ori	s0,s0,0x7f22
    9ddc:	05110023 	bgezal	t0,9e6c <n36_bgezal_test+0x9e6c>
    9de0:	00000000 	nop
    9de4:	10000023 	b	9e74 <n36_bgezal_test+0x9e74>
    9de8:	00000000 	nop
    9dec:	00000000 	nop
    9df0:	00000021 	move	zero,zero
    9df4:	00000021 	move	zero,zero
    9df8:	00000021 	move	zero,zero
    9dfc:	00000021 	move	zero,zero
    9e00:	00000021 	move	zero,zero
    9e04:	00000021 	move	zero,zero
    9e08:	00000021 	move	zero,zero
    9e0c:	00000021 	move	zero,zero
    9e10:	00000021 	move	zero,zero
    9e14:	3c084f57 	lui	t0,0x4f57
    9e18:	35089ee1 	ori	t0,t0,0x9ee1
    9e1c:	0511ffed 	bgezal	t0,9dd4 <n36_bgezal_test+0x9dd4>
    9e20:	00000000 	nop
    9e24:	10000013 	b	9e74 <n36_bgezal_test+0x9e74>
    9e28:	00000000 	nop
    9e2c:	00000000 	nop
    9e30:	00000021 	move	zero,zero
    9e34:	00000021 	move	zero,zero
    9e38:	00000021 	move	zero,zero
    9e3c:	00000021 	move	zero,zero
    9e40:	00000021 	move	zero,zero
    9e44:	00000021 	move	zero,zero
    9e48:	00000021 	move	zero,zero
    9e4c:	00000021 	move	zero,zero
    9e50:	00000021 	move	zero,zero
    9e54:	00000021 	move	zero,zero
    9e58:	00000021 	move	zero,zero
    9e5c:	00000021 	move	zero,zero
    9e60:	00000021 	move	zero,zero
    9e64:	00000021 	move	zero,zero
    9e68:	00000021 	move	zero,zero
    9e6c:	3c122986 	lui	s2,0x2986
    9e70:	3652d290 	ori	s2,s2,0xd290
    9e74:	001fa021 	addu	s4,zero,ra
    9e78:	0015f821 	addu	ra,zero,s5
    9e7c:	3c150001 	lui	s5,0x1
    9e80:	26b59ddc 	addiu	s5,s5,-25124
    9e84:	3c160001 	lui	s6,0x1
    9e88:	26d69e1c 	addiu	s6,s6,-25060
    9e8c:	3c188470 	lui	t8,0x8470
    9e90:	37187f22 	ori	t8,t8,0x7f22
    9e94:	16181fd2 	bne	s0,t8,11de0 <inst_error>
    9e98:	00000000 	nop
    9e9c:	00000000 	nop
    9ea0:	3c182986 	lui	t8,0x2986
    9ea4:	3718d290 	ori	t8,t8,0xd290
    9ea8:	16581fcd 	bne	s2,t8,11de0 <inst_error>
    9eac:	00000000 	nop
    9eb0:	00000000 	nop
    9eb4:	3c19bfc0 	lui	t9,0xbfc0
    9eb8:	37395568 	ori	t9,t9,0x5568
    9ebc:	3c18bfc0 	lui	t8,0xbfc0
    9ec0:	37185560 	ori	t8,t8,0x5560
    9ec4:	27180008 	addiu	t8,t8,8
    9ec8:	1319000a 	beq	t8,t9,9ef4 <n36_bgezal_test+0x9ef4>
    9ecc:	00000000 	nop
    9ed0:	00000000 	nop
    9ed4:	3c18bfc0 	lui	t8,0xbfc0
    9ed8:	37185598 	ori	t8,t8,0x5598
    9edc:	27180008 	addiu	t8,t8,8
    9ee0:	1319000a 	beq	t8,t9,9f0c <n36_bgezal_test+0x9f0c>
    9ee4:	00000000 	nop
    9ee8:	10001fbd 	b	11de0 <inst_error>
    9eec:	00000000 	nop
    9ef0:	00000000 	nop
    9ef4:	26b50008 	addiu	s5,s5,8
    9ef8:	16951fb9 	bne	s4,s5,11de0 <inst_error>
    9efc:	00000000 	nop
    9f00:	10000006 	b	9f1c <n36_bgezal_test+0x9f1c>
    9f04:	00000000 	nop
    9f08:	00000000 	nop
    9f0c:	26d60008 	addiu	s6,s6,8
    9f10:	16961fb3 	bne	s4,s6,11de0 <inst_error>
    9f14:	00000000 	nop
	...
    9f20:	001fa821 	addu	s5,zero,ra
    9f24:	3c0c7ef6 	lui	t4,0x7ef6
    9f28:	358cf91e 	ori	t4,t4,0xf91e
    9f2c:	3c0d459f 	lui	t5,0x459f
    9f30:	35ad7678 	ori	t5,t5,0x7678
    9f34:	24100000 	li	s0,0
    9f38:	10000012 	b	9f84 <n36_bgezal_test+0x9f84>
    9f3c:	24120000 	li	s2,0
    9f40:	00000000 	nop
    9f44:	3c107ef6 	lui	s0,0x7ef6
    9f48:	3610f91e 	ori	s0,s0,0xf91e
    9f4c:	05110023 	bgezal	t0,9fdc <n36_bgezal_test+0x9fdc>
    9f50:	00000000 	nop
    9f54:	10000023 	b	9fe4 <n36_bgezal_test+0x9fe4>
    9f58:	00000000 	nop
    9f5c:	00000000 	nop
    9f60:	00000021 	move	zero,zero
    9f64:	00000021 	move	zero,zero
    9f68:	00000021 	move	zero,zero
    9f6c:	00000021 	move	zero,zero
    9f70:	00000021 	move	zero,zero
    9f74:	00000021 	move	zero,zero
    9f78:	00000021 	move	zero,zero
    9f7c:	00000021 	move	zero,zero
    9f80:	00000021 	move	zero,zero
    9f84:	3c0876bf 	lui	t0,0x76bf
    9f88:	35083bd0 	ori	t0,t0,0x3bd0
    9f8c:	0511ffed 	bgezal	t0,9f44 <n36_bgezal_test+0x9f44>
    9f90:	00000000 	nop
    9f94:	10000013 	b	9fe4 <n36_bgezal_test+0x9fe4>
    9f98:	00000000 	nop
    9f9c:	00000000 	nop
    9fa0:	00000021 	move	zero,zero
    9fa4:	00000021 	move	zero,zero
    9fa8:	00000021 	move	zero,zero
    9fac:	00000021 	move	zero,zero
    9fb0:	00000021 	move	zero,zero
    9fb4:	00000021 	move	zero,zero
    9fb8:	00000021 	move	zero,zero
    9fbc:	00000021 	move	zero,zero
    9fc0:	00000021 	move	zero,zero
    9fc4:	00000021 	move	zero,zero
    9fc8:	00000021 	move	zero,zero
    9fcc:	00000021 	move	zero,zero
    9fd0:	00000021 	move	zero,zero
    9fd4:	00000021 	move	zero,zero
    9fd8:	00000021 	move	zero,zero
    9fdc:	3c12459f 	lui	s2,0x459f
    9fe0:	36527678 	ori	s2,s2,0x7678
    9fe4:	001fa021 	addu	s4,zero,ra
    9fe8:	0015f821 	addu	ra,zero,s5
    9fec:	3c150001 	lui	s5,0x1
    9ff0:	26b59f4c 	addiu	s5,s5,-24756
    9ff4:	3c160001 	lui	s6,0x1
    9ff8:	26d69f8c 	addiu	s6,s6,-24692
    9ffc:	3c187ef6 	lui	t8,0x7ef6
    a000:	3718f91e 	ori	t8,t8,0xf91e
    a004:	16181f76 	bne	s0,t8,11de0 <inst_error>
    a008:	00000000 	nop
    a00c:	00000000 	nop
    a010:	3c18459f 	lui	t8,0x459f
    a014:	37187678 	ori	t8,t8,0x7678
    a018:	16581f71 	bne	s2,t8,11de0 <inst_error>
    a01c:	00000000 	nop
    a020:	00000000 	nop
    a024:	3c19bfc0 	lui	t9,0xbfc0
    a028:	37395624 	ori	t9,t9,0x5624
    a02c:	3c18bfc0 	lui	t8,0xbfc0
    a030:	3718561c 	ori	t8,t8,0x561c
    a034:	27180008 	addiu	t8,t8,8
    a038:	1319000a 	beq	t8,t9,a064 <n36_bgezal_test+0xa064>
    a03c:	00000000 	nop
    a040:	00000000 	nop
    a044:	3c18bfc0 	lui	t8,0xbfc0
    a048:	37185654 	ori	t8,t8,0x5654
    a04c:	27180008 	addiu	t8,t8,8
    a050:	1319000a 	beq	t8,t9,a07c <n36_bgezal_test+0xa07c>
    a054:	00000000 	nop
    a058:	10001f61 	b	11de0 <inst_error>
    a05c:	00000000 	nop
    a060:	00000000 	nop
    a064:	26b50008 	addiu	s5,s5,8
    a068:	16951f5d 	bne	s4,s5,11de0 <inst_error>
    a06c:	00000000 	nop
    a070:	10000006 	b	a08c <n36_bgezal_test+0xa08c>
    a074:	00000000 	nop
    a078:	00000000 	nop
    a07c:	26d60008 	addiu	s6,s6,8
    a080:	16961f57 	bne	s4,s6,11de0 <inst_error>
    a084:	00000000 	nop
	...
    a090:	001fa821 	addu	s5,zero,ra
    a094:	3c0cfbba 	lui	t4,0xfbba
    a098:	358c8330 	ori	t4,t4,0x8330
    a09c:	3c0d67cc 	lui	t5,0x67cc
    a0a0:	35ad1de8 	ori	t5,t5,0x1de8
    a0a4:	24100000 	li	s0,0
    a0a8:	10000012 	b	a0f4 <n36_bgezal_test+0xa0f4>
    a0ac:	24120000 	li	s2,0
    a0b0:	00000000 	nop
    a0b4:	3c10fbba 	lui	s0,0xfbba
    a0b8:	36108330 	ori	s0,s0,0x8330
    a0bc:	05110023 	bgezal	t0,a14c <n36_bgezal_test+0xa14c>
    a0c0:	00000000 	nop
    a0c4:	10000023 	b	a154 <n36_bgezal_test+0xa154>
    a0c8:	00000000 	nop
    a0cc:	00000000 	nop
    a0d0:	00000021 	move	zero,zero
    a0d4:	00000021 	move	zero,zero
    a0d8:	00000021 	move	zero,zero
    a0dc:	00000021 	move	zero,zero
    a0e0:	00000021 	move	zero,zero
    a0e4:	00000021 	move	zero,zero
    a0e8:	00000021 	move	zero,zero
    a0ec:	00000021 	move	zero,zero
    a0f0:	00000021 	move	zero,zero
    a0f4:	3c087fef 	lui	t0,0x7fef
    a0f8:	3508cdfc 	ori	t0,t0,0xcdfc
    a0fc:	0511ffed 	bgezal	t0,a0b4 <n36_bgezal_test+0xa0b4>
    a100:	00000000 	nop
    a104:	10000013 	b	a154 <n36_bgezal_test+0xa154>
    a108:	00000000 	nop
    a10c:	00000000 	nop
    a110:	00000021 	move	zero,zero
    a114:	00000021 	move	zero,zero
    a118:	00000021 	move	zero,zero
    a11c:	00000021 	move	zero,zero
    a120:	00000021 	move	zero,zero
    a124:	00000021 	move	zero,zero
    a128:	00000021 	move	zero,zero
    a12c:	00000021 	move	zero,zero
    a130:	00000021 	move	zero,zero
    a134:	00000021 	move	zero,zero
    a138:	00000021 	move	zero,zero
    a13c:	00000021 	move	zero,zero
    a140:	00000021 	move	zero,zero
    a144:	00000021 	move	zero,zero
    a148:	00000021 	move	zero,zero
    a14c:	3c1267cc 	lui	s2,0x67cc
    a150:	36521de8 	ori	s2,s2,0x1de8
    a154:	001fa021 	addu	s4,zero,ra
    a158:	0015f821 	addu	ra,zero,s5
    a15c:	3c150001 	lui	s5,0x1
    a160:	26b5a0bc 	addiu	s5,s5,-24388
    a164:	3c160001 	lui	s6,0x1
    a168:	26d6a0fc 	addiu	s6,s6,-24324
    a16c:	3c18fbba 	lui	t8,0xfbba
    a170:	37188330 	ori	t8,t8,0x8330
    a174:	16181f1a 	bne	s0,t8,11de0 <inst_error>
    a178:	00000000 	nop
    a17c:	00000000 	nop
    a180:	3c1867cc 	lui	t8,0x67cc
    a184:	37181de8 	ori	t8,t8,0x1de8
    a188:	16581f15 	bne	s2,t8,11de0 <inst_error>
    a18c:	00000000 	nop
    a190:	00000000 	nop
    a194:	3c19bfc0 	lui	t9,0xbfc0
    a198:	373956e0 	ori	t9,t9,0x56e0
    a19c:	3c18bfc0 	lui	t8,0xbfc0
    a1a0:	371856d8 	ori	t8,t8,0x56d8
    a1a4:	27180008 	addiu	t8,t8,8
    a1a8:	1319000a 	beq	t8,t9,a1d4 <n36_bgezal_test+0xa1d4>
    a1ac:	00000000 	nop
    a1b0:	00000000 	nop
    a1b4:	3c18bfc0 	lui	t8,0xbfc0
    a1b8:	37185710 	ori	t8,t8,0x5710
    a1bc:	27180008 	addiu	t8,t8,8
    a1c0:	1319000a 	beq	t8,t9,a1ec <n36_bgezal_test+0xa1ec>
    a1c4:	00000000 	nop
    a1c8:	10001f05 	b	11de0 <inst_error>
    a1cc:	00000000 	nop
    a1d0:	00000000 	nop
    a1d4:	26b50008 	addiu	s5,s5,8
    a1d8:	16951f01 	bne	s4,s5,11de0 <inst_error>
    a1dc:	00000000 	nop
    a1e0:	10000006 	b	a1fc <n36_bgezal_test+0xa1fc>
    a1e4:	00000000 	nop
    a1e8:	00000000 	nop
    a1ec:	26d60008 	addiu	s6,s6,8
    a1f0:	16961efb 	bne	s4,s6,11de0 <inst_error>
    a1f4:	00000000 	nop
	...
    a200:	001fa821 	addu	s5,zero,ra
    a204:	3c0c122c 	lui	t4,0x122c
    a208:	358c9730 	ori	t4,t4,0x9730
    a20c:	3c0d9d2d 	lui	t5,0x9d2d
    a210:	35ad92cb 	ori	t5,t5,0x92cb
    a214:	24100000 	li	s0,0
    a218:	10000012 	b	a264 <n36_bgezal_test+0xa264>
    a21c:	24120000 	li	s2,0
    a220:	00000000 	nop
    a224:	3c10122c 	lui	s0,0x122c
    a228:	36109730 	ori	s0,s0,0x9730
    a22c:	05110023 	bgezal	t0,a2bc <n36_bgezal_test+0xa2bc>
    a230:	00000000 	nop
    a234:	10000023 	b	a2c4 <n36_bgezal_test+0xa2c4>
    a238:	00000000 	nop
    a23c:	00000000 	nop
    a240:	00000021 	move	zero,zero
    a244:	00000021 	move	zero,zero
    a248:	00000021 	move	zero,zero
    a24c:	00000021 	move	zero,zero
    a250:	00000021 	move	zero,zero
    a254:	00000021 	move	zero,zero
    a258:	00000021 	move	zero,zero
    a25c:	00000021 	move	zero,zero
    a260:	00000021 	move	zero,zero
    a264:	3c08c7f9 	lui	t0,0xc7f9
    a268:	35087c10 	ori	t0,t0,0x7c10
    a26c:	0511ffed 	bgezal	t0,a224 <n36_bgezal_test+0xa224>
    a270:	00000000 	nop
    a274:	10000013 	b	a2c4 <n36_bgezal_test+0xa2c4>
    a278:	00000000 	nop
    a27c:	00000000 	nop
    a280:	00000021 	move	zero,zero
    a284:	00000021 	move	zero,zero
    a288:	00000021 	move	zero,zero
    a28c:	00000021 	move	zero,zero
    a290:	00000021 	move	zero,zero
    a294:	00000021 	move	zero,zero
    a298:	00000021 	move	zero,zero
    a29c:	00000021 	move	zero,zero
    a2a0:	00000021 	move	zero,zero
    a2a4:	00000021 	move	zero,zero
    a2a8:	00000021 	move	zero,zero
    a2ac:	00000021 	move	zero,zero
    a2b0:	00000021 	move	zero,zero
    a2b4:	00000021 	move	zero,zero
    a2b8:	00000021 	move	zero,zero
    a2bc:	3c129d2d 	lui	s2,0x9d2d
    a2c0:	365292cb 	ori	s2,s2,0x92cb
    a2c4:	001fa021 	addu	s4,zero,ra
    a2c8:	0015f821 	addu	ra,zero,s5
    a2cc:	3c150001 	lui	s5,0x1
    a2d0:	26b5a22c 	addiu	s5,s5,-24020
    a2d4:	3c160001 	lui	s6,0x1
    a2d8:	26d6a26c 	addiu	s6,s6,-23956
    a2dc:	24180000 	li	t8,0
    a2e0:	16181ebf 	bne	s0,t8,11de0 <inst_error>
    a2e4:	00000000 	nop
    a2e8:	00000000 	nop
    a2ec:	24180000 	li	t8,0
    a2f0:	16581ebb 	bne	s2,t8,11de0 <inst_error>
    a2f4:	00000000 	nop
    a2f8:	00000000 	nop
    a2fc:	3c19bfc0 	lui	t9,0xbfc0
    a300:	373957d4 	ori	t9,t9,0x57d4
    a304:	3c18bfc0 	lui	t8,0xbfc0
    a308:	37185794 	ori	t8,t8,0x5794
    a30c:	27180008 	addiu	t8,t8,8
    a310:	1319000a 	beq	t8,t9,a33c <n36_bgezal_test+0xa33c>
    a314:	00000000 	nop
    a318:	00000000 	nop
    a31c:	3c18bfc0 	lui	t8,0xbfc0
    a320:	371857cc 	ori	t8,t8,0x57cc
    a324:	27180008 	addiu	t8,t8,8
    a328:	1319000a 	beq	t8,t9,a354 <n36_bgezal_test+0xa354>
    a32c:	00000000 	nop
    a330:	10001eab 	b	11de0 <inst_error>
    a334:	00000000 	nop
    a338:	00000000 	nop
    a33c:	26b50008 	addiu	s5,s5,8
    a340:	16951ea7 	bne	s4,s5,11de0 <inst_error>
    a344:	00000000 	nop
    a348:	10000006 	b	a364 <n36_bgezal_test+0xa364>
    a34c:	00000000 	nop
    a350:	00000000 	nop
    a354:	26d60008 	addiu	s6,s6,8
    a358:	16961ea1 	bne	s4,s6,11de0 <inst_error>
    a35c:	00000000 	nop
	...
    a368:	001fa821 	addu	s5,zero,ra
    a36c:	3c0c84d7 	lui	t4,0x84d7
    a370:	358c1d28 	ori	t4,t4,0x1d28
    a374:	3c0d4fe8 	lui	t5,0x4fe8
    a378:	35adde78 	ori	t5,t5,0xde78
    a37c:	24100000 	li	s0,0
    a380:	10000012 	b	a3cc <n36_bgezal_test+0xa3cc>
    a384:	24120000 	li	s2,0
    a388:	00000000 	nop
    a38c:	3c1084d7 	lui	s0,0x84d7
    a390:	36101d28 	ori	s0,s0,0x1d28
    a394:	05110023 	bgezal	t0,a424 <n36_bgezal_test+0xa424>
    a398:	00000000 	nop
    a39c:	10000023 	b	a42c <n36_bgezal_test+0xa42c>
    a3a0:	00000000 	nop
    a3a4:	00000000 	nop
    a3a8:	00000021 	move	zero,zero
    a3ac:	00000021 	move	zero,zero
    a3b0:	00000021 	move	zero,zero
    a3b4:	00000021 	move	zero,zero
    a3b8:	00000021 	move	zero,zero
    a3bc:	00000021 	move	zero,zero
    a3c0:	00000021 	move	zero,zero
    a3c4:	00000021 	move	zero,zero
    a3c8:	00000021 	move	zero,zero
    a3cc:	3c089806 	lui	t0,0x9806
    a3d0:	35087158 	ori	t0,t0,0x7158
    a3d4:	0511ffed 	bgezal	t0,a38c <n36_bgezal_test+0xa38c>
    a3d8:	00000000 	nop
    a3dc:	10000013 	b	a42c <n36_bgezal_test+0xa42c>
    a3e0:	00000000 	nop
    a3e4:	00000000 	nop
    a3e8:	00000021 	move	zero,zero
    a3ec:	00000021 	move	zero,zero
    a3f0:	00000021 	move	zero,zero
    a3f4:	00000021 	move	zero,zero
    a3f8:	00000021 	move	zero,zero
    a3fc:	00000021 	move	zero,zero
    a400:	00000021 	move	zero,zero
    a404:	00000021 	move	zero,zero
    a408:	00000021 	move	zero,zero
    a40c:	00000021 	move	zero,zero
    a410:	00000021 	move	zero,zero
    a414:	00000021 	move	zero,zero
    a418:	00000021 	move	zero,zero
    a41c:	00000021 	move	zero,zero
    a420:	00000021 	move	zero,zero
    a424:	3c124fe8 	lui	s2,0x4fe8
    a428:	3652de78 	ori	s2,s2,0xde78
    a42c:	001fa021 	addu	s4,zero,ra
    a430:	0015f821 	addu	ra,zero,s5
    a434:	3c150001 	lui	s5,0x1
    a438:	26b5a394 	addiu	s5,s5,-23660
    a43c:	3c160001 	lui	s6,0x1
    a440:	26d6a3d4 	addiu	s6,s6,-23596
    a444:	24180000 	li	t8,0
    a448:	16181e65 	bne	s0,t8,11de0 <inst_error>
    a44c:	00000000 	nop
    a450:	00000000 	nop
    a454:	24180000 	li	t8,0
    a458:	16581e61 	bne	s2,t8,11de0 <inst_error>
    a45c:	00000000 	nop
    a460:	00000000 	nop
    a464:	3c19bfc0 	lui	t9,0xbfc0
    a468:	37395890 	ori	t9,t9,0x5890
    a46c:	3c18bfc0 	lui	t8,0xbfc0
    a470:	37185850 	ori	t8,t8,0x5850
    a474:	27180008 	addiu	t8,t8,8
    a478:	1319000a 	beq	t8,t9,a4a4 <n36_bgezal_test+0xa4a4>
    a47c:	00000000 	nop
    a480:	00000000 	nop
    a484:	3c18bfc0 	lui	t8,0xbfc0
    a488:	37185888 	ori	t8,t8,0x5888
    a48c:	27180008 	addiu	t8,t8,8
    a490:	1319000a 	beq	t8,t9,a4bc <n36_bgezal_test+0xa4bc>
    a494:	00000000 	nop
    a498:	10001e51 	b	11de0 <inst_error>
    a49c:	00000000 	nop
    a4a0:	00000000 	nop
    a4a4:	26b50008 	addiu	s5,s5,8
    a4a8:	16951e4d 	bne	s4,s5,11de0 <inst_error>
    a4ac:	00000000 	nop
    a4b0:	10000006 	b	a4cc <n36_bgezal_test+0xa4cc>
    a4b4:	00000000 	nop
    a4b8:	00000000 	nop
    a4bc:	26d60008 	addiu	s6,s6,8
    a4c0:	16961e47 	bne	s4,s6,11de0 <inst_error>
    a4c4:	00000000 	nop
	...
    a4d0:	001fa821 	addu	s5,zero,ra
    a4d4:	3c0c522c 	lui	t4,0x522c
    a4d8:	358cff60 	ori	t4,t4,0xff60
    a4dc:	3c0dacbe 	lui	t5,0xacbe
    a4e0:	35ad58f0 	ori	t5,t5,0x58f0
    a4e4:	24100000 	li	s0,0
    a4e8:	10000012 	b	a534 <n36_bgezal_test+0xa534>
    a4ec:	24120000 	li	s2,0
    a4f0:	00000000 	nop
    a4f4:	3c10522c 	lui	s0,0x522c
    a4f8:	3610ff60 	ori	s0,s0,0xff60
    a4fc:	05110023 	bgezal	t0,a58c <n36_bgezal_test+0xa58c>
    a500:	00000000 	nop
    a504:	10000023 	b	a594 <n36_bgezal_test+0xa594>
    a508:	00000000 	nop
    a50c:	00000000 	nop
    a510:	00000021 	move	zero,zero
    a514:	00000021 	move	zero,zero
    a518:	00000021 	move	zero,zero
    a51c:	00000021 	move	zero,zero
    a520:	00000021 	move	zero,zero
    a524:	00000021 	move	zero,zero
    a528:	00000021 	move	zero,zero
    a52c:	00000021 	move	zero,zero
    a530:	00000021 	move	zero,zero
    a534:	3c08ccfe 	lui	t0,0xccfe
    a538:	3508e4dc 	ori	t0,t0,0xe4dc
    a53c:	0511ffed 	bgezal	t0,a4f4 <n36_bgezal_test+0xa4f4>
    a540:	00000000 	nop
    a544:	10000013 	b	a594 <n36_bgezal_test+0xa594>
    a548:	00000000 	nop
    a54c:	00000000 	nop
    a550:	00000021 	move	zero,zero
    a554:	00000021 	move	zero,zero
    a558:	00000021 	move	zero,zero
    a55c:	00000021 	move	zero,zero
    a560:	00000021 	move	zero,zero
    a564:	00000021 	move	zero,zero
    a568:	00000021 	move	zero,zero
    a56c:	00000021 	move	zero,zero
    a570:	00000021 	move	zero,zero
    a574:	00000021 	move	zero,zero
    a578:	00000021 	move	zero,zero
    a57c:	00000021 	move	zero,zero
    a580:	00000021 	move	zero,zero
    a584:	00000021 	move	zero,zero
    a588:	00000021 	move	zero,zero
    a58c:	3c12acbe 	lui	s2,0xacbe
    a590:	365258f0 	ori	s2,s2,0x58f0
    a594:	001fa021 	addu	s4,zero,ra
    a598:	0015f821 	addu	ra,zero,s5
    a59c:	3c150001 	lui	s5,0x1
    a5a0:	26b5a4fc 	addiu	s5,s5,-23300
    a5a4:	3c160001 	lui	s6,0x1
    a5a8:	26d6a53c 	addiu	s6,s6,-23236
    a5ac:	24180000 	li	t8,0
    a5b0:	16181e0b 	bne	s0,t8,11de0 <inst_error>
    a5b4:	00000000 	nop
    a5b8:	00000000 	nop
    a5bc:	24180000 	li	t8,0
    a5c0:	16581e07 	bne	s2,t8,11de0 <inst_error>
    a5c4:	00000000 	nop
    a5c8:	00000000 	nop
    a5cc:	3c19bfc0 	lui	t9,0xbfc0
    a5d0:	3739594c 	ori	t9,t9,0x594c
    a5d4:	3c18bfc0 	lui	t8,0xbfc0
    a5d8:	3718590c 	ori	t8,t8,0x590c
    a5dc:	27180008 	addiu	t8,t8,8
    a5e0:	1319000a 	beq	t8,t9,a60c <n36_bgezal_test+0xa60c>
    a5e4:	00000000 	nop
    a5e8:	00000000 	nop
    a5ec:	3c18bfc0 	lui	t8,0xbfc0
    a5f0:	37185944 	ori	t8,t8,0x5944
    a5f4:	27180008 	addiu	t8,t8,8
    a5f8:	1319000a 	beq	t8,t9,a624 <n36_bgezal_test+0xa624>
    a5fc:	00000000 	nop
    a600:	10001df7 	b	11de0 <inst_error>
    a604:	00000000 	nop
    a608:	00000000 	nop
    a60c:	26b50008 	addiu	s5,s5,8
    a610:	16951df3 	bne	s4,s5,11de0 <inst_error>
    a614:	00000000 	nop
    a618:	10000006 	b	a634 <n36_bgezal_test+0xa634>
    a61c:	00000000 	nop
    a620:	00000000 	nop
    a624:	26d60008 	addiu	s6,s6,8
    a628:	16961ded 	bne	s4,s6,11de0 <inst_error>
    a62c:	00000000 	nop
	...
    a638:	001fa821 	addu	s5,zero,ra
    a63c:	3c0c387f 	lui	t4,0x387f
    a640:	358c5a58 	ori	t4,t4,0x5a58
    a644:	3c0d8ed6 	lui	t5,0x8ed6
    a648:	35ad2e39 	ori	t5,t5,0x2e39
    a64c:	24100000 	li	s0,0
    a650:	10000012 	b	a69c <n36_bgezal_test+0xa69c>
    a654:	24120000 	li	s2,0
    a658:	00000000 	nop
    a65c:	3c10387f 	lui	s0,0x387f
    a660:	36105a58 	ori	s0,s0,0x5a58
    a664:	05110023 	bgezal	t0,a6f4 <n36_bgezal_test+0xa6f4>
    a668:	00000000 	nop
    a66c:	10000023 	b	a6fc <n36_bgezal_test+0xa6fc>
    a670:	00000000 	nop
    a674:	00000000 	nop
    a678:	00000021 	move	zero,zero
    a67c:	00000021 	move	zero,zero
    a680:	00000021 	move	zero,zero
    a684:	00000021 	move	zero,zero
    a688:	00000021 	move	zero,zero
    a68c:	00000021 	move	zero,zero
    a690:	00000021 	move	zero,zero
    a694:	00000021 	move	zero,zero
    a698:	00000021 	move	zero,zero
    a69c:	3c088d4b 	lui	t0,0x8d4b
    a6a0:	3508877a 	ori	t0,t0,0x877a
    a6a4:	0511ffed 	bgezal	t0,a65c <n36_bgezal_test+0xa65c>
    a6a8:	00000000 	nop
    a6ac:	10000013 	b	a6fc <n36_bgezal_test+0xa6fc>
    a6b0:	00000000 	nop
    a6b4:	00000000 	nop
    a6b8:	00000021 	move	zero,zero
    a6bc:	00000021 	move	zero,zero
    a6c0:	00000021 	move	zero,zero
    a6c4:	00000021 	move	zero,zero
    a6c8:	00000021 	move	zero,zero
    a6cc:	00000021 	move	zero,zero
    a6d0:	00000021 	move	zero,zero
    a6d4:	00000021 	move	zero,zero
    a6d8:	00000021 	move	zero,zero
    a6dc:	00000021 	move	zero,zero
    a6e0:	00000021 	move	zero,zero
    a6e4:	00000021 	move	zero,zero
    a6e8:	00000021 	move	zero,zero
    a6ec:	00000021 	move	zero,zero
    a6f0:	00000021 	move	zero,zero
    a6f4:	3c128ed6 	lui	s2,0x8ed6
    a6f8:	36522e39 	ori	s2,s2,0x2e39
    a6fc:	001fa021 	addu	s4,zero,ra
    a700:	0015f821 	addu	ra,zero,s5
    a704:	3c150001 	lui	s5,0x1
    a708:	26b5a664 	addiu	s5,s5,-22940
    a70c:	3c160001 	lui	s6,0x1
    a710:	26d6a6a4 	addiu	s6,s6,-22876
    a714:	24180000 	li	t8,0
    a718:	16181db1 	bne	s0,t8,11de0 <inst_error>
    a71c:	00000000 	nop
    a720:	00000000 	nop
    a724:	24180000 	li	t8,0
    a728:	16581dad 	bne	s2,t8,11de0 <inst_error>
    a72c:	00000000 	nop
    a730:	00000000 	nop
    a734:	3c19bfc0 	lui	t9,0xbfc0
    a738:	37395a08 	ori	t9,t9,0x5a08
    a73c:	3c18bfc0 	lui	t8,0xbfc0
    a740:	371859c8 	ori	t8,t8,0x59c8
    a744:	27180008 	addiu	t8,t8,8
    a748:	1319000a 	beq	t8,t9,a774 <n36_bgezal_test+0xa774>
    a74c:	00000000 	nop
    a750:	00000000 	nop
    a754:	3c18bfc0 	lui	t8,0xbfc0
    a758:	37185a00 	ori	t8,t8,0x5a00
    a75c:	27180008 	addiu	t8,t8,8
    a760:	1319000a 	beq	t8,t9,a78c <n36_bgezal_test+0xa78c>
    a764:	00000000 	nop
    a768:	10001d9d 	b	11de0 <inst_error>
    a76c:	00000000 	nop
    a770:	00000000 	nop
    a774:	26b50008 	addiu	s5,s5,8
    a778:	16951d99 	bne	s4,s5,11de0 <inst_error>
    a77c:	00000000 	nop
    a780:	10000006 	b	a79c <n36_bgezal_test+0xa79c>
    a784:	00000000 	nop
    a788:	00000000 	nop
    a78c:	26d60008 	addiu	s6,s6,8
    a790:	16961d93 	bne	s4,s6,11de0 <inst_error>
    a794:	00000000 	nop
	...
    a7a0:	001fa821 	addu	s5,zero,ra
    a7a4:	3c0c72a1 	lui	t4,0x72a1
    a7a8:	358cd604 	ori	t4,t4,0xd604
    a7ac:	3c0deea7 	lui	t5,0xeea7
    a7b0:	35adaa9e 	ori	t5,t5,0xaa9e
    a7b4:	24100000 	li	s0,0
    a7b8:	10000012 	b	a804 <n36_bgezal_test+0xa804>
    a7bc:	24120000 	li	s2,0
    a7c0:	00000000 	nop
    a7c4:	3c1072a1 	lui	s0,0x72a1
    a7c8:	3610d604 	ori	s0,s0,0xd604
    a7cc:	05110023 	bgezal	t0,a85c <n36_bgezal_test+0xa85c>
    a7d0:	00000000 	nop
    a7d4:	10000023 	b	a864 <n36_bgezal_test+0xa864>
    a7d8:	00000000 	nop
    a7dc:	00000000 	nop
    a7e0:	00000021 	move	zero,zero
    a7e4:	00000021 	move	zero,zero
    a7e8:	00000021 	move	zero,zero
    a7ec:	00000021 	move	zero,zero
    a7f0:	00000021 	move	zero,zero
    a7f4:	00000021 	move	zero,zero
    a7f8:	00000021 	move	zero,zero
    a7fc:	00000021 	move	zero,zero
    a800:	00000021 	move	zero,zero
    a804:	3c08f347 	lui	t0,0xf347
    a808:	3508705c 	ori	t0,t0,0x705c
    a80c:	0511ffed 	bgezal	t0,a7c4 <n36_bgezal_test+0xa7c4>
    a810:	00000000 	nop
    a814:	10000013 	b	a864 <n36_bgezal_test+0xa864>
    a818:	00000000 	nop
    a81c:	00000000 	nop
    a820:	00000021 	move	zero,zero
    a824:	00000021 	move	zero,zero
    a828:	00000021 	move	zero,zero
    a82c:	00000021 	move	zero,zero
    a830:	00000021 	move	zero,zero
    a834:	00000021 	move	zero,zero
    a838:	00000021 	move	zero,zero
    a83c:	00000021 	move	zero,zero
    a840:	00000021 	move	zero,zero
    a844:	00000021 	move	zero,zero
    a848:	00000021 	move	zero,zero
    a84c:	00000021 	move	zero,zero
    a850:	00000021 	move	zero,zero
    a854:	00000021 	move	zero,zero
    a858:	00000021 	move	zero,zero
    a85c:	3c12eea7 	lui	s2,0xeea7
    a860:	3652aa9e 	ori	s2,s2,0xaa9e
    a864:	001fa021 	addu	s4,zero,ra
    a868:	0015f821 	addu	ra,zero,s5
    a86c:	3c150001 	lui	s5,0x1
    a870:	26b5a7cc 	addiu	s5,s5,-22580
    a874:	3c160001 	lui	s6,0x1
    a878:	26d6a80c 	addiu	s6,s6,-22516
    a87c:	24180000 	li	t8,0
    a880:	16181d57 	bne	s0,t8,11de0 <inst_error>
    a884:	00000000 	nop
    a888:	00000000 	nop
    a88c:	24180000 	li	t8,0
    a890:	16581d53 	bne	s2,t8,11de0 <inst_error>
    a894:	00000000 	nop
    a898:	00000000 	nop
    a89c:	3c19bfc0 	lui	t9,0xbfc0
    a8a0:	37395ac4 	ori	t9,t9,0x5ac4
    a8a4:	3c18bfc0 	lui	t8,0xbfc0
    a8a8:	37185a84 	ori	t8,t8,0x5a84
    a8ac:	27180008 	addiu	t8,t8,8
    a8b0:	1319000a 	beq	t8,t9,a8dc <n36_bgezal_test+0xa8dc>
    a8b4:	00000000 	nop
    a8b8:	00000000 	nop
    a8bc:	3c18bfc0 	lui	t8,0xbfc0
    a8c0:	37185abc 	ori	t8,t8,0x5abc
    a8c4:	27180008 	addiu	t8,t8,8
    a8c8:	1319000a 	beq	t8,t9,a8f4 <n36_bgezal_test+0xa8f4>
    a8cc:	00000000 	nop
    a8d0:	10001d43 	b	11de0 <inst_error>
    a8d4:	00000000 	nop
    a8d8:	00000000 	nop
    a8dc:	26b50008 	addiu	s5,s5,8
    a8e0:	16951d3f 	bne	s4,s5,11de0 <inst_error>
    a8e4:	00000000 	nop
    a8e8:	10000006 	b	a904 <n36_bgezal_test+0xa904>
    a8ec:	00000000 	nop
    a8f0:	00000000 	nop
    a8f4:	26d60008 	addiu	s6,s6,8
    a8f8:	16961d39 	bne	s4,s6,11de0 <inst_error>
    a8fc:	00000000 	nop
	...
    a908:	001fa821 	addu	s5,zero,ra
    a90c:	3c0c9bde 	lui	t4,0x9bde
    a910:	358cfb1c 	ori	t4,t4,0xfb1c
    a914:	3c0d5996 	lui	t5,0x5996
    a918:	35adb860 	ori	t5,t5,0xb860
    a91c:	24100000 	li	s0,0
    a920:	10000012 	b	a96c <n36_bgezal_test+0xa96c>
    a924:	24120000 	li	s2,0
    a928:	00000000 	nop
    a92c:	3c109bde 	lui	s0,0x9bde
    a930:	3610fb1c 	ori	s0,s0,0xfb1c
    a934:	05110023 	bgezal	t0,a9c4 <n36_bgezal_test+0xa9c4>
    a938:	00000000 	nop
    a93c:	10000023 	b	a9cc <n36_bgezal_test+0xa9cc>
    a940:	00000000 	nop
    a944:	00000000 	nop
    a948:	00000021 	move	zero,zero
    a94c:	00000021 	move	zero,zero
    a950:	00000021 	move	zero,zero
    a954:	00000021 	move	zero,zero
    a958:	00000021 	move	zero,zero
    a95c:	00000021 	move	zero,zero
    a960:	00000021 	move	zero,zero
    a964:	00000021 	move	zero,zero
    a968:	00000021 	move	zero,zero
    a96c:	3c083be3 	lui	t0,0x3be3
    a970:	3508db68 	ori	t0,t0,0xdb68
    a974:	0511ffed 	bgezal	t0,a92c <n36_bgezal_test+0xa92c>
    a978:	00000000 	nop
    a97c:	10000013 	b	a9cc <n36_bgezal_test+0xa9cc>
    a980:	00000000 	nop
    a984:	00000000 	nop
    a988:	00000021 	move	zero,zero
    a98c:	00000021 	move	zero,zero
    a990:	00000021 	move	zero,zero
    a994:	00000021 	move	zero,zero
    a998:	00000021 	move	zero,zero
    a99c:	00000021 	move	zero,zero
    a9a0:	00000021 	move	zero,zero
    a9a4:	00000021 	move	zero,zero
    a9a8:	00000021 	move	zero,zero
    a9ac:	00000021 	move	zero,zero
    a9b0:	00000021 	move	zero,zero
    a9b4:	00000021 	move	zero,zero
    a9b8:	00000021 	move	zero,zero
    a9bc:	00000021 	move	zero,zero
    a9c0:	00000021 	move	zero,zero
    a9c4:	3c125996 	lui	s2,0x5996
    a9c8:	3652b860 	ori	s2,s2,0xb860
    a9cc:	001fa021 	addu	s4,zero,ra
    a9d0:	0015f821 	addu	ra,zero,s5
    a9d4:	3c150001 	lui	s5,0x1
    a9d8:	26b5a934 	addiu	s5,s5,-22220
    a9dc:	3c160001 	lui	s6,0x1
    a9e0:	26d6a974 	addiu	s6,s6,-22156
    a9e4:	3c189bde 	lui	t8,0x9bde
    a9e8:	3718fb1c 	ori	t8,t8,0xfb1c
    a9ec:	16181cfc 	bne	s0,t8,11de0 <inst_error>
    a9f0:	00000000 	nop
    a9f4:	00000000 	nop
    a9f8:	3c185996 	lui	t8,0x5996
    a9fc:	3718b860 	ori	t8,t8,0xb860
    aa00:	16581cf7 	bne	s2,t8,11de0 <inst_error>
    aa04:	00000000 	nop
    aa08:	00000000 	nop
    aa0c:	3c19bfc0 	lui	t9,0xbfc0
    aa10:	37395b48 	ori	t9,t9,0x5b48
    aa14:	3c18bfc0 	lui	t8,0xbfc0
    aa18:	37185b40 	ori	t8,t8,0x5b40
    aa1c:	27180008 	addiu	t8,t8,8
    aa20:	1319000a 	beq	t8,t9,aa4c <n36_bgezal_test+0xaa4c>
    aa24:	00000000 	nop
    aa28:	00000000 	nop
    aa2c:	3c18bfc0 	lui	t8,0xbfc0
    aa30:	37185b78 	ori	t8,t8,0x5b78
    aa34:	27180008 	addiu	t8,t8,8
    aa38:	1319000a 	beq	t8,t9,aa64 <n36_bgezal_test+0xaa64>
    aa3c:	00000000 	nop
    aa40:	10001ce7 	b	11de0 <inst_error>
    aa44:	00000000 	nop
    aa48:	00000000 	nop
    aa4c:	26b50008 	addiu	s5,s5,8
    aa50:	16951ce3 	bne	s4,s5,11de0 <inst_error>
    aa54:	00000000 	nop
    aa58:	10000006 	b	aa74 <n36_bgezal_test+0xaa74>
    aa5c:	00000000 	nop
    aa60:	00000000 	nop
    aa64:	26d60008 	addiu	s6,s6,8
    aa68:	16961cdd 	bne	s4,s6,11de0 <inst_error>
    aa6c:	00000000 	nop
	...
    aa78:	001fa821 	addu	s5,zero,ra
    aa7c:	3c0c7e16 	lui	t4,0x7e16
    aa80:	358c6bf8 	ori	t4,t4,0x6bf8
    aa84:	3c0d2691 	lui	t5,0x2691
    aa88:	35ad1a30 	ori	t5,t5,0x1a30
    aa8c:	24100000 	li	s0,0
    aa90:	10000012 	b	aadc <n36_bgezal_test+0xaadc>
    aa94:	24120000 	li	s2,0
    aa98:	00000000 	nop
    aa9c:	3c107e16 	lui	s0,0x7e16
    aaa0:	36106bf8 	ori	s0,s0,0x6bf8
    aaa4:	05110023 	bgezal	t0,ab34 <n36_bgezal_test+0xab34>
    aaa8:	00000000 	nop
    aaac:	10000023 	b	ab3c <n36_bgezal_test+0xab3c>
    aab0:	00000000 	nop
    aab4:	00000000 	nop
    aab8:	00000021 	move	zero,zero
    aabc:	00000021 	move	zero,zero
    aac0:	00000021 	move	zero,zero
    aac4:	00000021 	move	zero,zero
    aac8:	00000021 	move	zero,zero
    aacc:	00000021 	move	zero,zero
    aad0:	00000021 	move	zero,zero
    aad4:	00000021 	move	zero,zero
    aad8:	00000021 	move	zero,zero
    aadc:	3c086e80 	lui	t0,0x6e80
    aae0:	350823a0 	ori	t0,t0,0x23a0
    aae4:	0511ffed 	bgezal	t0,aa9c <n36_bgezal_test+0xaa9c>
    aae8:	00000000 	nop
    aaec:	10000013 	b	ab3c <n36_bgezal_test+0xab3c>
    aaf0:	00000000 	nop
    aaf4:	00000000 	nop
    aaf8:	00000021 	move	zero,zero
    aafc:	00000021 	move	zero,zero
    ab00:	00000021 	move	zero,zero
    ab04:	00000021 	move	zero,zero
    ab08:	00000021 	move	zero,zero
    ab0c:	00000021 	move	zero,zero
    ab10:	00000021 	move	zero,zero
    ab14:	00000021 	move	zero,zero
    ab18:	00000021 	move	zero,zero
    ab1c:	00000021 	move	zero,zero
    ab20:	00000021 	move	zero,zero
    ab24:	00000021 	move	zero,zero
    ab28:	00000021 	move	zero,zero
    ab2c:	00000021 	move	zero,zero
    ab30:	00000021 	move	zero,zero
    ab34:	3c122691 	lui	s2,0x2691
    ab38:	36521a30 	ori	s2,s2,0x1a30
    ab3c:	001fa021 	addu	s4,zero,ra
    ab40:	0015f821 	addu	ra,zero,s5
    ab44:	3c150001 	lui	s5,0x1
    ab48:	26b5aaa4 	addiu	s5,s5,-21852
    ab4c:	3c160001 	lui	s6,0x1
    ab50:	26d6aae4 	addiu	s6,s6,-21788
    ab54:	3c187e16 	lui	t8,0x7e16
    ab58:	37186bf8 	ori	t8,t8,0x6bf8
    ab5c:	16181ca0 	bne	s0,t8,11de0 <inst_error>
    ab60:	00000000 	nop
    ab64:	00000000 	nop
    ab68:	3c182691 	lui	t8,0x2691
    ab6c:	37181a30 	ori	t8,t8,0x1a30
    ab70:	16581c9b 	bne	s2,t8,11de0 <inst_error>
    ab74:	00000000 	nop
    ab78:	00000000 	nop
    ab7c:	3c19bfc0 	lui	t9,0xbfc0
    ab80:	37395c04 	ori	t9,t9,0x5c04
    ab84:	3c18bfc0 	lui	t8,0xbfc0
    ab88:	37185bfc 	ori	t8,t8,0x5bfc
    ab8c:	27180008 	addiu	t8,t8,8
    ab90:	1319000a 	beq	t8,t9,abbc <n36_bgezal_test+0xabbc>
    ab94:	00000000 	nop
    ab98:	00000000 	nop
    ab9c:	3c18bfc0 	lui	t8,0xbfc0
    aba0:	37185c34 	ori	t8,t8,0x5c34
    aba4:	27180008 	addiu	t8,t8,8
    aba8:	1319000a 	beq	t8,t9,abd4 <n36_bgezal_test+0xabd4>
    abac:	00000000 	nop
    abb0:	10001c8b 	b	11de0 <inst_error>
    abb4:	00000000 	nop
    abb8:	00000000 	nop
    abbc:	26b50008 	addiu	s5,s5,8
    abc0:	16951c87 	bne	s4,s5,11de0 <inst_error>
    abc4:	00000000 	nop
    abc8:	10000006 	b	abe4 <n36_bgezal_test+0xabe4>
    abcc:	00000000 	nop
    abd0:	00000000 	nop
    abd4:	26d60008 	addiu	s6,s6,8
    abd8:	16961c81 	bne	s4,s6,11de0 <inst_error>
    abdc:	00000000 	nop
	...
    abe8:	001fa821 	addu	s5,zero,ra
    abec:	3c0c8120 	lui	t4,0x8120
    abf0:	358c4f2e 	ori	t4,t4,0x4f2e
    abf4:	3c0d18c7 	lui	t5,0x18c7
    abf8:	35adf0aa 	ori	t5,t5,0xf0aa
    abfc:	24100000 	li	s0,0
    ac00:	10000012 	b	ac4c <n36_bgezal_test+0xac4c>
    ac04:	24120000 	li	s2,0
    ac08:	00000000 	nop
    ac0c:	3c108120 	lui	s0,0x8120
    ac10:	36104f2e 	ori	s0,s0,0x4f2e
    ac14:	05110023 	bgezal	t0,aca4 <n36_bgezal_test+0xaca4>
    ac18:	00000000 	nop
    ac1c:	10000023 	b	acac <n36_bgezal_test+0xacac>
    ac20:	00000000 	nop
    ac24:	00000000 	nop
    ac28:	00000021 	move	zero,zero
    ac2c:	00000021 	move	zero,zero
    ac30:	00000021 	move	zero,zero
    ac34:	00000021 	move	zero,zero
    ac38:	00000021 	move	zero,zero
    ac3c:	00000021 	move	zero,zero
    ac40:	00000021 	move	zero,zero
    ac44:	00000021 	move	zero,zero
    ac48:	00000021 	move	zero,zero
    ac4c:	3c083d50 	lui	t0,0x3d50
    ac50:	350884b0 	ori	t0,t0,0x84b0
    ac54:	0511ffed 	bgezal	t0,ac0c <n36_bgezal_test+0xac0c>
    ac58:	00000000 	nop
    ac5c:	10000013 	b	acac <n36_bgezal_test+0xacac>
    ac60:	00000000 	nop
    ac64:	00000000 	nop
    ac68:	00000021 	move	zero,zero
    ac6c:	00000021 	move	zero,zero
    ac70:	00000021 	move	zero,zero
    ac74:	00000021 	move	zero,zero
    ac78:	00000021 	move	zero,zero
    ac7c:	00000021 	move	zero,zero
    ac80:	00000021 	move	zero,zero
    ac84:	00000021 	move	zero,zero
    ac88:	00000021 	move	zero,zero
    ac8c:	00000021 	move	zero,zero
    ac90:	00000021 	move	zero,zero
    ac94:	00000021 	move	zero,zero
    ac98:	00000021 	move	zero,zero
    ac9c:	00000021 	move	zero,zero
    aca0:	00000021 	move	zero,zero
    aca4:	3c1218c7 	lui	s2,0x18c7
    aca8:	3652f0aa 	ori	s2,s2,0xf0aa
    acac:	001fa021 	addu	s4,zero,ra
    acb0:	0015f821 	addu	ra,zero,s5
    acb4:	3c150001 	lui	s5,0x1
    acb8:	26b5ac14 	addiu	s5,s5,-21484
    acbc:	3c160001 	lui	s6,0x1
    acc0:	26d6ac54 	addiu	s6,s6,-21420
    acc4:	3c188120 	lui	t8,0x8120
    acc8:	37184f2e 	ori	t8,t8,0x4f2e
    accc:	16181c44 	bne	s0,t8,11de0 <inst_error>
    acd0:	00000000 	nop
    acd4:	00000000 	nop
    acd8:	3c1818c7 	lui	t8,0x18c7
    acdc:	3718f0aa 	ori	t8,t8,0xf0aa
    ace0:	16581c3f 	bne	s2,t8,11de0 <inst_error>
    ace4:	00000000 	nop
    ace8:	00000000 	nop
    acec:	3c19bfc0 	lui	t9,0xbfc0
    acf0:	37395cc0 	ori	t9,t9,0x5cc0
    acf4:	3c18bfc0 	lui	t8,0xbfc0
    acf8:	37185cb8 	ori	t8,t8,0x5cb8
    acfc:	27180008 	addiu	t8,t8,8
    ad00:	1319000a 	beq	t8,t9,ad2c <n36_bgezal_test+0xad2c>
    ad04:	00000000 	nop
    ad08:	00000000 	nop
    ad0c:	3c18bfc0 	lui	t8,0xbfc0
    ad10:	37185cf0 	ori	t8,t8,0x5cf0
    ad14:	27180008 	addiu	t8,t8,8
    ad18:	1319000a 	beq	t8,t9,ad44 <n36_bgezal_test+0xad44>
    ad1c:	00000000 	nop
    ad20:	10001c2f 	b	11de0 <inst_error>
    ad24:	00000000 	nop
    ad28:	00000000 	nop
    ad2c:	26b50008 	addiu	s5,s5,8
    ad30:	16951c2b 	bne	s4,s5,11de0 <inst_error>
    ad34:	00000000 	nop
    ad38:	10000006 	b	ad54 <n36_bgezal_test+0xad54>
    ad3c:	00000000 	nop
    ad40:	00000000 	nop
    ad44:	26d60008 	addiu	s6,s6,8
    ad48:	16961c25 	bne	s4,s6,11de0 <inst_error>
    ad4c:	00000000 	nop
	...
    ad58:	001fa821 	addu	s5,zero,ra
    ad5c:	3c0c62bf 	lui	t4,0x62bf
    ad60:	358c92bd 	ori	t4,t4,0x92bd
    ad64:	3c0db90f 	lui	t5,0xb90f
    ad68:	35ad5834 	ori	t5,t5,0x5834
    ad6c:	24100000 	li	s0,0
    ad70:	10000012 	b	adbc <n36_bgezal_test+0xadbc>
    ad74:	24120000 	li	s2,0
    ad78:	00000000 	nop
    ad7c:	3c1062bf 	lui	s0,0x62bf
    ad80:	361092bd 	ori	s0,s0,0x92bd
    ad84:	05110023 	bgezal	t0,ae14 <n36_bgezal_test+0xae14>
    ad88:	00000000 	nop
    ad8c:	10000023 	b	ae1c <n36_bgezal_test+0xae1c>
    ad90:	00000000 	nop
    ad94:	00000000 	nop
    ad98:	00000021 	move	zero,zero
    ad9c:	00000021 	move	zero,zero
    ada0:	00000021 	move	zero,zero
    ada4:	00000021 	move	zero,zero
    ada8:	00000021 	move	zero,zero
    adac:	00000021 	move	zero,zero
    adb0:	00000021 	move	zero,zero
    adb4:	00000021 	move	zero,zero
    adb8:	00000021 	move	zero,zero
    adbc:	3c088617 	lui	t0,0x8617
    adc0:	350839d0 	ori	t0,t0,0x39d0
    adc4:	0511ffed 	bgezal	t0,ad7c <n36_bgezal_test+0xad7c>
    adc8:	00000000 	nop
    adcc:	10000013 	b	ae1c <n36_bgezal_test+0xae1c>
    add0:	00000000 	nop
    add4:	00000000 	nop
    add8:	00000021 	move	zero,zero
    addc:	00000021 	move	zero,zero
    ade0:	00000021 	move	zero,zero
    ade4:	00000021 	move	zero,zero
    ade8:	00000021 	move	zero,zero
    adec:	00000021 	move	zero,zero
    adf0:	00000021 	move	zero,zero
    adf4:	00000021 	move	zero,zero
    adf8:	00000021 	move	zero,zero
    adfc:	00000021 	move	zero,zero
    ae00:	00000021 	move	zero,zero
    ae04:	00000021 	move	zero,zero
    ae08:	00000021 	move	zero,zero
    ae0c:	00000021 	move	zero,zero
    ae10:	00000021 	move	zero,zero
    ae14:	3c12b90f 	lui	s2,0xb90f
    ae18:	36525834 	ori	s2,s2,0x5834
    ae1c:	001fa021 	addu	s4,zero,ra
    ae20:	0015f821 	addu	ra,zero,s5
    ae24:	3c150001 	lui	s5,0x1
    ae28:	26b5ad84 	addiu	s5,s5,-21116
    ae2c:	3c160001 	lui	s6,0x1
    ae30:	26d6adc4 	addiu	s6,s6,-21052
    ae34:	24180000 	li	t8,0
    ae38:	16181be9 	bne	s0,t8,11de0 <inst_error>
    ae3c:	00000000 	nop
    ae40:	00000000 	nop
    ae44:	24180000 	li	t8,0
    ae48:	16581be5 	bne	s2,t8,11de0 <inst_error>
    ae4c:	00000000 	nop
    ae50:	00000000 	nop
    ae54:	3c19bfc0 	lui	t9,0xbfc0
    ae58:	37395db4 	ori	t9,t9,0x5db4
    ae5c:	3c18bfc0 	lui	t8,0xbfc0
    ae60:	37185d74 	ori	t8,t8,0x5d74
    ae64:	27180008 	addiu	t8,t8,8
    ae68:	1319000a 	beq	t8,t9,ae94 <n36_bgezal_test+0xae94>
    ae6c:	00000000 	nop
    ae70:	00000000 	nop
    ae74:	3c18bfc0 	lui	t8,0xbfc0
    ae78:	37185dac 	ori	t8,t8,0x5dac
    ae7c:	27180008 	addiu	t8,t8,8
    ae80:	1319000a 	beq	t8,t9,aeac <n36_bgezal_test+0xaeac>
    ae84:	00000000 	nop
    ae88:	10001bd5 	b	11de0 <inst_error>
    ae8c:	00000000 	nop
    ae90:	00000000 	nop
    ae94:	26b50008 	addiu	s5,s5,8
    ae98:	16951bd1 	bne	s4,s5,11de0 <inst_error>
    ae9c:	00000000 	nop
    aea0:	10000006 	b	aebc <n36_bgezal_test+0xaebc>
    aea4:	00000000 	nop
    aea8:	00000000 	nop
    aeac:	26d60008 	addiu	s6,s6,8
    aeb0:	16961bcb 	bne	s4,s6,11de0 <inst_error>
    aeb4:	00000000 	nop
	...
    aec0:	001fa821 	addu	s5,zero,ra
    aec4:	3c0c767d 	lui	t4,0x767d
    aec8:	358cafc8 	ori	t4,t4,0xafc8
    aecc:	3c0dcf00 	lui	t5,0xcf00
    aed0:	35ad1cc0 	ori	t5,t5,0x1cc0
    aed4:	24100000 	li	s0,0
    aed8:	10000012 	b	af24 <n36_bgezal_test+0xaf24>
    aedc:	24120000 	li	s2,0
    aee0:	00000000 	nop
    aee4:	3c10767d 	lui	s0,0x767d
    aee8:	3610afc8 	ori	s0,s0,0xafc8
    aeec:	05110023 	bgezal	t0,af7c <n36_bgezal_test+0xaf7c>
    aef0:	00000000 	nop
    aef4:	10000023 	b	af84 <n36_bgezal_test+0xaf84>
    aef8:	00000000 	nop
    aefc:	00000000 	nop
    af00:	00000021 	move	zero,zero
    af04:	00000021 	move	zero,zero
    af08:	00000021 	move	zero,zero
    af0c:	00000021 	move	zero,zero
    af10:	00000021 	move	zero,zero
    af14:	00000021 	move	zero,zero
    af18:	00000021 	move	zero,zero
    af1c:	00000021 	move	zero,zero
    af20:	00000021 	move	zero,zero
    af24:	3c0826df 	lui	t0,0x26df
    af28:	350839ca 	ori	t0,t0,0x39ca
    af2c:	0511ffed 	bgezal	t0,aee4 <n36_bgezal_test+0xaee4>
    af30:	00000000 	nop
    af34:	10000013 	b	af84 <n36_bgezal_test+0xaf84>
    af38:	00000000 	nop
    af3c:	00000000 	nop
    af40:	00000021 	move	zero,zero
    af44:	00000021 	move	zero,zero
    af48:	00000021 	move	zero,zero
    af4c:	00000021 	move	zero,zero
    af50:	00000021 	move	zero,zero
    af54:	00000021 	move	zero,zero
    af58:	00000021 	move	zero,zero
    af5c:	00000021 	move	zero,zero
    af60:	00000021 	move	zero,zero
    af64:	00000021 	move	zero,zero
    af68:	00000021 	move	zero,zero
    af6c:	00000021 	move	zero,zero
    af70:	00000021 	move	zero,zero
    af74:	00000021 	move	zero,zero
    af78:	00000021 	move	zero,zero
    af7c:	3c12cf00 	lui	s2,0xcf00
    af80:	36521cc0 	ori	s2,s2,0x1cc0
    af84:	001fa021 	addu	s4,zero,ra
    af88:	0015f821 	addu	ra,zero,s5
    af8c:	3c150001 	lui	s5,0x1
    af90:	26b5aeec 	addiu	s5,s5,-20756
    af94:	3c160001 	lui	s6,0x1
    af98:	26d6af2c 	addiu	s6,s6,-20692
    af9c:	3c18767d 	lui	t8,0x767d
    afa0:	3718afc8 	ori	t8,t8,0xafc8
    afa4:	16181b8e 	bne	s0,t8,11de0 <inst_error>
    afa8:	00000000 	nop
    afac:	00000000 	nop
    afb0:	3c18cf00 	lui	t8,0xcf00
    afb4:	37181cc0 	ori	t8,t8,0x1cc0
    afb8:	16581b89 	bne	s2,t8,11de0 <inst_error>
    afbc:	00000000 	nop
    afc0:	00000000 	nop
    afc4:	3c19bfc0 	lui	t9,0xbfc0
    afc8:	37395e38 	ori	t9,t9,0x5e38
    afcc:	3c18bfc0 	lui	t8,0xbfc0
    afd0:	37185e30 	ori	t8,t8,0x5e30
    afd4:	27180008 	addiu	t8,t8,8
    afd8:	1319000a 	beq	t8,t9,b004 <n36_bgezal_test+0xb004>
    afdc:	00000000 	nop
    afe0:	00000000 	nop
    afe4:	3c18bfc0 	lui	t8,0xbfc0
    afe8:	37185e68 	ori	t8,t8,0x5e68
    afec:	27180008 	addiu	t8,t8,8
    aff0:	1319000a 	beq	t8,t9,b01c <n36_bgezal_test+0xb01c>
    aff4:	00000000 	nop
    aff8:	10001b79 	b	11de0 <inst_error>
    affc:	00000000 	nop
    b000:	00000000 	nop
    b004:	26b50008 	addiu	s5,s5,8
    b008:	16951b75 	bne	s4,s5,11de0 <inst_error>
    b00c:	00000000 	nop
    b010:	10000006 	b	b02c <n36_bgezal_test+0xb02c>
    b014:	00000000 	nop
    b018:	00000000 	nop
    b01c:	26d60008 	addiu	s6,s6,8
    b020:	16961b6f 	bne	s4,s6,11de0 <inst_error>
    b024:	00000000 	nop
	...
    b030:	001fa821 	addu	s5,zero,ra
    b034:	3c0cbed0 	lui	t4,0xbed0
    b038:	358c8880 	ori	t4,t4,0x8880
    b03c:	3c0d0677 	lui	t5,0x677
    b040:	35ada59c 	ori	t5,t5,0xa59c
    b044:	24100000 	li	s0,0
    b048:	10000012 	b	b094 <n36_bgezal_test+0xb094>
    b04c:	24120000 	li	s2,0
    b050:	00000000 	nop
    b054:	3c10bed0 	lui	s0,0xbed0
    b058:	36108880 	ori	s0,s0,0x8880
    b05c:	05110023 	bgezal	t0,b0ec <n36_bgezal_test+0xb0ec>
    b060:	00000000 	nop
    b064:	10000023 	b	b0f4 <n36_bgezal_test+0xb0f4>
    b068:	00000000 	nop
    b06c:	00000000 	nop
    b070:	00000021 	move	zero,zero
    b074:	00000021 	move	zero,zero
    b078:	00000021 	move	zero,zero
    b07c:	00000021 	move	zero,zero
    b080:	00000021 	move	zero,zero
    b084:	00000021 	move	zero,zero
    b088:	00000021 	move	zero,zero
    b08c:	00000021 	move	zero,zero
    b090:	00000021 	move	zero,zero
    b094:	3c08a06b 	lui	t0,0xa06b
    b098:	35084e88 	ori	t0,t0,0x4e88
    b09c:	0511ffed 	bgezal	t0,b054 <n36_bgezal_test+0xb054>
    b0a0:	00000000 	nop
    b0a4:	10000013 	b	b0f4 <n36_bgezal_test+0xb0f4>
    b0a8:	00000000 	nop
    b0ac:	00000000 	nop
    b0b0:	00000021 	move	zero,zero
    b0b4:	00000021 	move	zero,zero
    b0b8:	00000021 	move	zero,zero
    b0bc:	00000021 	move	zero,zero
    b0c0:	00000021 	move	zero,zero
    b0c4:	00000021 	move	zero,zero
    b0c8:	00000021 	move	zero,zero
    b0cc:	00000021 	move	zero,zero
    b0d0:	00000021 	move	zero,zero
    b0d4:	00000021 	move	zero,zero
    b0d8:	00000021 	move	zero,zero
    b0dc:	00000021 	move	zero,zero
    b0e0:	00000021 	move	zero,zero
    b0e4:	00000021 	move	zero,zero
    b0e8:	00000021 	move	zero,zero
    b0ec:	3c120677 	lui	s2,0x677
    b0f0:	3652a59c 	ori	s2,s2,0xa59c
    b0f4:	001fa021 	addu	s4,zero,ra
    b0f8:	0015f821 	addu	ra,zero,s5
    b0fc:	3c150001 	lui	s5,0x1
    b100:	26b5b05c 	addiu	s5,s5,-20388
    b104:	3c160001 	lui	s6,0x1
    b108:	26d6b09c 	addiu	s6,s6,-20324
    b10c:	24180000 	li	t8,0
    b110:	16181b33 	bne	s0,t8,11de0 <inst_error>
    b114:	00000000 	nop
    b118:	00000000 	nop
    b11c:	24180000 	li	t8,0
    b120:	16581b2f 	bne	s2,t8,11de0 <inst_error>
    b124:	00000000 	nop
    b128:	00000000 	nop
    b12c:	3c19bfc0 	lui	t9,0xbfc0
    b130:	37395f2c 	ori	t9,t9,0x5f2c
    b134:	3c18bfc0 	lui	t8,0xbfc0
    b138:	37185eec 	ori	t8,t8,0x5eec
    b13c:	27180008 	addiu	t8,t8,8
    b140:	1319000a 	beq	t8,t9,b16c <n36_bgezal_test+0xb16c>
    b144:	00000000 	nop
    b148:	00000000 	nop
    b14c:	3c18bfc0 	lui	t8,0xbfc0
    b150:	37185f24 	ori	t8,t8,0x5f24
    b154:	27180008 	addiu	t8,t8,8
    b158:	1319000a 	beq	t8,t9,b184 <n36_bgezal_test+0xb184>
    b15c:	00000000 	nop
    b160:	10001b1f 	b	11de0 <inst_error>
    b164:	00000000 	nop
    b168:	00000000 	nop
    b16c:	26b50008 	addiu	s5,s5,8
    b170:	16951b1b 	bne	s4,s5,11de0 <inst_error>
    b174:	00000000 	nop
    b178:	10000006 	b	b194 <n36_bgezal_test+0xb194>
    b17c:	00000000 	nop
    b180:	00000000 	nop
    b184:	26d60008 	addiu	s6,s6,8
    b188:	16961b15 	bne	s4,s6,11de0 <inst_error>
    b18c:	00000000 	nop
	...
    b198:	001fa821 	addu	s5,zero,ra
    b19c:	3c0c22a6 	lui	t4,0x22a6
    b1a0:	358c4fd2 	ori	t4,t4,0x4fd2
    b1a4:	3c0d133f 	lui	t5,0x133f
    b1a8:	35ad25e0 	ori	t5,t5,0x25e0
    b1ac:	24100000 	li	s0,0
    b1b0:	10000012 	b	b1fc <n36_bgezal_test+0xb1fc>
    b1b4:	24120000 	li	s2,0
    b1b8:	00000000 	nop
    b1bc:	3c1022a6 	lui	s0,0x22a6
    b1c0:	36104fd2 	ori	s0,s0,0x4fd2
    b1c4:	05110023 	bgezal	t0,b254 <n36_bgezal_test+0xb254>
    b1c8:	00000000 	nop
    b1cc:	10000023 	b	b25c <n36_bgezal_test+0xb25c>
    b1d0:	00000000 	nop
    b1d4:	00000000 	nop
    b1d8:	00000021 	move	zero,zero
    b1dc:	00000021 	move	zero,zero
    b1e0:	00000021 	move	zero,zero
    b1e4:	00000021 	move	zero,zero
    b1e8:	00000021 	move	zero,zero
    b1ec:	00000021 	move	zero,zero
    b1f0:	00000021 	move	zero,zero
    b1f4:	00000021 	move	zero,zero
    b1f8:	00000021 	move	zero,zero
    b1fc:	3c082328 	lui	t0,0x2328
    b200:	350859ce 	ori	t0,t0,0x59ce
    b204:	0511ffed 	bgezal	t0,b1bc <n36_bgezal_test+0xb1bc>
    b208:	00000000 	nop
    b20c:	10000013 	b	b25c <n36_bgezal_test+0xb25c>
    b210:	00000000 	nop
    b214:	00000000 	nop
    b218:	00000021 	move	zero,zero
    b21c:	00000021 	move	zero,zero
    b220:	00000021 	move	zero,zero
    b224:	00000021 	move	zero,zero
    b228:	00000021 	move	zero,zero
    b22c:	00000021 	move	zero,zero
    b230:	00000021 	move	zero,zero
    b234:	00000021 	move	zero,zero
    b238:	00000021 	move	zero,zero
    b23c:	00000021 	move	zero,zero
    b240:	00000021 	move	zero,zero
    b244:	00000021 	move	zero,zero
    b248:	00000021 	move	zero,zero
    b24c:	00000021 	move	zero,zero
    b250:	00000021 	move	zero,zero
    b254:	3c12133f 	lui	s2,0x133f
    b258:	365225e0 	ori	s2,s2,0x25e0
    b25c:	001fa021 	addu	s4,zero,ra
    b260:	0015f821 	addu	ra,zero,s5
    b264:	3c150001 	lui	s5,0x1
    b268:	26b5b1c4 	addiu	s5,s5,-20028
    b26c:	3c160001 	lui	s6,0x1
    b270:	26d6b204 	addiu	s6,s6,-19964
    b274:	3c1822a6 	lui	t8,0x22a6
    b278:	37184fd2 	ori	t8,t8,0x4fd2
    b27c:	16181ad8 	bne	s0,t8,11de0 <inst_error>
    b280:	00000000 	nop
    b284:	00000000 	nop
    b288:	3c18133f 	lui	t8,0x133f
    b28c:	371825e0 	ori	t8,t8,0x25e0
    b290:	16581ad3 	bne	s2,t8,11de0 <inst_error>
    b294:	00000000 	nop
    b298:	00000000 	nop
    b29c:	3c19bfc0 	lui	t9,0xbfc0
    b2a0:	37395fb0 	ori	t9,t9,0x5fb0
    b2a4:	3c18bfc0 	lui	t8,0xbfc0
    b2a8:	37185fa8 	ori	t8,t8,0x5fa8
    b2ac:	27180008 	addiu	t8,t8,8
    b2b0:	1319000a 	beq	t8,t9,b2dc <n36_bgezal_test+0xb2dc>
    b2b4:	00000000 	nop
    b2b8:	00000000 	nop
    b2bc:	3c18bfc0 	lui	t8,0xbfc0
    b2c0:	37185fe0 	ori	t8,t8,0x5fe0
    b2c4:	27180008 	addiu	t8,t8,8
    b2c8:	1319000a 	beq	t8,t9,b2f4 <n36_bgezal_test+0xb2f4>
    b2cc:	00000000 	nop
    b2d0:	10001ac3 	b	11de0 <inst_error>
    b2d4:	00000000 	nop
    b2d8:	00000000 	nop
    b2dc:	26b50008 	addiu	s5,s5,8
    b2e0:	16951abf 	bne	s4,s5,11de0 <inst_error>
    b2e4:	00000000 	nop
    b2e8:	10000006 	b	b304 <n36_bgezal_test+0xb304>
    b2ec:	00000000 	nop
    b2f0:	00000000 	nop
    b2f4:	26d60008 	addiu	s6,s6,8
    b2f8:	16961ab9 	bne	s4,s6,11de0 <inst_error>
    b2fc:	00000000 	nop
	...
    b308:	001fa821 	addu	s5,zero,ra
    b30c:	3c0c173b 	lui	t4,0x173b
    b310:	358cf5dc 	ori	t4,t4,0xf5dc
    b314:	3c0d90d3 	lui	t5,0x90d3
    b318:	35ad6ca0 	ori	t5,t5,0x6ca0
    b31c:	24100000 	li	s0,0
    b320:	10000012 	b	b36c <n36_bgezal_test+0xb36c>
    b324:	24120000 	li	s2,0
    b328:	00000000 	nop
    b32c:	3c10173b 	lui	s0,0x173b
    b330:	3610f5dc 	ori	s0,s0,0xf5dc
    b334:	05110023 	bgezal	t0,b3c4 <n36_bgezal_test+0xb3c4>
    b338:	00000000 	nop
    b33c:	10000023 	b	b3cc <n36_bgezal_test+0xb3cc>
    b340:	00000000 	nop
    b344:	00000000 	nop
    b348:	00000021 	move	zero,zero
    b34c:	00000021 	move	zero,zero
    b350:	00000021 	move	zero,zero
    b354:	00000021 	move	zero,zero
    b358:	00000021 	move	zero,zero
    b35c:	00000021 	move	zero,zero
    b360:	00000021 	move	zero,zero
    b364:	00000021 	move	zero,zero
    b368:	00000021 	move	zero,zero
    b36c:	3c082b1b 	lui	t0,0x2b1b
    b370:	3508825c 	ori	t0,t0,0x825c
    b374:	0511ffed 	bgezal	t0,b32c <n36_bgezal_test+0xb32c>
    b378:	00000000 	nop
    b37c:	10000013 	b	b3cc <n36_bgezal_test+0xb3cc>
    b380:	00000000 	nop
    b384:	00000000 	nop
    b388:	00000021 	move	zero,zero
    b38c:	00000021 	move	zero,zero
    b390:	00000021 	move	zero,zero
    b394:	00000021 	move	zero,zero
    b398:	00000021 	move	zero,zero
    b39c:	00000021 	move	zero,zero
    b3a0:	00000021 	move	zero,zero
    b3a4:	00000021 	move	zero,zero
    b3a8:	00000021 	move	zero,zero
    b3ac:	00000021 	move	zero,zero
    b3b0:	00000021 	move	zero,zero
    b3b4:	00000021 	move	zero,zero
    b3b8:	00000021 	move	zero,zero
    b3bc:	00000021 	move	zero,zero
    b3c0:	00000021 	move	zero,zero
    b3c4:	3c1290d3 	lui	s2,0x90d3
    b3c8:	36526ca0 	ori	s2,s2,0x6ca0
    b3cc:	001fa021 	addu	s4,zero,ra
    b3d0:	0015f821 	addu	ra,zero,s5
    b3d4:	3c150001 	lui	s5,0x1
    b3d8:	26b5b334 	addiu	s5,s5,-19660
    b3dc:	3c160001 	lui	s6,0x1
    b3e0:	26d6b374 	addiu	s6,s6,-19596
    b3e4:	3c18173b 	lui	t8,0x173b
    b3e8:	3718f5dc 	ori	t8,t8,0xf5dc
    b3ec:	16181a7c 	bne	s0,t8,11de0 <inst_error>
    b3f0:	00000000 	nop
    b3f4:	00000000 	nop
    b3f8:	3c1890d3 	lui	t8,0x90d3
    b3fc:	37186ca0 	ori	t8,t8,0x6ca0
    b400:	16581a77 	bne	s2,t8,11de0 <inst_error>
    b404:	00000000 	nop
    b408:	00000000 	nop
    b40c:	3c19bfc0 	lui	t9,0xbfc0
    b410:	3739606c 	ori	t9,t9,0x606c
    b414:	3c18bfc0 	lui	t8,0xbfc0
    b418:	37186064 	ori	t8,t8,0x6064
    b41c:	27180008 	addiu	t8,t8,8
    b420:	1319000a 	beq	t8,t9,b44c <n36_bgezal_test+0xb44c>
    b424:	00000000 	nop
    b428:	00000000 	nop
    b42c:	3c18bfc0 	lui	t8,0xbfc0
    b430:	3718609c 	ori	t8,t8,0x609c
    b434:	27180008 	addiu	t8,t8,8
    b438:	1319000a 	beq	t8,t9,b464 <n36_bgezal_test+0xb464>
    b43c:	00000000 	nop
    b440:	10001a67 	b	11de0 <inst_error>
    b444:	00000000 	nop
    b448:	00000000 	nop
    b44c:	26b50008 	addiu	s5,s5,8
    b450:	16951a63 	bne	s4,s5,11de0 <inst_error>
    b454:	00000000 	nop
    b458:	10000006 	b	b474 <n36_bgezal_test+0xb474>
    b45c:	00000000 	nop
    b460:	00000000 	nop
    b464:	26d60008 	addiu	s6,s6,8
    b468:	16961a5d 	bne	s4,s6,11de0 <inst_error>
    b46c:	00000000 	nop
	...
    b478:	001fa821 	addu	s5,zero,ra
    b47c:	3c0cc1da 	lui	t4,0xc1da
    b480:	358ca4c0 	ori	t4,t4,0xa4c0
    b484:	3c0d43d2 	lui	t5,0x43d2
    b488:	35ad3580 	ori	t5,t5,0x3580
    b48c:	24100000 	li	s0,0
    b490:	10000012 	b	b4dc <n36_bgezal_test+0xb4dc>
    b494:	24120000 	li	s2,0
    b498:	00000000 	nop
    b49c:	3c10c1da 	lui	s0,0xc1da
    b4a0:	3610a4c0 	ori	s0,s0,0xa4c0
    b4a4:	05110023 	bgezal	t0,b534 <n36_bgezal_test+0xb534>
    b4a8:	00000000 	nop
    b4ac:	10000023 	b	b53c <n36_bgezal_test+0xb53c>
    b4b0:	00000000 	nop
    b4b4:	00000000 	nop
    b4b8:	00000021 	move	zero,zero
    b4bc:	00000021 	move	zero,zero
    b4c0:	00000021 	move	zero,zero
    b4c4:	00000021 	move	zero,zero
    b4c8:	00000021 	move	zero,zero
    b4cc:	00000021 	move	zero,zero
    b4d0:	00000021 	move	zero,zero
    b4d4:	00000021 	move	zero,zero
    b4d8:	00000021 	move	zero,zero
    b4dc:	3c080b6a 	lui	t0,0xb6a
    b4e0:	35089780 	ori	t0,t0,0x9780
    b4e4:	0511ffed 	bgezal	t0,b49c <n36_bgezal_test+0xb49c>
    b4e8:	00000000 	nop
    b4ec:	10000013 	b	b53c <n36_bgezal_test+0xb53c>
    b4f0:	00000000 	nop
    b4f4:	00000000 	nop
    b4f8:	00000021 	move	zero,zero
    b4fc:	00000021 	move	zero,zero
    b500:	00000021 	move	zero,zero
    b504:	00000021 	move	zero,zero
    b508:	00000021 	move	zero,zero
    b50c:	00000021 	move	zero,zero
    b510:	00000021 	move	zero,zero
    b514:	00000021 	move	zero,zero
    b518:	00000021 	move	zero,zero
    b51c:	00000021 	move	zero,zero
    b520:	00000021 	move	zero,zero
    b524:	00000021 	move	zero,zero
    b528:	00000021 	move	zero,zero
    b52c:	00000021 	move	zero,zero
    b530:	00000021 	move	zero,zero
    b534:	3c1243d2 	lui	s2,0x43d2
    b538:	36523580 	ori	s2,s2,0x3580
    b53c:	001fa021 	addu	s4,zero,ra
    b540:	0015f821 	addu	ra,zero,s5
    b544:	3c150001 	lui	s5,0x1
    b548:	26b5b4a4 	addiu	s5,s5,-19292
    b54c:	3c160001 	lui	s6,0x1
    b550:	26d6b4e4 	addiu	s6,s6,-19228
    b554:	3c18c1da 	lui	t8,0xc1da
    b558:	3718a4c0 	ori	t8,t8,0xa4c0
    b55c:	16181a20 	bne	s0,t8,11de0 <inst_error>
    b560:	00000000 	nop
    b564:	00000000 	nop
    b568:	3c1843d2 	lui	t8,0x43d2
    b56c:	37183580 	ori	t8,t8,0x3580
    b570:	16581a1b 	bne	s2,t8,11de0 <inst_error>
    b574:	00000000 	nop
    b578:	00000000 	nop
    b57c:	3c19bfc0 	lui	t9,0xbfc0
    b580:	37396128 	ori	t9,t9,0x6128
    b584:	3c18bfc0 	lui	t8,0xbfc0
    b588:	37186120 	ori	t8,t8,0x6120
    b58c:	27180008 	addiu	t8,t8,8
    b590:	1319000a 	beq	t8,t9,b5bc <n36_bgezal_test+0xb5bc>
    b594:	00000000 	nop
    b598:	00000000 	nop
    b59c:	3c18bfc0 	lui	t8,0xbfc0
    b5a0:	37186158 	ori	t8,t8,0x6158
    b5a4:	27180008 	addiu	t8,t8,8
    b5a8:	1319000a 	beq	t8,t9,b5d4 <n36_bgezal_test+0xb5d4>
    b5ac:	00000000 	nop
    b5b0:	10001a0b 	b	11de0 <inst_error>
    b5b4:	00000000 	nop
    b5b8:	00000000 	nop
    b5bc:	26b50008 	addiu	s5,s5,8
    b5c0:	16951a07 	bne	s4,s5,11de0 <inst_error>
    b5c4:	00000000 	nop
    b5c8:	10000006 	b	b5e4 <n36_bgezal_test+0xb5e4>
    b5cc:	00000000 	nop
    b5d0:	00000000 	nop
    b5d4:	26d60008 	addiu	s6,s6,8
    b5d8:	16961a01 	bne	s4,s6,11de0 <inst_error>
    b5dc:	00000000 	nop
	...
    b5e8:	001fa821 	addu	s5,zero,ra
    b5ec:	3c0c3426 	lui	t4,0x3426
    b5f0:	358c946d 	ori	t4,t4,0x946d
    b5f4:	3c0d9913 	lui	t5,0x9913
    b5f8:	35adf9c6 	ori	t5,t5,0xf9c6
    b5fc:	24100000 	li	s0,0
    b600:	10000012 	b	b64c <n36_bgezal_test+0xb64c>
    b604:	24120000 	li	s2,0
    b608:	00000000 	nop
    b60c:	3c103426 	lui	s0,0x3426
    b610:	3610946d 	ori	s0,s0,0x946d
    b614:	05110023 	bgezal	t0,b6a4 <n36_bgezal_test+0xb6a4>
    b618:	00000000 	nop
    b61c:	10000023 	b	b6ac <n36_bgezal_test+0xb6ac>
    b620:	00000000 	nop
    b624:	00000000 	nop
    b628:	00000021 	move	zero,zero
    b62c:	00000021 	move	zero,zero
    b630:	00000021 	move	zero,zero
    b634:	00000021 	move	zero,zero
    b638:	00000021 	move	zero,zero
    b63c:	00000021 	move	zero,zero
    b640:	00000021 	move	zero,zero
    b644:	00000021 	move	zero,zero
    b648:	00000021 	move	zero,zero
    b64c:	3c088f7e 	lui	t0,0x8f7e
    b650:	35088f8c 	ori	t0,t0,0x8f8c
    b654:	0511ffed 	bgezal	t0,b60c <n36_bgezal_test+0xb60c>
    b658:	00000000 	nop
    b65c:	10000013 	b	b6ac <n36_bgezal_test+0xb6ac>
    b660:	00000000 	nop
    b664:	00000000 	nop
    b668:	00000021 	move	zero,zero
    b66c:	00000021 	move	zero,zero
    b670:	00000021 	move	zero,zero
    b674:	00000021 	move	zero,zero
    b678:	00000021 	move	zero,zero
    b67c:	00000021 	move	zero,zero
    b680:	00000021 	move	zero,zero
    b684:	00000021 	move	zero,zero
    b688:	00000021 	move	zero,zero
    b68c:	00000021 	move	zero,zero
    b690:	00000021 	move	zero,zero
    b694:	00000021 	move	zero,zero
    b698:	00000021 	move	zero,zero
    b69c:	00000021 	move	zero,zero
    b6a0:	00000021 	move	zero,zero
    b6a4:	3c129913 	lui	s2,0x9913
    b6a8:	3652f9c6 	ori	s2,s2,0xf9c6
    b6ac:	001fa021 	addu	s4,zero,ra
    b6b0:	0015f821 	addu	ra,zero,s5
    b6b4:	3c150001 	lui	s5,0x1
    b6b8:	26b5b614 	addiu	s5,s5,-18924
    b6bc:	3c160001 	lui	s6,0x1
    b6c0:	26d6b654 	addiu	s6,s6,-18860
    b6c4:	24180000 	li	t8,0
    b6c8:	161819c5 	bne	s0,t8,11de0 <inst_error>
    b6cc:	00000000 	nop
    b6d0:	00000000 	nop
    b6d4:	24180000 	li	t8,0
    b6d8:	165819c1 	bne	s2,t8,11de0 <inst_error>
    b6dc:	00000000 	nop
    b6e0:	00000000 	nop
    b6e4:	3c19bfc0 	lui	t9,0xbfc0
    b6e8:	3739621c 	ori	t9,t9,0x621c
    b6ec:	3c18bfc0 	lui	t8,0xbfc0
    b6f0:	371861dc 	ori	t8,t8,0x61dc
    b6f4:	27180008 	addiu	t8,t8,8
    b6f8:	1319000a 	beq	t8,t9,b724 <n36_bgezal_test+0xb724>
    b6fc:	00000000 	nop
    b700:	00000000 	nop
    b704:	3c18bfc0 	lui	t8,0xbfc0
    b708:	37186214 	ori	t8,t8,0x6214
    b70c:	27180008 	addiu	t8,t8,8
    b710:	1319000a 	beq	t8,t9,b73c <n36_bgezal_test+0xb73c>
    b714:	00000000 	nop
    b718:	100019b1 	b	11de0 <inst_error>
    b71c:	00000000 	nop
    b720:	00000000 	nop
    b724:	26b50008 	addiu	s5,s5,8
    b728:	169519ad 	bne	s4,s5,11de0 <inst_error>
    b72c:	00000000 	nop
    b730:	10000006 	b	b74c <n36_bgezal_test+0xb74c>
    b734:	00000000 	nop
    b738:	00000000 	nop
    b73c:	26d60008 	addiu	s6,s6,8
    b740:	169619a7 	bne	s4,s6,11de0 <inst_error>
    b744:	00000000 	nop
	...
    b750:	001fa821 	addu	s5,zero,ra
    b754:	3c0caa55 	lui	t4,0xaa55
    b758:	358c10c0 	ori	t4,t4,0x10c0
    b75c:	3c0d4770 	lui	t5,0x4770
    b760:	35ad26b8 	ori	t5,t5,0x26b8
    b764:	24100000 	li	s0,0
    b768:	10000012 	b	b7b4 <n36_bgezal_test+0xb7b4>
    b76c:	24120000 	li	s2,0
    b770:	00000000 	nop
    b774:	3c10aa55 	lui	s0,0xaa55
    b778:	361010c0 	ori	s0,s0,0x10c0
    b77c:	05110023 	bgezal	t0,b80c <n36_bgezal_test+0xb80c>
    b780:	00000000 	nop
    b784:	10000023 	b	b814 <n36_bgezal_test+0xb814>
    b788:	00000000 	nop
    b78c:	00000000 	nop
    b790:	00000021 	move	zero,zero
    b794:	00000021 	move	zero,zero
    b798:	00000021 	move	zero,zero
    b79c:	00000021 	move	zero,zero
    b7a0:	00000021 	move	zero,zero
    b7a4:	00000021 	move	zero,zero
    b7a8:	00000021 	move	zero,zero
    b7ac:	00000021 	move	zero,zero
    b7b0:	00000021 	move	zero,zero
    b7b4:	3c081b2f 	lui	t0,0x1b2f
    b7b8:	350892a4 	ori	t0,t0,0x92a4
    b7bc:	0511ffed 	bgezal	t0,b774 <n36_bgezal_test+0xb774>
    b7c0:	00000000 	nop
    b7c4:	10000013 	b	b814 <n36_bgezal_test+0xb814>
    b7c8:	00000000 	nop
    b7cc:	00000000 	nop
    b7d0:	00000021 	move	zero,zero
    b7d4:	00000021 	move	zero,zero
    b7d8:	00000021 	move	zero,zero
    b7dc:	00000021 	move	zero,zero
    b7e0:	00000021 	move	zero,zero
    b7e4:	00000021 	move	zero,zero
    b7e8:	00000021 	move	zero,zero
    b7ec:	00000021 	move	zero,zero
    b7f0:	00000021 	move	zero,zero
    b7f4:	00000021 	move	zero,zero
    b7f8:	00000021 	move	zero,zero
    b7fc:	00000021 	move	zero,zero
    b800:	00000021 	move	zero,zero
    b804:	00000021 	move	zero,zero
    b808:	00000021 	move	zero,zero
    b80c:	3c124770 	lui	s2,0x4770
    b810:	365226b8 	ori	s2,s2,0x26b8
    b814:	001fa021 	addu	s4,zero,ra
    b818:	0015f821 	addu	ra,zero,s5
    b81c:	3c150001 	lui	s5,0x1
    b820:	26b5b77c 	addiu	s5,s5,-18564
    b824:	3c160001 	lui	s6,0x1
    b828:	26d6b7bc 	addiu	s6,s6,-18500
    b82c:	3c18aa55 	lui	t8,0xaa55
    b830:	371810c0 	ori	t8,t8,0x10c0
    b834:	1618196a 	bne	s0,t8,11de0 <inst_error>
    b838:	00000000 	nop
    b83c:	00000000 	nop
    b840:	3c184770 	lui	t8,0x4770
    b844:	371826b8 	ori	t8,t8,0x26b8
    b848:	16581965 	bne	s2,t8,11de0 <inst_error>
    b84c:	00000000 	nop
    b850:	00000000 	nop
    b854:	3c19bfc0 	lui	t9,0xbfc0
    b858:	373962a0 	ori	t9,t9,0x62a0
    b85c:	3c18bfc0 	lui	t8,0xbfc0
    b860:	37186298 	ori	t8,t8,0x6298
    b864:	27180008 	addiu	t8,t8,8
    b868:	1319000a 	beq	t8,t9,b894 <n36_bgezal_test+0xb894>
    b86c:	00000000 	nop
    b870:	00000000 	nop
    b874:	3c18bfc0 	lui	t8,0xbfc0
    b878:	371862d0 	ori	t8,t8,0x62d0
    b87c:	27180008 	addiu	t8,t8,8
    b880:	1319000a 	beq	t8,t9,b8ac <n36_bgezal_test+0xb8ac>
    b884:	00000000 	nop
    b888:	10001955 	b	11de0 <inst_error>
    b88c:	00000000 	nop
    b890:	00000000 	nop
    b894:	26b50008 	addiu	s5,s5,8
    b898:	16951951 	bne	s4,s5,11de0 <inst_error>
    b89c:	00000000 	nop
    b8a0:	10000006 	b	b8bc <n36_bgezal_test+0xb8bc>
    b8a4:	00000000 	nop
    b8a8:	00000000 	nop
    b8ac:	26d60008 	addiu	s6,s6,8
    b8b0:	1696194b 	bne	s4,s6,11de0 <inst_error>
    b8b4:	00000000 	nop
	...
    b8c0:	001fa821 	addu	s5,zero,ra
    b8c4:	3c0c7df2 	lui	t4,0x7df2
    b8c8:	358c68b0 	ori	t4,t4,0x68b0
    b8cc:	3c0dc8f7 	lui	t5,0xc8f7
    b8d0:	35ada25d 	ori	t5,t5,0xa25d
    b8d4:	24100000 	li	s0,0
    b8d8:	10000012 	b	b924 <n36_bgezal_test+0xb924>
    b8dc:	24120000 	li	s2,0
    b8e0:	00000000 	nop
    b8e4:	3c107df2 	lui	s0,0x7df2
    b8e8:	361068b0 	ori	s0,s0,0x68b0
    b8ec:	05110023 	bgezal	t0,b97c <n36_bgezal_test+0xb97c>
    b8f0:	00000000 	nop
    b8f4:	10000023 	b	b984 <n36_bgezal_test+0xb984>
    b8f8:	00000000 	nop
    b8fc:	00000000 	nop
    b900:	00000021 	move	zero,zero
    b904:	00000021 	move	zero,zero
    b908:	00000021 	move	zero,zero
    b90c:	00000021 	move	zero,zero
    b910:	00000021 	move	zero,zero
    b914:	00000021 	move	zero,zero
    b918:	00000021 	move	zero,zero
    b91c:	00000021 	move	zero,zero
    b920:	00000021 	move	zero,zero
    b924:	3c08406f 	lui	t0,0x406f
    b928:	350892c2 	ori	t0,t0,0x92c2
    b92c:	0511ffed 	bgezal	t0,b8e4 <n36_bgezal_test+0xb8e4>
    b930:	00000000 	nop
    b934:	10000013 	b	b984 <n36_bgezal_test+0xb984>
    b938:	00000000 	nop
    b93c:	00000000 	nop
    b940:	00000021 	move	zero,zero
    b944:	00000021 	move	zero,zero
    b948:	00000021 	move	zero,zero
    b94c:	00000021 	move	zero,zero
    b950:	00000021 	move	zero,zero
    b954:	00000021 	move	zero,zero
    b958:	00000021 	move	zero,zero
    b95c:	00000021 	move	zero,zero
    b960:	00000021 	move	zero,zero
    b964:	00000021 	move	zero,zero
    b968:	00000021 	move	zero,zero
    b96c:	00000021 	move	zero,zero
    b970:	00000021 	move	zero,zero
    b974:	00000021 	move	zero,zero
    b978:	00000021 	move	zero,zero
    b97c:	3c12c8f7 	lui	s2,0xc8f7
    b980:	3652a25d 	ori	s2,s2,0xa25d
    b984:	001fa021 	addu	s4,zero,ra
    b988:	0015f821 	addu	ra,zero,s5
    b98c:	3c150001 	lui	s5,0x1
    b990:	26b5b8ec 	addiu	s5,s5,-18196
    b994:	3c160001 	lui	s6,0x1
    b998:	26d6b92c 	addiu	s6,s6,-18132
    b99c:	3c187df2 	lui	t8,0x7df2
    b9a0:	371868b0 	ori	t8,t8,0x68b0
    b9a4:	1618190e 	bne	s0,t8,11de0 <inst_error>
    b9a8:	00000000 	nop
    b9ac:	00000000 	nop
    b9b0:	3c18c8f7 	lui	t8,0xc8f7
    b9b4:	3718a25d 	ori	t8,t8,0xa25d
    b9b8:	16581909 	bne	s2,t8,11de0 <inst_error>
    b9bc:	00000000 	nop
    b9c0:	00000000 	nop
    b9c4:	3c19bfc0 	lui	t9,0xbfc0
    b9c8:	3739635c 	ori	t9,t9,0x635c
    b9cc:	3c18bfc0 	lui	t8,0xbfc0
    b9d0:	37186354 	ori	t8,t8,0x6354
    b9d4:	27180008 	addiu	t8,t8,8
    b9d8:	1319000a 	beq	t8,t9,ba04 <n36_bgezal_test+0xba04>
    b9dc:	00000000 	nop
    b9e0:	00000000 	nop
    b9e4:	3c18bfc0 	lui	t8,0xbfc0
    b9e8:	3718638c 	ori	t8,t8,0x638c
    b9ec:	27180008 	addiu	t8,t8,8
    b9f0:	1319000a 	beq	t8,t9,ba1c <n36_bgezal_test+0xba1c>
    b9f4:	00000000 	nop
    b9f8:	100018f9 	b	11de0 <inst_error>
    b9fc:	00000000 	nop
    ba00:	00000000 	nop
    ba04:	26b50008 	addiu	s5,s5,8
    ba08:	169518f5 	bne	s4,s5,11de0 <inst_error>
    ba0c:	00000000 	nop
    ba10:	10000006 	b	ba2c <n36_bgezal_test+0xba2c>
    ba14:	00000000 	nop
    ba18:	00000000 	nop
    ba1c:	26d60008 	addiu	s6,s6,8
    ba20:	169618ef 	bne	s4,s6,11de0 <inst_error>
    ba24:	00000000 	nop
	...
    ba30:	001fa821 	addu	s5,zero,ra
    ba34:	3c0c4559 	lui	t4,0x4559
    ba38:	358c36a0 	ori	t4,t4,0x36a0
    ba3c:	3c0dd113 	lui	t5,0xd113
    ba40:	35ad3fb0 	ori	t5,t5,0x3fb0
    ba44:	24100000 	li	s0,0
    ba48:	10000012 	b	ba94 <n36_bgezal_test+0xba94>
    ba4c:	24120000 	li	s2,0
    ba50:	00000000 	nop
    ba54:	3c104559 	lui	s0,0x4559
    ba58:	361036a0 	ori	s0,s0,0x36a0
    ba5c:	05110023 	bgezal	t0,baec <n36_bgezal_test+0xbaec>
    ba60:	00000000 	nop
    ba64:	10000023 	b	baf4 <n36_bgezal_test+0xbaf4>
    ba68:	00000000 	nop
    ba6c:	00000000 	nop
    ba70:	00000021 	move	zero,zero
    ba74:	00000021 	move	zero,zero
    ba78:	00000021 	move	zero,zero
    ba7c:	00000021 	move	zero,zero
    ba80:	00000021 	move	zero,zero
    ba84:	00000021 	move	zero,zero
    ba88:	00000021 	move	zero,zero
    ba8c:	00000021 	move	zero,zero
    ba90:	00000021 	move	zero,zero
    ba94:	3c085c22 	lui	t0,0x5c22
    ba98:	35081ab6 	ori	t0,t0,0x1ab6
    ba9c:	0511ffed 	bgezal	t0,ba54 <n36_bgezal_test+0xba54>
    baa0:	00000000 	nop
    baa4:	10000013 	b	baf4 <n36_bgezal_test+0xbaf4>
    baa8:	00000000 	nop
    baac:	00000000 	nop
    bab0:	00000021 	move	zero,zero
    bab4:	00000021 	move	zero,zero
    bab8:	00000021 	move	zero,zero
    babc:	00000021 	move	zero,zero
    bac0:	00000021 	move	zero,zero
    bac4:	00000021 	move	zero,zero
    bac8:	00000021 	move	zero,zero
    bacc:	00000021 	move	zero,zero
    bad0:	00000021 	move	zero,zero
    bad4:	00000021 	move	zero,zero
    bad8:	00000021 	move	zero,zero
    badc:	00000021 	move	zero,zero
    bae0:	00000021 	move	zero,zero
    bae4:	00000021 	move	zero,zero
    bae8:	00000021 	move	zero,zero
    baec:	3c12d113 	lui	s2,0xd113
    baf0:	36523fb0 	ori	s2,s2,0x3fb0
    baf4:	001fa021 	addu	s4,zero,ra
    baf8:	0015f821 	addu	ra,zero,s5
    bafc:	3c150001 	lui	s5,0x1
    bb00:	26b5ba5c 	addiu	s5,s5,-17828
    bb04:	3c160001 	lui	s6,0x1
    bb08:	26d6ba9c 	addiu	s6,s6,-17764
    bb0c:	3c184559 	lui	t8,0x4559
    bb10:	371836a0 	ori	t8,t8,0x36a0
    bb14:	161818b2 	bne	s0,t8,11de0 <inst_error>
    bb18:	00000000 	nop
    bb1c:	00000000 	nop
    bb20:	3c18d113 	lui	t8,0xd113
    bb24:	37183fb0 	ori	t8,t8,0x3fb0
    bb28:	165818ad 	bne	s2,t8,11de0 <inst_error>
    bb2c:	00000000 	nop
    bb30:	00000000 	nop
    bb34:	3c19bfc0 	lui	t9,0xbfc0
    bb38:	37396418 	ori	t9,t9,0x6418
    bb3c:	3c18bfc0 	lui	t8,0xbfc0
    bb40:	37186410 	ori	t8,t8,0x6410
    bb44:	27180008 	addiu	t8,t8,8
    bb48:	1319000a 	beq	t8,t9,bb74 <n36_bgezal_test+0xbb74>
    bb4c:	00000000 	nop
    bb50:	00000000 	nop
    bb54:	3c18bfc0 	lui	t8,0xbfc0
    bb58:	37186448 	ori	t8,t8,0x6448
    bb5c:	27180008 	addiu	t8,t8,8
    bb60:	1319000a 	beq	t8,t9,bb8c <n36_bgezal_test+0xbb8c>
    bb64:	00000000 	nop
    bb68:	1000189d 	b	11de0 <inst_error>
    bb6c:	00000000 	nop
    bb70:	00000000 	nop
    bb74:	26b50008 	addiu	s5,s5,8
    bb78:	16951899 	bne	s4,s5,11de0 <inst_error>
    bb7c:	00000000 	nop
    bb80:	10000006 	b	bb9c <n36_bgezal_test+0xbb9c>
    bb84:	00000000 	nop
    bb88:	00000000 	nop
    bb8c:	26d60008 	addiu	s6,s6,8
    bb90:	16961893 	bne	s4,s6,11de0 <inst_error>
    bb94:	00000000 	nop
	...
    bba0:	001fa821 	addu	s5,zero,ra
    bba4:	3c0c19a6 	lui	t4,0x19a6
    bba8:	358c0c80 	ori	t4,t4,0xc80
    bbac:	3c0d9659 	lui	t5,0x9659
    bbb0:	35adb2f4 	ori	t5,t5,0xb2f4
    bbb4:	24100000 	li	s0,0
    bbb8:	10000012 	b	bc04 <n36_bgezal_test+0xbc04>
    bbbc:	24120000 	li	s2,0
    bbc0:	00000000 	nop
    bbc4:	3c1019a6 	lui	s0,0x19a6
    bbc8:	36100c80 	ori	s0,s0,0xc80
    bbcc:	05110023 	bgezal	t0,bc5c <n36_bgezal_test+0xbc5c>
    bbd0:	00000000 	nop
    bbd4:	10000023 	b	bc64 <n36_bgezal_test+0xbc64>
    bbd8:	00000000 	nop
    bbdc:	00000000 	nop
    bbe0:	00000021 	move	zero,zero
    bbe4:	00000021 	move	zero,zero
    bbe8:	00000021 	move	zero,zero
    bbec:	00000021 	move	zero,zero
    bbf0:	00000021 	move	zero,zero
    bbf4:	00000021 	move	zero,zero
    bbf8:	00000021 	move	zero,zero
    bbfc:	00000021 	move	zero,zero
    bc00:	00000021 	move	zero,zero
    bc04:	3c082527 	lui	t0,0x2527
    bc08:	3508510a 	ori	t0,t0,0x510a
    bc0c:	0511ffed 	bgezal	t0,bbc4 <n36_bgezal_test+0xbbc4>
    bc10:	00000000 	nop
    bc14:	10000013 	b	bc64 <n36_bgezal_test+0xbc64>
    bc18:	00000000 	nop
    bc1c:	00000000 	nop
    bc20:	00000021 	move	zero,zero
    bc24:	00000021 	move	zero,zero
    bc28:	00000021 	move	zero,zero
    bc2c:	00000021 	move	zero,zero
    bc30:	00000021 	move	zero,zero
    bc34:	00000021 	move	zero,zero
    bc38:	00000021 	move	zero,zero
    bc3c:	00000021 	move	zero,zero
    bc40:	00000021 	move	zero,zero
    bc44:	00000021 	move	zero,zero
    bc48:	00000021 	move	zero,zero
    bc4c:	00000021 	move	zero,zero
    bc50:	00000021 	move	zero,zero
    bc54:	00000021 	move	zero,zero
    bc58:	00000021 	move	zero,zero
    bc5c:	3c129659 	lui	s2,0x9659
    bc60:	3652b2f4 	ori	s2,s2,0xb2f4
    bc64:	001fa021 	addu	s4,zero,ra
    bc68:	0015f821 	addu	ra,zero,s5
    bc6c:	3c150001 	lui	s5,0x1
    bc70:	26b5bbcc 	addiu	s5,s5,-17460
    bc74:	3c160001 	lui	s6,0x1
    bc78:	26d6bc0c 	addiu	s6,s6,-17396
    bc7c:	3c1819a6 	lui	t8,0x19a6
    bc80:	37180c80 	ori	t8,t8,0xc80
    bc84:	16181856 	bne	s0,t8,11de0 <inst_error>
    bc88:	00000000 	nop
    bc8c:	00000000 	nop
    bc90:	3c189659 	lui	t8,0x9659
    bc94:	3718b2f4 	ori	t8,t8,0xb2f4
    bc98:	16581851 	bne	s2,t8,11de0 <inst_error>
    bc9c:	00000000 	nop
    bca0:	00000000 	nop
    bca4:	3c19bfc0 	lui	t9,0xbfc0
    bca8:	373964d4 	ori	t9,t9,0x64d4
    bcac:	3c18bfc0 	lui	t8,0xbfc0
    bcb0:	371864cc 	ori	t8,t8,0x64cc
    bcb4:	27180008 	addiu	t8,t8,8
    bcb8:	1319000a 	beq	t8,t9,bce4 <n36_bgezal_test+0xbce4>
    bcbc:	00000000 	nop
    bcc0:	00000000 	nop
    bcc4:	3c18bfc0 	lui	t8,0xbfc0
    bcc8:	37186504 	ori	t8,t8,0x6504
    bccc:	27180008 	addiu	t8,t8,8
    bcd0:	1319000a 	beq	t8,t9,bcfc <n36_bgezal_test+0xbcfc>
    bcd4:	00000000 	nop
    bcd8:	10001841 	b	11de0 <inst_error>
    bcdc:	00000000 	nop
    bce0:	00000000 	nop
    bce4:	26b50008 	addiu	s5,s5,8
    bce8:	1695183d 	bne	s4,s5,11de0 <inst_error>
    bcec:	00000000 	nop
    bcf0:	10000006 	b	bd0c <n36_bgezal_test+0xbd0c>
    bcf4:	00000000 	nop
    bcf8:	00000000 	nop
    bcfc:	26d60008 	addiu	s6,s6,8
    bd00:	16961837 	bne	s4,s6,11de0 <inst_error>
    bd04:	00000000 	nop
	...
    bd10:	001fa821 	addu	s5,zero,ra
    bd14:	3c0cbc5f 	lui	t4,0xbc5f
    bd18:	358c15c0 	ori	t4,t4,0x15c0
    bd1c:	3c0d36c6 	lui	t5,0x36c6
    bd20:	35ad3a7a 	ori	t5,t5,0x3a7a
    bd24:	24100000 	li	s0,0
    bd28:	10000012 	b	bd74 <n36_bgezal_test+0xbd74>
    bd2c:	24120000 	li	s2,0
    bd30:	00000000 	nop
    bd34:	3c10bc5f 	lui	s0,0xbc5f
    bd38:	361015c0 	ori	s0,s0,0x15c0
    bd3c:	05110023 	bgezal	t0,bdcc <n36_bgezal_test+0xbdcc>
    bd40:	00000000 	nop
    bd44:	10000023 	b	bdd4 <n36_bgezal_test+0xbdd4>
    bd48:	00000000 	nop
    bd4c:	00000000 	nop
    bd50:	00000021 	move	zero,zero
    bd54:	00000021 	move	zero,zero
    bd58:	00000021 	move	zero,zero
    bd5c:	00000021 	move	zero,zero
    bd60:	00000021 	move	zero,zero
    bd64:	00000021 	move	zero,zero
    bd68:	00000021 	move	zero,zero
    bd6c:	00000021 	move	zero,zero
    bd70:	00000021 	move	zero,zero
    bd74:	3c08a55c 	lui	t0,0xa55c
    bd78:	3508a800 	ori	t0,t0,0xa800
    bd7c:	0511ffed 	bgezal	t0,bd34 <n36_bgezal_test+0xbd34>
    bd80:	00000000 	nop
    bd84:	10000013 	b	bdd4 <n36_bgezal_test+0xbdd4>
    bd88:	00000000 	nop
    bd8c:	00000000 	nop
    bd90:	00000021 	move	zero,zero
    bd94:	00000021 	move	zero,zero
    bd98:	00000021 	move	zero,zero
    bd9c:	00000021 	move	zero,zero
    bda0:	00000021 	move	zero,zero
    bda4:	00000021 	move	zero,zero
    bda8:	00000021 	move	zero,zero
    bdac:	00000021 	move	zero,zero
    bdb0:	00000021 	move	zero,zero
    bdb4:	00000021 	move	zero,zero
    bdb8:	00000021 	move	zero,zero
    bdbc:	00000021 	move	zero,zero
    bdc0:	00000021 	move	zero,zero
    bdc4:	00000021 	move	zero,zero
    bdc8:	00000021 	move	zero,zero
    bdcc:	3c1236c6 	lui	s2,0x36c6
    bdd0:	36523a7a 	ori	s2,s2,0x3a7a
    bdd4:	001fa021 	addu	s4,zero,ra
    bdd8:	0015f821 	addu	ra,zero,s5
    bddc:	3c150001 	lui	s5,0x1
    bde0:	26b5bd3c 	addiu	s5,s5,-17092
    bde4:	3c160001 	lui	s6,0x1
    bde8:	26d6bd7c 	addiu	s6,s6,-17028
    bdec:	24180000 	li	t8,0
    bdf0:	161817fb 	bne	s0,t8,11de0 <inst_error>
    bdf4:	00000000 	nop
    bdf8:	00000000 	nop
    bdfc:	24180000 	li	t8,0
    be00:	165817f7 	bne	s2,t8,11de0 <inst_error>
    be04:	00000000 	nop
    be08:	00000000 	nop
    be0c:	3c19bfc0 	lui	t9,0xbfc0
    be10:	373965c8 	ori	t9,t9,0x65c8
    be14:	3c18bfc0 	lui	t8,0xbfc0
    be18:	37186588 	ori	t8,t8,0x6588
    be1c:	27180008 	addiu	t8,t8,8
    be20:	1319000a 	beq	t8,t9,be4c <n36_bgezal_test+0xbe4c>
    be24:	00000000 	nop
    be28:	00000000 	nop
    be2c:	3c18bfc0 	lui	t8,0xbfc0
    be30:	371865c0 	ori	t8,t8,0x65c0
    be34:	27180008 	addiu	t8,t8,8
    be38:	1319000a 	beq	t8,t9,be64 <n36_bgezal_test+0xbe64>
    be3c:	00000000 	nop
    be40:	100017e7 	b	11de0 <inst_error>
    be44:	00000000 	nop
    be48:	00000000 	nop
    be4c:	26b50008 	addiu	s5,s5,8
    be50:	169517e3 	bne	s4,s5,11de0 <inst_error>
    be54:	00000000 	nop
    be58:	10000006 	b	be74 <n36_bgezal_test+0xbe74>
    be5c:	00000000 	nop
    be60:	00000000 	nop
    be64:	26d60008 	addiu	s6,s6,8
    be68:	169617dd 	bne	s4,s6,11de0 <inst_error>
    be6c:	00000000 	nop
	...
    be78:	001fa821 	addu	s5,zero,ra
    be7c:	3c0ce682 	lui	t4,0xe682
    be80:	358c4b52 	ori	t4,t4,0x4b52
    be84:	3c0dd28b 	lui	t5,0xd28b
    be88:	35ad8008 	ori	t5,t5,0x8008
    be8c:	24100000 	li	s0,0
    be90:	10000012 	b	bedc <n36_bgezal_test+0xbedc>
    be94:	24120000 	li	s2,0
    be98:	00000000 	nop
    be9c:	3c10e682 	lui	s0,0xe682
    bea0:	36104b52 	ori	s0,s0,0x4b52
    bea4:	05110023 	bgezal	t0,bf34 <n36_bgezal_test+0xbf34>
    bea8:	00000000 	nop
    beac:	10000023 	b	bf3c <n36_bgezal_test+0xbf3c>
    beb0:	00000000 	nop
    beb4:	00000000 	nop
    beb8:	00000021 	move	zero,zero
    bebc:	00000021 	move	zero,zero
    bec0:	00000021 	move	zero,zero
    bec4:	00000021 	move	zero,zero
    bec8:	00000021 	move	zero,zero
    becc:	00000021 	move	zero,zero
    bed0:	00000021 	move	zero,zero
    bed4:	00000021 	move	zero,zero
    bed8:	00000021 	move	zero,zero
    bedc:	3c08abe3 	lui	t0,0xabe3
    bee0:	35088b6a 	ori	t0,t0,0x8b6a
    bee4:	0511ffed 	bgezal	t0,be9c <n36_bgezal_test+0xbe9c>
    bee8:	00000000 	nop
    beec:	10000013 	b	bf3c <n36_bgezal_test+0xbf3c>
    bef0:	00000000 	nop
    bef4:	00000000 	nop
    bef8:	00000021 	move	zero,zero
    befc:	00000021 	move	zero,zero
    bf00:	00000021 	move	zero,zero
    bf04:	00000021 	move	zero,zero
    bf08:	00000021 	move	zero,zero
    bf0c:	00000021 	move	zero,zero
    bf10:	00000021 	move	zero,zero
    bf14:	00000021 	move	zero,zero
    bf18:	00000021 	move	zero,zero
    bf1c:	00000021 	move	zero,zero
    bf20:	00000021 	move	zero,zero
    bf24:	00000021 	move	zero,zero
    bf28:	00000021 	move	zero,zero
    bf2c:	00000021 	move	zero,zero
    bf30:	00000021 	move	zero,zero
    bf34:	3c12d28b 	lui	s2,0xd28b
    bf38:	36528008 	ori	s2,s2,0x8008
    bf3c:	001fa021 	addu	s4,zero,ra
    bf40:	0015f821 	addu	ra,zero,s5
    bf44:	3c150001 	lui	s5,0x1
    bf48:	26b5bea4 	addiu	s5,s5,-16732
    bf4c:	3c160001 	lui	s6,0x1
    bf50:	26d6bee4 	addiu	s6,s6,-16668
    bf54:	24180000 	li	t8,0
    bf58:	161817a1 	bne	s0,t8,11de0 <inst_error>
    bf5c:	00000000 	nop
    bf60:	00000000 	nop
    bf64:	24180000 	li	t8,0
    bf68:	1658179d 	bne	s2,t8,11de0 <inst_error>
    bf6c:	00000000 	nop
    bf70:	00000000 	nop
    bf74:	3c19bfc0 	lui	t9,0xbfc0
    bf78:	37396684 	ori	t9,t9,0x6684
    bf7c:	3c18bfc0 	lui	t8,0xbfc0
    bf80:	37186644 	ori	t8,t8,0x6644
    bf84:	27180008 	addiu	t8,t8,8
    bf88:	1319000a 	beq	t8,t9,bfb4 <n36_bgezal_test+0xbfb4>
    bf8c:	00000000 	nop
    bf90:	00000000 	nop
    bf94:	3c18bfc0 	lui	t8,0xbfc0
    bf98:	3718667c 	ori	t8,t8,0x667c
    bf9c:	27180008 	addiu	t8,t8,8
    bfa0:	1319000a 	beq	t8,t9,bfcc <n36_bgezal_test+0xbfcc>
    bfa4:	00000000 	nop
    bfa8:	1000178d 	b	11de0 <inst_error>
    bfac:	00000000 	nop
    bfb0:	00000000 	nop
    bfb4:	26b50008 	addiu	s5,s5,8
    bfb8:	16951789 	bne	s4,s5,11de0 <inst_error>
    bfbc:	00000000 	nop
    bfc0:	10000006 	b	bfdc <n36_bgezal_test+0xbfdc>
    bfc4:	00000000 	nop
    bfc8:	00000000 	nop
    bfcc:	26d60008 	addiu	s6,s6,8
    bfd0:	16961783 	bne	s4,s6,11de0 <inst_error>
    bfd4:	00000000 	nop
	...
    bfe0:	001fa821 	addu	s5,zero,ra
    bfe4:	3c0c2765 	lui	t4,0x2765
    bfe8:	358c96c8 	ori	t4,t4,0x96c8
    bfec:	3c0d3cc6 	lui	t5,0x3cc6
    bff0:	35ad1e70 	ori	t5,t5,0x1e70
    bff4:	24100000 	li	s0,0
    bff8:	10000012 	b	c044 <n36_bgezal_test+0xc044>
    bffc:	24120000 	li	s2,0
    c000:	00000000 	nop
    c004:	3c102765 	lui	s0,0x2765
    c008:	361096c8 	ori	s0,s0,0x96c8
    c00c:	05110023 	bgezal	t0,c09c <n36_bgezal_test+0xc09c>
    c010:	00000000 	nop
    c014:	10000023 	b	c0a4 <n36_bgezal_test+0xc0a4>
    c018:	00000000 	nop
    c01c:	00000000 	nop
    c020:	00000021 	move	zero,zero
    c024:	00000021 	move	zero,zero
    c028:	00000021 	move	zero,zero
    c02c:	00000021 	move	zero,zero
    c030:	00000021 	move	zero,zero
    c034:	00000021 	move	zero,zero
    c038:	00000021 	move	zero,zero
    c03c:	00000021 	move	zero,zero
    c040:	00000021 	move	zero,zero
    c044:	3c080bfe 	lui	t0,0xbfe
    c048:	350849f4 	ori	t0,t0,0x49f4
    c04c:	0511ffed 	bgezal	t0,c004 <n36_bgezal_test+0xc004>
    c050:	00000000 	nop
    c054:	10000013 	b	c0a4 <n36_bgezal_test+0xc0a4>
    c058:	00000000 	nop
    c05c:	00000000 	nop
    c060:	00000021 	move	zero,zero
    c064:	00000021 	move	zero,zero
    c068:	00000021 	move	zero,zero
    c06c:	00000021 	move	zero,zero
    c070:	00000021 	move	zero,zero
    c074:	00000021 	move	zero,zero
    c078:	00000021 	move	zero,zero
    c07c:	00000021 	move	zero,zero
    c080:	00000021 	move	zero,zero
    c084:	00000021 	move	zero,zero
    c088:	00000021 	move	zero,zero
    c08c:	00000021 	move	zero,zero
    c090:	00000021 	move	zero,zero
    c094:	00000021 	move	zero,zero
    c098:	00000021 	move	zero,zero
    c09c:	3c123cc6 	lui	s2,0x3cc6
    c0a0:	36521e70 	ori	s2,s2,0x1e70
    c0a4:	001fa021 	addu	s4,zero,ra
    c0a8:	0015f821 	addu	ra,zero,s5
    c0ac:	3c150001 	lui	s5,0x1
    c0b0:	26b5c00c 	addiu	s5,s5,-16372
    c0b4:	3c160001 	lui	s6,0x1
    c0b8:	26d6c04c 	addiu	s6,s6,-16308
    c0bc:	3c182765 	lui	t8,0x2765
    c0c0:	371896c8 	ori	t8,t8,0x96c8
    c0c4:	16181746 	bne	s0,t8,11de0 <inst_error>
    c0c8:	00000000 	nop
    c0cc:	00000000 	nop
    c0d0:	3c183cc6 	lui	t8,0x3cc6
    c0d4:	37181e70 	ori	t8,t8,0x1e70
    c0d8:	16581741 	bne	s2,t8,11de0 <inst_error>
    c0dc:	00000000 	nop
    c0e0:	00000000 	nop
    c0e4:	3c19bfc0 	lui	t9,0xbfc0
    c0e8:	37396708 	ori	t9,t9,0x6708
    c0ec:	3c18bfc0 	lui	t8,0xbfc0
    c0f0:	37186700 	ori	t8,t8,0x6700
    c0f4:	27180008 	addiu	t8,t8,8
    c0f8:	1319000a 	beq	t8,t9,c124 <n36_bgezal_test+0xc124>
    c0fc:	00000000 	nop
    c100:	00000000 	nop
    c104:	3c18bfc0 	lui	t8,0xbfc0
    c108:	37186738 	ori	t8,t8,0x6738
    c10c:	27180008 	addiu	t8,t8,8
    c110:	1319000a 	beq	t8,t9,c13c <n36_bgezal_test+0xc13c>
    c114:	00000000 	nop
    c118:	10001731 	b	11de0 <inst_error>
    c11c:	00000000 	nop
    c120:	00000000 	nop
    c124:	26b50008 	addiu	s5,s5,8
    c128:	1695172d 	bne	s4,s5,11de0 <inst_error>
    c12c:	00000000 	nop
    c130:	10000006 	b	c14c <n36_bgezal_test+0xc14c>
    c134:	00000000 	nop
    c138:	00000000 	nop
    c13c:	26d60008 	addiu	s6,s6,8
    c140:	16961727 	bne	s4,s6,11de0 <inst_error>
    c144:	00000000 	nop
	...
    c150:	001fa821 	addu	s5,zero,ra
    c154:	3c0c83a7 	lui	t4,0x83a7
    c158:	358c74f8 	ori	t4,t4,0x74f8
    c15c:	3c0d5fab 	lui	t5,0x5fab
    c160:	35ada638 	ori	t5,t5,0xa638
    c164:	24100000 	li	s0,0
    c168:	10000012 	b	c1b4 <n36_bgezal_test+0xc1b4>
    c16c:	24120000 	li	s2,0
    c170:	00000000 	nop
    c174:	3c1083a7 	lui	s0,0x83a7
    c178:	361074f8 	ori	s0,s0,0x74f8
    c17c:	05110023 	bgezal	t0,c20c <n36_bgezal_test+0xc20c>
    c180:	00000000 	nop
    c184:	10000023 	b	c214 <n36_bgezal_test+0xc214>
    c188:	00000000 	nop
    c18c:	00000000 	nop
    c190:	00000021 	move	zero,zero
    c194:	00000021 	move	zero,zero
    c198:	00000021 	move	zero,zero
    c19c:	00000021 	move	zero,zero
    c1a0:	00000021 	move	zero,zero
    c1a4:	00000021 	move	zero,zero
    c1a8:	00000021 	move	zero,zero
    c1ac:	00000021 	move	zero,zero
    c1b0:	00000021 	move	zero,zero
    c1b4:	3c08a46f 	lui	t0,0xa46f
    c1b8:	3508df48 	ori	t0,t0,0xdf48
    c1bc:	0511ffed 	bgezal	t0,c174 <n36_bgezal_test+0xc174>
    c1c0:	00000000 	nop
    c1c4:	10000013 	b	c214 <n36_bgezal_test+0xc214>
    c1c8:	00000000 	nop
    c1cc:	00000000 	nop
    c1d0:	00000021 	move	zero,zero
    c1d4:	00000021 	move	zero,zero
    c1d8:	00000021 	move	zero,zero
    c1dc:	00000021 	move	zero,zero
    c1e0:	00000021 	move	zero,zero
    c1e4:	00000021 	move	zero,zero
    c1e8:	00000021 	move	zero,zero
    c1ec:	00000021 	move	zero,zero
    c1f0:	00000021 	move	zero,zero
    c1f4:	00000021 	move	zero,zero
    c1f8:	00000021 	move	zero,zero
    c1fc:	00000021 	move	zero,zero
    c200:	00000021 	move	zero,zero
    c204:	00000021 	move	zero,zero
    c208:	00000021 	move	zero,zero
    c20c:	3c125fab 	lui	s2,0x5fab
    c210:	3652a638 	ori	s2,s2,0xa638
    c214:	001fa021 	addu	s4,zero,ra
    c218:	0015f821 	addu	ra,zero,s5
    c21c:	3c150001 	lui	s5,0x1
    c220:	26b5c17c 	addiu	s5,s5,-16004
    c224:	3c160001 	lui	s6,0x1
    c228:	26d6c1bc 	addiu	s6,s6,-15940
    c22c:	24180000 	li	t8,0
    c230:	161816eb 	bne	s0,t8,11de0 <inst_error>
    c234:	00000000 	nop
    c238:	00000000 	nop
    c23c:	24180000 	li	t8,0
    c240:	165816e7 	bne	s2,t8,11de0 <inst_error>
    c244:	00000000 	nop
    c248:	00000000 	nop
    c24c:	3c19bfc0 	lui	t9,0xbfc0
    c250:	373967fc 	ori	t9,t9,0x67fc
    c254:	3c18bfc0 	lui	t8,0xbfc0
    c258:	371867bc 	ori	t8,t8,0x67bc
    c25c:	27180008 	addiu	t8,t8,8
    c260:	1319000a 	beq	t8,t9,c28c <n36_bgezal_test+0xc28c>
    c264:	00000000 	nop
    c268:	00000000 	nop
    c26c:	3c18bfc0 	lui	t8,0xbfc0
    c270:	371867f4 	ori	t8,t8,0x67f4
    c274:	27180008 	addiu	t8,t8,8
    c278:	1319000a 	beq	t8,t9,c2a4 <n36_bgezal_test+0xc2a4>
    c27c:	00000000 	nop
    c280:	100016d7 	b	11de0 <inst_error>
    c284:	00000000 	nop
    c288:	00000000 	nop
    c28c:	26b50008 	addiu	s5,s5,8
    c290:	169516d3 	bne	s4,s5,11de0 <inst_error>
    c294:	00000000 	nop
    c298:	10000006 	b	c2b4 <n36_bgezal_test+0xc2b4>
    c29c:	00000000 	nop
    c2a0:	00000000 	nop
    c2a4:	26d60008 	addiu	s6,s6,8
    c2a8:	169616cd 	bne	s4,s6,11de0 <inst_error>
    c2ac:	00000000 	nop
	...
    c2b8:	001fa821 	addu	s5,zero,ra
    c2bc:	3c0cc70f 	lui	t4,0xc70f
    c2c0:	358cfa10 	ori	t4,t4,0xfa10
    c2c4:	3c0dcbbc 	lui	t5,0xcbbc
    c2c8:	35ade566 	ori	t5,t5,0xe566
    c2cc:	24100000 	li	s0,0
    c2d0:	10000012 	b	c31c <n36_bgezal_test+0xc31c>
    c2d4:	24120000 	li	s2,0
    c2d8:	00000000 	nop
    c2dc:	3c10c70f 	lui	s0,0xc70f
    c2e0:	3610fa10 	ori	s0,s0,0xfa10
    c2e4:	05110023 	bgezal	t0,c374 <n36_bgezal_test+0xc374>
    c2e8:	00000000 	nop
    c2ec:	10000023 	b	c37c <n36_bgezal_test+0xc37c>
    c2f0:	00000000 	nop
    c2f4:	00000000 	nop
    c2f8:	00000021 	move	zero,zero
    c2fc:	00000021 	move	zero,zero
    c300:	00000021 	move	zero,zero
    c304:	00000021 	move	zero,zero
    c308:	00000021 	move	zero,zero
    c30c:	00000021 	move	zero,zero
    c310:	00000021 	move	zero,zero
    c314:	00000021 	move	zero,zero
    c318:	00000021 	move	zero,zero
    c31c:	3c08457d 	lui	t0,0x457d
    c320:	3508808b 	ori	t0,t0,0x808b
    c324:	0511ffed 	bgezal	t0,c2dc <n36_bgezal_test+0xc2dc>
    c328:	00000000 	nop
    c32c:	10000013 	b	c37c <n36_bgezal_test+0xc37c>
    c330:	00000000 	nop
    c334:	00000000 	nop
    c338:	00000021 	move	zero,zero
    c33c:	00000021 	move	zero,zero
    c340:	00000021 	move	zero,zero
    c344:	00000021 	move	zero,zero
    c348:	00000021 	move	zero,zero
    c34c:	00000021 	move	zero,zero
    c350:	00000021 	move	zero,zero
    c354:	00000021 	move	zero,zero
    c358:	00000021 	move	zero,zero
    c35c:	00000021 	move	zero,zero
    c360:	00000021 	move	zero,zero
    c364:	00000021 	move	zero,zero
    c368:	00000021 	move	zero,zero
    c36c:	00000021 	move	zero,zero
    c370:	00000021 	move	zero,zero
    c374:	3c12cbbc 	lui	s2,0xcbbc
    c378:	3652e566 	ori	s2,s2,0xe566
    c37c:	001fa021 	addu	s4,zero,ra
    c380:	0015f821 	addu	ra,zero,s5
    c384:	3c150001 	lui	s5,0x1
    c388:	26b5c2e4 	addiu	s5,s5,-15644
    c38c:	3c160001 	lui	s6,0x1
    c390:	26d6c324 	addiu	s6,s6,-15580
    c394:	3c18c70f 	lui	t8,0xc70f
    c398:	3718fa10 	ori	t8,t8,0xfa10
    c39c:	16181690 	bne	s0,t8,11de0 <inst_error>
    c3a0:	00000000 	nop
    c3a4:	00000000 	nop
    c3a8:	3c18cbbc 	lui	t8,0xcbbc
    c3ac:	3718e566 	ori	t8,t8,0xe566
    c3b0:	1658168b 	bne	s2,t8,11de0 <inst_error>
    c3b4:	00000000 	nop
    c3b8:	00000000 	nop
    c3bc:	3c19bfc0 	lui	t9,0xbfc0
    c3c0:	37396880 	ori	t9,t9,0x6880
    c3c4:	3c18bfc0 	lui	t8,0xbfc0
    c3c8:	37186878 	ori	t8,t8,0x6878
    c3cc:	27180008 	addiu	t8,t8,8
    c3d0:	1319000a 	beq	t8,t9,c3fc <n36_bgezal_test+0xc3fc>
    c3d4:	00000000 	nop
    c3d8:	00000000 	nop
    c3dc:	3c18bfc0 	lui	t8,0xbfc0
    c3e0:	371868b0 	ori	t8,t8,0x68b0
    c3e4:	27180008 	addiu	t8,t8,8
    c3e8:	1319000a 	beq	t8,t9,c414 <n36_bgezal_test+0xc414>
    c3ec:	00000000 	nop
    c3f0:	1000167b 	b	11de0 <inst_error>
    c3f4:	00000000 	nop
    c3f8:	00000000 	nop
    c3fc:	26b50008 	addiu	s5,s5,8
    c400:	16951677 	bne	s4,s5,11de0 <inst_error>
    c404:	00000000 	nop
    c408:	10000006 	b	c424 <n36_bgezal_test+0xc424>
    c40c:	00000000 	nop
    c410:	00000000 	nop
    c414:	26d60008 	addiu	s6,s6,8
    c418:	16961671 	bne	s4,s6,11de0 <inst_error>
    c41c:	00000000 	nop
	...
    c428:	001fa821 	addu	s5,zero,ra
    c42c:	3c0c6d04 	lui	t4,0x6d04
    c430:	358cc2e4 	ori	t4,t4,0xc2e4
    c434:	3c0d904d 	lui	t5,0x904d
    c438:	35adb13e 	ori	t5,t5,0xb13e
    c43c:	24100000 	li	s0,0
    c440:	10000012 	b	c48c <n36_bgezal_test+0xc48c>
    c444:	24120000 	li	s2,0
    c448:	00000000 	nop
    c44c:	3c106d04 	lui	s0,0x6d04
    c450:	3610c2e4 	ori	s0,s0,0xc2e4
    c454:	05110023 	bgezal	t0,c4e4 <n36_bgezal_test+0xc4e4>
    c458:	00000000 	nop
    c45c:	10000023 	b	c4ec <n36_bgezal_test+0xc4ec>
    c460:	00000000 	nop
    c464:	00000000 	nop
    c468:	00000021 	move	zero,zero
    c46c:	00000021 	move	zero,zero
    c470:	00000021 	move	zero,zero
    c474:	00000021 	move	zero,zero
    c478:	00000021 	move	zero,zero
    c47c:	00000021 	move	zero,zero
    c480:	00000021 	move	zero,zero
    c484:	00000021 	move	zero,zero
    c488:	00000021 	move	zero,zero
    c48c:	3c087d1e 	lui	t0,0x7d1e
    c490:	350889e8 	ori	t0,t0,0x89e8
    c494:	0511ffed 	bgezal	t0,c44c <n36_bgezal_test+0xc44c>
    c498:	00000000 	nop
    c49c:	10000013 	b	c4ec <n36_bgezal_test+0xc4ec>
    c4a0:	00000000 	nop
    c4a4:	00000000 	nop
    c4a8:	00000021 	move	zero,zero
    c4ac:	00000021 	move	zero,zero
    c4b0:	00000021 	move	zero,zero
    c4b4:	00000021 	move	zero,zero
    c4b8:	00000021 	move	zero,zero
    c4bc:	00000021 	move	zero,zero
    c4c0:	00000021 	move	zero,zero
    c4c4:	00000021 	move	zero,zero
    c4c8:	00000021 	move	zero,zero
    c4cc:	00000021 	move	zero,zero
    c4d0:	00000021 	move	zero,zero
    c4d4:	00000021 	move	zero,zero
    c4d8:	00000021 	move	zero,zero
    c4dc:	00000021 	move	zero,zero
    c4e0:	00000021 	move	zero,zero
    c4e4:	3c12904d 	lui	s2,0x904d
    c4e8:	3652b13e 	ori	s2,s2,0xb13e
    c4ec:	001fa021 	addu	s4,zero,ra
    c4f0:	0015f821 	addu	ra,zero,s5
    c4f4:	3c150001 	lui	s5,0x1
    c4f8:	26b5c454 	addiu	s5,s5,-15276
    c4fc:	3c160001 	lui	s6,0x1
    c500:	26d6c494 	addiu	s6,s6,-15212
    c504:	3c186d04 	lui	t8,0x6d04
    c508:	3718c2e4 	ori	t8,t8,0xc2e4
    c50c:	16181634 	bne	s0,t8,11de0 <inst_error>
    c510:	00000000 	nop
    c514:	00000000 	nop
    c518:	3c18904d 	lui	t8,0x904d
    c51c:	3718b13e 	ori	t8,t8,0xb13e
    c520:	1658162f 	bne	s2,t8,11de0 <inst_error>
    c524:	00000000 	nop
    c528:	00000000 	nop
    c52c:	3c19bfc0 	lui	t9,0xbfc0
    c530:	3739693c 	ori	t9,t9,0x693c
    c534:	3c18bfc0 	lui	t8,0xbfc0
    c538:	37186934 	ori	t8,t8,0x6934
    c53c:	27180008 	addiu	t8,t8,8
    c540:	1319000a 	beq	t8,t9,c56c <n36_bgezal_test+0xc56c>
    c544:	00000000 	nop
    c548:	00000000 	nop
    c54c:	3c18bfc0 	lui	t8,0xbfc0
    c550:	3718696c 	ori	t8,t8,0x696c
    c554:	27180008 	addiu	t8,t8,8
    c558:	1319000a 	beq	t8,t9,c584 <n36_bgezal_test+0xc584>
    c55c:	00000000 	nop
    c560:	1000161f 	b	11de0 <inst_error>
    c564:	00000000 	nop
    c568:	00000000 	nop
    c56c:	26b50008 	addiu	s5,s5,8
    c570:	1695161b 	bne	s4,s5,11de0 <inst_error>
    c574:	00000000 	nop
    c578:	10000006 	b	c594 <n36_bgezal_test+0xc594>
    c57c:	00000000 	nop
    c580:	00000000 	nop
    c584:	26d60008 	addiu	s6,s6,8
    c588:	16961615 	bne	s4,s6,11de0 <inst_error>
    c58c:	00000000 	nop
	...
    c598:	001fa821 	addu	s5,zero,ra
    c59c:	3c0c4e4e 	lui	t4,0x4e4e
    c5a0:	358c7f30 	ori	t4,t4,0x7f30
    c5a4:	3c0d3867 	lui	t5,0x3867
    c5a8:	35add3c3 	ori	t5,t5,0xd3c3
    c5ac:	24100000 	li	s0,0
    c5b0:	10000012 	b	c5fc <n36_bgezal_test+0xc5fc>
    c5b4:	24120000 	li	s2,0
    c5b8:	00000000 	nop
    c5bc:	3c104e4e 	lui	s0,0x4e4e
    c5c0:	36107f30 	ori	s0,s0,0x7f30
    c5c4:	05110023 	bgezal	t0,c654 <n36_bgezal_test+0xc654>
    c5c8:	00000000 	nop
    c5cc:	10000023 	b	c65c <n36_bgezal_test+0xc65c>
    c5d0:	00000000 	nop
    c5d4:	00000000 	nop
    c5d8:	00000021 	move	zero,zero
    c5dc:	00000021 	move	zero,zero
    c5e0:	00000021 	move	zero,zero
    c5e4:	00000021 	move	zero,zero
    c5e8:	00000021 	move	zero,zero
    c5ec:	00000021 	move	zero,zero
    c5f0:	00000021 	move	zero,zero
    c5f4:	00000021 	move	zero,zero
    c5f8:	00000021 	move	zero,zero
    c5fc:	3c082354 	lui	t0,0x2354
    c600:	3508ab07 	ori	t0,t0,0xab07
    c604:	0511ffed 	bgezal	t0,c5bc <n36_bgezal_test+0xc5bc>
    c608:	00000000 	nop
    c60c:	10000013 	b	c65c <n36_bgezal_test+0xc65c>
    c610:	00000000 	nop
    c614:	00000000 	nop
    c618:	00000021 	move	zero,zero
    c61c:	00000021 	move	zero,zero
    c620:	00000021 	move	zero,zero
    c624:	00000021 	move	zero,zero
    c628:	00000021 	move	zero,zero
    c62c:	00000021 	move	zero,zero
    c630:	00000021 	move	zero,zero
    c634:	00000021 	move	zero,zero
    c638:	00000021 	move	zero,zero
    c63c:	00000021 	move	zero,zero
    c640:	00000021 	move	zero,zero
    c644:	00000021 	move	zero,zero
    c648:	00000021 	move	zero,zero
    c64c:	00000021 	move	zero,zero
    c650:	00000021 	move	zero,zero
    c654:	3c123867 	lui	s2,0x3867
    c658:	3652d3c3 	ori	s2,s2,0xd3c3
    c65c:	001fa021 	addu	s4,zero,ra
    c660:	0015f821 	addu	ra,zero,s5
    c664:	3c150001 	lui	s5,0x1
    c668:	26b5c5c4 	addiu	s5,s5,-14908
    c66c:	3c160001 	lui	s6,0x1
    c670:	26d6c604 	addiu	s6,s6,-14844
    c674:	3c184e4e 	lui	t8,0x4e4e
    c678:	37187f30 	ori	t8,t8,0x7f30
    c67c:	161815d8 	bne	s0,t8,11de0 <inst_error>
    c680:	00000000 	nop
    c684:	00000000 	nop
    c688:	3c183867 	lui	t8,0x3867
    c68c:	3718d3c3 	ori	t8,t8,0xd3c3
    c690:	165815d3 	bne	s2,t8,11de0 <inst_error>
    c694:	00000000 	nop
    c698:	00000000 	nop
    c69c:	3c19bfc0 	lui	t9,0xbfc0
    c6a0:	373969f8 	ori	t9,t9,0x69f8
    c6a4:	3c18bfc0 	lui	t8,0xbfc0
    c6a8:	371869f0 	ori	t8,t8,0x69f0
    c6ac:	27180008 	addiu	t8,t8,8
    c6b0:	1319000a 	beq	t8,t9,c6dc <n36_bgezal_test+0xc6dc>
    c6b4:	00000000 	nop
    c6b8:	00000000 	nop
    c6bc:	3c18bfc0 	lui	t8,0xbfc0
    c6c0:	37186a28 	ori	t8,t8,0x6a28
    c6c4:	27180008 	addiu	t8,t8,8
    c6c8:	1319000a 	beq	t8,t9,c6f4 <n36_bgezal_test+0xc6f4>
    c6cc:	00000000 	nop
    c6d0:	100015c3 	b	11de0 <inst_error>
    c6d4:	00000000 	nop
    c6d8:	00000000 	nop
    c6dc:	26b50008 	addiu	s5,s5,8
    c6e0:	169515bf 	bne	s4,s5,11de0 <inst_error>
    c6e4:	00000000 	nop
    c6e8:	10000006 	b	c704 <n36_bgezal_test+0xc704>
    c6ec:	00000000 	nop
    c6f0:	00000000 	nop
    c6f4:	26d60008 	addiu	s6,s6,8
    c6f8:	169615b9 	bne	s4,s6,11de0 <inst_error>
    c6fc:	00000000 	nop
	...
    c708:	001fa821 	addu	s5,zero,ra
    c70c:	3c0cc62f 	lui	t4,0xc62f
    c710:	358c9716 	ori	t4,t4,0x9716
    c714:	3c0d8a69 	lui	t5,0x8a69
    c718:	35ade0bc 	ori	t5,t5,0xe0bc
    c71c:	24100000 	li	s0,0
    c720:	10000012 	b	c76c <n36_bgezal_test+0xc76c>
    c724:	24120000 	li	s2,0
    c728:	00000000 	nop
    c72c:	3c10c62f 	lui	s0,0xc62f
    c730:	36109716 	ori	s0,s0,0x9716
    c734:	05110023 	bgezal	t0,c7c4 <n36_bgezal_test+0xc7c4>
    c738:	00000000 	nop
    c73c:	10000023 	b	c7cc <n36_bgezal_test+0xc7cc>
    c740:	00000000 	nop
    c744:	00000000 	nop
    c748:	00000021 	move	zero,zero
    c74c:	00000021 	move	zero,zero
    c750:	00000021 	move	zero,zero
    c754:	00000021 	move	zero,zero
    c758:	00000021 	move	zero,zero
    c75c:	00000021 	move	zero,zero
    c760:	00000021 	move	zero,zero
    c764:	00000021 	move	zero,zero
    c768:	00000021 	move	zero,zero
    c76c:	3c082afa 	lui	t0,0x2afa
    c770:	3508bf2c 	ori	t0,t0,0xbf2c
    c774:	0511ffed 	bgezal	t0,c72c <n36_bgezal_test+0xc72c>
    c778:	00000000 	nop
    c77c:	10000013 	b	c7cc <n36_bgezal_test+0xc7cc>
    c780:	00000000 	nop
    c784:	00000000 	nop
    c788:	00000021 	move	zero,zero
    c78c:	00000021 	move	zero,zero
    c790:	00000021 	move	zero,zero
    c794:	00000021 	move	zero,zero
    c798:	00000021 	move	zero,zero
    c79c:	00000021 	move	zero,zero
    c7a0:	00000021 	move	zero,zero
    c7a4:	00000021 	move	zero,zero
    c7a8:	00000021 	move	zero,zero
    c7ac:	00000021 	move	zero,zero
    c7b0:	00000021 	move	zero,zero
    c7b4:	00000021 	move	zero,zero
    c7b8:	00000021 	move	zero,zero
    c7bc:	00000021 	move	zero,zero
    c7c0:	00000021 	move	zero,zero
    c7c4:	3c128a69 	lui	s2,0x8a69
    c7c8:	3652e0bc 	ori	s2,s2,0xe0bc
    c7cc:	001fa021 	addu	s4,zero,ra
    c7d0:	0015f821 	addu	ra,zero,s5
    c7d4:	3c150001 	lui	s5,0x1
    c7d8:	26b5c734 	addiu	s5,s5,-14540
    c7dc:	3c160001 	lui	s6,0x1
    c7e0:	26d6c774 	addiu	s6,s6,-14476
    c7e4:	3c18c62f 	lui	t8,0xc62f
    c7e8:	37189716 	ori	t8,t8,0x9716
    c7ec:	1618157c 	bne	s0,t8,11de0 <inst_error>
    c7f0:	00000000 	nop
    c7f4:	00000000 	nop
    c7f8:	3c188a69 	lui	t8,0x8a69
    c7fc:	3718e0bc 	ori	t8,t8,0xe0bc
    c800:	16581577 	bne	s2,t8,11de0 <inst_error>
    c804:	00000000 	nop
    c808:	00000000 	nop
    c80c:	3c19bfc0 	lui	t9,0xbfc0
    c810:	37396ab4 	ori	t9,t9,0x6ab4
    c814:	3c18bfc0 	lui	t8,0xbfc0
    c818:	37186aac 	ori	t8,t8,0x6aac
    c81c:	27180008 	addiu	t8,t8,8
    c820:	1319000a 	beq	t8,t9,c84c <n36_bgezal_test+0xc84c>
    c824:	00000000 	nop
    c828:	00000000 	nop
    c82c:	3c18bfc0 	lui	t8,0xbfc0
    c830:	37186ae4 	ori	t8,t8,0x6ae4
    c834:	27180008 	addiu	t8,t8,8
    c838:	1319000a 	beq	t8,t9,c864 <n36_bgezal_test+0xc864>
    c83c:	00000000 	nop
    c840:	10001567 	b	11de0 <inst_error>
    c844:	00000000 	nop
    c848:	00000000 	nop
    c84c:	26b50008 	addiu	s5,s5,8
    c850:	16951563 	bne	s4,s5,11de0 <inst_error>
    c854:	00000000 	nop
    c858:	10000006 	b	c874 <n36_bgezal_test+0xc874>
    c85c:	00000000 	nop
    c860:	00000000 	nop
    c864:	26d60008 	addiu	s6,s6,8
    c868:	1696155d 	bne	s4,s6,11de0 <inst_error>
    c86c:	00000000 	nop
	...
    c878:	001fa821 	addu	s5,zero,ra
    c87c:	3c0c623a 	lui	t4,0x623a
    c880:	358c5c87 	ori	t4,t4,0x5c87
    c884:	3c0d77ff 	lui	t5,0x77ff
    c888:	35ad0050 	ori	t5,t5,0x50
    c88c:	24100000 	li	s0,0
    c890:	10000012 	b	c8dc <n36_bgezal_test+0xc8dc>
    c894:	24120000 	li	s2,0
    c898:	00000000 	nop
    c89c:	3c10623a 	lui	s0,0x623a
    c8a0:	36105c87 	ori	s0,s0,0x5c87
    c8a4:	05110023 	bgezal	t0,c934 <n36_bgezal_test+0xc934>
    c8a8:	00000000 	nop
    c8ac:	10000023 	b	c93c <n36_bgezal_test+0xc93c>
    c8b0:	00000000 	nop
    c8b4:	00000000 	nop
    c8b8:	00000021 	move	zero,zero
    c8bc:	00000021 	move	zero,zero
    c8c0:	00000021 	move	zero,zero
    c8c4:	00000021 	move	zero,zero
    c8c8:	00000021 	move	zero,zero
    c8cc:	00000021 	move	zero,zero
    c8d0:	00000021 	move	zero,zero
    c8d4:	00000021 	move	zero,zero
    c8d8:	00000021 	move	zero,zero
    c8dc:	3c08a278 	lui	t0,0xa278
    c8e0:	350823c4 	ori	t0,t0,0x23c4
    c8e4:	0511ffed 	bgezal	t0,c89c <n36_bgezal_test+0xc89c>
    c8e8:	00000000 	nop
    c8ec:	10000013 	b	c93c <n36_bgezal_test+0xc93c>
    c8f0:	00000000 	nop
    c8f4:	00000000 	nop
    c8f8:	00000021 	move	zero,zero
    c8fc:	00000021 	move	zero,zero
    c900:	00000021 	move	zero,zero
    c904:	00000021 	move	zero,zero
    c908:	00000021 	move	zero,zero
    c90c:	00000021 	move	zero,zero
    c910:	00000021 	move	zero,zero
    c914:	00000021 	move	zero,zero
    c918:	00000021 	move	zero,zero
    c91c:	00000021 	move	zero,zero
    c920:	00000021 	move	zero,zero
    c924:	00000021 	move	zero,zero
    c928:	00000021 	move	zero,zero
    c92c:	00000021 	move	zero,zero
    c930:	00000021 	move	zero,zero
    c934:	3c1277ff 	lui	s2,0x77ff
    c938:	36520050 	ori	s2,s2,0x50
    c93c:	001fa021 	addu	s4,zero,ra
    c940:	0015f821 	addu	ra,zero,s5
    c944:	3c150001 	lui	s5,0x1
    c948:	26b5c8a4 	addiu	s5,s5,-14172
    c94c:	3c160001 	lui	s6,0x1
    c950:	26d6c8e4 	addiu	s6,s6,-14108
    c954:	24180000 	li	t8,0
    c958:	16181521 	bne	s0,t8,11de0 <inst_error>
    c95c:	00000000 	nop
    c960:	00000000 	nop
    c964:	24180000 	li	t8,0
    c968:	1658151d 	bne	s2,t8,11de0 <inst_error>
    c96c:	00000000 	nop
    c970:	00000000 	nop
    c974:	3c19bfc0 	lui	t9,0xbfc0
    c978:	37396ba8 	ori	t9,t9,0x6ba8
    c97c:	3c18bfc0 	lui	t8,0xbfc0
    c980:	37186b68 	ori	t8,t8,0x6b68
    c984:	27180008 	addiu	t8,t8,8
    c988:	1319000a 	beq	t8,t9,c9b4 <n36_bgezal_test+0xc9b4>
    c98c:	00000000 	nop
    c990:	00000000 	nop
    c994:	3c18bfc0 	lui	t8,0xbfc0
    c998:	37186ba0 	ori	t8,t8,0x6ba0
    c99c:	27180008 	addiu	t8,t8,8
    c9a0:	1319000a 	beq	t8,t9,c9cc <n36_bgezal_test+0xc9cc>
    c9a4:	00000000 	nop
    c9a8:	1000150d 	b	11de0 <inst_error>
    c9ac:	00000000 	nop
    c9b0:	00000000 	nop
    c9b4:	26b50008 	addiu	s5,s5,8
    c9b8:	16951509 	bne	s4,s5,11de0 <inst_error>
    c9bc:	00000000 	nop
    c9c0:	10000006 	b	c9dc <n36_bgezal_test+0xc9dc>
    c9c4:	00000000 	nop
    c9c8:	00000000 	nop
    c9cc:	26d60008 	addiu	s6,s6,8
    c9d0:	16961503 	bne	s4,s6,11de0 <inst_error>
    c9d4:	00000000 	nop
	...
    c9e0:	001fa821 	addu	s5,zero,ra
    c9e4:	3c0c27c8 	lui	t4,0x27c8
    c9e8:	358cb198 	ori	t4,t4,0xb198
    c9ec:	3c0dab3c 	lui	t5,0xab3c
    c9f0:	35adc6d1 	ori	t5,t5,0xc6d1
    c9f4:	24100000 	li	s0,0
    c9f8:	10000012 	b	ca44 <n36_bgezal_test+0xca44>
    c9fc:	24120000 	li	s2,0
    ca00:	00000000 	nop
    ca04:	3c1027c8 	lui	s0,0x27c8
    ca08:	3610b198 	ori	s0,s0,0xb198
    ca0c:	05110023 	bgezal	t0,ca9c <n36_bgezal_test+0xca9c>
    ca10:	00000000 	nop
    ca14:	10000023 	b	caa4 <n36_bgezal_test+0xcaa4>
    ca18:	00000000 	nop
    ca1c:	00000000 	nop
    ca20:	00000021 	move	zero,zero
    ca24:	00000021 	move	zero,zero
    ca28:	00000021 	move	zero,zero
    ca2c:	00000021 	move	zero,zero
    ca30:	00000021 	move	zero,zero
    ca34:	00000021 	move	zero,zero
    ca38:	00000021 	move	zero,zero
    ca3c:	00000021 	move	zero,zero
    ca40:	00000021 	move	zero,zero
    ca44:	3c08bbbb 	lui	t0,0xbbbb
    ca48:	3508d5d8 	ori	t0,t0,0xd5d8
    ca4c:	0511ffed 	bgezal	t0,ca04 <n36_bgezal_test+0xca04>
    ca50:	00000000 	nop
    ca54:	10000013 	b	caa4 <n36_bgezal_test+0xcaa4>
    ca58:	00000000 	nop
    ca5c:	00000000 	nop
    ca60:	00000021 	move	zero,zero
    ca64:	00000021 	move	zero,zero
    ca68:	00000021 	move	zero,zero
    ca6c:	00000021 	move	zero,zero
    ca70:	00000021 	move	zero,zero
    ca74:	00000021 	move	zero,zero
    ca78:	00000021 	move	zero,zero
    ca7c:	00000021 	move	zero,zero
    ca80:	00000021 	move	zero,zero
    ca84:	00000021 	move	zero,zero
    ca88:	00000021 	move	zero,zero
    ca8c:	00000021 	move	zero,zero
    ca90:	00000021 	move	zero,zero
    ca94:	00000021 	move	zero,zero
    ca98:	00000021 	move	zero,zero
    ca9c:	3c12ab3c 	lui	s2,0xab3c
    caa0:	3652c6d1 	ori	s2,s2,0xc6d1
    caa4:	001fa021 	addu	s4,zero,ra
    caa8:	0015f821 	addu	ra,zero,s5
    caac:	3c150001 	lui	s5,0x1
    cab0:	26b5ca0c 	addiu	s5,s5,-13812
    cab4:	3c160001 	lui	s6,0x1
    cab8:	26d6ca4c 	addiu	s6,s6,-13748
    cabc:	24180000 	li	t8,0
    cac0:	161814c7 	bne	s0,t8,11de0 <inst_error>
    cac4:	00000000 	nop
    cac8:	00000000 	nop
    cacc:	24180000 	li	t8,0
    cad0:	165814c3 	bne	s2,t8,11de0 <inst_error>
    cad4:	00000000 	nop
    cad8:	00000000 	nop
    cadc:	3c19bfc0 	lui	t9,0xbfc0
    cae0:	37396c64 	ori	t9,t9,0x6c64
    cae4:	3c18bfc0 	lui	t8,0xbfc0
    cae8:	37186c24 	ori	t8,t8,0x6c24
    caec:	27180008 	addiu	t8,t8,8
    caf0:	1319000a 	beq	t8,t9,cb1c <n36_bgezal_test+0xcb1c>
    caf4:	00000000 	nop
    caf8:	00000000 	nop
    cafc:	3c18bfc0 	lui	t8,0xbfc0
    cb00:	37186c5c 	ori	t8,t8,0x6c5c
    cb04:	27180008 	addiu	t8,t8,8
    cb08:	1319000a 	beq	t8,t9,cb34 <n36_bgezal_test+0xcb34>
    cb0c:	00000000 	nop
    cb10:	100014b3 	b	11de0 <inst_error>
    cb14:	00000000 	nop
    cb18:	00000000 	nop
    cb1c:	26b50008 	addiu	s5,s5,8
    cb20:	169514af 	bne	s4,s5,11de0 <inst_error>
    cb24:	00000000 	nop
    cb28:	10000006 	b	cb44 <n36_bgezal_test+0xcb44>
    cb2c:	00000000 	nop
    cb30:	00000000 	nop
    cb34:	26d60008 	addiu	s6,s6,8
    cb38:	169614a9 	bne	s4,s6,11de0 <inst_error>
    cb3c:	00000000 	nop
	...
    cb48:	001fa821 	addu	s5,zero,ra
    cb4c:	3c0c2b2c 	lui	t4,0x2b2c
    cb50:	358c0a24 	ori	t4,t4,0xa24
    cb54:	3c0d9eac 	lui	t5,0x9eac
    cb58:	35ad2008 	ori	t5,t5,0x2008
    cb5c:	24100000 	li	s0,0
    cb60:	10000012 	b	cbac <n36_bgezal_test+0xcbac>
    cb64:	24120000 	li	s2,0
    cb68:	00000000 	nop
    cb6c:	3c102b2c 	lui	s0,0x2b2c
    cb70:	36100a24 	ori	s0,s0,0xa24
    cb74:	05110023 	bgezal	t0,cc04 <n36_bgezal_test+0xcc04>
    cb78:	00000000 	nop
    cb7c:	10000023 	b	cc0c <n36_bgezal_test+0xcc0c>
    cb80:	00000000 	nop
    cb84:	00000000 	nop
    cb88:	00000021 	move	zero,zero
    cb8c:	00000021 	move	zero,zero
    cb90:	00000021 	move	zero,zero
    cb94:	00000021 	move	zero,zero
    cb98:	00000021 	move	zero,zero
    cb9c:	00000021 	move	zero,zero
    cba0:	00000021 	move	zero,zero
    cba4:	00000021 	move	zero,zero
    cba8:	00000021 	move	zero,zero
    cbac:	3c081a54 	lui	t0,0x1a54
    cbb0:	35080090 	ori	t0,t0,0x90
    cbb4:	0511ffed 	bgezal	t0,cb6c <n36_bgezal_test+0xcb6c>
    cbb8:	00000000 	nop
    cbbc:	10000013 	b	cc0c <n36_bgezal_test+0xcc0c>
    cbc0:	00000000 	nop
    cbc4:	00000000 	nop
    cbc8:	00000021 	move	zero,zero
    cbcc:	00000021 	move	zero,zero
    cbd0:	00000021 	move	zero,zero
    cbd4:	00000021 	move	zero,zero
    cbd8:	00000021 	move	zero,zero
    cbdc:	00000021 	move	zero,zero
    cbe0:	00000021 	move	zero,zero
    cbe4:	00000021 	move	zero,zero
    cbe8:	00000021 	move	zero,zero
    cbec:	00000021 	move	zero,zero
    cbf0:	00000021 	move	zero,zero
    cbf4:	00000021 	move	zero,zero
    cbf8:	00000021 	move	zero,zero
    cbfc:	00000021 	move	zero,zero
    cc00:	00000021 	move	zero,zero
    cc04:	3c129eac 	lui	s2,0x9eac
    cc08:	36522008 	ori	s2,s2,0x2008
    cc0c:	001fa021 	addu	s4,zero,ra
    cc10:	0015f821 	addu	ra,zero,s5
    cc14:	3c150001 	lui	s5,0x1
    cc18:	26b5cb74 	addiu	s5,s5,-13452
    cc1c:	3c160001 	lui	s6,0x1
    cc20:	26d6cbb4 	addiu	s6,s6,-13388
    cc24:	3c182b2c 	lui	t8,0x2b2c
    cc28:	37180a24 	ori	t8,t8,0xa24
    cc2c:	1618146c 	bne	s0,t8,11de0 <inst_error>
    cc30:	00000000 	nop
    cc34:	00000000 	nop
    cc38:	3c189eac 	lui	t8,0x9eac
    cc3c:	37182008 	ori	t8,t8,0x2008
    cc40:	16581467 	bne	s2,t8,11de0 <inst_error>
    cc44:	00000000 	nop
    cc48:	00000000 	nop
    cc4c:	3c19bfc0 	lui	t9,0xbfc0
    cc50:	37396ce8 	ori	t9,t9,0x6ce8
    cc54:	3c18bfc0 	lui	t8,0xbfc0
    cc58:	37186ce0 	ori	t8,t8,0x6ce0
    cc5c:	27180008 	addiu	t8,t8,8
    cc60:	1319000a 	beq	t8,t9,cc8c <n36_bgezal_test+0xcc8c>
    cc64:	00000000 	nop
    cc68:	00000000 	nop
    cc6c:	3c18bfc0 	lui	t8,0xbfc0
    cc70:	37186d18 	ori	t8,t8,0x6d18
    cc74:	27180008 	addiu	t8,t8,8
    cc78:	1319000a 	beq	t8,t9,cca4 <n36_bgezal_test+0xcca4>
    cc7c:	00000000 	nop
    cc80:	10001457 	b	11de0 <inst_error>
    cc84:	00000000 	nop
    cc88:	00000000 	nop
    cc8c:	26b50008 	addiu	s5,s5,8
    cc90:	16951453 	bne	s4,s5,11de0 <inst_error>
    cc94:	00000000 	nop
    cc98:	10000006 	b	ccb4 <n36_bgezal_test+0xccb4>
    cc9c:	00000000 	nop
    cca0:	00000000 	nop
    cca4:	26d60008 	addiu	s6,s6,8
    cca8:	1696144d 	bne	s4,s6,11de0 <inst_error>
    ccac:	00000000 	nop
	...
    ccb8:	001fa821 	addu	s5,zero,ra
    ccbc:	3c0c8e45 	lui	t4,0x8e45
    ccc0:	358c3070 	ori	t4,t4,0x3070
    ccc4:	3c0df661 	lui	t5,0xf661
    ccc8:	35ad6562 	ori	t5,t5,0x6562
    cccc:	24100000 	li	s0,0
    ccd0:	10000012 	b	cd1c <n36_bgezal_test+0xcd1c>
    ccd4:	24120000 	li	s2,0
    ccd8:	00000000 	nop
    ccdc:	3c108e45 	lui	s0,0x8e45
    cce0:	36103070 	ori	s0,s0,0x3070
    cce4:	05110023 	bgezal	t0,cd74 <n36_bgezal_test+0xcd74>
    cce8:	00000000 	nop
    ccec:	10000023 	b	cd7c <n36_bgezal_test+0xcd7c>
    ccf0:	00000000 	nop
    ccf4:	00000000 	nop
    ccf8:	00000021 	move	zero,zero
    ccfc:	00000021 	move	zero,zero
    cd00:	00000021 	move	zero,zero
    cd04:	00000021 	move	zero,zero
    cd08:	00000021 	move	zero,zero
    cd0c:	00000021 	move	zero,zero
    cd10:	00000021 	move	zero,zero
    cd14:	00000021 	move	zero,zero
    cd18:	00000021 	move	zero,zero
    cd1c:	3c08a690 	lui	t0,0xa690
    cd20:	3508d784 	ori	t0,t0,0xd784
    cd24:	0511ffed 	bgezal	t0,ccdc <n36_bgezal_test+0xccdc>
    cd28:	00000000 	nop
    cd2c:	10000013 	b	cd7c <n36_bgezal_test+0xcd7c>
    cd30:	00000000 	nop
    cd34:	00000000 	nop
    cd38:	00000021 	move	zero,zero
    cd3c:	00000021 	move	zero,zero
    cd40:	00000021 	move	zero,zero
    cd44:	00000021 	move	zero,zero
    cd48:	00000021 	move	zero,zero
    cd4c:	00000021 	move	zero,zero
    cd50:	00000021 	move	zero,zero
    cd54:	00000021 	move	zero,zero
    cd58:	00000021 	move	zero,zero
    cd5c:	00000021 	move	zero,zero
    cd60:	00000021 	move	zero,zero
    cd64:	00000021 	move	zero,zero
    cd68:	00000021 	move	zero,zero
    cd6c:	00000021 	move	zero,zero
    cd70:	00000021 	move	zero,zero
    cd74:	3c12f661 	lui	s2,0xf661
    cd78:	36526562 	ori	s2,s2,0x6562
    cd7c:	001fa021 	addu	s4,zero,ra
    cd80:	0015f821 	addu	ra,zero,s5
    cd84:	3c150001 	lui	s5,0x1
    cd88:	26b5cce4 	addiu	s5,s5,-13084
    cd8c:	3c160001 	lui	s6,0x1
    cd90:	26d6cd24 	addiu	s6,s6,-13020
    cd94:	24180000 	li	t8,0
    cd98:	16181411 	bne	s0,t8,11de0 <inst_error>
    cd9c:	00000000 	nop
    cda0:	00000000 	nop
    cda4:	24180000 	li	t8,0
    cda8:	1658140d 	bne	s2,t8,11de0 <inst_error>
    cdac:	00000000 	nop
    cdb0:	00000000 	nop
    cdb4:	3c19bfc0 	lui	t9,0xbfc0
    cdb8:	37396ddc 	ori	t9,t9,0x6ddc
    cdbc:	3c18bfc0 	lui	t8,0xbfc0
    cdc0:	37186d9c 	ori	t8,t8,0x6d9c
    cdc4:	27180008 	addiu	t8,t8,8
    cdc8:	1319000a 	beq	t8,t9,cdf4 <n36_bgezal_test+0xcdf4>
    cdcc:	00000000 	nop
    cdd0:	00000000 	nop
    cdd4:	3c18bfc0 	lui	t8,0xbfc0
    cdd8:	37186dd4 	ori	t8,t8,0x6dd4
    cddc:	27180008 	addiu	t8,t8,8
    cde0:	1319000a 	beq	t8,t9,ce0c <n36_bgezal_test+0xce0c>
    cde4:	00000000 	nop
    cde8:	100013fd 	b	11de0 <inst_error>
    cdec:	00000000 	nop
    cdf0:	00000000 	nop
    cdf4:	26b50008 	addiu	s5,s5,8
    cdf8:	169513f9 	bne	s4,s5,11de0 <inst_error>
    cdfc:	00000000 	nop
    ce00:	10000006 	b	ce1c <n36_bgezal_test+0xce1c>
    ce04:	00000000 	nop
    ce08:	00000000 	nop
    ce0c:	26d60008 	addiu	s6,s6,8
    ce10:	169613f3 	bne	s4,s6,11de0 <inst_error>
    ce14:	00000000 	nop
	...
    ce20:	001fa821 	addu	s5,zero,ra
    ce24:	3c0c82ef 	lui	t4,0x82ef
    ce28:	358cf34c 	ori	t4,t4,0xf34c
    ce2c:	3c0d0910 	lui	t5,0x910
    ce30:	35ad120a 	ori	t5,t5,0x120a
    ce34:	24100000 	li	s0,0
    ce38:	10000012 	b	ce84 <n36_bgezal_test+0xce84>
    ce3c:	24120000 	li	s2,0
    ce40:	00000000 	nop
    ce44:	3c1082ef 	lui	s0,0x82ef
    ce48:	3610f34c 	ori	s0,s0,0xf34c
    ce4c:	05110023 	bgezal	t0,cedc <n36_bgezal_test+0xcedc>
    ce50:	00000000 	nop
    ce54:	10000023 	b	cee4 <n36_bgezal_test+0xcee4>
    ce58:	00000000 	nop
    ce5c:	00000000 	nop
    ce60:	00000021 	move	zero,zero
    ce64:	00000021 	move	zero,zero
    ce68:	00000021 	move	zero,zero
    ce6c:	00000021 	move	zero,zero
    ce70:	00000021 	move	zero,zero
    ce74:	00000021 	move	zero,zero
    ce78:	00000021 	move	zero,zero
    ce7c:	00000021 	move	zero,zero
    ce80:	00000021 	move	zero,zero
    ce84:	3c084aa8 	lui	t0,0x4aa8
    ce88:	35082470 	ori	t0,t0,0x2470
    ce8c:	0511ffed 	bgezal	t0,ce44 <n36_bgezal_test+0xce44>
    ce90:	00000000 	nop
    ce94:	10000013 	b	cee4 <n36_bgezal_test+0xcee4>
    ce98:	00000000 	nop
    ce9c:	00000000 	nop
    cea0:	00000021 	move	zero,zero
    cea4:	00000021 	move	zero,zero
    cea8:	00000021 	move	zero,zero
    ceac:	00000021 	move	zero,zero
    ceb0:	00000021 	move	zero,zero
    ceb4:	00000021 	move	zero,zero
    ceb8:	00000021 	move	zero,zero
    cebc:	00000021 	move	zero,zero
    cec0:	00000021 	move	zero,zero
    cec4:	00000021 	move	zero,zero
    cec8:	00000021 	move	zero,zero
    cecc:	00000021 	move	zero,zero
    ced0:	00000021 	move	zero,zero
    ced4:	00000021 	move	zero,zero
    ced8:	00000021 	move	zero,zero
    cedc:	3c120910 	lui	s2,0x910
    cee0:	3652120a 	ori	s2,s2,0x120a
    cee4:	001fa021 	addu	s4,zero,ra
    cee8:	0015f821 	addu	ra,zero,s5
    ceec:	3c150001 	lui	s5,0x1
    cef0:	26b5ce4c 	addiu	s5,s5,-12724
    cef4:	3c160001 	lui	s6,0x1
    cef8:	26d6ce8c 	addiu	s6,s6,-12660
    cefc:	3c1882ef 	lui	t8,0x82ef
    cf00:	3718f34c 	ori	t8,t8,0xf34c
    cf04:	161813b6 	bne	s0,t8,11de0 <inst_error>
    cf08:	00000000 	nop
    cf0c:	00000000 	nop
    cf10:	3c180910 	lui	t8,0x910
    cf14:	3718120a 	ori	t8,t8,0x120a
    cf18:	165813b1 	bne	s2,t8,11de0 <inst_error>
    cf1c:	00000000 	nop
    cf20:	00000000 	nop
    cf24:	3c19bfc0 	lui	t9,0xbfc0
    cf28:	37396e60 	ori	t9,t9,0x6e60
    cf2c:	3c18bfc0 	lui	t8,0xbfc0
    cf30:	37186e58 	ori	t8,t8,0x6e58
    cf34:	27180008 	addiu	t8,t8,8
    cf38:	1319000a 	beq	t8,t9,cf64 <n36_bgezal_test+0xcf64>
    cf3c:	00000000 	nop
    cf40:	00000000 	nop
    cf44:	3c18bfc0 	lui	t8,0xbfc0
    cf48:	37186e90 	ori	t8,t8,0x6e90
    cf4c:	27180008 	addiu	t8,t8,8
    cf50:	1319000a 	beq	t8,t9,cf7c <n36_bgezal_test+0xcf7c>
    cf54:	00000000 	nop
    cf58:	100013a1 	b	11de0 <inst_error>
    cf5c:	00000000 	nop
    cf60:	00000000 	nop
    cf64:	26b50008 	addiu	s5,s5,8
    cf68:	1695139d 	bne	s4,s5,11de0 <inst_error>
    cf6c:	00000000 	nop
    cf70:	10000006 	b	cf8c <n36_bgezal_test+0xcf8c>
    cf74:	00000000 	nop
    cf78:	00000000 	nop
    cf7c:	26d60008 	addiu	s6,s6,8
    cf80:	16961397 	bne	s4,s6,11de0 <inst_error>
    cf84:	00000000 	nop
	...
    cf90:	001fa821 	addu	s5,zero,ra
    cf94:	3c0cb2d0 	lui	t4,0xb2d0
    cf98:	358ce63c 	ori	t4,t4,0xe63c
    cf9c:	3c0d5fe9 	lui	t5,0x5fe9
    cfa0:	35add059 	ori	t5,t5,0xd059
    cfa4:	24100000 	li	s0,0
    cfa8:	10000012 	b	cff4 <n36_bgezal_test+0xcff4>
    cfac:	24120000 	li	s2,0
    cfb0:	00000000 	nop
    cfb4:	3c10b2d0 	lui	s0,0xb2d0
    cfb8:	3610e63c 	ori	s0,s0,0xe63c
    cfbc:	05110023 	bgezal	t0,d04c <n36_bgezal_test+0xd04c>
    cfc0:	00000000 	nop
    cfc4:	10000023 	b	d054 <n36_bgezal_test+0xd054>
    cfc8:	00000000 	nop
    cfcc:	00000000 	nop
    cfd0:	00000021 	move	zero,zero
    cfd4:	00000021 	move	zero,zero
    cfd8:	00000021 	move	zero,zero
    cfdc:	00000021 	move	zero,zero
    cfe0:	00000021 	move	zero,zero
    cfe4:	00000021 	move	zero,zero
    cfe8:	00000021 	move	zero,zero
    cfec:	00000021 	move	zero,zero
    cff0:	00000021 	move	zero,zero
    cff4:	3c08c18e 	lui	t0,0xc18e
    cff8:	35087458 	ori	t0,t0,0x7458
    cffc:	0511ffed 	bgezal	t0,cfb4 <n36_bgezal_test+0xcfb4>
    d000:	00000000 	nop
    d004:	10000013 	b	d054 <n36_bgezal_test+0xd054>
    d008:	00000000 	nop
    d00c:	00000000 	nop
    d010:	00000021 	move	zero,zero
    d014:	00000021 	move	zero,zero
    d018:	00000021 	move	zero,zero
    d01c:	00000021 	move	zero,zero
    d020:	00000021 	move	zero,zero
    d024:	00000021 	move	zero,zero
    d028:	00000021 	move	zero,zero
    d02c:	00000021 	move	zero,zero
    d030:	00000021 	move	zero,zero
    d034:	00000021 	move	zero,zero
    d038:	00000021 	move	zero,zero
    d03c:	00000021 	move	zero,zero
    d040:	00000021 	move	zero,zero
    d044:	00000021 	move	zero,zero
    d048:	00000021 	move	zero,zero
    d04c:	3c125fe9 	lui	s2,0x5fe9
    d050:	3652d059 	ori	s2,s2,0xd059
    d054:	001fa021 	addu	s4,zero,ra
    d058:	0015f821 	addu	ra,zero,s5
    d05c:	3c150001 	lui	s5,0x1
    d060:	26b5cfbc 	addiu	s5,s5,-12356
    d064:	3c160001 	lui	s6,0x1
    d068:	26d6cffc 	addiu	s6,s6,-12292
    d06c:	24180000 	li	t8,0
    d070:	1618135b 	bne	s0,t8,11de0 <inst_error>
    d074:	00000000 	nop
    d078:	00000000 	nop
    d07c:	24180000 	li	t8,0
    d080:	16581357 	bne	s2,t8,11de0 <inst_error>
    d084:	00000000 	nop
    d088:	00000000 	nop
    d08c:	3c19bfc0 	lui	t9,0xbfc0
    d090:	37396f54 	ori	t9,t9,0x6f54
    d094:	3c18bfc0 	lui	t8,0xbfc0
    d098:	37186f14 	ori	t8,t8,0x6f14
    d09c:	27180008 	addiu	t8,t8,8
    d0a0:	1319000a 	beq	t8,t9,d0cc <n36_bgezal_test+0xd0cc>
    d0a4:	00000000 	nop
    d0a8:	00000000 	nop
    d0ac:	3c18bfc0 	lui	t8,0xbfc0
    d0b0:	37186f4c 	ori	t8,t8,0x6f4c
    d0b4:	27180008 	addiu	t8,t8,8
    d0b8:	1319000a 	beq	t8,t9,d0e4 <n36_bgezal_test+0xd0e4>
    d0bc:	00000000 	nop
    d0c0:	10001347 	b	11de0 <inst_error>
    d0c4:	00000000 	nop
    d0c8:	00000000 	nop
    d0cc:	26b50008 	addiu	s5,s5,8
    d0d0:	16951343 	bne	s4,s5,11de0 <inst_error>
    d0d4:	00000000 	nop
    d0d8:	10000006 	b	d0f4 <n36_bgezal_test+0xd0f4>
    d0dc:	00000000 	nop
    d0e0:	00000000 	nop
    d0e4:	26d60008 	addiu	s6,s6,8
    d0e8:	1696133d 	bne	s4,s6,11de0 <inst_error>
    d0ec:	00000000 	nop
	...
    d0f8:	001fa821 	addu	s5,zero,ra
    d0fc:	3c0c9d13 	lui	t4,0x9d13
    d100:	358c028c 	ori	t4,t4,0x28c
    d104:	3c0d9bb4 	lui	t5,0x9bb4
    d108:	35ad5b6c 	ori	t5,t5,0x5b6c
    d10c:	24100000 	li	s0,0
    d110:	10000012 	b	d15c <n36_bgezal_test+0xd15c>
    d114:	24120000 	li	s2,0
    d118:	00000000 	nop
    d11c:	3c109d13 	lui	s0,0x9d13
    d120:	3610028c 	ori	s0,s0,0x28c
    d124:	05110023 	bgezal	t0,d1b4 <n36_bgezal_test+0xd1b4>
    d128:	00000000 	nop
    d12c:	10000023 	b	d1bc <n36_bgezal_test+0xd1bc>
    d130:	00000000 	nop
    d134:	00000000 	nop
    d138:	00000021 	move	zero,zero
    d13c:	00000021 	move	zero,zero
    d140:	00000021 	move	zero,zero
    d144:	00000021 	move	zero,zero
    d148:	00000021 	move	zero,zero
    d14c:	00000021 	move	zero,zero
    d150:	00000021 	move	zero,zero
    d154:	00000021 	move	zero,zero
    d158:	00000021 	move	zero,zero
    d15c:	3c089e2e 	lui	t0,0x9e2e
    d160:	35089ffb 	ori	t0,t0,0x9ffb
    d164:	0511ffed 	bgezal	t0,d11c <n36_bgezal_test+0xd11c>
    d168:	00000000 	nop
    d16c:	10000013 	b	d1bc <n36_bgezal_test+0xd1bc>
    d170:	00000000 	nop
    d174:	00000000 	nop
    d178:	00000021 	move	zero,zero
    d17c:	00000021 	move	zero,zero
    d180:	00000021 	move	zero,zero
    d184:	00000021 	move	zero,zero
    d188:	00000021 	move	zero,zero
    d18c:	00000021 	move	zero,zero
    d190:	00000021 	move	zero,zero
    d194:	00000021 	move	zero,zero
    d198:	00000021 	move	zero,zero
    d19c:	00000021 	move	zero,zero
    d1a0:	00000021 	move	zero,zero
    d1a4:	00000021 	move	zero,zero
    d1a8:	00000021 	move	zero,zero
    d1ac:	00000021 	move	zero,zero
    d1b0:	00000021 	move	zero,zero
    d1b4:	3c129bb4 	lui	s2,0x9bb4
    d1b8:	36525b6c 	ori	s2,s2,0x5b6c
    d1bc:	001fa021 	addu	s4,zero,ra
    d1c0:	0015f821 	addu	ra,zero,s5
    d1c4:	3c150001 	lui	s5,0x1
    d1c8:	26b5d124 	addiu	s5,s5,-11996
    d1cc:	3c160001 	lui	s6,0x1
    d1d0:	26d6d164 	addiu	s6,s6,-11932
    d1d4:	24180000 	li	t8,0
    d1d8:	16181301 	bne	s0,t8,11de0 <inst_error>
    d1dc:	00000000 	nop
    d1e0:	00000000 	nop
    d1e4:	24180000 	li	t8,0
    d1e8:	165812fd 	bne	s2,t8,11de0 <inst_error>
    d1ec:	00000000 	nop
    d1f0:	00000000 	nop
    d1f4:	3c19bfc0 	lui	t9,0xbfc0
    d1f8:	37397010 	ori	t9,t9,0x7010
    d1fc:	3c18bfc0 	lui	t8,0xbfc0
    d200:	37186fd0 	ori	t8,t8,0x6fd0
    d204:	27180008 	addiu	t8,t8,8
    d208:	1319000a 	beq	t8,t9,d234 <n36_bgezal_test+0xd234>
    d20c:	00000000 	nop
    d210:	00000000 	nop
    d214:	3c18bfc0 	lui	t8,0xbfc0
    d218:	37187008 	ori	t8,t8,0x7008
    d21c:	27180008 	addiu	t8,t8,8
    d220:	1319000a 	beq	t8,t9,d24c <n36_bgezal_test+0xd24c>
    d224:	00000000 	nop
    d228:	100012ed 	b	11de0 <inst_error>
    d22c:	00000000 	nop
    d230:	00000000 	nop
    d234:	26b50008 	addiu	s5,s5,8
    d238:	169512e9 	bne	s4,s5,11de0 <inst_error>
    d23c:	00000000 	nop
    d240:	10000006 	b	d25c <n36_bgezal_test+0xd25c>
    d244:	00000000 	nop
    d248:	00000000 	nop
    d24c:	26d60008 	addiu	s6,s6,8
    d250:	169612e3 	bne	s4,s6,11de0 <inst_error>
    d254:	00000000 	nop
	...
    d260:	001fa821 	addu	s5,zero,ra
    d264:	3c0cd4b1 	lui	t4,0xd4b1
    d268:	358c8300 	ori	t4,t4,0x8300
    d26c:	3c0ddd3f 	lui	t5,0xdd3f
    d270:	35adb534 	ori	t5,t5,0xb534
    d274:	24100000 	li	s0,0
    d278:	10000012 	b	d2c4 <n36_bgezal_test+0xd2c4>
    d27c:	24120000 	li	s2,0
    d280:	00000000 	nop
    d284:	3c10d4b1 	lui	s0,0xd4b1
    d288:	36108300 	ori	s0,s0,0x8300
    d28c:	05110023 	bgezal	t0,d31c <n36_bgezal_test+0xd31c>
    d290:	00000000 	nop
    d294:	10000023 	b	d324 <n36_bgezal_test+0xd324>
    d298:	00000000 	nop
    d29c:	00000000 	nop
    d2a0:	00000021 	move	zero,zero
    d2a4:	00000021 	move	zero,zero
    d2a8:	00000021 	move	zero,zero
    d2ac:	00000021 	move	zero,zero
    d2b0:	00000021 	move	zero,zero
    d2b4:	00000021 	move	zero,zero
    d2b8:	00000021 	move	zero,zero
    d2bc:	00000021 	move	zero,zero
    d2c0:	00000021 	move	zero,zero
    d2c4:	3c087d54 	lui	t0,0x7d54
    d2c8:	3508ec72 	ori	t0,t0,0xec72
    d2cc:	0511ffed 	bgezal	t0,d284 <n36_bgezal_test+0xd284>
    d2d0:	00000000 	nop
    d2d4:	10000013 	b	d324 <n36_bgezal_test+0xd324>
    d2d8:	00000000 	nop
    d2dc:	00000000 	nop
    d2e0:	00000021 	move	zero,zero
    d2e4:	00000021 	move	zero,zero
    d2e8:	00000021 	move	zero,zero
    d2ec:	00000021 	move	zero,zero
    d2f0:	00000021 	move	zero,zero
    d2f4:	00000021 	move	zero,zero
    d2f8:	00000021 	move	zero,zero
    d2fc:	00000021 	move	zero,zero
    d300:	00000021 	move	zero,zero
    d304:	00000021 	move	zero,zero
    d308:	00000021 	move	zero,zero
    d30c:	00000021 	move	zero,zero
    d310:	00000021 	move	zero,zero
    d314:	00000021 	move	zero,zero
    d318:	00000021 	move	zero,zero
    d31c:	3c12dd3f 	lui	s2,0xdd3f
    d320:	3652b534 	ori	s2,s2,0xb534
    d324:	001fa021 	addu	s4,zero,ra
    d328:	0015f821 	addu	ra,zero,s5
    d32c:	3c150001 	lui	s5,0x1
    d330:	26b5d28c 	addiu	s5,s5,-11636
    d334:	3c160001 	lui	s6,0x1
    d338:	26d6d2cc 	addiu	s6,s6,-11572
    d33c:	3c18d4b1 	lui	t8,0xd4b1
    d340:	37188300 	ori	t8,t8,0x8300
    d344:	161812a6 	bne	s0,t8,11de0 <inst_error>
    d348:	00000000 	nop
    d34c:	00000000 	nop
    d350:	3c18dd3f 	lui	t8,0xdd3f
    d354:	3718b534 	ori	t8,t8,0xb534
    d358:	165812a1 	bne	s2,t8,11de0 <inst_error>
    d35c:	00000000 	nop
    d360:	00000000 	nop
    d364:	3c19bfc0 	lui	t9,0xbfc0
    d368:	37397094 	ori	t9,t9,0x7094
    d36c:	3c18bfc0 	lui	t8,0xbfc0
    d370:	3718708c 	ori	t8,t8,0x708c
    d374:	27180008 	addiu	t8,t8,8
    d378:	1319000a 	beq	t8,t9,d3a4 <n36_bgezal_test+0xd3a4>
    d37c:	00000000 	nop
    d380:	00000000 	nop
    d384:	3c18bfc0 	lui	t8,0xbfc0
    d388:	371870c4 	ori	t8,t8,0x70c4
    d38c:	27180008 	addiu	t8,t8,8
    d390:	1319000a 	beq	t8,t9,d3bc <n36_bgezal_test+0xd3bc>
    d394:	00000000 	nop
    d398:	10001291 	b	11de0 <inst_error>
    d39c:	00000000 	nop
    d3a0:	00000000 	nop
    d3a4:	26b50008 	addiu	s5,s5,8
    d3a8:	1695128d 	bne	s4,s5,11de0 <inst_error>
    d3ac:	00000000 	nop
    d3b0:	10000006 	b	d3cc <n36_bgezal_test+0xd3cc>
    d3b4:	00000000 	nop
    d3b8:	00000000 	nop
    d3bc:	26d60008 	addiu	s6,s6,8
    d3c0:	16961287 	bne	s4,s6,11de0 <inst_error>
    d3c4:	00000000 	nop
	...
    d3d0:	001fa821 	addu	s5,zero,ra
    d3d4:	3c0cb969 	lui	t4,0xb969
    d3d8:	358c2b00 	ori	t4,t4,0x2b00
    d3dc:	3c0d7567 	lui	t5,0x7567
    d3e0:	35adc79a 	ori	t5,t5,0xc79a
    d3e4:	24100000 	li	s0,0
    d3e8:	10000012 	b	d434 <n36_bgezal_test+0xd434>
    d3ec:	24120000 	li	s2,0
    d3f0:	00000000 	nop
    d3f4:	3c10b969 	lui	s0,0xb969
    d3f8:	36102b00 	ori	s0,s0,0x2b00
    d3fc:	05110023 	bgezal	t0,d48c <n36_bgezal_test+0xd48c>
    d400:	00000000 	nop
    d404:	10000023 	b	d494 <n36_bgezal_test+0xd494>
    d408:	00000000 	nop
    d40c:	00000000 	nop
    d410:	00000021 	move	zero,zero
    d414:	00000021 	move	zero,zero
    d418:	00000021 	move	zero,zero
    d41c:	00000021 	move	zero,zero
    d420:	00000021 	move	zero,zero
    d424:	00000021 	move	zero,zero
    d428:	00000021 	move	zero,zero
    d42c:	00000021 	move	zero,zero
    d430:	00000021 	move	zero,zero
    d434:	3c0836c1 	lui	t0,0x36c1
    d438:	3508e088 	ori	t0,t0,0xe088
    d43c:	0511ffed 	bgezal	t0,d3f4 <n36_bgezal_test+0xd3f4>
    d440:	00000000 	nop
    d444:	10000013 	b	d494 <n36_bgezal_test+0xd494>
    d448:	00000000 	nop
    d44c:	00000000 	nop
    d450:	00000021 	move	zero,zero
    d454:	00000021 	move	zero,zero
    d458:	00000021 	move	zero,zero
    d45c:	00000021 	move	zero,zero
    d460:	00000021 	move	zero,zero
    d464:	00000021 	move	zero,zero
    d468:	00000021 	move	zero,zero
    d46c:	00000021 	move	zero,zero
    d470:	00000021 	move	zero,zero
    d474:	00000021 	move	zero,zero
    d478:	00000021 	move	zero,zero
    d47c:	00000021 	move	zero,zero
    d480:	00000021 	move	zero,zero
    d484:	00000021 	move	zero,zero
    d488:	00000021 	move	zero,zero
    d48c:	3c127567 	lui	s2,0x7567
    d490:	3652c79a 	ori	s2,s2,0xc79a
    d494:	001fa021 	addu	s4,zero,ra
    d498:	0015f821 	addu	ra,zero,s5
    d49c:	3c150001 	lui	s5,0x1
    d4a0:	26b5d3fc 	addiu	s5,s5,-11268
    d4a4:	3c160001 	lui	s6,0x1
    d4a8:	26d6d43c 	addiu	s6,s6,-11204
    d4ac:	3c18b969 	lui	t8,0xb969
    d4b0:	37182b00 	ori	t8,t8,0x2b00
    d4b4:	1618124a 	bne	s0,t8,11de0 <inst_error>
    d4b8:	00000000 	nop
    d4bc:	00000000 	nop
    d4c0:	3c187567 	lui	t8,0x7567
    d4c4:	3718c79a 	ori	t8,t8,0xc79a
    d4c8:	16581245 	bne	s2,t8,11de0 <inst_error>
    d4cc:	00000000 	nop
    d4d0:	00000000 	nop
    d4d4:	3c19bfc0 	lui	t9,0xbfc0
    d4d8:	37397150 	ori	t9,t9,0x7150
    d4dc:	3c18bfc0 	lui	t8,0xbfc0
    d4e0:	37187148 	ori	t8,t8,0x7148
    d4e4:	27180008 	addiu	t8,t8,8
    d4e8:	1319000a 	beq	t8,t9,d514 <n36_bgezal_test+0xd514>
    d4ec:	00000000 	nop
    d4f0:	00000000 	nop
    d4f4:	3c18bfc0 	lui	t8,0xbfc0
    d4f8:	37187180 	ori	t8,t8,0x7180
    d4fc:	27180008 	addiu	t8,t8,8
    d500:	1319000a 	beq	t8,t9,d52c <n36_bgezal_test+0xd52c>
    d504:	00000000 	nop
    d508:	10001235 	b	11de0 <inst_error>
    d50c:	00000000 	nop
    d510:	00000000 	nop
    d514:	26b50008 	addiu	s5,s5,8
    d518:	16951231 	bne	s4,s5,11de0 <inst_error>
    d51c:	00000000 	nop
    d520:	10000006 	b	d53c <n36_bgezal_test+0xd53c>
    d524:	00000000 	nop
    d528:	00000000 	nop
    d52c:	26d60008 	addiu	s6,s6,8
    d530:	1696122b 	bne	s4,s6,11de0 <inst_error>
    d534:	00000000 	nop
	...
    d540:	001fa821 	addu	s5,zero,ra
    d544:	3c0cf53a 	lui	t4,0xf53a
    d548:	358c147e 	ori	t4,t4,0x147e
    d54c:	3c0d2da7 	lui	t5,0x2da7
    d550:	35adeb28 	ori	t5,t5,0xeb28
    d554:	24100000 	li	s0,0
    d558:	10000012 	b	d5a4 <n36_bgezal_test+0xd5a4>
    d55c:	24120000 	li	s2,0
    d560:	00000000 	nop
    d564:	3c10f53a 	lui	s0,0xf53a
    d568:	3610147e 	ori	s0,s0,0x147e
    d56c:	05110023 	bgezal	t0,d5fc <n36_bgezal_test+0xd5fc>
    d570:	00000000 	nop
    d574:	10000023 	b	d604 <n36_bgezal_test+0xd604>
    d578:	00000000 	nop
    d57c:	00000000 	nop
    d580:	00000021 	move	zero,zero
    d584:	00000021 	move	zero,zero
    d588:	00000021 	move	zero,zero
    d58c:	00000021 	move	zero,zero
    d590:	00000021 	move	zero,zero
    d594:	00000021 	move	zero,zero
    d598:	00000021 	move	zero,zero
    d59c:	00000021 	move	zero,zero
    d5a0:	00000021 	move	zero,zero
    d5a4:	3c0856dc 	lui	t0,0x56dc
    d5a8:	3508a3ac 	ori	t0,t0,0xa3ac
    d5ac:	0511ffed 	bgezal	t0,d564 <n36_bgezal_test+0xd564>
    d5b0:	00000000 	nop
    d5b4:	10000013 	b	d604 <n36_bgezal_test+0xd604>
    d5b8:	00000000 	nop
    d5bc:	00000000 	nop
    d5c0:	00000021 	move	zero,zero
    d5c4:	00000021 	move	zero,zero
    d5c8:	00000021 	move	zero,zero
    d5cc:	00000021 	move	zero,zero
    d5d0:	00000021 	move	zero,zero
    d5d4:	00000021 	move	zero,zero
    d5d8:	00000021 	move	zero,zero
    d5dc:	00000021 	move	zero,zero
    d5e0:	00000021 	move	zero,zero
    d5e4:	00000021 	move	zero,zero
    d5e8:	00000021 	move	zero,zero
    d5ec:	00000021 	move	zero,zero
    d5f0:	00000021 	move	zero,zero
    d5f4:	00000021 	move	zero,zero
    d5f8:	00000021 	move	zero,zero
    d5fc:	3c122da7 	lui	s2,0x2da7
    d600:	3652eb28 	ori	s2,s2,0xeb28
    d604:	001fa021 	addu	s4,zero,ra
    d608:	0015f821 	addu	ra,zero,s5
    d60c:	3c150001 	lui	s5,0x1
    d610:	26b5d56c 	addiu	s5,s5,-10900
    d614:	3c160001 	lui	s6,0x1
    d618:	26d6d5ac 	addiu	s6,s6,-10836
    d61c:	3c18f53a 	lui	t8,0xf53a
    d620:	3718147e 	ori	t8,t8,0x147e
    d624:	161811ee 	bne	s0,t8,11de0 <inst_error>
    d628:	00000000 	nop
    d62c:	00000000 	nop
    d630:	3c182da7 	lui	t8,0x2da7
    d634:	3718eb28 	ori	t8,t8,0xeb28
    d638:	165811e9 	bne	s2,t8,11de0 <inst_error>
    d63c:	00000000 	nop
    d640:	00000000 	nop
    d644:	3c19bfc0 	lui	t9,0xbfc0
    d648:	3739720c 	ori	t9,t9,0x720c
    d64c:	3c18bfc0 	lui	t8,0xbfc0
    d650:	37187204 	ori	t8,t8,0x7204
    d654:	27180008 	addiu	t8,t8,8
    d658:	1319000a 	beq	t8,t9,d684 <n36_bgezal_test+0xd684>
    d65c:	00000000 	nop
    d660:	00000000 	nop
    d664:	3c18bfc0 	lui	t8,0xbfc0
    d668:	3718723c 	ori	t8,t8,0x723c
    d66c:	27180008 	addiu	t8,t8,8
    d670:	1319000a 	beq	t8,t9,d69c <n36_bgezal_test+0xd69c>
    d674:	00000000 	nop
    d678:	100011d9 	b	11de0 <inst_error>
    d67c:	00000000 	nop
    d680:	00000000 	nop
    d684:	26b50008 	addiu	s5,s5,8
    d688:	169511d5 	bne	s4,s5,11de0 <inst_error>
    d68c:	00000000 	nop
    d690:	10000006 	b	d6ac <n36_bgezal_test+0xd6ac>
    d694:	00000000 	nop
    d698:	00000000 	nop
    d69c:	26d60008 	addiu	s6,s6,8
    d6a0:	169611cf 	bne	s4,s6,11de0 <inst_error>
    d6a4:	00000000 	nop
	...
    d6b0:	001fa821 	addu	s5,zero,ra
    d6b4:	3c0cf2e7 	lui	t4,0xf2e7
    d6b8:	358ccde0 	ori	t4,t4,0xcde0
    d6bc:	3c0d223d 	lui	t5,0x223d
    d6c0:	35ad3fac 	ori	t5,t5,0x3fac
    d6c4:	24100000 	li	s0,0
    d6c8:	10000012 	b	d714 <n36_bgezal_test+0xd714>
    d6cc:	24120000 	li	s2,0
    d6d0:	00000000 	nop
    d6d4:	3c10f2e7 	lui	s0,0xf2e7
    d6d8:	3610cde0 	ori	s0,s0,0xcde0
    d6dc:	05110023 	bgezal	t0,d76c <n36_bgezal_test+0xd76c>
    d6e0:	00000000 	nop
    d6e4:	10000023 	b	d774 <n36_bgezal_test+0xd774>
    d6e8:	00000000 	nop
    d6ec:	00000000 	nop
    d6f0:	00000021 	move	zero,zero
    d6f4:	00000021 	move	zero,zero
    d6f8:	00000021 	move	zero,zero
    d6fc:	00000021 	move	zero,zero
    d700:	00000021 	move	zero,zero
    d704:	00000021 	move	zero,zero
    d708:	00000021 	move	zero,zero
    d70c:	00000021 	move	zero,zero
    d710:	00000021 	move	zero,zero
    d714:	3c08d4d8 	lui	t0,0xd4d8
    d718:	350840c0 	ori	t0,t0,0x40c0
    d71c:	0511ffed 	bgezal	t0,d6d4 <n36_bgezal_test+0xd6d4>
    d720:	00000000 	nop
    d724:	10000013 	b	d774 <n36_bgezal_test+0xd774>
    d728:	00000000 	nop
    d72c:	00000000 	nop
    d730:	00000021 	move	zero,zero
    d734:	00000021 	move	zero,zero
    d738:	00000021 	move	zero,zero
    d73c:	00000021 	move	zero,zero
    d740:	00000021 	move	zero,zero
    d744:	00000021 	move	zero,zero
    d748:	00000021 	move	zero,zero
    d74c:	00000021 	move	zero,zero
    d750:	00000021 	move	zero,zero
    d754:	00000021 	move	zero,zero
    d758:	00000021 	move	zero,zero
    d75c:	00000021 	move	zero,zero
    d760:	00000021 	move	zero,zero
    d764:	00000021 	move	zero,zero
    d768:	00000021 	move	zero,zero
    d76c:	3c12223d 	lui	s2,0x223d
    d770:	36523fac 	ori	s2,s2,0x3fac
    d774:	001fa021 	addu	s4,zero,ra
    d778:	0015f821 	addu	ra,zero,s5
    d77c:	3c150001 	lui	s5,0x1
    d780:	26b5d6dc 	addiu	s5,s5,-10532
    d784:	3c160001 	lui	s6,0x1
    d788:	26d6d71c 	addiu	s6,s6,-10468
    d78c:	24180000 	li	t8,0
    d790:	16181193 	bne	s0,t8,11de0 <inst_error>
    d794:	00000000 	nop
    d798:	00000000 	nop
    d79c:	24180000 	li	t8,0
    d7a0:	1658118f 	bne	s2,t8,11de0 <inst_error>
    d7a4:	00000000 	nop
    d7a8:	00000000 	nop
    d7ac:	3c19bfc0 	lui	t9,0xbfc0
    d7b0:	37397300 	ori	t9,t9,0x7300
    d7b4:	3c18bfc0 	lui	t8,0xbfc0
    d7b8:	371872c0 	ori	t8,t8,0x72c0
    d7bc:	27180008 	addiu	t8,t8,8
    d7c0:	1319000a 	beq	t8,t9,d7ec <n36_bgezal_test+0xd7ec>
    d7c4:	00000000 	nop
    d7c8:	00000000 	nop
    d7cc:	3c18bfc0 	lui	t8,0xbfc0
    d7d0:	371872f8 	ori	t8,t8,0x72f8
    d7d4:	27180008 	addiu	t8,t8,8
    d7d8:	1319000a 	beq	t8,t9,d804 <n36_bgezal_test+0xd804>
    d7dc:	00000000 	nop
    d7e0:	1000117f 	b	11de0 <inst_error>
    d7e4:	00000000 	nop
    d7e8:	00000000 	nop
    d7ec:	26b50008 	addiu	s5,s5,8
    d7f0:	1695117b 	bne	s4,s5,11de0 <inst_error>
    d7f4:	00000000 	nop
    d7f8:	10000006 	b	d814 <n36_bgezal_test+0xd814>
    d7fc:	00000000 	nop
    d800:	00000000 	nop
    d804:	26d60008 	addiu	s6,s6,8
    d808:	16961175 	bne	s4,s6,11de0 <inst_error>
    d80c:	00000000 	nop
	...
    d818:	001fa821 	addu	s5,zero,ra
    d81c:	3c0ce345 	lui	t4,0xe345
    d820:	358c8bd0 	ori	t4,t4,0x8bd0
    d824:	3c0d48f6 	lui	t5,0x48f6
    d828:	35adbd96 	ori	t5,t5,0xbd96
    d82c:	24100000 	li	s0,0
    d830:	10000012 	b	d87c <n36_bgezal_test+0xd87c>
    d834:	24120000 	li	s2,0
    d838:	00000000 	nop
    d83c:	3c10e345 	lui	s0,0xe345
    d840:	36108bd0 	ori	s0,s0,0x8bd0
    d844:	05110023 	bgezal	t0,d8d4 <n36_bgezal_test+0xd8d4>
    d848:	00000000 	nop
    d84c:	10000023 	b	d8dc <n36_bgezal_test+0xd8dc>
    d850:	00000000 	nop
    d854:	00000000 	nop
    d858:	00000021 	move	zero,zero
    d85c:	00000021 	move	zero,zero
    d860:	00000021 	move	zero,zero
    d864:	00000021 	move	zero,zero
    d868:	00000021 	move	zero,zero
    d86c:	00000021 	move	zero,zero
    d870:	00000021 	move	zero,zero
    d874:	00000021 	move	zero,zero
    d878:	00000021 	move	zero,zero
    d87c:	3c083ff9 	lui	t0,0x3ff9
    d880:	35088fd8 	ori	t0,t0,0x8fd8
    d884:	0511ffed 	bgezal	t0,d83c <n36_bgezal_test+0xd83c>
    d888:	00000000 	nop
    d88c:	10000013 	b	d8dc <n36_bgezal_test+0xd8dc>
    d890:	00000000 	nop
    d894:	00000000 	nop
    d898:	00000021 	move	zero,zero
    d89c:	00000021 	move	zero,zero
    d8a0:	00000021 	move	zero,zero
    d8a4:	00000021 	move	zero,zero
    d8a8:	00000021 	move	zero,zero
    d8ac:	00000021 	move	zero,zero
    d8b0:	00000021 	move	zero,zero
    d8b4:	00000021 	move	zero,zero
    d8b8:	00000021 	move	zero,zero
    d8bc:	00000021 	move	zero,zero
    d8c0:	00000021 	move	zero,zero
    d8c4:	00000021 	move	zero,zero
    d8c8:	00000021 	move	zero,zero
    d8cc:	00000021 	move	zero,zero
    d8d0:	00000021 	move	zero,zero
    d8d4:	3c1248f6 	lui	s2,0x48f6
    d8d8:	3652bd96 	ori	s2,s2,0xbd96
    d8dc:	001fa021 	addu	s4,zero,ra
    d8e0:	0015f821 	addu	ra,zero,s5
    d8e4:	3c150001 	lui	s5,0x1
    d8e8:	26b5d844 	addiu	s5,s5,-10172
    d8ec:	3c160001 	lui	s6,0x1
    d8f0:	26d6d884 	addiu	s6,s6,-10108
    d8f4:	3c18e345 	lui	t8,0xe345
    d8f8:	37188bd0 	ori	t8,t8,0x8bd0
    d8fc:	16181138 	bne	s0,t8,11de0 <inst_error>
    d900:	00000000 	nop
    d904:	00000000 	nop
    d908:	3c1848f6 	lui	t8,0x48f6
    d90c:	3718bd96 	ori	t8,t8,0xbd96
    d910:	16581133 	bne	s2,t8,11de0 <inst_error>
    d914:	00000000 	nop
    d918:	00000000 	nop
    d91c:	3c19bfc0 	lui	t9,0xbfc0
    d920:	37397384 	ori	t9,t9,0x7384
    d924:	3c18bfc0 	lui	t8,0xbfc0
    d928:	3718737c 	ori	t8,t8,0x737c
    d92c:	27180008 	addiu	t8,t8,8
    d930:	1319000a 	beq	t8,t9,d95c <n36_bgezal_test+0xd95c>
    d934:	00000000 	nop
    d938:	00000000 	nop
    d93c:	3c18bfc0 	lui	t8,0xbfc0
    d940:	371873b4 	ori	t8,t8,0x73b4
    d944:	27180008 	addiu	t8,t8,8
    d948:	1319000a 	beq	t8,t9,d974 <n36_bgezal_test+0xd974>
    d94c:	00000000 	nop
    d950:	10001123 	b	11de0 <inst_error>
    d954:	00000000 	nop
    d958:	00000000 	nop
    d95c:	26b50008 	addiu	s5,s5,8
    d960:	1695111f 	bne	s4,s5,11de0 <inst_error>
    d964:	00000000 	nop
    d968:	10000006 	b	d984 <n36_bgezal_test+0xd984>
    d96c:	00000000 	nop
    d970:	00000000 	nop
    d974:	26d60008 	addiu	s6,s6,8
    d978:	16961119 	bne	s4,s6,11de0 <inst_error>
    d97c:	00000000 	nop
	...
    d988:	001fa821 	addu	s5,zero,ra
    d98c:	3c0c1ac6 	lui	t4,0x1ac6
    d990:	358c5cc5 	ori	t4,t4,0x5cc5
    d994:	3c0d5ab8 	lui	t5,0x5ab8
    d998:	35ad9bcc 	ori	t5,t5,0x9bcc
    d99c:	24100000 	li	s0,0
    d9a0:	10000012 	b	d9ec <n36_bgezal_test+0xd9ec>
    d9a4:	24120000 	li	s2,0
    d9a8:	00000000 	nop
    d9ac:	3c101ac6 	lui	s0,0x1ac6
    d9b0:	36105cc5 	ori	s0,s0,0x5cc5
    d9b4:	05110023 	bgezal	t0,da44 <n36_bgezal_test+0xda44>
    d9b8:	00000000 	nop
    d9bc:	10000023 	b	da4c <n36_bgezal_test+0xda4c>
    d9c0:	00000000 	nop
    d9c4:	00000000 	nop
    d9c8:	00000021 	move	zero,zero
    d9cc:	00000021 	move	zero,zero
    d9d0:	00000021 	move	zero,zero
    d9d4:	00000021 	move	zero,zero
    d9d8:	00000021 	move	zero,zero
    d9dc:	00000021 	move	zero,zero
    d9e0:	00000021 	move	zero,zero
    d9e4:	00000021 	move	zero,zero
    d9e8:	00000021 	move	zero,zero
    d9ec:	3c083685 	lui	t0,0x3685
    d9f0:	3508e90c 	ori	t0,t0,0xe90c
    d9f4:	0511ffed 	bgezal	t0,d9ac <n36_bgezal_test+0xd9ac>
    d9f8:	00000000 	nop
    d9fc:	10000013 	b	da4c <n36_bgezal_test+0xda4c>
    da00:	00000000 	nop
    da04:	00000000 	nop
    da08:	00000021 	move	zero,zero
    da0c:	00000021 	move	zero,zero
    da10:	00000021 	move	zero,zero
    da14:	00000021 	move	zero,zero
    da18:	00000021 	move	zero,zero
    da1c:	00000021 	move	zero,zero
    da20:	00000021 	move	zero,zero
    da24:	00000021 	move	zero,zero
    da28:	00000021 	move	zero,zero
    da2c:	00000021 	move	zero,zero
    da30:	00000021 	move	zero,zero
    da34:	00000021 	move	zero,zero
    da38:	00000021 	move	zero,zero
    da3c:	00000021 	move	zero,zero
    da40:	00000021 	move	zero,zero
    da44:	3c125ab8 	lui	s2,0x5ab8
    da48:	36529bcc 	ori	s2,s2,0x9bcc
    da4c:	001fa021 	addu	s4,zero,ra
    da50:	0015f821 	addu	ra,zero,s5
    da54:	3c150001 	lui	s5,0x1
    da58:	26b5d9b4 	addiu	s5,s5,-9804
    da5c:	3c160001 	lui	s6,0x1
    da60:	26d6d9f4 	addiu	s6,s6,-9740
    da64:	3c181ac6 	lui	t8,0x1ac6
    da68:	37185cc5 	ori	t8,t8,0x5cc5
    da6c:	161810dc 	bne	s0,t8,11de0 <inst_error>
    da70:	00000000 	nop
    da74:	00000000 	nop
    da78:	3c185ab8 	lui	t8,0x5ab8
    da7c:	37189bcc 	ori	t8,t8,0x9bcc
    da80:	165810d7 	bne	s2,t8,11de0 <inst_error>
    da84:	00000000 	nop
    da88:	00000000 	nop
    da8c:	3c19bfc0 	lui	t9,0xbfc0
    da90:	37397440 	ori	t9,t9,0x7440
    da94:	3c18bfc0 	lui	t8,0xbfc0
    da98:	37187438 	ori	t8,t8,0x7438
    da9c:	27180008 	addiu	t8,t8,8
    daa0:	1319000a 	beq	t8,t9,dacc <n36_bgezal_test+0xdacc>
    daa4:	00000000 	nop
    daa8:	00000000 	nop
    daac:	3c18bfc0 	lui	t8,0xbfc0
    dab0:	37187470 	ori	t8,t8,0x7470
    dab4:	27180008 	addiu	t8,t8,8
    dab8:	1319000a 	beq	t8,t9,dae4 <n36_bgezal_test+0xdae4>
    dabc:	00000000 	nop
    dac0:	100010c7 	b	11de0 <inst_error>
    dac4:	00000000 	nop
    dac8:	00000000 	nop
    dacc:	26b50008 	addiu	s5,s5,8
    dad0:	169510c3 	bne	s4,s5,11de0 <inst_error>
    dad4:	00000000 	nop
    dad8:	10000006 	b	daf4 <n36_bgezal_test+0xdaf4>
    dadc:	00000000 	nop
    dae0:	00000000 	nop
    dae4:	26d60008 	addiu	s6,s6,8
    dae8:	169610bd 	bne	s4,s6,11de0 <inst_error>
    daec:	00000000 	nop
	...
    daf8:	001fa821 	addu	s5,zero,ra
    dafc:	3c0c35dd 	lui	t4,0x35dd
    db00:	358c1bc0 	ori	t4,t4,0x1bc0
    db04:	3c0daecd 	lui	t5,0xaecd
    db08:	35add494 	ori	t5,t5,0xd494
    db0c:	24100000 	li	s0,0
    db10:	10000012 	b	db5c <n36_bgezal_test+0xdb5c>
    db14:	24120000 	li	s2,0
    db18:	00000000 	nop
    db1c:	3c1035dd 	lui	s0,0x35dd
    db20:	36101bc0 	ori	s0,s0,0x1bc0
    db24:	05110023 	bgezal	t0,dbb4 <n36_bgezal_test+0xdbb4>
    db28:	00000000 	nop
    db2c:	10000023 	b	dbbc <n36_bgezal_test+0xdbbc>
    db30:	00000000 	nop
    db34:	00000000 	nop
    db38:	00000021 	move	zero,zero
    db3c:	00000021 	move	zero,zero
    db40:	00000021 	move	zero,zero
    db44:	00000021 	move	zero,zero
    db48:	00000021 	move	zero,zero
    db4c:	00000021 	move	zero,zero
    db50:	00000021 	move	zero,zero
    db54:	00000021 	move	zero,zero
    db58:	00000021 	move	zero,zero
    db5c:	3c08ad66 	lui	t0,0xad66
    db60:	3508e0cb 	ori	t0,t0,0xe0cb
    db64:	0511ffed 	bgezal	t0,db1c <n36_bgezal_test+0xdb1c>
    db68:	00000000 	nop
    db6c:	10000013 	b	dbbc <n36_bgezal_test+0xdbbc>
    db70:	00000000 	nop
    db74:	00000000 	nop
    db78:	00000021 	move	zero,zero
    db7c:	00000021 	move	zero,zero
    db80:	00000021 	move	zero,zero
    db84:	00000021 	move	zero,zero
    db88:	00000021 	move	zero,zero
    db8c:	00000021 	move	zero,zero
    db90:	00000021 	move	zero,zero
    db94:	00000021 	move	zero,zero
    db98:	00000021 	move	zero,zero
    db9c:	00000021 	move	zero,zero
    dba0:	00000021 	move	zero,zero
    dba4:	00000021 	move	zero,zero
    dba8:	00000021 	move	zero,zero
    dbac:	00000021 	move	zero,zero
    dbb0:	00000021 	move	zero,zero
    dbb4:	3c12aecd 	lui	s2,0xaecd
    dbb8:	3652d494 	ori	s2,s2,0xd494
    dbbc:	001fa021 	addu	s4,zero,ra
    dbc0:	0015f821 	addu	ra,zero,s5
    dbc4:	3c150001 	lui	s5,0x1
    dbc8:	26b5db24 	addiu	s5,s5,-9436
    dbcc:	3c160001 	lui	s6,0x1
    dbd0:	26d6db64 	addiu	s6,s6,-9372
    dbd4:	24180000 	li	t8,0
    dbd8:	16181081 	bne	s0,t8,11de0 <inst_error>
    dbdc:	00000000 	nop
    dbe0:	00000000 	nop
    dbe4:	24180000 	li	t8,0
    dbe8:	1658107d 	bne	s2,t8,11de0 <inst_error>
    dbec:	00000000 	nop
    dbf0:	00000000 	nop
    dbf4:	3c19bfc0 	lui	t9,0xbfc0
    dbf8:	37397534 	ori	t9,t9,0x7534
    dbfc:	3c18bfc0 	lui	t8,0xbfc0
    dc00:	371874f4 	ori	t8,t8,0x74f4
    dc04:	27180008 	addiu	t8,t8,8
    dc08:	1319000a 	beq	t8,t9,dc34 <n36_bgezal_test+0xdc34>
    dc0c:	00000000 	nop
    dc10:	00000000 	nop
    dc14:	3c18bfc0 	lui	t8,0xbfc0
    dc18:	3718752c 	ori	t8,t8,0x752c
    dc1c:	27180008 	addiu	t8,t8,8
    dc20:	1319000a 	beq	t8,t9,dc4c <n36_bgezal_test+0xdc4c>
    dc24:	00000000 	nop
    dc28:	1000106d 	b	11de0 <inst_error>
    dc2c:	00000000 	nop
    dc30:	00000000 	nop
    dc34:	26b50008 	addiu	s5,s5,8
    dc38:	16951069 	bne	s4,s5,11de0 <inst_error>
    dc3c:	00000000 	nop
    dc40:	10000006 	b	dc5c <n36_bgezal_test+0xdc5c>
    dc44:	00000000 	nop
    dc48:	00000000 	nop
    dc4c:	26d60008 	addiu	s6,s6,8
    dc50:	16961063 	bne	s4,s6,11de0 <inst_error>
    dc54:	00000000 	nop
	...
    dc60:	001fa821 	addu	s5,zero,ra
    dc64:	3c0cde7d 	lui	t4,0xde7d
    dc68:	358cc0ec 	ori	t4,t4,0xc0ec
    dc6c:	3c0d756a 	lui	t5,0x756a
    dc70:	35ad9dd0 	ori	t5,t5,0x9dd0
    dc74:	24100000 	li	s0,0
    dc78:	10000012 	b	dcc4 <n36_bgezal_test+0xdcc4>
    dc7c:	24120000 	li	s2,0
    dc80:	00000000 	nop
    dc84:	3c10de7d 	lui	s0,0xde7d
    dc88:	3610c0ec 	ori	s0,s0,0xc0ec
    dc8c:	05110023 	bgezal	t0,dd1c <n36_bgezal_test+0xdd1c>
    dc90:	00000000 	nop
    dc94:	10000023 	b	dd24 <n36_bgezal_test+0xdd24>
    dc98:	00000000 	nop
    dc9c:	00000000 	nop
    dca0:	00000021 	move	zero,zero
    dca4:	00000021 	move	zero,zero
    dca8:	00000021 	move	zero,zero
    dcac:	00000021 	move	zero,zero
    dcb0:	00000021 	move	zero,zero
    dcb4:	00000021 	move	zero,zero
    dcb8:	00000021 	move	zero,zero
    dcbc:	00000021 	move	zero,zero
    dcc0:	00000021 	move	zero,zero
    dcc4:	3c08f4be 	lui	t0,0xf4be
    dcc8:	3508f364 	ori	t0,t0,0xf364
    dccc:	0511ffed 	bgezal	t0,dc84 <n36_bgezal_test+0xdc84>
    dcd0:	00000000 	nop
    dcd4:	10000013 	b	dd24 <n36_bgezal_test+0xdd24>
    dcd8:	00000000 	nop
    dcdc:	00000000 	nop
    dce0:	00000021 	move	zero,zero
    dce4:	00000021 	move	zero,zero
    dce8:	00000021 	move	zero,zero
    dcec:	00000021 	move	zero,zero
    dcf0:	00000021 	move	zero,zero
    dcf4:	00000021 	move	zero,zero
    dcf8:	00000021 	move	zero,zero
    dcfc:	00000021 	move	zero,zero
    dd00:	00000021 	move	zero,zero
    dd04:	00000021 	move	zero,zero
    dd08:	00000021 	move	zero,zero
    dd0c:	00000021 	move	zero,zero
    dd10:	00000021 	move	zero,zero
    dd14:	00000021 	move	zero,zero
    dd18:	00000021 	move	zero,zero
    dd1c:	3c12756a 	lui	s2,0x756a
    dd20:	36529dd0 	ori	s2,s2,0x9dd0
    dd24:	001fa021 	addu	s4,zero,ra
    dd28:	0015f821 	addu	ra,zero,s5
    dd2c:	3c150001 	lui	s5,0x1
    dd30:	26b5dc8c 	addiu	s5,s5,-9076
    dd34:	3c160001 	lui	s6,0x1
    dd38:	26d6dccc 	addiu	s6,s6,-9012
    dd3c:	24180000 	li	t8,0
    dd40:	16181027 	bne	s0,t8,11de0 <inst_error>
    dd44:	00000000 	nop
    dd48:	00000000 	nop
    dd4c:	24180000 	li	t8,0
    dd50:	16581023 	bne	s2,t8,11de0 <inst_error>
    dd54:	00000000 	nop
    dd58:	00000000 	nop
    dd5c:	3c19bfc0 	lui	t9,0xbfc0
    dd60:	373975f0 	ori	t9,t9,0x75f0
    dd64:	3c18bfc0 	lui	t8,0xbfc0
    dd68:	371875b0 	ori	t8,t8,0x75b0
    dd6c:	27180008 	addiu	t8,t8,8
    dd70:	1319000a 	beq	t8,t9,dd9c <n36_bgezal_test+0xdd9c>
    dd74:	00000000 	nop
    dd78:	00000000 	nop
    dd7c:	3c18bfc0 	lui	t8,0xbfc0
    dd80:	371875e8 	ori	t8,t8,0x75e8
    dd84:	27180008 	addiu	t8,t8,8
    dd88:	1319000a 	beq	t8,t9,ddb4 <n36_bgezal_test+0xddb4>
    dd8c:	00000000 	nop
    dd90:	10001013 	b	11de0 <inst_error>
    dd94:	00000000 	nop
    dd98:	00000000 	nop
    dd9c:	26b50008 	addiu	s5,s5,8
    dda0:	1695100f 	bne	s4,s5,11de0 <inst_error>
    dda4:	00000000 	nop
    dda8:	10000006 	b	ddc4 <n36_bgezal_test+0xddc4>
    ddac:	00000000 	nop
    ddb0:	00000000 	nop
    ddb4:	26d60008 	addiu	s6,s6,8
    ddb8:	16961009 	bne	s4,s6,11de0 <inst_error>
    ddbc:	00000000 	nop
	...
    ddc8:	001fa821 	addu	s5,zero,ra
    ddcc:	3c0c6c8a 	lui	t4,0x6c8a
    ddd0:	358ce900 	ori	t4,t4,0xe900
    ddd4:	3c0d72e8 	lui	t5,0x72e8
    ddd8:	35ad14e0 	ori	t5,t5,0x14e0
    dddc:	24100000 	li	s0,0
    dde0:	10000012 	b	de2c <n36_bgezal_test+0xde2c>
    dde4:	24120000 	li	s2,0
    dde8:	00000000 	nop
    ddec:	3c106c8a 	lui	s0,0x6c8a
    ddf0:	3610e900 	ori	s0,s0,0xe900
    ddf4:	05110023 	bgezal	t0,de84 <n36_bgezal_test+0xde84>
    ddf8:	00000000 	nop
    ddfc:	10000023 	b	de8c <n36_bgezal_test+0xde8c>
    de00:	00000000 	nop
    de04:	00000000 	nop
    de08:	00000021 	move	zero,zero
    de0c:	00000021 	move	zero,zero
    de10:	00000021 	move	zero,zero
    de14:	00000021 	move	zero,zero
    de18:	00000021 	move	zero,zero
    de1c:	00000021 	move	zero,zero
    de20:	00000021 	move	zero,zero
    de24:	00000021 	move	zero,zero
    de28:	00000021 	move	zero,zero
    de2c:	3c0844b3 	lui	t0,0x44b3
    de30:	3508eecd 	ori	t0,t0,0xeecd
    de34:	0511ffed 	bgezal	t0,ddec <n36_bgezal_test+0xddec>
    de38:	00000000 	nop
    de3c:	10000013 	b	de8c <n36_bgezal_test+0xde8c>
    de40:	00000000 	nop
    de44:	00000000 	nop
    de48:	00000021 	move	zero,zero
    de4c:	00000021 	move	zero,zero
    de50:	00000021 	move	zero,zero
    de54:	00000021 	move	zero,zero
    de58:	00000021 	move	zero,zero
    de5c:	00000021 	move	zero,zero
    de60:	00000021 	move	zero,zero
    de64:	00000021 	move	zero,zero
    de68:	00000021 	move	zero,zero
    de6c:	00000021 	move	zero,zero
    de70:	00000021 	move	zero,zero
    de74:	00000021 	move	zero,zero
    de78:	00000021 	move	zero,zero
    de7c:	00000021 	move	zero,zero
    de80:	00000021 	move	zero,zero
    de84:	3c1272e8 	lui	s2,0x72e8
    de88:	365214e0 	ori	s2,s2,0x14e0
    de8c:	001fa021 	addu	s4,zero,ra
    de90:	0015f821 	addu	ra,zero,s5
    de94:	3c150001 	lui	s5,0x1
    de98:	26b5ddf4 	addiu	s5,s5,-8716
    de9c:	3c160001 	lui	s6,0x1
    dea0:	26d6de34 	addiu	s6,s6,-8652
    dea4:	3c186c8a 	lui	t8,0x6c8a
    dea8:	3718e900 	ori	t8,t8,0xe900
    deac:	16180fcc 	bne	s0,t8,11de0 <inst_error>
    deb0:	00000000 	nop
    deb4:	00000000 	nop
    deb8:	3c1872e8 	lui	t8,0x72e8
    debc:	371814e0 	ori	t8,t8,0x14e0
    dec0:	16580fc7 	bne	s2,t8,11de0 <inst_error>
    dec4:	00000000 	nop
    dec8:	00000000 	nop
    decc:	3c19bfc0 	lui	t9,0xbfc0
    ded0:	37397674 	ori	t9,t9,0x7674
    ded4:	3c18bfc0 	lui	t8,0xbfc0
    ded8:	3718766c 	ori	t8,t8,0x766c
    dedc:	27180008 	addiu	t8,t8,8
    dee0:	1319000a 	beq	t8,t9,df0c <n36_bgezal_test+0xdf0c>
    dee4:	00000000 	nop
    dee8:	00000000 	nop
    deec:	3c18bfc0 	lui	t8,0xbfc0
    def0:	371876a4 	ori	t8,t8,0x76a4
    def4:	27180008 	addiu	t8,t8,8
    def8:	1319000a 	beq	t8,t9,df24 <n36_bgezal_test+0xdf24>
    defc:	00000000 	nop
    df00:	10000fb7 	b	11de0 <inst_error>
    df04:	00000000 	nop
    df08:	00000000 	nop
    df0c:	26b50008 	addiu	s5,s5,8
    df10:	16950fb3 	bne	s4,s5,11de0 <inst_error>
    df14:	00000000 	nop
    df18:	10000006 	b	df34 <n36_bgezal_test+0xdf34>
    df1c:	00000000 	nop
    df20:	00000000 	nop
    df24:	26d60008 	addiu	s6,s6,8
    df28:	16960fad 	bne	s4,s6,11de0 <inst_error>
    df2c:	00000000 	nop
	...
    df38:	001fa821 	addu	s5,zero,ra
    df3c:	3c0cf02c 	lui	t4,0xf02c
    df40:	358c7460 	ori	t4,t4,0x7460
    df44:	3c0d16b7 	lui	t5,0x16b7
    df48:	35add970 	ori	t5,t5,0xd970
    df4c:	24100000 	li	s0,0
    df50:	10000012 	b	df9c <n36_bgezal_test+0xdf9c>
    df54:	24120000 	li	s2,0
    df58:	00000000 	nop
    df5c:	3c10f02c 	lui	s0,0xf02c
    df60:	36107460 	ori	s0,s0,0x7460
    df64:	05110023 	bgezal	t0,dff4 <n36_bgezal_test+0xdff4>
    df68:	00000000 	nop
    df6c:	10000023 	b	dffc <n36_bgezal_test+0xdffc>
    df70:	00000000 	nop
    df74:	00000000 	nop
    df78:	00000021 	move	zero,zero
    df7c:	00000021 	move	zero,zero
    df80:	00000021 	move	zero,zero
    df84:	00000021 	move	zero,zero
    df88:	00000021 	move	zero,zero
    df8c:	00000021 	move	zero,zero
    df90:	00000021 	move	zero,zero
    df94:	00000021 	move	zero,zero
    df98:	00000021 	move	zero,zero
    df9c:	3c086c2f 	lui	t0,0x6c2f
    dfa0:	350825b0 	ori	t0,t0,0x25b0
    dfa4:	0511ffed 	bgezal	t0,df5c <n36_bgezal_test+0xdf5c>
    dfa8:	00000000 	nop
    dfac:	10000013 	b	dffc <n36_bgezal_test+0xdffc>
    dfb0:	00000000 	nop
    dfb4:	00000000 	nop
    dfb8:	00000021 	move	zero,zero
    dfbc:	00000021 	move	zero,zero
    dfc0:	00000021 	move	zero,zero
    dfc4:	00000021 	move	zero,zero
    dfc8:	00000021 	move	zero,zero
    dfcc:	00000021 	move	zero,zero
    dfd0:	00000021 	move	zero,zero
    dfd4:	00000021 	move	zero,zero
    dfd8:	00000021 	move	zero,zero
    dfdc:	00000021 	move	zero,zero
    dfe0:	00000021 	move	zero,zero
    dfe4:	00000021 	move	zero,zero
    dfe8:	00000021 	move	zero,zero
    dfec:	00000021 	move	zero,zero
    dff0:	00000021 	move	zero,zero
    dff4:	3c1216b7 	lui	s2,0x16b7
    dff8:	3652d970 	ori	s2,s2,0xd970
    dffc:	001fa021 	addu	s4,zero,ra
    e000:	0015f821 	addu	ra,zero,s5
    e004:	3c150001 	lui	s5,0x1
    e008:	26b5df64 	addiu	s5,s5,-8348
    e00c:	3c160001 	lui	s6,0x1
    e010:	26d6dfa4 	addiu	s6,s6,-8284
    e014:	3c18f02c 	lui	t8,0xf02c
    e018:	37187460 	ori	t8,t8,0x7460
    e01c:	16180f70 	bne	s0,t8,11de0 <inst_error>
    e020:	00000000 	nop
    e024:	00000000 	nop
    e028:	3c1816b7 	lui	t8,0x16b7
    e02c:	3718d970 	ori	t8,t8,0xd970
    e030:	16580f6b 	bne	s2,t8,11de0 <inst_error>
    e034:	00000000 	nop
    e038:	00000000 	nop
    e03c:	3c19bfc0 	lui	t9,0xbfc0
    e040:	37397730 	ori	t9,t9,0x7730
    e044:	3c18bfc0 	lui	t8,0xbfc0
    e048:	37187728 	ori	t8,t8,0x7728
    e04c:	27180008 	addiu	t8,t8,8
    e050:	1319000a 	beq	t8,t9,e07c <n36_bgezal_test+0xe07c>
    e054:	00000000 	nop
    e058:	00000000 	nop
    e05c:	3c18bfc0 	lui	t8,0xbfc0
    e060:	37187760 	ori	t8,t8,0x7760
    e064:	27180008 	addiu	t8,t8,8
    e068:	1319000a 	beq	t8,t9,e094 <n36_bgezal_test+0xe094>
    e06c:	00000000 	nop
    e070:	10000f5b 	b	11de0 <inst_error>
    e074:	00000000 	nop
    e078:	00000000 	nop
    e07c:	26b50008 	addiu	s5,s5,8
    e080:	16950f57 	bne	s4,s5,11de0 <inst_error>
    e084:	00000000 	nop
    e088:	10000006 	b	e0a4 <n36_bgezal_test+0xe0a4>
    e08c:	00000000 	nop
    e090:	00000000 	nop
    e094:	26d60008 	addiu	s6,s6,8
    e098:	16960f51 	bne	s4,s6,11de0 <inst_error>
    e09c:	00000000 	nop
	...
    e0a8:	001fa821 	addu	s5,zero,ra
    e0ac:	3c0cd3de 	lui	t4,0xd3de
    e0b0:	358cef47 	ori	t4,t4,0xef47
    e0b4:	3c0d56f4 	lui	t5,0x56f4
    e0b8:	35ad62cc 	ori	t5,t5,0x62cc
    e0bc:	24100000 	li	s0,0
    e0c0:	10000012 	b	e10c <n36_bgezal_test+0xe10c>
    e0c4:	24120000 	li	s2,0
    e0c8:	00000000 	nop
    e0cc:	3c10d3de 	lui	s0,0xd3de
    e0d0:	3610ef47 	ori	s0,s0,0xef47
    e0d4:	05110023 	bgezal	t0,e164 <n36_bgezal_test+0xe164>
    e0d8:	00000000 	nop
    e0dc:	10000023 	b	e16c <n36_bgezal_test+0xe16c>
    e0e0:	00000000 	nop
    e0e4:	00000000 	nop
    e0e8:	00000021 	move	zero,zero
    e0ec:	00000021 	move	zero,zero
    e0f0:	00000021 	move	zero,zero
    e0f4:	00000021 	move	zero,zero
    e0f8:	00000021 	move	zero,zero
    e0fc:	00000021 	move	zero,zero
    e100:	00000021 	move	zero,zero
    e104:	00000021 	move	zero,zero
    e108:	00000021 	move	zero,zero
    e10c:	3c0830c2 	lui	t0,0x30c2
    e110:	3508b258 	ori	t0,t0,0xb258
    e114:	0511ffed 	bgezal	t0,e0cc <n36_bgezal_test+0xe0cc>
    e118:	00000000 	nop
    e11c:	10000013 	b	e16c <n36_bgezal_test+0xe16c>
    e120:	00000000 	nop
    e124:	00000000 	nop
    e128:	00000021 	move	zero,zero
    e12c:	00000021 	move	zero,zero
    e130:	00000021 	move	zero,zero
    e134:	00000021 	move	zero,zero
    e138:	00000021 	move	zero,zero
    e13c:	00000021 	move	zero,zero
    e140:	00000021 	move	zero,zero
    e144:	00000021 	move	zero,zero
    e148:	00000021 	move	zero,zero
    e14c:	00000021 	move	zero,zero
    e150:	00000021 	move	zero,zero
    e154:	00000021 	move	zero,zero
    e158:	00000021 	move	zero,zero
    e15c:	00000021 	move	zero,zero
    e160:	00000021 	move	zero,zero
    e164:	3c1256f4 	lui	s2,0x56f4
    e168:	365262cc 	ori	s2,s2,0x62cc
    e16c:	001fa021 	addu	s4,zero,ra
    e170:	0015f821 	addu	ra,zero,s5
    e174:	3c150001 	lui	s5,0x1
    e178:	26b5e0d4 	addiu	s5,s5,-7980
    e17c:	3c160001 	lui	s6,0x1
    e180:	26d6e114 	addiu	s6,s6,-7916
    e184:	3c18d3de 	lui	t8,0xd3de
    e188:	3718ef47 	ori	t8,t8,0xef47
    e18c:	16180f14 	bne	s0,t8,11de0 <inst_error>
    e190:	00000000 	nop
    e194:	00000000 	nop
    e198:	3c1856f4 	lui	t8,0x56f4
    e19c:	371862cc 	ori	t8,t8,0x62cc
    e1a0:	16580f0f 	bne	s2,t8,11de0 <inst_error>
    e1a4:	00000000 	nop
    e1a8:	00000000 	nop
    e1ac:	3c19bfc0 	lui	t9,0xbfc0
    e1b0:	373977ec 	ori	t9,t9,0x77ec
    e1b4:	3c18bfc0 	lui	t8,0xbfc0
    e1b8:	371877e4 	ori	t8,t8,0x77e4
    e1bc:	27180008 	addiu	t8,t8,8
    e1c0:	1319000a 	beq	t8,t9,e1ec <n36_bgezal_test+0xe1ec>
    e1c4:	00000000 	nop
    e1c8:	00000000 	nop
    e1cc:	3c18bfc0 	lui	t8,0xbfc0
    e1d0:	3718781c 	ori	t8,t8,0x781c
    e1d4:	27180008 	addiu	t8,t8,8
    e1d8:	1319000a 	beq	t8,t9,e204 <n36_bgezal_test+0xe204>
    e1dc:	00000000 	nop
    e1e0:	10000eff 	b	11de0 <inst_error>
    e1e4:	00000000 	nop
    e1e8:	00000000 	nop
    e1ec:	26b50008 	addiu	s5,s5,8
    e1f0:	16950efb 	bne	s4,s5,11de0 <inst_error>
    e1f4:	00000000 	nop
    e1f8:	10000006 	b	e214 <n36_bgezal_test+0xe214>
    e1fc:	00000000 	nop
    e200:	00000000 	nop
    e204:	26d60008 	addiu	s6,s6,8
    e208:	16960ef5 	bne	s4,s6,11de0 <inst_error>
    e20c:	00000000 	nop
	...
    e218:	001fa821 	addu	s5,zero,ra
    e21c:	3c0c3c9f 	lui	t4,0x3c9f
    e220:	358cae02 	ori	t4,t4,0xae02
    e224:	3c0d01a8 	lui	t5,0x1a8
    e228:	35adc97c 	ori	t5,t5,0xc97c
    e22c:	24100000 	li	s0,0
    e230:	10000012 	b	e27c <n36_bgezal_test+0xe27c>
    e234:	24120000 	li	s2,0
    e238:	00000000 	nop
    e23c:	3c103c9f 	lui	s0,0x3c9f
    e240:	3610ae02 	ori	s0,s0,0xae02
    e244:	05110023 	bgezal	t0,e2d4 <n36_bgezal_test+0xe2d4>
    e248:	00000000 	nop
    e24c:	10000023 	b	e2dc <n36_bgezal_test+0xe2dc>
    e250:	00000000 	nop
    e254:	00000000 	nop
    e258:	00000021 	move	zero,zero
    e25c:	00000021 	move	zero,zero
    e260:	00000021 	move	zero,zero
    e264:	00000021 	move	zero,zero
    e268:	00000021 	move	zero,zero
    e26c:	00000021 	move	zero,zero
    e270:	00000021 	move	zero,zero
    e274:	00000021 	move	zero,zero
    e278:	00000021 	move	zero,zero
    e27c:	3c08e100 	lui	t0,0xe100
    e280:	35086a80 	ori	t0,t0,0x6a80
    e284:	0511ffed 	bgezal	t0,e23c <n36_bgezal_test+0xe23c>
    e288:	00000000 	nop
    e28c:	10000013 	b	e2dc <n36_bgezal_test+0xe2dc>
    e290:	00000000 	nop
    e294:	00000000 	nop
    e298:	00000021 	move	zero,zero
    e29c:	00000021 	move	zero,zero
    e2a0:	00000021 	move	zero,zero
    e2a4:	00000021 	move	zero,zero
    e2a8:	00000021 	move	zero,zero
    e2ac:	00000021 	move	zero,zero
    e2b0:	00000021 	move	zero,zero
    e2b4:	00000021 	move	zero,zero
    e2b8:	00000021 	move	zero,zero
    e2bc:	00000021 	move	zero,zero
    e2c0:	00000021 	move	zero,zero
    e2c4:	00000021 	move	zero,zero
    e2c8:	00000021 	move	zero,zero
    e2cc:	00000021 	move	zero,zero
    e2d0:	00000021 	move	zero,zero
    e2d4:	3c1201a8 	lui	s2,0x1a8
    e2d8:	3652c97c 	ori	s2,s2,0xc97c
    e2dc:	001fa021 	addu	s4,zero,ra
    e2e0:	0015f821 	addu	ra,zero,s5
    e2e4:	3c150001 	lui	s5,0x1
    e2e8:	26b5e244 	addiu	s5,s5,-7612
    e2ec:	3c160001 	lui	s6,0x1
    e2f0:	26d6e284 	addiu	s6,s6,-7548
    e2f4:	24180000 	li	t8,0
    e2f8:	16180eb9 	bne	s0,t8,11de0 <inst_error>
    e2fc:	00000000 	nop
    e300:	00000000 	nop
    e304:	24180000 	li	t8,0
    e308:	16580eb5 	bne	s2,t8,11de0 <inst_error>
    e30c:	00000000 	nop
    e310:	00000000 	nop
    e314:	3c19bfc0 	lui	t9,0xbfc0
    e318:	373978e0 	ori	t9,t9,0x78e0
    e31c:	3c18bfc0 	lui	t8,0xbfc0
    e320:	371878a0 	ori	t8,t8,0x78a0
    e324:	27180008 	addiu	t8,t8,8
    e328:	1319000a 	beq	t8,t9,e354 <n36_bgezal_test+0xe354>
    e32c:	00000000 	nop
    e330:	00000000 	nop
    e334:	3c18bfc0 	lui	t8,0xbfc0
    e338:	371878d8 	ori	t8,t8,0x78d8
    e33c:	27180008 	addiu	t8,t8,8
    e340:	1319000a 	beq	t8,t9,e36c <n36_bgezal_test+0xe36c>
    e344:	00000000 	nop
    e348:	10000ea5 	b	11de0 <inst_error>
    e34c:	00000000 	nop
    e350:	00000000 	nop
    e354:	26b50008 	addiu	s5,s5,8
    e358:	16950ea1 	bne	s4,s5,11de0 <inst_error>
    e35c:	00000000 	nop
    e360:	10000006 	b	e37c <n36_bgezal_test+0xe37c>
    e364:	00000000 	nop
    e368:	00000000 	nop
    e36c:	26d60008 	addiu	s6,s6,8
    e370:	16960e9b 	bne	s4,s6,11de0 <inst_error>
    e374:	00000000 	nop
	...
    e380:	001fa821 	addu	s5,zero,ra
    e384:	3c0cf7c2 	lui	t4,0xf7c2
    e388:	358c17f4 	ori	t4,t4,0x17f4
    e38c:	3c0d56d1 	lui	t5,0x56d1
    e390:	35adb348 	ori	t5,t5,0xb348
    e394:	24100000 	li	s0,0
    e398:	10000012 	b	e3e4 <n36_bgezal_test+0xe3e4>
    e39c:	24120000 	li	s2,0
    e3a0:	00000000 	nop
    e3a4:	3c10f7c2 	lui	s0,0xf7c2
    e3a8:	361017f4 	ori	s0,s0,0x17f4
    e3ac:	05110023 	bgezal	t0,e43c <n36_bgezal_test+0xe43c>
    e3b0:	00000000 	nop
    e3b4:	10000023 	b	e444 <n36_bgezal_test+0xe444>
    e3b8:	00000000 	nop
    e3bc:	00000000 	nop
    e3c0:	00000021 	move	zero,zero
    e3c4:	00000021 	move	zero,zero
    e3c8:	00000021 	move	zero,zero
    e3cc:	00000021 	move	zero,zero
    e3d0:	00000021 	move	zero,zero
    e3d4:	00000021 	move	zero,zero
    e3d8:	00000021 	move	zero,zero
    e3dc:	00000021 	move	zero,zero
    e3e0:	00000021 	move	zero,zero
    e3e4:	3c085e29 	lui	t0,0x5e29
    e3e8:	3508043e 	ori	t0,t0,0x43e
    e3ec:	0511ffed 	bgezal	t0,e3a4 <n36_bgezal_test+0xe3a4>
    e3f0:	00000000 	nop
    e3f4:	10000013 	b	e444 <n36_bgezal_test+0xe444>
    e3f8:	00000000 	nop
    e3fc:	00000000 	nop
    e400:	00000021 	move	zero,zero
    e404:	00000021 	move	zero,zero
    e408:	00000021 	move	zero,zero
    e40c:	00000021 	move	zero,zero
    e410:	00000021 	move	zero,zero
    e414:	00000021 	move	zero,zero
    e418:	00000021 	move	zero,zero
    e41c:	00000021 	move	zero,zero
    e420:	00000021 	move	zero,zero
    e424:	00000021 	move	zero,zero
    e428:	00000021 	move	zero,zero
    e42c:	00000021 	move	zero,zero
    e430:	00000021 	move	zero,zero
    e434:	00000021 	move	zero,zero
    e438:	00000021 	move	zero,zero
    e43c:	3c1256d1 	lui	s2,0x56d1
    e440:	3652b348 	ori	s2,s2,0xb348
    e444:	001fa021 	addu	s4,zero,ra
    e448:	0015f821 	addu	ra,zero,s5
    e44c:	3c150001 	lui	s5,0x1
    e450:	26b5e3ac 	addiu	s5,s5,-7252
    e454:	3c160001 	lui	s6,0x1
    e458:	26d6e3ec 	addiu	s6,s6,-7188
    e45c:	3c18f7c2 	lui	t8,0xf7c2
    e460:	371817f4 	ori	t8,t8,0x17f4
    e464:	16180e5e 	bne	s0,t8,11de0 <inst_error>
    e468:	00000000 	nop
    e46c:	00000000 	nop
    e470:	3c1856d1 	lui	t8,0x56d1
    e474:	3718b348 	ori	t8,t8,0xb348
    e478:	16580e59 	bne	s2,t8,11de0 <inst_error>
    e47c:	00000000 	nop
    e480:	00000000 	nop
    e484:	3c19bfc0 	lui	t9,0xbfc0
    e488:	37397964 	ori	t9,t9,0x7964
    e48c:	3c18bfc0 	lui	t8,0xbfc0
    e490:	3718795c 	ori	t8,t8,0x795c
    e494:	27180008 	addiu	t8,t8,8
    e498:	1319000a 	beq	t8,t9,e4c4 <n36_bgezal_test+0xe4c4>
    e49c:	00000000 	nop
    e4a0:	00000000 	nop
    e4a4:	3c18bfc0 	lui	t8,0xbfc0
    e4a8:	37187994 	ori	t8,t8,0x7994
    e4ac:	27180008 	addiu	t8,t8,8
    e4b0:	1319000a 	beq	t8,t9,e4dc <n36_bgezal_test+0xe4dc>
    e4b4:	00000000 	nop
    e4b8:	10000e49 	b	11de0 <inst_error>
    e4bc:	00000000 	nop
    e4c0:	00000000 	nop
    e4c4:	26b50008 	addiu	s5,s5,8
    e4c8:	16950e45 	bne	s4,s5,11de0 <inst_error>
    e4cc:	00000000 	nop
    e4d0:	10000006 	b	e4ec <n36_bgezal_test+0xe4ec>
    e4d4:	00000000 	nop
    e4d8:	00000000 	nop
    e4dc:	26d60008 	addiu	s6,s6,8
    e4e0:	16960e3f 	bne	s4,s6,11de0 <inst_error>
    e4e4:	00000000 	nop
	...
    e4f0:	001fa821 	addu	s5,zero,ra
    e4f4:	3c0cd26a 	lui	t4,0xd26a
    e4f8:	358c7aa0 	ori	t4,t4,0x7aa0
    e4fc:	3c0d242b 	lui	t5,0x242b
    e500:	35ad7eee 	ori	t5,t5,0x7eee
    e504:	24100000 	li	s0,0
    e508:	10000012 	b	e554 <n36_bgezal_test+0xe554>
    e50c:	24120000 	li	s2,0
    e510:	00000000 	nop
    e514:	3c10d26a 	lui	s0,0xd26a
    e518:	36107aa0 	ori	s0,s0,0x7aa0
    e51c:	05110023 	bgezal	t0,e5ac <n36_bgezal_test+0xe5ac>
    e520:	00000000 	nop
    e524:	10000023 	b	e5b4 <n36_bgezal_test+0xe5b4>
    e528:	00000000 	nop
    e52c:	00000000 	nop
    e530:	00000021 	move	zero,zero
    e534:	00000021 	move	zero,zero
    e538:	00000021 	move	zero,zero
    e53c:	00000021 	move	zero,zero
    e540:	00000021 	move	zero,zero
    e544:	00000021 	move	zero,zero
    e548:	00000021 	move	zero,zero
    e54c:	00000021 	move	zero,zero
    e550:	00000021 	move	zero,zero
    e554:	3c08a54b 	lui	t0,0xa54b
    e558:	350810c2 	ori	t0,t0,0x10c2
    e55c:	0511ffed 	bgezal	t0,e514 <n36_bgezal_test+0xe514>
    e560:	00000000 	nop
    e564:	10000013 	b	e5b4 <n36_bgezal_test+0xe5b4>
    e568:	00000000 	nop
    e56c:	00000000 	nop
    e570:	00000021 	move	zero,zero
    e574:	00000021 	move	zero,zero
    e578:	00000021 	move	zero,zero
    e57c:	00000021 	move	zero,zero
    e580:	00000021 	move	zero,zero
    e584:	00000021 	move	zero,zero
    e588:	00000021 	move	zero,zero
    e58c:	00000021 	move	zero,zero
    e590:	00000021 	move	zero,zero
    e594:	00000021 	move	zero,zero
    e598:	00000021 	move	zero,zero
    e59c:	00000021 	move	zero,zero
    e5a0:	00000021 	move	zero,zero
    e5a4:	00000021 	move	zero,zero
    e5a8:	00000021 	move	zero,zero
    e5ac:	3c12242b 	lui	s2,0x242b
    e5b0:	36527eee 	ori	s2,s2,0x7eee
    e5b4:	001fa021 	addu	s4,zero,ra
    e5b8:	0015f821 	addu	ra,zero,s5
    e5bc:	3c150001 	lui	s5,0x1
    e5c0:	26b5e51c 	addiu	s5,s5,-6884
    e5c4:	3c160001 	lui	s6,0x1
    e5c8:	26d6e55c 	addiu	s6,s6,-6820
    e5cc:	24180000 	li	t8,0
    e5d0:	16180e03 	bne	s0,t8,11de0 <inst_error>
    e5d4:	00000000 	nop
    e5d8:	00000000 	nop
    e5dc:	24180000 	li	t8,0
    e5e0:	16580dff 	bne	s2,t8,11de0 <inst_error>
    e5e4:	00000000 	nop
    e5e8:	00000000 	nop
    e5ec:	3c19bfc0 	lui	t9,0xbfc0
    e5f0:	37397a58 	ori	t9,t9,0x7a58
    e5f4:	3c18bfc0 	lui	t8,0xbfc0
    e5f8:	37187a18 	ori	t8,t8,0x7a18
    e5fc:	27180008 	addiu	t8,t8,8
    e600:	1319000a 	beq	t8,t9,e62c <n36_bgezal_test+0xe62c>
    e604:	00000000 	nop
    e608:	00000000 	nop
    e60c:	3c18bfc0 	lui	t8,0xbfc0
    e610:	37187a50 	ori	t8,t8,0x7a50
    e614:	27180008 	addiu	t8,t8,8
    e618:	1319000a 	beq	t8,t9,e644 <n36_bgezal_test+0xe644>
    e61c:	00000000 	nop
    e620:	10000def 	b	11de0 <inst_error>
    e624:	00000000 	nop
    e628:	00000000 	nop
    e62c:	26b50008 	addiu	s5,s5,8
    e630:	16950deb 	bne	s4,s5,11de0 <inst_error>
    e634:	00000000 	nop
    e638:	10000006 	b	e654 <n36_bgezal_test+0xe654>
    e63c:	00000000 	nop
    e640:	00000000 	nop
    e644:	26d60008 	addiu	s6,s6,8
    e648:	16960de5 	bne	s4,s6,11de0 <inst_error>
    e64c:	00000000 	nop
	...
    e658:	001fa821 	addu	s5,zero,ra
    e65c:	3c0cd77e 	lui	t4,0xd77e
    e660:	358c0478 	ori	t4,t4,0x478
    e664:	3c0dfe37 	lui	t5,0xfe37
    e668:	35ada7a0 	ori	t5,t5,0xa7a0
    e66c:	24100000 	li	s0,0
    e670:	10000012 	b	e6bc <n36_bgezal_test+0xe6bc>
    e674:	24120000 	li	s2,0
    e678:	00000000 	nop
    e67c:	3c10d77e 	lui	s0,0xd77e
    e680:	36100478 	ori	s0,s0,0x478
    e684:	05110023 	bgezal	t0,e714 <n36_bgezal_test+0xe714>
    e688:	00000000 	nop
    e68c:	10000023 	b	e71c <n36_bgezal_test+0xe71c>
    e690:	00000000 	nop
    e694:	00000000 	nop
    e698:	00000021 	move	zero,zero
    e69c:	00000021 	move	zero,zero
    e6a0:	00000021 	move	zero,zero
    e6a4:	00000021 	move	zero,zero
    e6a8:	00000021 	move	zero,zero
    e6ac:	00000021 	move	zero,zero
    e6b0:	00000021 	move	zero,zero
    e6b4:	00000021 	move	zero,zero
    e6b8:	00000021 	move	zero,zero
    e6bc:	3c08afcc 	lui	t0,0xafcc
    e6c0:	3508f104 	ori	t0,t0,0xf104
    e6c4:	0511ffed 	bgezal	t0,e67c <n36_bgezal_test+0xe67c>
    e6c8:	00000000 	nop
    e6cc:	10000013 	b	e71c <n36_bgezal_test+0xe71c>
    e6d0:	00000000 	nop
    e6d4:	00000000 	nop
    e6d8:	00000021 	move	zero,zero
    e6dc:	00000021 	move	zero,zero
    e6e0:	00000021 	move	zero,zero
    e6e4:	00000021 	move	zero,zero
    e6e8:	00000021 	move	zero,zero
    e6ec:	00000021 	move	zero,zero
    e6f0:	00000021 	move	zero,zero
    e6f4:	00000021 	move	zero,zero
    e6f8:	00000021 	move	zero,zero
    e6fc:	00000021 	move	zero,zero
    e700:	00000021 	move	zero,zero
    e704:	00000021 	move	zero,zero
    e708:	00000021 	move	zero,zero
    e70c:	00000021 	move	zero,zero
    e710:	00000021 	move	zero,zero
    e714:	3c12fe37 	lui	s2,0xfe37
    e718:	3652a7a0 	ori	s2,s2,0xa7a0
    e71c:	001fa021 	addu	s4,zero,ra
    e720:	0015f821 	addu	ra,zero,s5
    e724:	3c150001 	lui	s5,0x1
    e728:	26b5e684 	addiu	s5,s5,-6524
    e72c:	3c160001 	lui	s6,0x1
    e730:	26d6e6c4 	addiu	s6,s6,-6460
    e734:	24180000 	li	t8,0
    e738:	16180da9 	bne	s0,t8,11de0 <inst_error>
    e73c:	00000000 	nop
    e740:	00000000 	nop
    e744:	24180000 	li	t8,0
    e748:	16580da5 	bne	s2,t8,11de0 <inst_error>
    e74c:	00000000 	nop
    e750:	00000000 	nop
    e754:	3c19bfc0 	lui	t9,0xbfc0
    e758:	37397b14 	ori	t9,t9,0x7b14
    e75c:	3c18bfc0 	lui	t8,0xbfc0
    e760:	37187ad4 	ori	t8,t8,0x7ad4
    e764:	27180008 	addiu	t8,t8,8
    e768:	1319000a 	beq	t8,t9,e794 <n36_bgezal_test+0xe794>
    e76c:	00000000 	nop
    e770:	00000000 	nop
    e774:	3c18bfc0 	lui	t8,0xbfc0
    e778:	37187b0c 	ori	t8,t8,0x7b0c
    e77c:	27180008 	addiu	t8,t8,8
    e780:	1319000a 	beq	t8,t9,e7ac <n36_bgezal_test+0xe7ac>
    e784:	00000000 	nop
    e788:	10000d95 	b	11de0 <inst_error>
    e78c:	00000000 	nop
    e790:	00000000 	nop
    e794:	26b50008 	addiu	s5,s5,8
    e798:	16950d91 	bne	s4,s5,11de0 <inst_error>
    e79c:	00000000 	nop
    e7a0:	10000006 	b	e7bc <n36_bgezal_test+0xe7bc>
    e7a4:	00000000 	nop
    e7a8:	00000000 	nop
    e7ac:	26d60008 	addiu	s6,s6,8
    e7b0:	16960d8b 	bne	s4,s6,11de0 <inst_error>
    e7b4:	00000000 	nop
	...
    e7c0:	001fa821 	addu	s5,zero,ra
    e7c4:	3c0c0a36 	lui	t4,0xa36
    e7c8:	358c7600 	ori	t4,t4,0x7600
    e7cc:	3c0d555b 	lui	t5,0x555b
    e7d0:	35ad57c6 	ori	t5,t5,0x57c6
    e7d4:	24100000 	li	s0,0
    e7d8:	10000012 	b	e824 <n36_bgezal_test+0xe824>
    e7dc:	24120000 	li	s2,0
    e7e0:	00000000 	nop
    e7e4:	3c100a36 	lui	s0,0xa36
    e7e8:	36107600 	ori	s0,s0,0x7600
    e7ec:	05110023 	bgezal	t0,e87c <n36_bgezal_test+0xe87c>
    e7f0:	00000000 	nop
    e7f4:	10000023 	b	e884 <n36_bgezal_test+0xe884>
    e7f8:	00000000 	nop
    e7fc:	00000000 	nop
    e800:	00000021 	move	zero,zero
    e804:	00000021 	move	zero,zero
    e808:	00000021 	move	zero,zero
    e80c:	00000021 	move	zero,zero
    e810:	00000021 	move	zero,zero
    e814:	00000021 	move	zero,zero
    e818:	00000021 	move	zero,zero
    e81c:	00000021 	move	zero,zero
    e820:	00000021 	move	zero,zero
    e824:	3c0817ad 	lui	t0,0x17ad
    e828:	35081610 	ori	t0,t0,0x1610
    e82c:	0511ffed 	bgezal	t0,e7e4 <n36_bgezal_test+0xe7e4>
    e830:	00000000 	nop
    e834:	10000013 	b	e884 <n36_bgezal_test+0xe884>
    e838:	00000000 	nop
    e83c:	00000000 	nop
    e840:	00000021 	move	zero,zero
    e844:	00000021 	move	zero,zero
    e848:	00000021 	move	zero,zero
    e84c:	00000021 	move	zero,zero
    e850:	00000021 	move	zero,zero
    e854:	00000021 	move	zero,zero
    e858:	00000021 	move	zero,zero
    e85c:	00000021 	move	zero,zero
    e860:	00000021 	move	zero,zero
    e864:	00000021 	move	zero,zero
    e868:	00000021 	move	zero,zero
    e86c:	00000021 	move	zero,zero
    e870:	00000021 	move	zero,zero
    e874:	00000021 	move	zero,zero
    e878:	00000021 	move	zero,zero
    e87c:	3c12555b 	lui	s2,0x555b
    e880:	365257c6 	ori	s2,s2,0x57c6
    e884:	001fa021 	addu	s4,zero,ra
    e888:	0015f821 	addu	ra,zero,s5
    e88c:	3c150001 	lui	s5,0x1
    e890:	26b5e7ec 	addiu	s5,s5,-6164
    e894:	3c160001 	lui	s6,0x1
    e898:	26d6e82c 	addiu	s6,s6,-6100
    e89c:	3c180a36 	lui	t8,0xa36
    e8a0:	37187600 	ori	t8,t8,0x7600
    e8a4:	16180d4e 	bne	s0,t8,11de0 <inst_error>
    e8a8:	00000000 	nop
    e8ac:	00000000 	nop
    e8b0:	3c18555b 	lui	t8,0x555b
    e8b4:	371857c6 	ori	t8,t8,0x57c6
    e8b8:	16580d49 	bne	s2,t8,11de0 <inst_error>
    e8bc:	00000000 	nop
    e8c0:	00000000 	nop
    e8c4:	3c19bfc0 	lui	t9,0xbfc0
    e8c8:	37397b98 	ori	t9,t9,0x7b98
    e8cc:	3c18bfc0 	lui	t8,0xbfc0
    e8d0:	37187b90 	ori	t8,t8,0x7b90
    e8d4:	27180008 	addiu	t8,t8,8
    e8d8:	1319000a 	beq	t8,t9,e904 <n36_bgezal_test+0xe904>
    e8dc:	00000000 	nop
    e8e0:	00000000 	nop
    e8e4:	3c18bfc0 	lui	t8,0xbfc0
    e8e8:	37187bc8 	ori	t8,t8,0x7bc8
    e8ec:	27180008 	addiu	t8,t8,8
    e8f0:	1319000a 	beq	t8,t9,e91c <n36_bgezal_test+0xe91c>
    e8f4:	00000000 	nop
    e8f8:	10000d39 	b	11de0 <inst_error>
    e8fc:	00000000 	nop
    e900:	00000000 	nop
    e904:	26b50008 	addiu	s5,s5,8
    e908:	16950d35 	bne	s4,s5,11de0 <inst_error>
    e90c:	00000000 	nop
    e910:	10000006 	b	e92c <n36_bgezal_test+0xe92c>
    e914:	00000000 	nop
    e918:	00000000 	nop
    e91c:	26d60008 	addiu	s6,s6,8
    e920:	16960d2f 	bne	s4,s6,11de0 <inst_error>
    e924:	00000000 	nop
	...
    e930:	001fa821 	addu	s5,zero,ra
    e934:	3c0cd5be 	lui	t4,0xd5be
    e938:	358c015c 	ori	t4,t4,0x15c
    e93c:	3c0d174a 	lui	t5,0x174a
    e940:	35adb26b 	ori	t5,t5,0xb26b
    e944:	24100000 	li	s0,0
    e948:	10000012 	b	e994 <n36_bgezal_test+0xe994>
    e94c:	24120000 	li	s2,0
    e950:	00000000 	nop
    e954:	3c10d5be 	lui	s0,0xd5be
    e958:	3610015c 	ori	s0,s0,0x15c
    e95c:	05110023 	bgezal	t0,e9ec <n36_bgezal_test+0xe9ec>
    e960:	00000000 	nop
    e964:	10000023 	b	e9f4 <n36_bgezal_test+0xe9f4>
    e968:	00000000 	nop
    e96c:	00000000 	nop
    e970:	00000021 	move	zero,zero
    e974:	00000021 	move	zero,zero
    e978:	00000021 	move	zero,zero
    e97c:	00000021 	move	zero,zero
    e980:	00000021 	move	zero,zero
    e984:	00000021 	move	zero,zero
    e988:	00000021 	move	zero,zero
    e98c:	00000021 	move	zero,zero
    e990:	00000021 	move	zero,zero
    e994:	3c0844a5 	lui	t0,0x44a5
    e998:	35084bd0 	ori	t0,t0,0x4bd0
    e99c:	0511ffed 	bgezal	t0,e954 <n36_bgezal_test+0xe954>
    e9a0:	00000000 	nop
    e9a4:	10000013 	b	e9f4 <n36_bgezal_test+0xe9f4>
    e9a8:	00000000 	nop
    e9ac:	00000000 	nop
    e9b0:	00000021 	move	zero,zero
    e9b4:	00000021 	move	zero,zero
    e9b8:	00000021 	move	zero,zero
    e9bc:	00000021 	move	zero,zero
    e9c0:	00000021 	move	zero,zero
    e9c4:	00000021 	move	zero,zero
    e9c8:	00000021 	move	zero,zero
    e9cc:	00000021 	move	zero,zero
    e9d0:	00000021 	move	zero,zero
    e9d4:	00000021 	move	zero,zero
    e9d8:	00000021 	move	zero,zero
    e9dc:	00000021 	move	zero,zero
    e9e0:	00000021 	move	zero,zero
    e9e4:	00000021 	move	zero,zero
    e9e8:	00000021 	move	zero,zero
    e9ec:	3c12174a 	lui	s2,0x174a
    e9f0:	3652b26b 	ori	s2,s2,0xb26b
    e9f4:	001fa021 	addu	s4,zero,ra
    e9f8:	0015f821 	addu	ra,zero,s5
    e9fc:	3c150001 	lui	s5,0x1
    ea00:	26b5e95c 	addiu	s5,s5,-5796
    ea04:	3c160001 	lui	s6,0x1
    ea08:	26d6e99c 	addiu	s6,s6,-5732
    ea0c:	3c18d5be 	lui	t8,0xd5be
    ea10:	3718015c 	ori	t8,t8,0x15c
    ea14:	16180cf2 	bne	s0,t8,11de0 <inst_error>
    ea18:	00000000 	nop
    ea1c:	00000000 	nop
    ea20:	3c18174a 	lui	t8,0x174a
    ea24:	3718b26b 	ori	t8,t8,0xb26b
    ea28:	16580ced 	bne	s2,t8,11de0 <inst_error>
    ea2c:	00000000 	nop
    ea30:	00000000 	nop
    ea34:	3c19bfc0 	lui	t9,0xbfc0
    ea38:	37397c54 	ori	t9,t9,0x7c54
    ea3c:	3c18bfc0 	lui	t8,0xbfc0
    ea40:	37187c4c 	ori	t8,t8,0x7c4c
    ea44:	27180008 	addiu	t8,t8,8
    ea48:	1319000a 	beq	t8,t9,ea74 <n36_bgezal_test+0xea74>
    ea4c:	00000000 	nop
    ea50:	00000000 	nop
    ea54:	3c18bfc0 	lui	t8,0xbfc0
    ea58:	37187c84 	ori	t8,t8,0x7c84
    ea5c:	27180008 	addiu	t8,t8,8
    ea60:	1319000a 	beq	t8,t9,ea8c <n36_bgezal_test+0xea8c>
    ea64:	00000000 	nop
    ea68:	10000cdd 	b	11de0 <inst_error>
    ea6c:	00000000 	nop
    ea70:	00000000 	nop
    ea74:	26b50008 	addiu	s5,s5,8
    ea78:	16950cd9 	bne	s4,s5,11de0 <inst_error>
    ea7c:	00000000 	nop
    ea80:	10000006 	b	ea9c <n36_bgezal_test+0xea9c>
    ea84:	00000000 	nop
    ea88:	00000000 	nop
    ea8c:	26d60008 	addiu	s6,s6,8
    ea90:	16960cd3 	bne	s4,s6,11de0 <inst_error>
    ea94:	00000000 	nop
	...
    eaa0:	001fa821 	addu	s5,zero,ra
    eaa4:	3c0c9495 	lui	t4,0x9495
    eaa8:	358c4be2 	ori	t4,t4,0x4be2
    eaac:	3c0db1aa 	lui	t5,0xb1aa
    eab0:	35adc7cc 	ori	t5,t5,0xc7cc
    eab4:	24100000 	li	s0,0
    eab8:	10000012 	b	eb04 <n36_bgezal_test+0xeb04>
    eabc:	24120000 	li	s2,0
    eac0:	00000000 	nop
    eac4:	3c109495 	lui	s0,0x9495
    eac8:	36104be2 	ori	s0,s0,0x4be2
    eacc:	05110023 	bgezal	t0,eb5c <n36_bgezal_test+0xeb5c>
    ead0:	00000000 	nop
    ead4:	10000023 	b	eb64 <n36_bgezal_test+0xeb64>
    ead8:	00000000 	nop
    eadc:	00000000 	nop
    eae0:	00000021 	move	zero,zero
    eae4:	00000021 	move	zero,zero
    eae8:	00000021 	move	zero,zero
    eaec:	00000021 	move	zero,zero
    eaf0:	00000021 	move	zero,zero
    eaf4:	00000021 	move	zero,zero
    eaf8:	00000021 	move	zero,zero
    eafc:	00000021 	move	zero,zero
    eb00:	00000021 	move	zero,zero
    eb04:	3c08389c 	lui	t0,0x389c
    eb08:	3508a1b0 	ori	t0,t0,0xa1b0
    eb0c:	0511ffed 	bgezal	t0,eac4 <n36_bgezal_test+0xeac4>
    eb10:	00000000 	nop
    eb14:	10000013 	b	eb64 <n36_bgezal_test+0xeb64>
    eb18:	00000000 	nop
    eb1c:	00000000 	nop
    eb20:	00000021 	move	zero,zero
    eb24:	00000021 	move	zero,zero
    eb28:	00000021 	move	zero,zero
    eb2c:	00000021 	move	zero,zero
    eb30:	00000021 	move	zero,zero
    eb34:	00000021 	move	zero,zero
    eb38:	00000021 	move	zero,zero
    eb3c:	00000021 	move	zero,zero
    eb40:	00000021 	move	zero,zero
    eb44:	00000021 	move	zero,zero
    eb48:	00000021 	move	zero,zero
    eb4c:	00000021 	move	zero,zero
    eb50:	00000021 	move	zero,zero
    eb54:	00000021 	move	zero,zero
    eb58:	00000021 	move	zero,zero
    eb5c:	3c12b1aa 	lui	s2,0xb1aa
    eb60:	3652c7cc 	ori	s2,s2,0xc7cc
    eb64:	001fa021 	addu	s4,zero,ra
    eb68:	0015f821 	addu	ra,zero,s5
    eb6c:	3c150001 	lui	s5,0x1
    eb70:	26b5eacc 	addiu	s5,s5,-5428
    eb74:	3c160001 	lui	s6,0x1
    eb78:	26d6eb0c 	addiu	s6,s6,-5364
    eb7c:	3c189495 	lui	t8,0x9495
    eb80:	37184be2 	ori	t8,t8,0x4be2
    eb84:	16180c96 	bne	s0,t8,11de0 <inst_error>
    eb88:	00000000 	nop
    eb8c:	00000000 	nop
    eb90:	3c18b1aa 	lui	t8,0xb1aa
    eb94:	3718c7cc 	ori	t8,t8,0xc7cc
    eb98:	16580c91 	bne	s2,t8,11de0 <inst_error>
    eb9c:	00000000 	nop
    eba0:	00000000 	nop
    eba4:	3c19bfc0 	lui	t9,0xbfc0
    eba8:	37397d10 	ori	t9,t9,0x7d10
    ebac:	3c18bfc0 	lui	t8,0xbfc0
    ebb0:	37187d08 	ori	t8,t8,0x7d08
    ebb4:	27180008 	addiu	t8,t8,8
    ebb8:	1319000a 	beq	t8,t9,ebe4 <n36_bgezal_test+0xebe4>
    ebbc:	00000000 	nop
    ebc0:	00000000 	nop
    ebc4:	3c18bfc0 	lui	t8,0xbfc0
    ebc8:	37187d40 	ori	t8,t8,0x7d40
    ebcc:	27180008 	addiu	t8,t8,8
    ebd0:	1319000a 	beq	t8,t9,ebfc <n36_bgezal_test+0xebfc>
    ebd4:	00000000 	nop
    ebd8:	10000c81 	b	11de0 <inst_error>
    ebdc:	00000000 	nop
    ebe0:	00000000 	nop
    ebe4:	26b50008 	addiu	s5,s5,8
    ebe8:	16950c7d 	bne	s4,s5,11de0 <inst_error>
    ebec:	00000000 	nop
    ebf0:	10000006 	b	ec0c <n36_bgezal_test+0xec0c>
    ebf4:	00000000 	nop
    ebf8:	00000000 	nop
    ebfc:	26d60008 	addiu	s6,s6,8
    ec00:	16960c77 	bne	s4,s6,11de0 <inst_error>
    ec04:	00000000 	nop
	...
    ec10:	001fa821 	addu	s5,zero,ra
    ec14:	3c0ced70 	lui	t4,0xed70
    ec18:	358c9a88 	ori	t4,t4,0x9a88
    ec1c:	3c0d545c 	lui	t5,0x545c
    ec20:	35adfa94 	ori	t5,t5,0xfa94
    ec24:	24100000 	li	s0,0
    ec28:	10000012 	b	ec74 <n36_bgezal_test+0xec74>
    ec2c:	24120000 	li	s2,0
    ec30:	00000000 	nop
    ec34:	3c10ed70 	lui	s0,0xed70
    ec38:	36109a88 	ori	s0,s0,0x9a88
    ec3c:	05110023 	bgezal	t0,eccc <n36_bgezal_test+0xeccc>
    ec40:	00000000 	nop
    ec44:	10000023 	b	ecd4 <n36_bgezal_test+0xecd4>
    ec48:	00000000 	nop
    ec4c:	00000000 	nop
    ec50:	00000021 	move	zero,zero
    ec54:	00000021 	move	zero,zero
    ec58:	00000021 	move	zero,zero
    ec5c:	00000021 	move	zero,zero
    ec60:	00000021 	move	zero,zero
    ec64:	00000021 	move	zero,zero
    ec68:	00000021 	move	zero,zero
    ec6c:	00000021 	move	zero,zero
    ec70:	00000021 	move	zero,zero
    ec74:	3c083e36 	lui	t0,0x3e36
    ec78:	35086f4c 	ori	t0,t0,0x6f4c
    ec7c:	0511ffed 	bgezal	t0,ec34 <n36_bgezal_test+0xec34>
    ec80:	00000000 	nop
    ec84:	10000013 	b	ecd4 <n36_bgezal_test+0xecd4>
    ec88:	00000000 	nop
    ec8c:	00000000 	nop
    ec90:	00000021 	move	zero,zero
    ec94:	00000021 	move	zero,zero
    ec98:	00000021 	move	zero,zero
    ec9c:	00000021 	move	zero,zero
    eca0:	00000021 	move	zero,zero
    eca4:	00000021 	move	zero,zero
    eca8:	00000021 	move	zero,zero
    ecac:	00000021 	move	zero,zero
    ecb0:	00000021 	move	zero,zero
    ecb4:	00000021 	move	zero,zero
    ecb8:	00000021 	move	zero,zero
    ecbc:	00000021 	move	zero,zero
    ecc0:	00000021 	move	zero,zero
    ecc4:	00000021 	move	zero,zero
    ecc8:	00000021 	move	zero,zero
    eccc:	3c12545c 	lui	s2,0x545c
    ecd0:	3652fa94 	ori	s2,s2,0xfa94
    ecd4:	001fa021 	addu	s4,zero,ra
    ecd8:	0015f821 	addu	ra,zero,s5
    ecdc:	3c150001 	lui	s5,0x1
    ece0:	26b5ec3c 	addiu	s5,s5,-5060
    ece4:	3c160001 	lui	s6,0x1
    ece8:	26d6ec7c 	addiu	s6,s6,-4996
    ecec:	3c18ed70 	lui	t8,0xed70
    ecf0:	37189a88 	ori	t8,t8,0x9a88
    ecf4:	16180c3a 	bne	s0,t8,11de0 <inst_error>
    ecf8:	00000000 	nop
    ecfc:	00000000 	nop
    ed00:	3c18545c 	lui	t8,0x545c
    ed04:	3718fa94 	ori	t8,t8,0xfa94
    ed08:	16580c35 	bne	s2,t8,11de0 <inst_error>
    ed0c:	00000000 	nop
    ed10:	00000000 	nop
    ed14:	3c19bfc0 	lui	t9,0xbfc0
    ed18:	37397dcc 	ori	t9,t9,0x7dcc
    ed1c:	3c18bfc0 	lui	t8,0xbfc0
    ed20:	37187dc4 	ori	t8,t8,0x7dc4
    ed24:	27180008 	addiu	t8,t8,8
    ed28:	1319000a 	beq	t8,t9,ed54 <n36_bgezal_test+0xed54>
    ed2c:	00000000 	nop
    ed30:	00000000 	nop
    ed34:	3c18bfc0 	lui	t8,0xbfc0
    ed38:	37187dfc 	ori	t8,t8,0x7dfc
    ed3c:	27180008 	addiu	t8,t8,8
    ed40:	1319000a 	beq	t8,t9,ed6c <n36_bgezal_test+0xed6c>
    ed44:	00000000 	nop
    ed48:	10000c25 	b	11de0 <inst_error>
    ed4c:	00000000 	nop
    ed50:	00000000 	nop
    ed54:	26b50008 	addiu	s5,s5,8
    ed58:	16950c21 	bne	s4,s5,11de0 <inst_error>
    ed5c:	00000000 	nop
    ed60:	10000006 	b	ed7c <n36_bgezal_test+0xed7c>
    ed64:	00000000 	nop
    ed68:	00000000 	nop
    ed6c:	26d60008 	addiu	s6,s6,8
    ed70:	16960c1b 	bne	s4,s6,11de0 <inst_error>
    ed74:	00000000 	nop
	...
    ed80:	001fa821 	addu	s5,zero,ra
    ed84:	3c0ca971 	lui	t4,0xa971
    ed88:	358c0cc0 	ori	t4,t4,0xcc0
    ed8c:	3c0dfd13 	lui	t5,0xfd13
    ed90:	35adf1cb 	ori	t5,t5,0xf1cb
    ed94:	24100000 	li	s0,0
    ed98:	10000012 	b	ede4 <n36_bgezal_test+0xede4>
    ed9c:	24120000 	li	s2,0
    eda0:	00000000 	nop
    eda4:	3c10a971 	lui	s0,0xa971
    eda8:	36100cc0 	ori	s0,s0,0xcc0
    edac:	05110023 	bgezal	t0,ee3c <n36_bgezal_test+0xee3c>
    edb0:	00000000 	nop
    edb4:	10000023 	b	ee44 <n36_bgezal_test+0xee44>
    edb8:	00000000 	nop
    edbc:	00000000 	nop
    edc0:	00000021 	move	zero,zero
    edc4:	00000021 	move	zero,zero
    edc8:	00000021 	move	zero,zero
    edcc:	00000021 	move	zero,zero
    edd0:	00000021 	move	zero,zero
    edd4:	00000021 	move	zero,zero
    edd8:	00000021 	move	zero,zero
    eddc:	00000021 	move	zero,zero
    ede0:	00000021 	move	zero,zero
    ede4:	3c08ca45 	lui	t0,0xca45
    ede8:	3508c980 	ori	t0,t0,0xc980
    edec:	0511ffed 	bgezal	t0,eda4 <n36_bgezal_test+0xeda4>
    edf0:	00000000 	nop
    edf4:	10000013 	b	ee44 <n36_bgezal_test+0xee44>
    edf8:	00000000 	nop
    edfc:	00000000 	nop
    ee00:	00000021 	move	zero,zero
    ee04:	00000021 	move	zero,zero
    ee08:	00000021 	move	zero,zero
    ee0c:	00000021 	move	zero,zero
    ee10:	00000021 	move	zero,zero
    ee14:	00000021 	move	zero,zero
    ee18:	00000021 	move	zero,zero
    ee1c:	00000021 	move	zero,zero
    ee20:	00000021 	move	zero,zero
    ee24:	00000021 	move	zero,zero
    ee28:	00000021 	move	zero,zero
    ee2c:	00000021 	move	zero,zero
    ee30:	00000021 	move	zero,zero
    ee34:	00000021 	move	zero,zero
    ee38:	00000021 	move	zero,zero
    ee3c:	3c12fd13 	lui	s2,0xfd13
    ee40:	3652f1cb 	ori	s2,s2,0xf1cb
    ee44:	001fa021 	addu	s4,zero,ra
    ee48:	0015f821 	addu	ra,zero,s5
    ee4c:	3c150001 	lui	s5,0x1
    ee50:	26b5edac 	addiu	s5,s5,-4692
    ee54:	3c160001 	lui	s6,0x1
    ee58:	26d6edec 	addiu	s6,s6,-4628
    ee5c:	24180000 	li	t8,0
    ee60:	16180bdf 	bne	s0,t8,11de0 <inst_error>
    ee64:	00000000 	nop
    ee68:	00000000 	nop
    ee6c:	24180000 	li	t8,0
    ee70:	16580bdb 	bne	s2,t8,11de0 <inst_error>
    ee74:	00000000 	nop
    ee78:	00000000 	nop
    ee7c:	3c19bfc0 	lui	t9,0xbfc0
    ee80:	37397ec0 	ori	t9,t9,0x7ec0
    ee84:	3c18bfc0 	lui	t8,0xbfc0
    ee88:	37187e80 	ori	t8,t8,0x7e80
    ee8c:	27180008 	addiu	t8,t8,8
    ee90:	1319000a 	beq	t8,t9,eebc <n36_bgezal_test+0xeebc>
    ee94:	00000000 	nop
    ee98:	00000000 	nop
    ee9c:	3c18bfc0 	lui	t8,0xbfc0
    eea0:	37187eb8 	ori	t8,t8,0x7eb8
    eea4:	27180008 	addiu	t8,t8,8
    eea8:	1319000a 	beq	t8,t9,eed4 <n36_bgezal_test+0xeed4>
    eeac:	00000000 	nop
    eeb0:	10000bcb 	b	11de0 <inst_error>
    eeb4:	00000000 	nop
    eeb8:	00000000 	nop
    eebc:	26b50008 	addiu	s5,s5,8
    eec0:	16950bc7 	bne	s4,s5,11de0 <inst_error>
    eec4:	00000000 	nop
    eec8:	10000006 	b	eee4 <n36_bgezal_test+0xeee4>
    eecc:	00000000 	nop
    eed0:	00000000 	nop
    eed4:	26d60008 	addiu	s6,s6,8
    eed8:	16960bc1 	bne	s4,s6,11de0 <inst_error>
    eedc:	00000000 	nop
	...
    eee8:	001fa821 	addu	s5,zero,ra
    eeec:	3c0cb939 	lui	t4,0xb939
    eef0:	358cca28 	ori	t4,t4,0xca28
    eef4:	3c0df1d0 	lui	t5,0xf1d0
    eef8:	35adc517 	ori	t5,t5,0xc517
    eefc:	24100000 	li	s0,0
    ef00:	10000012 	b	ef4c <n36_bgezal_test+0xef4c>
    ef04:	24120000 	li	s2,0
    ef08:	00000000 	nop
    ef0c:	3c10b939 	lui	s0,0xb939
    ef10:	3610ca28 	ori	s0,s0,0xca28
    ef14:	05110023 	bgezal	t0,efa4 <n36_bgezal_test+0xefa4>
    ef18:	00000000 	nop
    ef1c:	10000023 	b	efac <n36_bgezal_test+0xefac>
    ef20:	00000000 	nop
    ef24:	00000000 	nop
    ef28:	00000021 	move	zero,zero
    ef2c:	00000021 	move	zero,zero
    ef30:	00000021 	move	zero,zero
    ef34:	00000021 	move	zero,zero
    ef38:	00000021 	move	zero,zero
    ef3c:	00000021 	move	zero,zero
    ef40:	00000021 	move	zero,zero
    ef44:	00000021 	move	zero,zero
    ef48:	00000021 	move	zero,zero
    ef4c:	3c0883eb 	lui	t0,0x83eb
    ef50:	3508bf0a 	ori	t0,t0,0xbf0a
    ef54:	0511ffed 	bgezal	t0,ef0c <n36_bgezal_test+0xef0c>
    ef58:	00000000 	nop
    ef5c:	10000013 	b	efac <n36_bgezal_test+0xefac>
    ef60:	00000000 	nop
    ef64:	00000000 	nop
    ef68:	00000021 	move	zero,zero
    ef6c:	00000021 	move	zero,zero
    ef70:	00000021 	move	zero,zero
    ef74:	00000021 	move	zero,zero
    ef78:	00000021 	move	zero,zero
    ef7c:	00000021 	move	zero,zero
    ef80:	00000021 	move	zero,zero
    ef84:	00000021 	move	zero,zero
    ef88:	00000021 	move	zero,zero
    ef8c:	00000021 	move	zero,zero
    ef90:	00000021 	move	zero,zero
    ef94:	00000021 	move	zero,zero
    ef98:	00000021 	move	zero,zero
    ef9c:	00000021 	move	zero,zero
    efa0:	00000021 	move	zero,zero
    efa4:	3c12f1d0 	lui	s2,0xf1d0
    efa8:	3652c517 	ori	s2,s2,0xc517
    efac:	001fa021 	addu	s4,zero,ra
    efb0:	0015f821 	addu	ra,zero,s5
    efb4:	3c150001 	lui	s5,0x1
    efb8:	26b5ef14 	addiu	s5,s5,-4332
    efbc:	3c160001 	lui	s6,0x1
    efc0:	26d6ef54 	addiu	s6,s6,-4268
    efc4:	24180000 	li	t8,0
    efc8:	16180b85 	bne	s0,t8,11de0 <inst_error>
    efcc:	00000000 	nop
    efd0:	00000000 	nop
    efd4:	24180000 	li	t8,0
    efd8:	16580b81 	bne	s2,t8,11de0 <inst_error>
    efdc:	00000000 	nop
    efe0:	00000000 	nop
    efe4:	3c19bfc0 	lui	t9,0xbfc0
    efe8:	37397f7c 	ori	t9,t9,0x7f7c
    efec:	3c18bfc0 	lui	t8,0xbfc0
    eff0:	37187f3c 	ori	t8,t8,0x7f3c
    eff4:	27180008 	addiu	t8,t8,8
    eff8:	1319000a 	beq	t8,t9,f024 <n36_bgezal_test+0xf024>
    effc:	00000000 	nop
    f000:	00000000 	nop
    f004:	3c18bfc0 	lui	t8,0xbfc0
    f008:	37187f74 	ori	t8,t8,0x7f74
    f00c:	27180008 	addiu	t8,t8,8
    f010:	1319000a 	beq	t8,t9,f03c <n36_bgezal_test+0xf03c>
    f014:	00000000 	nop
    f018:	10000b71 	b	11de0 <inst_error>
    f01c:	00000000 	nop
    f020:	00000000 	nop
    f024:	26b50008 	addiu	s5,s5,8
    f028:	16950b6d 	bne	s4,s5,11de0 <inst_error>
    f02c:	00000000 	nop
    f030:	10000006 	b	f04c <n36_bgezal_test+0xf04c>
    f034:	00000000 	nop
    f038:	00000000 	nop
    f03c:	26d60008 	addiu	s6,s6,8
    f040:	16960b67 	bne	s4,s6,11de0 <inst_error>
    f044:	00000000 	nop
	...
    f050:	001fa821 	addu	s5,zero,ra
    f054:	3c0c21f9 	lui	t4,0x21f9
    f058:	358c0620 	ori	t4,t4,0x620
    f05c:	3c0d782c 	lui	t5,0x782c
    f060:	35ad2ff0 	ori	t5,t5,0x2ff0
    f064:	24100000 	li	s0,0
    f068:	10000012 	b	f0b4 <n36_bgezal_test+0xf0b4>
    f06c:	24120000 	li	s2,0
    f070:	00000000 	nop
    f074:	3c1021f9 	lui	s0,0x21f9
    f078:	36100620 	ori	s0,s0,0x620
    f07c:	05110023 	bgezal	t0,f10c <n36_bgezal_test+0xf10c>
    f080:	00000000 	nop
    f084:	10000023 	b	f114 <n36_bgezal_test+0xf114>
    f088:	00000000 	nop
    f08c:	00000000 	nop
    f090:	00000021 	move	zero,zero
    f094:	00000021 	move	zero,zero
    f098:	00000021 	move	zero,zero
    f09c:	00000021 	move	zero,zero
    f0a0:	00000021 	move	zero,zero
    f0a4:	00000021 	move	zero,zero
    f0a8:	00000021 	move	zero,zero
    f0ac:	00000021 	move	zero,zero
    f0b0:	00000021 	move	zero,zero
    f0b4:	3c08eacc 	lui	t0,0xeacc
    f0b8:	35082eb9 	ori	t0,t0,0x2eb9
    f0bc:	0511ffed 	bgezal	t0,f074 <n36_bgezal_test+0xf074>
    f0c0:	00000000 	nop
    f0c4:	10000013 	b	f114 <n36_bgezal_test+0xf114>
    f0c8:	00000000 	nop
    f0cc:	00000000 	nop
    f0d0:	00000021 	move	zero,zero
    f0d4:	00000021 	move	zero,zero
    f0d8:	00000021 	move	zero,zero
    f0dc:	00000021 	move	zero,zero
    f0e0:	00000021 	move	zero,zero
    f0e4:	00000021 	move	zero,zero
    f0e8:	00000021 	move	zero,zero
    f0ec:	00000021 	move	zero,zero
    f0f0:	00000021 	move	zero,zero
    f0f4:	00000021 	move	zero,zero
    f0f8:	00000021 	move	zero,zero
    f0fc:	00000021 	move	zero,zero
    f100:	00000021 	move	zero,zero
    f104:	00000021 	move	zero,zero
    f108:	00000021 	move	zero,zero
    f10c:	3c12782c 	lui	s2,0x782c
    f110:	36522ff0 	ori	s2,s2,0x2ff0
    f114:	001fa021 	addu	s4,zero,ra
    f118:	0015f821 	addu	ra,zero,s5
    f11c:	3c150001 	lui	s5,0x1
    f120:	26b5f07c 	addiu	s5,s5,-3972
    f124:	3c160001 	lui	s6,0x1
    f128:	26d6f0bc 	addiu	s6,s6,-3908
    f12c:	24180000 	li	t8,0
    f130:	16180b2b 	bne	s0,t8,11de0 <inst_error>
    f134:	00000000 	nop
    f138:	00000000 	nop
    f13c:	24180000 	li	t8,0
    f140:	16580b27 	bne	s2,t8,11de0 <inst_error>
    f144:	00000000 	nop
    f148:	00000000 	nop
    f14c:	3c19bfc0 	lui	t9,0xbfc0
    f150:	37398038 	ori	t9,t9,0x8038
    f154:	3c18bfc0 	lui	t8,0xbfc0
    f158:	37187ff8 	ori	t8,t8,0x7ff8
    f15c:	27180008 	addiu	t8,t8,8
    f160:	1319000a 	beq	t8,t9,f18c <n36_bgezal_test+0xf18c>
    f164:	00000000 	nop
    f168:	00000000 	nop
    f16c:	3c18bfc0 	lui	t8,0xbfc0
    f170:	37188030 	ori	t8,t8,0x8030
    f174:	27180008 	addiu	t8,t8,8
    f178:	1319000a 	beq	t8,t9,f1a4 <n36_bgezal_test+0xf1a4>
    f17c:	00000000 	nop
    f180:	10000b17 	b	11de0 <inst_error>
    f184:	00000000 	nop
    f188:	00000000 	nop
    f18c:	26b50008 	addiu	s5,s5,8
    f190:	16950b13 	bne	s4,s5,11de0 <inst_error>
    f194:	00000000 	nop
    f198:	10000006 	b	f1b4 <n36_bgezal_test+0xf1b4>
    f19c:	00000000 	nop
    f1a0:	00000000 	nop
    f1a4:	26d60008 	addiu	s6,s6,8
    f1a8:	16960b0d 	bne	s4,s6,11de0 <inst_error>
    f1ac:	00000000 	nop
	...
    f1b8:	001fa821 	addu	s5,zero,ra
    f1bc:	3c0c96e6 	lui	t4,0x96e6
    f1c0:	358c5bb0 	ori	t4,t4,0x5bb0
    f1c4:	3c0d79dc 	lui	t5,0x79dc
    f1c8:	35ada77c 	ori	t5,t5,0xa77c
    f1cc:	24100000 	li	s0,0
    f1d0:	10000012 	b	f21c <n36_bgezal_test+0xf21c>
    f1d4:	24120000 	li	s2,0
    f1d8:	00000000 	nop
    f1dc:	3c1096e6 	lui	s0,0x96e6
    f1e0:	36105bb0 	ori	s0,s0,0x5bb0
    f1e4:	05110023 	bgezal	t0,f274 <n36_bgezal_test+0xf274>
    f1e8:	00000000 	nop
    f1ec:	10000023 	b	f27c <n36_bgezal_test+0xf27c>
    f1f0:	00000000 	nop
    f1f4:	00000000 	nop
    f1f8:	00000021 	move	zero,zero
    f1fc:	00000021 	move	zero,zero
    f200:	00000021 	move	zero,zero
    f204:	00000021 	move	zero,zero
    f208:	00000021 	move	zero,zero
    f20c:	00000021 	move	zero,zero
    f210:	00000021 	move	zero,zero
    f214:	00000021 	move	zero,zero
    f218:	00000021 	move	zero,zero
    f21c:	3c08c24d 	lui	t0,0xc24d
    f220:	35089a50 	ori	t0,t0,0x9a50
    f224:	0511ffed 	bgezal	t0,f1dc <n36_bgezal_test+0xf1dc>
    f228:	00000000 	nop
    f22c:	10000013 	b	f27c <n36_bgezal_test+0xf27c>
    f230:	00000000 	nop
    f234:	00000000 	nop
    f238:	00000021 	move	zero,zero
    f23c:	00000021 	move	zero,zero
    f240:	00000021 	move	zero,zero
    f244:	00000021 	move	zero,zero
    f248:	00000021 	move	zero,zero
    f24c:	00000021 	move	zero,zero
    f250:	00000021 	move	zero,zero
    f254:	00000021 	move	zero,zero
    f258:	00000021 	move	zero,zero
    f25c:	00000021 	move	zero,zero
    f260:	00000021 	move	zero,zero
    f264:	00000021 	move	zero,zero
    f268:	00000021 	move	zero,zero
    f26c:	00000021 	move	zero,zero
    f270:	00000021 	move	zero,zero
    f274:	3c1279dc 	lui	s2,0x79dc
    f278:	3652a77c 	ori	s2,s2,0xa77c
    f27c:	001fa021 	addu	s4,zero,ra
    f280:	0015f821 	addu	ra,zero,s5
    f284:	3c150001 	lui	s5,0x1
    f288:	26b5f1e4 	addiu	s5,s5,-3612
    f28c:	3c160001 	lui	s6,0x1
    f290:	26d6f224 	addiu	s6,s6,-3548
    f294:	24180000 	li	t8,0
    f298:	16180ad1 	bne	s0,t8,11de0 <inst_error>
    f29c:	00000000 	nop
    f2a0:	00000000 	nop
    f2a4:	24180000 	li	t8,0
    f2a8:	16580acd 	bne	s2,t8,11de0 <inst_error>
    f2ac:	00000000 	nop
    f2b0:	00000000 	nop
    f2b4:	3c19bfc0 	lui	t9,0xbfc0
    f2b8:	373980f4 	ori	t9,t9,0x80f4
    f2bc:	3c18bfc0 	lui	t8,0xbfc0
    f2c0:	371880b4 	ori	t8,t8,0x80b4
    f2c4:	27180008 	addiu	t8,t8,8
    f2c8:	1319000a 	beq	t8,t9,f2f4 <n36_bgezal_test+0xf2f4>
    f2cc:	00000000 	nop
    f2d0:	00000000 	nop
    f2d4:	3c18bfc0 	lui	t8,0xbfc0
    f2d8:	371880ec 	ori	t8,t8,0x80ec
    f2dc:	27180008 	addiu	t8,t8,8
    f2e0:	1319000a 	beq	t8,t9,f30c <n36_bgezal_test+0xf30c>
    f2e4:	00000000 	nop
    f2e8:	10000abd 	b	11de0 <inst_error>
    f2ec:	00000000 	nop
    f2f0:	00000000 	nop
    f2f4:	26b50008 	addiu	s5,s5,8
    f2f8:	16950ab9 	bne	s4,s5,11de0 <inst_error>
    f2fc:	00000000 	nop
    f300:	10000006 	b	f31c <n36_bgezal_test+0xf31c>
    f304:	00000000 	nop
    f308:	00000000 	nop
    f30c:	26d60008 	addiu	s6,s6,8
    f310:	16960ab3 	bne	s4,s6,11de0 <inst_error>
    f314:	00000000 	nop
	...
    f320:	001fa821 	addu	s5,zero,ra
    f324:	3c0c1138 	lui	t4,0x1138
    f328:	358c7ac8 	ori	t4,t4,0x7ac8
    f32c:	3c0d28d0 	lui	t5,0x28d0
    f330:	35ad0080 	ori	t5,t5,0x80
    f334:	24100000 	li	s0,0
    f338:	10000012 	b	f384 <n36_bgezal_test+0xf384>
    f33c:	24120000 	li	s2,0
    f340:	00000000 	nop
    f344:	3c101138 	lui	s0,0x1138
    f348:	36107ac8 	ori	s0,s0,0x7ac8
    f34c:	05110023 	bgezal	t0,f3dc <n36_bgezal_test+0xf3dc>
    f350:	00000000 	nop
    f354:	10000023 	b	f3e4 <n36_bgezal_test+0xf3e4>
    f358:	00000000 	nop
    f35c:	00000000 	nop
    f360:	00000021 	move	zero,zero
    f364:	00000021 	move	zero,zero
    f368:	00000021 	move	zero,zero
    f36c:	00000021 	move	zero,zero
    f370:	00000021 	move	zero,zero
    f374:	00000021 	move	zero,zero
    f378:	00000021 	move	zero,zero
    f37c:	00000021 	move	zero,zero
    f380:	00000021 	move	zero,zero
    f384:	3c0877fa 	lui	t0,0x77fa
    f388:	3508e458 	ori	t0,t0,0xe458
    f38c:	0511ffed 	bgezal	t0,f344 <n36_bgezal_test+0xf344>
    f390:	00000000 	nop
    f394:	10000013 	b	f3e4 <n36_bgezal_test+0xf3e4>
    f398:	00000000 	nop
    f39c:	00000000 	nop
    f3a0:	00000021 	move	zero,zero
    f3a4:	00000021 	move	zero,zero
    f3a8:	00000021 	move	zero,zero
    f3ac:	00000021 	move	zero,zero
    f3b0:	00000021 	move	zero,zero
    f3b4:	00000021 	move	zero,zero
    f3b8:	00000021 	move	zero,zero
    f3bc:	00000021 	move	zero,zero
    f3c0:	00000021 	move	zero,zero
    f3c4:	00000021 	move	zero,zero
    f3c8:	00000021 	move	zero,zero
    f3cc:	00000021 	move	zero,zero
    f3d0:	00000021 	move	zero,zero
    f3d4:	00000021 	move	zero,zero
    f3d8:	00000021 	move	zero,zero
    f3dc:	3c1228d0 	lui	s2,0x28d0
    f3e0:	36520080 	ori	s2,s2,0x80
    f3e4:	001fa021 	addu	s4,zero,ra
    f3e8:	0015f821 	addu	ra,zero,s5
    f3ec:	3c150001 	lui	s5,0x1
    f3f0:	26b5f34c 	addiu	s5,s5,-3252
    f3f4:	3c160001 	lui	s6,0x1
    f3f8:	26d6f38c 	addiu	s6,s6,-3188
    f3fc:	3c181138 	lui	t8,0x1138
    f400:	37187ac8 	ori	t8,t8,0x7ac8
    f404:	16180a76 	bne	s0,t8,11de0 <inst_error>
    f408:	00000000 	nop
    f40c:	00000000 	nop
    f410:	3c1828d0 	lui	t8,0x28d0
    f414:	37180080 	ori	t8,t8,0x80
    f418:	16580a71 	bne	s2,t8,11de0 <inst_error>
    f41c:	00000000 	nop
    f420:	00000000 	nop
    f424:	3c19bfc0 	lui	t9,0xbfc0
    f428:	37398178 	ori	t9,t9,0x8178
    f42c:	3c18bfc0 	lui	t8,0xbfc0
    f430:	37188170 	ori	t8,t8,0x8170
    f434:	27180008 	addiu	t8,t8,8
    f438:	1319000a 	beq	t8,t9,f464 <n36_bgezal_test+0xf464>
    f43c:	00000000 	nop
    f440:	00000000 	nop
    f444:	3c18bfc0 	lui	t8,0xbfc0
    f448:	371881a8 	ori	t8,t8,0x81a8
    f44c:	27180008 	addiu	t8,t8,8
    f450:	1319000a 	beq	t8,t9,f47c <n36_bgezal_test+0xf47c>
    f454:	00000000 	nop
    f458:	10000a61 	b	11de0 <inst_error>
    f45c:	00000000 	nop
    f460:	00000000 	nop
    f464:	26b50008 	addiu	s5,s5,8
    f468:	16950a5d 	bne	s4,s5,11de0 <inst_error>
    f46c:	00000000 	nop
    f470:	10000006 	b	f48c <n36_bgezal_test+0xf48c>
    f474:	00000000 	nop
    f478:	00000000 	nop
    f47c:	26d60008 	addiu	s6,s6,8
    f480:	16960a57 	bne	s4,s6,11de0 <inst_error>
    f484:	00000000 	nop
	...
    f490:	001fa821 	addu	s5,zero,ra
    f494:	3c0c68f9 	lui	t4,0x68f9
    f498:	358cf840 	ori	t4,t4,0xf840
    f49c:	3c0d6598 	lui	t5,0x6598
    f4a0:	35ad0b18 	ori	t5,t5,0xb18
    f4a4:	24100000 	li	s0,0
    f4a8:	10000012 	b	f4f4 <n36_bgezal_test+0xf4f4>
    f4ac:	24120000 	li	s2,0
    f4b0:	00000000 	nop
    f4b4:	3c1068f9 	lui	s0,0x68f9
    f4b8:	3610f840 	ori	s0,s0,0xf840
    f4bc:	05110023 	bgezal	t0,f54c <n36_bgezal_test+0xf54c>
    f4c0:	00000000 	nop
    f4c4:	10000023 	b	f554 <n36_bgezal_test+0xf554>
    f4c8:	00000000 	nop
    f4cc:	00000000 	nop
    f4d0:	00000021 	move	zero,zero
    f4d4:	00000021 	move	zero,zero
    f4d8:	00000021 	move	zero,zero
    f4dc:	00000021 	move	zero,zero
    f4e0:	00000021 	move	zero,zero
    f4e4:	00000021 	move	zero,zero
    f4e8:	00000021 	move	zero,zero
    f4ec:	00000021 	move	zero,zero
    f4f0:	00000021 	move	zero,zero
    f4f4:	3c0848bf 	lui	t0,0x48bf
    f4f8:	3508f3a4 	ori	t0,t0,0xf3a4
    f4fc:	0511ffed 	bgezal	t0,f4b4 <n36_bgezal_test+0xf4b4>
    f500:	00000000 	nop
    f504:	10000013 	b	f554 <n36_bgezal_test+0xf554>
    f508:	00000000 	nop
    f50c:	00000000 	nop
    f510:	00000021 	move	zero,zero
    f514:	00000021 	move	zero,zero
    f518:	00000021 	move	zero,zero
    f51c:	00000021 	move	zero,zero
    f520:	00000021 	move	zero,zero
    f524:	00000021 	move	zero,zero
    f528:	00000021 	move	zero,zero
    f52c:	00000021 	move	zero,zero
    f530:	00000021 	move	zero,zero
    f534:	00000021 	move	zero,zero
    f538:	00000021 	move	zero,zero
    f53c:	00000021 	move	zero,zero
    f540:	00000021 	move	zero,zero
    f544:	00000021 	move	zero,zero
    f548:	00000021 	move	zero,zero
    f54c:	3c126598 	lui	s2,0x6598
    f550:	36520b18 	ori	s2,s2,0xb18
    f554:	001fa021 	addu	s4,zero,ra
    f558:	0015f821 	addu	ra,zero,s5
    f55c:	3c150001 	lui	s5,0x1
    f560:	26b5f4bc 	addiu	s5,s5,-2884
    f564:	3c160001 	lui	s6,0x1
    f568:	26d6f4fc 	addiu	s6,s6,-2820
    f56c:	3c1868f9 	lui	t8,0x68f9
    f570:	3718f840 	ori	t8,t8,0xf840
    f574:	16180a1a 	bne	s0,t8,11de0 <inst_error>
    f578:	00000000 	nop
    f57c:	00000000 	nop
    f580:	3c186598 	lui	t8,0x6598
    f584:	37180b18 	ori	t8,t8,0xb18
    f588:	16580a15 	bne	s2,t8,11de0 <inst_error>
    f58c:	00000000 	nop
    f590:	00000000 	nop
    f594:	3c19bfc0 	lui	t9,0xbfc0
    f598:	37398234 	ori	t9,t9,0x8234
    f59c:	3c18bfc0 	lui	t8,0xbfc0
    f5a0:	3718822c 	ori	t8,t8,0x822c
    f5a4:	27180008 	addiu	t8,t8,8
    f5a8:	1319000a 	beq	t8,t9,f5d4 <n36_bgezal_test+0xf5d4>
    f5ac:	00000000 	nop
    f5b0:	00000000 	nop
    f5b4:	3c18bfc0 	lui	t8,0xbfc0
    f5b8:	37188264 	ori	t8,t8,0x8264
    f5bc:	27180008 	addiu	t8,t8,8
    f5c0:	1319000a 	beq	t8,t9,f5ec <n36_bgezal_test+0xf5ec>
    f5c4:	00000000 	nop
    f5c8:	10000a05 	b	11de0 <inst_error>
    f5cc:	00000000 	nop
    f5d0:	00000000 	nop
    f5d4:	26b50008 	addiu	s5,s5,8
    f5d8:	16950a01 	bne	s4,s5,11de0 <inst_error>
    f5dc:	00000000 	nop
    f5e0:	10000006 	b	f5fc <n36_bgezal_test+0xf5fc>
    f5e4:	00000000 	nop
    f5e8:	00000000 	nop
    f5ec:	26d60008 	addiu	s6,s6,8
    f5f0:	169609fb 	bne	s4,s6,11de0 <inst_error>
    f5f4:	00000000 	nop
	...
    f600:	001fa821 	addu	s5,zero,ra
    f604:	3c0c3478 	lui	t4,0x3478
    f608:	358cfb80 	ori	t4,t4,0xfb80
    f60c:	3c0d1dae 	lui	t5,0x1dae
    f610:	35adcc10 	ori	t5,t5,0xcc10
    f614:	24100000 	li	s0,0
    f618:	10000012 	b	f664 <n36_bgezal_test+0xf664>
    f61c:	24120000 	li	s2,0
    f620:	00000000 	nop
    f624:	3c103478 	lui	s0,0x3478
    f628:	3610fb80 	ori	s0,s0,0xfb80
    f62c:	05110023 	bgezal	t0,f6bc <n36_bgezal_test+0xf6bc>
    f630:	00000000 	nop
    f634:	10000023 	b	f6c4 <n36_bgezal_test+0xf6c4>
    f638:	00000000 	nop
    f63c:	00000000 	nop
    f640:	00000021 	move	zero,zero
    f644:	00000021 	move	zero,zero
    f648:	00000021 	move	zero,zero
    f64c:	00000021 	move	zero,zero
    f650:	00000021 	move	zero,zero
    f654:	00000021 	move	zero,zero
    f658:	00000021 	move	zero,zero
    f65c:	00000021 	move	zero,zero
    f660:	00000021 	move	zero,zero
    f664:	3c086044 	lui	t0,0x6044
    f668:	3508dfa0 	ori	t0,t0,0xdfa0
    f66c:	0511ffed 	bgezal	t0,f624 <n36_bgezal_test+0xf624>
    f670:	00000000 	nop
    f674:	10000013 	b	f6c4 <n36_bgezal_test+0xf6c4>
    f678:	00000000 	nop
    f67c:	00000000 	nop
    f680:	00000021 	move	zero,zero
    f684:	00000021 	move	zero,zero
    f688:	00000021 	move	zero,zero
    f68c:	00000021 	move	zero,zero
    f690:	00000021 	move	zero,zero
    f694:	00000021 	move	zero,zero
    f698:	00000021 	move	zero,zero
    f69c:	00000021 	move	zero,zero
    f6a0:	00000021 	move	zero,zero
    f6a4:	00000021 	move	zero,zero
    f6a8:	00000021 	move	zero,zero
    f6ac:	00000021 	move	zero,zero
    f6b0:	00000021 	move	zero,zero
    f6b4:	00000021 	move	zero,zero
    f6b8:	00000021 	move	zero,zero
    f6bc:	3c121dae 	lui	s2,0x1dae
    f6c0:	3652cc10 	ori	s2,s2,0xcc10
    f6c4:	001fa021 	addu	s4,zero,ra
    f6c8:	0015f821 	addu	ra,zero,s5
    f6cc:	3c150001 	lui	s5,0x1
    f6d0:	26b5f62c 	addiu	s5,s5,-2516
    f6d4:	3c160001 	lui	s6,0x1
    f6d8:	26d6f66c 	addiu	s6,s6,-2452
    f6dc:	3c183478 	lui	t8,0x3478
    f6e0:	3718fb80 	ori	t8,t8,0xfb80
    f6e4:	161809be 	bne	s0,t8,11de0 <inst_error>
    f6e8:	00000000 	nop
    f6ec:	00000000 	nop
    f6f0:	3c181dae 	lui	t8,0x1dae
    f6f4:	3718cc10 	ori	t8,t8,0xcc10
    f6f8:	165809b9 	bne	s2,t8,11de0 <inst_error>
    f6fc:	00000000 	nop
    f700:	00000000 	nop
    f704:	3c19bfc0 	lui	t9,0xbfc0
    f708:	373982f0 	ori	t9,t9,0x82f0
    f70c:	3c18bfc0 	lui	t8,0xbfc0
    f710:	371882e8 	ori	t8,t8,0x82e8
    f714:	27180008 	addiu	t8,t8,8
    f718:	1319000a 	beq	t8,t9,f744 <n36_bgezal_test+0xf744>
    f71c:	00000000 	nop
    f720:	00000000 	nop
    f724:	3c18bfc0 	lui	t8,0xbfc0
    f728:	37188320 	ori	t8,t8,0x8320
    f72c:	27180008 	addiu	t8,t8,8
    f730:	1319000a 	beq	t8,t9,f75c <n36_bgezal_test+0xf75c>
    f734:	00000000 	nop
    f738:	100009a9 	b	11de0 <inst_error>
    f73c:	00000000 	nop
    f740:	00000000 	nop
    f744:	26b50008 	addiu	s5,s5,8
    f748:	169509a5 	bne	s4,s5,11de0 <inst_error>
    f74c:	00000000 	nop
    f750:	10000006 	b	f76c <n36_bgezal_test+0xf76c>
    f754:	00000000 	nop
    f758:	00000000 	nop
    f75c:	26d60008 	addiu	s6,s6,8
    f760:	1696099f 	bne	s4,s6,11de0 <inst_error>
    f764:	00000000 	nop
	...
    f770:	001fa821 	addu	s5,zero,ra
    f774:	3c0ced14 	lui	t4,0xed14
    f778:	358ce430 	ori	t4,t4,0xe430
    f77c:	3c0d7d26 	lui	t5,0x7d26
    f780:	35ad68a0 	ori	t5,t5,0x68a0
    f784:	24100000 	li	s0,0
    f788:	10000012 	b	f7d4 <n36_bgezal_test+0xf7d4>
    f78c:	24120000 	li	s2,0
    f790:	00000000 	nop
    f794:	3c10ed14 	lui	s0,0xed14
    f798:	3610e430 	ori	s0,s0,0xe430
    f79c:	05110023 	bgezal	t0,f82c <n36_bgezal_test+0xf82c>
    f7a0:	00000000 	nop
    f7a4:	10000023 	b	f834 <n36_bgezal_test+0xf834>
    f7a8:	00000000 	nop
    f7ac:	00000000 	nop
    f7b0:	00000021 	move	zero,zero
    f7b4:	00000021 	move	zero,zero
    f7b8:	00000021 	move	zero,zero
    f7bc:	00000021 	move	zero,zero
    f7c0:	00000021 	move	zero,zero
    f7c4:	00000021 	move	zero,zero
    f7c8:	00000021 	move	zero,zero
    f7cc:	00000021 	move	zero,zero
    f7d0:	00000021 	move	zero,zero
    f7d4:	3c0877d2 	lui	t0,0x77d2
    f7d8:	350817b0 	ori	t0,t0,0x17b0
    f7dc:	0511ffed 	bgezal	t0,f794 <n36_bgezal_test+0xf794>
    f7e0:	00000000 	nop
    f7e4:	10000013 	b	f834 <n36_bgezal_test+0xf834>
    f7e8:	00000000 	nop
    f7ec:	00000000 	nop
    f7f0:	00000021 	move	zero,zero
    f7f4:	00000021 	move	zero,zero
    f7f8:	00000021 	move	zero,zero
    f7fc:	00000021 	move	zero,zero
    f800:	00000021 	move	zero,zero
    f804:	00000021 	move	zero,zero
    f808:	00000021 	move	zero,zero
    f80c:	00000021 	move	zero,zero
    f810:	00000021 	move	zero,zero
    f814:	00000021 	move	zero,zero
    f818:	00000021 	move	zero,zero
    f81c:	00000021 	move	zero,zero
    f820:	00000021 	move	zero,zero
    f824:	00000021 	move	zero,zero
    f828:	00000021 	move	zero,zero
    f82c:	3c127d26 	lui	s2,0x7d26
    f830:	365268a0 	ori	s2,s2,0x68a0
    f834:	001fa021 	addu	s4,zero,ra
    f838:	0015f821 	addu	ra,zero,s5
    f83c:	3c150001 	lui	s5,0x1
    f840:	26b5f79c 	addiu	s5,s5,-2148
    f844:	3c160001 	lui	s6,0x1
    f848:	26d6f7dc 	addiu	s6,s6,-2084
    f84c:	3c18ed14 	lui	t8,0xed14
    f850:	3718e430 	ori	t8,t8,0xe430
    f854:	16180962 	bne	s0,t8,11de0 <inst_error>
    f858:	00000000 	nop
    f85c:	00000000 	nop
    f860:	3c187d26 	lui	t8,0x7d26
    f864:	371868a0 	ori	t8,t8,0x68a0
    f868:	1658095d 	bne	s2,t8,11de0 <inst_error>
    f86c:	00000000 	nop
    f870:	00000000 	nop
    f874:	3c19bfc0 	lui	t9,0xbfc0
    f878:	373983ac 	ori	t9,t9,0x83ac
    f87c:	3c18bfc0 	lui	t8,0xbfc0
    f880:	371883a4 	ori	t8,t8,0x83a4
    f884:	27180008 	addiu	t8,t8,8
    f888:	1319000a 	beq	t8,t9,f8b4 <n36_bgezal_test+0xf8b4>
    f88c:	00000000 	nop
    f890:	00000000 	nop
    f894:	3c18bfc0 	lui	t8,0xbfc0
    f898:	371883dc 	ori	t8,t8,0x83dc
    f89c:	27180008 	addiu	t8,t8,8
    f8a0:	1319000a 	beq	t8,t9,f8cc <n36_bgezal_test+0xf8cc>
    f8a4:	00000000 	nop
    f8a8:	1000094d 	b	11de0 <inst_error>
    f8ac:	00000000 	nop
    f8b0:	00000000 	nop
    f8b4:	26b50008 	addiu	s5,s5,8
    f8b8:	16950949 	bne	s4,s5,11de0 <inst_error>
    f8bc:	00000000 	nop
    f8c0:	10000006 	b	f8dc <n36_bgezal_test+0xf8dc>
    f8c4:	00000000 	nop
    f8c8:	00000000 	nop
    f8cc:	26d60008 	addiu	s6,s6,8
    f8d0:	16960943 	bne	s4,s6,11de0 <inst_error>
    f8d4:	00000000 	nop
	...
    f8e0:	001fa821 	addu	s5,zero,ra
    f8e4:	3c0c3d61 	lui	t4,0x3d61
    f8e8:	358cd900 	ori	t4,t4,0xd900
    f8ec:	3c0d27e8 	lui	t5,0x27e8
    f8f0:	35ad86a3 	ori	t5,t5,0x86a3
    f8f4:	24100000 	li	s0,0
    f8f8:	10000012 	b	f944 <n36_bgezal_test+0xf944>
    f8fc:	24120000 	li	s2,0
    f900:	00000000 	nop
    f904:	3c103d61 	lui	s0,0x3d61
    f908:	3610d900 	ori	s0,s0,0xd900
    f90c:	05110023 	bgezal	t0,f99c <n36_bgezal_test+0xf99c>
    f910:	00000000 	nop
    f914:	10000023 	b	f9a4 <n36_bgezal_test+0xf9a4>
    f918:	00000000 	nop
    f91c:	00000000 	nop
    f920:	00000021 	move	zero,zero
    f924:	00000021 	move	zero,zero
    f928:	00000021 	move	zero,zero
    f92c:	00000021 	move	zero,zero
    f930:	00000021 	move	zero,zero
    f934:	00000021 	move	zero,zero
    f938:	00000021 	move	zero,zero
    f93c:	00000021 	move	zero,zero
    f940:	00000021 	move	zero,zero
    f944:	3c0869a5 	lui	t0,0x69a5
    f948:	35088eb6 	ori	t0,t0,0x8eb6
    f94c:	0511ffed 	bgezal	t0,f904 <n36_bgezal_test+0xf904>
    f950:	00000000 	nop
    f954:	10000013 	b	f9a4 <n36_bgezal_test+0xf9a4>
    f958:	00000000 	nop
    f95c:	00000000 	nop
    f960:	00000021 	move	zero,zero
    f964:	00000021 	move	zero,zero
    f968:	00000021 	move	zero,zero
    f96c:	00000021 	move	zero,zero
    f970:	00000021 	move	zero,zero
    f974:	00000021 	move	zero,zero
    f978:	00000021 	move	zero,zero
    f97c:	00000021 	move	zero,zero
    f980:	00000021 	move	zero,zero
    f984:	00000021 	move	zero,zero
    f988:	00000021 	move	zero,zero
    f98c:	00000021 	move	zero,zero
    f990:	00000021 	move	zero,zero
    f994:	00000021 	move	zero,zero
    f998:	00000021 	move	zero,zero
    f99c:	3c1227e8 	lui	s2,0x27e8
    f9a0:	365286a3 	ori	s2,s2,0x86a3
    f9a4:	001fa021 	addu	s4,zero,ra
    f9a8:	0015f821 	addu	ra,zero,s5
    f9ac:	3c150001 	lui	s5,0x1
    f9b0:	26b5f90c 	addiu	s5,s5,-1780
    f9b4:	3c160001 	lui	s6,0x1
    f9b8:	26d6f94c 	addiu	s6,s6,-1716
    f9bc:	3c183d61 	lui	t8,0x3d61
    f9c0:	3718d900 	ori	t8,t8,0xd900
    f9c4:	16180906 	bne	s0,t8,11de0 <inst_error>
    f9c8:	00000000 	nop
    f9cc:	00000000 	nop
    f9d0:	3c1827e8 	lui	t8,0x27e8
    f9d4:	371886a3 	ori	t8,t8,0x86a3
    f9d8:	16580901 	bne	s2,t8,11de0 <inst_error>
    f9dc:	00000000 	nop
    f9e0:	00000000 	nop
    f9e4:	3c19bfc0 	lui	t9,0xbfc0
    f9e8:	37398468 	ori	t9,t9,0x8468
    f9ec:	3c18bfc0 	lui	t8,0xbfc0
    f9f0:	37188460 	ori	t8,t8,0x8460
    f9f4:	27180008 	addiu	t8,t8,8
    f9f8:	1319000a 	beq	t8,t9,fa24 <n36_bgezal_test+0xfa24>
    f9fc:	00000000 	nop
    fa00:	00000000 	nop
    fa04:	3c18bfc0 	lui	t8,0xbfc0
    fa08:	37188498 	ori	t8,t8,0x8498
    fa0c:	27180008 	addiu	t8,t8,8
    fa10:	1319000a 	beq	t8,t9,fa3c <n36_bgezal_test+0xfa3c>
    fa14:	00000000 	nop
    fa18:	100008f1 	b	11de0 <inst_error>
    fa1c:	00000000 	nop
    fa20:	00000000 	nop
    fa24:	26b50008 	addiu	s5,s5,8
    fa28:	169508ed 	bne	s4,s5,11de0 <inst_error>
    fa2c:	00000000 	nop
    fa30:	10000006 	b	fa4c <n36_bgezal_test+0xfa4c>
    fa34:	00000000 	nop
    fa38:	00000000 	nop
    fa3c:	26d60008 	addiu	s6,s6,8
    fa40:	169608e7 	bne	s4,s6,11de0 <inst_error>
    fa44:	00000000 	nop
	...
    fa50:	001fa821 	addu	s5,zero,ra
    fa54:	3c0c6448 	lui	t4,0x6448
    fa58:	358cd8e0 	ori	t4,t4,0xd8e0
    fa5c:	3c0d6961 	lui	t5,0x6961
    fa60:	35adf174 	ori	t5,t5,0xf174
    fa64:	24100000 	li	s0,0
    fa68:	10000012 	b	fab4 <n36_bgezal_test+0xfab4>
    fa6c:	24120000 	li	s2,0
    fa70:	00000000 	nop
    fa74:	3c106448 	lui	s0,0x6448
    fa78:	3610d8e0 	ori	s0,s0,0xd8e0
    fa7c:	05110023 	bgezal	t0,fb0c <n36_bgezal_test+0xfb0c>
    fa80:	00000000 	nop
    fa84:	10000023 	b	fb14 <n36_bgezal_test+0xfb14>
    fa88:	00000000 	nop
    fa8c:	00000000 	nop
    fa90:	00000021 	move	zero,zero
    fa94:	00000021 	move	zero,zero
    fa98:	00000021 	move	zero,zero
    fa9c:	00000021 	move	zero,zero
    faa0:	00000021 	move	zero,zero
    faa4:	00000021 	move	zero,zero
    faa8:	00000021 	move	zero,zero
    faac:	00000021 	move	zero,zero
    fab0:	00000021 	move	zero,zero
    fab4:	3c081a22 	lui	t0,0x1a22
    fab8:	3508f920 	ori	t0,t0,0xf920
    fabc:	0511ffed 	bgezal	t0,fa74 <n36_bgezal_test+0xfa74>
    fac0:	00000000 	nop
    fac4:	10000013 	b	fb14 <n36_bgezal_test+0xfb14>
    fac8:	00000000 	nop
    facc:	00000000 	nop
    fad0:	00000021 	move	zero,zero
    fad4:	00000021 	move	zero,zero
    fad8:	00000021 	move	zero,zero
    fadc:	00000021 	move	zero,zero
    fae0:	00000021 	move	zero,zero
    fae4:	00000021 	move	zero,zero
    fae8:	00000021 	move	zero,zero
    faec:	00000021 	move	zero,zero
    faf0:	00000021 	move	zero,zero
    faf4:	00000021 	move	zero,zero
    faf8:	00000021 	move	zero,zero
    fafc:	00000021 	move	zero,zero
    fb00:	00000021 	move	zero,zero
    fb04:	00000021 	move	zero,zero
    fb08:	00000021 	move	zero,zero
    fb0c:	3c126961 	lui	s2,0x6961
    fb10:	3652f174 	ori	s2,s2,0xf174
    fb14:	001fa021 	addu	s4,zero,ra
    fb18:	0015f821 	addu	ra,zero,s5
    fb1c:	3c150001 	lui	s5,0x1
    fb20:	26b5fa7c 	addiu	s5,s5,-1412
    fb24:	3c160001 	lui	s6,0x1
    fb28:	26d6fabc 	addiu	s6,s6,-1348
    fb2c:	3c186448 	lui	t8,0x6448
    fb30:	3718d8e0 	ori	t8,t8,0xd8e0
    fb34:	161808aa 	bne	s0,t8,11de0 <inst_error>
    fb38:	00000000 	nop
    fb3c:	00000000 	nop
    fb40:	3c186961 	lui	t8,0x6961
    fb44:	3718f174 	ori	t8,t8,0xf174
    fb48:	165808a5 	bne	s2,t8,11de0 <inst_error>
    fb4c:	00000000 	nop
    fb50:	00000000 	nop
    fb54:	3c19bfc0 	lui	t9,0xbfc0
    fb58:	37398524 	ori	t9,t9,0x8524
    fb5c:	3c18bfc0 	lui	t8,0xbfc0
    fb60:	3718851c 	ori	t8,t8,0x851c
    fb64:	27180008 	addiu	t8,t8,8
    fb68:	1319000a 	beq	t8,t9,fb94 <n36_bgezal_test+0xfb94>
    fb6c:	00000000 	nop
    fb70:	00000000 	nop
    fb74:	3c18bfc0 	lui	t8,0xbfc0
    fb78:	37188554 	ori	t8,t8,0x8554
    fb7c:	27180008 	addiu	t8,t8,8
    fb80:	1319000a 	beq	t8,t9,fbac <n36_bgezal_test+0xfbac>
    fb84:	00000000 	nop
    fb88:	10000895 	b	11de0 <inst_error>
    fb8c:	00000000 	nop
    fb90:	00000000 	nop
    fb94:	26b50008 	addiu	s5,s5,8
    fb98:	16950891 	bne	s4,s5,11de0 <inst_error>
    fb9c:	00000000 	nop
    fba0:	10000006 	b	fbbc <n36_bgezal_test+0xfbbc>
    fba4:	00000000 	nop
    fba8:	00000000 	nop
    fbac:	26d60008 	addiu	s6,s6,8
    fbb0:	1696088b 	bne	s4,s6,11de0 <inst_error>
    fbb4:	00000000 	nop
	...
    fbc0:	001fa821 	addu	s5,zero,ra
    fbc4:	3c0cdae2 	lui	t4,0xdae2
    fbc8:	358c1256 	ori	t4,t4,0x1256
    fbcc:	3c0db9c0 	lui	t5,0xb9c0
    fbd0:	35adea84 	ori	t5,t5,0xea84
    fbd4:	24100000 	li	s0,0
    fbd8:	10000012 	b	fc24 <n36_bgezal_test+0xfc24>
    fbdc:	24120000 	li	s2,0
    fbe0:	00000000 	nop
    fbe4:	3c10dae2 	lui	s0,0xdae2
    fbe8:	36101256 	ori	s0,s0,0x1256
    fbec:	05110023 	bgezal	t0,fc7c <n36_bgezal_test+0xfc7c>
    fbf0:	00000000 	nop
    fbf4:	10000023 	b	fc84 <n36_bgezal_test+0xfc84>
    fbf8:	00000000 	nop
    fbfc:	00000000 	nop
    fc00:	00000021 	move	zero,zero
    fc04:	00000021 	move	zero,zero
    fc08:	00000021 	move	zero,zero
    fc0c:	00000021 	move	zero,zero
    fc10:	00000021 	move	zero,zero
    fc14:	00000021 	move	zero,zero
    fc18:	00000021 	move	zero,zero
    fc1c:	00000021 	move	zero,zero
    fc20:	00000021 	move	zero,zero
    fc24:	3c0896e4 	lui	t0,0x96e4
    fc28:	350824cd 	ori	t0,t0,0x24cd
    fc2c:	0511ffed 	bgezal	t0,fbe4 <n36_bgezal_test+0xfbe4>
    fc30:	00000000 	nop
    fc34:	10000013 	b	fc84 <n36_bgezal_test+0xfc84>
    fc38:	00000000 	nop
    fc3c:	00000000 	nop
    fc40:	00000021 	move	zero,zero
    fc44:	00000021 	move	zero,zero
    fc48:	00000021 	move	zero,zero
    fc4c:	00000021 	move	zero,zero
    fc50:	00000021 	move	zero,zero
    fc54:	00000021 	move	zero,zero
    fc58:	00000021 	move	zero,zero
    fc5c:	00000021 	move	zero,zero
    fc60:	00000021 	move	zero,zero
    fc64:	00000021 	move	zero,zero
    fc68:	00000021 	move	zero,zero
    fc6c:	00000021 	move	zero,zero
    fc70:	00000021 	move	zero,zero
    fc74:	00000021 	move	zero,zero
    fc78:	00000021 	move	zero,zero
    fc7c:	3c12b9c0 	lui	s2,0xb9c0
    fc80:	3652ea84 	ori	s2,s2,0xea84
    fc84:	001fa021 	addu	s4,zero,ra
    fc88:	0015f821 	addu	ra,zero,s5
    fc8c:	3c150001 	lui	s5,0x1
    fc90:	26b5fbec 	addiu	s5,s5,-1044
    fc94:	3c160001 	lui	s6,0x1
    fc98:	26d6fc2c 	addiu	s6,s6,-980
    fc9c:	24180000 	li	t8,0
    fca0:	1618084f 	bne	s0,t8,11de0 <inst_error>
    fca4:	00000000 	nop
    fca8:	00000000 	nop
    fcac:	24180000 	li	t8,0
    fcb0:	1658084b 	bne	s2,t8,11de0 <inst_error>
    fcb4:	00000000 	nop
    fcb8:	00000000 	nop
    fcbc:	3c19bfc0 	lui	t9,0xbfc0
    fcc0:	37398618 	ori	t9,t9,0x8618
    fcc4:	3c18bfc0 	lui	t8,0xbfc0
    fcc8:	371885d8 	ori	t8,t8,0x85d8
    fccc:	27180008 	addiu	t8,t8,8
    fcd0:	1319000a 	beq	t8,t9,fcfc <n36_bgezal_test+0xfcfc>
    fcd4:	00000000 	nop
    fcd8:	00000000 	nop
    fcdc:	3c18bfc0 	lui	t8,0xbfc0
    fce0:	37188610 	ori	t8,t8,0x8610
    fce4:	27180008 	addiu	t8,t8,8
    fce8:	1319000a 	beq	t8,t9,fd14 <n36_bgezal_test+0xfd14>
    fcec:	00000000 	nop
    fcf0:	1000083b 	b	11de0 <inst_error>
    fcf4:	00000000 	nop
    fcf8:	00000000 	nop
    fcfc:	26b50008 	addiu	s5,s5,8
    fd00:	16950837 	bne	s4,s5,11de0 <inst_error>
    fd04:	00000000 	nop
    fd08:	10000006 	b	fd24 <n36_bgezal_test+0xfd24>
    fd0c:	00000000 	nop
    fd10:	00000000 	nop
    fd14:	26d60008 	addiu	s6,s6,8
    fd18:	16960831 	bne	s4,s6,11de0 <inst_error>
    fd1c:	00000000 	nop
	...
    fd28:	001fa821 	addu	s5,zero,ra
    fd2c:	3c0cf1f2 	lui	t4,0xf1f2
    fd30:	358ceceb 	ori	t4,t4,0xeceb
    fd34:	3c0d84cd 	lui	t5,0x84cd
    fd38:	35adc5c0 	ori	t5,t5,0xc5c0
    fd3c:	24100000 	li	s0,0
    fd40:	10000012 	b	fd8c <n36_bgezal_test+0xfd8c>
    fd44:	24120000 	li	s2,0
    fd48:	00000000 	nop
    fd4c:	3c10f1f2 	lui	s0,0xf1f2
    fd50:	3610eceb 	ori	s0,s0,0xeceb
    fd54:	05110023 	bgezal	t0,fde4 <n36_bgezal_test+0xfde4>
    fd58:	00000000 	nop
    fd5c:	10000023 	b	fdec <n36_bgezal_test+0xfdec>
    fd60:	00000000 	nop
    fd64:	00000000 	nop
    fd68:	00000021 	move	zero,zero
    fd6c:	00000021 	move	zero,zero
    fd70:	00000021 	move	zero,zero
    fd74:	00000021 	move	zero,zero
    fd78:	00000021 	move	zero,zero
    fd7c:	00000021 	move	zero,zero
    fd80:	00000021 	move	zero,zero
    fd84:	00000021 	move	zero,zero
    fd88:	00000021 	move	zero,zero
    fd8c:	3c087214 	lui	t0,0x7214
    fd90:	35084dee 	ori	t0,t0,0x4dee
    fd94:	0511ffed 	bgezal	t0,fd4c <n36_bgezal_test+0xfd4c>
    fd98:	00000000 	nop
    fd9c:	10000013 	b	fdec <n36_bgezal_test+0xfdec>
    fda0:	00000000 	nop
    fda4:	00000000 	nop
    fda8:	00000021 	move	zero,zero
    fdac:	00000021 	move	zero,zero
    fdb0:	00000021 	move	zero,zero
    fdb4:	00000021 	move	zero,zero
    fdb8:	00000021 	move	zero,zero
    fdbc:	00000021 	move	zero,zero
    fdc0:	00000021 	move	zero,zero
    fdc4:	00000021 	move	zero,zero
    fdc8:	00000021 	move	zero,zero
    fdcc:	00000021 	move	zero,zero
    fdd0:	00000021 	move	zero,zero
    fdd4:	00000021 	move	zero,zero
    fdd8:	00000021 	move	zero,zero
    fddc:	00000021 	move	zero,zero
    fde0:	00000021 	move	zero,zero
    fde4:	3c1284cd 	lui	s2,0x84cd
    fde8:	3652c5c0 	ori	s2,s2,0xc5c0
    fdec:	001fa021 	addu	s4,zero,ra
    fdf0:	0015f821 	addu	ra,zero,s5
    fdf4:	3c150001 	lui	s5,0x1
    fdf8:	26b5fd54 	addiu	s5,s5,-684
    fdfc:	3c160001 	lui	s6,0x1
    fe00:	26d6fd94 	addiu	s6,s6,-620
    fe04:	3c18f1f2 	lui	t8,0xf1f2
    fe08:	3718eceb 	ori	t8,t8,0xeceb
    fe0c:	161807f4 	bne	s0,t8,11de0 <inst_error>
    fe10:	00000000 	nop
    fe14:	00000000 	nop
    fe18:	3c1884cd 	lui	t8,0x84cd
    fe1c:	3718c5c0 	ori	t8,t8,0xc5c0
    fe20:	165807ef 	bne	s2,t8,11de0 <inst_error>
    fe24:	00000000 	nop
    fe28:	00000000 	nop
    fe2c:	3c19bfc0 	lui	t9,0xbfc0
    fe30:	3739869c 	ori	t9,t9,0x869c
    fe34:	3c18bfc0 	lui	t8,0xbfc0
    fe38:	37188694 	ori	t8,t8,0x8694
    fe3c:	27180008 	addiu	t8,t8,8
    fe40:	1319000a 	beq	t8,t9,fe6c <n36_bgezal_test+0xfe6c>
    fe44:	00000000 	nop
    fe48:	00000000 	nop
    fe4c:	3c18bfc0 	lui	t8,0xbfc0
    fe50:	371886cc 	ori	t8,t8,0x86cc
    fe54:	27180008 	addiu	t8,t8,8
    fe58:	1319000a 	beq	t8,t9,fe84 <n36_bgezal_test+0xfe84>
    fe5c:	00000000 	nop
    fe60:	100007df 	b	11de0 <inst_error>
    fe64:	00000000 	nop
    fe68:	00000000 	nop
    fe6c:	26b50008 	addiu	s5,s5,8
    fe70:	169507db 	bne	s4,s5,11de0 <inst_error>
    fe74:	00000000 	nop
    fe78:	10000006 	b	fe94 <n36_bgezal_test+0xfe94>
    fe7c:	00000000 	nop
    fe80:	00000000 	nop
    fe84:	26d60008 	addiu	s6,s6,8
    fe88:	169607d5 	bne	s4,s6,11de0 <inst_error>
    fe8c:	00000000 	nop
	...
    fe98:	001fa821 	addu	s5,zero,ra
    fe9c:	3c0c64ff 	lui	t4,0x64ff
    fea0:	358c3a3c 	ori	t4,t4,0x3a3c
    fea4:	3c0dcf80 	lui	t5,0xcf80
    fea8:	35ad14a7 	ori	t5,t5,0x14a7
    feac:	24100000 	li	s0,0
    feb0:	10000012 	b	fefc <n36_bgezal_test+0xfefc>
    feb4:	24120000 	li	s2,0
    feb8:	00000000 	nop
    febc:	3c1064ff 	lui	s0,0x64ff
    fec0:	36103a3c 	ori	s0,s0,0x3a3c
    fec4:	05110023 	bgezal	t0,ff54 <n36_bgezal_test+0xff54>
    fec8:	00000000 	nop
    fecc:	10000023 	b	ff5c <n36_bgezal_test+0xff5c>
    fed0:	00000000 	nop
    fed4:	00000000 	nop
    fed8:	00000021 	move	zero,zero
    fedc:	00000021 	move	zero,zero
    fee0:	00000021 	move	zero,zero
    fee4:	00000021 	move	zero,zero
    fee8:	00000021 	move	zero,zero
    feec:	00000021 	move	zero,zero
    fef0:	00000021 	move	zero,zero
    fef4:	00000021 	move	zero,zero
    fef8:	00000021 	move	zero,zero
    fefc:	3c08bdc5 	lui	t0,0xbdc5
    ff00:	35081fde 	ori	t0,t0,0x1fde
    ff04:	0511ffed 	bgezal	t0,febc <n36_bgezal_test+0xfebc>
    ff08:	00000000 	nop
    ff0c:	10000013 	b	ff5c <n36_bgezal_test+0xff5c>
    ff10:	00000000 	nop
    ff14:	00000000 	nop
    ff18:	00000021 	move	zero,zero
    ff1c:	00000021 	move	zero,zero
    ff20:	00000021 	move	zero,zero
    ff24:	00000021 	move	zero,zero
    ff28:	00000021 	move	zero,zero
    ff2c:	00000021 	move	zero,zero
    ff30:	00000021 	move	zero,zero
    ff34:	00000021 	move	zero,zero
    ff38:	00000021 	move	zero,zero
    ff3c:	00000021 	move	zero,zero
    ff40:	00000021 	move	zero,zero
    ff44:	00000021 	move	zero,zero
    ff48:	00000021 	move	zero,zero
    ff4c:	00000021 	move	zero,zero
    ff50:	00000021 	move	zero,zero
    ff54:	3c12cf80 	lui	s2,0xcf80
    ff58:	365214a7 	ori	s2,s2,0x14a7
    ff5c:	001fa021 	addu	s4,zero,ra
    ff60:	0015f821 	addu	ra,zero,s5
    ff64:	3c150001 	lui	s5,0x1
    ff68:	26b5fec4 	addiu	s5,s5,-316
    ff6c:	3c160001 	lui	s6,0x1
    ff70:	26d6ff04 	addiu	s6,s6,-252
    ff74:	24180000 	li	t8,0
    ff78:	16180799 	bne	s0,t8,11de0 <inst_error>
    ff7c:	00000000 	nop
    ff80:	00000000 	nop
    ff84:	24180000 	li	t8,0
    ff88:	16580795 	bne	s2,t8,11de0 <inst_error>
    ff8c:	00000000 	nop
    ff90:	00000000 	nop
    ff94:	3c19bfc0 	lui	t9,0xbfc0
    ff98:	37398790 	ori	t9,t9,0x8790
    ff9c:	3c18bfc0 	lui	t8,0xbfc0
    ffa0:	37188750 	ori	t8,t8,0x8750
    ffa4:	27180008 	addiu	t8,t8,8
    ffa8:	1319000a 	beq	t8,t9,ffd4 <n36_bgezal_test+0xffd4>
    ffac:	00000000 	nop
    ffb0:	00000000 	nop
    ffb4:	3c18bfc0 	lui	t8,0xbfc0
    ffb8:	37188788 	ori	t8,t8,0x8788
    ffbc:	27180008 	addiu	t8,t8,8
    ffc0:	1319000a 	beq	t8,t9,ffec <n36_bgezal_test+0xffec>
    ffc4:	00000000 	nop
    ffc8:	10000785 	b	11de0 <inst_error>
    ffcc:	00000000 	nop
    ffd0:	00000000 	nop
    ffd4:	26b50008 	addiu	s5,s5,8
    ffd8:	16950781 	bne	s4,s5,11de0 <inst_error>
    ffdc:	00000000 	nop
    ffe0:	10000006 	b	fffc <n36_bgezal_test+0xfffc>
    ffe4:	00000000 	nop
    ffe8:	00000000 	nop
    ffec:	26d60008 	addiu	s6,s6,8
    fff0:	1696077b 	bne	s4,s6,11de0 <inst_error>
    fff4:	00000000 	nop
	...
   10000:	001fa821 	addu	s5,zero,ra
   10004:	3c0c238a 	lui	t4,0x238a
   10008:	358cb968 	ori	t4,t4,0xb968
   1000c:	3c0de323 	lui	t5,0xe323
   10010:	35ad5e00 	ori	t5,t5,0x5e00
   10014:	24100000 	li	s0,0
   10018:	10000012 	b	10064 <n36_bgezal_test+0x10064>
   1001c:	24120000 	li	s2,0
   10020:	00000000 	nop
   10024:	3c10238a 	lui	s0,0x238a
   10028:	3610b968 	ori	s0,s0,0xb968
   1002c:	05110023 	bgezal	t0,100bc <n36_bgezal_test+0x100bc>
   10030:	00000000 	nop
   10034:	10000023 	b	100c4 <n36_bgezal_test+0x100c4>
   10038:	00000000 	nop
   1003c:	00000000 	nop
   10040:	00000021 	move	zero,zero
   10044:	00000021 	move	zero,zero
   10048:	00000021 	move	zero,zero
   1004c:	00000021 	move	zero,zero
   10050:	00000021 	move	zero,zero
   10054:	00000021 	move	zero,zero
   10058:	00000021 	move	zero,zero
   1005c:	00000021 	move	zero,zero
   10060:	00000021 	move	zero,zero
   10064:	3c085ba6 	lui	t0,0x5ba6
   10068:	35084bf2 	ori	t0,t0,0x4bf2
   1006c:	0511ffed 	bgezal	t0,10024 <n36_bgezal_test+0x10024>
   10070:	00000000 	nop
   10074:	10000013 	b	100c4 <n36_bgezal_test+0x100c4>
   10078:	00000000 	nop
   1007c:	00000000 	nop
   10080:	00000021 	move	zero,zero
   10084:	00000021 	move	zero,zero
   10088:	00000021 	move	zero,zero
   1008c:	00000021 	move	zero,zero
   10090:	00000021 	move	zero,zero
   10094:	00000021 	move	zero,zero
   10098:	00000021 	move	zero,zero
   1009c:	00000021 	move	zero,zero
   100a0:	00000021 	move	zero,zero
   100a4:	00000021 	move	zero,zero
   100a8:	00000021 	move	zero,zero
   100ac:	00000021 	move	zero,zero
   100b0:	00000021 	move	zero,zero
   100b4:	00000021 	move	zero,zero
   100b8:	00000021 	move	zero,zero
   100bc:	3c12e323 	lui	s2,0xe323
   100c0:	36525e00 	ori	s2,s2,0x5e00
   100c4:	001fa021 	addu	s4,zero,ra
   100c8:	0015f821 	addu	ra,zero,s5
   100cc:	3c150001 	lui	s5,0x1
   100d0:	26b5002c 	addiu	s5,s5,44
   100d4:	3c160001 	lui	s6,0x1
   100d8:	26d6006c 	addiu	s6,s6,108
   100dc:	3c18238a 	lui	t8,0x238a
   100e0:	3718b968 	ori	t8,t8,0xb968
   100e4:	1618073e 	bne	s0,t8,11de0 <inst_error>
   100e8:	00000000 	nop
   100ec:	00000000 	nop
   100f0:	3c18e323 	lui	t8,0xe323
   100f4:	37185e00 	ori	t8,t8,0x5e00
   100f8:	16580739 	bne	s2,t8,11de0 <inst_error>
   100fc:	00000000 	nop
   10100:	00000000 	nop
   10104:	3c19bfc0 	lui	t9,0xbfc0
   10108:	37398814 	ori	t9,t9,0x8814
   1010c:	3c18bfc0 	lui	t8,0xbfc0
   10110:	3718880c 	ori	t8,t8,0x880c
   10114:	27180008 	addiu	t8,t8,8
   10118:	1319000a 	beq	t8,t9,10144 <n36_bgezal_test+0x10144>
   1011c:	00000000 	nop
   10120:	00000000 	nop
   10124:	3c18bfc0 	lui	t8,0xbfc0
   10128:	37188844 	ori	t8,t8,0x8844
   1012c:	27180008 	addiu	t8,t8,8
   10130:	1319000a 	beq	t8,t9,1015c <n36_bgezal_test+0x1015c>
   10134:	00000000 	nop
   10138:	10000729 	b	11de0 <inst_error>
   1013c:	00000000 	nop
   10140:	00000000 	nop
   10144:	26b50008 	addiu	s5,s5,8
   10148:	16950725 	bne	s4,s5,11de0 <inst_error>
   1014c:	00000000 	nop
   10150:	10000006 	b	1016c <n36_bgezal_test+0x1016c>
   10154:	00000000 	nop
   10158:	00000000 	nop
   1015c:	26d60008 	addiu	s6,s6,8
   10160:	1696071f 	bne	s4,s6,11de0 <inst_error>
   10164:	00000000 	nop
	...
   10170:	001fa821 	addu	s5,zero,ra
   10174:	3c0cd2de 	lui	t4,0xd2de
   10178:	358c3c44 	ori	t4,t4,0x3c44
   1017c:	3c0d4775 	lui	t5,0x4775
   10180:	35ad39a5 	ori	t5,t5,0x39a5
   10184:	24100000 	li	s0,0
   10188:	10000012 	b	101d4 <n36_bgezal_test+0x101d4>
   1018c:	24120000 	li	s2,0
   10190:	00000000 	nop
   10194:	3c10d2de 	lui	s0,0xd2de
   10198:	36103c44 	ori	s0,s0,0x3c44
   1019c:	05110023 	bgezal	t0,1022c <n36_bgezal_test+0x1022c>
   101a0:	00000000 	nop
   101a4:	10000023 	b	10234 <n36_bgezal_test+0x10234>
   101a8:	00000000 	nop
   101ac:	00000000 	nop
   101b0:	00000021 	move	zero,zero
   101b4:	00000021 	move	zero,zero
   101b8:	00000021 	move	zero,zero
   101bc:	00000021 	move	zero,zero
   101c0:	00000021 	move	zero,zero
   101c4:	00000021 	move	zero,zero
   101c8:	00000021 	move	zero,zero
   101cc:	00000021 	move	zero,zero
   101d0:	00000021 	move	zero,zero
   101d4:	3c08d7e5 	lui	t0,0xd7e5
   101d8:	3508a6ce 	ori	t0,t0,0xa6ce
   101dc:	0511ffed 	bgezal	t0,10194 <n36_bgezal_test+0x10194>
   101e0:	00000000 	nop
   101e4:	10000013 	b	10234 <n36_bgezal_test+0x10234>
   101e8:	00000000 	nop
   101ec:	00000000 	nop
   101f0:	00000021 	move	zero,zero
   101f4:	00000021 	move	zero,zero
   101f8:	00000021 	move	zero,zero
   101fc:	00000021 	move	zero,zero
   10200:	00000021 	move	zero,zero
   10204:	00000021 	move	zero,zero
   10208:	00000021 	move	zero,zero
   1020c:	00000021 	move	zero,zero
   10210:	00000021 	move	zero,zero
   10214:	00000021 	move	zero,zero
   10218:	00000021 	move	zero,zero
   1021c:	00000021 	move	zero,zero
   10220:	00000021 	move	zero,zero
   10224:	00000021 	move	zero,zero
   10228:	00000021 	move	zero,zero
   1022c:	3c124775 	lui	s2,0x4775
   10230:	365239a5 	ori	s2,s2,0x39a5
   10234:	001fa021 	addu	s4,zero,ra
   10238:	0015f821 	addu	ra,zero,s5
   1023c:	3c150001 	lui	s5,0x1
   10240:	26b5019c 	addiu	s5,s5,412
   10244:	3c160001 	lui	s6,0x1
   10248:	26d601dc 	addiu	s6,s6,476
   1024c:	24180000 	li	t8,0
   10250:	161806e3 	bne	s0,t8,11de0 <inst_error>
   10254:	00000000 	nop
   10258:	00000000 	nop
   1025c:	24180000 	li	t8,0
   10260:	165806df 	bne	s2,t8,11de0 <inst_error>
   10264:	00000000 	nop
   10268:	00000000 	nop
   1026c:	3c19bfc0 	lui	t9,0xbfc0
   10270:	37398908 	ori	t9,t9,0x8908
   10274:	3c18bfc0 	lui	t8,0xbfc0
   10278:	371888c8 	ori	t8,t8,0x88c8
   1027c:	27180008 	addiu	t8,t8,8
   10280:	1319000a 	beq	t8,t9,102ac <n36_bgezal_test+0x102ac>
   10284:	00000000 	nop
   10288:	00000000 	nop
   1028c:	3c18bfc0 	lui	t8,0xbfc0
   10290:	37188900 	ori	t8,t8,0x8900
   10294:	27180008 	addiu	t8,t8,8
   10298:	1319000a 	beq	t8,t9,102c4 <n36_bgezal_test+0x102c4>
   1029c:	00000000 	nop
   102a0:	100006cf 	b	11de0 <inst_error>
   102a4:	00000000 	nop
   102a8:	00000000 	nop
   102ac:	26b50008 	addiu	s5,s5,8
   102b0:	169506cb 	bne	s4,s5,11de0 <inst_error>
   102b4:	00000000 	nop
   102b8:	10000006 	b	102d4 <n36_bgezal_test+0x102d4>
   102bc:	00000000 	nop
   102c0:	00000000 	nop
   102c4:	26d60008 	addiu	s6,s6,8
   102c8:	169606c5 	bne	s4,s6,11de0 <inst_error>
   102cc:	00000000 	nop
	...
   102d8:	001fa821 	addu	s5,zero,ra
   102dc:	3c0c4e66 	lui	t4,0x4e66
   102e0:	358c1200 	ori	t4,t4,0x1200
   102e4:	3c0d7488 	lui	t5,0x7488
   102e8:	35ad3efc 	ori	t5,t5,0x3efc
   102ec:	24100000 	li	s0,0
   102f0:	10000012 	b	1033c <n36_bgezal_test+0x1033c>
   102f4:	24120000 	li	s2,0
   102f8:	00000000 	nop
   102fc:	3c104e66 	lui	s0,0x4e66
   10300:	36101200 	ori	s0,s0,0x1200
   10304:	05110023 	bgezal	t0,10394 <n36_bgezal_test+0x10394>
   10308:	00000000 	nop
   1030c:	10000023 	b	1039c <n36_bgezal_test+0x1039c>
   10310:	00000000 	nop
   10314:	00000000 	nop
   10318:	00000021 	move	zero,zero
   1031c:	00000021 	move	zero,zero
   10320:	00000021 	move	zero,zero
   10324:	00000021 	move	zero,zero
   10328:	00000021 	move	zero,zero
   1032c:	00000021 	move	zero,zero
   10330:	00000021 	move	zero,zero
   10334:	00000021 	move	zero,zero
   10338:	00000021 	move	zero,zero
   1033c:	3c084faa 	lui	t0,0x4faa
   10340:	35085480 	ori	t0,t0,0x5480
   10344:	0511ffed 	bgezal	t0,102fc <n36_bgezal_test+0x102fc>
   10348:	00000000 	nop
   1034c:	10000013 	b	1039c <n36_bgezal_test+0x1039c>
   10350:	00000000 	nop
   10354:	00000000 	nop
   10358:	00000021 	move	zero,zero
   1035c:	00000021 	move	zero,zero
   10360:	00000021 	move	zero,zero
   10364:	00000021 	move	zero,zero
   10368:	00000021 	move	zero,zero
   1036c:	00000021 	move	zero,zero
   10370:	00000021 	move	zero,zero
   10374:	00000021 	move	zero,zero
   10378:	00000021 	move	zero,zero
   1037c:	00000021 	move	zero,zero
   10380:	00000021 	move	zero,zero
   10384:	00000021 	move	zero,zero
   10388:	00000021 	move	zero,zero
   1038c:	00000021 	move	zero,zero
   10390:	00000021 	move	zero,zero
   10394:	3c127488 	lui	s2,0x7488
   10398:	36523efc 	ori	s2,s2,0x3efc
   1039c:	001fa021 	addu	s4,zero,ra
   103a0:	0015f821 	addu	ra,zero,s5
   103a4:	3c150001 	lui	s5,0x1
   103a8:	26b50304 	addiu	s5,s5,772
   103ac:	3c160001 	lui	s6,0x1
   103b0:	26d60344 	addiu	s6,s6,836
   103b4:	3c184e66 	lui	t8,0x4e66
   103b8:	37181200 	ori	t8,t8,0x1200
   103bc:	16180688 	bne	s0,t8,11de0 <inst_error>
   103c0:	00000000 	nop
   103c4:	00000000 	nop
   103c8:	3c187488 	lui	t8,0x7488
   103cc:	37183efc 	ori	t8,t8,0x3efc
   103d0:	16580683 	bne	s2,t8,11de0 <inst_error>
   103d4:	00000000 	nop
   103d8:	00000000 	nop
   103dc:	3c19bfc0 	lui	t9,0xbfc0
   103e0:	3739898c 	ori	t9,t9,0x898c
   103e4:	3c18bfc0 	lui	t8,0xbfc0
   103e8:	37188984 	ori	t8,t8,0x8984
   103ec:	27180008 	addiu	t8,t8,8
   103f0:	1319000a 	beq	t8,t9,1041c <n36_bgezal_test+0x1041c>
   103f4:	00000000 	nop
   103f8:	00000000 	nop
   103fc:	3c18bfc0 	lui	t8,0xbfc0
   10400:	371889bc 	ori	t8,t8,0x89bc
   10404:	27180008 	addiu	t8,t8,8
   10408:	1319000a 	beq	t8,t9,10434 <n36_bgezal_test+0x10434>
   1040c:	00000000 	nop
   10410:	10000673 	b	11de0 <inst_error>
   10414:	00000000 	nop
   10418:	00000000 	nop
   1041c:	26b50008 	addiu	s5,s5,8
   10420:	1695066f 	bne	s4,s5,11de0 <inst_error>
   10424:	00000000 	nop
   10428:	10000006 	b	10444 <n36_bgezal_test+0x10444>
   1042c:	00000000 	nop
   10430:	00000000 	nop
   10434:	26d60008 	addiu	s6,s6,8
   10438:	16960669 	bne	s4,s6,11de0 <inst_error>
   1043c:	00000000 	nop
	...
   10448:	001fa821 	addu	s5,zero,ra
   1044c:	3c0cc34a 	lui	t4,0xc34a
   10450:	358c99a0 	ori	t4,t4,0x99a0
   10454:	3c0d1e08 	lui	t5,0x1e08
   10458:	35ad30ef 	ori	t5,t5,0x30ef
   1045c:	24100000 	li	s0,0
   10460:	10000012 	b	104ac <n36_bgezal_test+0x104ac>
   10464:	24120000 	li	s2,0
   10468:	00000000 	nop
   1046c:	3c10c34a 	lui	s0,0xc34a
   10470:	361099a0 	ori	s0,s0,0x99a0
   10474:	05110023 	bgezal	t0,10504 <n36_bgezal_test+0x10504>
   10478:	00000000 	nop
   1047c:	10000023 	b	1050c <n36_bgezal_test+0x1050c>
   10480:	00000000 	nop
   10484:	00000000 	nop
   10488:	00000021 	move	zero,zero
   1048c:	00000021 	move	zero,zero
   10490:	00000021 	move	zero,zero
   10494:	00000021 	move	zero,zero
   10498:	00000021 	move	zero,zero
   1049c:	00000021 	move	zero,zero
   104a0:	00000021 	move	zero,zero
   104a4:	00000021 	move	zero,zero
   104a8:	00000021 	move	zero,zero
   104ac:	3c0844ba 	lui	t0,0x44ba
   104b0:	3508e210 	ori	t0,t0,0xe210
   104b4:	0511ffed 	bgezal	t0,1046c <n36_bgezal_test+0x1046c>
   104b8:	00000000 	nop
   104bc:	10000013 	b	1050c <n36_bgezal_test+0x1050c>
   104c0:	00000000 	nop
   104c4:	00000000 	nop
   104c8:	00000021 	move	zero,zero
   104cc:	00000021 	move	zero,zero
   104d0:	00000021 	move	zero,zero
   104d4:	00000021 	move	zero,zero
   104d8:	00000021 	move	zero,zero
   104dc:	00000021 	move	zero,zero
   104e0:	00000021 	move	zero,zero
   104e4:	00000021 	move	zero,zero
   104e8:	00000021 	move	zero,zero
   104ec:	00000021 	move	zero,zero
   104f0:	00000021 	move	zero,zero
   104f4:	00000021 	move	zero,zero
   104f8:	00000021 	move	zero,zero
   104fc:	00000021 	move	zero,zero
   10500:	00000021 	move	zero,zero
   10504:	3c121e08 	lui	s2,0x1e08
   10508:	365230ef 	ori	s2,s2,0x30ef
   1050c:	001fa021 	addu	s4,zero,ra
   10510:	0015f821 	addu	ra,zero,s5
   10514:	3c150001 	lui	s5,0x1
   10518:	26b50474 	addiu	s5,s5,1140
   1051c:	3c160001 	lui	s6,0x1
   10520:	26d604b4 	addiu	s6,s6,1204
   10524:	3c18c34a 	lui	t8,0xc34a
   10528:	371899a0 	ori	t8,t8,0x99a0
   1052c:	1618062c 	bne	s0,t8,11de0 <inst_error>
   10530:	00000000 	nop
   10534:	00000000 	nop
   10538:	3c181e08 	lui	t8,0x1e08
   1053c:	371830ef 	ori	t8,t8,0x30ef
   10540:	16580627 	bne	s2,t8,11de0 <inst_error>
   10544:	00000000 	nop
   10548:	00000000 	nop
   1054c:	3c19bfc0 	lui	t9,0xbfc0
   10550:	37398a48 	ori	t9,t9,0x8a48
   10554:	3c18bfc0 	lui	t8,0xbfc0
   10558:	37188a40 	ori	t8,t8,0x8a40
   1055c:	27180008 	addiu	t8,t8,8
   10560:	1319000a 	beq	t8,t9,1058c <n36_bgezal_test+0x1058c>
   10564:	00000000 	nop
   10568:	00000000 	nop
   1056c:	3c18bfc0 	lui	t8,0xbfc0
   10570:	37188a78 	ori	t8,t8,0x8a78
   10574:	27180008 	addiu	t8,t8,8
   10578:	1319000a 	beq	t8,t9,105a4 <n36_bgezal_test+0x105a4>
   1057c:	00000000 	nop
   10580:	10000617 	b	11de0 <inst_error>
   10584:	00000000 	nop
   10588:	00000000 	nop
   1058c:	26b50008 	addiu	s5,s5,8
   10590:	16950613 	bne	s4,s5,11de0 <inst_error>
   10594:	00000000 	nop
   10598:	10000006 	b	105b4 <n36_bgezal_test+0x105b4>
   1059c:	00000000 	nop
   105a0:	00000000 	nop
   105a4:	26d60008 	addiu	s6,s6,8
   105a8:	1696060d 	bne	s4,s6,11de0 <inst_error>
   105ac:	00000000 	nop
	...
   105b8:	001fa821 	addu	s5,zero,ra
   105bc:	3c0cb802 	lui	t4,0xb802
   105c0:	358c6130 	ori	t4,t4,0x6130
   105c4:	3c0dd3fb 	lui	t5,0xd3fb
   105c8:	35ad617c 	ori	t5,t5,0x617c
   105cc:	24100000 	li	s0,0
   105d0:	10000012 	b	1061c <n36_bgezal_test+0x1061c>
   105d4:	24120000 	li	s2,0
   105d8:	00000000 	nop
   105dc:	3c10b802 	lui	s0,0xb802
   105e0:	36106130 	ori	s0,s0,0x6130
   105e4:	05110023 	bgezal	t0,10674 <n36_bgezal_test+0x10674>
   105e8:	00000000 	nop
   105ec:	10000023 	b	1067c <n36_bgezal_test+0x1067c>
   105f0:	00000000 	nop
   105f4:	00000000 	nop
   105f8:	00000021 	move	zero,zero
   105fc:	00000021 	move	zero,zero
   10600:	00000021 	move	zero,zero
   10604:	00000021 	move	zero,zero
   10608:	00000021 	move	zero,zero
   1060c:	00000021 	move	zero,zero
   10610:	00000021 	move	zero,zero
   10614:	00000021 	move	zero,zero
   10618:	00000021 	move	zero,zero
   1061c:	3c0861e7 	lui	t0,0x61e7
   10620:	3508c0fd 	ori	t0,t0,0xc0fd
   10624:	0511ffed 	bgezal	t0,105dc <n36_bgezal_test+0x105dc>
   10628:	00000000 	nop
   1062c:	10000013 	b	1067c <n36_bgezal_test+0x1067c>
   10630:	00000000 	nop
   10634:	00000000 	nop
   10638:	00000021 	move	zero,zero
   1063c:	00000021 	move	zero,zero
   10640:	00000021 	move	zero,zero
   10644:	00000021 	move	zero,zero
   10648:	00000021 	move	zero,zero
   1064c:	00000021 	move	zero,zero
   10650:	00000021 	move	zero,zero
   10654:	00000021 	move	zero,zero
   10658:	00000021 	move	zero,zero
   1065c:	00000021 	move	zero,zero
   10660:	00000021 	move	zero,zero
   10664:	00000021 	move	zero,zero
   10668:	00000021 	move	zero,zero
   1066c:	00000021 	move	zero,zero
   10670:	00000021 	move	zero,zero
   10674:	3c12d3fb 	lui	s2,0xd3fb
   10678:	3652617c 	ori	s2,s2,0x617c
   1067c:	001fa021 	addu	s4,zero,ra
   10680:	0015f821 	addu	ra,zero,s5
   10684:	3c150001 	lui	s5,0x1
   10688:	26b505e4 	addiu	s5,s5,1508
   1068c:	3c160001 	lui	s6,0x1
   10690:	26d60624 	addiu	s6,s6,1572
   10694:	3c18b802 	lui	t8,0xb802
   10698:	37186130 	ori	t8,t8,0x6130
   1069c:	161805d0 	bne	s0,t8,11de0 <inst_error>
   106a0:	00000000 	nop
   106a4:	00000000 	nop
   106a8:	3c18d3fb 	lui	t8,0xd3fb
   106ac:	3718617c 	ori	t8,t8,0x617c
   106b0:	165805cb 	bne	s2,t8,11de0 <inst_error>
   106b4:	00000000 	nop
   106b8:	00000000 	nop
   106bc:	3c19bfc0 	lui	t9,0xbfc0
   106c0:	37398b04 	ori	t9,t9,0x8b04
   106c4:	3c18bfc0 	lui	t8,0xbfc0
   106c8:	37188afc 	ori	t8,t8,0x8afc
   106cc:	27180008 	addiu	t8,t8,8
   106d0:	1319000a 	beq	t8,t9,106fc <n36_bgezal_test+0x106fc>
   106d4:	00000000 	nop
   106d8:	00000000 	nop
   106dc:	3c18bfc0 	lui	t8,0xbfc0
   106e0:	37188b34 	ori	t8,t8,0x8b34
   106e4:	27180008 	addiu	t8,t8,8
   106e8:	1319000a 	beq	t8,t9,10714 <n36_bgezal_test+0x10714>
   106ec:	00000000 	nop
   106f0:	100005bb 	b	11de0 <inst_error>
   106f4:	00000000 	nop
   106f8:	00000000 	nop
   106fc:	26b50008 	addiu	s5,s5,8
   10700:	169505b7 	bne	s4,s5,11de0 <inst_error>
   10704:	00000000 	nop
   10708:	10000006 	b	10724 <n36_bgezal_test+0x10724>
   1070c:	00000000 	nop
   10710:	00000000 	nop
   10714:	26d60008 	addiu	s6,s6,8
   10718:	169605b1 	bne	s4,s6,11de0 <inst_error>
   1071c:	00000000 	nop
	...
   10728:	001fa821 	addu	s5,zero,ra
   1072c:	3c0c9021 	lui	t4,0x9021
   10730:	358c6418 	ori	t4,t4,0x6418
   10734:	3c0d5b65 	lui	t5,0x5b65
   10738:	35adccfc 	ori	t5,t5,0xccfc
   1073c:	24100000 	li	s0,0
   10740:	10000012 	b	1078c <n36_bgezal_test+0x1078c>
   10744:	24120000 	li	s2,0
   10748:	00000000 	nop
   1074c:	3c109021 	lui	s0,0x9021
   10750:	36106418 	ori	s0,s0,0x6418
   10754:	05110023 	bgezal	t0,107e4 <n36_bgezal_test+0x107e4>
   10758:	00000000 	nop
   1075c:	10000023 	b	107ec <n36_bgezal_test+0x107ec>
   10760:	00000000 	nop
   10764:	00000000 	nop
   10768:	00000021 	move	zero,zero
   1076c:	00000021 	move	zero,zero
   10770:	00000021 	move	zero,zero
   10774:	00000021 	move	zero,zero
   10778:	00000021 	move	zero,zero
   1077c:	00000021 	move	zero,zero
   10780:	00000021 	move	zero,zero
   10784:	00000021 	move	zero,zero
   10788:	00000021 	move	zero,zero
   1078c:	3c08180e 	lui	t0,0x180e
   10790:	35083fdc 	ori	t0,t0,0x3fdc
   10794:	0511ffed 	bgezal	t0,1074c <n36_bgezal_test+0x1074c>
   10798:	00000000 	nop
   1079c:	10000013 	b	107ec <n36_bgezal_test+0x107ec>
   107a0:	00000000 	nop
   107a4:	00000000 	nop
   107a8:	00000021 	move	zero,zero
   107ac:	00000021 	move	zero,zero
   107b0:	00000021 	move	zero,zero
   107b4:	00000021 	move	zero,zero
   107b8:	00000021 	move	zero,zero
   107bc:	00000021 	move	zero,zero
   107c0:	00000021 	move	zero,zero
   107c4:	00000021 	move	zero,zero
   107c8:	00000021 	move	zero,zero
   107cc:	00000021 	move	zero,zero
   107d0:	00000021 	move	zero,zero
   107d4:	00000021 	move	zero,zero
   107d8:	00000021 	move	zero,zero
   107dc:	00000021 	move	zero,zero
   107e0:	00000021 	move	zero,zero
   107e4:	3c125b65 	lui	s2,0x5b65
   107e8:	3652ccfc 	ori	s2,s2,0xccfc
   107ec:	001fa021 	addu	s4,zero,ra
   107f0:	0015f821 	addu	ra,zero,s5
   107f4:	3c150001 	lui	s5,0x1
   107f8:	26b50754 	addiu	s5,s5,1876
   107fc:	3c160001 	lui	s6,0x1
   10800:	26d60794 	addiu	s6,s6,1940
   10804:	3c189021 	lui	t8,0x9021
   10808:	37186418 	ori	t8,t8,0x6418
   1080c:	16180574 	bne	s0,t8,11de0 <inst_error>
   10810:	00000000 	nop
   10814:	00000000 	nop
   10818:	3c185b65 	lui	t8,0x5b65
   1081c:	3718ccfc 	ori	t8,t8,0xccfc
   10820:	1658056f 	bne	s2,t8,11de0 <inst_error>
   10824:	00000000 	nop
   10828:	00000000 	nop
   1082c:	3c19bfc0 	lui	t9,0xbfc0
   10830:	37398bc0 	ori	t9,t9,0x8bc0
   10834:	3c18bfc0 	lui	t8,0xbfc0
   10838:	37188bb8 	ori	t8,t8,0x8bb8
   1083c:	27180008 	addiu	t8,t8,8
   10840:	1319000a 	beq	t8,t9,1086c <n36_bgezal_test+0x1086c>
   10844:	00000000 	nop
   10848:	00000000 	nop
   1084c:	3c18bfc0 	lui	t8,0xbfc0
   10850:	37188bf0 	ori	t8,t8,0x8bf0
   10854:	27180008 	addiu	t8,t8,8
   10858:	1319000a 	beq	t8,t9,10884 <n36_bgezal_test+0x10884>
   1085c:	00000000 	nop
   10860:	1000055f 	b	11de0 <inst_error>
   10864:	00000000 	nop
   10868:	00000000 	nop
   1086c:	26b50008 	addiu	s5,s5,8
   10870:	1695055b 	bne	s4,s5,11de0 <inst_error>
   10874:	00000000 	nop
   10878:	10000006 	b	10894 <n36_bgezal_test+0x10894>
   1087c:	00000000 	nop
   10880:	00000000 	nop
   10884:	26d60008 	addiu	s6,s6,8
   10888:	16960555 	bne	s4,s6,11de0 <inst_error>
   1088c:	00000000 	nop
	...
   10898:	001fa821 	addu	s5,zero,ra
   1089c:	3c0cc221 	lui	t4,0xc221
   108a0:	358c096a 	ori	t4,t4,0x96a
   108a4:	3c0dec0f 	lui	t5,0xec0f
   108a8:	35adec6c 	ori	t5,t5,0xec6c
   108ac:	24100000 	li	s0,0
   108b0:	10000012 	b	108fc <n36_bgezal_test+0x108fc>
   108b4:	24120000 	li	s2,0
   108b8:	00000000 	nop
   108bc:	3c10c221 	lui	s0,0xc221
   108c0:	3610096a 	ori	s0,s0,0x96a
   108c4:	05110023 	bgezal	t0,10954 <n36_bgezal_test+0x10954>
   108c8:	00000000 	nop
   108cc:	10000023 	b	1095c <n36_bgezal_test+0x1095c>
   108d0:	00000000 	nop
   108d4:	00000000 	nop
   108d8:	00000021 	move	zero,zero
   108dc:	00000021 	move	zero,zero
   108e0:	00000021 	move	zero,zero
   108e4:	00000021 	move	zero,zero
   108e8:	00000021 	move	zero,zero
   108ec:	00000021 	move	zero,zero
   108f0:	00000021 	move	zero,zero
   108f4:	00000021 	move	zero,zero
   108f8:	00000021 	move	zero,zero
   108fc:	3c08f51d 	lui	t0,0xf51d
   10900:	35084eae 	ori	t0,t0,0x4eae
   10904:	0511ffed 	bgezal	t0,108bc <n36_bgezal_test+0x108bc>
   10908:	00000000 	nop
   1090c:	10000013 	b	1095c <n36_bgezal_test+0x1095c>
   10910:	00000000 	nop
   10914:	00000000 	nop
   10918:	00000021 	move	zero,zero
   1091c:	00000021 	move	zero,zero
   10920:	00000021 	move	zero,zero
   10924:	00000021 	move	zero,zero
   10928:	00000021 	move	zero,zero
   1092c:	00000021 	move	zero,zero
   10930:	00000021 	move	zero,zero
   10934:	00000021 	move	zero,zero
   10938:	00000021 	move	zero,zero
   1093c:	00000021 	move	zero,zero
   10940:	00000021 	move	zero,zero
   10944:	00000021 	move	zero,zero
   10948:	00000021 	move	zero,zero
   1094c:	00000021 	move	zero,zero
   10950:	00000021 	move	zero,zero
   10954:	3c12ec0f 	lui	s2,0xec0f
   10958:	3652ec6c 	ori	s2,s2,0xec6c
   1095c:	001fa021 	addu	s4,zero,ra
   10960:	0015f821 	addu	ra,zero,s5
   10964:	3c150001 	lui	s5,0x1
   10968:	26b508c4 	addiu	s5,s5,2244
   1096c:	3c160001 	lui	s6,0x1
   10970:	26d60904 	addiu	s6,s6,2308
   10974:	24180000 	li	t8,0
   10978:	16180519 	bne	s0,t8,11de0 <inst_error>
   1097c:	00000000 	nop
   10980:	00000000 	nop
   10984:	24180000 	li	t8,0
   10988:	16580515 	bne	s2,t8,11de0 <inst_error>
   1098c:	00000000 	nop
   10990:	00000000 	nop
   10994:	3c19bfc0 	lui	t9,0xbfc0
   10998:	37398cb4 	ori	t9,t9,0x8cb4
   1099c:	3c18bfc0 	lui	t8,0xbfc0
   109a0:	37188c74 	ori	t8,t8,0x8c74
   109a4:	27180008 	addiu	t8,t8,8
   109a8:	1319000a 	beq	t8,t9,109d4 <n36_bgezal_test+0x109d4>
   109ac:	00000000 	nop
   109b0:	00000000 	nop
   109b4:	3c18bfc0 	lui	t8,0xbfc0
   109b8:	37188cac 	ori	t8,t8,0x8cac
   109bc:	27180008 	addiu	t8,t8,8
   109c0:	1319000a 	beq	t8,t9,109ec <n36_bgezal_test+0x109ec>
   109c4:	00000000 	nop
   109c8:	10000505 	b	11de0 <inst_error>
   109cc:	00000000 	nop
   109d0:	00000000 	nop
   109d4:	26b50008 	addiu	s5,s5,8
   109d8:	16950501 	bne	s4,s5,11de0 <inst_error>
   109dc:	00000000 	nop
   109e0:	10000006 	b	109fc <n36_bgezal_test+0x109fc>
   109e4:	00000000 	nop
   109e8:	00000000 	nop
   109ec:	26d60008 	addiu	s6,s6,8
   109f0:	169604fb 	bne	s4,s6,11de0 <inst_error>
   109f4:	00000000 	nop
	...
   10a00:	001fa821 	addu	s5,zero,ra
   10a04:	3c0c76e7 	lui	t4,0x76e7
   10a08:	358c6d08 	ori	t4,t4,0x6d08
   10a0c:	3c0d4216 	lui	t5,0x4216
   10a10:	35adc340 	ori	t5,t5,0xc340
   10a14:	24100000 	li	s0,0
   10a18:	10000012 	b	10a64 <n36_bgezal_test+0x10a64>
   10a1c:	24120000 	li	s2,0
   10a20:	00000000 	nop
   10a24:	3c1076e7 	lui	s0,0x76e7
   10a28:	36106d08 	ori	s0,s0,0x6d08
   10a2c:	05110023 	bgezal	t0,10abc <n36_bgezal_test+0x10abc>
   10a30:	00000000 	nop
   10a34:	10000023 	b	10ac4 <n36_bgezal_test+0x10ac4>
   10a38:	00000000 	nop
   10a3c:	00000000 	nop
   10a40:	00000021 	move	zero,zero
   10a44:	00000021 	move	zero,zero
   10a48:	00000021 	move	zero,zero
   10a4c:	00000021 	move	zero,zero
   10a50:	00000021 	move	zero,zero
   10a54:	00000021 	move	zero,zero
   10a58:	00000021 	move	zero,zero
   10a5c:	00000021 	move	zero,zero
   10a60:	00000021 	move	zero,zero
   10a64:	3c08debf 	lui	t0,0xdebf
   10a68:	3508a252 	ori	t0,t0,0xa252
   10a6c:	0511ffed 	bgezal	t0,10a24 <n36_bgezal_test+0x10a24>
   10a70:	00000000 	nop
   10a74:	10000013 	b	10ac4 <n36_bgezal_test+0x10ac4>
   10a78:	00000000 	nop
   10a7c:	00000000 	nop
   10a80:	00000021 	move	zero,zero
   10a84:	00000021 	move	zero,zero
   10a88:	00000021 	move	zero,zero
   10a8c:	00000021 	move	zero,zero
   10a90:	00000021 	move	zero,zero
   10a94:	00000021 	move	zero,zero
   10a98:	00000021 	move	zero,zero
   10a9c:	00000021 	move	zero,zero
   10aa0:	00000021 	move	zero,zero
   10aa4:	00000021 	move	zero,zero
   10aa8:	00000021 	move	zero,zero
   10aac:	00000021 	move	zero,zero
   10ab0:	00000021 	move	zero,zero
   10ab4:	00000021 	move	zero,zero
   10ab8:	00000021 	move	zero,zero
   10abc:	3c124216 	lui	s2,0x4216
   10ac0:	3652c340 	ori	s2,s2,0xc340
   10ac4:	001fa021 	addu	s4,zero,ra
   10ac8:	0015f821 	addu	ra,zero,s5
   10acc:	3c150001 	lui	s5,0x1
   10ad0:	26b50a2c 	addiu	s5,s5,2604
   10ad4:	3c160001 	lui	s6,0x1
   10ad8:	26d60a6c 	addiu	s6,s6,2668
   10adc:	24180000 	li	t8,0
   10ae0:	161804bf 	bne	s0,t8,11de0 <inst_error>
   10ae4:	00000000 	nop
   10ae8:	00000000 	nop
   10aec:	24180000 	li	t8,0
   10af0:	165804bb 	bne	s2,t8,11de0 <inst_error>
   10af4:	00000000 	nop
   10af8:	00000000 	nop
   10afc:	3c19bfc0 	lui	t9,0xbfc0
   10b00:	37398d70 	ori	t9,t9,0x8d70
   10b04:	3c18bfc0 	lui	t8,0xbfc0
   10b08:	37188d30 	ori	t8,t8,0x8d30
   10b0c:	27180008 	addiu	t8,t8,8
   10b10:	1319000a 	beq	t8,t9,10b3c <n36_bgezal_test+0x10b3c>
   10b14:	00000000 	nop
   10b18:	00000000 	nop
   10b1c:	3c18bfc0 	lui	t8,0xbfc0
   10b20:	37188d68 	ori	t8,t8,0x8d68
   10b24:	27180008 	addiu	t8,t8,8
   10b28:	1319000a 	beq	t8,t9,10b54 <n36_bgezal_test+0x10b54>
   10b2c:	00000000 	nop
   10b30:	100004ab 	b	11de0 <inst_error>
   10b34:	00000000 	nop
   10b38:	00000000 	nop
   10b3c:	26b50008 	addiu	s5,s5,8
   10b40:	169504a7 	bne	s4,s5,11de0 <inst_error>
   10b44:	00000000 	nop
   10b48:	10000006 	b	10b64 <n36_bgezal_test+0x10b64>
   10b4c:	00000000 	nop
   10b50:	00000000 	nop
   10b54:	26d60008 	addiu	s6,s6,8
   10b58:	169604a1 	bne	s4,s6,11de0 <inst_error>
   10b5c:	00000000 	nop
	...
   10b68:	001fa821 	addu	s5,zero,ra
   10b6c:	3c0c96de 	lui	t4,0x96de
   10b70:	358c4250 	ori	t4,t4,0x4250
   10b74:	3c0d7dd7 	lui	t5,0x7dd7
   10b78:	35adb2d0 	ori	t5,t5,0xb2d0
   10b7c:	24100000 	li	s0,0
   10b80:	10000012 	b	10bcc <n36_bgezal_test+0x10bcc>
   10b84:	24120000 	li	s2,0
   10b88:	00000000 	nop
   10b8c:	3c1096de 	lui	s0,0x96de
   10b90:	36104250 	ori	s0,s0,0x4250
   10b94:	05110023 	bgezal	t0,10c24 <n36_bgezal_test+0x10c24>
   10b98:	00000000 	nop
   10b9c:	10000023 	b	10c2c <n36_bgezal_test+0x10c2c>
   10ba0:	00000000 	nop
   10ba4:	00000000 	nop
   10ba8:	00000021 	move	zero,zero
   10bac:	00000021 	move	zero,zero
   10bb0:	00000021 	move	zero,zero
   10bb4:	00000021 	move	zero,zero
   10bb8:	00000021 	move	zero,zero
   10bbc:	00000021 	move	zero,zero
   10bc0:	00000021 	move	zero,zero
   10bc4:	00000021 	move	zero,zero
   10bc8:	00000021 	move	zero,zero
   10bcc:	3c08c80f 	lui	t0,0xc80f
   10bd0:	350806a0 	ori	t0,t0,0x6a0
   10bd4:	0511ffed 	bgezal	t0,10b8c <n36_bgezal_test+0x10b8c>
   10bd8:	00000000 	nop
   10bdc:	10000013 	b	10c2c <n36_bgezal_test+0x10c2c>
   10be0:	00000000 	nop
   10be4:	00000000 	nop
   10be8:	00000021 	move	zero,zero
   10bec:	00000021 	move	zero,zero
   10bf0:	00000021 	move	zero,zero
   10bf4:	00000021 	move	zero,zero
   10bf8:	00000021 	move	zero,zero
   10bfc:	00000021 	move	zero,zero
   10c00:	00000021 	move	zero,zero
   10c04:	00000021 	move	zero,zero
   10c08:	00000021 	move	zero,zero
   10c0c:	00000021 	move	zero,zero
   10c10:	00000021 	move	zero,zero
   10c14:	00000021 	move	zero,zero
   10c18:	00000021 	move	zero,zero
   10c1c:	00000021 	move	zero,zero
   10c20:	00000021 	move	zero,zero
   10c24:	3c127dd7 	lui	s2,0x7dd7
   10c28:	3652b2d0 	ori	s2,s2,0xb2d0
   10c2c:	001fa021 	addu	s4,zero,ra
   10c30:	0015f821 	addu	ra,zero,s5
   10c34:	3c150001 	lui	s5,0x1
   10c38:	26b50b94 	addiu	s5,s5,2964
   10c3c:	3c160001 	lui	s6,0x1
   10c40:	26d60bd4 	addiu	s6,s6,3028
   10c44:	24180000 	li	t8,0
   10c48:	16180465 	bne	s0,t8,11de0 <inst_error>
   10c4c:	00000000 	nop
   10c50:	00000000 	nop
   10c54:	24180000 	li	t8,0
   10c58:	16580461 	bne	s2,t8,11de0 <inst_error>
   10c5c:	00000000 	nop
   10c60:	00000000 	nop
   10c64:	3c19bfc0 	lui	t9,0xbfc0
   10c68:	37398e2c 	ori	t9,t9,0x8e2c
   10c6c:	3c18bfc0 	lui	t8,0xbfc0
   10c70:	37188dec 	ori	t8,t8,0x8dec
   10c74:	27180008 	addiu	t8,t8,8
   10c78:	1319000a 	beq	t8,t9,10ca4 <n36_bgezal_test+0x10ca4>
   10c7c:	00000000 	nop
   10c80:	00000000 	nop
   10c84:	3c18bfc0 	lui	t8,0xbfc0
   10c88:	37188e24 	ori	t8,t8,0x8e24
   10c8c:	27180008 	addiu	t8,t8,8
   10c90:	1319000a 	beq	t8,t9,10cbc <n36_bgezal_test+0x10cbc>
   10c94:	00000000 	nop
   10c98:	10000451 	b	11de0 <inst_error>
   10c9c:	00000000 	nop
   10ca0:	00000000 	nop
   10ca4:	26b50008 	addiu	s5,s5,8
   10ca8:	1695044d 	bne	s4,s5,11de0 <inst_error>
   10cac:	00000000 	nop
   10cb0:	10000006 	b	10ccc <n36_bgezal_test+0x10ccc>
   10cb4:	00000000 	nop
   10cb8:	00000000 	nop
   10cbc:	26d60008 	addiu	s6,s6,8
   10cc0:	16960447 	bne	s4,s6,11de0 <inst_error>
   10cc4:	00000000 	nop
	...
   10cd0:	001fa821 	addu	s5,zero,ra
   10cd4:	3c0c869e 	lui	t4,0x869e
   10cd8:	358c74b0 	ori	t4,t4,0x74b0
   10cdc:	3c0d9f65 	lui	t5,0x9f65
   10ce0:	35ad7c90 	ori	t5,t5,0x7c90
   10ce4:	24100000 	li	s0,0
   10ce8:	10000012 	b	10d34 <n36_bgezal_test+0x10d34>
   10cec:	24120000 	li	s2,0
   10cf0:	00000000 	nop
   10cf4:	3c10869e 	lui	s0,0x869e
   10cf8:	361074b0 	ori	s0,s0,0x74b0
   10cfc:	05110023 	bgezal	t0,10d8c <n36_bgezal_test+0x10d8c>
   10d00:	00000000 	nop
   10d04:	10000023 	b	10d94 <n36_bgezal_test+0x10d94>
   10d08:	00000000 	nop
   10d0c:	00000000 	nop
   10d10:	00000021 	move	zero,zero
   10d14:	00000021 	move	zero,zero
   10d18:	00000021 	move	zero,zero
   10d1c:	00000021 	move	zero,zero
   10d20:	00000021 	move	zero,zero
   10d24:	00000021 	move	zero,zero
   10d28:	00000021 	move	zero,zero
   10d2c:	00000021 	move	zero,zero
   10d30:	00000021 	move	zero,zero
   10d34:	3c08da25 	lui	t0,0xda25
   10d38:	3508c957 	ori	t0,t0,0xc957
   10d3c:	0511ffed 	bgezal	t0,10cf4 <n36_bgezal_test+0x10cf4>
   10d40:	00000000 	nop
   10d44:	10000013 	b	10d94 <n36_bgezal_test+0x10d94>
   10d48:	00000000 	nop
   10d4c:	00000000 	nop
   10d50:	00000021 	move	zero,zero
   10d54:	00000021 	move	zero,zero
   10d58:	00000021 	move	zero,zero
   10d5c:	00000021 	move	zero,zero
   10d60:	00000021 	move	zero,zero
   10d64:	00000021 	move	zero,zero
   10d68:	00000021 	move	zero,zero
   10d6c:	00000021 	move	zero,zero
   10d70:	00000021 	move	zero,zero
   10d74:	00000021 	move	zero,zero
   10d78:	00000021 	move	zero,zero
   10d7c:	00000021 	move	zero,zero
   10d80:	00000021 	move	zero,zero
   10d84:	00000021 	move	zero,zero
   10d88:	00000021 	move	zero,zero
   10d8c:	3c129f65 	lui	s2,0x9f65
   10d90:	36527c90 	ori	s2,s2,0x7c90
   10d94:	001fa021 	addu	s4,zero,ra
   10d98:	0015f821 	addu	ra,zero,s5
   10d9c:	3c150001 	lui	s5,0x1
   10da0:	26b50cfc 	addiu	s5,s5,3324
   10da4:	3c160001 	lui	s6,0x1
   10da8:	26d60d3c 	addiu	s6,s6,3388
   10dac:	24180000 	li	t8,0
   10db0:	1618040b 	bne	s0,t8,11de0 <inst_error>
   10db4:	00000000 	nop
   10db8:	00000000 	nop
   10dbc:	24180000 	li	t8,0
   10dc0:	16580407 	bne	s2,t8,11de0 <inst_error>
   10dc4:	00000000 	nop
   10dc8:	00000000 	nop
   10dcc:	3c19bfc0 	lui	t9,0xbfc0
   10dd0:	37398ee8 	ori	t9,t9,0x8ee8
   10dd4:	3c18bfc0 	lui	t8,0xbfc0
   10dd8:	37188ea8 	ori	t8,t8,0x8ea8
   10ddc:	27180008 	addiu	t8,t8,8
   10de0:	1319000a 	beq	t8,t9,10e0c <n36_bgezal_test+0x10e0c>
   10de4:	00000000 	nop
   10de8:	00000000 	nop
   10dec:	3c18bfc0 	lui	t8,0xbfc0
   10df0:	37188ee0 	ori	t8,t8,0x8ee0
   10df4:	27180008 	addiu	t8,t8,8
   10df8:	1319000a 	beq	t8,t9,10e24 <n36_bgezal_test+0x10e24>
   10dfc:	00000000 	nop
   10e00:	100003f7 	b	11de0 <inst_error>
   10e04:	00000000 	nop
   10e08:	00000000 	nop
   10e0c:	26b50008 	addiu	s5,s5,8
   10e10:	169503f3 	bne	s4,s5,11de0 <inst_error>
   10e14:	00000000 	nop
   10e18:	10000006 	b	10e34 <n36_bgezal_test+0x10e34>
   10e1c:	00000000 	nop
   10e20:	00000000 	nop
   10e24:	26d60008 	addiu	s6,s6,8
   10e28:	169603ed 	bne	s4,s6,11de0 <inst_error>
   10e2c:	00000000 	nop
	...
   10e38:	001fa821 	addu	s5,zero,ra
   10e3c:	3c0c7535 	lui	t4,0x7535
   10e40:	358c18e8 	ori	t4,t4,0x18e8
   10e44:	3c0dc36e 	lui	t5,0xc36e
   10e48:	35ad7a80 	ori	t5,t5,0x7a80
   10e4c:	24100000 	li	s0,0
   10e50:	10000012 	b	10e9c <n36_bgezal_test+0x10e9c>
   10e54:	24120000 	li	s2,0
   10e58:	00000000 	nop
   10e5c:	3c107535 	lui	s0,0x7535
   10e60:	361018e8 	ori	s0,s0,0x18e8
   10e64:	05110023 	bgezal	t0,10ef4 <n36_bgezal_test+0x10ef4>
   10e68:	00000000 	nop
   10e6c:	10000023 	b	10efc <n36_bgezal_test+0x10efc>
   10e70:	00000000 	nop
   10e74:	00000000 	nop
   10e78:	00000021 	move	zero,zero
   10e7c:	00000021 	move	zero,zero
   10e80:	00000021 	move	zero,zero
   10e84:	00000021 	move	zero,zero
   10e88:	00000021 	move	zero,zero
   10e8c:	00000021 	move	zero,zero
   10e90:	00000021 	move	zero,zero
   10e94:	00000021 	move	zero,zero
   10e98:	00000021 	move	zero,zero
   10e9c:	3c08e2c1 	lui	t0,0xe2c1
   10ea0:	35086e00 	ori	t0,t0,0x6e00
   10ea4:	0511ffed 	bgezal	t0,10e5c <n36_bgezal_test+0x10e5c>
   10ea8:	00000000 	nop
   10eac:	10000013 	b	10efc <n36_bgezal_test+0x10efc>
   10eb0:	00000000 	nop
   10eb4:	00000000 	nop
   10eb8:	00000021 	move	zero,zero
   10ebc:	00000021 	move	zero,zero
   10ec0:	00000021 	move	zero,zero
   10ec4:	00000021 	move	zero,zero
   10ec8:	00000021 	move	zero,zero
   10ecc:	00000021 	move	zero,zero
   10ed0:	00000021 	move	zero,zero
   10ed4:	00000021 	move	zero,zero
   10ed8:	00000021 	move	zero,zero
   10edc:	00000021 	move	zero,zero
   10ee0:	00000021 	move	zero,zero
   10ee4:	00000021 	move	zero,zero
   10ee8:	00000021 	move	zero,zero
   10eec:	00000021 	move	zero,zero
   10ef0:	00000021 	move	zero,zero
   10ef4:	3c12c36e 	lui	s2,0xc36e
   10ef8:	36527a80 	ori	s2,s2,0x7a80
   10efc:	001fa021 	addu	s4,zero,ra
   10f00:	0015f821 	addu	ra,zero,s5
   10f04:	3c150001 	lui	s5,0x1
   10f08:	26b50e64 	addiu	s5,s5,3684
   10f0c:	3c160001 	lui	s6,0x1
   10f10:	26d60ea4 	addiu	s6,s6,3748
   10f14:	24180000 	li	t8,0
   10f18:	161803b1 	bne	s0,t8,11de0 <inst_error>
   10f1c:	00000000 	nop
   10f20:	00000000 	nop
   10f24:	24180000 	li	t8,0
   10f28:	165803ad 	bne	s2,t8,11de0 <inst_error>
   10f2c:	00000000 	nop
   10f30:	00000000 	nop
   10f34:	3c19bfc0 	lui	t9,0xbfc0
   10f38:	37398fa4 	ori	t9,t9,0x8fa4
   10f3c:	3c18bfc0 	lui	t8,0xbfc0
   10f40:	37188f64 	ori	t8,t8,0x8f64
   10f44:	27180008 	addiu	t8,t8,8
   10f48:	1319000a 	beq	t8,t9,10f74 <n36_bgezal_test+0x10f74>
   10f4c:	00000000 	nop
   10f50:	00000000 	nop
   10f54:	3c18bfc0 	lui	t8,0xbfc0
   10f58:	37188f9c 	ori	t8,t8,0x8f9c
   10f5c:	27180008 	addiu	t8,t8,8
   10f60:	1319000a 	beq	t8,t9,10f8c <n36_bgezal_test+0x10f8c>
   10f64:	00000000 	nop
   10f68:	1000039d 	b	11de0 <inst_error>
   10f6c:	00000000 	nop
   10f70:	00000000 	nop
   10f74:	26b50008 	addiu	s5,s5,8
   10f78:	16950399 	bne	s4,s5,11de0 <inst_error>
   10f7c:	00000000 	nop
   10f80:	10000006 	b	10f9c <n36_bgezal_test+0x10f9c>
   10f84:	00000000 	nop
   10f88:	00000000 	nop
   10f8c:	26d60008 	addiu	s6,s6,8
   10f90:	16960393 	bne	s4,s6,11de0 <inst_error>
   10f94:	00000000 	nop
	...
   10fa0:	001fa821 	addu	s5,zero,ra
   10fa4:	3c0ceda6 	lui	t4,0xeda6
   10fa8:	358cf700 	ori	t4,t4,0xf700
   10fac:	3c0d023b 	lui	t5,0x23b
   10fb0:	35adb300 	ori	t5,t5,0xb300
   10fb4:	24100000 	li	s0,0
   10fb8:	10000012 	b	11004 <n36_bgezal_test+0x11004>
   10fbc:	24120000 	li	s2,0
   10fc0:	00000000 	nop
   10fc4:	3c10eda6 	lui	s0,0xeda6
   10fc8:	3610f700 	ori	s0,s0,0xf700
   10fcc:	05110023 	bgezal	t0,1105c <n36_bgezal_test+0x1105c>
   10fd0:	00000000 	nop
   10fd4:	10000023 	b	11064 <n36_bgezal_test+0x11064>
   10fd8:	00000000 	nop
   10fdc:	00000000 	nop
   10fe0:	00000021 	move	zero,zero
   10fe4:	00000021 	move	zero,zero
   10fe8:	00000021 	move	zero,zero
   10fec:	00000021 	move	zero,zero
   10ff0:	00000021 	move	zero,zero
   10ff4:	00000021 	move	zero,zero
   10ff8:	00000021 	move	zero,zero
   10ffc:	00000021 	move	zero,zero
   11000:	00000021 	move	zero,zero
   11004:	3c088493 	lui	t0,0x8493
   11008:	3508ac53 	ori	t0,t0,0xac53
   1100c:	0511ffed 	bgezal	t0,10fc4 <n36_bgezal_test+0x10fc4>
   11010:	00000000 	nop
   11014:	10000013 	b	11064 <n36_bgezal_test+0x11064>
   11018:	00000000 	nop
   1101c:	00000000 	nop
   11020:	00000021 	move	zero,zero
   11024:	00000021 	move	zero,zero
   11028:	00000021 	move	zero,zero
   1102c:	00000021 	move	zero,zero
   11030:	00000021 	move	zero,zero
   11034:	00000021 	move	zero,zero
   11038:	00000021 	move	zero,zero
   1103c:	00000021 	move	zero,zero
   11040:	00000021 	move	zero,zero
   11044:	00000021 	move	zero,zero
   11048:	00000021 	move	zero,zero
   1104c:	00000021 	move	zero,zero
   11050:	00000021 	move	zero,zero
   11054:	00000021 	move	zero,zero
   11058:	00000021 	move	zero,zero
   1105c:	3c12023b 	lui	s2,0x23b
   11060:	3652b300 	ori	s2,s2,0xb300
   11064:	001fa021 	addu	s4,zero,ra
   11068:	0015f821 	addu	ra,zero,s5
   1106c:	3c150001 	lui	s5,0x1
   11070:	26b50fcc 	addiu	s5,s5,4044
   11074:	3c160001 	lui	s6,0x1
   11078:	26d6100c 	addiu	s6,s6,4108
   1107c:	24180000 	li	t8,0
   11080:	16180357 	bne	s0,t8,11de0 <inst_error>
   11084:	00000000 	nop
   11088:	00000000 	nop
   1108c:	24180000 	li	t8,0
   11090:	16580353 	bne	s2,t8,11de0 <inst_error>
   11094:	00000000 	nop
   11098:	00000000 	nop
   1109c:	3c19bfc0 	lui	t9,0xbfc0
   110a0:	37399060 	ori	t9,t9,0x9060
   110a4:	3c18bfc0 	lui	t8,0xbfc0
   110a8:	37189020 	ori	t8,t8,0x9020
   110ac:	27180008 	addiu	t8,t8,8
   110b0:	1319000a 	beq	t8,t9,110dc <n36_bgezal_test+0x110dc>
   110b4:	00000000 	nop
   110b8:	00000000 	nop
   110bc:	3c18bfc0 	lui	t8,0xbfc0
   110c0:	37189058 	ori	t8,t8,0x9058
   110c4:	27180008 	addiu	t8,t8,8
   110c8:	1319000a 	beq	t8,t9,110f4 <n36_bgezal_test+0x110f4>
   110cc:	00000000 	nop
   110d0:	10000343 	b	11de0 <inst_error>
   110d4:	00000000 	nop
   110d8:	00000000 	nop
   110dc:	26b50008 	addiu	s5,s5,8
   110e0:	1695033f 	bne	s4,s5,11de0 <inst_error>
   110e4:	00000000 	nop
   110e8:	10000006 	b	11104 <n36_bgezal_test+0x11104>
   110ec:	00000000 	nop
   110f0:	00000000 	nop
   110f4:	26d60008 	addiu	s6,s6,8
   110f8:	16960339 	bne	s4,s6,11de0 <inst_error>
   110fc:	00000000 	nop
	...
   11108:	001fa821 	addu	s5,zero,ra
   1110c:	3c0c73e8 	lui	t4,0x73e8
   11110:	358cac0c 	ori	t4,t4,0xac0c
   11114:	3c0d5213 	lui	t5,0x5213
   11118:	35ad6032 	ori	t5,t5,0x6032
   1111c:	24100000 	li	s0,0
   11120:	10000012 	b	1116c <n36_bgezal_test+0x1116c>
   11124:	24120000 	li	s2,0
   11128:	00000000 	nop
   1112c:	3c1073e8 	lui	s0,0x73e8
   11130:	3610ac0c 	ori	s0,s0,0xac0c
   11134:	05110023 	bgezal	t0,111c4 <n36_bgezal_test+0x111c4>
   11138:	00000000 	nop
   1113c:	10000023 	b	111cc <n36_bgezal_test+0x111cc>
   11140:	00000000 	nop
   11144:	00000000 	nop
   11148:	00000021 	move	zero,zero
   1114c:	00000021 	move	zero,zero
   11150:	00000021 	move	zero,zero
   11154:	00000021 	move	zero,zero
   11158:	00000021 	move	zero,zero
   1115c:	00000021 	move	zero,zero
   11160:	00000021 	move	zero,zero
   11164:	00000021 	move	zero,zero
   11168:	00000021 	move	zero,zero
   1116c:	3c08ce17 	lui	t0,0xce17
   11170:	3508d056 	ori	t0,t0,0xd056
   11174:	0511ffed 	bgezal	t0,1112c <n36_bgezal_test+0x1112c>
   11178:	00000000 	nop
   1117c:	10000013 	b	111cc <n36_bgezal_test+0x111cc>
   11180:	00000000 	nop
   11184:	00000000 	nop
   11188:	00000021 	move	zero,zero
   1118c:	00000021 	move	zero,zero
   11190:	00000021 	move	zero,zero
   11194:	00000021 	move	zero,zero
   11198:	00000021 	move	zero,zero
   1119c:	00000021 	move	zero,zero
   111a0:	00000021 	move	zero,zero
   111a4:	00000021 	move	zero,zero
   111a8:	00000021 	move	zero,zero
   111ac:	00000021 	move	zero,zero
   111b0:	00000021 	move	zero,zero
   111b4:	00000021 	move	zero,zero
   111b8:	00000021 	move	zero,zero
   111bc:	00000021 	move	zero,zero
   111c0:	00000021 	move	zero,zero
   111c4:	3c125213 	lui	s2,0x5213
   111c8:	36526032 	ori	s2,s2,0x6032
   111cc:	001fa021 	addu	s4,zero,ra
   111d0:	0015f821 	addu	ra,zero,s5
   111d4:	3c150001 	lui	s5,0x1
   111d8:	26b51134 	addiu	s5,s5,4404
   111dc:	3c160001 	lui	s6,0x1
   111e0:	26d61174 	addiu	s6,s6,4468
   111e4:	24180000 	li	t8,0
   111e8:	161802fd 	bne	s0,t8,11de0 <inst_error>
   111ec:	00000000 	nop
   111f0:	00000000 	nop
   111f4:	24180000 	li	t8,0
   111f8:	165802f9 	bne	s2,t8,11de0 <inst_error>
   111fc:	00000000 	nop
   11200:	00000000 	nop
   11204:	3c19bfc0 	lui	t9,0xbfc0
   11208:	3739911c 	ori	t9,t9,0x911c
   1120c:	3c18bfc0 	lui	t8,0xbfc0
   11210:	371890dc 	ori	t8,t8,0x90dc
   11214:	27180008 	addiu	t8,t8,8
   11218:	1319000a 	beq	t8,t9,11244 <n36_bgezal_test+0x11244>
   1121c:	00000000 	nop
   11220:	00000000 	nop
   11224:	3c18bfc0 	lui	t8,0xbfc0
   11228:	37189114 	ori	t8,t8,0x9114
   1122c:	27180008 	addiu	t8,t8,8
   11230:	1319000a 	beq	t8,t9,1125c <n36_bgezal_test+0x1125c>
   11234:	00000000 	nop
   11238:	100002e9 	b	11de0 <inst_error>
   1123c:	00000000 	nop
   11240:	00000000 	nop
   11244:	26b50008 	addiu	s5,s5,8
   11248:	169502e5 	bne	s4,s5,11de0 <inst_error>
   1124c:	00000000 	nop
   11250:	10000006 	b	1126c <n36_bgezal_test+0x1126c>
   11254:	00000000 	nop
   11258:	00000000 	nop
   1125c:	26d60008 	addiu	s6,s6,8
   11260:	169602df 	bne	s4,s6,11de0 <inst_error>
   11264:	00000000 	nop
	...
   11270:	001fa821 	addu	s5,zero,ra
   11274:	3c0cd513 	lui	t4,0xd513
   11278:	358cfa00 	ori	t4,t4,0xfa00
   1127c:	3c0ded74 	lui	t5,0xed74
   11280:	35ad48b8 	ori	t5,t5,0x48b8
   11284:	24100000 	li	s0,0
   11288:	10000012 	b	112d4 <n36_bgezal_test+0x112d4>
   1128c:	24120000 	li	s2,0
   11290:	00000000 	nop
   11294:	3c10d513 	lui	s0,0xd513
   11298:	3610fa00 	ori	s0,s0,0xfa00
   1129c:	05110023 	bgezal	t0,1132c <n36_bgezal_test+0x1132c>
   112a0:	00000000 	nop
   112a4:	10000023 	b	11334 <n36_bgezal_test+0x11334>
   112a8:	00000000 	nop
   112ac:	00000000 	nop
   112b0:	00000021 	move	zero,zero
   112b4:	00000021 	move	zero,zero
   112b8:	00000021 	move	zero,zero
   112bc:	00000021 	move	zero,zero
   112c0:	00000021 	move	zero,zero
   112c4:	00000021 	move	zero,zero
   112c8:	00000021 	move	zero,zero
   112cc:	00000021 	move	zero,zero
   112d0:	00000021 	move	zero,zero
   112d4:	3c081732 	lui	t0,0x1732
   112d8:	3508bc45 	ori	t0,t0,0xbc45
   112dc:	0511ffed 	bgezal	t0,11294 <n36_bgezal_test+0x11294>
   112e0:	00000000 	nop
   112e4:	10000013 	b	11334 <n36_bgezal_test+0x11334>
   112e8:	00000000 	nop
   112ec:	00000000 	nop
   112f0:	00000021 	move	zero,zero
   112f4:	00000021 	move	zero,zero
   112f8:	00000021 	move	zero,zero
   112fc:	00000021 	move	zero,zero
   11300:	00000021 	move	zero,zero
   11304:	00000021 	move	zero,zero
   11308:	00000021 	move	zero,zero
   1130c:	00000021 	move	zero,zero
   11310:	00000021 	move	zero,zero
   11314:	00000021 	move	zero,zero
   11318:	00000021 	move	zero,zero
   1131c:	00000021 	move	zero,zero
   11320:	00000021 	move	zero,zero
   11324:	00000021 	move	zero,zero
   11328:	00000021 	move	zero,zero
   1132c:	3c12ed74 	lui	s2,0xed74
   11330:	365248b8 	ori	s2,s2,0x48b8
   11334:	001fa021 	addu	s4,zero,ra
   11338:	0015f821 	addu	ra,zero,s5
   1133c:	3c150001 	lui	s5,0x1
   11340:	26b5129c 	addiu	s5,s5,4764
   11344:	3c160001 	lui	s6,0x1
   11348:	26d612dc 	addiu	s6,s6,4828
   1134c:	3c18d513 	lui	t8,0xd513
   11350:	3718fa00 	ori	t8,t8,0xfa00
   11354:	161802a2 	bne	s0,t8,11de0 <inst_error>
   11358:	00000000 	nop
   1135c:	00000000 	nop
   11360:	3c18ed74 	lui	t8,0xed74
   11364:	371848b8 	ori	t8,t8,0x48b8
   11368:	1658029d 	bne	s2,t8,11de0 <inst_error>
   1136c:	00000000 	nop
   11370:	00000000 	nop
   11374:	3c19bfc0 	lui	t9,0xbfc0
   11378:	373991a0 	ori	t9,t9,0x91a0
   1137c:	3c18bfc0 	lui	t8,0xbfc0
   11380:	37189198 	ori	t8,t8,0x9198
   11384:	27180008 	addiu	t8,t8,8
   11388:	1319000a 	beq	t8,t9,113b4 <n36_bgezal_test+0x113b4>
   1138c:	00000000 	nop
   11390:	00000000 	nop
   11394:	3c18bfc0 	lui	t8,0xbfc0
   11398:	371891d0 	ori	t8,t8,0x91d0
   1139c:	27180008 	addiu	t8,t8,8
   113a0:	1319000a 	beq	t8,t9,113cc <n36_bgezal_test+0x113cc>
   113a4:	00000000 	nop
   113a8:	1000028d 	b	11de0 <inst_error>
   113ac:	00000000 	nop
   113b0:	00000000 	nop
   113b4:	26b50008 	addiu	s5,s5,8
   113b8:	16950289 	bne	s4,s5,11de0 <inst_error>
   113bc:	00000000 	nop
   113c0:	10000006 	b	113dc <n36_bgezal_test+0x113dc>
   113c4:	00000000 	nop
   113c8:	00000000 	nop
   113cc:	26d60008 	addiu	s6,s6,8
   113d0:	16960283 	bne	s4,s6,11de0 <inst_error>
   113d4:	00000000 	nop
	...
   113e0:	001fa821 	addu	s5,zero,ra
   113e4:	3c0c066a 	lui	t4,0x66a
   113e8:	358ca5c6 	ori	t4,t4,0xa5c6
   113ec:	3c0d0296 	lui	t5,0x296
   113f0:	35add70d 	ori	t5,t5,0xd70d
   113f4:	24100000 	li	s0,0
   113f8:	10000012 	b	11444 <n36_bgezal_test+0x11444>
   113fc:	24120000 	li	s2,0
   11400:	00000000 	nop
   11404:	3c10066a 	lui	s0,0x66a
   11408:	3610a5c6 	ori	s0,s0,0xa5c6
   1140c:	05110023 	bgezal	t0,1149c <n36_bgezal_test+0x1149c>
   11410:	00000000 	nop
   11414:	10000023 	b	114a4 <n36_bgezal_test+0x114a4>
   11418:	00000000 	nop
   1141c:	00000000 	nop
   11420:	00000021 	move	zero,zero
   11424:	00000021 	move	zero,zero
   11428:	00000021 	move	zero,zero
   1142c:	00000021 	move	zero,zero
   11430:	00000021 	move	zero,zero
   11434:	00000021 	move	zero,zero
   11438:	00000021 	move	zero,zero
   1143c:	00000021 	move	zero,zero
   11440:	00000021 	move	zero,zero
   11444:	3c081798 	lui	t0,0x1798
   11448:	350839ac 	ori	t0,t0,0x39ac
   1144c:	0511ffed 	bgezal	t0,11404 <n36_bgezal_test+0x11404>
   11450:	00000000 	nop
   11454:	10000013 	b	114a4 <n36_bgezal_test+0x114a4>
   11458:	00000000 	nop
   1145c:	00000000 	nop
   11460:	00000021 	move	zero,zero
   11464:	00000021 	move	zero,zero
   11468:	00000021 	move	zero,zero
   1146c:	00000021 	move	zero,zero
   11470:	00000021 	move	zero,zero
   11474:	00000021 	move	zero,zero
   11478:	00000021 	move	zero,zero
   1147c:	00000021 	move	zero,zero
   11480:	00000021 	move	zero,zero
   11484:	00000021 	move	zero,zero
   11488:	00000021 	move	zero,zero
   1148c:	00000021 	move	zero,zero
   11490:	00000021 	move	zero,zero
   11494:	00000021 	move	zero,zero
   11498:	00000021 	move	zero,zero
   1149c:	3c120296 	lui	s2,0x296
   114a0:	3652d70d 	ori	s2,s2,0xd70d
   114a4:	001fa021 	addu	s4,zero,ra
   114a8:	0015f821 	addu	ra,zero,s5
   114ac:	3c150001 	lui	s5,0x1
   114b0:	26b5140c 	addiu	s5,s5,5132
   114b4:	3c160001 	lui	s6,0x1
   114b8:	26d6144c 	addiu	s6,s6,5196
   114bc:	3c18066a 	lui	t8,0x66a
   114c0:	3718a5c6 	ori	t8,t8,0xa5c6
   114c4:	16180246 	bne	s0,t8,11de0 <inst_error>
   114c8:	00000000 	nop
   114cc:	00000000 	nop
   114d0:	3c180296 	lui	t8,0x296
   114d4:	3718d70d 	ori	t8,t8,0xd70d
   114d8:	16580241 	bne	s2,t8,11de0 <inst_error>
   114dc:	00000000 	nop
   114e0:	00000000 	nop
   114e4:	3c19bfc0 	lui	t9,0xbfc0
   114e8:	3739925c 	ori	t9,t9,0x925c
   114ec:	3c18bfc0 	lui	t8,0xbfc0
   114f0:	37189254 	ori	t8,t8,0x9254
   114f4:	27180008 	addiu	t8,t8,8
   114f8:	1319000a 	beq	t8,t9,11524 <n36_bgezal_test+0x11524>
   114fc:	00000000 	nop
   11500:	00000000 	nop
   11504:	3c18bfc0 	lui	t8,0xbfc0
   11508:	3718928c 	ori	t8,t8,0x928c
   1150c:	27180008 	addiu	t8,t8,8
   11510:	1319000a 	beq	t8,t9,1153c <n36_bgezal_test+0x1153c>
   11514:	00000000 	nop
   11518:	10000231 	b	11de0 <inst_error>
   1151c:	00000000 	nop
   11520:	00000000 	nop
   11524:	26b50008 	addiu	s5,s5,8
   11528:	1695022d 	bne	s4,s5,11de0 <inst_error>
   1152c:	00000000 	nop
   11530:	10000006 	b	1154c <n36_bgezal_test+0x1154c>
   11534:	00000000 	nop
   11538:	00000000 	nop
   1153c:	26d60008 	addiu	s6,s6,8
   11540:	16960227 	bne	s4,s6,11de0 <inst_error>
   11544:	00000000 	nop
	...
   11550:	001fa821 	addu	s5,zero,ra
   11554:	3c0ccb26 	lui	t4,0xcb26
   11558:	358cec57 	ori	t4,t4,0xec57
   1155c:	3c0d1633 	lui	t5,0x1633
   11560:	35adf6be 	ori	t5,t5,0xf6be
   11564:	24100000 	li	s0,0
   11568:	10000012 	b	115b4 <n36_bgezal_test+0x115b4>
   1156c:	24120000 	li	s2,0
   11570:	00000000 	nop
   11574:	3c10cb26 	lui	s0,0xcb26
   11578:	3610ec57 	ori	s0,s0,0xec57
   1157c:	05110023 	bgezal	t0,1160c <n36_bgezal_test+0x1160c>
   11580:	00000000 	nop
   11584:	10000023 	b	11614 <n36_bgezal_test+0x11614>
   11588:	00000000 	nop
   1158c:	00000000 	nop
   11590:	00000021 	move	zero,zero
   11594:	00000021 	move	zero,zero
   11598:	00000021 	move	zero,zero
   1159c:	00000021 	move	zero,zero
   115a0:	00000021 	move	zero,zero
   115a4:	00000021 	move	zero,zero
   115a8:	00000021 	move	zero,zero
   115ac:	00000021 	move	zero,zero
   115b0:	00000021 	move	zero,zero
   115b4:	3c08221b 	lui	t0,0x221b
   115b8:	350814f9 	ori	t0,t0,0x14f9
   115bc:	0511ffed 	bgezal	t0,11574 <n36_bgezal_test+0x11574>
   115c0:	00000000 	nop
   115c4:	10000013 	b	11614 <n36_bgezal_test+0x11614>
   115c8:	00000000 	nop
   115cc:	00000000 	nop
   115d0:	00000021 	move	zero,zero
   115d4:	00000021 	move	zero,zero
   115d8:	00000021 	move	zero,zero
   115dc:	00000021 	move	zero,zero
   115e0:	00000021 	move	zero,zero
   115e4:	00000021 	move	zero,zero
   115e8:	00000021 	move	zero,zero
   115ec:	00000021 	move	zero,zero
   115f0:	00000021 	move	zero,zero
   115f4:	00000021 	move	zero,zero
   115f8:	00000021 	move	zero,zero
   115fc:	00000021 	move	zero,zero
   11600:	00000021 	move	zero,zero
   11604:	00000021 	move	zero,zero
   11608:	00000021 	move	zero,zero
   1160c:	3c121633 	lui	s2,0x1633
   11610:	3652f6be 	ori	s2,s2,0xf6be
   11614:	001fa021 	addu	s4,zero,ra
   11618:	0015f821 	addu	ra,zero,s5
   1161c:	3c150001 	lui	s5,0x1
   11620:	26b5157c 	addiu	s5,s5,5500
   11624:	3c160001 	lui	s6,0x1
   11628:	26d615bc 	addiu	s6,s6,5564
   1162c:	3c18cb26 	lui	t8,0xcb26
   11630:	3718ec57 	ori	t8,t8,0xec57
   11634:	161801ea 	bne	s0,t8,11de0 <inst_error>
   11638:	00000000 	nop
   1163c:	00000000 	nop
   11640:	3c181633 	lui	t8,0x1633
   11644:	3718f6be 	ori	t8,t8,0xf6be
   11648:	165801e5 	bne	s2,t8,11de0 <inst_error>
   1164c:	00000000 	nop
   11650:	00000000 	nop
   11654:	3c19bfc0 	lui	t9,0xbfc0
   11658:	37399318 	ori	t9,t9,0x9318
   1165c:	3c18bfc0 	lui	t8,0xbfc0
   11660:	37189310 	ori	t8,t8,0x9310
   11664:	27180008 	addiu	t8,t8,8
   11668:	1319000a 	beq	t8,t9,11694 <n36_bgezal_test+0x11694>
   1166c:	00000000 	nop
   11670:	00000000 	nop
   11674:	3c18bfc0 	lui	t8,0xbfc0
   11678:	37189348 	ori	t8,t8,0x9348
   1167c:	27180008 	addiu	t8,t8,8
   11680:	1319000a 	beq	t8,t9,116ac <n36_bgezal_test+0x116ac>
   11684:	00000000 	nop
   11688:	100001d5 	b	11de0 <inst_error>
   1168c:	00000000 	nop
   11690:	00000000 	nop
   11694:	26b50008 	addiu	s5,s5,8
   11698:	169501d1 	bne	s4,s5,11de0 <inst_error>
   1169c:	00000000 	nop
   116a0:	10000006 	b	116bc <n36_bgezal_test+0x116bc>
   116a4:	00000000 	nop
   116a8:	00000000 	nop
   116ac:	26d60008 	addiu	s6,s6,8
   116b0:	169601cb 	bne	s4,s6,11de0 <inst_error>
   116b4:	00000000 	nop
	...
   116c0:	001fa821 	addu	s5,zero,ra
   116c4:	3c0c6299 	lui	t4,0x6299
   116c8:	358c67a0 	ori	t4,t4,0x67a0
   116cc:	3c0da593 	lui	t5,0xa593
   116d0:	35ad6df4 	ori	t5,t5,0x6df4
   116d4:	24100000 	li	s0,0
   116d8:	10000012 	b	11724 <n36_bgezal_test+0x11724>
   116dc:	24120000 	li	s2,0
   116e0:	00000000 	nop
   116e4:	3c106299 	lui	s0,0x6299
   116e8:	361067a0 	ori	s0,s0,0x67a0
   116ec:	05110023 	bgezal	t0,1177c <n36_bgezal_test+0x1177c>
   116f0:	00000000 	nop
   116f4:	10000023 	b	11784 <n36_bgezal_test+0x11784>
   116f8:	00000000 	nop
   116fc:	00000000 	nop
   11700:	00000021 	move	zero,zero
   11704:	00000021 	move	zero,zero
   11708:	00000021 	move	zero,zero
   1170c:	00000021 	move	zero,zero
   11710:	00000021 	move	zero,zero
   11714:	00000021 	move	zero,zero
   11718:	00000021 	move	zero,zero
   1171c:	00000021 	move	zero,zero
   11720:	00000021 	move	zero,zero
   11724:	3c0868f6 	lui	t0,0x68f6
   11728:	3508e51f 	ori	t0,t0,0xe51f
   1172c:	0511ffed 	bgezal	t0,116e4 <n36_bgezal_test+0x116e4>
   11730:	00000000 	nop
   11734:	10000013 	b	11784 <n36_bgezal_test+0x11784>
   11738:	00000000 	nop
   1173c:	00000000 	nop
   11740:	00000021 	move	zero,zero
   11744:	00000021 	move	zero,zero
   11748:	00000021 	move	zero,zero
   1174c:	00000021 	move	zero,zero
   11750:	00000021 	move	zero,zero
   11754:	00000021 	move	zero,zero
   11758:	00000021 	move	zero,zero
   1175c:	00000021 	move	zero,zero
   11760:	00000021 	move	zero,zero
   11764:	00000021 	move	zero,zero
   11768:	00000021 	move	zero,zero
   1176c:	00000021 	move	zero,zero
   11770:	00000021 	move	zero,zero
   11774:	00000021 	move	zero,zero
   11778:	00000021 	move	zero,zero
   1177c:	3c12a593 	lui	s2,0xa593
   11780:	36526df4 	ori	s2,s2,0x6df4
   11784:	001fa021 	addu	s4,zero,ra
   11788:	0015f821 	addu	ra,zero,s5
   1178c:	3c150001 	lui	s5,0x1
   11790:	26b516ec 	addiu	s5,s5,5868
   11794:	3c160001 	lui	s6,0x1
   11798:	26d6172c 	addiu	s6,s6,5932
   1179c:	3c186299 	lui	t8,0x6299
   117a0:	371867a0 	ori	t8,t8,0x67a0
   117a4:	1618018e 	bne	s0,t8,11de0 <inst_error>
   117a8:	00000000 	nop
   117ac:	00000000 	nop
   117b0:	3c18a593 	lui	t8,0xa593
   117b4:	37186df4 	ori	t8,t8,0x6df4
   117b8:	16580189 	bne	s2,t8,11de0 <inst_error>
   117bc:	00000000 	nop
   117c0:	00000000 	nop
   117c4:	3c19bfc0 	lui	t9,0xbfc0
   117c8:	373993d4 	ori	t9,t9,0x93d4
   117cc:	3c18bfc0 	lui	t8,0xbfc0
   117d0:	371893cc 	ori	t8,t8,0x93cc
   117d4:	27180008 	addiu	t8,t8,8
   117d8:	1319000a 	beq	t8,t9,11804 <n36_bgezal_test+0x11804>
   117dc:	00000000 	nop
   117e0:	00000000 	nop
   117e4:	3c18bfc0 	lui	t8,0xbfc0
   117e8:	37189404 	ori	t8,t8,0x9404
   117ec:	27180008 	addiu	t8,t8,8
   117f0:	1319000a 	beq	t8,t9,1181c <n36_bgezal_test+0x1181c>
   117f4:	00000000 	nop
   117f8:	10000179 	b	11de0 <inst_error>
   117fc:	00000000 	nop
   11800:	00000000 	nop
   11804:	26b50008 	addiu	s5,s5,8
   11808:	16950175 	bne	s4,s5,11de0 <inst_error>
   1180c:	00000000 	nop
   11810:	10000006 	b	1182c <n36_bgezal_test+0x1182c>
   11814:	00000000 	nop
   11818:	00000000 	nop
   1181c:	26d60008 	addiu	s6,s6,8
   11820:	1696016f 	bne	s4,s6,11de0 <inst_error>
   11824:	00000000 	nop
	...
   11830:	001fa821 	addu	s5,zero,ra
   11834:	3c0ca012 	lui	t4,0xa012
   11838:	358c3e98 	ori	t4,t4,0x3e98
   1183c:	3c0da18d 	lui	t5,0xa18d
   11840:	35adbf90 	ori	t5,t5,0xbf90
   11844:	24100000 	li	s0,0
   11848:	10000012 	b	11894 <n36_bgezal_test+0x11894>
   1184c:	24120000 	li	s2,0
   11850:	00000000 	nop
   11854:	3c10a012 	lui	s0,0xa012
   11858:	36103e98 	ori	s0,s0,0x3e98
   1185c:	05110023 	bgezal	t0,118ec <n36_bgezal_test+0x118ec>
   11860:	00000000 	nop
   11864:	10000023 	b	118f4 <n36_bgezal_test+0x118f4>
   11868:	00000000 	nop
   1186c:	00000000 	nop
   11870:	00000021 	move	zero,zero
   11874:	00000021 	move	zero,zero
   11878:	00000021 	move	zero,zero
   1187c:	00000021 	move	zero,zero
   11880:	00000021 	move	zero,zero
   11884:	00000021 	move	zero,zero
   11888:	00000021 	move	zero,zero
   1188c:	00000021 	move	zero,zero
   11890:	00000021 	move	zero,zero
   11894:	3c08e837 	lui	t0,0xe837
   11898:	350881e4 	ori	t0,t0,0x81e4
   1189c:	0511ffed 	bgezal	t0,11854 <n36_bgezal_test+0x11854>
   118a0:	00000000 	nop
   118a4:	10000013 	b	118f4 <n36_bgezal_test+0x118f4>
   118a8:	00000000 	nop
   118ac:	00000000 	nop
   118b0:	00000021 	move	zero,zero
   118b4:	00000021 	move	zero,zero
   118b8:	00000021 	move	zero,zero
   118bc:	00000021 	move	zero,zero
   118c0:	00000021 	move	zero,zero
   118c4:	00000021 	move	zero,zero
   118c8:	00000021 	move	zero,zero
   118cc:	00000021 	move	zero,zero
   118d0:	00000021 	move	zero,zero
   118d4:	00000021 	move	zero,zero
   118d8:	00000021 	move	zero,zero
   118dc:	00000021 	move	zero,zero
   118e0:	00000021 	move	zero,zero
   118e4:	00000021 	move	zero,zero
   118e8:	00000021 	move	zero,zero
   118ec:	3c12a18d 	lui	s2,0xa18d
   118f0:	3652bf90 	ori	s2,s2,0xbf90
   118f4:	001fa021 	addu	s4,zero,ra
   118f8:	0015f821 	addu	ra,zero,s5
   118fc:	3c150001 	lui	s5,0x1
   11900:	26b5185c 	addiu	s5,s5,6236
   11904:	3c160001 	lui	s6,0x1
   11908:	26d6189c 	addiu	s6,s6,6300
   1190c:	24180000 	li	t8,0
   11910:	16180133 	bne	s0,t8,11de0 <inst_error>
   11914:	00000000 	nop
   11918:	00000000 	nop
   1191c:	24180000 	li	t8,0
   11920:	1658012f 	bne	s2,t8,11de0 <inst_error>
   11924:	00000000 	nop
   11928:	00000000 	nop
   1192c:	3c19bfc0 	lui	t9,0xbfc0
   11930:	373994c8 	ori	t9,t9,0x94c8
   11934:	3c18bfc0 	lui	t8,0xbfc0
   11938:	37189488 	ori	t8,t8,0x9488
   1193c:	27180008 	addiu	t8,t8,8
   11940:	1319000a 	beq	t8,t9,1196c <n36_bgezal_test+0x1196c>
   11944:	00000000 	nop
   11948:	00000000 	nop
   1194c:	3c18bfc0 	lui	t8,0xbfc0
   11950:	371894c0 	ori	t8,t8,0x94c0
   11954:	27180008 	addiu	t8,t8,8
   11958:	1319000a 	beq	t8,t9,11984 <n36_bgezal_test+0x11984>
   1195c:	00000000 	nop
   11960:	1000011f 	b	11de0 <inst_error>
   11964:	00000000 	nop
   11968:	00000000 	nop
   1196c:	26b50008 	addiu	s5,s5,8
   11970:	1695011b 	bne	s4,s5,11de0 <inst_error>
   11974:	00000000 	nop
   11978:	10000006 	b	11994 <n36_bgezal_test+0x11994>
   1197c:	00000000 	nop
   11980:	00000000 	nop
   11984:	26d60008 	addiu	s6,s6,8
   11988:	16960115 	bne	s4,s6,11de0 <inst_error>
   1198c:	00000000 	nop
	...
   11998:	001fa821 	addu	s5,zero,ra
   1199c:	3c0caaa3 	lui	t4,0xaaa3
   119a0:	358cde30 	ori	t4,t4,0xde30
   119a4:	3c0d7e6d 	lui	t5,0x7e6d
   119a8:	35addd50 	ori	t5,t5,0xdd50
   119ac:	24100000 	li	s0,0
   119b0:	10000012 	b	119fc <n36_bgezal_test+0x119fc>
   119b4:	24120000 	li	s2,0
   119b8:	00000000 	nop
   119bc:	3c10aaa3 	lui	s0,0xaaa3
   119c0:	3610de30 	ori	s0,s0,0xde30
   119c4:	05110023 	bgezal	t0,11a54 <n36_bgezal_test+0x11a54>
   119c8:	00000000 	nop
   119cc:	10000023 	b	11a5c <n36_bgezal_test+0x11a5c>
   119d0:	00000000 	nop
   119d4:	00000000 	nop
   119d8:	00000021 	move	zero,zero
   119dc:	00000021 	move	zero,zero
   119e0:	00000021 	move	zero,zero
   119e4:	00000021 	move	zero,zero
   119e8:	00000021 	move	zero,zero
   119ec:	00000021 	move	zero,zero
   119f0:	00000021 	move	zero,zero
   119f4:	00000021 	move	zero,zero
   119f8:	00000021 	move	zero,zero
   119fc:	3c08f624 	lui	t0,0xf624
   11a00:	3508bdb0 	ori	t0,t0,0xbdb0
   11a04:	0511ffed 	bgezal	t0,119bc <n36_bgezal_test+0x119bc>
   11a08:	00000000 	nop
   11a0c:	10000013 	b	11a5c <n36_bgezal_test+0x11a5c>
   11a10:	00000000 	nop
   11a14:	00000000 	nop
   11a18:	00000021 	move	zero,zero
   11a1c:	00000021 	move	zero,zero
   11a20:	00000021 	move	zero,zero
   11a24:	00000021 	move	zero,zero
   11a28:	00000021 	move	zero,zero
   11a2c:	00000021 	move	zero,zero
   11a30:	00000021 	move	zero,zero
   11a34:	00000021 	move	zero,zero
   11a38:	00000021 	move	zero,zero
   11a3c:	00000021 	move	zero,zero
   11a40:	00000021 	move	zero,zero
   11a44:	00000021 	move	zero,zero
   11a48:	00000021 	move	zero,zero
   11a4c:	00000021 	move	zero,zero
   11a50:	00000021 	move	zero,zero
   11a54:	3c127e6d 	lui	s2,0x7e6d
   11a58:	3652dd50 	ori	s2,s2,0xdd50
   11a5c:	001fa021 	addu	s4,zero,ra
   11a60:	0015f821 	addu	ra,zero,s5
   11a64:	3c150001 	lui	s5,0x1
   11a68:	26b519c4 	addiu	s5,s5,6596
   11a6c:	3c160001 	lui	s6,0x1
   11a70:	26d61a04 	addiu	s6,s6,6660
   11a74:	24180000 	li	t8,0
   11a78:	161800d9 	bne	s0,t8,11de0 <inst_error>
   11a7c:	00000000 	nop
   11a80:	00000000 	nop
   11a84:	24180000 	li	t8,0
   11a88:	165800d5 	bne	s2,t8,11de0 <inst_error>
   11a8c:	00000000 	nop
   11a90:	00000000 	nop
   11a94:	3c19bfc0 	lui	t9,0xbfc0
   11a98:	37399584 	ori	t9,t9,0x9584
   11a9c:	3c18bfc0 	lui	t8,0xbfc0
   11aa0:	37189544 	ori	t8,t8,0x9544
   11aa4:	27180008 	addiu	t8,t8,8
   11aa8:	1319000a 	beq	t8,t9,11ad4 <n36_bgezal_test+0x11ad4>
   11aac:	00000000 	nop
   11ab0:	00000000 	nop
   11ab4:	3c18bfc0 	lui	t8,0xbfc0
   11ab8:	3718957c 	ori	t8,t8,0x957c
   11abc:	27180008 	addiu	t8,t8,8
   11ac0:	1319000a 	beq	t8,t9,11aec <n36_bgezal_test+0x11aec>
   11ac4:	00000000 	nop
   11ac8:	100000c5 	b	11de0 <inst_error>
   11acc:	00000000 	nop
   11ad0:	00000000 	nop
   11ad4:	26b50008 	addiu	s5,s5,8
   11ad8:	169500c1 	bne	s4,s5,11de0 <inst_error>
   11adc:	00000000 	nop
   11ae0:	10000006 	b	11afc <n36_bgezal_test+0x11afc>
   11ae4:	00000000 	nop
   11ae8:	00000000 	nop
   11aec:	26d60008 	addiu	s6,s6,8
   11af0:	169600bb 	bne	s4,s6,11de0 <inst_error>
   11af4:	00000000 	nop
	...
   11b00:	001fa821 	addu	s5,zero,ra
   11b04:	3c0cb188 	lui	t4,0xb188
   11b08:	358cd600 	ori	t4,t4,0xd600
   11b0c:	3c0d206f 	lui	t5,0x206f
   11b10:	35ada380 	ori	t5,t5,0xa380
   11b14:	24100000 	li	s0,0
   11b18:	10000012 	b	11b64 <n36_bgezal_test+0x11b64>
   11b1c:	24120000 	li	s2,0
   11b20:	00000000 	nop
   11b24:	3c10b188 	lui	s0,0xb188
   11b28:	3610d600 	ori	s0,s0,0xd600
   11b2c:	05110023 	bgezal	t0,11bbc <n36_bgezal_test+0x11bbc>
   11b30:	00000000 	nop
   11b34:	10000023 	b	11bc4 <n36_bgezal_test+0x11bc4>
   11b38:	00000000 	nop
   11b3c:	00000000 	nop
   11b40:	00000021 	move	zero,zero
   11b44:	00000021 	move	zero,zero
   11b48:	00000021 	move	zero,zero
   11b4c:	00000021 	move	zero,zero
   11b50:	00000021 	move	zero,zero
   11b54:	00000021 	move	zero,zero
   11b58:	00000021 	move	zero,zero
   11b5c:	00000021 	move	zero,zero
   11b60:	00000021 	move	zero,zero
   11b64:	3c0882f5 	lui	t0,0x82f5
   11b68:	3508a6f0 	ori	t0,t0,0xa6f0
   11b6c:	0511ffed 	bgezal	t0,11b24 <n36_bgezal_test+0x11b24>
   11b70:	00000000 	nop
   11b74:	10000013 	b	11bc4 <n36_bgezal_test+0x11bc4>
   11b78:	00000000 	nop
   11b7c:	00000000 	nop
   11b80:	00000021 	move	zero,zero
   11b84:	00000021 	move	zero,zero
   11b88:	00000021 	move	zero,zero
   11b8c:	00000021 	move	zero,zero
   11b90:	00000021 	move	zero,zero
   11b94:	00000021 	move	zero,zero
   11b98:	00000021 	move	zero,zero
   11b9c:	00000021 	move	zero,zero
   11ba0:	00000021 	move	zero,zero
   11ba4:	00000021 	move	zero,zero
   11ba8:	00000021 	move	zero,zero
   11bac:	00000021 	move	zero,zero
   11bb0:	00000021 	move	zero,zero
   11bb4:	00000021 	move	zero,zero
   11bb8:	00000021 	move	zero,zero
   11bbc:	3c12206f 	lui	s2,0x206f
   11bc0:	3652a380 	ori	s2,s2,0xa380
   11bc4:	001fa021 	addu	s4,zero,ra
   11bc8:	0015f821 	addu	ra,zero,s5
   11bcc:	3c150001 	lui	s5,0x1
   11bd0:	26b51b2c 	addiu	s5,s5,6956
   11bd4:	3c160001 	lui	s6,0x1
   11bd8:	26d61b6c 	addiu	s6,s6,7020
   11bdc:	24180000 	li	t8,0
   11be0:	1618007f 	bne	s0,t8,11de0 <inst_error>
   11be4:	00000000 	nop
   11be8:	00000000 	nop
   11bec:	24180000 	li	t8,0
   11bf0:	1658007b 	bne	s2,t8,11de0 <inst_error>
   11bf4:	00000000 	nop
   11bf8:	00000000 	nop
   11bfc:	3c19bfc0 	lui	t9,0xbfc0
   11c00:	37399640 	ori	t9,t9,0x9640
   11c04:	3c18bfc0 	lui	t8,0xbfc0
   11c08:	37189600 	ori	t8,t8,0x9600
   11c0c:	27180008 	addiu	t8,t8,8
   11c10:	1319000a 	beq	t8,t9,11c3c <n36_bgezal_test+0x11c3c>
   11c14:	00000000 	nop
   11c18:	00000000 	nop
   11c1c:	3c18bfc0 	lui	t8,0xbfc0
   11c20:	37189638 	ori	t8,t8,0x9638
   11c24:	27180008 	addiu	t8,t8,8
   11c28:	1319000a 	beq	t8,t9,11c54 <n36_bgezal_test+0x11c54>
   11c2c:	00000000 	nop
   11c30:	1000006b 	b	11de0 <inst_error>
   11c34:	00000000 	nop
   11c38:	00000000 	nop
   11c3c:	26b50008 	addiu	s5,s5,8
   11c40:	16950067 	bne	s4,s5,11de0 <inst_error>
   11c44:	00000000 	nop
   11c48:	10000006 	b	11c64 <n36_bgezal_test+0x11c64>
   11c4c:	00000000 	nop
   11c50:	00000000 	nop
   11c54:	26d60008 	addiu	s6,s6,8
   11c58:	16960061 	bne	s4,s6,11de0 <inst_error>
   11c5c:	00000000 	nop
	...
   11c68:	001fa821 	addu	s5,zero,ra
   11c6c:	3c0c36a3 	lui	t4,0x36a3
   11c70:	358c6650 	ori	t4,t4,0x6650
   11c74:	3c0d44fa 	lui	t5,0x44fa
   11c78:	35ad7d50 	ori	t5,t5,0x7d50
   11c7c:	24100000 	li	s0,0
   11c80:	10000012 	b	11ccc <n36_bgezal_test+0x11ccc>
   11c84:	24120000 	li	s2,0
   11c88:	00000000 	nop
   11c8c:	3c1036a3 	lui	s0,0x36a3
   11c90:	36106650 	ori	s0,s0,0x6650
   11c94:	05110022 	bgezal	t0,11d20 <n36_bgezal_test+0x11d20>
   11c98:	00000000 	nop
   11c9c:	10000022 	b	11d28 <n36_bgezal_test+0x11d28>
   11ca0:	00000000 	nop
   11ca4:	00000000 	nop
   11ca8:	00000021 	move	zero,zero
   11cac:	00000021 	move	zero,zero
   11cb0:	00000021 	move	zero,zero
   11cb4:	00000021 	move	zero,zero
   11cb8:	00000021 	move	zero,zero
   11cbc:	00000021 	move	zero,zero
   11cc0:	00000021 	move	zero,zero
   11cc4:	00000021 	move	zero,zero
   11cc8:	00000021 	move	zero,zero
   11ccc:	24080000 	li	t0,0
   11cd0:	0511ffee 	bgezal	t0,11c8c <n36_bgezal_test+0x11c8c>
   11cd4:	00000000 	nop
   11cd8:	10000013 	b	11d28 <n36_bgezal_test+0x11d28>
   11cdc:	00000000 	nop
   11ce0:	00000000 	nop
   11ce4:	00000021 	move	zero,zero
   11ce8:	00000021 	move	zero,zero
   11cec:	00000021 	move	zero,zero
   11cf0:	00000021 	move	zero,zero
   11cf4:	00000021 	move	zero,zero
   11cf8:	00000021 	move	zero,zero
   11cfc:	00000021 	move	zero,zero
   11d00:	00000021 	move	zero,zero
   11d04:	00000021 	move	zero,zero
   11d08:	00000021 	move	zero,zero
   11d0c:	00000021 	move	zero,zero
   11d10:	00000021 	move	zero,zero
   11d14:	00000021 	move	zero,zero
   11d18:	00000021 	move	zero,zero
   11d1c:	00000021 	move	zero,zero
   11d20:	3c1244fa 	lui	s2,0x44fa
   11d24:	36527d50 	ori	s2,s2,0x7d50
   11d28:	001fa021 	addu	s4,zero,ra
   11d2c:	0015f821 	addu	ra,zero,s5
   11d30:	3c150001 	lui	s5,0x1
   11d34:	26b51c94 	addiu	s5,s5,7316
   11d38:	3c160001 	lui	s6,0x1
   11d3c:	26d61cd0 	addiu	s6,s6,7376
   11d40:	3c1836a3 	lui	t8,0x36a3
   11d44:	37186650 	ori	t8,t8,0x6650
   11d48:	16180025 	bne	s0,t8,11de0 <inst_error>
   11d4c:	00000000 	nop
   11d50:	00000000 	nop
   11d54:	3c1844fa 	lui	t8,0x44fa
   11d58:	37187d50 	ori	t8,t8,0x7d50
   11d5c:	16580020 	bne	s2,t8,11de0 <inst_error>
   11d60:	00000000 	nop
   11d64:	00000000 	nop
   11d68:	3c19bfc0 	lui	t9,0xbfc0
   11d6c:	373996c4 	ori	t9,t9,0x96c4
   11d70:	3c18bfc0 	lui	t8,0xbfc0
   11d74:	371896bc 	ori	t8,t8,0x96bc
   11d78:	27180008 	addiu	t8,t8,8
   11d7c:	1319000a 	beq	t8,t9,11da8 <n36_bgezal_test+0x11da8>
   11d80:	00000000 	nop
   11d84:	00000000 	nop
   11d88:	3c18bfc0 	lui	t8,0xbfc0
   11d8c:	371896f0 	ori	t8,t8,0x96f0
   11d90:	27180008 	addiu	t8,t8,8
   11d94:	1319000a 	beq	t8,t9,11dc0 <n36_bgezal_test+0x11dc0>
   11d98:	00000000 	nop
   11d9c:	10000010 	b	11de0 <inst_error>
   11da0:	00000000 	nop
   11da4:	00000000 	nop
   11da8:	26b50008 	addiu	s5,s5,8
   11dac:	1695000c 	bne	s4,s5,11de0 <inst_error>
   11db0:	00000000 	nop
   11db4:	10000006 	b	11dd0 <n36_bgezal_test+0x11dd0>
   11db8:	00000000 	nop
   11dbc:	00000000 	nop
   11dc0:	26d60008 	addiu	s6,s6,8
   11dc4:	16960006 	bne	s4,s6,11de0 <inst_error>
   11dc8:	00000000 	nop
   11dcc:	00000000 	nop
   11dd0:	14400003 	bnez	v0,11de0 <inst_error>
   11dd4:	00000000 	nop
   11dd8:	00000000 	nop
   11ddc:	26730001 	addiu	s3,s3,1

00011de0 <inst_error>:
   11de0:	00934025 	or	t0,a0,s3
   11de4:	03e00008 	jr	ra
   11de8:	ae280000 	sw	t0,0(s1)
   11dec:	00000000 	nop
