00000000 <n37_j_test>:
       0:	3c042500 	lui	a0,0x2500
       4:	24020000 	li	v0,0
       8:	3c0c42ea 	lui	t4,0x42ea
       c:	358c6edf 	ori	t4,t4,0x6edf
      10:	3c0d2407 	lui	t5,0x2407
      14:	35ad1ba8 	ori	t5,t5,0x1ba8
      18:	24100000 	li	s0,0
      1c:	1000000b 	b	4c <n37_j_test+0x4c>
      20:	24120000 	li	s2,0
      24:	00000000 	nop
      28:	3c1042ea 	lui	s0,0x42ea
      2c:	0800001f 	j	7c <n37_j_test+0x7c>
      30:	36106edf 	ori	s0,s0,0x6edf
      34:	10000013 	b	84 <n37_j_test+0x84>
      38:	00000000 	nop
      3c:	00000000 	nop
      40:	00000021 	move	zero,zero
      44:	00000021 	move	zero,zero
      48:	00000021 	move	zero,zero
      4c:	0800000a 	j	28 <n37_j_test+0x28>
      50:	00000000 	nop
      54:	1000000b 	b	84 <n37_j_test+0x84>
      58:	00000000 	nop
      5c:	00000000 	nop
      60:	00000021 	move	zero,zero
      64:	00000021 	move	zero,zero
      68:	00000021 	move	zero,zero
      6c:	00000021 	move	zero,zero
      70:	00000021 	move	zero,zero
      74:	00000021 	move	zero,zero
      78:	00000021 	move	zero,zero
      7c:	3c122407 	lui	s2,0x2407
      80:	36521ba8 	ori	s2,s2,0x1ba8
      84:	00000000 	nop
      88:	3c1442ea 	lui	s4,0x42ea
      8c:	36946edf 	ori	s4,s4,0x6edf
      90:	161420b0 	bne	s0,s4,8354 <inst_error>
      94:	00000000 	nop
      98:	00000000 	nop
      9c:	3c152407 	lui	s5,0x2407
      a0:	36b51ba8 	ori	s5,s5,0x1ba8
      a4:	165520ab 	bne	s2,s5,8354 <inst_error>
      a8:	00000000 	nop
      ac:	00000000 	nop
      b0:	3c0cac27 	lui	t4,0xac27
      b4:	358c5df0 	ori	t4,t4,0x5df0
      b8:	3c0d83f0 	lui	t5,0x83f0
      bc:	35ad722c 	ori	t5,t5,0x722c
      c0:	24100000 	li	s0,0
      c4:	1000000b 	b	f4 <n37_j_test+0xf4>
      c8:	24120000 	li	s2,0
      cc:	00000000 	nop
      d0:	3c10ac27 	lui	s0,0xac27
      d4:	08000049 	j	124 <n37_j_test+0x124>
      d8:	36105df0 	ori	s0,s0,0x5df0
      dc:	10000013 	b	12c <n37_j_test+0x12c>
      e0:	00000000 	nop
      e4:	00000000 	nop
      e8:	00000021 	move	zero,zero
      ec:	00000021 	move	zero,zero
      f0:	00000021 	move	zero,zero
      f4:	08000034 	j	d0 <n37_j_test+0xd0>
      f8:	00000000 	nop
      fc:	1000000b 	b	12c <n37_j_test+0x12c>
     100:	00000000 	nop
     104:	00000000 	nop
     108:	00000021 	move	zero,zero
     10c:	00000021 	move	zero,zero
     110:	00000021 	move	zero,zero
     114:	00000021 	move	zero,zero
     118:	00000021 	move	zero,zero
     11c:	00000021 	move	zero,zero
     120:	00000021 	move	zero,zero
     124:	3c1283f0 	lui	s2,0x83f0
     128:	3652722c 	ori	s2,s2,0x722c
     12c:	00000000 	nop
     130:	3c14ac27 	lui	s4,0xac27
     134:	36945df0 	ori	s4,s4,0x5df0
     138:	16142086 	bne	s0,s4,8354 <inst_error>
     13c:	00000000 	nop
     140:	00000000 	nop
     144:	3c1583f0 	lui	s5,0x83f0
     148:	36b5722c 	ori	s5,s5,0x722c
     14c:	16552081 	bne	s2,s5,8354 <inst_error>
     150:	00000000 	nop
     154:	00000000 	nop
     158:	3c0c58b9 	lui	t4,0x58b9
     15c:	358c1ef0 	ori	t4,t4,0x1ef0
     160:	3c0d2268 	lui	t5,0x2268
     164:	35ad61f5 	ori	t5,t5,0x61f5
     168:	24100000 	li	s0,0
     16c:	1000000b 	b	19c <n37_j_test+0x19c>
     170:	24120000 	li	s2,0
     174:	00000000 	nop
     178:	3c1058b9 	lui	s0,0x58b9
     17c:	08000073 	j	1cc <n37_j_test+0x1cc>
     180:	36101ef0 	ori	s0,s0,0x1ef0
     184:	10000013 	b	1d4 <n37_j_test+0x1d4>
     188:	00000000 	nop
     18c:	00000000 	nop
     190:	00000021 	move	zero,zero
     194:	00000021 	move	zero,zero
     198:	00000021 	move	zero,zero
     19c:	0800005e 	j	178 <n37_j_test+0x178>
     1a0:	00000000 	nop
     1a4:	1000000b 	b	1d4 <n37_j_test+0x1d4>
     1a8:	00000000 	nop
     1ac:	00000000 	nop
     1b0:	00000021 	move	zero,zero
     1b4:	00000021 	move	zero,zero
     1b8:	00000021 	move	zero,zero
     1bc:	00000021 	move	zero,zero
     1c0:	00000021 	move	zero,zero
     1c4:	00000021 	move	zero,zero
     1c8:	00000021 	move	zero,zero
     1cc:	3c122268 	lui	s2,0x2268
     1d0:	365261f5 	ori	s2,s2,0x61f5
     1d4:	00000000 	nop
     1d8:	3c1458b9 	lui	s4,0x58b9
     1dc:	36941ef0 	ori	s4,s4,0x1ef0
     1e0:	1614205c 	bne	s0,s4,8354 <inst_error>
     1e4:	00000000 	nop
     1e8:	00000000 	nop
     1ec:	3c152268 	lui	s5,0x2268
     1f0:	36b561f5 	ori	s5,s5,0x61f5
     1f4:	16552057 	bne	s2,s5,8354 <inst_error>
     1f8:	00000000 	nop
     1fc:	00000000 	nop
     200:	3c0cfc34 	lui	t4,0xfc34
     204:	358cd5d0 	ori	t4,t4,0xd5d0
     208:	3c0d4710 	lui	t5,0x4710
     20c:	35ad7652 	ori	t5,t5,0x7652
     210:	24100000 	li	s0,0
     214:	1000000b 	b	244 <n37_j_test+0x244>
     218:	24120000 	li	s2,0
     21c:	00000000 	nop
     220:	3c10fc34 	lui	s0,0xfc34
     224:	0800009d 	j	274 <n37_j_test+0x274>
     228:	3610d5d0 	ori	s0,s0,0xd5d0
     22c:	10000013 	b	27c <n37_j_test+0x27c>
     230:	00000000 	nop
     234:	00000000 	nop
     238:	00000021 	move	zero,zero
     23c:	00000021 	move	zero,zero
     240:	00000021 	move	zero,zero
     244:	08000088 	j	220 <n37_j_test+0x220>
     248:	00000000 	nop
     24c:	1000000b 	b	27c <n37_j_test+0x27c>
     250:	00000000 	nop
     254:	00000000 	nop
     258:	00000021 	move	zero,zero
     25c:	00000021 	move	zero,zero
     260:	00000021 	move	zero,zero
     264:	00000021 	move	zero,zero
     268:	00000021 	move	zero,zero
     26c:	00000021 	move	zero,zero
     270:	00000021 	move	zero,zero
     274:	3c124710 	lui	s2,0x4710
     278:	36527652 	ori	s2,s2,0x7652
     27c:	00000000 	nop
     280:	3c14fc34 	lui	s4,0xfc34
     284:	3694d5d0 	ori	s4,s4,0xd5d0
     288:	16142032 	bne	s0,s4,8354 <inst_error>
     28c:	00000000 	nop
     290:	00000000 	nop
     294:	3c154710 	lui	s5,0x4710
     298:	36b57652 	ori	s5,s5,0x7652
     29c:	1655202d 	bne	s2,s5,8354 <inst_error>
     2a0:	00000000 	nop
     2a4:	00000000 	nop
     2a8:	3c0cf668 	lui	t4,0xf668
     2ac:	358ca57c 	ori	t4,t4,0xa57c
     2b0:	3c0dfc6c 	lui	t5,0xfc6c
     2b4:	35adb46e 	ori	t5,t5,0xb46e
     2b8:	24100000 	li	s0,0
     2bc:	1000000b 	b	2ec <n37_j_test+0x2ec>
     2c0:	24120000 	li	s2,0
     2c4:	00000000 	nop
     2c8:	3c10f668 	lui	s0,0xf668
     2cc:	080000c7 	j	31c <n37_j_test+0x31c>
     2d0:	3610a57c 	ori	s0,s0,0xa57c
     2d4:	10000013 	b	324 <n37_j_test+0x324>
     2d8:	00000000 	nop
     2dc:	00000000 	nop
     2e0:	00000021 	move	zero,zero
     2e4:	00000021 	move	zero,zero
     2e8:	00000021 	move	zero,zero
     2ec:	080000b2 	j	2c8 <n37_j_test+0x2c8>
     2f0:	00000000 	nop
     2f4:	1000000b 	b	324 <n37_j_test+0x324>
     2f8:	00000000 	nop
     2fc:	00000000 	nop
     300:	00000021 	move	zero,zero
     304:	00000021 	move	zero,zero
     308:	00000021 	move	zero,zero
     30c:	00000021 	move	zero,zero
     310:	00000021 	move	zero,zero
     314:	00000021 	move	zero,zero
     318:	00000021 	move	zero,zero
     31c:	3c12fc6c 	lui	s2,0xfc6c
     320:	3652b46e 	ori	s2,s2,0xb46e
     324:	00000000 	nop
     328:	3c14f668 	lui	s4,0xf668
     32c:	3694a57c 	ori	s4,s4,0xa57c
     330:	16142008 	bne	s0,s4,8354 <inst_error>
     334:	00000000 	nop
     338:	00000000 	nop
     33c:	3c15fc6c 	lui	s5,0xfc6c
     340:	36b5b46e 	ori	s5,s5,0xb46e
     344:	16552003 	bne	s2,s5,8354 <inst_error>
     348:	00000000 	nop
     34c:	00000000 	nop
     350:	3c0c8a94 	lui	t4,0x8a94
     354:	358ca9b8 	ori	t4,t4,0xa9b8
     358:	3c0d5de8 	lui	t5,0x5de8
     35c:	35adb258 	ori	t5,t5,0xb258
     360:	24100000 	li	s0,0
     364:	1000000b 	b	394 <n37_j_test+0x394>
     368:	24120000 	li	s2,0
     36c:	00000000 	nop
     370:	3c108a94 	lui	s0,0x8a94
     374:	080000f1 	j	3c4 <n37_j_test+0x3c4>
     378:	3610a9b8 	ori	s0,s0,0xa9b8
     37c:	10000013 	b	3cc <n37_j_test+0x3cc>
     380:	00000000 	nop
     384:	00000000 	nop
     388:	00000021 	move	zero,zero
     38c:	00000021 	move	zero,zero
     390:	00000021 	move	zero,zero
     394:	080000dc 	j	370 <n37_j_test+0x370>
     398:	00000000 	nop
     39c:	1000000b 	b	3cc <n37_j_test+0x3cc>
     3a0:	00000000 	nop
     3a4:	00000000 	nop
     3a8:	00000021 	move	zero,zero
     3ac:	00000021 	move	zero,zero
     3b0:	00000021 	move	zero,zero
     3b4:	00000021 	move	zero,zero
     3b8:	00000021 	move	zero,zero
     3bc:	00000021 	move	zero,zero
     3c0:	00000021 	move	zero,zero
     3c4:	3c125de8 	lui	s2,0x5de8
     3c8:	3652b258 	ori	s2,s2,0xb258
     3cc:	00000000 	nop
     3d0:	3c148a94 	lui	s4,0x8a94
     3d4:	3694a9b8 	ori	s4,s4,0xa9b8
     3d8:	16141fde 	bne	s0,s4,8354 <inst_error>
     3dc:	00000000 	nop
     3e0:	00000000 	nop
     3e4:	3c155de8 	lui	s5,0x5de8
     3e8:	36b5b258 	ori	s5,s5,0xb258
     3ec:	16551fd9 	bne	s2,s5,8354 <inst_error>
     3f0:	00000000 	nop
     3f4:	00000000 	nop
     3f8:	3c0c3b67 	lui	t4,0x3b67
     3fc:	358c4068 	ori	t4,t4,0x4068
     400:	3c0d27fd 	lui	t5,0x27fd
     404:	35ad3b18 	ori	t5,t5,0x3b18
     408:	24100000 	li	s0,0
     40c:	1000000b 	b	43c <n37_j_test+0x43c>
     410:	24120000 	li	s2,0
     414:	00000000 	nop
     418:	3c103b67 	lui	s0,0x3b67
     41c:	0800011b 	j	46c <n37_j_test+0x46c>
     420:	36104068 	ori	s0,s0,0x4068
     424:	10000013 	b	474 <n37_j_test+0x474>
     428:	00000000 	nop
     42c:	00000000 	nop
     430:	00000021 	move	zero,zero
     434:	00000021 	move	zero,zero
     438:	00000021 	move	zero,zero
     43c:	08000106 	j	418 <n37_j_test+0x418>
     440:	00000000 	nop
     444:	1000000b 	b	474 <n37_j_test+0x474>
     448:	00000000 	nop
     44c:	00000000 	nop
     450:	00000021 	move	zero,zero
     454:	00000021 	move	zero,zero
     458:	00000021 	move	zero,zero
     45c:	00000021 	move	zero,zero
     460:	00000021 	move	zero,zero
     464:	00000021 	move	zero,zero
     468:	00000021 	move	zero,zero
     46c:	3c1227fd 	lui	s2,0x27fd
     470:	36523b18 	ori	s2,s2,0x3b18
     474:	00000000 	nop
     478:	3c143b67 	lui	s4,0x3b67
     47c:	36944068 	ori	s4,s4,0x4068
     480:	16141fb4 	bne	s0,s4,8354 <inst_error>
     484:	00000000 	nop
     488:	00000000 	nop
     48c:	3c1527fd 	lui	s5,0x27fd
     490:	36b53b18 	ori	s5,s5,0x3b18
     494:	16551faf 	bne	s2,s5,8354 <inst_error>
     498:	00000000 	nop
     49c:	00000000 	nop
     4a0:	3c0c8992 	lui	t4,0x8992
     4a4:	358c7912 	ori	t4,t4,0x7912
     4a8:	3c0d6216 	lui	t5,0x6216
     4ac:	35adb774 	ori	t5,t5,0xb774
     4b0:	24100000 	li	s0,0
     4b4:	1000000b 	b	4e4 <n37_j_test+0x4e4>
     4b8:	24120000 	li	s2,0
     4bc:	00000000 	nop
     4c0:	3c108992 	lui	s0,0x8992
     4c4:	08000145 	j	514 <n37_j_test+0x514>
     4c8:	36107912 	ori	s0,s0,0x7912
     4cc:	10000013 	b	51c <n37_j_test+0x51c>
     4d0:	00000000 	nop
     4d4:	00000000 	nop
     4d8:	00000021 	move	zero,zero
     4dc:	00000021 	move	zero,zero
     4e0:	00000021 	move	zero,zero
     4e4:	08000130 	j	4c0 <n37_j_test+0x4c0>
     4e8:	00000000 	nop
     4ec:	1000000b 	b	51c <n37_j_test+0x51c>
     4f0:	00000000 	nop
     4f4:	00000000 	nop
     4f8:	00000021 	move	zero,zero
     4fc:	00000021 	move	zero,zero
     500:	00000021 	move	zero,zero
     504:	00000021 	move	zero,zero
     508:	00000021 	move	zero,zero
     50c:	00000021 	move	zero,zero
     510:	00000021 	move	zero,zero
     514:	3c126216 	lui	s2,0x6216
     518:	3652b774 	ori	s2,s2,0xb774
     51c:	00000000 	nop
     520:	3c148992 	lui	s4,0x8992
     524:	36947912 	ori	s4,s4,0x7912
     528:	16141f8a 	bne	s0,s4,8354 <inst_error>
     52c:	00000000 	nop
     530:	00000000 	nop
     534:	3c156216 	lui	s5,0x6216
     538:	36b5b774 	ori	s5,s5,0xb774
     53c:	16551f85 	bne	s2,s5,8354 <inst_error>
     540:	00000000 	nop
     544:	00000000 	nop
     548:	3c0c9def 	lui	t4,0x9def
     54c:	358ce300 	ori	t4,t4,0xe300
     550:	3c0d3f6d 	lui	t5,0x3f6d
     554:	35adf718 	ori	t5,t5,0xf718
     558:	24100000 	li	s0,0
     55c:	1000000b 	b	58c <n37_j_test+0x58c>
     560:	24120000 	li	s2,0
     564:	00000000 	nop
     568:	3c109def 	lui	s0,0x9def
     56c:	0800016f 	j	5bc <n37_j_test+0x5bc>
     570:	3610e300 	ori	s0,s0,0xe300
     574:	10000013 	b	5c4 <n37_j_test+0x5c4>
     578:	00000000 	nop
     57c:	00000000 	nop
     580:	00000021 	move	zero,zero
     584:	00000021 	move	zero,zero
     588:	00000021 	move	zero,zero
     58c:	0800015a 	j	568 <n37_j_test+0x568>
     590:	00000000 	nop
     594:	1000000b 	b	5c4 <n37_j_test+0x5c4>
     598:	00000000 	nop
     59c:	00000000 	nop
     5a0:	00000021 	move	zero,zero
     5a4:	00000021 	move	zero,zero
     5a8:	00000021 	move	zero,zero
     5ac:	00000021 	move	zero,zero
     5b0:	00000021 	move	zero,zero
     5b4:	00000021 	move	zero,zero
     5b8:	00000021 	move	zero,zero
     5bc:	3c123f6d 	lui	s2,0x3f6d
     5c0:	3652f718 	ori	s2,s2,0xf718
     5c4:	00000000 	nop
     5c8:	3c149def 	lui	s4,0x9def
     5cc:	3694e300 	ori	s4,s4,0xe300
     5d0:	16141f60 	bne	s0,s4,8354 <inst_error>
     5d4:	00000000 	nop
     5d8:	00000000 	nop
     5dc:	3c153f6d 	lui	s5,0x3f6d
     5e0:	36b5f718 	ori	s5,s5,0xf718
     5e4:	16551f5b 	bne	s2,s5,8354 <inst_error>
     5e8:	00000000 	nop
     5ec:	00000000 	nop
     5f0:	3c0cd03d 	lui	t4,0xd03d
     5f4:	358cd6f8 	ori	t4,t4,0xd6f8
     5f8:	3c0d2395 	lui	t5,0x2395
     5fc:	35ad9ad1 	ori	t5,t5,0x9ad1
     600:	24100000 	li	s0,0
     604:	1000000b 	b	634 <n37_j_test+0x634>
     608:	24120000 	li	s2,0
     60c:	00000000 	nop
     610:	3c10d03d 	lui	s0,0xd03d
     614:	08000199 	j	664 <n37_j_test+0x664>
     618:	3610d6f8 	ori	s0,s0,0xd6f8
     61c:	10000013 	b	66c <n37_j_test+0x66c>
     620:	00000000 	nop
     624:	00000000 	nop
     628:	00000021 	move	zero,zero
     62c:	00000021 	move	zero,zero
     630:	00000021 	move	zero,zero
     634:	08000184 	j	610 <n37_j_test+0x610>
     638:	00000000 	nop
     63c:	1000000b 	b	66c <n37_j_test+0x66c>
     640:	00000000 	nop
     644:	00000000 	nop
     648:	00000021 	move	zero,zero
     64c:	00000021 	move	zero,zero
     650:	00000021 	move	zero,zero
     654:	00000021 	move	zero,zero
     658:	00000021 	move	zero,zero
     65c:	00000021 	move	zero,zero
     660:	00000021 	move	zero,zero
     664:	3c122395 	lui	s2,0x2395
     668:	36529ad1 	ori	s2,s2,0x9ad1
     66c:	00000000 	nop
     670:	3c14d03d 	lui	s4,0xd03d
     674:	3694d6f8 	ori	s4,s4,0xd6f8
     678:	16141f36 	bne	s0,s4,8354 <inst_error>
     67c:	00000000 	nop
     680:	00000000 	nop
     684:	3c152395 	lui	s5,0x2395
     688:	36b59ad1 	ori	s5,s5,0x9ad1
     68c:	16551f31 	bne	s2,s5,8354 <inst_error>
     690:	00000000 	nop
     694:	00000000 	nop
     698:	3c0c5ef9 	lui	t4,0x5ef9
     69c:	358cf358 	ori	t4,t4,0xf358
     6a0:	3c0de8a1 	lui	t5,0xe8a1
     6a4:	35ad08d2 	ori	t5,t5,0x8d2
     6a8:	24100000 	li	s0,0
     6ac:	1000000b 	b	6dc <n37_j_test+0x6dc>
     6b0:	24120000 	li	s2,0
     6b4:	00000000 	nop
     6b8:	3c105ef9 	lui	s0,0x5ef9
     6bc:	080001c3 	j	70c <n37_j_test+0x70c>
     6c0:	3610f358 	ori	s0,s0,0xf358
     6c4:	10000013 	b	714 <n37_j_test+0x714>
     6c8:	00000000 	nop
     6cc:	00000000 	nop
     6d0:	00000021 	move	zero,zero
     6d4:	00000021 	move	zero,zero
     6d8:	00000021 	move	zero,zero
     6dc:	080001ae 	j	6b8 <n37_j_test+0x6b8>
     6e0:	00000000 	nop
     6e4:	1000000b 	b	714 <n37_j_test+0x714>
     6e8:	00000000 	nop
     6ec:	00000000 	nop
     6f0:	00000021 	move	zero,zero
     6f4:	00000021 	move	zero,zero
     6f8:	00000021 	move	zero,zero
     6fc:	00000021 	move	zero,zero
     700:	00000021 	move	zero,zero
     704:	00000021 	move	zero,zero
     708:	00000021 	move	zero,zero
     70c:	3c12e8a1 	lui	s2,0xe8a1
     710:	365208d2 	ori	s2,s2,0x8d2
     714:	00000000 	nop
     718:	3c145ef9 	lui	s4,0x5ef9
     71c:	3694f358 	ori	s4,s4,0xf358
     720:	16141f0c 	bne	s0,s4,8354 <inst_error>
     724:	00000000 	nop
     728:	00000000 	nop
     72c:	3c15e8a1 	lui	s5,0xe8a1
     730:	36b508d2 	ori	s5,s5,0x8d2
     734:	16551f07 	bne	s2,s5,8354 <inst_error>
     738:	00000000 	nop
     73c:	00000000 	nop
     740:	3c0c03eb 	lui	t4,0x3eb
     744:	358cc6e0 	ori	t4,t4,0xc6e0
     748:	3c0d3383 	lui	t5,0x3383
     74c:	35ad2916 	ori	t5,t5,0x2916
     750:	24100000 	li	s0,0
     754:	1000000b 	b	784 <n37_j_test+0x784>
     758:	24120000 	li	s2,0
     75c:	00000000 	nop
     760:	3c1003eb 	lui	s0,0x3eb
     764:	080001ed 	j	7b4 <n37_j_test+0x7b4>
     768:	3610c6e0 	ori	s0,s0,0xc6e0
     76c:	10000013 	b	7bc <n37_j_test+0x7bc>
     770:	00000000 	nop
     774:	00000000 	nop
     778:	00000021 	move	zero,zero
     77c:	00000021 	move	zero,zero
     780:	00000021 	move	zero,zero
     784:	080001d8 	j	760 <n37_j_test+0x760>
     788:	00000000 	nop
     78c:	1000000b 	b	7bc <n37_j_test+0x7bc>
     790:	00000000 	nop
     794:	00000000 	nop
     798:	00000021 	move	zero,zero
     79c:	00000021 	move	zero,zero
     7a0:	00000021 	move	zero,zero
     7a4:	00000021 	move	zero,zero
     7a8:	00000021 	move	zero,zero
     7ac:	00000021 	move	zero,zero
     7b0:	00000021 	move	zero,zero
     7b4:	3c123383 	lui	s2,0x3383
     7b8:	36522916 	ori	s2,s2,0x2916
     7bc:	00000000 	nop
     7c0:	3c1403eb 	lui	s4,0x3eb
     7c4:	3694c6e0 	ori	s4,s4,0xc6e0
     7c8:	16141ee2 	bne	s0,s4,8354 <inst_error>
     7cc:	00000000 	nop
     7d0:	00000000 	nop
     7d4:	3c153383 	lui	s5,0x3383
     7d8:	36b52916 	ori	s5,s5,0x2916
     7dc:	16551edd 	bne	s2,s5,8354 <inst_error>
     7e0:	00000000 	nop
     7e4:	00000000 	nop
     7e8:	3c0c88b4 	lui	t4,0x88b4
     7ec:	358c7f70 	ori	t4,t4,0x7f70
     7f0:	3c0d5e04 	lui	t5,0x5e04
     7f4:	35adec65 	ori	t5,t5,0xec65
     7f8:	24100000 	li	s0,0
     7fc:	1000000b 	b	82c <n37_j_test+0x82c>
     800:	24120000 	li	s2,0
     804:	00000000 	nop
     808:	3c1088b4 	lui	s0,0x88b4
     80c:	08000217 	j	85c <n37_j_test+0x85c>
     810:	36107f70 	ori	s0,s0,0x7f70
     814:	10000013 	b	864 <n37_j_test+0x864>
     818:	00000000 	nop
     81c:	00000000 	nop
     820:	00000021 	move	zero,zero
     824:	00000021 	move	zero,zero
     828:	00000021 	move	zero,zero
     82c:	08000202 	j	808 <n37_j_test+0x808>
     830:	00000000 	nop
     834:	1000000b 	b	864 <n37_j_test+0x864>
     838:	00000000 	nop
     83c:	00000000 	nop
     840:	00000021 	move	zero,zero
     844:	00000021 	move	zero,zero
     848:	00000021 	move	zero,zero
     84c:	00000021 	move	zero,zero
     850:	00000021 	move	zero,zero
     854:	00000021 	move	zero,zero
     858:	00000021 	move	zero,zero
     85c:	3c125e04 	lui	s2,0x5e04
     860:	3652ec65 	ori	s2,s2,0xec65
     864:	00000000 	nop
     868:	3c1488b4 	lui	s4,0x88b4
     86c:	36947f70 	ori	s4,s4,0x7f70
     870:	16141eb8 	bne	s0,s4,8354 <inst_error>
     874:	00000000 	nop
     878:	00000000 	nop
     87c:	3c155e04 	lui	s5,0x5e04
     880:	36b5ec65 	ori	s5,s5,0xec65
     884:	16551eb3 	bne	s2,s5,8354 <inst_error>
     888:	00000000 	nop
     88c:	00000000 	nop
     890:	3c0c35cc 	lui	t4,0x35cc
     894:	358ca41c 	ori	t4,t4,0xa41c
     898:	3c0d86c2 	lui	t5,0x86c2
     89c:	35ad2c00 	ori	t5,t5,0x2c00
     8a0:	24100000 	li	s0,0
     8a4:	1000000b 	b	8d4 <n37_j_test+0x8d4>
     8a8:	24120000 	li	s2,0
     8ac:	00000000 	nop
     8b0:	3c1035cc 	lui	s0,0x35cc
     8b4:	08000241 	j	904 <n37_j_test+0x904>
     8b8:	3610a41c 	ori	s0,s0,0xa41c
     8bc:	10000013 	b	90c <n37_j_test+0x90c>
     8c0:	00000000 	nop
     8c4:	00000000 	nop
     8c8:	00000021 	move	zero,zero
     8cc:	00000021 	move	zero,zero
     8d0:	00000021 	move	zero,zero
     8d4:	0800022c 	j	8b0 <n37_j_test+0x8b0>
     8d8:	00000000 	nop
     8dc:	1000000b 	b	90c <n37_j_test+0x90c>
     8e0:	00000000 	nop
     8e4:	00000000 	nop
     8e8:	00000021 	move	zero,zero
     8ec:	00000021 	move	zero,zero
     8f0:	00000021 	move	zero,zero
     8f4:	00000021 	move	zero,zero
     8f8:	00000021 	move	zero,zero
     8fc:	00000021 	move	zero,zero
     900:	00000021 	move	zero,zero
     904:	3c1286c2 	lui	s2,0x86c2
     908:	36522c00 	ori	s2,s2,0x2c00
     90c:	00000000 	nop
     910:	3c1435cc 	lui	s4,0x35cc
     914:	3694a41c 	ori	s4,s4,0xa41c
     918:	16141e8e 	bne	s0,s4,8354 <inst_error>
     91c:	00000000 	nop
     920:	00000000 	nop
     924:	3c1586c2 	lui	s5,0x86c2
     928:	36b52c00 	ori	s5,s5,0x2c00
     92c:	16551e89 	bne	s2,s5,8354 <inst_error>
     930:	00000000 	nop
     934:	00000000 	nop
     938:	3c0cef93 	lui	t4,0xef93
     93c:	358c5f58 	ori	t4,t4,0x5f58
     940:	3c0da9df 	lui	t5,0xa9df
     944:	35ad37c2 	ori	t5,t5,0x37c2
     948:	24100000 	li	s0,0
     94c:	1000000b 	b	97c <n37_j_test+0x97c>
     950:	24120000 	li	s2,0
     954:	00000000 	nop
     958:	3c10ef93 	lui	s0,0xef93
     95c:	0800026b 	j	9ac <n37_j_test+0x9ac>
     960:	36105f58 	ori	s0,s0,0x5f58
     964:	10000013 	b	9b4 <n37_j_test+0x9b4>
     968:	00000000 	nop
     96c:	00000000 	nop
     970:	00000021 	move	zero,zero
     974:	00000021 	move	zero,zero
     978:	00000021 	move	zero,zero
     97c:	08000256 	j	958 <n37_j_test+0x958>
     980:	00000000 	nop
     984:	1000000b 	b	9b4 <n37_j_test+0x9b4>
     988:	00000000 	nop
     98c:	00000000 	nop
     990:	00000021 	move	zero,zero
     994:	00000021 	move	zero,zero
     998:	00000021 	move	zero,zero
     99c:	00000021 	move	zero,zero
     9a0:	00000021 	move	zero,zero
     9a4:	00000021 	move	zero,zero
     9a8:	00000021 	move	zero,zero
     9ac:	3c12a9df 	lui	s2,0xa9df
     9b0:	365237c2 	ori	s2,s2,0x37c2
     9b4:	00000000 	nop
     9b8:	3c14ef93 	lui	s4,0xef93
     9bc:	36945f58 	ori	s4,s4,0x5f58
     9c0:	16141e64 	bne	s0,s4,8354 <inst_error>
     9c4:	00000000 	nop
     9c8:	00000000 	nop
     9cc:	3c15a9df 	lui	s5,0xa9df
     9d0:	36b537c2 	ori	s5,s5,0x37c2
     9d4:	16551e5f 	bne	s2,s5,8354 <inst_error>
     9d8:	00000000 	nop
     9dc:	00000000 	nop
     9e0:	3c0c7c88 	lui	t4,0x7c88
     9e4:	358c34d8 	ori	t4,t4,0x34d8
     9e8:	3c0d5ad7 	lui	t5,0x5ad7
     9ec:	35ad806b 	ori	t5,t5,0x806b
     9f0:	24100000 	li	s0,0
     9f4:	1000000b 	b	a24 <n37_j_test+0xa24>
     9f8:	24120000 	li	s2,0
     9fc:	00000000 	nop
     a00:	3c107c88 	lui	s0,0x7c88
     a04:	08000295 	j	a54 <n37_j_test+0xa54>
     a08:	361034d8 	ori	s0,s0,0x34d8
     a0c:	10000013 	b	a5c <n37_j_test+0xa5c>
     a10:	00000000 	nop
     a14:	00000000 	nop
     a18:	00000021 	move	zero,zero
     a1c:	00000021 	move	zero,zero
     a20:	00000021 	move	zero,zero
     a24:	08000280 	j	a00 <n37_j_test+0xa00>
     a28:	00000000 	nop
     a2c:	1000000b 	b	a5c <n37_j_test+0xa5c>
     a30:	00000000 	nop
     a34:	00000000 	nop
     a38:	00000021 	move	zero,zero
     a3c:	00000021 	move	zero,zero
     a40:	00000021 	move	zero,zero
     a44:	00000021 	move	zero,zero
     a48:	00000021 	move	zero,zero
     a4c:	00000021 	move	zero,zero
     a50:	00000021 	move	zero,zero
     a54:	3c125ad7 	lui	s2,0x5ad7
     a58:	3652806b 	ori	s2,s2,0x806b
     a5c:	00000000 	nop
     a60:	3c147c88 	lui	s4,0x7c88
     a64:	369434d8 	ori	s4,s4,0x34d8
     a68:	16141e3a 	bne	s0,s4,8354 <inst_error>
     a6c:	00000000 	nop
     a70:	00000000 	nop
     a74:	3c155ad7 	lui	s5,0x5ad7
     a78:	36b5806b 	ori	s5,s5,0x806b
     a7c:	16551e35 	bne	s2,s5,8354 <inst_error>
     a80:	00000000 	nop
     a84:	00000000 	nop
     a88:	3c0cb4cd 	lui	t4,0xb4cd
     a8c:	358c88e0 	ori	t4,t4,0x88e0
     a90:	3c0ddf54 	lui	t5,0xdf54
     a94:	35ad38a8 	ori	t5,t5,0x38a8
     a98:	24100000 	li	s0,0
     a9c:	1000000b 	b	acc <n37_j_test+0xacc>
     aa0:	24120000 	li	s2,0
     aa4:	00000000 	nop
     aa8:	3c10b4cd 	lui	s0,0xb4cd
     aac:	080002bf 	j	afc <n37_j_test+0xafc>
     ab0:	361088e0 	ori	s0,s0,0x88e0
     ab4:	10000013 	b	b04 <n37_j_test+0xb04>
     ab8:	00000000 	nop
     abc:	00000000 	nop
     ac0:	00000021 	move	zero,zero
     ac4:	00000021 	move	zero,zero
     ac8:	00000021 	move	zero,zero
     acc:	080002aa 	j	aa8 <n37_j_test+0xaa8>
     ad0:	00000000 	nop
     ad4:	1000000b 	b	b04 <n37_j_test+0xb04>
     ad8:	00000000 	nop
     adc:	00000000 	nop
     ae0:	00000021 	move	zero,zero
     ae4:	00000021 	move	zero,zero
     ae8:	00000021 	move	zero,zero
     aec:	00000021 	move	zero,zero
     af0:	00000021 	move	zero,zero
     af4:	00000021 	move	zero,zero
     af8:	00000021 	move	zero,zero
     afc:	3c12df54 	lui	s2,0xdf54
     b00:	365238a8 	ori	s2,s2,0x38a8
     b04:	00000000 	nop
     b08:	3c14b4cd 	lui	s4,0xb4cd
     b0c:	369488e0 	ori	s4,s4,0x88e0
     b10:	16141e10 	bne	s0,s4,8354 <inst_error>
     b14:	00000000 	nop
     b18:	00000000 	nop
     b1c:	3c15df54 	lui	s5,0xdf54
     b20:	36b538a8 	ori	s5,s5,0x38a8
     b24:	16551e0b 	bne	s2,s5,8354 <inst_error>
     b28:	00000000 	nop
     b2c:	00000000 	nop
     b30:	3c0c9abc 	lui	t4,0x9abc
     b34:	358c5340 	ori	t4,t4,0x5340
     b38:	3c0df499 	lui	t5,0xf499
     b3c:	35ad2ade 	ori	t5,t5,0x2ade
     b40:	24100000 	li	s0,0
     b44:	1000000b 	b	b74 <n37_j_test+0xb74>
     b48:	24120000 	li	s2,0
     b4c:	00000000 	nop
     b50:	3c109abc 	lui	s0,0x9abc
     b54:	080002e9 	j	ba4 <n37_j_test+0xba4>
     b58:	36105340 	ori	s0,s0,0x5340
     b5c:	10000013 	b	bac <n37_j_test+0xbac>
     b60:	00000000 	nop
     b64:	00000000 	nop
     b68:	00000021 	move	zero,zero
     b6c:	00000021 	move	zero,zero
     b70:	00000021 	move	zero,zero
     b74:	080002d4 	j	b50 <n37_j_test+0xb50>
     b78:	00000000 	nop
     b7c:	1000000b 	b	bac <n37_j_test+0xbac>
     b80:	00000000 	nop
     b84:	00000000 	nop
     b88:	00000021 	move	zero,zero
     b8c:	00000021 	move	zero,zero
     b90:	00000021 	move	zero,zero
     b94:	00000021 	move	zero,zero
     b98:	00000021 	move	zero,zero
     b9c:	00000021 	move	zero,zero
     ba0:	00000021 	move	zero,zero
     ba4:	3c12f499 	lui	s2,0xf499
     ba8:	36522ade 	ori	s2,s2,0x2ade
     bac:	00000000 	nop
     bb0:	3c149abc 	lui	s4,0x9abc
     bb4:	36945340 	ori	s4,s4,0x5340
     bb8:	16141de6 	bne	s0,s4,8354 <inst_error>
     bbc:	00000000 	nop
     bc0:	00000000 	nop
     bc4:	3c15f499 	lui	s5,0xf499
     bc8:	36b52ade 	ori	s5,s5,0x2ade
     bcc:	16551de1 	bne	s2,s5,8354 <inst_error>
     bd0:	00000000 	nop
     bd4:	00000000 	nop
     bd8:	3c0c8735 	lui	t4,0x8735
     bdc:	358cdeb0 	ori	t4,t4,0xdeb0
     be0:	3c0dec85 	lui	t5,0xec85
     be4:	35ad4940 	ori	t5,t5,0x4940
     be8:	24100000 	li	s0,0
     bec:	1000000b 	b	c1c <n37_j_test+0xc1c>
     bf0:	24120000 	li	s2,0
     bf4:	00000000 	nop
     bf8:	3c108735 	lui	s0,0x8735
     bfc:	08000313 	j	c4c <n37_j_test+0xc4c>
     c00:	3610deb0 	ori	s0,s0,0xdeb0
     c04:	10000013 	b	c54 <n37_j_test+0xc54>
     c08:	00000000 	nop
     c0c:	00000000 	nop
     c10:	00000021 	move	zero,zero
     c14:	00000021 	move	zero,zero
     c18:	00000021 	move	zero,zero
     c1c:	080002fe 	j	bf8 <n37_j_test+0xbf8>
     c20:	00000000 	nop
     c24:	1000000b 	b	c54 <n37_j_test+0xc54>
     c28:	00000000 	nop
     c2c:	00000000 	nop
     c30:	00000021 	move	zero,zero
     c34:	00000021 	move	zero,zero
     c38:	00000021 	move	zero,zero
     c3c:	00000021 	move	zero,zero
     c40:	00000021 	move	zero,zero
     c44:	00000021 	move	zero,zero
     c48:	00000021 	move	zero,zero
     c4c:	3c12ec85 	lui	s2,0xec85
     c50:	36524940 	ori	s2,s2,0x4940
     c54:	00000000 	nop
     c58:	3c148735 	lui	s4,0x8735
     c5c:	3694deb0 	ori	s4,s4,0xdeb0
     c60:	16141dbc 	bne	s0,s4,8354 <inst_error>
     c64:	00000000 	nop
     c68:	00000000 	nop
     c6c:	3c15ec85 	lui	s5,0xec85
     c70:	36b54940 	ori	s5,s5,0x4940
     c74:	16551db7 	bne	s2,s5,8354 <inst_error>
     c78:	00000000 	nop
     c7c:	00000000 	nop
     c80:	3c0cd94c 	lui	t4,0xd94c
     c84:	358cbd74 	ori	t4,t4,0xbd74
     c88:	3c0dead4 	lui	t5,0xead4
     c8c:	35ad2d65 	ori	t5,t5,0x2d65
     c90:	24100000 	li	s0,0
     c94:	1000000b 	b	cc4 <n37_j_test+0xcc4>
     c98:	24120000 	li	s2,0
     c9c:	00000000 	nop
     ca0:	3c10d94c 	lui	s0,0xd94c
     ca4:	0800033d 	j	cf4 <n37_j_test+0xcf4>
     ca8:	3610bd74 	ori	s0,s0,0xbd74
     cac:	10000013 	b	cfc <n37_j_test+0xcfc>
     cb0:	00000000 	nop
     cb4:	00000000 	nop
     cb8:	00000021 	move	zero,zero
     cbc:	00000021 	move	zero,zero
     cc0:	00000021 	move	zero,zero
     cc4:	08000328 	j	ca0 <n37_j_test+0xca0>
     cc8:	00000000 	nop
     ccc:	1000000b 	b	cfc <n37_j_test+0xcfc>
     cd0:	00000000 	nop
     cd4:	00000000 	nop
     cd8:	00000021 	move	zero,zero
     cdc:	00000021 	move	zero,zero
     ce0:	00000021 	move	zero,zero
     ce4:	00000021 	move	zero,zero
     ce8:	00000021 	move	zero,zero
     cec:	00000021 	move	zero,zero
     cf0:	00000021 	move	zero,zero
     cf4:	3c12ead4 	lui	s2,0xead4
     cf8:	36522d65 	ori	s2,s2,0x2d65
     cfc:	00000000 	nop
     d00:	3c14d94c 	lui	s4,0xd94c
     d04:	3694bd74 	ori	s4,s4,0xbd74
     d08:	16141d92 	bne	s0,s4,8354 <inst_error>
     d0c:	00000000 	nop
     d10:	00000000 	nop
     d14:	3c15ead4 	lui	s5,0xead4
     d18:	36b52d65 	ori	s5,s5,0x2d65
     d1c:	16551d8d 	bne	s2,s5,8354 <inst_error>
     d20:	00000000 	nop
     d24:	00000000 	nop
     d28:	3c0caff4 	lui	t4,0xaff4
     d2c:	358c4748 	ori	t4,t4,0x4748
     d30:	3c0dc720 	lui	t5,0xc720
     d34:	35ad3940 	ori	t5,t5,0x3940
     d38:	24100000 	li	s0,0
     d3c:	1000000b 	b	d6c <n37_j_test+0xd6c>
     d40:	24120000 	li	s2,0
     d44:	00000000 	nop
     d48:	3c10aff4 	lui	s0,0xaff4
     d4c:	08000367 	j	d9c <n37_j_test+0xd9c>
     d50:	36104748 	ori	s0,s0,0x4748
     d54:	10000013 	b	da4 <n37_j_test+0xda4>
     d58:	00000000 	nop
     d5c:	00000000 	nop
     d60:	00000021 	move	zero,zero
     d64:	00000021 	move	zero,zero
     d68:	00000021 	move	zero,zero
     d6c:	08000352 	j	d48 <n37_j_test+0xd48>
     d70:	00000000 	nop
     d74:	1000000b 	b	da4 <n37_j_test+0xda4>
     d78:	00000000 	nop
     d7c:	00000000 	nop
     d80:	00000021 	move	zero,zero
     d84:	00000021 	move	zero,zero
     d88:	00000021 	move	zero,zero
     d8c:	00000021 	move	zero,zero
     d90:	00000021 	move	zero,zero
     d94:	00000021 	move	zero,zero
     d98:	00000021 	move	zero,zero
     d9c:	3c12c720 	lui	s2,0xc720
     da0:	36523940 	ori	s2,s2,0x3940
     da4:	00000000 	nop
     da8:	3c14aff4 	lui	s4,0xaff4
     dac:	36944748 	ori	s4,s4,0x4748
     db0:	16141d68 	bne	s0,s4,8354 <inst_error>
     db4:	00000000 	nop
     db8:	00000000 	nop
     dbc:	3c15c720 	lui	s5,0xc720
     dc0:	36b53940 	ori	s5,s5,0x3940
     dc4:	16551d63 	bne	s2,s5,8354 <inst_error>
     dc8:	00000000 	nop
     dcc:	00000000 	nop
     dd0:	3c0c387c 	lui	t4,0x387c
     dd4:	358c49f4 	ori	t4,t4,0x49f4
     dd8:	3c0dd301 	lui	t5,0xd301
     ddc:	35ad8d7e 	ori	t5,t5,0x8d7e
     de0:	24100000 	li	s0,0
     de4:	1000000b 	b	e14 <n37_j_test+0xe14>
     de8:	24120000 	li	s2,0
     dec:	00000000 	nop
     df0:	3c10387c 	lui	s0,0x387c
     df4:	08000391 	j	e44 <n37_j_test+0xe44>
     df8:	361049f4 	ori	s0,s0,0x49f4
     dfc:	10000013 	b	e4c <n37_j_test+0xe4c>
     e00:	00000000 	nop
     e04:	00000000 	nop
     e08:	00000021 	move	zero,zero
     e0c:	00000021 	move	zero,zero
     e10:	00000021 	move	zero,zero
     e14:	0800037c 	j	df0 <n37_j_test+0xdf0>
     e18:	00000000 	nop
     e1c:	1000000b 	b	e4c <n37_j_test+0xe4c>
     e20:	00000000 	nop
     e24:	00000000 	nop
     e28:	00000021 	move	zero,zero
     e2c:	00000021 	move	zero,zero
     e30:	00000021 	move	zero,zero
     e34:	00000021 	move	zero,zero
     e38:	00000021 	move	zero,zero
     e3c:	00000021 	move	zero,zero
     e40:	00000021 	move	zero,zero
     e44:	3c12d301 	lui	s2,0xd301
     e48:	36528d7e 	ori	s2,s2,0x8d7e
     e4c:	00000000 	nop
     e50:	3c14387c 	lui	s4,0x387c
     e54:	369449f4 	ori	s4,s4,0x49f4
     e58:	16141d3e 	bne	s0,s4,8354 <inst_error>
     e5c:	00000000 	nop
     e60:	00000000 	nop
     e64:	3c15d301 	lui	s5,0xd301
     e68:	36b58d7e 	ori	s5,s5,0x8d7e
     e6c:	16551d39 	bne	s2,s5,8354 <inst_error>
     e70:	00000000 	nop
     e74:	00000000 	nop
     e78:	3c0c16af 	lui	t4,0x16af
     e7c:	358c342a 	ori	t4,t4,0x342a
     e80:	3c0dc125 	lui	t5,0xc125
     e84:	35ad9a6f 	ori	t5,t5,0x9a6f
     e88:	24100000 	li	s0,0
     e8c:	1000000b 	b	ebc <n37_j_test+0xebc>
     e90:	24120000 	li	s2,0
     e94:	00000000 	nop
     e98:	3c1016af 	lui	s0,0x16af
     e9c:	080003bb 	j	eec <n37_j_test+0xeec>
     ea0:	3610342a 	ori	s0,s0,0x342a
     ea4:	10000013 	b	ef4 <n37_j_test+0xef4>
     ea8:	00000000 	nop
     eac:	00000000 	nop
     eb0:	00000021 	move	zero,zero
     eb4:	00000021 	move	zero,zero
     eb8:	00000021 	move	zero,zero
     ebc:	080003a6 	j	e98 <n37_j_test+0xe98>
     ec0:	00000000 	nop
     ec4:	1000000b 	b	ef4 <n37_j_test+0xef4>
     ec8:	00000000 	nop
     ecc:	00000000 	nop
     ed0:	00000021 	move	zero,zero
     ed4:	00000021 	move	zero,zero
     ed8:	00000021 	move	zero,zero
     edc:	00000021 	move	zero,zero
     ee0:	00000021 	move	zero,zero
     ee4:	00000021 	move	zero,zero
     ee8:	00000021 	move	zero,zero
     eec:	3c12c125 	lui	s2,0xc125
     ef0:	36529a6f 	ori	s2,s2,0x9a6f
     ef4:	00000000 	nop
     ef8:	3c1416af 	lui	s4,0x16af
     efc:	3694342a 	ori	s4,s4,0x342a
     f00:	16141d14 	bne	s0,s4,8354 <inst_error>
     f04:	00000000 	nop
     f08:	00000000 	nop
     f0c:	3c15c125 	lui	s5,0xc125
     f10:	36b59a6f 	ori	s5,s5,0x9a6f
     f14:	16551d0f 	bne	s2,s5,8354 <inst_error>
     f18:	00000000 	nop
     f1c:	00000000 	nop
     f20:	3c0ce613 	lui	t4,0xe613
     f24:	358c3d00 	ori	t4,t4,0x3d00
     f28:	3c0d0f70 	lui	t5,0xf70
     f2c:	35add074 	ori	t5,t5,0xd074
     f30:	24100000 	li	s0,0
     f34:	1000000b 	b	f64 <n37_j_test+0xf64>
     f38:	24120000 	li	s2,0
     f3c:	00000000 	nop
     f40:	3c10e613 	lui	s0,0xe613
     f44:	080003e5 	j	f94 <n37_j_test+0xf94>
     f48:	36103d00 	ori	s0,s0,0x3d00
     f4c:	10000013 	b	f9c <n37_j_test+0xf9c>
     f50:	00000000 	nop
     f54:	00000000 	nop
     f58:	00000021 	move	zero,zero
     f5c:	00000021 	move	zero,zero
     f60:	00000021 	move	zero,zero
     f64:	080003d0 	j	f40 <n37_j_test+0xf40>
     f68:	00000000 	nop
     f6c:	1000000b 	b	f9c <n37_j_test+0xf9c>
     f70:	00000000 	nop
     f74:	00000000 	nop
     f78:	00000021 	move	zero,zero
     f7c:	00000021 	move	zero,zero
     f80:	00000021 	move	zero,zero
     f84:	00000021 	move	zero,zero
     f88:	00000021 	move	zero,zero
     f8c:	00000021 	move	zero,zero
     f90:	00000021 	move	zero,zero
     f94:	3c120f70 	lui	s2,0xf70
     f98:	3652d074 	ori	s2,s2,0xd074
     f9c:	00000000 	nop
     fa0:	3c14e613 	lui	s4,0xe613
     fa4:	36943d00 	ori	s4,s4,0x3d00
     fa8:	16141cea 	bne	s0,s4,8354 <inst_error>
     fac:	00000000 	nop
     fb0:	00000000 	nop
     fb4:	3c150f70 	lui	s5,0xf70
     fb8:	36b5d074 	ori	s5,s5,0xd074
     fbc:	16551ce5 	bne	s2,s5,8354 <inst_error>
     fc0:	00000000 	nop
     fc4:	00000000 	nop
     fc8:	3c0c07a3 	lui	t4,0x7a3
     fcc:	358c77ee 	ori	t4,t4,0x77ee
     fd0:	3c0d9393 	lui	t5,0x9393
     fd4:	35adffd8 	ori	t5,t5,0xffd8
     fd8:	24100000 	li	s0,0
     fdc:	1000000b 	b	100c <n37_j_test+0x100c>
     fe0:	24120000 	li	s2,0
     fe4:	00000000 	nop
     fe8:	3c1007a3 	lui	s0,0x7a3
     fec:	0800040f 	j	103c <n37_j_test+0x103c>
     ff0:	361077ee 	ori	s0,s0,0x77ee
     ff4:	10000013 	b	1044 <n37_j_test+0x1044>
     ff8:	00000000 	nop
     ffc:	00000000 	nop
    1000:	00000021 	move	zero,zero
    1004:	00000021 	move	zero,zero
    1008:	00000021 	move	zero,zero
    100c:	080003fa 	j	fe8 <n37_j_test+0xfe8>
    1010:	00000000 	nop
    1014:	1000000b 	b	1044 <n37_j_test+0x1044>
    1018:	00000000 	nop
    101c:	00000000 	nop
    1020:	00000021 	move	zero,zero
    1024:	00000021 	move	zero,zero
    1028:	00000021 	move	zero,zero
    102c:	00000021 	move	zero,zero
    1030:	00000021 	move	zero,zero
    1034:	00000021 	move	zero,zero
    1038:	00000021 	move	zero,zero
    103c:	3c129393 	lui	s2,0x9393
    1040:	3652ffd8 	ori	s2,s2,0xffd8
    1044:	00000000 	nop
    1048:	3c1407a3 	lui	s4,0x7a3
    104c:	369477ee 	ori	s4,s4,0x77ee
    1050:	16141cc0 	bne	s0,s4,8354 <inst_error>
    1054:	00000000 	nop
    1058:	00000000 	nop
    105c:	3c159393 	lui	s5,0x9393
    1060:	36b5ffd8 	ori	s5,s5,0xffd8
    1064:	16551cbb 	bne	s2,s5,8354 <inst_error>
    1068:	00000000 	nop
    106c:	00000000 	nop
    1070:	3c0c37b4 	lui	t4,0x37b4
    1074:	358cff00 	ori	t4,t4,0xff00
    1078:	3c0d3e9d 	lui	t5,0x3e9d
    107c:	35ade478 	ori	t5,t5,0xe478
    1080:	24100000 	li	s0,0
    1084:	1000000b 	b	10b4 <n37_j_test+0x10b4>
    1088:	24120000 	li	s2,0
    108c:	00000000 	nop
    1090:	3c1037b4 	lui	s0,0x37b4
    1094:	08000439 	j	10e4 <n37_j_test+0x10e4>
    1098:	3610ff00 	ori	s0,s0,0xff00
    109c:	10000013 	b	10ec <n37_j_test+0x10ec>
    10a0:	00000000 	nop
    10a4:	00000000 	nop
    10a8:	00000021 	move	zero,zero
    10ac:	00000021 	move	zero,zero
    10b0:	00000021 	move	zero,zero
    10b4:	08000424 	j	1090 <n37_j_test+0x1090>
    10b8:	00000000 	nop
    10bc:	1000000b 	b	10ec <n37_j_test+0x10ec>
    10c0:	00000000 	nop
    10c4:	00000000 	nop
    10c8:	00000021 	move	zero,zero
    10cc:	00000021 	move	zero,zero
    10d0:	00000021 	move	zero,zero
    10d4:	00000021 	move	zero,zero
    10d8:	00000021 	move	zero,zero
    10dc:	00000021 	move	zero,zero
    10e0:	00000021 	move	zero,zero
    10e4:	3c123e9d 	lui	s2,0x3e9d
    10e8:	3652e478 	ori	s2,s2,0xe478
    10ec:	00000000 	nop
    10f0:	3c1437b4 	lui	s4,0x37b4
    10f4:	3694ff00 	ori	s4,s4,0xff00
    10f8:	16141c96 	bne	s0,s4,8354 <inst_error>
    10fc:	00000000 	nop
    1100:	00000000 	nop
    1104:	3c153e9d 	lui	s5,0x3e9d
    1108:	36b5e478 	ori	s5,s5,0xe478
    110c:	16551c91 	bne	s2,s5,8354 <inst_error>
    1110:	00000000 	nop
    1114:	00000000 	nop
    1118:	3c0c5950 	lui	t4,0x5950
    111c:	358c1cf0 	ori	t4,t4,0x1cf0
    1120:	3c0ddcdd 	lui	t5,0xdcdd
    1124:	35ad8c00 	ori	t5,t5,0x8c00
    1128:	24100000 	li	s0,0
    112c:	1000000b 	b	115c <n37_j_test+0x115c>
    1130:	24120000 	li	s2,0
    1134:	00000000 	nop
    1138:	3c105950 	lui	s0,0x5950
    113c:	08000463 	j	118c <n37_j_test+0x118c>
    1140:	36101cf0 	ori	s0,s0,0x1cf0
    1144:	10000013 	b	1194 <n37_j_test+0x1194>
    1148:	00000000 	nop
    114c:	00000000 	nop
    1150:	00000021 	move	zero,zero
    1154:	00000021 	move	zero,zero
    1158:	00000021 	move	zero,zero
    115c:	0800044e 	j	1138 <n37_j_test+0x1138>
    1160:	00000000 	nop
    1164:	1000000b 	b	1194 <n37_j_test+0x1194>
    1168:	00000000 	nop
    116c:	00000000 	nop
    1170:	00000021 	move	zero,zero
    1174:	00000021 	move	zero,zero
    1178:	00000021 	move	zero,zero
    117c:	00000021 	move	zero,zero
    1180:	00000021 	move	zero,zero
    1184:	00000021 	move	zero,zero
    1188:	00000021 	move	zero,zero
    118c:	3c12dcdd 	lui	s2,0xdcdd
    1190:	36528c00 	ori	s2,s2,0x8c00
    1194:	00000000 	nop
    1198:	3c145950 	lui	s4,0x5950
    119c:	36941cf0 	ori	s4,s4,0x1cf0
    11a0:	16141c6c 	bne	s0,s4,8354 <inst_error>
    11a4:	00000000 	nop
    11a8:	00000000 	nop
    11ac:	3c15dcdd 	lui	s5,0xdcdd
    11b0:	36b58c00 	ori	s5,s5,0x8c00
    11b4:	16551c67 	bne	s2,s5,8354 <inst_error>
    11b8:	00000000 	nop
    11bc:	00000000 	nop
    11c0:	3c0c8e52 	lui	t4,0x8e52
    11c4:	358cc917 	ori	t4,t4,0xc917
    11c8:	3c0dc752 	lui	t5,0xc752
    11cc:	35ad85f4 	ori	t5,t5,0x85f4
    11d0:	24100000 	li	s0,0
    11d4:	1000000b 	b	1204 <n37_j_test+0x1204>
    11d8:	24120000 	li	s2,0
    11dc:	00000000 	nop
    11e0:	3c108e52 	lui	s0,0x8e52
    11e4:	0800048d 	j	1234 <n37_j_test+0x1234>
    11e8:	3610c917 	ori	s0,s0,0xc917
    11ec:	10000013 	b	123c <n37_j_test+0x123c>
    11f0:	00000000 	nop
    11f4:	00000000 	nop
    11f8:	00000021 	move	zero,zero
    11fc:	00000021 	move	zero,zero
    1200:	00000021 	move	zero,zero
    1204:	08000478 	j	11e0 <n37_j_test+0x11e0>
    1208:	00000000 	nop
    120c:	1000000b 	b	123c <n37_j_test+0x123c>
    1210:	00000000 	nop
    1214:	00000000 	nop
    1218:	00000021 	move	zero,zero
    121c:	00000021 	move	zero,zero
    1220:	00000021 	move	zero,zero
    1224:	00000021 	move	zero,zero
    1228:	00000021 	move	zero,zero
    122c:	00000021 	move	zero,zero
    1230:	00000021 	move	zero,zero
    1234:	3c12c752 	lui	s2,0xc752
    1238:	365285f4 	ori	s2,s2,0x85f4
    123c:	00000000 	nop
    1240:	3c148e52 	lui	s4,0x8e52
    1244:	3694c917 	ori	s4,s4,0xc917
    1248:	16141c42 	bne	s0,s4,8354 <inst_error>
    124c:	00000000 	nop
    1250:	00000000 	nop
    1254:	3c15c752 	lui	s5,0xc752
    1258:	36b585f4 	ori	s5,s5,0x85f4
    125c:	16551c3d 	bne	s2,s5,8354 <inst_error>
    1260:	00000000 	nop
    1264:	00000000 	nop
    1268:	3c0cc1d9 	lui	t4,0xc1d9
    126c:	358cfc00 	ori	t4,t4,0xfc00
    1270:	3c0d487d 	lui	t5,0x487d
    1274:	35ad4402 	ori	t5,t5,0x4402
    1278:	24100000 	li	s0,0
    127c:	1000000b 	b	12ac <n37_j_test+0x12ac>
    1280:	24120000 	li	s2,0
    1284:	00000000 	nop
    1288:	3c10c1d9 	lui	s0,0xc1d9
    128c:	080004b7 	j	12dc <n37_j_test+0x12dc>
    1290:	3610fc00 	ori	s0,s0,0xfc00
    1294:	10000013 	b	12e4 <n37_j_test+0x12e4>
    1298:	00000000 	nop
    129c:	00000000 	nop
    12a0:	00000021 	move	zero,zero
    12a4:	00000021 	move	zero,zero
    12a8:	00000021 	move	zero,zero
    12ac:	080004a2 	j	1288 <n37_j_test+0x1288>
    12b0:	00000000 	nop
    12b4:	1000000b 	b	12e4 <n37_j_test+0x12e4>
    12b8:	00000000 	nop
    12bc:	00000000 	nop
    12c0:	00000021 	move	zero,zero
    12c4:	00000021 	move	zero,zero
    12c8:	00000021 	move	zero,zero
    12cc:	00000021 	move	zero,zero
    12d0:	00000021 	move	zero,zero
    12d4:	00000021 	move	zero,zero
    12d8:	00000021 	move	zero,zero
    12dc:	3c12487d 	lui	s2,0x487d
    12e0:	36524402 	ori	s2,s2,0x4402
    12e4:	00000000 	nop
    12e8:	3c14c1d9 	lui	s4,0xc1d9
    12ec:	3694fc00 	ori	s4,s4,0xfc00
    12f0:	16141c18 	bne	s0,s4,8354 <inst_error>
    12f4:	00000000 	nop
    12f8:	00000000 	nop
    12fc:	3c15487d 	lui	s5,0x487d
    1300:	36b54402 	ori	s5,s5,0x4402
    1304:	16551c13 	bne	s2,s5,8354 <inst_error>
    1308:	00000000 	nop
    130c:	00000000 	nop
    1310:	3c0c83ab 	lui	t4,0x83ab
    1314:	358c68a8 	ori	t4,t4,0x68a8
    1318:	3c0d0db0 	lui	t5,0xdb0
    131c:	35ad3800 	ori	t5,t5,0x3800
    1320:	24100000 	li	s0,0
    1324:	1000000b 	b	1354 <n37_j_test+0x1354>
    1328:	24120000 	li	s2,0
    132c:	00000000 	nop
    1330:	3c1083ab 	lui	s0,0x83ab
    1334:	080004e1 	j	1384 <n37_j_test+0x1384>
    1338:	361068a8 	ori	s0,s0,0x68a8
    133c:	10000013 	b	138c <n37_j_test+0x138c>
    1340:	00000000 	nop
    1344:	00000000 	nop
    1348:	00000021 	move	zero,zero
    134c:	00000021 	move	zero,zero
    1350:	00000021 	move	zero,zero
    1354:	080004cc 	j	1330 <n37_j_test+0x1330>
    1358:	00000000 	nop
    135c:	1000000b 	b	138c <n37_j_test+0x138c>
    1360:	00000000 	nop
    1364:	00000000 	nop
    1368:	00000021 	move	zero,zero
    136c:	00000021 	move	zero,zero
    1370:	00000021 	move	zero,zero
    1374:	00000021 	move	zero,zero
    1378:	00000021 	move	zero,zero
    137c:	00000021 	move	zero,zero
    1380:	00000021 	move	zero,zero
    1384:	3c120db0 	lui	s2,0xdb0
    1388:	36523800 	ori	s2,s2,0x3800
    138c:	00000000 	nop
    1390:	3c1483ab 	lui	s4,0x83ab
    1394:	369468a8 	ori	s4,s4,0x68a8
    1398:	16141bee 	bne	s0,s4,8354 <inst_error>
    139c:	00000000 	nop
    13a0:	00000000 	nop
    13a4:	3c150db0 	lui	s5,0xdb0
    13a8:	36b53800 	ori	s5,s5,0x3800
    13ac:	16551be9 	bne	s2,s5,8354 <inst_error>
    13b0:	00000000 	nop
    13b4:	00000000 	nop
    13b8:	3c0cb7f2 	lui	t4,0xb7f2
    13bc:	358cb8b0 	ori	t4,t4,0xb8b0
    13c0:	3c0d222c 	lui	t5,0x222c
    13c4:	35ad3ce2 	ori	t5,t5,0x3ce2
    13c8:	24100000 	li	s0,0
    13cc:	1000000b 	b	13fc <n37_j_test+0x13fc>
    13d0:	24120000 	li	s2,0
    13d4:	00000000 	nop
    13d8:	3c10b7f2 	lui	s0,0xb7f2
    13dc:	0800050b 	j	142c <n37_j_test+0x142c>
    13e0:	3610b8b0 	ori	s0,s0,0xb8b0
    13e4:	10000013 	b	1434 <n37_j_test+0x1434>
    13e8:	00000000 	nop
    13ec:	00000000 	nop
    13f0:	00000021 	move	zero,zero
    13f4:	00000021 	move	zero,zero
    13f8:	00000021 	move	zero,zero
    13fc:	080004f6 	j	13d8 <n37_j_test+0x13d8>
    1400:	00000000 	nop
    1404:	1000000b 	b	1434 <n37_j_test+0x1434>
    1408:	00000000 	nop
    140c:	00000000 	nop
    1410:	00000021 	move	zero,zero
    1414:	00000021 	move	zero,zero
    1418:	00000021 	move	zero,zero
    141c:	00000021 	move	zero,zero
    1420:	00000021 	move	zero,zero
    1424:	00000021 	move	zero,zero
    1428:	00000021 	move	zero,zero
    142c:	3c12222c 	lui	s2,0x222c
    1430:	36523ce2 	ori	s2,s2,0x3ce2
    1434:	00000000 	nop
    1438:	3c14b7f2 	lui	s4,0xb7f2
    143c:	3694b8b0 	ori	s4,s4,0xb8b0
    1440:	16141bc4 	bne	s0,s4,8354 <inst_error>
    1444:	00000000 	nop
    1448:	00000000 	nop
    144c:	3c15222c 	lui	s5,0x222c
    1450:	36b53ce2 	ori	s5,s5,0x3ce2
    1454:	16551bbf 	bne	s2,s5,8354 <inst_error>
    1458:	00000000 	nop
    145c:	00000000 	nop
    1460:	3c0c78f4 	lui	t4,0x78f4
    1464:	358c77d4 	ori	t4,t4,0x77d4
    1468:	3c0da267 	lui	t5,0xa267
    146c:	35ad9b76 	ori	t5,t5,0x9b76
    1470:	24100000 	li	s0,0
    1474:	1000000b 	b	14a4 <n37_j_test+0x14a4>
    1478:	24120000 	li	s2,0
    147c:	00000000 	nop
    1480:	3c1078f4 	lui	s0,0x78f4
    1484:	08000535 	j	14d4 <n37_j_test+0x14d4>
    1488:	361077d4 	ori	s0,s0,0x77d4
    148c:	10000013 	b	14dc <n37_j_test+0x14dc>
    1490:	00000000 	nop
    1494:	00000000 	nop
    1498:	00000021 	move	zero,zero
    149c:	00000021 	move	zero,zero
    14a0:	00000021 	move	zero,zero
    14a4:	08000520 	j	1480 <n37_j_test+0x1480>
    14a8:	00000000 	nop
    14ac:	1000000b 	b	14dc <n37_j_test+0x14dc>
    14b0:	00000000 	nop
    14b4:	00000000 	nop
    14b8:	00000021 	move	zero,zero
    14bc:	00000021 	move	zero,zero
    14c0:	00000021 	move	zero,zero
    14c4:	00000021 	move	zero,zero
    14c8:	00000021 	move	zero,zero
    14cc:	00000021 	move	zero,zero
    14d0:	00000021 	move	zero,zero
    14d4:	3c12a267 	lui	s2,0xa267
    14d8:	36529b76 	ori	s2,s2,0x9b76
    14dc:	00000000 	nop
    14e0:	3c1478f4 	lui	s4,0x78f4
    14e4:	369477d4 	ori	s4,s4,0x77d4
    14e8:	16141b9a 	bne	s0,s4,8354 <inst_error>
    14ec:	00000000 	nop
    14f0:	00000000 	nop
    14f4:	3c15a267 	lui	s5,0xa267
    14f8:	36b59b76 	ori	s5,s5,0x9b76
    14fc:	16551b95 	bne	s2,s5,8354 <inst_error>
    1500:	00000000 	nop
    1504:	00000000 	nop
    1508:	3c0c93e2 	lui	t4,0x93e2
    150c:	358c3ed2 	ori	t4,t4,0x3ed2
    1510:	3c0d5b65 	lui	t5,0x5b65
    1514:	35ad8fa0 	ori	t5,t5,0x8fa0
    1518:	24100000 	li	s0,0
    151c:	1000000b 	b	154c <n37_j_test+0x154c>
    1520:	24120000 	li	s2,0
    1524:	00000000 	nop
    1528:	3c1093e2 	lui	s0,0x93e2
    152c:	0800055f 	j	157c <n37_j_test+0x157c>
    1530:	36103ed2 	ori	s0,s0,0x3ed2
    1534:	10000013 	b	1584 <n37_j_test+0x1584>
    1538:	00000000 	nop
    153c:	00000000 	nop
    1540:	00000021 	move	zero,zero
    1544:	00000021 	move	zero,zero
    1548:	00000021 	move	zero,zero
    154c:	0800054a 	j	1528 <n37_j_test+0x1528>
    1550:	00000000 	nop
    1554:	1000000b 	b	1584 <n37_j_test+0x1584>
    1558:	00000000 	nop
    155c:	00000000 	nop
    1560:	00000021 	move	zero,zero
    1564:	00000021 	move	zero,zero
    1568:	00000021 	move	zero,zero
    156c:	00000021 	move	zero,zero
    1570:	00000021 	move	zero,zero
    1574:	00000021 	move	zero,zero
    1578:	00000021 	move	zero,zero
    157c:	3c125b65 	lui	s2,0x5b65
    1580:	36528fa0 	ori	s2,s2,0x8fa0
    1584:	00000000 	nop
    1588:	3c1493e2 	lui	s4,0x93e2
    158c:	36943ed2 	ori	s4,s4,0x3ed2
    1590:	16141b70 	bne	s0,s4,8354 <inst_error>
    1594:	00000000 	nop
    1598:	00000000 	nop
    159c:	3c155b65 	lui	s5,0x5b65
    15a0:	36b58fa0 	ori	s5,s5,0x8fa0
    15a4:	16551b6b 	bne	s2,s5,8354 <inst_error>
    15a8:	00000000 	nop
    15ac:	00000000 	nop
    15b0:	3c0c37e7 	lui	t4,0x37e7
    15b4:	358c0c4c 	ori	t4,t4,0xc4c
    15b8:	3c0d49f0 	lui	t5,0x49f0
    15bc:	35add7ae 	ori	t5,t5,0xd7ae
    15c0:	24100000 	li	s0,0
    15c4:	1000000b 	b	15f4 <n37_j_test+0x15f4>
    15c8:	24120000 	li	s2,0
    15cc:	00000000 	nop
    15d0:	3c1037e7 	lui	s0,0x37e7
    15d4:	08000589 	j	1624 <n37_j_test+0x1624>
    15d8:	36100c4c 	ori	s0,s0,0xc4c
    15dc:	10000013 	b	162c <n37_j_test+0x162c>
    15e0:	00000000 	nop
    15e4:	00000000 	nop
    15e8:	00000021 	move	zero,zero
    15ec:	00000021 	move	zero,zero
    15f0:	00000021 	move	zero,zero
    15f4:	08000574 	j	15d0 <n37_j_test+0x15d0>
    15f8:	00000000 	nop
    15fc:	1000000b 	b	162c <n37_j_test+0x162c>
    1600:	00000000 	nop
    1604:	00000000 	nop
    1608:	00000021 	move	zero,zero
    160c:	00000021 	move	zero,zero
    1610:	00000021 	move	zero,zero
    1614:	00000021 	move	zero,zero
    1618:	00000021 	move	zero,zero
    161c:	00000021 	move	zero,zero
    1620:	00000021 	move	zero,zero
    1624:	3c1249f0 	lui	s2,0x49f0
    1628:	3652d7ae 	ori	s2,s2,0xd7ae
    162c:	00000000 	nop
    1630:	3c1437e7 	lui	s4,0x37e7
    1634:	36940c4c 	ori	s4,s4,0xc4c
    1638:	16141b46 	bne	s0,s4,8354 <inst_error>
    163c:	00000000 	nop
    1640:	00000000 	nop
    1644:	3c1549f0 	lui	s5,0x49f0
    1648:	36b5d7ae 	ori	s5,s5,0xd7ae
    164c:	16551b41 	bne	s2,s5,8354 <inst_error>
    1650:	00000000 	nop
    1654:	00000000 	nop
    1658:	3c0c1336 	lui	t4,0x1336
    165c:	358ca0b8 	ori	t4,t4,0xa0b8
    1660:	3c0d6549 	lui	t5,0x6549
    1664:	35ad6158 	ori	t5,t5,0x6158
    1668:	24100000 	li	s0,0
    166c:	1000000b 	b	169c <n37_j_test+0x169c>
    1670:	24120000 	li	s2,0
    1674:	00000000 	nop
    1678:	3c101336 	lui	s0,0x1336
    167c:	080005b3 	j	16cc <n37_j_test+0x16cc>
    1680:	3610a0b8 	ori	s0,s0,0xa0b8
    1684:	10000013 	b	16d4 <n37_j_test+0x16d4>
    1688:	00000000 	nop
    168c:	00000000 	nop
    1690:	00000021 	move	zero,zero
    1694:	00000021 	move	zero,zero
    1698:	00000021 	move	zero,zero
    169c:	0800059e 	j	1678 <n37_j_test+0x1678>
    16a0:	00000000 	nop
    16a4:	1000000b 	b	16d4 <n37_j_test+0x16d4>
    16a8:	00000000 	nop
    16ac:	00000000 	nop
    16b0:	00000021 	move	zero,zero
    16b4:	00000021 	move	zero,zero
    16b8:	00000021 	move	zero,zero
    16bc:	00000021 	move	zero,zero
    16c0:	00000021 	move	zero,zero
    16c4:	00000021 	move	zero,zero
    16c8:	00000021 	move	zero,zero
    16cc:	3c126549 	lui	s2,0x6549
    16d0:	36526158 	ori	s2,s2,0x6158
    16d4:	00000000 	nop
    16d8:	3c141336 	lui	s4,0x1336
    16dc:	3694a0b8 	ori	s4,s4,0xa0b8
    16e0:	16141b1c 	bne	s0,s4,8354 <inst_error>
    16e4:	00000000 	nop
    16e8:	00000000 	nop
    16ec:	3c156549 	lui	s5,0x6549
    16f0:	36b56158 	ori	s5,s5,0x6158
    16f4:	16551b17 	bne	s2,s5,8354 <inst_error>
    16f8:	00000000 	nop
    16fc:	00000000 	nop
    1700:	3c0cbb39 	lui	t4,0xbb39
    1704:	358c6800 	ori	t4,t4,0x6800
    1708:	3c0d9004 	lui	t5,0x9004
    170c:	35adf51c 	ori	t5,t5,0xf51c
    1710:	24100000 	li	s0,0
    1714:	1000000b 	b	1744 <n37_j_test+0x1744>
    1718:	24120000 	li	s2,0
    171c:	00000000 	nop
    1720:	3c10bb39 	lui	s0,0xbb39
    1724:	080005dd 	j	1774 <n37_j_test+0x1774>
    1728:	36106800 	ori	s0,s0,0x6800
    172c:	10000013 	b	177c <n37_j_test+0x177c>
    1730:	00000000 	nop
    1734:	00000000 	nop
    1738:	00000021 	move	zero,zero
    173c:	00000021 	move	zero,zero
    1740:	00000021 	move	zero,zero
    1744:	080005c8 	j	1720 <n37_j_test+0x1720>
    1748:	00000000 	nop
    174c:	1000000b 	b	177c <n37_j_test+0x177c>
    1750:	00000000 	nop
    1754:	00000000 	nop
    1758:	00000021 	move	zero,zero
    175c:	00000021 	move	zero,zero
    1760:	00000021 	move	zero,zero
    1764:	00000021 	move	zero,zero
    1768:	00000021 	move	zero,zero
    176c:	00000021 	move	zero,zero
    1770:	00000021 	move	zero,zero
    1774:	3c129004 	lui	s2,0x9004
    1778:	3652f51c 	ori	s2,s2,0xf51c
    177c:	00000000 	nop
    1780:	3c14bb39 	lui	s4,0xbb39
    1784:	36946800 	ori	s4,s4,0x6800
    1788:	16141af2 	bne	s0,s4,8354 <inst_error>
    178c:	00000000 	nop
    1790:	00000000 	nop
    1794:	3c159004 	lui	s5,0x9004
    1798:	36b5f51c 	ori	s5,s5,0xf51c
    179c:	16551aed 	bne	s2,s5,8354 <inst_error>
    17a0:	00000000 	nop
    17a4:	00000000 	nop
    17a8:	3c0cde73 	lui	t4,0xde73
    17ac:	358c9ecc 	ori	t4,t4,0x9ecc
    17b0:	3c0d8897 	lui	t5,0x8897
    17b4:	35ad9c10 	ori	t5,t5,0x9c10
    17b8:	24100000 	li	s0,0
    17bc:	1000000b 	b	17ec <n37_j_test+0x17ec>
    17c0:	24120000 	li	s2,0
    17c4:	00000000 	nop
    17c8:	3c10de73 	lui	s0,0xde73
    17cc:	08000607 	j	181c <n37_j_test+0x181c>
    17d0:	36109ecc 	ori	s0,s0,0x9ecc
    17d4:	10000013 	b	1824 <n37_j_test+0x1824>
    17d8:	00000000 	nop
    17dc:	00000000 	nop
    17e0:	00000021 	move	zero,zero
    17e4:	00000021 	move	zero,zero
    17e8:	00000021 	move	zero,zero
    17ec:	080005f2 	j	17c8 <n37_j_test+0x17c8>
    17f0:	00000000 	nop
    17f4:	1000000b 	b	1824 <n37_j_test+0x1824>
    17f8:	00000000 	nop
    17fc:	00000000 	nop
    1800:	00000021 	move	zero,zero
    1804:	00000021 	move	zero,zero
    1808:	00000021 	move	zero,zero
    180c:	00000021 	move	zero,zero
    1810:	00000021 	move	zero,zero
    1814:	00000021 	move	zero,zero
    1818:	00000021 	move	zero,zero
    181c:	3c128897 	lui	s2,0x8897
    1820:	36529c10 	ori	s2,s2,0x9c10
    1824:	00000000 	nop
    1828:	3c14de73 	lui	s4,0xde73
    182c:	36949ecc 	ori	s4,s4,0x9ecc
    1830:	16141ac8 	bne	s0,s4,8354 <inst_error>
    1834:	00000000 	nop
    1838:	00000000 	nop
    183c:	3c158897 	lui	s5,0x8897
    1840:	36b59c10 	ori	s5,s5,0x9c10
    1844:	16551ac3 	bne	s2,s5,8354 <inst_error>
    1848:	00000000 	nop
    184c:	00000000 	nop
    1850:	3c0ce8ab 	lui	t4,0xe8ab
    1854:	358c0f02 	ori	t4,t4,0xf02
    1858:	3c0d64c2 	lui	t5,0x64c2
    185c:	35ad9520 	ori	t5,t5,0x9520
    1860:	24100000 	li	s0,0
    1864:	1000000b 	b	1894 <n37_j_test+0x1894>
    1868:	24120000 	li	s2,0
    186c:	00000000 	nop
    1870:	3c10e8ab 	lui	s0,0xe8ab
    1874:	08000631 	j	18c4 <n37_j_test+0x18c4>
    1878:	36100f02 	ori	s0,s0,0xf02
    187c:	10000013 	b	18cc <n37_j_test+0x18cc>
    1880:	00000000 	nop
    1884:	00000000 	nop
    1888:	00000021 	move	zero,zero
    188c:	00000021 	move	zero,zero
    1890:	00000021 	move	zero,zero
    1894:	0800061c 	j	1870 <n37_j_test+0x1870>
    1898:	00000000 	nop
    189c:	1000000b 	b	18cc <n37_j_test+0x18cc>
    18a0:	00000000 	nop
    18a4:	00000000 	nop
    18a8:	00000021 	move	zero,zero
    18ac:	00000021 	move	zero,zero
    18b0:	00000021 	move	zero,zero
    18b4:	00000021 	move	zero,zero
    18b8:	00000021 	move	zero,zero
    18bc:	00000021 	move	zero,zero
    18c0:	00000021 	move	zero,zero
    18c4:	3c1264c2 	lui	s2,0x64c2
    18c8:	36529520 	ori	s2,s2,0x9520
    18cc:	00000000 	nop
    18d0:	3c14e8ab 	lui	s4,0xe8ab
    18d4:	36940f02 	ori	s4,s4,0xf02
    18d8:	16141a9e 	bne	s0,s4,8354 <inst_error>
    18dc:	00000000 	nop
    18e0:	00000000 	nop
    18e4:	3c1564c2 	lui	s5,0x64c2
    18e8:	36b59520 	ori	s5,s5,0x9520
    18ec:	16551a99 	bne	s2,s5,8354 <inst_error>
    18f0:	00000000 	nop
    18f4:	00000000 	nop
    18f8:	3c0c8582 	lui	t4,0x8582
    18fc:	358cdd82 	ori	t4,t4,0xdd82
    1900:	3c0d0689 	lui	t5,0x689
    1904:	35ad4cac 	ori	t5,t5,0x4cac
    1908:	24100000 	li	s0,0
    190c:	1000000b 	b	193c <n37_j_test+0x193c>
    1910:	24120000 	li	s2,0
    1914:	00000000 	nop
    1918:	3c108582 	lui	s0,0x8582
    191c:	0800065b 	j	196c <n37_j_test+0x196c>
    1920:	3610dd82 	ori	s0,s0,0xdd82
    1924:	10000013 	b	1974 <n37_j_test+0x1974>
    1928:	00000000 	nop
    192c:	00000000 	nop
    1930:	00000021 	move	zero,zero
    1934:	00000021 	move	zero,zero
    1938:	00000021 	move	zero,zero
    193c:	08000646 	j	1918 <n37_j_test+0x1918>
    1940:	00000000 	nop
    1944:	1000000b 	b	1974 <n37_j_test+0x1974>
    1948:	00000000 	nop
    194c:	00000000 	nop
    1950:	00000021 	move	zero,zero
    1954:	00000021 	move	zero,zero
    1958:	00000021 	move	zero,zero
    195c:	00000021 	move	zero,zero
    1960:	00000021 	move	zero,zero
    1964:	00000021 	move	zero,zero
    1968:	00000021 	move	zero,zero
    196c:	3c120689 	lui	s2,0x689
    1970:	36524cac 	ori	s2,s2,0x4cac
    1974:	00000000 	nop
    1978:	3c148582 	lui	s4,0x8582
    197c:	3694dd82 	ori	s4,s4,0xdd82
    1980:	16141a74 	bne	s0,s4,8354 <inst_error>
    1984:	00000000 	nop
    1988:	00000000 	nop
    198c:	3c150689 	lui	s5,0x689
    1990:	36b54cac 	ori	s5,s5,0x4cac
    1994:	16551a6f 	bne	s2,s5,8354 <inst_error>
    1998:	00000000 	nop
    199c:	00000000 	nop
    19a0:	3c0c6668 	lui	t4,0x6668
    19a4:	358cfc80 	ori	t4,t4,0xfc80
    19a8:	3c0d7d6c 	lui	t5,0x7d6c
    19ac:	35ad0398 	ori	t5,t5,0x398
    19b0:	24100000 	li	s0,0
    19b4:	1000000b 	b	19e4 <n37_j_test+0x19e4>
    19b8:	24120000 	li	s2,0
    19bc:	00000000 	nop
    19c0:	3c106668 	lui	s0,0x6668
    19c4:	08000685 	j	1a14 <n37_j_test+0x1a14>
    19c8:	3610fc80 	ori	s0,s0,0xfc80
    19cc:	10000013 	b	1a1c <n37_j_test+0x1a1c>
    19d0:	00000000 	nop
    19d4:	00000000 	nop
    19d8:	00000021 	move	zero,zero
    19dc:	00000021 	move	zero,zero
    19e0:	00000021 	move	zero,zero
    19e4:	08000670 	j	19c0 <n37_j_test+0x19c0>
    19e8:	00000000 	nop
    19ec:	1000000b 	b	1a1c <n37_j_test+0x1a1c>
    19f0:	00000000 	nop
    19f4:	00000000 	nop
    19f8:	00000021 	move	zero,zero
    19fc:	00000021 	move	zero,zero
    1a00:	00000021 	move	zero,zero
    1a04:	00000021 	move	zero,zero
    1a08:	00000021 	move	zero,zero
    1a0c:	00000021 	move	zero,zero
    1a10:	00000021 	move	zero,zero
    1a14:	3c127d6c 	lui	s2,0x7d6c
    1a18:	36520398 	ori	s2,s2,0x398
    1a1c:	00000000 	nop
    1a20:	3c146668 	lui	s4,0x6668
    1a24:	3694fc80 	ori	s4,s4,0xfc80
    1a28:	16141a4a 	bne	s0,s4,8354 <inst_error>
    1a2c:	00000000 	nop
    1a30:	00000000 	nop
    1a34:	3c157d6c 	lui	s5,0x7d6c
    1a38:	36b50398 	ori	s5,s5,0x398
    1a3c:	16551a45 	bne	s2,s5,8354 <inst_error>
    1a40:	00000000 	nop
    1a44:	00000000 	nop
    1a48:	3c0c951a 	lui	t4,0x951a
    1a4c:	358c9480 	ori	t4,t4,0x9480
    1a50:	3c0ddd53 	lui	t5,0xdd53
    1a54:	35addd00 	ori	t5,t5,0xdd00
    1a58:	24100000 	li	s0,0
    1a5c:	1000000b 	b	1a8c <n37_j_test+0x1a8c>
    1a60:	24120000 	li	s2,0
    1a64:	00000000 	nop
    1a68:	3c10951a 	lui	s0,0x951a
    1a6c:	080006af 	j	1abc <n37_j_test+0x1abc>
    1a70:	36109480 	ori	s0,s0,0x9480
    1a74:	10000013 	b	1ac4 <n37_j_test+0x1ac4>
    1a78:	00000000 	nop
    1a7c:	00000000 	nop
    1a80:	00000021 	move	zero,zero
    1a84:	00000021 	move	zero,zero
    1a88:	00000021 	move	zero,zero
    1a8c:	0800069a 	j	1a68 <n37_j_test+0x1a68>
    1a90:	00000000 	nop
    1a94:	1000000b 	b	1ac4 <n37_j_test+0x1ac4>
    1a98:	00000000 	nop
    1a9c:	00000000 	nop
    1aa0:	00000021 	move	zero,zero
    1aa4:	00000021 	move	zero,zero
    1aa8:	00000021 	move	zero,zero
    1aac:	00000021 	move	zero,zero
    1ab0:	00000021 	move	zero,zero
    1ab4:	00000021 	move	zero,zero
    1ab8:	00000021 	move	zero,zero
    1abc:	3c12dd53 	lui	s2,0xdd53
    1ac0:	3652dd00 	ori	s2,s2,0xdd00
    1ac4:	00000000 	nop
    1ac8:	3c14951a 	lui	s4,0x951a
    1acc:	36949480 	ori	s4,s4,0x9480
    1ad0:	16141a20 	bne	s0,s4,8354 <inst_error>
    1ad4:	00000000 	nop
    1ad8:	00000000 	nop
    1adc:	3c15dd53 	lui	s5,0xdd53
    1ae0:	36b5dd00 	ori	s5,s5,0xdd00
    1ae4:	16551a1b 	bne	s2,s5,8354 <inst_error>
    1ae8:	00000000 	nop
    1aec:	00000000 	nop
    1af0:	3c0ca3c4 	lui	t4,0xa3c4
    1af4:	358c0440 	ori	t4,t4,0x440
    1af8:	3c0df23a 	lui	t5,0xf23a
    1afc:	35ad9e74 	ori	t5,t5,0x9e74
    1b00:	24100000 	li	s0,0
    1b04:	1000000b 	b	1b34 <n37_j_test+0x1b34>
    1b08:	24120000 	li	s2,0
    1b0c:	00000000 	nop
    1b10:	3c10a3c4 	lui	s0,0xa3c4
    1b14:	080006d9 	j	1b64 <n37_j_test+0x1b64>
    1b18:	36100440 	ori	s0,s0,0x440
    1b1c:	10000013 	b	1b6c <n37_j_test+0x1b6c>
    1b20:	00000000 	nop
    1b24:	00000000 	nop
    1b28:	00000021 	move	zero,zero
    1b2c:	00000021 	move	zero,zero
    1b30:	00000021 	move	zero,zero
    1b34:	080006c4 	j	1b10 <n37_j_test+0x1b10>
    1b38:	00000000 	nop
    1b3c:	1000000b 	b	1b6c <n37_j_test+0x1b6c>
    1b40:	00000000 	nop
    1b44:	00000000 	nop
    1b48:	00000021 	move	zero,zero
    1b4c:	00000021 	move	zero,zero
    1b50:	00000021 	move	zero,zero
    1b54:	00000021 	move	zero,zero
    1b58:	00000021 	move	zero,zero
    1b5c:	00000021 	move	zero,zero
    1b60:	00000021 	move	zero,zero
    1b64:	3c12f23a 	lui	s2,0xf23a
    1b68:	36529e74 	ori	s2,s2,0x9e74
    1b6c:	00000000 	nop
    1b70:	3c14a3c4 	lui	s4,0xa3c4
    1b74:	36940440 	ori	s4,s4,0x440
    1b78:	161419f6 	bne	s0,s4,8354 <inst_error>
    1b7c:	00000000 	nop
    1b80:	00000000 	nop
    1b84:	3c15f23a 	lui	s5,0xf23a
    1b88:	36b59e74 	ori	s5,s5,0x9e74
    1b8c:	165519f1 	bne	s2,s5,8354 <inst_error>
    1b90:	00000000 	nop
    1b94:	00000000 	nop
    1b98:	3c0ce910 	lui	t4,0xe910
    1b9c:	358cdc52 	ori	t4,t4,0xdc52
    1ba0:	3c0dd2b3 	lui	t5,0xd2b3
    1ba4:	35ad76b4 	ori	t5,t5,0x76b4
    1ba8:	24100000 	li	s0,0
    1bac:	1000000b 	b	1bdc <n37_j_test+0x1bdc>
    1bb0:	24120000 	li	s2,0
    1bb4:	00000000 	nop
    1bb8:	3c10e910 	lui	s0,0xe910
    1bbc:	08000703 	j	1c0c <n37_j_test+0x1c0c>
    1bc0:	3610dc52 	ori	s0,s0,0xdc52
    1bc4:	10000013 	b	1c14 <n37_j_test+0x1c14>
    1bc8:	00000000 	nop
    1bcc:	00000000 	nop
    1bd0:	00000021 	move	zero,zero
    1bd4:	00000021 	move	zero,zero
    1bd8:	00000021 	move	zero,zero
    1bdc:	080006ee 	j	1bb8 <n37_j_test+0x1bb8>
    1be0:	00000000 	nop
    1be4:	1000000b 	b	1c14 <n37_j_test+0x1c14>
    1be8:	00000000 	nop
    1bec:	00000000 	nop
    1bf0:	00000021 	move	zero,zero
    1bf4:	00000021 	move	zero,zero
    1bf8:	00000021 	move	zero,zero
    1bfc:	00000021 	move	zero,zero
    1c00:	00000021 	move	zero,zero
    1c04:	00000021 	move	zero,zero
    1c08:	00000021 	move	zero,zero
    1c0c:	3c12d2b3 	lui	s2,0xd2b3
    1c10:	365276b4 	ori	s2,s2,0x76b4
    1c14:	00000000 	nop
    1c18:	3c14e910 	lui	s4,0xe910
    1c1c:	3694dc52 	ori	s4,s4,0xdc52
    1c20:	161419cc 	bne	s0,s4,8354 <inst_error>
    1c24:	00000000 	nop
    1c28:	00000000 	nop
    1c2c:	3c15d2b3 	lui	s5,0xd2b3
    1c30:	36b576b4 	ori	s5,s5,0x76b4
    1c34:	165519c7 	bne	s2,s5,8354 <inst_error>
    1c38:	00000000 	nop
    1c3c:	00000000 	nop
    1c40:	3c0c52f0 	lui	t4,0x52f0
    1c44:	358c5f80 	ori	t4,t4,0x5f80
    1c48:	3c0d8353 	lui	t5,0x8353
    1c4c:	35ad4b60 	ori	t5,t5,0x4b60
    1c50:	24100000 	li	s0,0
    1c54:	1000000b 	b	1c84 <n37_j_test+0x1c84>
    1c58:	24120000 	li	s2,0
    1c5c:	00000000 	nop
    1c60:	3c1052f0 	lui	s0,0x52f0
    1c64:	0800072d 	j	1cb4 <n37_j_test+0x1cb4>
    1c68:	36105f80 	ori	s0,s0,0x5f80
    1c6c:	10000013 	b	1cbc <n37_j_test+0x1cbc>
    1c70:	00000000 	nop
    1c74:	00000000 	nop
    1c78:	00000021 	move	zero,zero
    1c7c:	00000021 	move	zero,zero
    1c80:	00000021 	move	zero,zero
    1c84:	08000718 	j	1c60 <n37_j_test+0x1c60>
    1c88:	00000000 	nop
    1c8c:	1000000b 	b	1cbc <n37_j_test+0x1cbc>
    1c90:	00000000 	nop
    1c94:	00000000 	nop
    1c98:	00000021 	move	zero,zero
    1c9c:	00000021 	move	zero,zero
    1ca0:	00000021 	move	zero,zero
    1ca4:	00000021 	move	zero,zero
    1ca8:	00000021 	move	zero,zero
    1cac:	00000021 	move	zero,zero
    1cb0:	00000021 	move	zero,zero
    1cb4:	3c128353 	lui	s2,0x8353
    1cb8:	36524b60 	ori	s2,s2,0x4b60
    1cbc:	00000000 	nop
    1cc0:	3c1452f0 	lui	s4,0x52f0
    1cc4:	36945f80 	ori	s4,s4,0x5f80
    1cc8:	161419a2 	bne	s0,s4,8354 <inst_error>
    1ccc:	00000000 	nop
    1cd0:	00000000 	nop
    1cd4:	3c158353 	lui	s5,0x8353
    1cd8:	36b54b60 	ori	s5,s5,0x4b60
    1cdc:	1655199d 	bne	s2,s5,8354 <inst_error>
    1ce0:	00000000 	nop
    1ce4:	00000000 	nop
    1ce8:	3c0c5c05 	lui	t4,0x5c05
    1cec:	358c0f7d 	ori	t4,t4,0xf7d
    1cf0:	3c0d3ae1 	lui	t5,0x3ae1
    1cf4:	35adcd78 	ori	t5,t5,0xcd78
    1cf8:	24100000 	li	s0,0
    1cfc:	1000000b 	b	1d2c <n37_j_test+0x1d2c>
    1d00:	24120000 	li	s2,0
    1d04:	00000000 	nop
    1d08:	3c105c05 	lui	s0,0x5c05
    1d0c:	08000757 	j	1d5c <n37_j_test+0x1d5c>
    1d10:	36100f7d 	ori	s0,s0,0xf7d
    1d14:	10000013 	b	1d64 <n37_j_test+0x1d64>
    1d18:	00000000 	nop
    1d1c:	00000000 	nop
    1d20:	00000021 	move	zero,zero
    1d24:	00000021 	move	zero,zero
    1d28:	00000021 	move	zero,zero
    1d2c:	08000742 	j	1d08 <n37_j_test+0x1d08>
    1d30:	00000000 	nop
    1d34:	1000000b 	b	1d64 <n37_j_test+0x1d64>
    1d38:	00000000 	nop
    1d3c:	00000000 	nop
    1d40:	00000021 	move	zero,zero
    1d44:	00000021 	move	zero,zero
    1d48:	00000021 	move	zero,zero
    1d4c:	00000021 	move	zero,zero
    1d50:	00000021 	move	zero,zero
    1d54:	00000021 	move	zero,zero
    1d58:	00000021 	move	zero,zero
    1d5c:	3c123ae1 	lui	s2,0x3ae1
    1d60:	3652cd78 	ori	s2,s2,0xcd78
    1d64:	00000000 	nop
    1d68:	3c145c05 	lui	s4,0x5c05
    1d6c:	36940f7d 	ori	s4,s4,0xf7d
    1d70:	16141978 	bne	s0,s4,8354 <inst_error>
    1d74:	00000000 	nop
    1d78:	00000000 	nop
    1d7c:	3c153ae1 	lui	s5,0x3ae1
    1d80:	36b5cd78 	ori	s5,s5,0xcd78
    1d84:	16551973 	bne	s2,s5,8354 <inst_error>
    1d88:	00000000 	nop
    1d8c:	00000000 	nop
    1d90:	3c0c8019 	lui	t4,0x8019
    1d94:	358c2f96 	ori	t4,t4,0x2f96
    1d98:	3c0d20e3 	lui	t5,0x20e3
    1d9c:	35ade4f6 	ori	t5,t5,0xe4f6
    1da0:	24100000 	li	s0,0
    1da4:	1000000b 	b	1dd4 <n37_j_test+0x1dd4>
    1da8:	24120000 	li	s2,0
    1dac:	00000000 	nop
    1db0:	3c108019 	lui	s0,0x8019
    1db4:	08000781 	j	1e04 <n37_j_test+0x1e04>
    1db8:	36102f96 	ori	s0,s0,0x2f96
    1dbc:	10000013 	b	1e0c <n37_j_test+0x1e0c>
    1dc0:	00000000 	nop
    1dc4:	00000000 	nop
    1dc8:	00000021 	move	zero,zero
    1dcc:	00000021 	move	zero,zero
    1dd0:	00000021 	move	zero,zero
    1dd4:	0800076c 	j	1db0 <n37_j_test+0x1db0>
    1dd8:	00000000 	nop
    1ddc:	1000000b 	b	1e0c <n37_j_test+0x1e0c>
    1de0:	00000000 	nop
    1de4:	00000000 	nop
    1de8:	00000021 	move	zero,zero
    1dec:	00000021 	move	zero,zero
    1df0:	00000021 	move	zero,zero
    1df4:	00000021 	move	zero,zero
    1df8:	00000021 	move	zero,zero
    1dfc:	00000021 	move	zero,zero
    1e00:	00000021 	move	zero,zero
    1e04:	3c1220e3 	lui	s2,0x20e3
    1e08:	3652e4f6 	ori	s2,s2,0xe4f6
    1e0c:	00000000 	nop
    1e10:	3c148019 	lui	s4,0x8019
    1e14:	36942f96 	ori	s4,s4,0x2f96
    1e18:	1614194e 	bne	s0,s4,8354 <inst_error>
    1e1c:	00000000 	nop
    1e20:	00000000 	nop
    1e24:	3c1520e3 	lui	s5,0x20e3
    1e28:	36b5e4f6 	ori	s5,s5,0xe4f6
    1e2c:	16551949 	bne	s2,s5,8354 <inst_error>
    1e30:	00000000 	nop
    1e34:	00000000 	nop
    1e38:	3c0c8fea 	lui	t4,0x8fea
    1e3c:	358c7030 	ori	t4,t4,0x7030
    1e40:	3c0d9e18 	lui	t5,0x9e18
    1e44:	35ad9fe8 	ori	t5,t5,0x9fe8
    1e48:	24100000 	li	s0,0
    1e4c:	1000000b 	b	1e7c <n37_j_test+0x1e7c>
    1e50:	24120000 	li	s2,0
    1e54:	00000000 	nop
    1e58:	3c108fea 	lui	s0,0x8fea
    1e5c:	080007ab 	j	1eac <n37_j_test+0x1eac>
    1e60:	36107030 	ori	s0,s0,0x7030
    1e64:	10000013 	b	1eb4 <n37_j_test+0x1eb4>
    1e68:	00000000 	nop
    1e6c:	00000000 	nop
    1e70:	00000021 	move	zero,zero
    1e74:	00000021 	move	zero,zero
    1e78:	00000021 	move	zero,zero
    1e7c:	08000796 	j	1e58 <n37_j_test+0x1e58>
    1e80:	00000000 	nop
    1e84:	1000000b 	b	1eb4 <n37_j_test+0x1eb4>
    1e88:	00000000 	nop
    1e8c:	00000000 	nop
    1e90:	00000021 	move	zero,zero
    1e94:	00000021 	move	zero,zero
    1e98:	00000021 	move	zero,zero
    1e9c:	00000021 	move	zero,zero
    1ea0:	00000021 	move	zero,zero
    1ea4:	00000021 	move	zero,zero
    1ea8:	00000021 	move	zero,zero
    1eac:	3c129e18 	lui	s2,0x9e18
    1eb0:	36529fe8 	ori	s2,s2,0x9fe8
    1eb4:	00000000 	nop
    1eb8:	3c148fea 	lui	s4,0x8fea
    1ebc:	36947030 	ori	s4,s4,0x7030
    1ec0:	16141924 	bne	s0,s4,8354 <inst_error>
    1ec4:	00000000 	nop
    1ec8:	00000000 	nop
    1ecc:	3c159e18 	lui	s5,0x9e18
    1ed0:	36b59fe8 	ori	s5,s5,0x9fe8
    1ed4:	1655191f 	bne	s2,s5,8354 <inst_error>
    1ed8:	00000000 	nop
    1edc:	00000000 	nop
    1ee0:	3c0cd2c9 	lui	t4,0xd2c9
    1ee4:	358ccbca 	ori	t4,t4,0xcbca
    1ee8:	3c0d306b 	lui	t5,0x306b
    1eec:	35ad3d88 	ori	t5,t5,0x3d88
    1ef0:	24100000 	li	s0,0
    1ef4:	1000000b 	b	1f24 <n37_j_test+0x1f24>
    1ef8:	24120000 	li	s2,0
    1efc:	00000000 	nop
    1f00:	3c10d2c9 	lui	s0,0xd2c9
    1f04:	080007d5 	j	1f54 <n37_j_test+0x1f54>
    1f08:	3610cbca 	ori	s0,s0,0xcbca
    1f0c:	10000013 	b	1f5c <n37_j_test+0x1f5c>
    1f10:	00000000 	nop
    1f14:	00000000 	nop
    1f18:	00000021 	move	zero,zero
    1f1c:	00000021 	move	zero,zero
    1f20:	00000021 	move	zero,zero
    1f24:	080007c0 	j	1f00 <n37_j_test+0x1f00>
    1f28:	00000000 	nop
    1f2c:	1000000b 	b	1f5c <n37_j_test+0x1f5c>
    1f30:	00000000 	nop
    1f34:	00000000 	nop
    1f38:	00000021 	move	zero,zero
    1f3c:	00000021 	move	zero,zero
    1f40:	00000021 	move	zero,zero
    1f44:	00000021 	move	zero,zero
    1f48:	00000021 	move	zero,zero
    1f4c:	00000021 	move	zero,zero
    1f50:	00000021 	move	zero,zero
    1f54:	3c12306b 	lui	s2,0x306b
    1f58:	36523d88 	ori	s2,s2,0x3d88
    1f5c:	00000000 	nop
    1f60:	3c14d2c9 	lui	s4,0xd2c9
    1f64:	3694cbca 	ori	s4,s4,0xcbca
    1f68:	161418fa 	bne	s0,s4,8354 <inst_error>
    1f6c:	00000000 	nop
    1f70:	00000000 	nop
    1f74:	3c15306b 	lui	s5,0x306b
    1f78:	36b53d88 	ori	s5,s5,0x3d88
    1f7c:	165518f5 	bne	s2,s5,8354 <inst_error>
    1f80:	00000000 	nop
    1f84:	00000000 	nop
    1f88:	3c0cce72 	lui	t4,0xce72
    1f8c:	358c8a7e 	ori	t4,t4,0x8a7e
    1f90:	3c0d72d0 	lui	t5,0x72d0
    1f94:	35ad6b00 	ori	t5,t5,0x6b00
    1f98:	24100000 	li	s0,0
    1f9c:	1000000b 	b	1fcc <n37_j_test+0x1fcc>
    1fa0:	24120000 	li	s2,0
    1fa4:	00000000 	nop
    1fa8:	3c10ce72 	lui	s0,0xce72
    1fac:	080007ff 	j	1ffc <n37_j_test+0x1ffc>
    1fb0:	36108a7e 	ori	s0,s0,0x8a7e
    1fb4:	10000013 	b	2004 <n37_j_test+0x2004>
    1fb8:	00000000 	nop
    1fbc:	00000000 	nop
    1fc0:	00000021 	move	zero,zero
    1fc4:	00000021 	move	zero,zero
    1fc8:	00000021 	move	zero,zero
    1fcc:	080007ea 	j	1fa8 <n37_j_test+0x1fa8>
    1fd0:	00000000 	nop
    1fd4:	1000000b 	b	2004 <n37_j_test+0x2004>
    1fd8:	00000000 	nop
    1fdc:	00000000 	nop
    1fe0:	00000021 	move	zero,zero
    1fe4:	00000021 	move	zero,zero
    1fe8:	00000021 	move	zero,zero
    1fec:	00000021 	move	zero,zero
    1ff0:	00000021 	move	zero,zero
    1ff4:	00000021 	move	zero,zero
    1ff8:	00000021 	move	zero,zero
    1ffc:	3c1272d0 	lui	s2,0x72d0
    2000:	36526b00 	ori	s2,s2,0x6b00
    2004:	00000000 	nop
    2008:	3c14ce72 	lui	s4,0xce72
    200c:	36948a7e 	ori	s4,s4,0x8a7e
    2010:	161418d0 	bne	s0,s4,8354 <inst_error>
    2014:	00000000 	nop
    2018:	00000000 	nop
    201c:	3c1572d0 	lui	s5,0x72d0
    2020:	36b56b00 	ori	s5,s5,0x6b00
    2024:	165518cb 	bne	s2,s5,8354 <inst_error>
    2028:	00000000 	nop
    202c:	00000000 	nop
    2030:	3c0cf2e2 	lui	t4,0xf2e2
    2034:	358c96f8 	ori	t4,t4,0x96f8
    2038:	3c0d7c43 	lui	t5,0x7c43
    203c:	35ad02fe 	ori	t5,t5,0x2fe
    2040:	24100000 	li	s0,0
    2044:	1000000b 	b	2074 <n37_j_test+0x2074>
    2048:	24120000 	li	s2,0
    204c:	00000000 	nop
    2050:	3c10f2e2 	lui	s0,0xf2e2
    2054:	08000829 	j	20a4 <n37_j_test+0x20a4>
    2058:	361096f8 	ori	s0,s0,0x96f8
    205c:	10000013 	b	20ac <n37_j_test+0x20ac>
    2060:	00000000 	nop
    2064:	00000000 	nop
    2068:	00000021 	move	zero,zero
    206c:	00000021 	move	zero,zero
    2070:	00000021 	move	zero,zero
    2074:	08000814 	j	2050 <n37_j_test+0x2050>
    2078:	00000000 	nop
    207c:	1000000b 	b	20ac <n37_j_test+0x20ac>
    2080:	00000000 	nop
    2084:	00000000 	nop
    2088:	00000021 	move	zero,zero
    208c:	00000021 	move	zero,zero
    2090:	00000021 	move	zero,zero
    2094:	00000021 	move	zero,zero
    2098:	00000021 	move	zero,zero
    209c:	00000021 	move	zero,zero
    20a0:	00000021 	move	zero,zero
    20a4:	3c127c43 	lui	s2,0x7c43
    20a8:	365202fe 	ori	s2,s2,0x2fe
    20ac:	00000000 	nop
    20b0:	3c14f2e2 	lui	s4,0xf2e2
    20b4:	369496f8 	ori	s4,s4,0x96f8
    20b8:	161418a6 	bne	s0,s4,8354 <inst_error>
    20bc:	00000000 	nop
    20c0:	00000000 	nop
    20c4:	3c157c43 	lui	s5,0x7c43
    20c8:	36b502fe 	ori	s5,s5,0x2fe
    20cc:	165518a1 	bne	s2,s5,8354 <inst_error>
    20d0:	00000000 	nop
    20d4:	00000000 	nop
    20d8:	3c0c66ea 	lui	t4,0x66ea
    20dc:	358c2c7e 	ori	t4,t4,0x2c7e
    20e0:	3c0d8c9b 	lui	t5,0x8c9b
    20e4:	35ad3154 	ori	t5,t5,0x3154
    20e8:	24100000 	li	s0,0
    20ec:	1000000b 	b	211c <n37_j_test+0x211c>
    20f0:	24120000 	li	s2,0
    20f4:	00000000 	nop
    20f8:	3c1066ea 	lui	s0,0x66ea
    20fc:	08000853 	j	214c <n37_j_test+0x214c>
    2100:	36102c7e 	ori	s0,s0,0x2c7e
    2104:	10000013 	b	2154 <n37_j_test+0x2154>
    2108:	00000000 	nop
    210c:	00000000 	nop
    2110:	00000021 	move	zero,zero
    2114:	00000021 	move	zero,zero
    2118:	00000021 	move	zero,zero
    211c:	0800083e 	j	20f8 <n37_j_test+0x20f8>
    2120:	00000000 	nop
    2124:	1000000b 	b	2154 <n37_j_test+0x2154>
    2128:	00000000 	nop
    212c:	00000000 	nop
    2130:	00000021 	move	zero,zero
    2134:	00000021 	move	zero,zero
    2138:	00000021 	move	zero,zero
    213c:	00000021 	move	zero,zero
    2140:	00000021 	move	zero,zero
    2144:	00000021 	move	zero,zero
    2148:	00000021 	move	zero,zero
    214c:	3c128c9b 	lui	s2,0x8c9b
    2150:	36523154 	ori	s2,s2,0x3154
    2154:	00000000 	nop
    2158:	3c1466ea 	lui	s4,0x66ea
    215c:	36942c7e 	ori	s4,s4,0x2c7e
    2160:	1614187c 	bne	s0,s4,8354 <inst_error>
    2164:	00000000 	nop
    2168:	00000000 	nop
    216c:	3c158c9b 	lui	s5,0x8c9b
    2170:	36b53154 	ori	s5,s5,0x3154
    2174:	16551877 	bne	s2,s5,8354 <inst_error>
    2178:	00000000 	nop
    217c:	00000000 	nop
    2180:	3c0c1bd3 	lui	t4,0x1bd3
    2184:	358c568e 	ori	t4,t4,0x568e
    2188:	3c0dd3db 	lui	t5,0xd3db
    218c:	35adcdde 	ori	t5,t5,0xcdde
    2190:	24100000 	li	s0,0
    2194:	1000000b 	b	21c4 <n37_j_test+0x21c4>
    2198:	24120000 	li	s2,0
    219c:	00000000 	nop
    21a0:	3c101bd3 	lui	s0,0x1bd3
    21a4:	0800087d 	j	21f4 <n37_j_test+0x21f4>
    21a8:	3610568e 	ori	s0,s0,0x568e
    21ac:	10000013 	b	21fc <n37_j_test+0x21fc>
    21b0:	00000000 	nop
    21b4:	00000000 	nop
    21b8:	00000021 	move	zero,zero
    21bc:	00000021 	move	zero,zero
    21c0:	00000021 	move	zero,zero
    21c4:	08000868 	j	21a0 <n37_j_test+0x21a0>
    21c8:	00000000 	nop
    21cc:	1000000b 	b	21fc <n37_j_test+0x21fc>
    21d0:	00000000 	nop
    21d4:	00000000 	nop
    21d8:	00000021 	move	zero,zero
    21dc:	00000021 	move	zero,zero
    21e0:	00000021 	move	zero,zero
    21e4:	00000021 	move	zero,zero
    21e8:	00000021 	move	zero,zero
    21ec:	00000021 	move	zero,zero
    21f0:	00000021 	move	zero,zero
    21f4:	3c12d3db 	lui	s2,0xd3db
    21f8:	3652cdde 	ori	s2,s2,0xcdde
    21fc:	00000000 	nop
    2200:	3c141bd3 	lui	s4,0x1bd3
    2204:	3694568e 	ori	s4,s4,0x568e
    2208:	16141852 	bne	s0,s4,8354 <inst_error>
    220c:	00000000 	nop
    2210:	00000000 	nop
    2214:	3c15d3db 	lui	s5,0xd3db
    2218:	36b5cdde 	ori	s5,s5,0xcdde
    221c:	1655184d 	bne	s2,s5,8354 <inst_error>
    2220:	00000000 	nop
    2224:	00000000 	nop
    2228:	3c0c46b4 	lui	t4,0x46b4
    222c:	358c59b8 	ori	t4,t4,0x59b8
    2230:	3c0d5287 	lui	t5,0x5287
    2234:	35adf663 	ori	t5,t5,0xf663
    2238:	24100000 	li	s0,0
    223c:	1000000b 	b	226c <n37_j_test+0x226c>
    2240:	24120000 	li	s2,0
    2244:	00000000 	nop
    2248:	3c1046b4 	lui	s0,0x46b4
    224c:	080008a7 	j	229c <n37_j_test+0x229c>
    2250:	361059b8 	ori	s0,s0,0x59b8
    2254:	10000013 	b	22a4 <n37_j_test+0x22a4>
    2258:	00000000 	nop
    225c:	00000000 	nop
    2260:	00000021 	move	zero,zero
    2264:	00000021 	move	zero,zero
    2268:	00000021 	move	zero,zero
    226c:	08000892 	j	2248 <n37_j_test+0x2248>
    2270:	00000000 	nop
    2274:	1000000b 	b	22a4 <n37_j_test+0x22a4>
    2278:	00000000 	nop
    227c:	00000000 	nop
    2280:	00000021 	move	zero,zero
    2284:	00000021 	move	zero,zero
    2288:	00000021 	move	zero,zero
    228c:	00000021 	move	zero,zero
    2290:	00000021 	move	zero,zero
    2294:	00000021 	move	zero,zero
    2298:	00000021 	move	zero,zero
    229c:	3c125287 	lui	s2,0x5287
    22a0:	3652f663 	ori	s2,s2,0xf663
    22a4:	00000000 	nop
    22a8:	3c1446b4 	lui	s4,0x46b4
    22ac:	369459b8 	ori	s4,s4,0x59b8
    22b0:	16141828 	bne	s0,s4,8354 <inst_error>
    22b4:	00000000 	nop
    22b8:	00000000 	nop
    22bc:	3c155287 	lui	s5,0x5287
    22c0:	36b5f663 	ori	s5,s5,0xf663
    22c4:	16551823 	bne	s2,s5,8354 <inst_error>
    22c8:	00000000 	nop
    22cc:	00000000 	nop
    22d0:	3c0ccc80 	lui	t4,0xcc80
    22d4:	358c085c 	ori	t4,t4,0x85c
    22d8:	3c0dae41 	lui	t5,0xae41
    22dc:	35adec3a 	ori	t5,t5,0xec3a
    22e0:	24100000 	li	s0,0
    22e4:	1000000b 	b	2314 <n37_j_test+0x2314>
    22e8:	24120000 	li	s2,0
    22ec:	00000000 	nop
    22f0:	3c10cc80 	lui	s0,0xcc80
    22f4:	080008d1 	j	2344 <n37_j_test+0x2344>
    22f8:	3610085c 	ori	s0,s0,0x85c
    22fc:	10000013 	b	234c <n37_j_test+0x234c>
    2300:	00000000 	nop
    2304:	00000000 	nop
    2308:	00000021 	move	zero,zero
    230c:	00000021 	move	zero,zero
    2310:	00000021 	move	zero,zero
    2314:	080008bc 	j	22f0 <n37_j_test+0x22f0>
    2318:	00000000 	nop
    231c:	1000000b 	b	234c <n37_j_test+0x234c>
    2320:	00000000 	nop
    2324:	00000000 	nop
    2328:	00000021 	move	zero,zero
    232c:	00000021 	move	zero,zero
    2330:	00000021 	move	zero,zero
    2334:	00000021 	move	zero,zero
    2338:	00000021 	move	zero,zero
    233c:	00000021 	move	zero,zero
    2340:	00000021 	move	zero,zero
    2344:	3c12ae41 	lui	s2,0xae41
    2348:	3652ec3a 	ori	s2,s2,0xec3a
    234c:	00000000 	nop
    2350:	3c14cc80 	lui	s4,0xcc80
    2354:	3694085c 	ori	s4,s4,0x85c
    2358:	161417fe 	bne	s0,s4,8354 <inst_error>
    235c:	00000000 	nop
    2360:	00000000 	nop
    2364:	3c15ae41 	lui	s5,0xae41
    2368:	36b5ec3a 	ori	s5,s5,0xec3a
    236c:	165517f9 	bne	s2,s5,8354 <inst_error>
    2370:	00000000 	nop
    2374:	00000000 	nop
    2378:	3c0c9328 	lui	t4,0x9328
    237c:	358c0140 	ori	t4,t4,0x140
    2380:	3c0de3e9 	lui	t5,0xe3e9
    2384:	35adb590 	ori	t5,t5,0xb590
    2388:	24100000 	li	s0,0
    238c:	1000000b 	b	23bc <n37_j_test+0x23bc>
    2390:	24120000 	li	s2,0
    2394:	00000000 	nop
    2398:	3c109328 	lui	s0,0x9328
    239c:	080008fb 	j	23ec <n37_j_test+0x23ec>
    23a0:	36100140 	ori	s0,s0,0x140
    23a4:	10000013 	b	23f4 <n37_j_test+0x23f4>
    23a8:	00000000 	nop
    23ac:	00000000 	nop
    23b0:	00000021 	move	zero,zero
    23b4:	00000021 	move	zero,zero
    23b8:	00000021 	move	zero,zero
    23bc:	080008e6 	j	2398 <n37_j_test+0x2398>
    23c0:	00000000 	nop
    23c4:	1000000b 	b	23f4 <n37_j_test+0x23f4>
    23c8:	00000000 	nop
    23cc:	00000000 	nop
    23d0:	00000021 	move	zero,zero
    23d4:	00000021 	move	zero,zero
    23d8:	00000021 	move	zero,zero
    23dc:	00000021 	move	zero,zero
    23e0:	00000021 	move	zero,zero
    23e4:	00000021 	move	zero,zero
    23e8:	00000021 	move	zero,zero
    23ec:	3c12e3e9 	lui	s2,0xe3e9
    23f0:	3652b590 	ori	s2,s2,0xb590
    23f4:	00000000 	nop
    23f8:	3c149328 	lui	s4,0x9328
    23fc:	36940140 	ori	s4,s4,0x140
    2400:	161417d4 	bne	s0,s4,8354 <inst_error>
    2404:	00000000 	nop
    2408:	00000000 	nop
    240c:	3c15e3e9 	lui	s5,0xe3e9
    2410:	36b5b590 	ori	s5,s5,0xb590
    2414:	165517cf 	bne	s2,s5,8354 <inst_error>
    2418:	00000000 	nop
    241c:	00000000 	nop
    2420:	3c0c0840 	lui	t4,0x840
    2424:	358c80f8 	ori	t4,t4,0x80f8
    2428:	3c0d8515 	lui	t5,0x8515
    242c:	35ad3d9a 	ori	t5,t5,0x3d9a
    2430:	24100000 	li	s0,0
    2434:	1000000b 	b	2464 <n37_j_test+0x2464>
    2438:	24120000 	li	s2,0
    243c:	00000000 	nop
    2440:	3c100840 	lui	s0,0x840
    2444:	08000925 	j	2494 <n37_j_test+0x2494>
    2448:	361080f8 	ori	s0,s0,0x80f8
    244c:	10000013 	b	249c <n37_j_test+0x249c>
    2450:	00000000 	nop
    2454:	00000000 	nop
    2458:	00000021 	move	zero,zero
    245c:	00000021 	move	zero,zero
    2460:	00000021 	move	zero,zero
    2464:	08000910 	j	2440 <n37_j_test+0x2440>
    2468:	00000000 	nop
    246c:	1000000b 	b	249c <n37_j_test+0x249c>
    2470:	00000000 	nop
    2474:	00000000 	nop
    2478:	00000021 	move	zero,zero
    247c:	00000021 	move	zero,zero
    2480:	00000021 	move	zero,zero
    2484:	00000021 	move	zero,zero
    2488:	00000021 	move	zero,zero
    248c:	00000021 	move	zero,zero
    2490:	00000021 	move	zero,zero
    2494:	3c128515 	lui	s2,0x8515
    2498:	36523d9a 	ori	s2,s2,0x3d9a
    249c:	00000000 	nop
    24a0:	3c140840 	lui	s4,0x840
    24a4:	369480f8 	ori	s4,s4,0x80f8
    24a8:	161417aa 	bne	s0,s4,8354 <inst_error>
    24ac:	00000000 	nop
    24b0:	00000000 	nop
    24b4:	3c158515 	lui	s5,0x8515
    24b8:	36b53d9a 	ori	s5,s5,0x3d9a
    24bc:	165517a5 	bne	s2,s5,8354 <inst_error>
    24c0:	00000000 	nop
    24c4:	00000000 	nop
    24c8:	3c0cd4dc 	lui	t4,0xd4dc
    24cc:	358c9538 	ori	t4,t4,0x9538
    24d0:	3c0d1ee6 	lui	t5,0x1ee6
    24d4:	35adc458 	ori	t5,t5,0xc458
    24d8:	24100000 	li	s0,0
    24dc:	1000000b 	b	250c <n37_j_test+0x250c>
    24e0:	24120000 	li	s2,0
    24e4:	00000000 	nop
    24e8:	3c10d4dc 	lui	s0,0xd4dc
    24ec:	0800094f 	j	253c <n37_j_test+0x253c>
    24f0:	36109538 	ori	s0,s0,0x9538
    24f4:	10000013 	b	2544 <n37_j_test+0x2544>
    24f8:	00000000 	nop
    24fc:	00000000 	nop
    2500:	00000021 	move	zero,zero
    2504:	00000021 	move	zero,zero
    2508:	00000021 	move	zero,zero
    250c:	0800093a 	j	24e8 <n37_j_test+0x24e8>
    2510:	00000000 	nop
    2514:	1000000b 	b	2544 <n37_j_test+0x2544>
    2518:	00000000 	nop
    251c:	00000000 	nop
    2520:	00000021 	move	zero,zero
    2524:	00000021 	move	zero,zero
    2528:	00000021 	move	zero,zero
    252c:	00000021 	move	zero,zero
    2530:	00000021 	move	zero,zero
    2534:	00000021 	move	zero,zero
    2538:	00000021 	move	zero,zero
    253c:	3c121ee6 	lui	s2,0x1ee6
    2540:	3652c458 	ori	s2,s2,0xc458
    2544:	00000000 	nop
    2548:	3c14d4dc 	lui	s4,0xd4dc
    254c:	36949538 	ori	s4,s4,0x9538
    2550:	16141780 	bne	s0,s4,8354 <inst_error>
    2554:	00000000 	nop
    2558:	00000000 	nop
    255c:	3c151ee6 	lui	s5,0x1ee6
    2560:	36b5c458 	ori	s5,s5,0xc458
    2564:	1655177b 	bne	s2,s5,8354 <inst_error>
    2568:	00000000 	nop
    256c:	00000000 	nop
    2570:	3c0c3160 	lui	t4,0x3160
    2574:	358c83f3 	ori	t4,t4,0x83f3
    2578:	3c0d6f4a 	lui	t5,0x6f4a
    257c:	35adefb9 	ori	t5,t5,0xefb9
    2580:	24100000 	li	s0,0
    2584:	1000000b 	b	25b4 <n37_j_test+0x25b4>
    2588:	24120000 	li	s2,0
    258c:	00000000 	nop
    2590:	3c103160 	lui	s0,0x3160
    2594:	08000979 	j	25e4 <n37_j_test+0x25e4>
    2598:	361083f3 	ori	s0,s0,0x83f3
    259c:	10000013 	b	25ec <n37_j_test+0x25ec>
    25a0:	00000000 	nop
    25a4:	00000000 	nop
    25a8:	00000021 	move	zero,zero
    25ac:	00000021 	move	zero,zero
    25b0:	00000021 	move	zero,zero
    25b4:	08000964 	j	2590 <n37_j_test+0x2590>
    25b8:	00000000 	nop
    25bc:	1000000b 	b	25ec <n37_j_test+0x25ec>
    25c0:	00000000 	nop
    25c4:	00000000 	nop
    25c8:	00000021 	move	zero,zero
    25cc:	00000021 	move	zero,zero
    25d0:	00000021 	move	zero,zero
    25d4:	00000021 	move	zero,zero
    25d8:	00000021 	move	zero,zero
    25dc:	00000021 	move	zero,zero
    25e0:	00000021 	move	zero,zero
    25e4:	3c126f4a 	lui	s2,0x6f4a
    25e8:	3652efb9 	ori	s2,s2,0xefb9
    25ec:	00000000 	nop
    25f0:	3c143160 	lui	s4,0x3160
    25f4:	369483f3 	ori	s4,s4,0x83f3
    25f8:	16141756 	bne	s0,s4,8354 <inst_error>
    25fc:	00000000 	nop
    2600:	00000000 	nop
    2604:	3c156f4a 	lui	s5,0x6f4a
    2608:	36b5efb9 	ori	s5,s5,0xefb9
    260c:	16551751 	bne	s2,s5,8354 <inst_error>
    2610:	00000000 	nop
    2614:	00000000 	nop
    2618:	3c0cfe7c 	lui	t4,0xfe7c
    261c:	358c871a 	ori	t4,t4,0x871a
    2620:	3c0d3712 	lui	t5,0x3712
    2624:	35adc654 	ori	t5,t5,0xc654
    2628:	24100000 	li	s0,0
    262c:	1000000b 	b	265c <n37_j_test+0x265c>
    2630:	24120000 	li	s2,0
    2634:	00000000 	nop
    2638:	3c10fe7c 	lui	s0,0xfe7c
    263c:	080009a3 	j	268c <n37_j_test+0x268c>
    2640:	3610871a 	ori	s0,s0,0x871a
    2644:	10000013 	b	2694 <n37_j_test+0x2694>
    2648:	00000000 	nop
    264c:	00000000 	nop
    2650:	00000021 	move	zero,zero
    2654:	00000021 	move	zero,zero
    2658:	00000021 	move	zero,zero
    265c:	0800098e 	j	2638 <n37_j_test+0x2638>
    2660:	00000000 	nop
    2664:	1000000b 	b	2694 <n37_j_test+0x2694>
    2668:	00000000 	nop
    266c:	00000000 	nop
    2670:	00000021 	move	zero,zero
    2674:	00000021 	move	zero,zero
    2678:	00000021 	move	zero,zero
    267c:	00000021 	move	zero,zero
    2680:	00000021 	move	zero,zero
    2684:	00000021 	move	zero,zero
    2688:	00000021 	move	zero,zero
    268c:	3c123712 	lui	s2,0x3712
    2690:	3652c654 	ori	s2,s2,0xc654
    2694:	00000000 	nop
    2698:	3c14fe7c 	lui	s4,0xfe7c
    269c:	3694871a 	ori	s4,s4,0x871a
    26a0:	1614172c 	bne	s0,s4,8354 <inst_error>
    26a4:	00000000 	nop
    26a8:	00000000 	nop
    26ac:	3c153712 	lui	s5,0x3712
    26b0:	36b5c654 	ori	s5,s5,0xc654
    26b4:	16551727 	bne	s2,s5,8354 <inst_error>
    26b8:	00000000 	nop
    26bc:	00000000 	nop
    26c0:	3c0c9978 	lui	t4,0x9978
    26c4:	358c88c0 	ori	t4,t4,0x88c0
    26c8:	3c0d4980 	lui	t5,0x4980
    26cc:	35add790 	ori	t5,t5,0xd790
    26d0:	24100000 	li	s0,0
    26d4:	1000000b 	b	2704 <n37_j_test+0x2704>
    26d8:	24120000 	li	s2,0
    26dc:	00000000 	nop
    26e0:	3c109978 	lui	s0,0x9978
    26e4:	080009cd 	j	2734 <n37_j_test+0x2734>
    26e8:	361088c0 	ori	s0,s0,0x88c0
    26ec:	10000013 	b	273c <n37_j_test+0x273c>
    26f0:	00000000 	nop
    26f4:	00000000 	nop
    26f8:	00000021 	move	zero,zero
    26fc:	00000021 	move	zero,zero
    2700:	00000021 	move	zero,zero
    2704:	080009b8 	j	26e0 <n37_j_test+0x26e0>
    2708:	00000000 	nop
    270c:	1000000b 	b	273c <n37_j_test+0x273c>
    2710:	00000000 	nop
    2714:	00000000 	nop
    2718:	00000021 	move	zero,zero
    271c:	00000021 	move	zero,zero
    2720:	00000021 	move	zero,zero
    2724:	00000021 	move	zero,zero
    2728:	00000021 	move	zero,zero
    272c:	00000021 	move	zero,zero
    2730:	00000021 	move	zero,zero
    2734:	3c124980 	lui	s2,0x4980
    2738:	3652d790 	ori	s2,s2,0xd790
    273c:	00000000 	nop
    2740:	3c149978 	lui	s4,0x9978
    2744:	369488c0 	ori	s4,s4,0x88c0
    2748:	16141702 	bne	s0,s4,8354 <inst_error>
    274c:	00000000 	nop
    2750:	00000000 	nop
    2754:	3c154980 	lui	s5,0x4980
    2758:	36b5d790 	ori	s5,s5,0xd790
    275c:	165516fd 	bne	s2,s5,8354 <inst_error>
    2760:	00000000 	nop
    2764:	00000000 	nop
    2768:	3c0c60af 	lui	t4,0x60af
    276c:	358c9fa4 	ori	t4,t4,0x9fa4
    2770:	3c0d35dd 	lui	t5,0x35dd
    2774:	35ad2200 	ori	t5,t5,0x2200
    2778:	24100000 	li	s0,0
    277c:	1000000b 	b	27ac <n37_j_test+0x27ac>
    2780:	24120000 	li	s2,0
    2784:	00000000 	nop
    2788:	3c1060af 	lui	s0,0x60af
    278c:	080009f7 	j	27dc <n37_j_test+0x27dc>
    2790:	36109fa4 	ori	s0,s0,0x9fa4
    2794:	10000013 	b	27e4 <n37_j_test+0x27e4>
    2798:	00000000 	nop
    279c:	00000000 	nop
    27a0:	00000021 	move	zero,zero
    27a4:	00000021 	move	zero,zero
    27a8:	00000021 	move	zero,zero
    27ac:	080009e2 	j	2788 <n37_j_test+0x2788>
    27b0:	00000000 	nop
    27b4:	1000000b 	b	27e4 <n37_j_test+0x27e4>
    27b8:	00000000 	nop
    27bc:	00000000 	nop
    27c0:	00000021 	move	zero,zero
    27c4:	00000021 	move	zero,zero
    27c8:	00000021 	move	zero,zero
    27cc:	00000021 	move	zero,zero
    27d0:	00000021 	move	zero,zero
    27d4:	00000021 	move	zero,zero
    27d8:	00000021 	move	zero,zero
    27dc:	3c1235dd 	lui	s2,0x35dd
    27e0:	36522200 	ori	s2,s2,0x2200
    27e4:	00000000 	nop
    27e8:	3c1460af 	lui	s4,0x60af
    27ec:	36949fa4 	ori	s4,s4,0x9fa4
    27f0:	161416d8 	bne	s0,s4,8354 <inst_error>
    27f4:	00000000 	nop
    27f8:	00000000 	nop
    27fc:	3c1535dd 	lui	s5,0x35dd
    2800:	36b52200 	ori	s5,s5,0x2200
    2804:	165516d3 	bne	s2,s5,8354 <inst_error>
    2808:	00000000 	nop
    280c:	00000000 	nop
    2810:	3c0c47a3 	lui	t4,0x47a3
    2814:	358c5d90 	ori	t4,t4,0x5d90
    2818:	3c0dcf59 	lui	t5,0xcf59
    281c:	35ad9ca0 	ori	t5,t5,0x9ca0
    2820:	24100000 	li	s0,0
    2824:	1000000b 	b	2854 <n37_j_test+0x2854>
    2828:	24120000 	li	s2,0
    282c:	00000000 	nop
    2830:	3c1047a3 	lui	s0,0x47a3
    2834:	08000a21 	j	2884 <n37_j_test+0x2884>
    2838:	36105d90 	ori	s0,s0,0x5d90
    283c:	10000013 	b	288c <n37_j_test+0x288c>
    2840:	00000000 	nop
    2844:	00000000 	nop
    2848:	00000021 	move	zero,zero
    284c:	00000021 	move	zero,zero
    2850:	00000021 	move	zero,zero
    2854:	08000a0c 	j	2830 <n37_j_test+0x2830>
    2858:	00000000 	nop
    285c:	1000000b 	b	288c <n37_j_test+0x288c>
    2860:	00000000 	nop
    2864:	00000000 	nop
    2868:	00000021 	move	zero,zero
    286c:	00000021 	move	zero,zero
    2870:	00000021 	move	zero,zero
    2874:	00000021 	move	zero,zero
    2878:	00000021 	move	zero,zero
    287c:	00000021 	move	zero,zero
    2880:	00000021 	move	zero,zero
    2884:	3c12cf59 	lui	s2,0xcf59
    2888:	36529ca0 	ori	s2,s2,0x9ca0
    288c:	00000000 	nop
    2890:	3c1447a3 	lui	s4,0x47a3
    2894:	36945d90 	ori	s4,s4,0x5d90
    2898:	161416ae 	bne	s0,s4,8354 <inst_error>
    289c:	00000000 	nop
    28a0:	00000000 	nop
    28a4:	3c15cf59 	lui	s5,0xcf59
    28a8:	36b59ca0 	ori	s5,s5,0x9ca0
    28ac:	165516a9 	bne	s2,s5,8354 <inst_error>
    28b0:	00000000 	nop
    28b4:	00000000 	nop
    28b8:	3c0c91f7 	lui	t4,0x91f7
    28bc:	358cd314 	ori	t4,t4,0xd314
    28c0:	3c0d568e 	lui	t5,0x568e
    28c4:	35add358 	ori	t5,t5,0xd358
    28c8:	24100000 	li	s0,0
    28cc:	1000000b 	b	28fc <n37_j_test+0x28fc>
    28d0:	24120000 	li	s2,0
    28d4:	00000000 	nop
    28d8:	3c1091f7 	lui	s0,0x91f7
    28dc:	08000a4b 	j	292c <n37_j_test+0x292c>
    28e0:	3610d314 	ori	s0,s0,0xd314
    28e4:	10000013 	b	2934 <n37_j_test+0x2934>
    28e8:	00000000 	nop
    28ec:	00000000 	nop
    28f0:	00000021 	move	zero,zero
    28f4:	00000021 	move	zero,zero
    28f8:	00000021 	move	zero,zero
    28fc:	08000a36 	j	28d8 <n37_j_test+0x28d8>
    2900:	00000000 	nop
    2904:	1000000b 	b	2934 <n37_j_test+0x2934>
    2908:	00000000 	nop
    290c:	00000000 	nop
    2910:	00000021 	move	zero,zero
    2914:	00000021 	move	zero,zero
    2918:	00000021 	move	zero,zero
    291c:	00000021 	move	zero,zero
    2920:	00000021 	move	zero,zero
    2924:	00000021 	move	zero,zero
    2928:	00000021 	move	zero,zero
    292c:	3c12568e 	lui	s2,0x568e
    2930:	3652d358 	ori	s2,s2,0xd358
    2934:	00000000 	nop
    2938:	3c1491f7 	lui	s4,0x91f7
    293c:	3694d314 	ori	s4,s4,0xd314
    2940:	16141684 	bne	s0,s4,8354 <inst_error>
    2944:	00000000 	nop
    2948:	00000000 	nop
    294c:	3c15568e 	lui	s5,0x568e
    2950:	36b5d358 	ori	s5,s5,0xd358
    2954:	1655167f 	bne	s2,s5,8354 <inst_error>
    2958:	00000000 	nop
    295c:	00000000 	nop
    2960:	3c0c35d7 	lui	t4,0x35d7
    2964:	358c6d80 	ori	t4,t4,0x6d80
    2968:	3c0db40d 	lui	t5,0xb40d
    296c:	35adf682 	ori	t5,t5,0xf682
    2970:	24100000 	li	s0,0
    2974:	1000000b 	b	29a4 <n37_j_test+0x29a4>
    2978:	24120000 	li	s2,0
    297c:	00000000 	nop
    2980:	3c1035d7 	lui	s0,0x35d7
    2984:	08000a75 	j	29d4 <n37_j_test+0x29d4>
    2988:	36106d80 	ori	s0,s0,0x6d80
    298c:	10000013 	b	29dc <n37_j_test+0x29dc>
    2990:	00000000 	nop
    2994:	00000000 	nop
    2998:	00000021 	move	zero,zero
    299c:	00000021 	move	zero,zero
    29a0:	00000021 	move	zero,zero
    29a4:	08000a60 	j	2980 <n37_j_test+0x2980>
    29a8:	00000000 	nop
    29ac:	1000000b 	b	29dc <n37_j_test+0x29dc>
    29b0:	00000000 	nop
    29b4:	00000000 	nop
    29b8:	00000021 	move	zero,zero
    29bc:	00000021 	move	zero,zero
    29c0:	00000021 	move	zero,zero
    29c4:	00000021 	move	zero,zero
    29c8:	00000021 	move	zero,zero
    29cc:	00000021 	move	zero,zero
    29d0:	00000021 	move	zero,zero
    29d4:	3c12b40d 	lui	s2,0xb40d
    29d8:	3652f682 	ori	s2,s2,0xf682
    29dc:	00000000 	nop
    29e0:	3c1435d7 	lui	s4,0x35d7
    29e4:	36946d80 	ori	s4,s4,0x6d80
    29e8:	1614165a 	bne	s0,s4,8354 <inst_error>
    29ec:	00000000 	nop
    29f0:	00000000 	nop
    29f4:	3c15b40d 	lui	s5,0xb40d
    29f8:	36b5f682 	ori	s5,s5,0xf682
    29fc:	16551655 	bne	s2,s5,8354 <inst_error>
    2a00:	00000000 	nop
    2a04:	00000000 	nop
    2a08:	3c0c2bfd 	lui	t4,0x2bfd
    2a0c:	358caf46 	ori	t4,t4,0xaf46
    2a10:	3c0d71b5 	lui	t5,0x71b5
    2a14:	35ad2e90 	ori	t5,t5,0x2e90
    2a18:	24100000 	li	s0,0
    2a1c:	1000000b 	b	2a4c <n37_j_test+0x2a4c>
    2a20:	24120000 	li	s2,0
    2a24:	00000000 	nop
    2a28:	3c102bfd 	lui	s0,0x2bfd
    2a2c:	08000a9f 	j	2a7c <n37_j_test+0x2a7c>
    2a30:	3610af46 	ori	s0,s0,0xaf46
    2a34:	10000013 	b	2a84 <n37_j_test+0x2a84>
    2a38:	00000000 	nop
    2a3c:	00000000 	nop
    2a40:	00000021 	move	zero,zero
    2a44:	00000021 	move	zero,zero
    2a48:	00000021 	move	zero,zero
    2a4c:	08000a8a 	j	2a28 <n37_j_test+0x2a28>
    2a50:	00000000 	nop
    2a54:	1000000b 	b	2a84 <n37_j_test+0x2a84>
    2a58:	00000000 	nop
    2a5c:	00000000 	nop
    2a60:	00000021 	move	zero,zero
    2a64:	00000021 	move	zero,zero
    2a68:	00000021 	move	zero,zero
    2a6c:	00000021 	move	zero,zero
    2a70:	00000021 	move	zero,zero
    2a74:	00000021 	move	zero,zero
    2a78:	00000021 	move	zero,zero
    2a7c:	3c1271b5 	lui	s2,0x71b5
    2a80:	36522e90 	ori	s2,s2,0x2e90
    2a84:	00000000 	nop
    2a88:	3c142bfd 	lui	s4,0x2bfd
    2a8c:	3694af46 	ori	s4,s4,0xaf46
    2a90:	16141630 	bne	s0,s4,8354 <inst_error>
    2a94:	00000000 	nop
    2a98:	00000000 	nop
    2a9c:	3c1571b5 	lui	s5,0x71b5
    2aa0:	36b52e90 	ori	s5,s5,0x2e90
    2aa4:	1655162b 	bne	s2,s5,8354 <inst_error>
    2aa8:	00000000 	nop
    2aac:	00000000 	nop
    2ab0:	3c0c3edc 	lui	t4,0x3edc
    2ab4:	358ce843 	ori	t4,t4,0xe843
    2ab8:	3c0d9244 	lui	t5,0x9244
    2abc:	35adbb18 	ori	t5,t5,0xbb18
    2ac0:	24100000 	li	s0,0
    2ac4:	1000000b 	b	2af4 <n37_j_test+0x2af4>
    2ac8:	24120000 	li	s2,0
    2acc:	00000000 	nop
    2ad0:	3c103edc 	lui	s0,0x3edc
    2ad4:	08000ac9 	j	2b24 <n37_j_test+0x2b24>
    2ad8:	3610e843 	ori	s0,s0,0xe843
    2adc:	10000013 	b	2b2c <n37_j_test+0x2b2c>
    2ae0:	00000000 	nop
    2ae4:	00000000 	nop
    2ae8:	00000021 	move	zero,zero
    2aec:	00000021 	move	zero,zero
    2af0:	00000021 	move	zero,zero
    2af4:	08000ab4 	j	2ad0 <n37_j_test+0x2ad0>
    2af8:	00000000 	nop
    2afc:	1000000b 	b	2b2c <n37_j_test+0x2b2c>
    2b00:	00000000 	nop
    2b04:	00000000 	nop
    2b08:	00000021 	move	zero,zero
    2b0c:	00000021 	move	zero,zero
    2b10:	00000021 	move	zero,zero
    2b14:	00000021 	move	zero,zero
    2b18:	00000021 	move	zero,zero
    2b1c:	00000021 	move	zero,zero
    2b20:	00000021 	move	zero,zero
    2b24:	3c129244 	lui	s2,0x9244
    2b28:	3652bb18 	ori	s2,s2,0xbb18
    2b2c:	00000000 	nop
    2b30:	3c143edc 	lui	s4,0x3edc
    2b34:	3694e843 	ori	s4,s4,0xe843
    2b38:	16141606 	bne	s0,s4,8354 <inst_error>
    2b3c:	00000000 	nop
    2b40:	00000000 	nop
    2b44:	3c159244 	lui	s5,0x9244
    2b48:	36b5bb18 	ori	s5,s5,0xbb18
    2b4c:	16551601 	bne	s2,s5,8354 <inst_error>
    2b50:	00000000 	nop
    2b54:	00000000 	nop
    2b58:	3c0c5273 	lui	t4,0x5273
    2b5c:	358cfd08 	ori	t4,t4,0xfd08
    2b60:	3c0d1735 	lui	t5,0x1735
    2b64:	35ad8743 	ori	t5,t5,0x8743
    2b68:	24100000 	li	s0,0
    2b6c:	1000000b 	b	2b9c <n37_j_test+0x2b9c>
    2b70:	24120000 	li	s2,0
    2b74:	00000000 	nop
    2b78:	3c105273 	lui	s0,0x5273
    2b7c:	08000af3 	j	2bcc <n37_j_test+0x2bcc>
    2b80:	3610fd08 	ori	s0,s0,0xfd08
    2b84:	10000013 	b	2bd4 <n37_j_test+0x2bd4>
    2b88:	00000000 	nop
    2b8c:	00000000 	nop
    2b90:	00000021 	move	zero,zero
    2b94:	00000021 	move	zero,zero
    2b98:	00000021 	move	zero,zero
    2b9c:	08000ade 	j	2b78 <n37_j_test+0x2b78>
    2ba0:	00000000 	nop
    2ba4:	1000000b 	b	2bd4 <n37_j_test+0x2bd4>
    2ba8:	00000000 	nop
    2bac:	00000000 	nop
    2bb0:	00000021 	move	zero,zero
    2bb4:	00000021 	move	zero,zero
    2bb8:	00000021 	move	zero,zero
    2bbc:	00000021 	move	zero,zero
    2bc0:	00000021 	move	zero,zero
    2bc4:	00000021 	move	zero,zero
    2bc8:	00000021 	move	zero,zero
    2bcc:	3c121735 	lui	s2,0x1735
    2bd0:	36528743 	ori	s2,s2,0x8743
    2bd4:	00000000 	nop
    2bd8:	3c145273 	lui	s4,0x5273
    2bdc:	3694fd08 	ori	s4,s4,0xfd08
    2be0:	161415dc 	bne	s0,s4,8354 <inst_error>
    2be4:	00000000 	nop
    2be8:	00000000 	nop
    2bec:	3c151735 	lui	s5,0x1735
    2bf0:	36b58743 	ori	s5,s5,0x8743
    2bf4:	165515d7 	bne	s2,s5,8354 <inst_error>
    2bf8:	00000000 	nop
    2bfc:	00000000 	nop
    2c00:	3c0cfb4a 	lui	t4,0xfb4a
    2c04:	358c4134 	ori	t4,t4,0x4134
    2c08:	3c0df1c2 	lui	t5,0xf1c2
    2c0c:	35ad6750 	ori	t5,t5,0x6750
    2c10:	24100000 	li	s0,0
    2c14:	1000000b 	b	2c44 <n37_j_test+0x2c44>
    2c18:	24120000 	li	s2,0
    2c1c:	00000000 	nop
    2c20:	3c10fb4a 	lui	s0,0xfb4a
    2c24:	08000b1d 	j	2c74 <n37_j_test+0x2c74>
    2c28:	36104134 	ori	s0,s0,0x4134
    2c2c:	10000013 	b	2c7c <n37_j_test+0x2c7c>
    2c30:	00000000 	nop
    2c34:	00000000 	nop
    2c38:	00000021 	move	zero,zero
    2c3c:	00000021 	move	zero,zero
    2c40:	00000021 	move	zero,zero
    2c44:	08000b08 	j	2c20 <n37_j_test+0x2c20>
    2c48:	00000000 	nop
    2c4c:	1000000b 	b	2c7c <n37_j_test+0x2c7c>
    2c50:	00000000 	nop
    2c54:	00000000 	nop
    2c58:	00000021 	move	zero,zero
    2c5c:	00000021 	move	zero,zero
    2c60:	00000021 	move	zero,zero
    2c64:	00000021 	move	zero,zero
    2c68:	00000021 	move	zero,zero
    2c6c:	00000021 	move	zero,zero
    2c70:	00000021 	move	zero,zero
    2c74:	3c12f1c2 	lui	s2,0xf1c2
    2c78:	36526750 	ori	s2,s2,0x6750
    2c7c:	00000000 	nop
    2c80:	3c14fb4a 	lui	s4,0xfb4a
    2c84:	36944134 	ori	s4,s4,0x4134
    2c88:	161415b2 	bne	s0,s4,8354 <inst_error>
    2c8c:	00000000 	nop
    2c90:	00000000 	nop
    2c94:	3c15f1c2 	lui	s5,0xf1c2
    2c98:	36b56750 	ori	s5,s5,0x6750
    2c9c:	165515ad 	bne	s2,s5,8354 <inst_error>
    2ca0:	00000000 	nop
    2ca4:	00000000 	nop
    2ca8:	3c0ca359 	lui	t4,0xa359
    2cac:	358cf930 	ori	t4,t4,0xf930
    2cb0:	3c0d84e5 	lui	t5,0x84e5
    2cb4:	35addfc4 	ori	t5,t5,0xdfc4
    2cb8:	24100000 	li	s0,0
    2cbc:	1000000b 	b	2cec <n37_j_test+0x2cec>
    2cc0:	24120000 	li	s2,0
    2cc4:	00000000 	nop
    2cc8:	3c10a359 	lui	s0,0xa359
    2ccc:	08000b47 	j	2d1c <n37_j_test+0x2d1c>
    2cd0:	3610f930 	ori	s0,s0,0xf930
    2cd4:	10000013 	b	2d24 <n37_j_test+0x2d24>
    2cd8:	00000000 	nop
    2cdc:	00000000 	nop
    2ce0:	00000021 	move	zero,zero
    2ce4:	00000021 	move	zero,zero
    2ce8:	00000021 	move	zero,zero
    2cec:	08000b32 	j	2cc8 <n37_j_test+0x2cc8>
    2cf0:	00000000 	nop
    2cf4:	1000000b 	b	2d24 <n37_j_test+0x2d24>
    2cf8:	00000000 	nop
    2cfc:	00000000 	nop
    2d00:	00000021 	move	zero,zero
    2d04:	00000021 	move	zero,zero
    2d08:	00000021 	move	zero,zero
    2d0c:	00000021 	move	zero,zero
    2d10:	00000021 	move	zero,zero
    2d14:	00000021 	move	zero,zero
    2d18:	00000021 	move	zero,zero
    2d1c:	3c1284e5 	lui	s2,0x84e5
    2d20:	3652dfc4 	ori	s2,s2,0xdfc4
    2d24:	00000000 	nop
    2d28:	3c14a359 	lui	s4,0xa359
    2d2c:	3694f930 	ori	s4,s4,0xf930
    2d30:	16141588 	bne	s0,s4,8354 <inst_error>
    2d34:	00000000 	nop
    2d38:	00000000 	nop
    2d3c:	3c1584e5 	lui	s5,0x84e5
    2d40:	36b5dfc4 	ori	s5,s5,0xdfc4
    2d44:	16551583 	bne	s2,s5,8354 <inst_error>
    2d48:	00000000 	nop
    2d4c:	00000000 	nop
    2d50:	3c0c8be3 	lui	t4,0x8be3
    2d54:	358ce4cf 	ori	t4,t4,0xe4cf
    2d58:	3c0db44d 	lui	t5,0xb44d
    2d5c:	35ad32db 	ori	t5,t5,0x32db
    2d60:	24100000 	li	s0,0
    2d64:	1000000b 	b	2d94 <n37_j_test+0x2d94>
    2d68:	24120000 	li	s2,0
    2d6c:	00000000 	nop
    2d70:	3c108be3 	lui	s0,0x8be3
    2d74:	08000b71 	j	2dc4 <n37_j_test+0x2dc4>
    2d78:	3610e4cf 	ori	s0,s0,0xe4cf
    2d7c:	10000013 	b	2dcc <n37_j_test+0x2dcc>
    2d80:	00000000 	nop
    2d84:	00000000 	nop
    2d88:	00000021 	move	zero,zero
    2d8c:	00000021 	move	zero,zero
    2d90:	00000021 	move	zero,zero
    2d94:	08000b5c 	j	2d70 <n37_j_test+0x2d70>
    2d98:	00000000 	nop
    2d9c:	1000000b 	b	2dcc <n37_j_test+0x2dcc>
    2da0:	00000000 	nop
    2da4:	00000000 	nop
    2da8:	00000021 	move	zero,zero
    2dac:	00000021 	move	zero,zero
    2db0:	00000021 	move	zero,zero
    2db4:	00000021 	move	zero,zero
    2db8:	00000021 	move	zero,zero
    2dbc:	00000021 	move	zero,zero
    2dc0:	00000021 	move	zero,zero
    2dc4:	3c12b44d 	lui	s2,0xb44d
    2dc8:	365232db 	ori	s2,s2,0x32db
    2dcc:	00000000 	nop
    2dd0:	3c148be3 	lui	s4,0x8be3
    2dd4:	3694e4cf 	ori	s4,s4,0xe4cf
    2dd8:	1614155e 	bne	s0,s4,8354 <inst_error>
    2ddc:	00000000 	nop
    2de0:	00000000 	nop
    2de4:	3c15b44d 	lui	s5,0xb44d
    2de8:	36b532db 	ori	s5,s5,0x32db
    2dec:	16551559 	bne	s2,s5,8354 <inst_error>
    2df0:	00000000 	nop
    2df4:	00000000 	nop
    2df8:	3c0c20a6 	lui	t4,0x20a6
    2dfc:	358c3240 	ori	t4,t4,0x3240
    2e00:	3c0d4c3f 	lui	t5,0x4c3f
    2e04:	35adee78 	ori	t5,t5,0xee78
    2e08:	24100000 	li	s0,0
    2e0c:	1000000b 	b	2e3c <n37_j_test+0x2e3c>
    2e10:	24120000 	li	s2,0
    2e14:	00000000 	nop
    2e18:	3c1020a6 	lui	s0,0x20a6
    2e1c:	08000b9b 	j	2e6c <n37_j_test+0x2e6c>
    2e20:	36103240 	ori	s0,s0,0x3240
    2e24:	10000013 	b	2e74 <n37_j_test+0x2e74>
    2e28:	00000000 	nop
    2e2c:	00000000 	nop
    2e30:	00000021 	move	zero,zero
    2e34:	00000021 	move	zero,zero
    2e38:	00000021 	move	zero,zero
    2e3c:	08000b86 	j	2e18 <n37_j_test+0x2e18>
    2e40:	00000000 	nop
    2e44:	1000000b 	b	2e74 <n37_j_test+0x2e74>
    2e48:	00000000 	nop
    2e4c:	00000000 	nop
    2e50:	00000021 	move	zero,zero
    2e54:	00000021 	move	zero,zero
    2e58:	00000021 	move	zero,zero
    2e5c:	00000021 	move	zero,zero
    2e60:	00000021 	move	zero,zero
    2e64:	00000021 	move	zero,zero
    2e68:	00000021 	move	zero,zero
    2e6c:	3c124c3f 	lui	s2,0x4c3f
    2e70:	3652ee78 	ori	s2,s2,0xee78
    2e74:	00000000 	nop
    2e78:	3c1420a6 	lui	s4,0x20a6
    2e7c:	36943240 	ori	s4,s4,0x3240
    2e80:	16141534 	bne	s0,s4,8354 <inst_error>
    2e84:	00000000 	nop
    2e88:	00000000 	nop
    2e8c:	3c154c3f 	lui	s5,0x4c3f
    2e90:	36b5ee78 	ori	s5,s5,0xee78
    2e94:	1655152f 	bne	s2,s5,8354 <inst_error>
    2e98:	00000000 	nop
    2e9c:	00000000 	nop
    2ea0:	3c0c479b 	lui	t4,0x479b
    2ea4:	358c3d54 	ori	t4,t4,0x3d54
    2ea8:	3c0d46df 	lui	t5,0x46df
    2eac:	35ad1dfb 	ori	t5,t5,0x1dfb
    2eb0:	24100000 	li	s0,0
    2eb4:	1000000b 	b	2ee4 <n37_j_test+0x2ee4>
    2eb8:	24120000 	li	s2,0
    2ebc:	00000000 	nop
    2ec0:	3c10479b 	lui	s0,0x479b
    2ec4:	08000bc5 	j	2f14 <n37_j_test+0x2f14>
    2ec8:	36103d54 	ori	s0,s0,0x3d54
    2ecc:	10000013 	b	2f1c <n37_j_test+0x2f1c>
    2ed0:	00000000 	nop
    2ed4:	00000000 	nop
    2ed8:	00000021 	move	zero,zero
    2edc:	00000021 	move	zero,zero
    2ee0:	00000021 	move	zero,zero
    2ee4:	08000bb0 	j	2ec0 <n37_j_test+0x2ec0>
    2ee8:	00000000 	nop
    2eec:	1000000b 	b	2f1c <n37_j_test+0x2f1c>
    2ef0:	00000000 	nop
    2ef4:	00000000 	nop
    2ef8:	00000021 	move	zero,zero
    2efc:	00000021 	move	zero,zero
    2f00:	00000021 	move	zero,zero
    2f04:	00000021 	move	zero,zero
    2f08:	00000021 	move	zero,zero
    2f0c:	00000021 	move	zero,zero
    2f10:	00000021 	move	zero,zero
    2f14:	3c1246df 	lui	s2,0x46df
    2f18:	36521dfb 	ori	s2,s2,0x1dfb
    2f1c:	00000000 	nop
    2f20:	3c14479b 	lui	s4,0x479b
    2f24:	36943d54 	ori	s4,s4,0x3d54
    2f28:	1614150a 	bne	s0,s4,8354 <inst_error>
    2f2c:	00000000 	nop
    2f30:	00000000 	nop
    2f34:	3c1546df 	lui	s5,0x46df
    2f38:	36b51dfb 	ori	s5,s5,0x1dfb
    2f3c:	16551505 	bne	s2,s5,8354 <inst_error>
    2f40:	00000000 	nop
    2f44:	00000000 	nop
    2f48:	3c0c518a 	lui	t4,0x518a
    2f4c:	358c4940 	ori	t4,t4,0x4940
    2f50:	3c0d5e1d 	lui	t5,0x5e1d
    2f54:	35ad0288 	ori	t5,t5,0x288
    2f58:	24100000 	li	s0,0
    2f5c:	1000000b 	b	2f8c <n37_j_test+0x2f8c>
    2f60:	24120000 	li	s2,0
    2f64:	00000000 	nop
    2f68:	3c10518a 	lui	s0,0x518a
    2f6c:	08000bef 	j	2fbc <n37_j_test+0x2fbc>
    2f70:	36104940 	ori	s0,s0,0x4940
    2f74:	10000013 	b	2fc4 <n37_j_test+0x2fc4>
    2f78:	00000000 	nop
    2f7c:	00000000 	nop
    2f80:	00000021 	move	zero,zero
    2f84:	00000021 	move	zero,zero
    2f88:	00000021 	move	zero,zero
    2f8c:	08000bda 	j	2f68 <n37_j_test+0x2f68>
    2f90:	00000000 	nop
    2f94:	1000000b 	b	2fc4 <n37_j_test+0x2fc4>
    2f98:	00000000 	nop
    2f9c:	00000000 	nop
    2fa0:	00000021 	move	zero,zero
    2fa4:	00000021 	move	zero,zero
    2fa8:	00000021 	move	zero,zero
    2fac:	00000021 	move	zero,zero
    2fb0:	00000021 	move	zero,zero
    2fb4:	00000021 	move	zero,zero
    2fb8:	00000021 	move	zero,zero
    2fbc:	3c125e1d 	lui	s2,0x5e1d
    2fc0:	36520288 	ori	s2,s2,0x288
    2fc4:	00000000 	nop
    2fc8:	3c14518a 	lui	s4,0x518a
    2fcc:	36944940 	ori	s4,s4,0x4940
    2fd0:	161414e0 	bne	s0,s4,8354 <inst_error>
    2fd4:	00000000 	nop
    2fd8:	00000000 	nop
    2fdc:	3c155e1d 	lui	s5,0x5e1d
    2fe0:	36b50288 	ori	s5,s5,0x288
    2fe4:	165514db 	bne	s2,s5,8354 <inst_error>
    2fe8:	00000000 	nop
    2fec:	00000000 	nop
    2ff0:	3c0c3623 	lui	t4,0x3623
    2ff4:	358c7e64 	ori	t4,t4,0x7e64
    2ff8:	3c0d1330 	lui	t5,0x1330
    2ffc:	35adac2a 	ori	t5,t5,0xac2a
    3000:	24100000 	li	s0,0
    3004:	1000000b 	b	3034 <n37_j_test+0x3034>
    3008:	24120000 	li	s2,0
    300c:	00000000 	nop
    3010:	3c103623 	lui	s0,0x3623
    3014:	08000c19 	j	3064 <n37_j_test+0x3064>
    3018:	36107e64 	ori	s0,s0,0x7e64
    301c:	10000013 	b	306c <n37_j_test+0x306c>
    3020:	00000000 	nop
    3024:	00000000 	nop
    3028:	00000021 	move	zero,zero
    302c:	00000021 	move	zero,zero
    3030:	00000021 	move	zero,zero
    3034:	08000c04 	j	3010 <n37_j_test+0x3010>
    3038:	00000000 	nop
    303c:	1000000b 	b	306c <n37_j_test+0x306c>
    3040:	00000000 	nop
    3044:	00000000 	nop
    3048:	00000021 	move	zero,zero
    304c:	00000021 	move	zero,zero
    3050:	00000021 	move	zero,zero
    3054:	00000021 	move	zero,zero
    3058:	00000021 	move	zero,zero
    305c:	00000021 	move	zero,zero
    3060:	00000021 	move	zero,zero
    3064:	3c121330 	lui	s2,0x1330
    3068:	3652ac2a 	ori	s2,s2,0xac2a
    306c:	00000000 	nop
    3070:	3c143623 	lui	s4,0x3623
    3074:	36947e64 	ori	s4,s4,0x7e64
    3078:	161414b6 	bne	s0,s4,8354 <inst_error>
    307c:	00000000 	nop
    3080:	00000000 	nop
    3084:	3c151330 	lui	s5,0x1330
    3088:	36b5ac2a 	ori	s5,s5,0xac2a
    308c:	165514b1 	bne	s2,s5,8354 <inst_error>
    3090:	00000000 	nop
    3094:	00000000 	nop
    3098:	3c0cad06 	lui	t4,0xad06
    309c:	358c6b28 	ori	t4,t4,0x6b28
    30a0:	3c0dffea 	lui	t5,0xffea
    30a4:	35add346 	ori	t5,t5,0xd346
    30a8:	24100000 	li	s0,0
    30ac:	1000000b 	b	30dc <n37_j_test+0x30dc>
    30b0:	24120000 	li	s2,0
    30b4:	00000000 	nop
    30b8:	3c10ad06 	lui	s0,0xad06
    30bc:	08000c43 	j	310c <n37_j_test+0x310c>
    30c0:	36106b28 	ori	s0,s0,0x6b28
    30c4:	10000013 	b	3114 <n37_j_test+0x3114>
    30c8:	00000000 	nop
    30cc:	00000000 	nop
    30d0:	00000021 	move	zero,zero
    30d4:	00000021 	move	zero,zero
    30d8:	00000021 	move	zero,zero
    30dc:	08000c2e 	j	30b8 <n37_j_test+0x30b8>
    30e0:	00000000 	nop
    30e4:	1000000b 	b	3114 <n37_j_test+0x3114>
    30e8:	00000000 	nop
    30ec:	00000000 	nop
    30f0:	00000021 	move	zero,zero
    30f4:	00000021 	move	zero,zero
    30f8:	00000021 	move	zero,zero
    30fc:	00000021 	move	zero,zero
    3100:	00000021 	move	zero,zero
    3104:	00000021 	move	zero,zero
    3108:	00000021 	move	zero,zero
    310c:	3c12ffea 	lui	s2,0xffea
    3110:	3652d346 	ori	s2,s2,0xd346
    3114:	00000000 	nop
    3118:	3c14ad06 	lui	s4,0xad06
    311c:	36946b28 	ori	s4,s4,0x6b28
    3120:	1614148c 	bne	s0,s4,8354 <inst_error>
    3124:	00000000 	nop
    3128:	00000000 	nop
    312c:	3c15ffea 	lui	s5,0xffea
    3130:	36b5d346 	ori	s5,s5,0xd346
    3134:	16551487 	bne	s2,s5,8354 <inst_error>
    3138:	00000000 	nop
    313c:	00000000 	nop
    3140:	3c0c4ee3 	lui	t4,0x4ee3
    3144:	358cba5a 	ori	t4,t4,0xba5a
    3148:	3c0db042 	lui	t5,0xb042
    314c:	35ad3218 	ori	t5,t5,0x3218
    3150:	24100000 	li	s0,0
    3154:	1000000b 	b	3184 <n37_j_test+0x3184>
    3158:	24120000 	li	s2,0
    315c:	00000000 	nop
    3160:	3c104ee3 	lui	s0,0x4ee3
    3164:	08000c6d 	j	31b4 <n37_j_test+0x31b4>
    3168:	3610ba5a 	ori	s0,s0,0xba5a
    316c:	10000013 	b	31bc <n37_j_test+0x31bc>
    3170:	00000000 	nop
    3174:	00000000 	nop
    3178:	00000021 	move	zero,zero
    317c:	00000021 	move	zero,zero
    3180:	00000021 	move	zero,zero
    3184:	08000c58 	j	3160 <n37_j_test+0x3160>
    3188:	00000000 	nop
    318c:	1000000b 	b	31bc <n37_j_test+0x31bc>
    3190:	00000000 	nop
    3194:	00000000 	nop
    3198:	00000021 	move	zero,zero
    319c:	00000021 	move	zero,zero
    31a0:	00000021 	move	zero,zero
    31a4:	00000021 	move	zero,zero
    31a8:	00000021 	move	zero,zero
    31ac:	00000021 	move	zero,zero
    31b0:	00000021 	move	zero,zero
    31b4:	3c12b042 	lui	s2,0xb042
    31b8:	36523218 	ori	s2,s2,0x3218
    31bc:	00000000 	nop
    31c0:	3c144ee3 	lui	s4,0x4ee3
    31c4:	3694ba5a 	ori	s4,s4,0xba5a
    31c8:	16141462 	bne	s0,s4,8354 <inst_error>
    31cc:	00000000 	nop
    31d0:	00000000 	nop
    31d4:	3c15b042 	lui	s5,0xb042
    31d8:	36b53218 	ori	s5,s5,0x3218
    31dc:	1655145d 	bne	s2,s5,8354 <inst_error>
    31e0:	00000000 	nop
    31e4:	00000000 	nop
    31e8:	3c0c0347 	lui	t4,0x347
    31ec:	358cdbc4 	ori	t4,t4,0xdbc4
    31f0:	3c0dbb5e 	lui	t5,0xbb5e
    31f4:	35adcfa8 	ori	t5,t5,0xcfa8
    31f8:	24100000 	li	s0,0
    31fc:	1000000b 	b	322c <n37_j_test+0x322c>
    3200:	24120000 	li	s2,0
    3204:	00000000 	nop
    3208:	3c100347 	lui	s0,0x347
    320c:	08000c97 	j	325c <n37_j_test+0x325c>
    3210:	3610dbc4 	ori	s0,s0,0xdbc4
    3214:	10000013 	b	3264 <n37_j_test+0x3264>
    3218:	00000000 	nop
    321c:	00000000 	nop
    3220:	00000021 	move	zero,zero
    3224:	00000021 	move	zero,zero
    3228:	00000021 	move	zero,zero
    322c:	08000c82 	j	3208 <n37_j_test+0x3208>
    3230:	00000000 	nop
    3234:	1000000b 	b	3264 <n37_j_test+0x3264>
    3238:	00000000 	nop
    323c:	00000000 	nop
    3240:	00000021 	move	zero,zero
    3244:	00000021 	move	zero,zero
    3248:	00000021 	move	zero,zero
    324c:	00000021 	move	zero,zero
    3250:	00000021 	move	zero,zero
    3254:	00000021 	move	zero,zero
    3258:	00000021 	move	zero,zero
    325c:	3c12bb5e 	lui	s2,0xbb5e
    3260:	3652cfa8 	ori	s2,s2,0xcfa8
    3264:	00000000 	nop
    3268:	3c140347 	lui	s4,0x347
    326c:	3694dbc4 	ori	s4,s4,0xdbc4
    3270:	16141438 	bne	s0,s4,8354 <inst_error>
    3274:	00000000 	nop
    3278:	00000000 	nop
    327c:	3c15bb5e 	lui	s5,0xbb5e
    3280:	36b5cfa8 	ori	s5,s5,0xcfa8
    3284:	16551433 	bne	s2,s5,8354 <inst_error>
    3288:	00000000 	nop
    328c:	00000000 	nop
    3290:	3c0c67ae 	lui	t4,0x67ae
    3294:	358c1e29 	ori	t4,t4,0x1e29
    3298:	3c0ded14 	lui	t5,0xed14
    329c:	35ad1958 	ori	t5,t5,0x1958
    32a0:	24100000 	li	s0,0
    32a4:	1000000b 	b	32d4 <n37_j_test+0x32d4>
    32a8:	24120000 	li	s2,0
    32ac:	00000000 	nop
    32b0:	3c1067ae 	lui	s0,0x67ae
    32b4:	08000cc1 	j	3304 <n37_j_test+0x3304>
    32b8:	36101e29 	ori	s0,s0,0x1e29
    32bc:	10000013 	b	330c <n37_j_test+0x330c>
    32c0:	00000000 	nop
    32c4:	00000000 	nop
    32c8:	00000021 	move	zero,zero
    32cc:	00000021 	move	zero,zero
    32d0:	00000021 	move	zero,zero
    32d4:	08000cac 	j	32b0 <n37_j_test+0x32b0>
    32d8:	00000000 	nop
    32dc:	1000000b 	b	330c <n37_j_test+0x330c>
    32e0:	00000000 	nop
    32e4:	00000000 	nop
    32e8:	00000021 	move	zero,zero
    32ec:	00000021 	move	zero,zero
    32f0:	00000021 	move	zero,zero
    32f4:	00000021 	move	zero,zero
    32f8:	00000021 	move	zero,zero
    32fc:	00000021 	move	zero,zero
    3300:	00000021 	move	zero,zero
    3304:	3c12ed14 	lui	s2,0xed14
    3308:	36521958 	ori	s2,s2,0x1958
    330c:	00000000 	nop
    3310:	3c1467ae 	lui	s4,0x67ae
    3314:	36941e29 	ori	s4,s4,0x1e29
    3318:	1614140e 	bne	s0,s4,8354 <inst_error>
    331c:	00000000 	nop
    3320:	00000000 	nop
    3324:	3c15ed14 	lui	s5,0xed14
    3328:	36b51958 	ori	s5,s5,0x1958
    332c:	16551409 	bne	s2,s5,8354 <inst_error>
    3330:	00000000 	nop
    3334:	00000000 	nop
    3338:	3c0c8a38 	lui	t4,0x8a38
    333c:	358c07b8 	ori	t4,t4,0x7b8
    3340:	3c0db277 	lui	t5,0xb277
    3344:	35adf404 	ori	t5,t5,0xf404
    3348:	24100000 	li	s0,0
    334c:	1000000b 	b	337c <n37_j_test+0x337c>
    3350:	24120000 	li	s2,0
    3354:	00000000 	nop
    3358:	3c108a38 	lui	s0,0x8a38
    335c:	08000ceb 	j	33ac <n37_j_test+0x33ac>
    3360:	361007b8 	ori	s0,s0,0x7b8
    3364:	10000013 	b	33b4 <n37_j_test+0x33b4>
    3368:	00000000 	nop
    336c:	00000000 	nop
    3370:	00000021 	move	zero,zero
    3374:	00000021 	move	zero,zero
    3378:	00000021 	move	zero,zero
    337c:	08000cd6 	j	3358 <n37_j_test+0x3358>
    3380:	00000000 	nop
    3384:	1000000b 	b	33b4 <n37_j_test+0x33b4>
    3388:	00000000 	nop
    338c:	00000000 	nop
    3390:	00000021 	move	zero,zero
    3394:	00000021 	move	zero,zero
    3398:	00000021 	move	zero,zero
    339c:	00000021 	move	zero,zero
    33a0:	00000021 	move	zero,zero
    33a4:	00000021 	move	zero,zero
    33a8:	00000021 	move	zero,zero
    33ac:	3c12b277 	lui	s2,0xb277
    33b0:	3652f404 	ori	s2,s2,0xf404
    33b4:	00000000 	nop
    33b8:	3c148a38 	lui	s4,0x8a38
    33bc:	369407b8 	ori	s4,s4,0x7b8
    33c0:	161413e4 	bne	s0,s4,8354 <inst_error>
    33c4:	00000000 	nop
    33c8:	00000000 	nop
    33cc:	3c15b277 	lui	s5,0xb277
    33d0:	36b5f404 	ori	s5,s5,0xf404
    33d4:	165513df 	bne	s2,s5,8354 <inst_error>
    33d8:	00000000 	nop
    33dc:	00000000 	nop
    33e0:	3c0c8f41 	lui	t4,0x8f41
    33e4:	358c79d4 	ori	t4,t4,0x79d4
    33e8:	3c0de0bd 	lui	t5,0xe0bd
    33ec:	35ad7f4c 	ori	t5,t5,0x7f4c
    33f0:	24100000 	li	s0,0
    33f4:	1000000b 	b	3424 <n37_j_test+0x3424>
    33f8:	24120000 	li	s2,0
    33fc:	00000000 	nop
    3400:	3c108f41 	lui	s0,0x8f41
    3404:	08000d15 	j	3454 <n37_j_test+0x3454>
    3408:	361079d4 	ori	s0,s0,0x79d4
    340c:	10000013 	b	345c <n37_j_test+0x345c>
    3410:	00000000 	nop
    3414:	00000000 	nop
    3418:	00000021 	move	zero,zero
    341c:	00000021 	move	zero,zero
    3420:	00000021 	move	zero,zero
    3424:	08000d00 	j	3400 <n37_j_test+0x3400>
    3428:	00000000 	nop
    342c:	1000000b 	b	345c <n37_j_test+0x345c>
    3430:	00000000 	nop
    3434:	00000000 	nop
    3438:	00000021 	move	zero,zero
    343c:	00000021 	move	zero,zero
    3440:	00000021 	move	zero,zero
    3444:	00000021 	move	zero,zero
    3448:	00000021 	move	zero,zero
    344c:	00000021 	move	zero,zero
    3450:	00000021 	move	zero,zero
    3454:	3c12e0bd 	lui	s2,0xe0bd
    3458:	36527f4c 	ori	s2,s2,0x7f4c
    345c:	00000000 	nop
    3460:	3c148f41 	lui	s4,0x8f41
    3464:	369479d4 	ori	s4,s4,0x79d4
    3468:	161413ba 	bne	s0,s4,8354 <inst_error>
    346c:	00000000 	nop
    3470:	00000000 	nop
    3474:	3c15e0bd 	lui	s5,0xe0bd
    3478:	36b57f4c 	ori	s5,s5,0x7f4c
    347c:	165513b5 	bne	s2,s5,8354 <inst_error>
    3480:	00000000 	nop
    3484:	00000000 	nop
    3488:	3c0c278a 	lui	t4,0x278a
    348c:	358c8400 	ori	t4,t4,0x8400
    3490:	3c0d3396 	lui	t5,0x3396
    3494:	35ad9970 	ori	t5,t5,0x9970
    3498:	24100000 	li	s0,0
    349c:	1000000b 	b	34cc <n37_j_test+0x34cc>
    34a0:	24120000 	li	s2,0
    34a4:	00000000 	nop
    34a8:	3c10278a 	lui	s0,0x278a
    34ac:	08000d3f 	j	34fc <n37_j_test+0x34fc>
    34b0:	36108400 	ori	s0,s0,0x8400
    34b4:	10000013 	b	3504 <n37_j_test+0x3504>
    34b8:	00000000 	nop
    34bc:	00000000 	nop
    34c0:	00000021 	move	zero,zero
    34c4:	00000021 	move	zero,zero
    34c8:	00000021 	move	zero,zero
    34cc:	08000d2a 	j	34a8 <n37_j_test+0x34a8>
    34d0:	00000000 	nop
    34d4:	1000000b 	b	3504 <n37_j_test+0x3504>
    34d8:	00000000 	nop
    34dc:	00000000 	nop
    34e0:	00000021 	move	zero,zero
    34e4:	00000021 	move	zero,zero
    34e8:	00000021 	move	zero,zero
    34ec:	00000021 	move	zero,zero
    34f0:	00000021 	move	zero,zero
    34f4:	00000021 	move	zero,zero
    34f8:	00000021 	move	zero,zero
    34fc:	3c123396 	lui	s2,0x3396
    3500:	36529970 	ori	s2,s2,0x9970
    3504:	00000000 	nop
    3508:	3c14278a 	lui	s4,0x278a
    350c:	36948400 	ori	s4,s4,0x8400
    3510:	16141390 	bne	s0,s4,8354 <inst_error>
    3514:	00000000 	nop
    3518:	00000000 	nop
    351c:	3c153396 	lui	s5,0x3396
    3520:	36b59970 	ori	s5,s5,0x9970
    3524:	1655138b 	bne	s2,s5,8354 <inst_error>
    3528:	00000000 	nop
    352c:	00000000 	nop
    3530:	3c0c9919 	lui	t4,0x9919
    3534:	358c7cc8 	ori	t4,t4,0x7cc8
    3538:	3c0d1e7b 	lui	t5,0x1e7b
    353c:	35adbe50 	ori	t5,t5,0xbe50
    3540:	24100000 	li	s0,0
    3544:	1000000b 	b	3574 <n37_j_test+0x3574>
    3548:	24120000 	li	s2,0
    354c:	00000000 	nop
    3550:	3c109919 	lui	s0,0x9919
    3554:	08000d69 	j	35a4 <n37_j_test+0x35a4>
    3558:	36107cc8 	ori	s0,s0,0x7cc8
    355c:	10000013 	b	35ac <n37_j_test+0x35ac>
    3560:	00000000 	nop
    3564:	00000000 	nop
    3568:	00000021 	move	zero,zero
    356c:	00000021 	move	zero,zero
    3570:	00000021 	move	zero,zero
    3574:	08000d54 	j	3550 <n37_j_test+0x3550>
    3578:	00000000 	nop
    357c:	1000000b 	b	35ac <n37_j_test+0x35ac>
    3580:	00000000 	nop
    3584:	00000000 	nop
    3588:	00000021 	move	zero,zero
    358c:	00000021 	move	zero,zero
    3590:	00000021 	move	zero,zero
    3594:	00000021 	move	zero,zero
    3598:	00000021 	move	zero,zero
    359c:	00000021 	move	zero,zero
    35a0:	00000021 	move	zero,zero
    35a4:	3c121e7b 	lui	s2,0x1e7b
    35a8:	3652be50 	ori	s2,s2,0xbe50
    35ac:	00000000 	nop
    35b0:	3c149919 	lui	s4,0x9919
    35b4:	36947cc8 	ori	s4,s4,0x7cc8
    35b8:	16141366 	bne	s0,s4,8354 <inst_error>
    35bc:	00000000 	nop
    35c0:	00000000 	nop
    35c4:	3c151e7b 	lui	s5,0x1e7b
    35c8:	36b5be50 	ori	s5,s5,0xbe50
    35cc:	16551361 	bne	s2,s5,8354 <inst_error>
    35d0:	00000000 	nop
    35d4:	00000000 	nop
    35d8:	3c0c744f 	lui	t4,0x744f
    35dc:	358ce304 	ori	t4,t4,0xe304
    35e0:	3c0d117d 	lui	t5,0x117d
    35e4:	35adcc70 	ori	t5,t5,0xcc70
    35e8:	24100000 	li	s0,0
    35ec:	1000000b 	b	361c <n37_j_test+0x361c>
    35f0:	24120000 	li	s2,0
    35f4:	00000000 	nop
    35f8:	3c10744f 	lui	s0,0x744f
    35fc:	08000d93 	j	364c <n37_j_test+0x364c>
    3600:	3610e304 	ori	s0,s0,0xe304
    3604:	10000013 	b	3654 <n37_j_test+0x3654>
    3608:	00000000 	nop
    360c:	00000000 	nop
    3610:	00000021 	move	zero,zero
    3614:	00000021 	move	zero,zero
    3618:	00000021 	move	zero,zero
    361c:	08000d7e 	j	35f8 <n37_j_test+0x35f8>
    3620:	00000000 	nop
    3624:	1000000b 	b	3654 <n37_j_test+0x3654>
    3628:	00000000 	nop
    362c:	00000000 	nop
    3630:	00000021 	move	zero,zero
    3634:	00000021 	move	zero,zero
    3638:	00000021 	move	zero,zero
    363c:	00000021 	move	zero,zero
    3640:	00000021 	move	zero,zero
    3644:	00000021 	move	zero,zero
    3648:	00000021 	move	zero,zero
    364c:	3c12117d 	lui	s2,0x117d
    3650:	3652cc70 	ori	s2,s2,0xcc70
    3654:	00000000 	nop
    3658:	3c14744f 	lui	s4,0x744f
    365c:	3694e304 	ori	s4,s4,0xe304
    3660:	1614133c 	bne	s0,s4,8354 <inst_error>
    3664:	00000000 	nop
    3668:	00000000 	nop
    366c:	3c15117d 	lui	s5,0x117d
    3670:	36b5cc70 	ori	s5,s5,0xcc70
    3674:	16551337 	bne	s2,s5,8354 <inst_error>
    3678:	00000000 	nop
    367c:	00000000 	nop
    3680:	3c0cd014 	lui	t4,0xd014
    3684:	358ca370 	ori	t4,t4,0xa370
    3688:	3c0d5df6 	lui	t5,0x5df6
    368c:	35ad2270 	ori	t5,t5,0x2270
    3690:	24100000 	li	s0,0
    3694:	1000000b 	b	36c4 <n37_j_test+0x36c4>
    3698:	24120000 	li	s2,0
    369c:	00000000 	nop
    36a0:	3c10d014 	lui	s0,0xd014
    36a4:	08000dbd 	j	36f4 <n37_j_test+0x36f4>
    36a8:	3610a370 	ori	s0,s0,0xa370
    36ac:	10000013 	b	36fc <n37_j_test+0x36fc>
    36b0:	00000000 	nop
    36b4:	00000000 	nop
    36b8:	00000021 	move	zero,zero
    36bc:	00000021 	move	zero,zero
    36c0:	00000021 	move	zero,zero
    36c4:	08000da8 	j	36a0 <n37_j_test+0x36a0>
    36c8:	00000000 	nop
    36cc:	1000000b 	b	36fc <n37_j_test+0x36fc>
    36d0:	00000000 	nop
    36d4:	00000000 	nop
    36d8:	00000021 	move	zero,zero
    36dc:	00000021 	move	zero,zero
    36e0:	00000021 	move	zero,zero
    36e4:	00000021 	move	zero,zero
    36e8:	00000021 	move	zero,zero
    36ec:	00000021 	move	zero,zero
    36f0:	00000021 	move	zero,zero
    36f4:	3c125df6 	lui	s2,0x5df6
    36f8:	36522270 	ori	s2,s2,0x2270
    36fc:	00000000 	nop
    3700:	3c14d014 	lui	s4,0xd014
    3704:	3694a370 	ori	s4,s4,0xa370
    3708:	16141312 	bne	s0,s4,8354 <inst_error>
    370c:	00000000 	nop
    3710:	00000000 	nop
    3714:	3c155df6 	lui	s5,0x5df6
    3718:	36b52270 	ori	s5,s5,0x2270
    371c:	1655130d 	bne	s2,s5,8354 <inst_error>
    3720:	00000000 	nop
    3724:	00000000 	nop
    3728:	3c0ccf8c 	lui	t4,0xcf8c
    372c:	358c7a04 	ori	t4,t4,0x7a04
    3730:	3c0d4aaf 	lui	t5,0x4aaf
    3734:	35ad34b6 	ori	t5,t5,0x34b6
    3738:	24100000 	li	s0,0
    373c:	1000000b 	b	376c <n37_j_test+0x376c>
    3740:	24120000 	li	s2,0
    3744:	00000000 	nop
    3748:	3c10cf8c 	lui	s0,0xcf8c
    374c:	08000de7 	j	379c <n37_j_test+0x379c>
    3750:	36107a04 	ori	s0,s0,0x7a04
    3754:	10000013 	b	37a4 <n37_j_test+0x37a4>
    3758:	00000000 	nop
    375c:	00000000 	nop
    3760:	00000021 	move	zero,zero
    3764:	00000021 	move	zero,zero
    3768:	00000021 	move	zero,zero
    376c:	08000dd2 	j	3748 <n37_j_test+0x3748>
    3770:	00000000 	nop
    3774:	1000000b 	b	37a4 <n37_j_test+0x37a4>
    3778:	00000000 	nop
    377c:	00000000 	nop
    3780:	00000021 	move	zero,zero
    3784:	00000021 	move	zero,zero
    3788:	00000021 	move	zero,zero
    378c:	00000021 	move	zero,zero
    3790:	00000021 	move	zero,zero
    3794:	00000021 	move	zero,zero
    3798:	00000021 	move	zero,zero
    379c:	3c124aaf 	lui	s2,0x4aaf
    37a0:	365234b6 	ori	s2,s2,0x34b6
    37a4:	00000000 	nop
    37a8:	3c14cf8c 	lui	s4,0xcf8c
    37ac:	36947a04 	ori	s4,s4,0x7a04
    37b0:	161412e8 	bne	s0,s4,8354 <inst_error>
    37b4:	00000000 	nop
    37b8:	00000000 	nop
    37bc:	3c154aaf 	lui	s5,0x4aaf
    37c0:	36b534b6 	ori	s5,s5,0x34b6
    37c4:	165512e3 	bne	s2,s5,8354 <inst_error>
    37c8:	00000000 	nop
    37cc:	00000000 	nop
    37d0:	3c0c8e28 	lui	t4,0x8e28
    37d4:	358c8160 	ori	t4,t4,0x8160
    37d8:	3c0d7b40 	lui	t5,0x7b40
    37dc:	35ad0fc6 	ori	t5,t5,0xfc6
    37e0:	24100000 	li	s0,0
    37e4:	1000000b 	b	3814 <n37_j_test+0x3814>
    37e8:	24120000 	li	s2,0
    37ec:	00000000 	nop
    37f0:	3c108e28 	lui	s0,0x8e28
    37f4:	08000e11 	j	3844 <n37_j_test+0x3844>
    37f8:	36108160 	ori	s0,s0,0x8160
    37fc:	10000013 	b	384c <n37_j_test+0x384c>
    3800:	00000000 	nop
    3804:	00000000 	nop
    3808:	00000021 	move	zero,zero
    380c:	00000021 	move	zero,zero
    3810:	00000021 	move	zero,zero
    3814:	08000dfc 	j	37f0 <n37_j_test+0x37f0>
    3818:	00000000 	nop
    381c:	1000000b 	b	384c <n37_j_test+0x384c>
    3820:	00000000 	nop
    3824:	00000000 	nop
    3828:	00000021 	move	zero,zero
    382c:	00000021 	move	zero,zero
    3830:	00000021 	move	zero,zero
    3834:	00000021 	move	zero,zero
    3838:	00000021 	move	zero,zero
    383c:	00000021 	move	zero,zero
    3840:	00000021 	move	zero,zero
    3844:	3c127b40 	lui	s2,0x7b40
    3848:	36520fc6 	ori	s2,s2,0xfc6
    384c:	00000000 	nop
    3850:	3c148e28 	lui	s4,0x8e28
    3854:	36948160 	ori	s4,s4,0x8160
    3858:	161412be 	bne	s0,s4,8354 <inst_error>
    385c:	00000000 	nop
    3860:	00000000 	nop
    3864:	3c157b40 	lui	s5,0x7b40
    3868:	36b50fc6 	ori	s5,s5,0xfc6
    386c:	165512b9 	bne	s2,s5,8354 <inst_error>
    3870:	00000000 	nop
    3874:	00000000 	nop
    3878:	3c0caa29 	lui	t4,0xaa29
    387c:	358c1a98 	ori	t4,t4,0x1a98
    3880:	3c0d1baf 	lui	t5,0x1baf
    3884:	35ad3e24 	ori	t5,t5,0x3e24
    3888:	24100000 	li	s0,0
    388c:	1000000b 	b	38bc <n37_j_test+0x38bc>
    3890:	24120000 	li	s2,0
    3894:	00000000 	nop
    3898:	3c10aa29 	lui	s0,0xaa29
    389c:	08000e3b 	j	38ec <n37_j_test+0x38ec>
    38a0:	36101a98 	ori	s0,s0,0x1a98
    38a4:	10000013 	b	38f4 <n37_j_test+0x38f4>
    38a8:	00000000 	nop
    38ac:	00000000 	nop
    38b0:	00000021 	move	zero,zero
    38b4:	00000021 	move	zero,zero
    38b8:	00000021 	move	zero,zero
    38bc:	08000e26 	j	3898 <n37_j_test+0x3898>
    38c0:	00000000 	nop
    38c4:	1000000b 	b	38f4 <n37_j_test+0x38f4>
    38c8:	00000000 	nop
    38cc:	00000000 	nop
    38d0:	00000021 	move	zero,zero
    38d4:	00000021 	move	zero,zero
    38d8:	00000021 	move	zero,zero
    38dc:	00000021 	move	zero,zero
    38e0:	00000021 	move	zero,zero
    38e4:	00000021 	move	zero,zero
    38e8:	00000021 	move	zero,zero
    38ec:	3c121baf 	lui	s2,0x1baf
    38f0:	36523e24 	ori	s2,s2,0x3e24
    38f4:	00000000 	nop
    38f8:	3c14aa29 	lui	s4,0xaa29
    38fc:	36941a98 	ori	s4,s4,0x1a98
    3900:	16141294 	bne	s0,s4,8354 <inst_error>
    3904:	00000000 	nop
    3908:	00000000 	nop
    390c:	3c151baf 	lui	s5,0x1baf
    3910:	36b53e24 	ori	s5,s5,0x3e24
    3914:	1655128f 	bne	s2,s5,8354 <inst_error>
    3918:	00000000 	nop
    391c:	00000000 	nop
    3920:	3c0c3ee4 	lui	t4,0x3ee4
    3924:	358c54a0 	ori	t4,t4,0x54a0
    3928:	3c0d5114 	lui	t5,0x5114
    392c:	35ade086 	ori	t5,t5,0xe086
    3930:	24100000 	li	s0,0
    3934:	1000000b 	b	3964 <n37_j_test+0x3964>
    3938:	24120000 	li	s2,0
    393c:	00000000 	nop
    3940:	3c103ee4 	lui	s0,0x3ee4
    3944:	08000e65 	j	3994 <n37_j_test+0x3994>
    3948:	361054a0 	ori	s0,s0,0x54a0
    394c:	10000013 	b	399c <n37_j_test+0x399c>
    3950:	00000000 	nop
    3954:	00000000 	nop
    3958:	00000021 	move	zero,zero
    395c:	00000021 	move	zero,zero
    3960:	00000021 	move	zero,zero
    3964:	08000e50 	j	3940 <n37_j_test+0x3940>
    3968:	00000000 	nop
    396c:	1000000b 	b	399c <n37_j_test+0x399c>
    3970:	00000000 	nop
    3974:	00000000 	nop
    3978:	00000021 	move	zero,zero
    397c:	00000021 	move	zero,zero
    3980:	00000021 	move	zero,zero
    3984:	00000021 	move	zero,zero
    3988:	00000021 	move	zero,zero
    398c:	00000021 	move	zero,zero
    3990:	00000021 	move	zero,zero
    3994:	3c125114 	lui	s2,0x5114
    3998:	3652e086 	ori	s2,s2,0xe086
    399c:	00000000 	nop
    39a0:	3c143ee4 	lui	s4,0x3ee4
    39a4:	369454a0 	ori	s4,s4,0x54a0
    39a8:	1614126a 	bne	s0,s4,8354 <inst_error>
    39ac:	00000000 	nop
    39b0:	00000000 	nop
    39b4:	3c155114 	lui	s5,0x5114
    39b8:	36b5e086 	ori	s5,s5,0xe086
    39bc:	16551265 	bne	s2,s5,8354 <inst_error>
    39c0:	00000000 	nop
    39c4:	00000000 	nop
    39c8:	3c0cfedc 	lui	t4,0xfedc
    39cc:	358cb9f2 	ori	t4,t4,0xb9f2
    39d0:	3c0d3ce0 	lui	t5,0x3ce0
    39d4:	35ad752c 	ori	t5,t5,0x752c
    39d8:	24100000 	li	s0,0
    39dc:	1000000b 	b	3a0c <n37_j_test+0x3a0c>
    39e0:	24120000 	li	s2,0
    39e4:	00000000 	nop
    39e8:	3c10fedc 	lui	s0,0xfedc
    39ec:	08000e8f 	j	3a3c <n37_j_test+0x3a3c>
    39f0:	3610b9f2 	ori	s0,s0,0xb9f2
    39f4:	10000013 	b	3a44 <n37_j_test+0x3a44>
    39f8:	00000000 	nop
    39fc:	00000000 	nop
    3a00:	00000021 	move	zero,zero
    3a04:	00000021 	move	zero,zero
    3a08:	00000021 	move	zero,zero
    3a0c:	08000e7a 	j	39e8 <n37_j_test+0x39e8>
    3a10:	00000000 	nop
    3a14:	1000000b 	b	3a44 <n37_j_test+0x3a44>
    3a18:	00000000 	nop
    3a1c:	00000000 	nop
    3a20:	00000021 	move	zero,zero
    3a24:	00000021 	move	zero,zero
    3a28:	00000021 	move	zero,zero
    3a2c:	00000021 	move	zero,zero
    3a30:	00000021 	move	zero,zero
    3a34:	00000021 	move	zero,zero
    3a38:	00000021 	move	zero,zero
    3a3c:	3c123ce0 	lui	s2,0x3ce0
    3a40:	3652752c 	ori	s2,s2,0x752c
    3a44:	00000000 	nop
    3a48:	3c14fedc 	lui	s4,0xfedc
    3a4c:	3694b9f2 	ori	s4,s4,0xb9f2
    3a50:	16141240 	bne	s0,s4,8354 <inst_error>
    3a54:	00000000 	nop
    3a58:	00000000 	nop
    3a5c:	3c153ce0 	lui	s5,0x3ce0
    3a60:	36b5752c 	ori	s5,s5,0x752c
    3a64:	1655123b 	bne	s2,s5,8354 <inst_error>
    3a68:	00000000 	nop
    3a6c:	00000000 	nop
    3a70:	3c0c8eeb 	lui	t4,0x8eeb
    3a74:	358c4886 	ori	t4,t4,0x4886
    3a78:	3c0d1f69 	lui	t5,0x1f69
    3a7c:	35ad0472 	ori	t5,t5,0x472
    3a80:	24100000 	li	s0,0
    3a84:	1000000b 	b	3ab4 <n37_j_test+0x3ab4>
    3a88:	24120000 	li	s2,0
    3a8c:	00000000 	nop
    3a90:	3c108eeb 	lui	s0,0x8eeb
    3a94:	08000eb9 	j	3ae4 <n37_j_test+0x3ae4>
    3a98:	36104886 	ori	s0,s0,0x4886
    3a9c:	10000013 	b	3aec <n37_j_test+0x3aec>
    3aa0:	00000000 	nop
    3aa4:	00000000 	nop
    3aa8:	00000021 	move	zero,zero
    3aac:	00000021 	move	zero,zero
    3ab0:	00000021 	move	zero,zero
    3ab4:	08000ea4 	j	3a90 <n37_j_test+0x3a90>
    3ab8:	00000000 	nop
    3abc:	1000000b 	b	3aec <n37_j_test+0x3aec>
    3ac0:	00000000 	nop
    3ac4:	00000000 	nop
    3ac8:	00000021 	move	zero,zero
    3acc:	00000021 	move	zero,zero
    3ad0:	00000021 	move	zero,zero
    3ad4:	00000021 	move	zero,zero
    3ad8:	00000021 	move	zero,zero
    3adc:	00000021 	move	zero,zero
    3ae0:	00000021 	move	zero,zero
    3ae4:	3c121f69 	lui	s2,0x1f69
    3ae8:	36520472 	ori	s2,s2,0x472
    3aec:	00000000 	nop
    3af0:	3c148eeb 	lui	s4,0x8eeb
    3af4:	36944886 	ori	s4,s4,0x4886
    3af8:	16141216 	bne	s0,s4,8354 <inst_error>
    3afc:	00000000 	nop
    3b00:	00000000 	nop
    3b04:	3c151f69 	lui	s5,0x1f69
    3b08:	36b50472 	ori	s5,s5,0x472
    3b0c:	16551211 	bne	s2,s5,8354 <inst_error>
    3b10:	00000000 	nop
    3b14:	00000000 	nop
    3b18:	3c0cdf3c 	lui	t4,0xdf3c
    3b1c:	358cde26 	ori	t4,t4,0xde26
    3b20:	3c0d5fa6 	lui	t5,0x5fa6
    3b24:	35ad6dd0 	ori	t5,t5,0x6dd0
    3b28:	24100000 	li	s0,0
    3b2c:	1000000b 	b	3b5c <n37_j_test+0x3b5c>
    3b30:	24120000 	li	s2,0
    3b34:	00000000 	nop
    3b38:	3c10df3c 	lui	s0,0xdf3c
    3b3c:	08000ee3 	j	3b8c <n37_j_test+0x3b8c>
    3b40:	3610de26 	ori	s0,s0,0xde26
    3b44:	10000013 	b	3b94 <n37_j_test+0x3b94>
    3b48:	00000000 	nop
    3b4c:	00000000 	nop
    3b50:	00000021 	move	zero,zero
    3b54:	00000021 	move	zero,zero
    3b58:	00000021 	move	zero,zero
    3b5c:	08000ece 	j	3b38 <n37_j_test+0x3b38>
    3b60:	00000000 	nop
    3b64:	1000000b 	b	3b94 <n37_j_test+0x3b94>
    3b68:	00000000 	nop
    3b6c:	00000000 	nop
    3b70:	00000021 	move	zero,zero
    3b74:	00000021 	move	zero,zero
    3b78:	00000021 	move	zero,zero
    3b7c:	00000021 	move	zero,zero
    3b80:	00000021 	move	zero,zero
    3b84:	00000021 	move	zero,zero
    3b88:	00000021 	move	zero,zero
    3b8c:	3c125fa6 	lui	s2,0x5fa6
    3b90:	36526dd0 	ori	s2,s2,0x6dd0
    3b94:	00000000 	nop
    3b98:	3c14df3c 	lui	s4,0xdf3c
    3b9c:	3694de26 	ori	s4,s4,0xde26
    3ba0:	161411ec 	bne	s0,s4,8354 <inst_error>
    3ba4:	00000000 	nop
    3ba8:	00000000 	nop
    3bac:	3c155fa6 	lui	s5,0x5fa6
    3bb0:	36b56dd0 	ori	s5,s5,0x6dd0
    3bb4:	165511e7 	bne	s2,s5,8354 <inst_error>
    3bb8:	00000000 	nop
    3bbc:	00000000 	nop
    3bc0:	3c0cb340 	lui	t4,0xb340
    3bc4:	358c17a8 	ori	t4,t4,0x17a8
    3bc8:	3c0d04ab 	lui	t5,0x4ab
    3bcc:	35ad056a 	ori	t5,t5,0x56a
    3bd0:	24100000 	li	s0,0
    3bd4:	1000000b 	b	3c04 <n37_j_test+0x3c04>
    3bd8:	24120000 	li	s2,0
    3bdc:	00000000 	nop
    3be0:	3c10b340 	lui	s0,0xb340
    3be4:	08000f0d 	j	3c34 <n37_j_test+0x3c34>
    3be8:	361017a8 	ori	s0,s0,0x17a8
    3bec:	10000013 	b	3c3c <n37_j_test+0x3c3c>
    3bf0:	00000000 	nop
    3bf4:	00000000 	nop
    3bf8:	00000021 	move	zero,zero
    3bfc:	00000021 	move	zero,zero
    3c00:	00000021 	move	zero,zero
    3c04:	08000ef8 	j	3be0 <n37_j_test+0x3be0>
    3c08:	00000000 	nop
    3c0c:	1000000b 	b	3c3c <n37_j_test+0x3c3c>
    3c10:	00000000 	nop
    3c14:	00000000 	nop
    3c18:	00000021 	move	zero,zero
    3c1c:	00000021 	move	zero,zero
    3c20:	00000021 	move	zero,zero
    3c24:	00000021 	move	zero,zero
    3c28:	00000021 	move	zero,zero
    3c2c:	00000021 	move	zero,zero
    3c30:	00000021 	move	zero,zero
    3c34:	3c1204ab 	lui	s2,0x4ab
    3c38:	3652056a 	ori	s2,s2,0x56a
    3c3c:	00000000 	nop
    3c40:	3c14b340 	lui	s4,0xb340
    3c44:	369417a8 	ori	s4,s4,0x17a8
    3c48:	161411c2 	bne	s0,s4,8354 <inst_error>
    3c4c:	00000000 	nop
    3c50:	00000000 	nop
    3c54:	3c1504ab 	lui	s5,0x4ab
    3c58:	36b5056a 	ori	s5,s5,0x56a
    3c5c:	165511bd 	bne	s2,s5,8354 <inst_error>
    3c60:	00000000 	nop
    3c64:	00000000 	nop
    3c68:	3c0cb83c 	lui	t4,0xb83c
    3c6c:	358c5dc0 	ori	t4,t4,0x5dc0
    3c70:	3c0d3ec8 	lui	t5,0x3ec8
    3c74:	35addf21 	ori	t5,t5,0xdf21
    3c78:	24100000 	li	s0,0
    3c7c:	1000000b 	b	3cac <n37_j_test+0x3cac>
    3c80:	24120000 	li	s2,0
    3c84:	00000000 	nop
    3c88:	3c10b83c 	lui	s0,0xb83c
    3c8c:	08000f37 	j	3cdc <n37_j_test+0x3cdc>
    3c90:	36105dc0 	ori	s0,s0,0x5dc0
    3c94:	10000013 	b	3ce4 <n37_j_test+0x3ce4>
    3c98:	00000000 	nop
    3c9c:	00000000 	nop
    3ca0:	00000021 	move	zero,zero
    3ca4:	00000021 	move	zero,zero
    3ca8:	00000021 	move	zero,zero
    3cac:	08000f22 	j	3c88 <n37_j_test+0x3c88>
    3cb0:	00000000 	nop
    3cb4:	1000000b 	b	3ce4 <n37_j_test+0x3ce4>
    3cb8:	00000000 	nop
    3cbc:	00000000 	nop
    3cc0:	00000021 	move	zero,zero
    3cc4:	00000021 	move	zero,zero
    3cc8:	00000021 	move	zero,zero
    3ccc:	00000021 	move	zero,zero
    3cd0:	00000021 	move	zero,zero
    3cd4:	00000021 	move	zero,zero
    3cd8:	00000021 	move	zero,zero
    3cdc:	3c123ec8 	lui	s2,0x3ec8
    3ce0:	3652df21 	ori	s2,s2,0xdf21
    3ce4:	00000000 	nop
    3ce8:	3c14b83c 	lui	s4,0xb83c
    3cec:	36945dc0 	ori	s4,s4,0x5dc0
    3cf0:	16141198 	bne	s0,s4,8354 <inst_error>
    3cf4:	00000000 	nop
    3cf8:	00000000 	nop
    3cfc:	3c153ec8 	lui	s5,0x3ec8
    3d00:	36b5df21 	ori	s5,s5,0xdf21
    3d04:	16551193 	bne	s2,s5,8354 <inst_error>
    3d08:	00000000 	nop
    3d0c:	00000000 	nop
    3d10:	3c0cf2d3 	lui	t4,0xf2d3
    3d14:	358c8780 	ori	t4,t4,0x8780
    3d18:	3c0d38da 	lui	t5,0x38da
    3d1c:	35adcda4 	ori	t5,t5,0xcda4
    3d20:	24100000 	li	s0,0
    3d24:	1000000b 	b	3d54 <n37_j_test+0x3d54>
    3d28:	24120000 	li	s2,0
    3d2c:	00000000 	nop
    3d30:	3c10f2d3 	lui	s0,0xf2d3
    3d34:	08000f61 	j	3d84 <n37_j_test+0x3d84>
    3d38:	36108780 	ori	s0,s0,0x8780
    3d3c:	10000013 	b	3d8c <n37_j_test+0x3d8c>
    3d40:	00000000 	nop
    3d44:	00000000 	nop
    3d48:	00000021 	move	zero,zero
    3d4c:	00000021 	move	zero,zero
    3d50:	00000021 	move	zero,zero
    3d54:	08000f4c 	j	3d30 <n37_j_test+0x3d30>
    3d58:	00000000 	nop
    3d5c:	1000000b 	b	3d8c <n37_j_test+0x3d8c>
    3d60:	00000000 	nop
    3d64:	00000000 	nop
    3d68:	00000021 	move	zero,zero
    3d6c:	00000021 	move	zero,zero
    3d70:	00000021 	move	zero,zero
    3d74:	00000021 	move	zero,zero
    3d78:	00000021 	move	zero,zero
    3d7c:	00000021 	move	zero,zero
    3d80:	00000021 	move	zero,zero
    3d84:	3c1238da 	lui	s2,0x38da
    3d88:	3652cda4 	ori	s2,s2,0xcda4
    3d8c:	00000000 	nop
    3d90:	3c14f2d3 	lui	s4,0xf2d3
    3d94:	36948780 	ori	s4,s4,0x8780
    3d98:	1614116e 	bne	s0,s4,8354 <inst_error>
    3d9c:	00000000 	nop
    3da0:	00000000 	nop
    3da4:	3c1538da 	lui	s5,0x38da
    3da8:	36b5cda4 	ori	s5,s5,0xcda4
    3dac:	16551169 	bne	s2,s5,8354 <inst_error>
    3db0:	00000000 	nop
    3db4:	00000000 	nop
    3db8:	3c0c78c3 	lui	t4,0x78c3
    3dbc:	358cb84c 	ori	t4,t4,0xb84c
    3dc0:	3c0df01d 	lui	t5,0xf01d
    3dc4:	35ad03e0 	ori	t5,t5,0x3e0
    3dc8:	24100000 	li	s0,0
    3dcc:	1000000b 	b	3dfc <n37_j_test+0x3dfc>
    3dd0:	24120000 	li	s2,0
    3dd4:	00000000 	nop
    3dd8:	3c1078c3 	lui	s0,0x78c3
    3ddc:	08000f8b 	j	3e2c <n37_j_test+0x3e2c>
    3de0:	3610b84c 	ori	s0,s0,0xb84c
    3de4:	10000013 	b	3e34 <n37_j_test+0x3e34>
    3de8:	00000000 	nop
    3dec:	00000000 	nop
    3df0:	00000021 	move	zero,zero
    3df4:	00000021 	move	zero,zero
    3df8:	00000021 	move	zero,zero
    3dfc:	08000f76 	j	3dd8 <n37_j_test+0x3dd8>
    3e00:	00000000 	nop
    3e04:	1000000b 	b	3e34 <n37_j_test+0x3e34>
    3e08:	00000000 	nop
    3e0c:	00000000 	nop
    3e10:	00000021 	move	zero,zero
    3e14:	00000021 	move	zero,zero
    3e18:	00000021 	move	zero,zero
    3e1c:	00000021 	move	zero,zero
    3e20:	00000021 	move	zero,zero
    3e24:	00000021 	move	zero,zero
    3e28:	00000021 	move	zero,zero
    3e2c:	3c12f01d 	lui	s2,0xf01d
    3e30:	365203e0 	ori	s2,s2,0x3e0
    3e34:	00000000 	nop
    3e38:	3c1478c3 	lui	s4,0x78c3
    3e3c:	3694b84c 	ori	s4,s4,0xb84c
    3e40:	16141144 	bne	s0,s4,8354 <inst_error>
    3e44:	00000000 	nop
    3e48:	00000000 	nop
    3e4c:	3c15f01d 	lui	s5,0xf01d
    3e50:	36b503e0 	ori	s5,s5,0x3e0
    3e54:	1655113f 	bne	s2,s5,8354 <inst_error>
    3e58:	00000000 	nop
    3e5c:	00000000 	nop
    3e60:	3c0cdf1c 	lui	t4,0xdf1c
    3e64:	358c051e 	ori	t4,t4,0x51e
    3e68:	3c0d4806 	lui	t5,0x4806
    3e6c:	35ad57c0 	ori	t5,t5,0x57c0
    3e70:	24100000 	li	s0,0
    3e74:	1000000b 	b	3ea4 <n37_j_test+0x3ea4>
    3e78:	24120000 	li	s2,0
    3e7c:	00000000 	nop
    3e80:	3c10df1c 	lui	s0,0xdf1c
    3e84:	08000fb5 	j	3ed4 <n37_j_test+0x3ed4>
    3e88:	3610051e 	ori	s0,s0,0x51e
    3e8c:	10000013 	b	3edc <n37_j_test+0x3edc>
    3e90:	00000000 	nop
    3e94:	00000000 	nop
    3e98:	00000021 	move	zero,zero
    3e9c:	00000021 	move	zero,zero
    3ea0:	00000021 	move	zero,zero
    3ea4:	08000fa0 	j	3e80 <n37_j_test+0x3e80>
    3ea8:	00000000 	nop
    3eac:	1000000b 	b	3edc <n37_j_test+0x3edc>
    3eb0:	00000000 	nop
    3eb4:	00000000 	nop
    3eb8:	00000021 	move	zero,zero
    3ebc:	00000021 	move	zero,zero
    3ec0:	00000021 	move	zero,zero
    3ec4:	00000021 	move	zero,zero
    3ec8:	00000021 	move	zero,zero
    3ecc:	00000021 	move	zero,zero
    3ed0:	00000021 	move	zero,zero
    3ed4:	3c124806 	lui	s2,0x4806
    3ed8:	365257c0 	ori	s2,s2,0x57c0
    3edc:	00000000 	nop
    3ee0:	3c14df1c 	lui	s4,0xdf1c
    3ee4:	3694051e 	ori	s4,s4,0x51e
    3ee8:	1614111a 	bne	s0,s4,8354 <inst_error>
    3eec:	00000000 	nop
    3ef0:	00000000 	nop
    3ef4:	3c154806 	lui	s5,0x4806
    3ef8:	36b557c0 	ori	s5,s5,0x57c0
    3efc:	16551115 	bne	s2,s5,8354 <inst_error>
    3f00:	00000000 	nop
    3f04:	00000000 	nop
    3f08:	3c0c019c 	lui	t4,0x19c
    3f0c:	358cd5bc 	ori	t4,t4,0xd5bc
    3f10:	3c0d81b2 	lui	t5,0x81b2
    3f14:	35ad19e2 	ori	t5,t5,0x19e2
    3f18:	24100000 	li	s0,0
    3f1c:	1000000b 	b	3f4c <n37_j_test+0x3f4c>
    3f20:	24120000 	li	s2,0
    3f24:	00000000 	nop
    3f28:	3c10019c 	lui	s0,0x19c
    3f2c:	08000fdf 	j	3f7c <n37_j_test+0x3f7c>
    3f30:	3610d5bc 	ori	s0,s0,0xd5bc
    3f34:	10000013 	b	3f84 <n37_j_test+0x3f84>
    3f38:	00000000 	nop
    3f3c:	00000000 	nop
    3f40:	00000021 	move	zero,zero
    3f44:	00000021 	move	zero,zero
    3f48:	00000021 	move	zero,zero
    3f4c:	08000fca 	j	3f28 <n37_j_test+0x3f28>
    3f50:	00000000 	nop
    3f54:	1000000b 	b	3f84 <n37_j_test+0x3f84>
    3f58:	00000000 	nop
    3f5c:	00000000 	nop
    3f60:	00000021 	move	zero,zero
    3f64:	00000021 	move	zero,zero
    3f68:	00000021 	move	zero,zero
    3f6c:	00000021 	move	zero,zero
    3f70:	00000021 	move	zero,zero
    3f74:	00000021 	move	zero,zero
    3f78:	00000021 	move	zero,zero
    3f7c:	3c1281b2 	lui	s2,0x81b2
    3f80:	365219e2 	ori	s2,s2,0x19e2
    3f84:	00000000 	nop
    3f88:	3c14019c 	lui	s4,0x19c
    3f8c:	3694d5bc 	ori	s4,s4,0xd5bc
    3f90:	161410f0 	bne	s0,s4,8354 <inst_error>
    3f94:	00000000 	nop
    3f98:	00000000 	nop
    3f9c:	3c1581b2 	lui	s5,0x81b2
    3fa0:	36b519e2 	ori	s5,s5,0x19e2
    3fa4:	165510eb 	bne	s2,s5,8354 <inst_error>
    3fa8:	00000000 	nop
    3fac:	00000000 	nop
    3fb0:	3c0c4607 	lui	t4,0x4607
    3fb4:	358c3400 	ori	t4,t4,0x3400
    3fb8:	3c0d1411 	lui	t5,0x1411
    3fbc:	35ad6cee 	ori	t5,t5,0x6cee
    3fc0:	24100000 	li	s0,0
    3fc4:	1000000b 	b	3ff4 <n37_j_test+0x3ff4>
    3fc8:	24120000 	li	s2,0
    3fcc:	00000000 	nop
    3fd0:	3c104607 	lui	s0,0x4607
    3fd4:	08001009 	j	4024 <n37_j_test+0x4024>
    3fd8:	36103400 	ori	s0,s0,0x3400
    3fdc:	10000013 	b	402c <n37_j_test+0x402c>
    3fe0:	00000000 	nop
    3fe4:	00000000 	nop
    3fe8:	00000021 	move	zero,zero
    3fec:	00000021 	move	zero,zero
    3ff0:	00000021 	move	zero,zero
    3ff4:	08000ff4 	j	3fd0 <n37_j_test+0x3fd0>
    3ff8:	00000000 	nop
    3ffc:	1000000b 	b	402c <n37_j_test+0x402c>
    4000:	00000000 	nop
    4004:	00000000 	nop
    4008:	00000021 	move	zero,zero
    400c:	00000021 	move	zero,zero
    4010:	00000021 	move	zero,zero
    4014:	00000021 	move	zero,zero
    4018:	00000021 	move	zero,zero
    401c:	00000021 	move	zero,zero
    4020:	00000021 	move	zero,zero
    4024:	3c121411 	lui	s2,0x1411
    4028:	36526cee 	ori	s2,s2,0x6cee
    402c:	00000000 	nop
    4030:	3c144607 	lui	s4,0x4607
    4034:	36943400 	ori	s4,s4,0x3400
    4038:	161410c6 	bne	s0,s4,8354 <inst_error>
    403c:	00000000 	nop
    4040:	00000000 	nop
    4044:	3c151411 	lui	s5,0x1411
    4048:	36b56cee 	ori	s5,s5,0x6cee
    404c:	165510c1 	bne	s2,s5,8354 <inst_error>
    4050:	00000000 	nop
    4054:	00000000 	nop
    4058:	3c0cf90a 	lui	t4,0xf90a
    405c:	358cbd90 	ori	t4,t4,0xbd90
    4060:	3c0de3ae 	lui	t5,0xe3ae
    4064:	35ad9e38 	ori	t5,t5,0x9e38
    4068:	24100000 	li	s0,0
    406c:	1000000b 	b	409c <n37_j_test+0x409c>
    4070:	24120000 	li	s2,0
    4074:	00000000 	nop
    4078:	3c10f90a 	lui	s0,0xf90a
    407c:	08001033 	j	40cc <n37_j_test+0x40cc>
    4080:	3610bd90 	ori	s0,s0,0xbd90
    4084:	10000013 	b	40d4 <n37_j_test+0x40d4>
    4088:	00000000 	nop
    408c:	00000000 	nop
    4090:	00000021 	move	zero,zero
    4094:	00000021 	move	zero,zero
    4098:	00000021 	move	zero,zero
    409c:	0800101e 	j	4078 <n37_j_test+0x4078>
    40a0:	00000000 	nop
    40a4:	1000000b 	b	40d4 <n37_j_test+0x40d4>
    40a8:	00000000 	nop
    40ac:	00000000 	nop
    40b0:	00000021 	move	zero,zero
    40b4:	00000021 	move	zero,zero
    40b8:	00000021 	move	zero,zero
    40bc:	00000021 	move	zero,zero
    40c0:	00000021 	move	zero,zero
    40c4:	00000021 	move	zero,zero
    40c8:	00000021 	move	zero,zero
    40cc:	3c12e3ae 	lui	s2,0xe3ae
    40d0:	36529e38 	ori	s2,s2,0x9e38
    40d4:	00000000 	nop
    40d8:	3c14f90a 	lui	s4,0xf90a
    40dc:	3694bd90 	ori	s4,s4,0xbd90
    40e0:	1614109c 	bne	s0,s4,8354 <inst_error>
    40e4:	00000000 	nop
    40e8:	00000000 	nop
    40ec:	3c15e3ae 	lui	s5,0xe3ae
    40f0:	36b59e38 	ori	s5,s5,0x9e38
    40f4:	16551097 	bne	s2,s5,8354 <inst_error>
    40f8:	00000000 	nop
    40fc:	00000000 	nop
    4100:	3c0c2f59 	lui	t4,0x2f59
    4104:	358c5748 	ori	t4,t4,0x5748
    4108:	3c0d322f 	lui	t5,0x322f
    410c:	35ad3db0 	ori	t5,t5,0x3db0
    4110:	24100000 	li	s0,0
    4114:	1000000b 	b	4144 <n37_j_test+0x4144>
    4118:	24120000 	li	s2,0
    411c:	00000000 	nop
    4120:	3c102f59 	lui	s0,0x2f59
    4124:	0800105d 	j	4174 <n37_j_test+0x4174>
    4128:	36105748 	ori	s0,s0,0x5748
    412c:	10000013 	b	417c <n37_j_test+0x417c>
    4130:	00000000 	nop
    4134:	00000000 	nop
    4138:	00000021 	move	zero,zero
    413c:	00000021 	move	zero,zero
    4140:	00000021 	move	zero,zero
    4144:	08001048 	j	4120 <n37_j_test+0x4120>
    4148:	00000000 	nop
    414c:	1000000b 	b	417c <n37_j_test+0x417c>
    4150:	00000000 	nop
    4154:	00000000 	nop
    4158:	00000021 	move	zero,zero
    415c:	00000021 	move	zero,zero
    4160:	00000021 	move	zero,zero
    4164:	00000021 	move	zero,zero
    4168:	00000021 	move	zero,zero
    416c:	00000021 	move	zero,zero
    4170:	00000021 	move	zero,zero
    4174:	3c12322f 	lui	s2,0x322f
    4178:	36523db0 	ori	s2,s2,0x3db0
    417c:	00000000 	nop
    4180:	3c142f59 	lui	s4,0x2f59
    4184:	36945748 	ori	s4,s4,0x5748
    4188:	16141072 	bne	s0,s4,8354 <inst_error>
    418c:	00000000 	nop
    4190:	00000000 	nop
    4194:	3c15322f 	lui	s5,0x322f
    4198:	36b53db0 	ori	s5,s5,0x3db0
    419c:	1655106d 	bne	s2,s5,8354 <inst_error>
    41a0:	00000000 	nop
    41a4:	00000000 	nop
    41a8:	3c0c4f70 	lui	t4,0x4f70
    41ac:	358c64d0 	ori	t4,t4,0x64d0
    41b0:	3c0dd19d 	lui	t5,0xd19d
    41b4:	35ad40bb 	ori	t5,t5,0x40bb
    41b8:	24100000 	li	s0,0
    41bc:	1000000b 	b	41ec <n37_j_test+0x41ec>
    41c0:	24120000 	li	s2,0
    41c4:	00000000 	nop
    41c8:	3c104f70 	lui	s0,0x4f70
    41cc:	08001087 	j	421c <n37_j_test+0x421c>
    41d0:	361064d0 	ori	s0,s0,0x64d0
    41d4:	10000013 	b	4224 <n37_j_test+0x4224>
    41d8:	00000000 	nop
    41dc:	00000000 	nop
    41e0:	00000021 	move	zero,zero
    41e4:	00000021 	move	zero,zero
    41e8:	00000021 	move	zero,zero
    41ec:	08001072 	j	41c8 <n37_j_test+0x41c8>
    41f0:	00000000 	nop
    41f4:	1000000b 	b	4224 <n37_j_test+0x4224>
    41f8:	00000000 	nop
    41fc:	00000000 	nop
    4200:	00000021 	move	zero,zero
    4204:	00000021 	move	zero,zero
    4208:	00000021 	move	zero,zero
    420c:	00000021 	move	zero,zero
    4210:	00000021 	move	zero,zero
    4214:	00000021 	move	zero,zero
    4218:	00000021 	move	zero,zero
    421c:	3c12d19d 	lui	s2,0xd19d
    4220:	365240bb 	ori	s2,s2,0x40bb
    4224:	00000000 	nop
    4228:	3c144f70 	lui	s4,0x4f70
    422c:	369464d0 	ori	s4,s4,0x64d0
    4230:	16141048 	bne	s0,s4,8354 <inst_error>
    4234:	00000000 	nop
    4238:	00000000 	nop
    423c:	3c15d19d 	lui	s5,0xd19d
    4240:	36b540bb 	ori	s5,s5,0x40bb
    4244:	16551043 	bne	s2,s5,8354 <inst_error>
    4248:	00000000 	nop
    424c:	00000000 	nop
    4250:	3c0cb0a6 	lui	t4,0xb0a6
    4254:	358c1578 	ori	t4,t4,0x1578
    4258:	3c0d9b7c 	lui	t5,0x9b7c
    425c:	35adab12 	ori	t5,t5,0xab12
    4260:	24100000 	li	s0,0
    4264:	1000000b 	b	4294 <n37_j_test+0x4294>
    4268:	24120000 	li	s2,0
    426c:	00000000 	nop
    4270:	3c10b0a6 	lui	s0,0xb0a6
    4274:	080010b1 	j	42c4 <n37_j_test+0x42c4>
    4278:	36101578 	ori	s0,s0,0x1578
    427c:	10000013 	b	42cc <n37_j_test+0x42cc>
    4280:	00000000 	nop
    4284:	00000000 	nop
    4288:	00000021 	move	zero,zero
    428c:	00000021 	move	zero,zero
    4290:	00000021 	move	zero,zero
    4294:	0800109c 	j	4270 <n37_j_test+0x4270>
    4298:	00000000 	nop
    429c:	1000000b 	b	42cc <n37_j_test+0x42cc>
    42a0:	00000000 	nop
    42a4:	00000000 	nop
    42a8:	00000021 	move	zero,zero
    42ac:	00000021 	move	zero,zero
    42b0:	00000021 	move	zero,zero
    42b4:	00000021 	move	zero,zero
    42b8:	00000021 	move	zero,zero
    42bc:	00000021 	move	zero,zero
    42c0:	00000021 	move	zero,zero
    42c4:	3c129b7c 	lui	s2,0x9b7c
    42c8:	3652ab12 	ori	s2,s2,0xab12
    42cc:	00000000 	nop
    42d0:	3c14b0a6 	lui	s4,0xb0a6
    42d4:	36941578 	ori	s4,s4,0x1578
    42d8:	1614101e 	bne	s0,s4,8354 <inst_error>
    42dc:	00000000 	nop
    42e0:	00000000 	nop
    42e4:	3c159b7c 	lui	s5,0x9b7c
    42e8:	36b5ab12 	ori	s5,s5,0xab12
    42ec:	16551019 	bne	s2,s5,8354 <inst_error>
    42f0:	00000000 	nop
    42f4:	00000000 	nop
    42f8:	3c0c37d9 	lui	t4,0x37d9
    42fc:	358ccf70 	ori	t4,t4,0xcf70
    4300:	3c0d14fb 	lui	t5,0x14fb
    4304:	35aded08 	ori	t5,t5,0xed08
    4308:	24100000 	li	s0,0
    430c:	1000000b 	b	433c <n37_j_test+0x433c>
    4310:	24120000 	li	s2,0
    4314:	00000000 	nop
    4318:	3c1037d9 	lui	s0,0x37d9
    431c:	080010db 	j	436c <n37_j_test+0x436c>
    4320:	3610cf70 	ori	s0,s0,0xcf70
    4324:	10000013 	b	4374 <n37_j_test+0x4374>
    4328:	00000000 	nop
    432c:	00000000 	nop
    4330:	00000021 	move	zero,zero
    4334:	00000021 	move	zero,zero
    4338:	00000021 	move	zero,zero
    433c:	080010c6 	j	4318 <n37_j_test+0x4318>
    4340:	00000000 	nop
    4344:	1000000b 	b	4374 <n37_j_test+0x4374>
    4348:	00000000 	nop
    434c:	00000000 	nop
    4350:	00000021 	move	zero,zero
    4354:	00000021 	move	zero,zero
    4358:	00000021 	move	zero,zero
    435c:	00000021 	move	zero,zero
    4360:	00000021 	move	zero,zero
    4364:	00000021 	move	zero,zero
    4368:	00000021 	move	zero,zero
    436c:	3c1214fb 	lui	s2,0x14fb
    4370:	3652ed08 	ori	s2,s2,0xed08
    4374:	00000000 	nop
    4378:	3c1437d9 	lui	s4,0x37d9
    437c:	3694cf70 	ori	s4,s4,0xcf70
    4380:	16140ff4 	bne	s0,s4,8354 <inst_error>
    4384:	00000000 	nop
    4388:	00000000 	nop
    438c:	3c1514fb 	lui	s5,0x14fb
    4390:	36b5ed08 	ori	s5,s5,0xed08
    4394:	16550fef 	bne	s2,s5,8354 <inst_error>
    4398:	00000000 	nop
    439c:	00000000 	nop
    43a0:	3c0caefb 	lui	t4,0xaefb
    43a4:	358cfe00 	ori	t4,t4,0xfe00
    43a8:	3c0d2ce8 	lui	t5,0x2ce8
    43ac:	35ad1d90 	ori	t5,t5,0x1d90
    43b0:	24100000 	li	s0,0
    43b4:	1000000b 	b	43e4 <n37_j_test+0x43e4>
    43b8:	24120000 	li	s2,0
    43bc:	00000000 	nop
    43c0:	3c10aefb 	lui	s0,0xaefb
    43c4:	08001105 	j	4414 <n37_j_test+0x4414>
    43c8:	3610fe00 	ori	s0,s0,0xfe00
    43cc:	10000013 	b	441c <n37_j_test+0x441c>
    43d0:	00000000 	nop
    43d4:	00000000 	nop
    43d8:	00000021 	move	zero,zero
    43dc:	00000021 	move	zero,zero
    43e0:	00000021 	move	zero,zero
    43e4:	080010f0 	j	43c0 <n37_j_test+0x43c0>
    43e8:	00000000 	nop
    43ec:	1000000b 	b	441c <n37_j_test+0x441c>
    43f0:	00000000 	nop
    43f4:	00000000 	nop
    43f8:	00000021 	move	zero,zero
    43fc:	00000021 	move	zero,zero
    4400:	00000021 	move	zero,zero
    4404:	00000021 	move	zero,zero
    4408:	00000021 	move	zero,zero
    440c:	00000021 	move	zero,zero
    4410:	00000021 	move	zero,zero
    4414:	3c122ce8 	lui	s2,0x2ce8
    4418:	36521d90 	ori	s2,s2,0x1d90
    441c:	00000000 	nop
    4420:	3c14aefb 	lui	s4,0xaefb
    4424:	3694fe00 	ori	s4,s4,0xfe00
    4428:	16140fca 	bne	s0,s4,8354 <inst_error>
    442c:	00000000 	nop
    4430:	00000000 	nop
    4434:	3c152ce8 	lui	s5,0x2ce8
    4438:	36b51d90 	ori	s5,s5,0x1d90
    443c:	16550fc5 	bne	s2,s5,8354 <inst_error>
    4440:	00000000 	nop
    4444:	00000000 	nop
    4448:	3c0c33bb 	lui	t4,0x33bb
    444c:	358c8cf0 	ori	t4,t4,0x8cf0
    4450:	3c0d8181 	lui	t5,0x8181
    4454:	35ad8a0c 	ori	t5,t5,0x8a0c
    4458:	24100000 	li	s0,0
    445c:	1000000b 	b	448c <n37_j_test+0x448c>
    4460:	24120000 	li	s2,0
    4464:	00000000 	nop
    4468:	3c1033bb 	lui	s0,0x33bb
    446c:	0800112f 	j	44bc <n37_j_test+0x44bc>
    4470:	36108cf0 	ori	s0,s0,0x8cf0
    4474:	10000013 	b	44c4 <n37_j_test+0x44c4>
    4478:	00000000 	nop
    447c:	00000000 	nop
    4480:	00000021 	move	zero,zero
    4484:	00000021 	move	zero,zero
    4488:	00000021 	move	zero,zero
    448c:	0800111a 	j	4468 <n37_j_test+0x4468>
    4490:	00000000 	nop
    4494:	1000000b 	b	44c4 <n37_j_test+0x44c4>
    4498:	00000000 	nop
    449c:	00000000 	nop
    44a0:	00000021 	move	zero,zero
    44a4:	00000021 	move	zero,zero
    44a8:	00000021 	move	zero,zero
    44ac:	00000021 	move	zero,zero
    44b0:	00000021 	move	zero,zero
    44b4:	00000021 	move	zero,zero
    44b8:	00000021 	move	zero,zero
    44bc:	3c128181 	lui	s2,0x8181
    44c0:	36528a0c 	ori	s2,s2,0x8a0c
    44c4:	00000000 	nop
    44c8:	3c1433bb 	lui	s4,0x33bb
    44cc:	36948cf0 	ori	s4,s4,0x8cf0
    44d0:	16140fa0 	bne	s0,s4,8354 <inst_error>
    44d4:	00000000 	nop
    44d8:	00000000 	nop
    44dc:	3c158181 	lui	s5,0x8181
    44e0:	36b58a0c 	ori	s5,s5,0x8a0c
    44e4:	16550f9b 	bne	s2,s5,8354 <inst_error>
    44e8:	00000000 	nop
    44ec:	00000000 	nop
    44f0:	3c0ce2d0 	lui	t4,0xe2d0
    44f4:	358cfb60 	ori	t4,t4,0xfb60
    44f8:	3c0dc656 	lui	t5,0xc656
    44fc:	35ad4330 	ori	t5,t5,0x4330
    4500:	24100000 	li	s0,0
    4504:	1000000b 	b	4534 <n37_j_test+0x4534>
    4508:	24120000 	li	s2,0
    450c:	00000000 	nop
    4510:	3c10e2d0 	lui	s0,0xe2d0
    4514:	08001159 	j	4564 <n37_j_test+0x4564>
    4518:	3610fb60 	ori	s0,s0,0xfb60
    451c:	10000013 	b	456c <n37_j_test+0x456c>
    4520:	00000000 	nop
    4524:	00000000 	nop
    4528:	00000021 	move	zero,zero
    452c:	00000021 	move	zero,zero
    4530:	00000021 	move	zero,zero
    4534:	08001144 	j	4510 <n37_j_test+0x4510>
    4538:	00000000 	nop
    453c:	1000000b 	b	456c <n37_j_test+0x456c>
    4540:	00000000 	nop
    4544:	00000000 	nop
    4548:	00000021 	move	zero,zero
    454c:	00000021 	move	zero,zero
    4550:	00000021 	move	zero,zero
    4554:	00000021 	move	zero,zero
    4558:	00000021 	move	zero,zero
    455c:	00000021 	move	zero,zero
    4560:	00000021 	move	zero,zero
    4564:	3c12c656 	lui	s2,0xc656
    4568:	36524330 	ori	s2,s2,0x4330
    456c:	00000000 	nop
    4570:	3c14e2d0 	lui	s4,0xe2d0
    4574:	3694fb60 	ori	s4,s4,0xfb60
    4578:	16140f76 	bne	s0,s4,8354 <inst_error>
    457c:	00000000 	nop
    4580:	00000000 	nop
    4584:	3c15c656 	lui	s5,0xc656
    4588:	36b54330 	ori	s5,s5,0x4330
    458c:	16550f71 	bne	s2,s5,8354 <inst_error>
    4590:	00000000 	nop
    4594:	00000000 	nop
    4598:	3c0c75f3 	lui	t4,0x75f3
    459c:	358ce4f8 	ori	t4,t4,0xe4f8
    45a0:	3c0de296 	lui	t5,0xe296
    45a4:	35ada2e0 	ori	t5,t5,0xa2e0
    45a8:	24100000 	li	s0,0
    45ac:	1000000b 	b	45dc <n37_j_test+0x45dc>
    45b0:	24120000 	li	s2,0
    45b4:	00000000 	nop
    45b8:	3c1075f3 	lui	s0,0x75f3
    45bc:	08001183 	j	460c <n37_j_test+0x460c>
    45c0:	3610e4f8 	ori	s0,s0,0xe4f8
    45c4:	10000013 	b	4614 <n37_j_test+0x4614>
    45c8:	00000000 	nop
    45cc:	00000000 	nop
    45d0:	00000021 	move	zero,zero
    45d4:	00000021 	move	zero,zero
    45d8:	00000021 	move	zero,zero
    45dc:	0800116e 	j	45b8 <n37_j_test+0x45b8>
    45e0:	00000000 	nop
    45e4:	1000000b 	b	4614 <n37_j_test+0x4614>
    45e8:	00000000 	nop
    45ec:	00000000 	nop
    45f0:	00000021 	move	zero,zero
    45f4:	00000021 	move	zero,zero
    45f8:	00000021 	move	zero,zero
    45fc:	00000021 	move	zero,zero
    4600:	00000021 	move	zero,zero
    4604:	00000021 	move	zero,zero
    4608:	00000021 	move	zero,zero
    460c:	3c12e296 	lui	s2,0xe296
    4610:	3652a2e0 	ori	s2,s2,0xa2e0
    4614:	00000000 	nop
    4618:	3c1475f3 	lui	s4,0x75f3
    461c:	3694e4f8 	ori	s4,s4,0xe4f8
    4620:	16140f4c 	bne	s0,s4,8354 <inst_error>
    4624:	00000000 	nop
    4628:	00000000 	nop
    462c:	3c15e296 	lui	s5,0xe296
    4630:	36b5a2e0 	ori	s5,s5,0xa2e0
    4634:	16550f47 	bne	s2,s5,8354 <inst_error>
    4638:	00000000 	nop
    463c:	00000000 	nop
    4640:	3c0ccec9 	lui	t4,0xcec9
    4644:	358c8738 	ori	t4,t4,0x8738
    4648:	3c0dabf2 	lui	t5,0xabf2
    464c:	35ad004c 	ori	t5,t5,0x4c
    4650:	24100000 	li	s0,0
    4654:	1000000b 	b	4684 <n37_j_test+0x4684>
    4658:	24120000 	li	s2,0
    465c:	00000000 	nop
    4660:	3c10cec9 	lui	s0,0xcec9
    4664:	080011ad 	j	46b4 <n37_j_test+0x46b4>
    4668:	36108738 	ori	s0,s0,0x8738
    466c:	10000013 	b	46bc <n37_j_test+0x46bc>
    4670:	00000000 	nop
    4674:	00000000 	nop
    4678:	00000021 	move	zero,zero
    467c:	00000021 	move	zero,zero
    4680:	00000021 	move	zero,zero
    4684:	08001198 	j	4660 <n37_j_test+0x4660>
    4688:	00000000 	nop
    468c:	1000000b 	b	46bc <n37_j_test+0x46bc>
    4690:	00000000 	nop
    4694:	00000000 	nop
    4698:	00000021 	move	zero,zero
    469c:	00000021 	move	zero,zero
    46a0:	00000021 	move	zero,zero
    46a4:	00000021 	move	zero,zero
    46a8:	00000021 	move	zero,zero
    46ac:	00000021 	move	zero,zero
    46b0:	00000021 	move	zero,zero
    46b4:	3c12abf2 	lui	s2,0xabf2
    46b8:	3652004c 	ori	s2,s2,0x4c
    46bc:	00000000 	nop
    46c0:	3c14cec9 	lui	s4,0xcec9
    46c4:	36948738 	ori	s4,s4,0x8738
    46c8:	16140f22 	bne	s0,s4,8354 <inst_error>
    46cc:	00000000 	nop
    46d0:	00000000 	nop
    46d4:	3c15abf2 	lui	s5,0xabf2
    46d8:	36b5004c 	ori	s5,s5,0x4c
    46dc:	16550f1d 	bne	s2,s5,8354 <inst_error>
    46e0:	00000000 	nop
    46e4:	00000000 	nop
    46e8:	3c0cf68b 	lui	t4,0xf68b
    46ec:	358c5540 	ori	t4,t4,0x5540
    46f0:	3c0d2e05 	lui	t5,0x2e05
    46f4:	35ad5e65 	ori	t5,t5,0x5e65
    46f8:	24100000 	li	s0,0
    46fc:	1000000b 	b	472c <n37_j_test+0x472c>
    4700:	24120000 	li	s2,0
    4704:	00000000 	nop
    4708:	3c10f68b 	lui	s0,0xf68b
    470c:	080011d7 	j	475c <n37_j_test+0x475c>
    4710:	36105540 	ori	s0,s0,0x5540
    4714:	10000013 	b	4764 <n37_j_test+0x4764>
    4718:	00000000 	nop
    471c:	00000000 	nop
    4720:	00000021 	move	zero,zero
    4724:	00000021 	move	zero,zero
    4728:	00000021 	move	zero,zero
    472c:	080011c2 	j	4708 <n37_j_test+0x4708>
    4730:	00000000 	nop
    4734:	1000000b 	b	4764 <n37_j_test+0x4764>
    4738:	00000000 	nop
    473c:	00000000 	nop
    4740:	00000021 	move	zero,zero
    4744:	00000021 	move	zero,zero
    4748:	00000021 	move	zero,zero
    474c:	00000021 	move	zero,zero
    4750:	00000021 	move	zero,zero
    4754:	00000021 	move	zero,zero
    4758:	00000021 	move	zero,zero
    475c:	3c122e05 	lui	s2,0x2e05
    4760:	36525e65 	ori	s2,s2,0x5e65
    4764:	00000000 	nop
    4768:	3c14f68b 	lui	s4,0xf68b
    476c:	36945540 	ori	s4,s4,0x5540
    4770:	16140ef8 	bne	s0,s4,8354 <inst_error>
    4774:	00000000 	nop
    4778:	00000000 	nop
    477c:	3c152e05 	lui	s5,0x2e05
    4780:	36b55e65 	ori	s5,s5,0x5e65
    4784:	16550ef3 	bne	s2,s5,8354 <inst_error>
    4788:	00000000 	nop
    478c:	00000000 	nop
    4790:	3c0c27b1 	lui	t4,0x27b1
    4794:	358c508a 	ori	t4,t4,0x508a
    4798:	3c0d1363 	lui	t5,0x1363
    479c:	35ad7e7c 	ori	t5,t5,0x7e7c
    47a0:	24100000 	li	s0,0
    47a4:	1000000b 	b	47d4 <n37_j_test+0x47d4>
    47a8:	24120000 	li	s2,0
    47ac:	00000000 	nop
    47b0:	3c1027b1 	lui	s0,0x27b1
    47b4:	08001201 	j	4804 <n37_j_test+0x4804>
    47b8:	3610508a 	ori	s0,s0,0x508a
    47bc:	10000013 	b	480c <n37_j_test+0x480c>
    47c0:	00000000 	nop
    47c4:	00000000 	nop
    47c8:	00000021 	move	zero,zero
    47cc:	00000021 	move	zero,zero
    47d0:	00000021 	move	zero,zero
    47d4:	080011ec 	j	47b0 <n37_j_test+0x47b0>
    47d8:	00000000 	nop
    47dc:	1000000b 	b	480c <n37_j_test+0x480c>
    47e0:	00000000 	nop
    47e4:	00000000 	nop
    47e8:	00000021 	move	zero,zero
    47ec:	00000021 	move	zero,zero
    47f0:	00000021 	move	zero,zero
    47f4:	00000021 	move	zero,zero
    47f8:	00000021 	move	zero,zero
    47fc:	00000021 	move	zero,zero
    4800:	00000021 	move	zero,zero
    4804:	3c121363 	lui	s2,0x1363
    4808:	36527e7c 	ori	s2,s2,0x7e7c
    480c:	00000000 	nop
    4810:	3c1427b1 	lui	s4,0x27b1
    4814:	3694508a 	ori	s4,s4,0x508a
    4818:	16140ece 	bne	s0,s4,8354 <inst_error>
    481c:	00000000 	nop
    4820:	00000000 	nop
    4824:	3c151363 	lui	s5,0x1363
    4828:	36b57e7c 	ori	s5,s5,0x7e7c
    482c:	16550ec9 	bne	s2,s5,8354 <inst_error>
    4830:	00000000 	nop
    4834:	00000000 	nop
    4838:	3c0c26c9 	lui	t4,0x26c9
    483c:	358c9418 	ori	t4,t4,0x9418
    4840:	3c0de2ac 	lui	t5,0xe2ac
    4844:	35adf6df 	ori	t5,t5,0xf6df
    4848:	24100000 	li	s0,0
    484c:	1000000b 	b	487c <n37_j_test+0x487c>
    4850:	24120000 	li	s2,0
    4854:	00000000 	nop
    4858:	3c1026c9 	lui	s0,0x26c9
    485c:	0800122b 	j	48ac <n37_j_test+0x48ac>
    4860:	36109418 	ori	s0,s0,0x9418
    4864:	10000013 	b	48b4 <n37_j_test+0x48b4>
    4868:	00000000 	nop
    486c:	00000000 	nop
    4870:	00000021 	move	zero,zero
    4874:	00000021 	move	zero,zero
    4878:	00000021 	move	zero,zero
    487c:	08001216 	j	4858 <n37_j_test+0x4858>
    4880:	00000000 	nop
    4884:	1000000b 	b	48b4 <n37_j_test+0x48b4>
    4888:	00000000 	nop
    488c:	00000000 	nop
    4890:	00000021 	move	zero,zero
    4894:	00000021 	move	zero,zero
    4898:	00000021 	move	zero,zero
    489c:	00000021 	move	zero,zero
    48a0:	00000021 	move	zero,zero
    48a4:	00000021 	move	zero,zero
    48a8:	00000021 	move	zero,zero
    48ac:	3c12e2ac 	lui	s2,0xe2ac
    48b0:	3652f6df 	ori	s2,s2,0xf6df
    48b4:	00000000 	nop
    48b8:	3c1426c9 	lui	s4,0x26c9
    48bc:	36949418 	ori	s4,s4,0x9418
    48c0:	16140ea4 	bne	s0,s4,8354 <inst_error>
    48c4:	00000000 	nop
    48c8:	00000000 	nop
    48cc:	3c15e2ac 	lui	s5,0xe2ac
    48d0:	36b5f6df 	ori	s5,s5,0xf6df
    48d4:	16550e9f 	bne	s2,s5,8354 <inst_error>
    48d8:	00000000 	nop
    48dc:	00000000 	nop
    48e0:	3c0cbcad 	lui	t4,0xbcad
    48e4:	358ce2f0 	ori	t4,t4,0xe2f0
    48e8:	3c0daf8c 	lui	t5,0xaf8c
    48ec:	35ad6a4c 	ori	t5,t5,0x6a4c
    48f0:	24100000 	li	s0,0
    48f4:	1000000b 	b	4924 <n37_j_test+0x4924>
    48f8:	24120000 	li	s2,0
    48fc:	00000000 	nop
    4900:	3c10bcad 	lui	s0,0xbcad
    4904:	08001255 	j	4954 <n37_j_test+0x4954>
    4908:	3610e2f0 	ori	s0,s0,0xe2f0
    490c:	10000013 	b	495c <n37_j_test+0x495c>
    4910:	00000000 	nop
    4914:	00000000 	nop
    4918:	00000021 	move	zero,zero
    491c:	00000021 	move	zero,zero
    4920:	00000021 	move	zero,zero
    4924:	08001240 	j	4900 <n37_j_test+0x4900>
    4928:	00000000 	nop
    492c:	1000000b 	b	495c <n37_j_test+0x495c>
    4930:	00000000 	nop
    4934:	00000000 	nop
    4938:	00000021 	move	zero,zero
    493c:	00000021 	move	zero,zero
    4940:	00000021 	move	zero,zero
    4944:	00000021 	move	zero,zero
    4948:	00000021 	move	zero,zero
    494c:	00000021 	move	zero,zero
    4950:	00000021 	move	zero,zero
    4954:	3c12af8c 	lui	s2,0xaf8c
    4958:	36526a4c 	ori	s2,s2,0x6a4c
    495c:	00000000 	nop
    4960:	3c14bcad 	lui	s4,0xbcad
    4964:	3694e2f0 	ori	s4,s4,0xe2f0
    4968:	16140e7a 	bne	s0,s4,8354 <inst_error>
    496c:	00000000 	nop
    4970:	00000000 	nop
    4974:	3c15af8c 	lui	s5,0xaf8c
    4978:	36b56a4c 	ori	s5,s5,0x6a4c
    497c:	16550e75 	bne	s2,s5,8354 <inst_error>
    4980:	00000000 	nop
    4984:	00000000 	nop
    4988:	3c0cd2dd 	lui	t4,0xd2dd
    498c:	358c0f7a 	ori	t4,t4,0xf7a
    4990:	3c0d0250 	lui	t5,0x250
    4994:	35ad5358 	ori	t5,t5,0x5358
    4998:	24100000 	li	s0,0
    499c:	1000000b 	b	49cc <n37_j_test+0x49cc>
    49a0:	24120000 	li	s2,0
    49a4:	00000000 	nop
    49a8:	3c10d2dd 	lui	s0,0xd2dd
    49ac:	0800127f 	j	49fc <n37_j_test+0x49fc>
    49b0:	36100f7a 	ori	s0,s0,0xf7a
    49b4:	10000013 	b	4a04 <n37_j_test+0x4a04>
    49b8:	00000000 	nop
    49bc:	00000000 	nop
    49c0:	00000021 	move	zero,zero
    49c4:	00000021 	move	zero,zero
    49c8:	00000021 	move	zero,zero
    49cc:	0800126a 	j	49a8 <n37_j_test+0x49a8>
    49d0:	00000000 	nop
    49d4:	1000000b 	b	4a04 <n37_j_test+0x4a04>
    49d8:	00000000 	nop
    49dc:	00000000 	nop
    49e0:	00000021 	move	zero,zero
    49e4:	00000021 	move	zero,zero
    49e8:	00000021 	move	zero,zero
    49ec:	00000021 	move	zero,zero
    49f0:	00000021 	move	zero,zero
    49f4:	00000021 	move	zero,zero
    49f8:	00000021 	move	zero,zero
    49fc:	3c120250 	lui	s2,0x250
    4a00:	36525358 	ori	s2,s2,0x5358
    4a04:	00000000 	nop
    4a08:	3c14d2dd 	lui	s4,0xd2dd
    4a0c:	36940f7a 	ori	s4,s4,0xf7a
    4a10:	16140e50 	bne	s0,s4,8354 <inst_error>
    4a14:	00000000 	nop
    4a18:	00000000 	nop
    4a1c:	3c150250 	lui	s5,0x250
    4a20:	36b55358 	ori	s5,s5,0x5358
    4a24:	16550e4b 	bne	s2,s5,8354 <inst_error>
    4a28:	00000000 	nop
    4a2c:	00000000 	nop
    4a30:	3c0cd42c 	lui	t4,0xd42c
    4a34:	358c4540 	ori	t4,t4,0x4540
    4a38:	3c0de947 	lui	t5,0xe947
    4a3c:	35adf0cc 	ori	t5,t5,0xf0cc
    4a40:	24100000 	li	s0,0
    4a44:	1000000b 	b	4a74 <n37_j_test+0x4a74>
    4a48:	24120000 	li	s2,0
    4a4c:	00000000 	nop
    4a50:	3c10d42c 	lui	s0,0xd42c
    4a54:	080012a9 	j	4aa4 <n37_j_test+0x4aa4>
    4a58:	36104540 	ori	s0,s0,0x4540
    4a5c:	10000013 	b	4aac <n37_j_test+0x4aac>
    4a60:	00000000 	nop
    4a64:	00000000 	nop
    4a68:	00000021 	move	zero,zero
    4a6c:	00000021 	move	zero,zero
    4a70:	00000021 	move	zero,zero
    4a74:	08001294 	j	4a50 <n37_j_test+0x4a50>
    4a78:	00000000 	nop
    4a7c:	1000000b 	b	4aac <n37_j_test+0x4aac>
    4a80:	00000000 	nop
    4a84:	00000000 	nop
    4a88:	00000021 	move	zero,zero
    4a8c:	00000021 	move	zero,zero
    4a90:	00000021 	move	zero,zero
    4a94:	00000021 	move	zero,zero
    4a98:	00000021 	move	zero,zero
    4a9c:	00000021 	move	zero,zero
    4aa0:	00000021 	move	zero,zero
    4aa4:	3c12e947 	lui	s2,0xe947
    4aa8:	3652f0cc 	ori	s2,s2,0xf0cc
    4aac:	00000000 	nop
    4ab0:	3c14d42c 	lui	s4,0xd42c
    4ab4:	36944540 	ori	s4,s4,0x4540
    4ab8:	16140e26 	bne	s0,s4,8354 <inst_error>
    4abc:	00000000 	nop
    4ac0:	00000000 	nop
    4ac4:	3c15e947 	lui	s5,0xe947
    4ac8:	36b5f0cc 	ori	s5,s5,0xf0cc
    4acc:	16550e21 	bne	s2,s5,8354 <inst_error>
    4ad0:	00000000 	nop
    4ad4:	00000000 	nop
    4ad8:	3c0c9f42 	lui	t4,0x9f42
    4adc:	358cd6b5 	ori	t4,t4,0xd6b5
    4ae0:	3c0d50fc 	lui	t5,0x50fc
    4ae4:	35ad1807 	ori	t5,t5,0x1807
    4ae8:	24100000 	li	s0,0
    4aec:	1000000b 	b	4b1c <n37_j_test+0x4b1c>
    4af0:	24120000 	li	s2,0
    4af4:	00000000 	nop
    4af8:	3c109f42 	lui	s0,0x9f42
    4afc:	080012d3 	j	4b4c <n37_j_test+0x4b4c>
    4b00:	3610d6b5 	ori	s0,s0,0xd6b5
    4b04:	10000013 	b	4b54 <n37_j_test+0x4b54>
    4b08:	00000000 	nop
    4b0c:	00000000 	nop
    4b10:	00000021 	move	zero,zero
    4b14:	00000021 	move	zero,zero
    4b18:	00000021 	move	zero,zero
    4b1c:	080012be 	j	4af8 <n37_j_test+0x4af8>
    4b20:	00000000 	nop
    4b24:	1000000b 	b	4b54 <n37_j_test+0x4b54>
    4b28:	00000000 	nop
    4b2c:	00000000 	nop
    4b30:	00000021 	move	zero,zero
    4b34:	00000021 	move	zero,zero
    4b38:	00000021 	move	zero,zero
    4b3c:	00000021 	move	zero,zero
    4b40:	00000021 	move	zero,zero
    4b44:	00000021 	move	zero,zero
    4b48:	00000021 	move	zero,zero
    4b4c:	3c1250fc 	lui	s2,0x50fc
    4b50:	36521807 	ori	s2,s2,0x1807
    4b54:	00000000 	nop
    4b58:	3c149f42 	lui	s4,0x9f42
    4b5c:	3694d6b5 	ori	s4,s4,0xd6b5
    4b60:	16140dfc 	bne	s0,s4,8354 <inst_error>
    4b64:	00000000 	nop
    4b68:	00000000 	nop
    4b6c:	3c1550fc 	lui	s5,0x50fc
    4b70:	36b51807 	ori	s5,s5,0x1807
    4b74:	16550df7 	bne	s2,s5,8354 <inst_error>
    4b78:	00000000 	nop
    4b7c:	00000000 	nop
    4b80:	3c0ccfe3 	lui	t4,0xcfe3
    4b84:	358c71c0 	ori	t4,t4,0x71c0
    4b88:	3c0dae3b 	lui	t5,0xae3b
    4b8c:	35adc880 	ori	t5,t5,0xc880
    4b90:	24100000 	li	s0,0
    4b94:	1000000b 	b	4bc4 <n37_j_test+0x4bc4>
    4b98:	24120000 	li	s2,0
    4b9c:	00000000 	nop
    4ba0:	3c10cfe3 	lui	s0,0xcfe3
    4ba4:	080012fd 	j	4bf4 <n37_j_test+0x4bf4>
    4ba8:	361071c0 	ori	s0,s0,0x71c0
    4bac:	10000013 	b	4bfc <n37_j_test+0x4bfc>
    4bb0:	00000000 	nop
    4bb4:	00000000 	nop
    4bb8:	00000021 	move	zero,zero
    4bbc:	00000021 	move	zero,zero
    4bc0:	00000021 	move	zero,zero
    4bc4:	080012e8 	j	4ba0 <n37_j_test+0x4ba0>
    4bc8:	00000000 	nop
    4bcc:	1000000b 	b	4bfc <n37_j_test+0x4bfc>
    4bd0:	00000000 	nop
    4bd4:	00000000 	nop
    4bd8:	00000021 	move	zero,zero
    4bdc:	00000021 	move	zero,zero
    4be0:	00000021 	move	zero,zero
    4be4:	00000021 	move	zero,zero
    4be8:	00000021 	move	zero,zero
    4bec:	00000021 	move	zero,zero
    4bf0:	00000021 	move	zero,zero
    4bf4:	3c12ae3b 	lui	s2,0xae3b
    4bf8:	3652c880 	ori	s2,s2,0xc880
    4bfc:	00000000 	nop
    4c00:	3c14cfe3 	lui	s4,0xcfe3
    4c04:	369471c0 	ori	s4,s4,0x71c0
    4c08:	16140dd2 	bne	s0,s4,8354 <inst_error>
    4c0c:	00000000 	nop
    4c10:	00000000 	nop
    4c14:	3c15ae3b 	lui	s5,0xae3b
    4c18:	36b5c880 	ori	s5,s5,0xc880
    4c1c:	16550dcd 	bne	s2,s5,8354 <inst_error>
    4c20:	00000000 	nop
    4c24:	00000000 	nop
    4c28:	3c0c9a8b 	lui	t4,0x9a8b
    4c2c:	358c077c 	ori	t4,t4,0x77c
    4c30:	3c0d8584 	lui	t5,0x8584
    4c34:	35ad5e80 	ori	t5,t5,0x5e80
    4c38:	24100000 	li	s0,0
    4c3c:	1000000b 	b	4c6c <n37_j_test+0x4c6c>
    4c40:	24120000 	li	s2,0
    4c44:	00000000 	nop
    4c48:	3c109a8b 	lui	s0,0x9a8b
    4c4c:	08001327 	j	4c9c <n37_j_test+0x4c9c>
    4c50:	3610077c 	ori	s0,s0,0x77c
    4c54:	10000013 	b	4ca4 <n37_j_test+0x4ca4>
    4c58:	00000000 	nop
    4c5c:	00000000 	nop
    4c60:	00000021 	move	zero,zero
    4c64:	00000021 	move	zero,zero
    4c68:	00000021 	move	zero,zero
    4c6c:	08001312 	j	4c48 <n37_j_test+0x4c48>
    4c70:	00000000 	nop
    4c74:	1000000b 	b	4ca4 <n37_j_test+0x4ca4>
    4c78:	00000000 	nop
    4c7c:	00000000 	nop
    4c80:	00000021 	move	zero,zero
    4c84:	00000021 	move	zero,zero
    4c88:	00000021 	move	zero,zero
    4c8c:	00000021 	move	zero,zero
    4c90:	00000021 	move	zero,zero
    4c94:	00000021 	move	zero,zero
    4c98:	00000021 	move	zero,zero
    4c9c:	3c128584 	lui	s2,0x8584
    4ca0:	36525e80 	ori	s2,s2,0x5e80
    4ca4:	00000000 	nop
    4ca8:	3c149a8b 	lui	s4,0x9a8b
    4cac:	3694077c 	ori	s4,s4,0x77c
    4cb0:	16140da8 	bne	s0,s4,8354 <inst_error>
    4cb4:	00000000 	nop
    4cb8:	00000000 	nop
    4cbc:	3c158584 	lui	s5,0x8584
    4cc0:	36b55e80 	ori	s5,s5,0x5e80
    4cc4:	16550da3 	bne	s2,s5,8354 <inst_error>
    4cc8:	00000000 	nop
    4ccc:	00000000 	nop
    4cd0:	3c0cbde4 	lui	t4,0xbde4
    4cd4:	358cd300 	ori	t4,t4,0xd300
    4cd8:	3c0dc71d 	lui	t5,0xc71d
    4cdc:	35ada18e 	ori	t5,t5,0xa18e
    4ce0:	24100000 	li	s0,0
    4ce4:	1000000b 	b	4d14 <n37_j_test+0x4d14>
    4ce8:	24120000 	li	s2,0
    4cec:	00000000 	nop
    4cf0:	3c10bde4 	lui	s0,0xbde4
    4cf4:	08001351 	j	4d44 <n37_j_test+0x4d44>
    4cf8:	3610d300 	ori	s0,s0,0xd300
    4cfc:	10000013 	b	4d4c <n37_j_test+0x4d4c>
    4d00:	00000000 	nop
    4d04:	00000000 	nop
    4d08:	00000021 	move	zero,zero
    4d0c:	00000021 	move	zero,zero
    4d10:	00000021 	move	zero,zero
    4d14:	0800133c 	j	4cf0 <n37_j_test+0x4cf0>
    4d18:	00000000 	nop
    4d1c:	1000000b 	b	4d4c <n37_j_test+0x4d4c>
    4d20:	00000000 	nop
    4d24:	00000000 	nop
    4d28:	00000021 	move	zero,zero
    4d2c:	00000021 	move	zero,zero
    4d30:	00000021 	move	zero,zero
    4d34:	00000021 	move	zero,zero
    4d38:	00000021 	move	zero,zero
    4d3c:	00000021 	move	zero,zero
    4d40:	00000021 	move	zero,zero
    4d44:	3c12c71d 	lui	s2,0xc71d
    4d48:	3652a18e 	ori	s2,s2,0xa18e
    4d4c:	00000000 	nop
    4d50:	3c14bde4 	lui	s4,0xbde4
    4d54:	3694d300 	ori	s4,s4,0xd300
    4d58:	16140d7e 	bne	s0,s4,8354 <inst_error>
    4d5c:	00000000 	nop
    4d60:	00000000 	nop
    4d64:	3c15c71d 	lui	s5,0xc71d
    4d68:	36b5a18e 	ori	s5,s5,0xa18e
    4d6c:	16550d79 	bne	s2,s5,8354 <inst_error>
    4d70:	00000000 	nop
    4d74:	00000000 	nop
    4d78:	3c0c2a8d 	lui	t4,0x2a8d
    4d7c:	358c7670 	ori	t4,t4,0x7670
    4d80:	3c0d342c 	lui	t5,0x342c
    4d84:	35ad7e80 	ori	t5,t5,0x7e80
    4d88:	24100000 	li	s0,0
    4d8c:	1000000b 	b	4dbc <n37_j_test+0x4dbc>
    4d90:	24120000 	li	s2,0
    4d94:	00000000 	nop
    4d98:	3c102a8d 	lui	s0,0x2a8d
    4d9c:	0800137b 	j	4dec <n37_j_test+0x4dec>
    4da0:	36107670 	ori	s0,s0,0x7670
    4da4:	10000013 	b	4df4 <n37_j_test+0x4df4>
    4da8:	00000000 	nop
    4dac:	00000000 	nop
    4db0:	00000021 	move	zero,zero
    4db4:	00000021 	move	zero,zero
    4db8:	00000021 	move	zero,zero
    4dbc:	08001366 	j	4d98 <n37_j_test+0x4d98>
    4dc0:	00000000 	nop
    4dc4:	1000000b 	b	4df4 <n37_j_test+0x4df4>
    4dc8:	00000000 	nop
    4dcc:	00000000 	nop
    4dd0:	00000021 	move	zero,zero
    4dd4:	00000021 	move	zero,zero
    4dd8:	00000021 	move	zero,zero
    4ddc:	00000021 	move	zero,zero
    4de0:	00000021 	move	zero,zero
    4de4:	00000021 	move	zero,zero
    4de8:	00000021 	move	zero,zero
    4dec:	3c12342c 	lui	s2,0x342c
    4df0:	36527e80 	ori	s2,s2,0x7e80
    4df4:	00000000 	nop
    4df8:	3c142a8d 	lui	s4,0x2a8d
    4dfc:	36947670 	ori	s4,s4,0x7670
    4e00:	16140d54 	bne	s0,s4,8354 <inst_error>
    4e04:	00000000 	nop
    4e08:	00000000 	nop
    4e0c:	3c15342c 	lui	s5,0x342c
    4e10:	36b57e80 	ori	s5,s5,0x7e80
    4e14:	16550d4f 	bne	s2,s5,8354 <inst_error>
    4e18:	00000000 	nop
    4e1c:	00000000 	nop
    4e20:	3c0c1718 	lui	t4,0x1718
    4e24:	358cb9de 	ori	t4,t4,0xb9de
    4e28:	3c0d62a3 	lui	t5,0x62a3
    4e2c:	35adcb74 	ori	t5,t5,0xcb74
    4e30:	24100000 	li	s0,0
    4e34:	1000000b 	b	4e64 <n37_j_test+0x4e64>
    4e38:	24120000 	li	s2,0
    4e3c:	00000000 	nop
    4e40:	3c101718 	lui	s0,0x1718
    4e44:	080013a5 	j	4e94 <n37_j_test+0x4e94>
    4e48:	3610b9de 	ori	s0,s0,0xb9de
    4e4c:	10000013 	b	4e9c <n37_j_test+0x4e9c>
    4e50:	00000000 	nop
    4e54:	00000000 	nop
    4e58:	00000021 	move	zero,zero
    4e5c:	00000021 	move	zero,zero
    4e60:	00000021 	move	zero,zero
    4e64:	08001390 	j	4e40 <n37_j_test+0x4e40>
    4e68:	00000000 	nop
    4e6c:	1000000b 	b	4e9c <n37_j_test+0x4e9c>
    4e70:	00000000 	nop
    4e74:	00000000 	nop
    4e78:	00000021 	move	zero,zero
    4e7c:	00000021 	move	zero,zero
    4e80:	00000021 	move	zero,zero
    4e84:	00000021 	move	zero,zero
    4e88:	00000021 	move	zero,zero
    4e8c:	00000021 	move	zero,zero
    4e90:	00000021 	move	zero,zero
    4e94:	3c1262a3 	lui	s2,0x62a3
    4e98:	3652cb74 	ori	s2,s2,0xcb74
    4e9c:	00000000 	nop
    4ea0:	3c141718 	lui	s4,0x1718
    4ea4:	3694b9de 	ori	s4,s4,0xb9de
    4ea8:	16140d2a 	bne	s0,s4,8354 <inst_error>
    4eac:	00000000 	nop
    4eb0:	00000000 	nop
    4eb4:	3c1562a3 	lui	s5,0x62a3
    4eb8:	36b5cb74 	ori	s5,s5,0xcb74
    4ebc:	16550d25 	bne	s2,s5,8354 <inst_error>
    4ec0:	00000000 	nop
    4ec4:	00000000 	nop
    4ec8:	3c0c8bc8 	lui	t4,0x8bc8
    4ecc:	358cb000 	ori	t4,t4,0xb000
    4ed0:	3c0df503 	lui	t5,0xf503
    4ed4:	35ad7c60 	ori	t5,t5,0x7c60
    4ed8:	24100000 	li	s0,0
    4edc:	1000000b 	b	4f0c <n37_j_test+0x4f0c>
    4ee0:	24120000 	li	s2,0
    4ee4:	00000000 	nop
    4ee8:	3c108bc8 	lui	s0,0x8bc8
    4eec:	080013cf 	j	4f3c <n37_j_test+0x4f3c>
    4ef0:	3610b000 	ori	s0,s0,0xb000
    4ef4:	10000013 	b	4f44 <n37_j_test+0x4f44>
    4ef8:	00000000 	nop
    4efc:	00000000 	nop
    4f00:	00000021 	move	zero,zero
    4f04:	00000021 	move	zero,zero
    4f08:	00000021 	move	zero,zero
    4f0c:	080013ba 	j	4ee8 <n37_j_test+0x4ee8>
    4f10:	00000000 	nop
    4f14:	1000000b 	b	4f44 <n37_j_test+0x4f44>
    4f18:	00000000 	nop
    4f1c:	00000000 	nop
    4f20:	00000021 	move	zero,zero
    4f24:	00000021 	move	zero,zero
    4f28:	00000021 	move	zero,zero
    4f2c:	00000021 	move	zero,zero
    4f30:	00000021 	move	zero,zero
    4f34:	00000021 	move	zero,zero
    4f38:	00000021 	move	zero,zero
    4f3c:	3c12f503 	lui	s2,0xf503
    4f40:	36527c60 	ori	s2,s2,0x7c60
    4f44:	00000000 	nop
    4f48:	3c148bc8 	lui	s4,0x8bc8
    4f4c:	3694b000 	ori	s4,s4,0xb000
    4f50:	16140d00 	bne	s0,s4,8354 <inst_error>
    4f54:	00000000 	nop
    4f58:	00000000 	nop
    4f5c:	3c15f503 	lui	s5,0xf503
    4f60:	36b57c60 	ori	s5,s5,0x7c60
    4f64:	16550cfb 	bne	s2,s5,8354 <inst_error>
    4f68:	00000000 	nop
    4f6c:	00000000 	nop
    4f70:	3c0c1d34 	lui	t4,0x1d34
    4f74:	358c9520 	ori	t4,t4,0x9520
    4f78:	3c0d42aa 	lui	t5,0x42aa
    4f7c:	35adf6d0 	ori	t5,t5,0xf6d0
    4f80:	24100000 	li	s0,0
    4f84:	1000000b 	b	4fb4 <n37_j_test+0x4fb4>
    4f88:	24120000 	li	s2,0
    4f8c:	00000000 	nop
    4f90:	3c101d34 	lui	s0,0x1d34
    4f94:	080013f9 	j	4fe4 <n37_j_test+0x4fe4>
    4f98:	36109520 	ori	s0,s0,0x9520
    4f9c:	10000013 	b	4fec <n37_j_test+0x4fec>
    4fa0:	00000000 	nop
    4fa4:	00000000 	nop
    4fa8:	00000021 	move	zero,zero
    4fac:	00000021 	move	zero,zero
    4fb0:	00000021 	move	zero,zero
    4fb4:	080013e4 	j	4f90 <n37_j_test+0x4f90>
    4fb8:	00000000 	nop
    4fbc:	1000000b 	b	4fec <n37_j_test+0x4fec>
    4fc0:	00000000 	nop
    4fc4:	00000000 	nop
    4fc8:	00000021 	move	zero,zero
    4fcc:	00000021 	move	zero,zero
    4fd0:	00000021 	move	zero,zero
    4fd4:	00000021 	move	zero,zero
    4fd8:	00000021 	move	zero,zero
    4fdc:	00000021 	move	zero,zero
    4fe0:	00000021 	move	zero,zero
    4fe4:	3c1242aa 	lui	s2,0x42aa
    4fe8:	3652f6d0 	ori	s2,s2,0xf6d0
    4fec:	00000000 	nop
    4ff0:	3c141d34 	lui	s4,0x1d34
    4ff4:	36949520 	ori	s4,s4,0x9520
    4ff8:	16140cd6 	bne	s0,s4,8354 <inst_error>
    4ffc:	00000000 	nop
    5000:	00000000 	nop
    5004:	3c1542aa 	lui	s5,0x42aa
    5008:	36b5f6d0 	ori	s5,s5,0xf6d0
    500c:	16550cd1 	bne	s2,s5,8354 <inst_error>
    5010:	00000000 	nop
    5014:	00000000 	nop
    5018:	3c0c9f7c 	lui	t4,0x9f7c
    501c:	358ceda0 	ori	t4,t4,0xeda0
    5020:	3c0d097e 	lui	t5,0x97e
    5024:	35add578 	ori	t5,t5,0xd578
    5028:	24100000 	li	s0,0
    502c:	1000000b 	b	505c <n37_j_test+0x505c>
    5030:	24120000 	li	s2,0
    5034:	00000000 	nop
    5038:	3c109f7c 	lui	s0,0x9f7c
    503c:	08001423 	j	508c <n37_j_test+0x508c>
    5040:	3610eda0 	ori	s0,s0,0xeda0
    5044:	10000013 	b	5094 <n37_j_test+0x5094>
    5048:	00000000 	nop
    504c:	00000000 	nop
    5050:	00000021 	move	zero,zero
    5054:	00000021 	move	zero,zero
    5058:	00000021 	move	zero,zero
    505c:	0800140e 	j	5038 <n37_j_test+0x5038>
    5060:	00000000 	nop
    5064:	1000000b 	b	5094 <n37_j_test+0x5094>
    5068:	00000000 	nop
    506c:	00000000 	nop
    5070:	00000021 	move	zero,zero
    5074:	00000021 	move	zero,zero
    5078:	00000021 	move	zero,zero
    507c:	00000021 	move	zero,zero
    5080:	00000021 	move	zero,zero
    5084:	00000021 	move	zero,zero
    5088:	00000021 	move	zero,zero
    508c:	3c12097e 	lui	s2,0x97e
    5090:	3652d578 	ori	s2,s2,0xd578
    5094:	00000000 	nop
    5098:	3c149f7c 	lui	s4,0x9f7c
    509c:	3694eda0 	ori	s4,s4,0xeda0
    50a0:	16140cac 	bne	s0,s4,8354 <inst_error>
    50a4:	00000000 	nop
    50a8:	00000000 	nop
    50ac:	3c15097e 	lui	s5,0x97e
    50b0:	36b5d578 	ori	s5,s5,0xd578
    50b4:	16550ca7 	bne	s2,s5,8354 <inst_error>
    50b8:	00000000 	nop
    50bc:	00000000 	nop
    50c0:	3c0caa06 	lui	t4,0xaa06
    50c4:	358c4de0 	ori	t4,t4,0x4de0
    50c8:	3c0db2b8 	lui	t5,0xb2b8
    50cc:	35ad2ebc 	ori	t5,t5,0x2ebc
    50d0:	24100000 	li	s0,0
    50d4:	1000000b 	b	5104 <n37_j_test+0x5104>
    50d8:	24120000 	li	s2,0
    50dc:	00000000 	nop
    50e0:	3c10aa06 	lui	s0,0xaa06
    50e4:	0800144d 	j	5134 <n37_j_test+0x5134>
    50e8:	36104de0 	ori	s0,s0,0x4de0
    50ec:	10000013 	b	513c <n37_j_test+0x513c>
    50f0:	00000000 	nop
    50f4:	00000000 	nop
    50f8:	00000021 	move	zero,zero
    50fc:	00000021 	move	zero,zero
    5100:	00000021 	move	zero,zero
    5104:	08001438 	j	50e0 <n37_j_test+0x50e0>
    5108:	00000000 	nop
    510c:	1000000b 	b	513c <n37_j_test+0x513c>
    5110:	00000000 	nop
    5114:	00000000 	nop
    5118:	00000021 	move	zero,zero
    511c:	00000021 	move	zero,zero
    5120:	00000021 	move	zero,zero
    5124:	00000021 	move	zero,zero
    5128:	00000021 	move	zero,zero
    512c:	00000021 	move	zero,zero
    5130:	00000021 	move	zero,zero
    5134:	3c12b2b8 	lui	s2,0xb2b8
    5138:	36522ebc 	ori	s2,s2,0x2ebc
    513c:	00000000 	nop
    5140:	3c14aa06 	lui	s4,0xaa06
    5144:	36944de0 	ori	s4,s4,0x4de0
    5148:	16140c82 	bne	s0,s4,8354 <inst_error>
    514c:	00000000 	nop
    5150:	00000000 	nop
    5154:	3c15b2b8 	lui	s5,0xb2b8
    5158:	36b52ebc 	ori	s5,s5,0x2ebc
    515c:	16550c7d 	bne	s2,s5,8354 <inst_error>
    5160:	00000000 	nop
    5164:	00000000 	nop
    5168:	3c0ca267 	lui	t4,0xa267
    516c:	358c9b76 	ori	t4,t4,0x9b76
    5170:	3c0dab83 	lui	t5,0xab83
    5174:	35ad3f68 	ori	t5,t5,0x3f68
    5178:	24100000 	li	s0,0
    517c:	1000000b 	b	51ac <n37_j_test+0x51ac>
    5180:	24120000 	li	s2,0
    5184:	00000000 	nop
    5188:	3c10a267 	lui	s0,0xa267
    518c:	08001477 	j	51dc <n37_j_test+0x51dc>
    5190:	36109b76 	ori	s0,s0,0x9b76
    5194:	10000013 	b	51e4 <n37_j_test+0x51e4>
    5198:	00000000 	nop
    519c:	00000000 	nop
    51a0:	00000021 	move	zero,zero
    51a4:	00000021 	move	zero,zero
    51a8:	00000021 	move	zero,zero
    51ac:	08001462 	j	5188 <n37_j_test+0x5188>
    51b0:	00000000 	nop
    51b4:	1000000b 	b	51e4 <n37_j_test+0x51e4>
    51b8:	00000000 	nop
    51bc:	00000000 	nop
    51c0:	00000021 	move	zero,zero
    51c4:	00000021 	move	zero,zero
    51c8:	00000021 	move	zero,zero
    51cc:	00000021 	move	zero,zero
    51d0:	00000021 	move	zero,zero
    51d4:	00000021 	move	zero,zero
    51d8:	00000021 	move	zero,zero
    51dc:	3c12ab83 	lui	s2,0xab83
    51e0:	36523f68 	ori	s2,s2,0x3f68
    51e4:	00000000 	nop
    51e8:	3c14a267 	lui	s4,0xa267
    51ec:	36949b76 	ori	s4,s4,0x9b76
    51f0:	16140c58 	bne	s0,s4,8354 <inst_error>
    51f4:	00000000 	nop
    51f8:	00000000 	nop
    51fc:	3c15ab83 	lui	s5,0xab83
    5200:	36b53f68 	ori	s5,s5,0x3f68
    5204:	16550c53 	bne	s2,s5,8354 <inst_error>
    5208:	00000000 	nop
    520c:	00000000 	nop
    5210:	3c0c18b2 	lui	t4,0x18b2
    5214:	358c564a 	ori	t4,t4,0x564a
    5218:	3c0de9ca 	lui	t5,0xe9ca
    521c:	35ad8b40 	ori	t5,t5,0x8b40
    5220:	24100000 	li	s0,0
    5224:	1000000b 	b	5254 <n37_j_test+0x5254>
    5228:	24120000 	li	s2,0
    522c:	00000000 	nop
    5230:	3c1018b2 	lui	s0,0x18b2
    5234:	080014a1 	j	5284 <n37_j_test+0x5284>
    5238:	3610564a 	ori	s0,s0,0x564a
    523c:	10000013 	b	528c <n37_j_test+0x528c>
    5240:	00000000 	nop
    5244:	00000000 	nop
    5248:	00000021 	move	zero,zero
    524c:	00000021 	move	zero,zero
    5250:	00000021 	move	zero,zero
    5254:	0800148c 	j	5230 <n37_j_test+0x5230>
    5258:	00000000 	nop
    525c:	1000000b 	b	528c <n37_j_test+0x528c>
    5260:	00000000 	nop
    5264:	00000000 	nop
    5268:	00000021 	move	zero,zero
    526c:	00000021 	move	zero,zero
    5270:	00000021 	move	zero,zero
    5274:	00000021 	move	zero,zero
    5278:	00000021 	move	zero,zero
    527c:	00000021 	move	zero,zero
    5280:	00000021 	move	zero,zero
    5284:	3c12e9ca 	lui	s2,0xe9ca
    5288:	36528b40 	ori	s2,s2,0x8b40
    528c:	00000000 	nop
    5290:	3c1418b2 	lui	s4,0x18b2
    5294:	3694564a 	ori	s4,s4,0x564a
    5298:	16140c2e 	bne	s0,s4,8354 <inst_error>
    529c:	00000000 	nop
    52a0:	00000000 	nop
    52a4:	3c15e9ca 	lui	s5,0xe9ca
    52a8:	36b58b40 	ori	s5,s5,0x8b40
    52ac:	16550c29 	bne	s2,s5,8354 <inst_error>
    52b0:	00000000 	nop
    52b4:	00000000 	nop
    52b8:	3c0c7d87 	lui	t4,0x7d87
    52bc:	358cfdbc 	ori	t4,t4,0xfdbc
    52c0:	3c0d5068 	lui	t5,0x5068
    52c4:	35adc898 	ori	t5,t5,0xc898
    52c8:	24100000 	li	s0,0
    52cc:	1000000b 	b	52fc <n37_j_test+0x52fc>
    52d0:	24120000 	li	s2,0
    52d4:	00000000 	nop
    52d8:	3c107d87 	lui	s0,0x7d87
    52dc:	080014cb 	j	532c <n37_j_test+0x532c>
    52e0:	3610fdbc 	ori	s0,s0,0xfdbc
    52e4:	10000013 	b	5334 <n37_j_test+0x5334>
    52e8:	00000000 	nop
    52ec:	00000000 	nop
    52f0:	00000021 	move	zero,zero
    52f4:	00000021 	move	zero,zero
    52f8:	00000021 	move	zero,zero
    52fc:	080014b6 	j	52d8 <n37_j_test+0x52d8>
    5300:	00000000 	nop
    5304:	1000000b 	b	5334 <n37_j_test+0x5334>
    5308:	00000000 	nop
    530c:	00000000 	nop
    5310:	00000021 	move	zero,zero
    5314:	00000021 	move	zero,zero
    5318:	00000021 	move	zero,zero
    531c:	00000021 	move	zero,zero
    5320:	00000021 	move	zero,zero
    5324:	00000021 	move	zero,zero
    5328:	00000021 	move	zero,zero
    532c:	3c125068 	lui	s2,0x5068
    5330:	3652c898 	ori	s2,s2,0xc898
    5334:	00000000 	nop
    5338:	3c147d87 	lui	s4,0x7d87
    533c:	3694fdbc 	ori	s4,s4,0xfdbc
    5340:	16140c04 	bne	s0,s4,8354 <inst_error>
    5344:	00000000 	nop
    5348:	00000000 	nop
    534c:	3c155068 	lui	s5,0x5068
    5350:	36b5c898 	ori	s5,s5,0xc898
    5354:	16550bff 	bne	s2,s5,8354 <inst_error>
    5358:	00000000 	nop
    535c:	00000000 	nop
    5360:	3c0ca64d 	lui	t4,0xa64d
    5364:	358c68a9 	ori	t4,t4,0x68a9
    5368:	3c0db991 	lui	t5,0xb991
    536c:	35ad02ac 	ori	t5,t5,0x2ac
    5370:	24100000 	li	s0,0
    5374:	1000000b 	b	53a4 <n37_j_test+0x53a4>
    5378:	24120000 	li	s2,0
    537c:	00000000 	nop
    5380:	3c10a64d 	lui	s0,0xa64d
    5384:	080014f5 	j	53d4 <n37_j_test+0x53d4>
    5388:	361068a9 	ori	s0,s0,0x68a9
    538c:	10000013 	b	53dc <n37_j_test+0x53dc>
    5390:	00000000 	nop
    5394:	00000000 	nop
    5398:	00000021 	move	zero,zero
    539c:	00000021 	move	zero,zero
    53a0:	00000021 	move	zero,zero
    53a4:	080014e0 	j	5380 <n37_j_test+0x5380>
    53a8:	00000000 	nop
    53ac:	1000000b 	b	53dc <n37_j_test+0x53dc>
    53b0:	00000000 	nop
    53b4:	00000000 	nop
    53b8:	00000021 	move	zero,zero
    53bc:	00000021 	move	zero,zero
    53c0:	00000021 	move	zero,zero
    53c4:	00000021 	move	zero,zero
    53c8:	00000021 	move	zero,zero
    53cc:	00000021 	move	zero,zero
    53d0:	00000021 	move	zero,zero
    53d4:	3c12b991 	lui	s2,0xb991
    53d8:	365202ac 	ori	s2,s2,0x2ac
    53dc:	00000000 	nop
    53e0:	3c14a64d 	lui	s4,0xa64d
    53e4:	369468a9 	ori	s4,s4,0x68a9
    53e8:	16140bda 	bne	s0,s4,8354 <inst_error>
    53ec:	00000000 	nop
    53f0:	00000000 	nop
    53f4:	3c15b991 	lui	s5,0xb991
    53f8:	36b502ac 	ori	s5,s5,0x2ac
    53fc:	16550bd5 	bne	s2,s5,8354 <inst_error>
    5400:	00000000 	nop
    5404:	00000000 	nop
    5408:	3c0c4c13 	lui	t4,0x4c13
    540c:	358c501c 	ori	t4,t4,0x501c
    5410:	3c0d9789 	lui	t5,0x9789
    5414:	35adf15c 	ori	t5,t5,0xf15c
    5418:	24100000 	li	s0,0
    541c:	1000000b 	b	544c <n37_j_test+0x544c>
    5420:	24120000 	li	s2,0
    5424:	00000000 	nop
    5428:	3c104c13 	lui	s0,0x4c13
    542c:	0800151f 	j	547c <n37_j_test+0x547c>
    5430:	3610501c 	ori	s0,s0,0x501c
    5434:	10000013 	b	5484 <n37_j_test+0x5484>
    5438:	00000000 	nop
    543c:	00000000 	nop
    5440:	00000021 	move	zero,zero
    5444:	00000021 	move	zero,zero
    5448:	00000021 	move	zero,zero
    544c:	0800150a 	j	5428 <n37_j_test+0x5428>
    5450:	00000000 	nop
    5454:	1000000b 	b	5484 <n37_j_test+0x5484>
    5458:	00000000 	nop
    545c:	00000000 	nop
    5460:	00000021 	move	zero,zero
    5464:	00000021 	move	zero,zero
    5468:	00000021 	move	zero,zero
    546c:	00000021 	move	zero,zero
    5470:	00000021 	move	zero,zero
    5474:	00000021 	move	zero,zero
    5478:	00000021 	move	zero,zero
    547c:	3c129789 	lui	s2,0x9789
    5480:	3652f15c 	ori	s2,s2,0xf15c
    5484:	00000000 	nop
    5488:	3c144c13 	lui	s4,0x4c13
    548c:	3694501c 	ori	s4,s4,0x501c
    5490:	16140bb0 	bne	s0,s4,8354 <inst_error>
    5494:	00000000 	nop
    5498:	00000000 	nop
    549c:	3c159789 	lui	s5,0x9789
    54a0:	36b5f15c 	ori	s5,s5,0xf15c
    54a4:	16550bab 	bne	s2,s5,8354 <inst_error>
    54a8:	00000000 	nop
    54ac:	00000000 	nop
    54b0:	3c0c0b9f 	lui	t4,0xb9f
    54b4:	358cfea0 	ori	t4,t4,0xfea0
    54b8:	3c0d9b37 	lui	t5,0x9b37
    54bc:	35ad7696 	ori	t5,t5,0x7696
    54c0:	24100000 	li	s0,0
    54c4:	1000000b 	b	54f4 <n37_j_test+0x54f4>
    54c8:	24120000 	li	s2,0
    54cc:	00000000 	nop
    54d0:	3c100b9f 	lui	s0,0xb9f
    54d4:	08001549 	j	5524 <n37_j_test+0x5524>
    54d8:	3610fea0 	ori	s0,s0,0xfea0
    54dc:	10000013 	b	552c <n37_j_test+0x552c>
    54e0:	00000000 	nop
    54e4:	00000000 	nop
    54e8:	00000021 	move	zero,zero
    54ec:	00000021 	move	zero,zero
    54f0:	00000021 	move	zero,zero
    54f4:	08001534 	j	54d0 <n37_j_test+0x54d0>
    54f8:	00000000 	nop
    54fc:	1000000b 	b	552c <n37_j_test+0x552c>
    5500:	00000000 	nop
    5504:	00000000 	nop
    5508:	00000021 	move	zero,zero
    550c:	00000021 	move	zero,zero
    5510:	00000021 	move	zero,zero
    5514:	00000021 	move	zero,zero
    5518:	00000021 	move	zero,zero
    551c:	00000021 	move	zero,zero
    5520:	00000021 	move	zero,zero
    5524:	3c129b37 	lui	s2,0x9b37
    5528:	36527696 	ori	s2,s2,0x7696
    552c:	00000000 	nop
    5530:	3c140b9f 	lui	s4,0xb9f
    5534:	3694fea0 	ori	s4,s4,0xfea0
    5538:	16140b86 	bne	s0,s4,8354 <inst_error>
    553c:	00000000 	nop
    5540:	00000000 	nop
    5544:	3c159b37 	lui	s5,0x9b37
    5548:	36b57696 	ori	s5,s5,0x7696
    554c:	16550b81 	bne	s2,s5,8354 <inst_error>
    5550:	00000000 	nop
    5554:	00000000 	nop
    5558:	3c0c6498 	lui	t4,0x6498
    555c:	358c7db5 	ori	t4,t4,0x7db5
    5560:	3c0dabc9 	lui	t5,0xabc9
    5564:	35adfd50 	ori	t5,t5,0xfd50
    5568:	24100000 	li	s0,0
    556c:	1000000b 	b	559c <n37_j_test+0x559c>
    5570:	24120000 	li	s2,0
    5574:	00000000 	nop
    5578:	3c106498 	lui	s0,0x6498
    557c:	08001573 	j	55cc <n37_j_test+0x55cc>
    5580:	36107db5 	ori	s0,s0,0x7db5
    5584:	10000013 	b	55d4 <n37_j_test+0x55d4>
    5588:	00000000 	nop
    558c:	00000000 	nop
    5590:	00000021 	move	zero,zero
    5594:	00000021 	move	zero,zero
    5598:	00000021 	move	zero,zero
    559c:	0800155e 	j	5578 <n37_j_test+0x5578>
    55a0:	00000000 	nop
    55a4:	1000000b 	b	55d4 <n37_j_test+0x55d4>
    55a8:	00000000 	nop
    55ac:	00000000 	nop
    55b0:	00000021 	move	zero,zero
    55b4:	00000021 	move	zero,zero
    55b8:	00000021 	move	zero,zero
    55bc:	00000021 	move	zero,zero
    55c0:	00000021 	move	zero,zero
    55c4:	00000021 	move	zero,zero
    55c8:	00000021 	move	zero,zero
    55cc:	3c12abc9 	lui	s2,0xabc9
    55d0:	3652fd50 	ori	s2,s2,0xfd50
    55d4:	00000000 	nop
    55d8:	3c146498 	lui	s4,0x6498
    55dc:	36947db5 	ori	s4,s4,0x7db5
    55e0:	16140b5c 	bne	s0,s4,8354 <inst_error>
    55e4:	00000000 	nop
    55e8:	00000000 	nop
    55ec:	3c15abc9 	lui	s5,0xabc9
    55f0:	36b5fd50 	ori	s5,s5,0xfd50
    55f4:	16550b57 	bne	s2,s5,8354 <inst_error>
    55f8:	00000000 	nop
    55fc:	00000000 	nop
    5600:	3c0cfcc1 	lui	t4,0xfcc1
    5604:	358c2490 	ori	t4,t4,0x2490
    5608:	3c0d164d 	lui	t5,0x164d
    560c:	35ad033e 	ori	t5,t5,0x33e
    5610:	24100000 	li	s0,0
    5614:	1000000b 	b	5644 <n37_j_test+0x5644>
    5618:	24120000 	li	s2,0
    561c:	00000000 	nop
    5620:	3c10fcc1 	lui	s0,0xfcc1
    5624:	0800159d 	j	5674 <n37_j_test+0x5674>
    5628:	36102490 	ori	s0,s0,0x2490
    562c:	10000013 	b	567c <n37_j_test+0x567c>
    5630:	00000000 	nop
    5634:	00000000 	nop
    5638:	00000021 	move	zero,zero
    563c:	00000021 	move	zero,zero
    5640:	00000021 	move	zero,zero
    5644:	08001588 	j	5620 <n37_j_test+0x5620>
    5648:	00000000 	nop
    564c:	1000000b 	b	567c <n37_j_test+0x567c>
    5650:	00000000 	nop
    5654:	00000000 	nop
    5658:	00000021 	move	zero,zero
    565c:	00000021 	move	zero,zero
    5660:	00000021 	move	zero,zero
    5664:	00000021 	move	zero,zero
    5668:	00000021 	move	zero,zero
    566c:	00000021 	move	zero,zero
    5670:	00000021 	move	zero,zero
    5674:	3c12164d 	lui	s2,0x164d
    5678:	3652033e 	ori	s2,s2,0x33e
    567c:	00000000 	nop
    5680:	3c14fcc1 	lui	s4,0xfcc1
    5684:	36942490 	ori	s4,s4,0x2490
    5688:	16140b32 	bne	s0,s4,8354 <inst_error>
    568c:	00000000 	nop
    5690:	00000000 	nop
    5694:	3c15164d 	lui	s5,0x164d
    5698:	36b5033e 	ori	s5,s5,0x33e
    569c:	16550b2d 	bne	s2,s5,8354 <inst_error>
    56a0:	00000000 	nop
    56a4:	00000000 	nop
    56a8:	3c0c7be1 	lui	t4,0x7be1
    56ac:	358c4bd0 	ori	t4,t4,0x4bd0
    56b0:	3c0db0d0 	lui	t5,0xb0d0
    56b4:	35ad7790 	ori	t5,t5,0x7790
    56b8:	24100000 	li	s0,0
    56bc:	1000000b 	b	56ec <n37_j_test+0x56ec>
    56c0:	24120000 	li	s2,0
    56c4:	00000000 	nop
    56c8:	3c107be1 	lui	s0,0x7be1
    56cc:	080015c7 	j	571c <n37_j_test+0x571c>
    56d0:	36104bd0 	ori	s0,s0,0x4bd0
    56d4:	10000013 	b	5724 <n37_j_test+0x5724>
    56d8:	00000000 	nop
    56dc:	00000000 	nop
    56e0:	00000021 	move	zero,zero
    56e4:	00000021 	move	zero,zero
    56e8:	00000021 	move	zero,zero
    56ec:	080015b2 	j	56c8 <n37_j_test+0x56c8>
    56f0:	00000000 	nop
    56f4:	1000000b 	b	5724 <n37_j_test+0x5724>
    56f8:	00000000 	nop
    56fc:	00000000 	nop
    5700:	00000021 	move	zero,zero
    5704:	00000021 	move	zero,zero
    5708:	00000021 	move	zero,zero
    570c:	00000021 	move	zero,zero
    5710:	00000021 	move	zero,zero
    5714:	00000021 	move	zero,zero
    5718:	00000021 	move	zero,zero
    571c:	3c12b0d0 	lui	s2,0xb0d0
    5720:	36527790 	ori	s2,s2,0x7790
    5724:	00000000 	nop
    5728:	3c147be1 	lui	s4,0x7be1
    572c:	36944bd0 	ori	s4,s4,0x4bd0
    5730:	16140b08 	bne	s0,s4,8354 <inst_error>
    5734:	00000000 	nop
    5738:	00000000 	nop
    573c:	3c15b0d0 	lui	s5,0xb0d0
    5740:	36b57790 	ori	s5,s5,0x7790
    5744:	16550b03 	bne	s2,s5,8354 <inst_error>
    5748:	00000000 	nop
    574c:	00000000 	nop
    5750:	3c0c05f4 	lui	t4,0x5f4
    5754:	358c2d30 	ori	t4,t4,0x2d30
    5758:	3c0da001 	lui	t5,0xa001
    575c:	35ad2600 	ori	t5,t5,0x2600
    5760:	24100000 	li	s0,0
    5764:	1000000b 	b	5794 <n37_j_test+0x5794>
    5768:	24120000 	li	s2,0
    576c:	00000000 	nop
    5770:	3c1005f4 	lui	s0,0x5f4
    5774:	080015f1 	j	57c4 <n37_j_test+0x57c4>
    5778:	36102d30 	ori	s0,s0,0x2d30
    577c:	10000013 	b	57cc <n37_j_test+0x57cc>
    5780:	00000000 	nop
    5784:	00000000 	nop
    5788:	00000021 	move	zero,zero
    578c:	00000021 	move	zero,zero
    5790:	00000021 	move	zero,zero
    5794:	080015dc 	j	5770 <n37_j_test+0x5770>
    5798:	00000000 	nop
    579c:	1000000b 	b	57cc <n37_j_test+0x57cc>
    57a0:	00000000 	nop
    57a4:	00000000 	nop
    57a8:	00000021 	move	zero,zero
    57ac:	00000021 	move	zero,zero
    57b0:	00000021 	move	zero,zero
    57b4:	00000021 	move	zero,zero
    57b8:	00000021 	move	zero,zero
    57bc:	00000021 	move	zero,zero
    57c0:	00000021 	move	zero,zero
    57c4:	3c12a001 	lui	s2,0xa001
    57c8:	36522600 	ori	s2,s2,0x2600
    57cc:	00000000 	nop
    57d0:	3c1405f4 	lui	s4,0x5f4
    57d4:	36942d30 	ori	s4,s4,0x2d30
    57d8:	16140ade 	bne	s0,s4,8354 <inst_error>
    57dc:	00000000 	nop
    57e0:	00000000 	nop
    57e4:	3c15a001 	lui	s5,0xa001
    57e8:	36b52600 	ori	s5,s5,0x2600
    57ec:	16550ad9 	bne	s2,s5,8354 <inst_error>
    57f0:	00000000 	nop
    57f4:	00000000 	nop
    57f8:	3c0c5bd8 	lui	t4,0x5bd8
    57fc:	358c25c0 	ori	t4,t4,0x25c0
    5800:	3c0dc036 	lui	t5,0xc036
    5804:	35adf1ce 	ori	t5,t5,0xf1ce
    5808:	24100000 	li	s0,0
    580c:	1000000b 	b	583c <n37_j_test+0x583c>
    5810:	24120000 	li	s2,0
    5814:	00000000 	nop
    5818:	3c105bd8 	lui	s0,0x5bd8
    581c:	0800161b 	j	586c <n37_j_test+0x586c>
    5820:	361025c0 	ori	s0,s0,0x25c0
    5824:	10000013 	b	5874 <n37_j_test+0x5874>
    5828:	00000000 	nop
    582c:	00000000 	nop
    5830:	00000021 	move	zero,zero
    5834:	00000021 	move	zero,zero
    5838:	00000021 	move	zero,zero
    583c:	08001606 	j	5818 <n37_j_test+0x5818>
    5840:	00000000 	nop
    5844:	1000000b 	b	5874 <n37_j_test+0x5874>
    5848:	00000000 	nop
    584c:	00000000 	nop
    5850:	00000021 	move	zero,zero
    5854:	00000021 	move	zero,zero
    5858:	00000021 	move	zero,zero
    585c:	00000021 	move	zero,zero
    5860:	00000021 	move	zero,zero
    5864:	00000021 	move	zero,zero
    5868:	00000021 	move	zero,zero
    586c:	3c12c036 	lui	s2,0xc036
    5870:	3652f1ce 	ori	s2,s2,0xf1ce
    5874:	00000000 	nop
    5878:	3c145bd8 	lui	s4,0x5bd8
    587c:	369425c0 	ori	s4,s4,0x25c0
    5880:	16140ab4 	bne	s0,s4,8354 <inst_error>
    5884:	00000000 	nop
    5888:	00000000 	nop
    588c:	3c15c036 	lui	s5,0xc036
    5890:	36b5f1ce 	ori	s5,s5,0xf1ce
    5894:	16550aaf 	bne	s2,s5,8354 <inst_error>
    5898:	00000000 	nop
    589c:	00000000 	nop
    58a0:	3c0c71cc 	lui	t4,0x71cc
    58a4:	358c9e50 	ori	t4,t4,0x9e50
    58a8:	3c0df9de 	lui	t5,0xf9de
    58ac:	35ad6878 	ori	t5,t5,0x6878
    58b0:	24100000 	li	s0,0
    58b4:	1000000b 	b	58e4 <n37_j_test+0x58e4>
    58b8:	24120000 	li	s2,0
    58bc:	00000000 	nop
    58c0:	3c1071cc 	lui	s0,0x71cc
    58c4:	08001645 	j	5914 <n37_j_test+0x5914>
    58c8:	36109e50 	ori	s0,s0,0x9e50
    58cc:	10000013 	b	591c <n37_j_test+0x591c>
    58d0:	00000000 	nop
    58d4:	00000000 	nop
    58d8:	00000021 	move	zero,zero
    58dc:	00000021 	move	zero,zero
    58e0:	00000021 	move	zero,zero
    58e4:	08001630 	j	58c0 <n37_j_test+0x58c0>
    58e8:	00000000 	nop
    58ec:	1000000b 	b	591c <n37_j_test+0x591c>
    58f0:	00000000 	nop
    58f4:	00000000 	nop
    58f8:	00000021 	move	zero,zero
    58fc:	00000021 	move	zero,zero
    5900:	00000021 	move	zero,zero
    5904:	00000021 	move	zero,zero
    5908:	00000021 	move	zero,zero
    590c:	00000021 	move	zero,zero
    5910:	00000021 	move	zero,zero
    5914:	3c12f9de 	lui	s2,0xf9de
    5918:	36526878 	ori	s2,s2,0x6878
    591c:	00000000 	nop
    5920:	3c1471cc 	lui	s4,0x71cc
    5924:	36949e50 	ori	s4,s4,0x9e50
    5928:	16140a8a 	bne	s0,s4,8354 <inst_error>
    592c:	00000000 	nop
    5930:	00000000 	nop
    5934:	3c15f9de 	lui	s5,0xf9de
    5938:	36b56878 	ori	s5,s5,0x6878
    593c:	16550a85 	bne	s2,s5,8354 <inst_error>
    5940:	00000000 	nop
    5944:	00000000 	nop
    5948:	3c0ccef2 	lui	t4,0xcef2
    594c:	358c0400 	ori	t4,t4,0x400
    5950:	3c0d74a2 	lui	t5,0x74a2
    5954:	35adf96f 	ori	t5,t5,0xf96f
    5958:	24100000 	li	s0,0
    595c:	1000000b 	b	598c <n37_j_test+0x598c>
    5960:	24120000 	li	s2,0
    5964:	00000000 	nop
    5968:	3c10cef2 	lui	s0,0xcef2
    596c:	0800166f 	j	59bc <n37_j_test+0x59bc>
    5970:	36100400 	ori	s0,s0,0x400
    5974:	10000013 	b	59c4 <n37_j_test+0x59c4>
    5978:	00000000 	nop
    597c:	00000000 	nop
    5980:	00000021 	move	zero,zero
    5984:	00000021 	move	zero,zero
    5988:	00000021 	move	zero,zero
    598c:	0800165a 	j	5968 <n37_j_test+0x5968>
    5990:	00000000 	nop
    5994:	1000000b 	b	59c4 <n37_j_test+0x59c4>
    5998:	00000000 	nop
    599c:	00000000 	nop
    59a0:	00000021 	move	zero,zero
    59a4:	00000021 	move	zero,zero
    59a8:	00000021 	move	zero,zero
    59ac:	00000021 	move	zero,zero
    59b0:	00000021 	move	zero,zero
    59b4:	00000021 	move	zero,zero
    59b8:	00000021 	move	zero,zero
    59bc:	3c1274a2 	lui	s2,0x74a2
    59c0:	3652f96f 	ori	s2,s2,0xf96f
    59c4:	00000000 	nop
    59c8:	3c14cef2 	lui	s4,0xcef2
    59cc:	36940400 	ori	s4,s4,0x400
    59d0:	16140a60 	bne	s0,s4,8354 <inst_error>
    59d4:	00000000 	nop
    59d8:	00000000 	nop
    59dc:	3c1574a2 	lui	s5,0x74a2
    59e0:	36b5f96f 	ori	s5,s5,0xf96f
    59e4:	16550a5b 	bne	s2,s5,8354 <inst_error>
    59e8:	00000000 	nop
    59ec:	00000000 	nop
    59f0:	3c0c3035 	lui	t4,0x3035
    59f4:	358c6457 	ori	t4,t4,0x6457
    59f8:	3c0d018a 	lui	t5,0x18a
    59fc:	35adf932 	ori	t5,t5,0xf932
    5a00:	24100000 	li	s0,0
    5a04:	1000000b 	b	5a34 <n37_j_test+0x5a34>
    5a08:	24120000 	li	s2,0
    5a0c:	00000000 	nop
    5a10:	3c103035 	lui	s0,0x3035
    5a14:	08001699 	j	5a64 <n37_j_test+0x5a64>
    5a18:	36106457 	ori	s0,s0,0x6457
    5a1c:	10000013 	b	5a6c <n37_j_test+0x5a6c>
    5a20:	00000000 	nop
    5a24:	00000000 	nop
    5a28:	00000021 	move	zero,zero
    5a2c:	00000021 	move	zero,zero
    5a30:	00000021 	move	zero,zero
    5a34:	08001684 	j	5a10 <n37_j_test+0x5a10>
    5a38:	00000000 	nop
    5a3c:	1000000b 	b	5a6c <n37_j_test+0x5a6c>
    5a40:	00000000 	nop
    5a44:	00000000 	nop
    5a48:	00000021 	move	zero,zero
    5a4c:	00000021 	move	zero,zero
    5a50:	00000021 	move	zero,zero
    5a54:	00000021 	move	zero,zero
    5a58:	00000021 	move	zero,zero
    5a5c:	00000021 	move	zero,zero
    5a60:	00000021 	move	zero,zero
    5a64:	3c12018a 	lui	s2,0x18a
    5a68:	3652f932 	ori	s2,s2,0xf932
    5a6c:	00000000 	nop
    5a70:	3c143035 	lui	s4,0x3035
    5a74:	36946457 	ori	s4,s4,0x6457
    5a78:	16140a36 	bne	s0,s4,8354 <inst_error>
    5a7c:	00000000 	nop
    5a80:	00000000 	nop
    5a84:	3c15018a 	lui	s5,0x18a
    5a88:	36b5f932 	ori	s5,s5,0xf932
    5a8c:	16550a31 	bne	s2,s5,8354 <inst_error>
    5a90:	00000000 	nop
    5a94:	00000000 	nop
    5a98:	3c0cd445 	lui	t4,0xd445
    5a9c:	358c509d 	ori	t4,t4,0x509d
    5aa0:	3c0d86fa 	lui	t5,0x86fa
    5aa4:	35addf44 	ori	t5,t5,0xdf44
    5aa8:	24100000 	li	s0,0
    5aac:	1000000b 	b	5adc <n37_j_test+0x5adc>
    5ab0:	24120000 	li	s2,0
    5ab4:	00000000 	nop
    5ab8:	3c10d445 	lui	s0,0xd445
    5abc:	080016c3 	j	5b0c <n37_j_test+0x5b0c>
    5ac0:	3610509d 	ori	s0,s0,0x509d
    5ac4:	10000013 	b	5b14 <n37_j_test+0x5b14>
    5ac8:	00000000 	nop
    5acc:	00000000 	nop
    5ad0:	00000021 	move	zero,zero
    5ad4:	00000021 	move	zero,zero
    5ad8:	00000021 	move	zero,zero
    5adc:	080016ae 	j	5ab8 <n37_j_test+0x5ab8>
    5ae0:	00000000 	nop
    5ae4:	1000000b 	b	5b14 <n37_j_test+0x5b14>
    5ae8:	00000000 	nop
    5aec:	00000000 	nop
    5af0:	00000021 	move	zero,zero
    5af4:	00000021 	move	zero,zero
    5af8:	00000021 	move	zero,zero
    5afc:	00000021 	move	zero,zero
    5b00:	00000021 	move	zero,zero
    5b04:	00000021 	move	zero,zero
    5b08:	00000021 	move	zero,zero
    5b0c:	3c1286fa 	lui	s2,0x86fa
    5b10:	3652df44 	ori	s2,s2,0xdf44
    5b14:	00000000 	nop
    5b18:	3c14d445 	lui	s4,0xd445
    5b1c:	3694509d 	ori	s4,s4,0x509d
    5b20:	16140a0c 	bne	s0,s4,8354 <inst_error>
    5b24:	00000000 	nop
    5b28:	00000000 	nop
    5b2c:	3c1586fa 	lui	s5,0x86fa
    5b30:	36b5df44 	ori	s5,s5,0xdf44
    5b34:	16550a07 	bne	s2,s5,8354 <inst_error>
    5b38:	00000000 	nop
    5b3c:	00000000 	nop
    5b40:	3c0cd37d 	lui	t4,0xd37d
    5b44:	358c9980 	ori	t4,t4,0x9980
    5b48:	3c0d75bd 	lui	t5,0x75bd
    5b4c:	35add728 	ori	t5,t5,0xd728
    5b50:	24100000 	li	s0,0
    5b54:	1000000b 	b	5b84 <n37_j_test+0x5b84>
    5b58:	24120000 	li	s2,0
    5b5c:	00000000 	nop
    5b60:	3c10d37d 	lui	s0,0xd37d
    5b64:	080016ed 	j	5bb4 <n37_j_test+0x5bb4>
    5b68:	36109980 	ori	s0,s0,0x9980
    5b6c:	10000013 	b	5bbc <n37_j_test+0x5bbc>
    5b70:	00000000 	nop
    5b74:	00000000 	nop
    5b78:	00000021 	move	zero,zero
    5b7c:	00000021 	move	zero,zero
    5b80:	00000021 	move	zero,zero
    5b84:	080016d8 	j	5b60 <n37_j_test+0x5b60>
    5b88:	00000000 	nop
    5b8c:	1000000b 	b	5bbc <n37_j_test+0x5bbc>
    5b90:	00000000 	nop
    5b94:	00000000 	nop
    5b98:	00000021 	move	zero,zero
    5b9c:	00000021 	move	zero,zero
    5ba0:	00000021 	move	zero,zero
    5ba4:	00000021 	move	zero,zero
    5ba8:	00000021 	move	zero,zero
    5bac:	00000021 	move	zero,zero
    5bb0:	00000021 	move	zero,zero
    5bb4:	3c1275bd 	lui	s2,0x75bd
    5bb8:	3652d728 	ori	s2,s2,0xd728
    5bbc:	00000000 	nop
    5bc0:	3c14d37d 	lui	s4,0xd37d
    5bc4:	36949980 	ori	s4,s4,0x9980
    5bc8:	161409e2 	bne	s0,s4,8354 <inst_error>
    5bcc:	00000000 	nop
    5bd0:	00000000 	nop
    5bd4:	3c1575bd 	lui	s5,0x75bd
    5bd8:	36b5d728 	ori	s5,s5,0xd728
    5bdc:	165509dd 	bne	s2,s5,8354 <inst_error>
    5be0:	00000000 	nop
    5be4:	00000000 	nop
    5be8:	3c0c6266 	lui	t4,0x6266
    5bec:	358c7786 	ori	t4,t4,0x7786
    5bf0:	3c0d822f 	lui	t5,0x822f
    5bf4:	35ad50f0 	ori	t5,t5,0x50f0
    5bf8:	24100000 	li	s0,0
    5bfc:	1000000b 	b	5c2c <n37_j_test+0x5c2c>
    5c00:	24120000 	li	s2,0
    5c04:	00000000 	nop
    5c08:	3c106266 	lui	s0,0x6266
    5c0c:	08001717 	j	5c5c <n37_j_test+0x5c5c>
    5c10:	36107786 	ori	s0,s0,0x7786
    5c14:	10000013 	b	5c64 <n37_j_test+0x5c64>
    5c18:	00000000 	nop
    5c1c:	00000000 	nop
    5c20:	00000021 	move	zero,zero
    5c24:	00000021 	move	zero,zero
    5c28:	00000021 	move	zero,zero
    5c2c:	08001702 	j	5c08 <n37_j_test+0x5c08>
    5c30:	00000000 	nop
    5c34:	1000000b 	b	5c64 <n37_j_test+0x5c64>
    5c38:	00000000 	nop
    5c3c:	00000000 	nop
    5c40:	00000021 	move	zero,zero
    5c44:	00000021 	move	zero,zero
    5c48:	00000021 	move	zero,zero
    5c4c:	00000021 	move	zero,zero
    5c50:	00000021 	move	zero,zero
    5c54:	00000021 	move	zero,zero
    5c58:	00000021 	move	zero,zero
    5c5c:	3c12822f 	lui	s2,0x822f
    5c60:	365250f0 	ori	s2,s2,0x50f0
    5c64:	00000000 	nop
    5c68:	3c146266 	lui	s4,0x6266
    5c6c:	36947786 	ori	s4,s4,0x7786
    5c70:	161409b8 	bne	s0,s4,8354 <inst_error>
    5c74:	00000000 	nop
    5c78:	00000000 	nop
    5c7c:	3c15822f 	lui	s5,0x822f
    5c80:	36b550f0 	ori	s5,s5,0x50f0
    5c84:	165509b3 	bne	s2,s5,8354 <inst_error>
    5c88:	00000000 	nop
    5c8c:	00000000 	nop
    5c90:	3c0c36c1 	lui	t4,0x36c1
    5c94:	358cbe00 	ori	t4,t4,0xbe00
    5c98:	3c0d8ab5 	lui	t5,0x8ab5
    5c9c:	35adf934 	ori	t5,t5,0xf934
    5ca0:	24100000 	li	s0,0
    5ca4:	1000000b 	b	5cd4 <n37_j_test+0x5cd4>
    5ca8:	24120000 	li	s2,0
    5cac:	00000000 	nop
    5cb0:	3c1036c1 	lui	s0,0x36c1
    5cb4:	08001741 	j	5d04 <n37_j_test+0x5d04>
    5cb8:	3610be00 	ori	s0,s0,0xbe00
    5cbc:	10000013 	b	5d0c <n37_j_test+0x5d0c>
    5cc0:	00000000 	nop
    5cc4:	00000000 	nop
    5cc8:	00000021 	move	zero,zero
    5ccc:	00000021 	move	zero,zero
    5cd0:	00000021 	move	zero,zero
    5cd4:	0800172c 	j	5cb0 <n37_j_test+0x5cb0>
    5cd8:	00000000 	nop
    5cdc:	1000000b 	b	5d0c <n37_j_test+0x5d0c>
    5ce0:	00000000 	nop
    5ce4:	00000000 	nop
    5ce8:	00000021 	move	zero,zero
    5cec:	00000021 	move	zero,zero
    5cf0:	00000021 	move	zero,zero
    5cf4:	00000021 	move	zero,zero
    5cf8:	00000021 	move	zero,zero
    5cfc:	00000021 	move	zero,zero
    5d00:	00000021 	move	zero,zero
    5d04:	3c128ab5 	lui	s2,0x8ab5
    5d08:	3652f934 	ori	s2,s2,0xf934
    5d0c:	00000000 	nop
    5d10:	3c1436c1 	lui	s4,0x36c1
    5d14:	3694be00 	ori	s4,s4,0xbe00
    5d18:	1614098e 	bne	s0,s4,8354 <inst_error>
    5d1c:	00000000 	nop
    5d20:	00000000 	nop
    5d24:	3c158ab5 	lui	s5,0x8ab5
    5d28:	36b5f934 	ori	s5,s5,0xf934
    5d2c:	16550989 	bne	s2,s5,8354 <inst_error>
    5d30:	00000000 	nop
    5d34:	00000000 	nop
    5d38:	3c0ccc4b 	lui	t4,0xcc4b
    5d3c:	358c4e40 	ori	t4,t4,0x4e40
    5d40:	3c0d9ee4 	lui	t5,0x9ee4
    5d44:	35add11c 	ori	t5,t5,0xd11c
    5d48:	24100000 	li	s0,0
    5d4c:	1000000b 	b	5d7c <n37_j_test+0x5d7c>
    5d50:	24120000 	li	s2,0
    5d54:	00000000 	nop
    5d58:	3c10cc4b 	lui	s0,0xcc4b
    5d5c:	0800176b 	j	5dac <n37_j_test+0x5dac>
    5d60:	36104e40 	ori	s0,s0,0x4e40
    5d64:	10000013 	b	5db4 <n37_j_test+0x5db4>
    5d68:	00000000 	nop
    5d6c:	00000000 	nop
    5d70:	00000021 	move	zero,zero
    5d74:	00000021 	move	zero,zero
    5d78:	00000021 	move	zero,zero
    5d7c:	08001756 	j	5d58 <n37_j_test+0x5d58>
    5d80:	00000000 	nop
    5d84:	1000000b 	b	5db4 <n37_j_test+0x5db4>
    5d88:	00000000 	nop
    5d8c:	00000000 	nop
    5d90:	00000021 	move	zero,zero
    5d94:	00000021 	move	zero,zero
    5d98:	00000021 	move	zero,zero
    5d9c:	00000021 	move	zero,zero
    5da0:	00000021 	move	zero,zero
    5da4:	00000021 	move	zero,zero
    5da8:	00000021 	move	zero,zero
    5dac:	3c129ee4 	lui	s2,0x9ee4
    5db0:	3652d11c 	ori	s2,s2,0xd11c
    5db4:	00000000 	nop
    5db8:	3c14cc4b 	lui	s4,0xcc4b
    5dbc:	36944e40 	ori	s4,s4,0x4e40
    5dc0:	16140964 	bne	s0,s4,8354 <inst_error>
    5dc4:	00000000 	nop
    5dc8:	00000000 	nop
    5dcc:	3c159ee4 	lui	s5,0x9ee4
    5dd0:	36b5d11c 	ori	s5,s5,0xd11c
    5dd4:	1655095f 	bne	s2,s5,8354 <inst_error>
    5dd8:	00000000 	nop
    5ddc:	00000000 	nop
    5de0:	3c0c0a83 	lui	t4,0xa83
    5de4:	358c0f74 	ori	t4,t4,0xf74
    5de8:	3c0d721b 	lui	t5,0x721b
    5dec:	35ad2040 	ori	t5,t5,0x2040
    5df0:	24100000 	li	s0,0
    5df4:	1000000b 	b	5e24 <n37_j_test+0x5e24>
    5df8:	24120000 	li	s2,0
    5dfc:	00000000 	nop
    5e00:	3c100a83 	lui	s0,0xa83
    5e04:	08001795 	j	5e54 <n37_j_test+0x5e54>
    5e08:	36100f74 	ori	s0,s0,0xf74
    5e0c:	10000013 	b	5e5c <n37_j_test+0x5e5c>
    5e10:	00000000 	nop
    5e14:	00000000 	nop
    5e18:	00000021 	move	zero,zero
    5e1c:	00000021 	move	zero,zero
    5e20:	00000021 	move	zero,zero
    5e24:	08001780 	j	5e00 <n37_j_test+0x5e00>
    5e28:	00000000 	nop
    5e2c:	1000000b 	b	5e5c <n37_j_test+0x5e5c>
    5e30:	00000000 	nop
    5e34:	00000000 	nop
    5e38:	00000021 	move	zero,zero
    5e3c:	00000021 	move	zero,zero
    5e40:	00000021 	move	zero,zero
    5e44:	00000021 	move	zero,zero
    5e48:	00000021 	move	zero,zero
    5e4c:	00000021 	move	zero,zero
    5e50:	00000021 	move	zero,zero
    5e54:	3c12721b 	lui	s2,0x721b
    5e58:	36522040 	ori	s2,s2,0x2040
    5e5c:	00000000 	nop
    5e60:	3c140a83 	lui	s4,0xa83
    5e64:	36940f74 	ori	s4,s4,0xf74
    5e68:	1614093a 	bne	s0,s4,8354 <inst_error>
    5e6c:	00000000 	nop
    5e70:	00000000 	nop
    5e74:	3c15721b 	lui	s5,0x721b
    5e78:	36b52040 	ori	s5,s5,0x2040
    5e7c:	16550935 	bne	s2,s5,8354 <inst_error>
    5e80:	00000000 	nop
    5e84:	00000000 	nop
    5e88:	3c0c5a78 	lui	t4,0x5a78
    5e8c:	358cba00 	ori	t4,t4,0xba00
    5e90:	3c0df0e7 	lui	t5,0xf0e7
    5e94:	35ad51e6 	ori	t5,t5,0x51e6
    5e98:	24100000 	li	s0,0
    5e9c:	1000000b 	b	5ecc <n37_j_test+0x5ecc>
    5ea0:	24120000 	li	s2,0
    5ea4:	00000000 	nop
    5ea8:	3c105a78 	lui	s0,0x5a78
    5eac:	080017bf 	j	5efc <n37_j_test+0x5efc>
    5eb0:	3610ba00 	ori	s0,s0,0xba00
    5eb4:	10000013 	b	5f04 <n37_j_test+0x5f04>
    5eb8:	00000000 	nop
    5ebc:	00000000 	nop
    5ec0:	00000021 	move	zero,zero
    5ec4:	00000021 	move	zero,zero
    5ec8:	00000021 	move	zero,zero
    5ecc:	080017aa 	j	5ea8 <n37_j_test+0x5ea8>
    5ed0:	00000000 	nop
    5ed4:	1000000b 	b	5f04 <n37_j_test+0x5f04>
    5ed8:	00000000 	nop
    5edc:	00000000 	nop
    5ee0:	00000021 	move	zero,zero
    5ee4:	00000021 	move	zero,zero
    5ee8:	00000021 	move	zero,zero
    5eec:	00000021 	move	zero,zero
    5ef0:	00000021 	move	zero,zero
    5ef4:	00000021 	move	zero,zero
    5ef8:	00000021 	move	zero,zero
    5efc:	3c12f0e7 	lui	s2,0xf0e7
    5f00:	365251e6 	ori	s2,s2,0x51e6
    5f04:	00000000 	nop
    5f08:	3c145a78 	lui	s4,0x5a78
    5f0c:	3694ba00 	ori	s4,s4,0xba00
    5f10:	16140910 	bne	s0,s4,8354 <inst_error>
    5f14:	00000000 	nop
    5f18:	00000000 	nop
    5f1c:	3c15f0e7 	lui	s5,0xf0e7
    5f20:	36b551e6 	ori	s5,s5,0x51e6
    5f24:	1655090b 	bne	s2,s5,8354 <inst_error>
    5f28:	00000000 	nop
    5f2c:	00000000 	nop
    5f30:	3c0c8b5a 	lui	t4,0x8b5a
    5f34:	358c7614 	ori	t4,t4,0x7614
    5f38:	3c0d5334 	lui	t5,0x5334
    5f3c:	35ad9d74 	ori	t5,t5,0x9d74
    5f40:	24100000 	li	s0,0
    5f44:	1000000b 	b	5f74 <n37_j_test+0x5f74>
    5f48:	24120000 	li	s2,0
    5f4c:	00000000 	nop
    5f50:	3c108b5a 	lui	s0,0x8b5a
    5f54:	080017e9 	j	5fa4 <n37_j_test+0x5fa4>
    5f58:	36107614 	ori	s0,s0,0x7614
    5f5c:	10000013 	b	5fac <n37_j_test+0x5fac>
    5f60:	00000000 	nop
    5f64:	00000000 	nop
    5f68:	00000021 	move	zero,zero
    5f6c:	00000021 	move	zero,zero
    5f70:	00000021 	move	zero,zero
    5f74:	080017d4 	j	5f50 <n37_j_test+0x5f50>
    5f78:	00000000 	nop
    5f7c:	1000000b 	b	5fac <n37_j_test+0x5fac>
    5f80:	00000000 	nop
    5f84:	00000000 	nop
    5f88:	00000021 	move	zero,zero
    5f8c:	00000021 	move	zero,zero
    5f90:	00000021 	move	zero,zero
    5f94:	00000021 	move	zero,zero
    5f98:	00000021 	move	zero,zero
    5f9c:	00000021 	move	zero,zero
    5fa0:	00000021 	move	zero,zero
    5fa4:	3c125334 	lui	s2,0x5334
    5fa8:	36529d74 	ori	s2,s2,0x9d74
    5fac:	00000000 	nop
    5fb0:	3c148b5a 	lui	s4,0x8b5a
    5fb4:	36947614 	ori	s4,s4,0x7614
    5fb8:	161408e6 	bne	s0,s4,8354 <inst_error>
    5fbc:	00000000 	nop
    5fc0:	00000000 	nop
    5fc4:	3c155334 	lui	s5,0x5334
    5fc8:	36b59d74 	ori	s5,s5,0x9d74
    5fcc:	165508e1 	bne	s2,s5,8354 <inst_error>
    5fd0:	00000000 	nop
    5fd4:	00000000 	nop
    5fd8:	3c0c9a10 	lui	t4,0x9a10
    5fdc:	358ca8ec 	ori	t4,t4,0xa8ec
    5fe0:	3c0da8f8 	lui	t5,0xa8f8
    5fe4:	35ad1690 	ori	t5,t5,0x1690
    5fe8:	24100000 	li	s0,0
    5fec:	1000000b 	b	601c <n37_j_test+0x601c>
    5ff0:	24120000 	li	s2,0
    5ff4:	00000000 	nop
    5ff8:	3c109a10 	lui	s0,0x9a10
    5ffc:	08001813 	j	604c <n37_j_test+0x604c>
    6000:	3610a8ec 	ori	s0,s0,0xa8ec
    6004:	10000013 	b	6054 <n37_j_test+0x6054>
    6008:	00000000 	nop
    600c:	00000000 	nop
    6010:	00000021 	move	zero,zero
    6014:	00000021 	move	zero,zero
    6018:	00000021 	move	zero,zero
    601c:	080017fe 	j	5ff8 <n37_j_test+0x5ff8>
    6020:	00000000 	nop
    6024:	1000000b 	b	6054 <n37_j_test+0x6054>
    6028:	00000000 	nop
    602c:	00000000 	nop
    6030:	00000021 	move	zero,zero
    6034:	00000021 	move	zero,zero
    6038:	00000021 	move	zero,zero
    603c:	00000021 	move	zero,zero
    6040:	00000021 	move	zero,zero
    6044:	00000021 	move	zero,zero
    6048:	00000021 	move	zero,zero
    604c:	3c12a8f8 	lui	s2,0xa8f8
    6050:	36521690 	ori	s2,s2,0x1690
    6054:	00000000 	nop
    6058:	3c149a10 	lui	s4,0x9a10
    605c:	3694a8ec 	ori	s4,s4,0xa8ec
    6060:	161408bc 	bne	s0,s4,8354 <inst_error>
    6064:	00000000 	nop
    6068:	00000000 	nop
    606c:	3c15a8f8 	lui	s5,0xa8f8
    6070:	36b51690 	ori	s5,s5,0x1690
    6074:	165508b7 	bne	s2,s5,8354 <inst_error>
    6078:	00000000 	nop
    607c:	00000000 	nop
    6080:	3c0caf1b 	lui	t4,0xaf1b
    6084:	358c1580 	ori	t4,t4,0x1580
    6088:	3c0d666a 	lui	t5,0x666a
    608c:	35ad108a 	ori	t5,t5,0x108a
    6090:	24100000 	li	s0,0
    6094:	1000000b 	b	60c4 <n37_j_test+0x60c4>
    6098:	24120000 	li	s2,0
    609c:	00000000 	nop
    60a0:	3c10af1b 	lui	s0,0xaf1b
    60a4:	0800183d 	j	60f4 <n37_j_test+0x60f4>
    60a8:	36101580 	ori	s0,s0,0x1580
    60ac:	10000013 	b	60fc <n37_j_test+0x60fc>
    60b0:	00000000 	nop
    60b4:	00000000 	nop
    60b8:	00000021 	move	zero,zero
    60bc:	00000021 	move	zero,zero
    60c0:	00000021 	move	zero,zero
    60c4:	08001828 	j	60a0 <n37_j_test+0x60a0>
    60c8:	00000000 	nop
    60cc:	1000000b 	b	60fc <n37_j_test+0x60fc>
    60d0:	00000000 	nop
    60d4:	00000000 	nop
    60d8:	00000021 	move	zero,zero
    60dc:	00000021 	move	zero,zero
    60e0:	00000021 	move	zero,zero
    60e4:	00000021 	move	zero,zero
    60e8:	00000021 	move	zero,zero
    60ec:	00000021 	move	zero,zero
    60f0:	00000021 	move	zero,zero
    60f4:	3c12666a 	lui	s2,0x666a
    60f8:	3652108a 	ori	s2,s2,0x108a
    60fc:	00000000 	nop
    6100:	3c14af1b 	lui	s4,0xaf1b
    6104:	36941580 	ori	s4,s4,0x1580
    6108:	16140892 	bne	s0,s4,8354 <inst_error>
    610c:	00000000 	nop
    6110:	00000000 	nop
    6114:	3c15666a 	lui	s5,0x666a
    6118:	36b5108a 	ori	s5,s5,0x108a
    611c:	1655088d 	bne	s2,s5,8354 <inst_error>
    6120:	00000000 	nop
    6124:	00000000 	nop
    6128:	3c0c2f92 	lui	t4,0x2f92
    612c:	358c2960 	ori	t4,t4,0x2960
    6130:	3c0d79bc 	lui	t5,0x79bc
    6134:	35ada7e0 	ori	t5,t5,0xa7e0
    6138:	24100000 	li	s0,0
    613c:	1000000b 	b	616c <n37_j_test+0x616c>
    6140:	24120000 	li	s2,0
    6144:	00000000 	nop
    6148:	3c102f92 	lui	s0,0x2f92
    614c:	08001867 	j	619c <n37_j_test+0x619c>
    6150:	36102960 	ori	s0,s0,0x2960
    6154:	10000013 	b	61a4 <n37_j_test+0x61a4>
    6158:	00000000 	nop
    615c:	00000000 	nop
    6160:	00000021 	move	zero,zero
    6164:	00000021 	move	zero,zero
    6168:	00000021 	move	zero,zero
    616c:	08001852 	j	6148 <n37_j_test+0x6148>
    6170:	00000000 	nop
    6174:	1000000b 	b	61a4 <n37_j_test+0x61a4>
    6178:	00000000 	nop
    617c:	00000000 	nop
    6180:	00000021 	move	zero,zero
    6184:	00000021 	move	zero,zero
    6188:	00000021 	move	zero,zero
    618c:	00000021 	move	zero,zero
    6190:	00000021 	move	zero,zero
    6194:	00000021 	move	zero,zero
    6198:	00000021 	move	zero,zero
    619c:	3c1279bc 	lui	s2,0x79bc
    61a0:	3652a7e0 	ori	s2,s2,0xa7e0
    61a4:	00000000 	nop
    61a8:	3c142f92 	lui	s4,0x2f92
    61ac:	36942960 	ori	s4,s4,0x2960
    61b0:	16140868 	bne	s0,s4,8354 <inst_error>
    61b4:	00000000 	nop
    61b8:	00000000 	nop
    61bc:	3c1579bc 	lui	s5,0x79bc
    61c0:	36b5a7e0 	ori	s5,s5,0xa7e0
    61c4:	16550863 	bne	s2,s5,8354 <inst_error>
    61c8:	00000000 	nop
    61cc:	00000000 	nop
    61d0:	3c0c6222 	lui	t4,0x6222
    61d4:	358cb470 	ori	t4,t4,0xb470
    61d8:	3c0d473d 	lui	t5,0x473d
    61dc:	35adf7a0 	ori	t5,t5,0xf7a0
    61e0:	24100000 	li	s0,0
    61e4:	1000000b 	b	6214 <n37_j_test+0x6214>
    61e8:	24120000 	li	s2,0
    61ec:	00000000 	nop
    61f0:	3c106222 	lui	s0,0x6222
    61f4:	08001891 	j	6244 <n37_j_test+0x6244>
    61f8:	3610b470 	ori	s0,s0,0xb470
    61fc:	10000013 	b	624c <n37_j_test+0x624c>
    6200:	00000000 	nop
    6204:	00000000 	nop
    6208:	00000021 	move	zero,zero
    620c:	00000021 	move	zero,zero
    6210:	00000021 	move	zero,zero
    6214:	0800187c 	j	61f0 <n37_j_test+0x61f0>
    6218:	00000000 	nop
    621c:	1000000b 	b	624c <n37_j_test+0x624c>
    6220:	00000000 	nop
    6224:	00000000 	nop
    6228:	00000021 	move	zero,zero
    622c:	00000021 	move	zero,zero
    6230:	00000021 	move	zero,zero
    6234:	00000021 	move	zero,zero
    6238:	00000021 	move	zero,zero
    623c:	00000021 	move	zero,zero
    6240:	00000021 	move	zero,zero
    6244:	3c12473d 	lui	s2,0x473d
    6248:	3652f7a0 	ori	s2,s2,0xf7a0
    624c:	00000000 	nop
    6250:	3c146222 	lui	s4,0x6222
    6254:	3694b470 	ori	s4,s4,0xb470
    6258:	1614083e 	bne	s0,s4,8354 <inst_error>
    625c:	00000000 	nop
    6260:	00000000 	nop
    6264:	3c15473d 	lui	s5,0x473d
    6268:	36b5f7a0 	ori	s5,s5,0xf7a0
    626c:	16550839 	bne	s2,s5,8354 <inst_error>
    6270:	00000000 	nop
    6274:	00000000 	nop
    6278:	3c0ccfeb 	lui	t4,0xcfeb
    627c:	358c11f8 	ori	t4,t4,0x11f8
    6280:	3c0de809 	lui	t5,0xe809
    6284:	35ad00f0 	ori	t5,t5,0xf0
    6288:	24100000 	li	s0,0
    628c:	1000000b 	b	62bc <n37_j_test+0x62bc>
    6290:	24120000 	li	s2,0
    6294:	00000000 	nop
    6298:	3c10cfeb 	lui	s0,0xcfeb
    629c:	080018bb 	j	62ec <n37_j_test+0x62ec>
    62a0:	361011f8 	ori	s0,s0,0x11f8
    62a4:	10000013 	b	62f4 <n37_j_test+0x62f4>
    62a8:	00000000 	nop
    62ac:	00000000 	nop
    62b0:	00000021 	move	zero,zero
    62b4:	00000021 	move	zero,zero
    62b8:	00000021 	move	zero,zero
    62bc:	080018a6 	j	6298 <n37_j_test+0x6298>
    62c0:	00000000 	nop
    62c4:	1000000b 	b	62f4 <n37_j_test+0x62f4>
    62c8:	00000000 	nop
    62cc:	00000000 	nop
    62d0:	00000021 	move	zero,zero
    62d4:	00000021 	move	zero,zero
    62d8:	00000021 	move	zero,zero
    62dc:	00000021 	move	zero,zero
    62e0:	00000021 	move	zero,zero
    62e4:	00000021 	move	zero,zero
    62e8:	00000021 	move	zero,zero
    62ec:	3c12e809 	lui	s2,0xe809
    62f0:	365200f0 	ori	s2,s2,0xf0
    62f4:	00000000 	nop
    62f8:	3c14cfeb 	lui	s4,0xcfeb
    62fc:	369411f8 	ori	s4,s4,0x11f8
    6300:	16140814 	bne	s0,s4,8354 <inst_error>
    6304:	00000000 	nop
    6308:	00000000 	nop
    630c:	3c15e809 	lui	s5,0xe809
    6310:	36b500f0 	ori	s5,s5,0xf0
    6314:	1655080f 	bne	s2,s5,8354 <inst_error>
    6318:	00000000 	nop
    631c:	00000000 	nop
    6320:	3c0c85d4 	lui	t4,0x85d4
    6324:	358cb680 	ori	t4,t4,0xb680
    6328:	3c0d2b49 	lui	t5,0x2b49
    632c:	35ad0cfe 	ori	t5,t5,0xcfe
    6330:	24100000 	li	s0,0
    6334:	1000000b 	b	6364 <n37_j_test+0x6364>
    6338:	24120000 	li	s2,0
    633c:	00000000 	nop
    6340:	3c1085d4 	lui	s0,0x85d4
    6344:	080018e5 	j	6394 <n37_j_test+0x6394>
    6348:	3610b680 	ori	s0,s0,0xb680
    634c:	10000013 	b	639c <n37_j_test+0x639c>
    6350:	00000000 	nop
    6354:	00000000 	nop
    6358:	00000021 	move	zero,zero
    635c:	00000021 	move	zero,zero
    6360:	00000021 	move	zero,zero
    6364:	080018d0 	j	6340 <n37_j_test+0x6340>
    6368:	00000000 	nop
    636c:	1000000b 	b	639c <n37_j_test+0x639c>
    6370:	00000000 	nop
    6374:	00000000 	nop
    6378:	00000021 	move	zero,zero
    637c:	00000021 	move	zero,zero
    6380:	00000021 	move	zero,zero
    6384:	00000021 	move	zero,zero
    6388:	00000021 	move	zero,zero
    638c:	00000021 	move	zero,zero
    6390:	00000021 	move	zero,zero
    6394:	3c122b49 	lui	s2,0x2b49
    6398:	36520cfe 	ori	s2,s2,0xcfe
    639c:	00000000 	nop
    63a0:	3c1485d4 	lui	s4,0x85d4
    63a4:	3694b680 	ori	s4,s4,0xb680
    63a8:	161407ea 	bne	s0,s4,8354 <inst_error>
    63ac:	00000000 	nop
    63b0:	00000000 	nop
    63b4:	3c152b49 	lui	s5,0x2b49
    63b8:	36b50cfe 	ori	s5,s5,0xcfe
    63bc:	165507e5 	bne	s2,s5,8354 <inst_error>
    63c0:	00000000 	nop
    63c4:	00000000 	nop
    63c8:	3c0ca333 	lui	t4,0xa333
    63cc:	358cbf20 	ori	t4,t4,0xbf20
    63d0:	3c0d5f1c 	lui	t5,0x5f1c
    63d4:	35ad6698 	ori	t5,t5,0x6698
    63d8:	24100000 	li	s0,0
    63dc:	1000000b 	b	640c <n37_j_test+0x640c>
    63e0:	24120000 	li	s2,0
    63e4:	00000000 	nop
    63e8:	3c10a333 	lui	s0,0xa333
    63ec:	0800190f 	j	643c <n37_j_test+0x643c>
    63f0:	3610bf20 	ori	s0,s0,0xbf20
    63f4:	10000013 	b	6444 <n37_j_test+0x6444>
    63f8:	00000000 	nop
    63fc:	00000000 	nop
    6400:	00000021 	move	zero,zero
    6404:	00000021 	move	zero,zero
    6408:	00000021 	move	zero,zero
    640c:	080018fa 	j	63e8 <n37_j_test+0x63e8>
    6410:	00000000 	nop
    6414:	1000000b 	b	6444 <n37_j_test+0x6444>
    6418:	00000000 	nop
    641c:	00000000 	nop
    6420:	00000021 	move	zero,zero
    6424:	00000021 	move	zero,zero
    6428:	00000021 	move	zero,zero
    642c:	00000021 	move	zero,zero
    6430:	00000021 	move	zero,zero
    6434:	00000021 	move	zero,zero
    6438:	00000021 	move	zero,zero
    643c:	3c125f1c 	lui	s2,0x5f1c
    6440:	36526698 	ori	s2,s2,0x6698
    6444:	00000000 	nop
    6448:	3c14a333 	lui	s4,0xa333
    644c:	3694bf20 	ori	s4,s4,0xbf20
    6450:	161407c0 	bne	s0,s4,8354 <inst_error>
    6454:	00000000 	nop
    6458:	00000000 	nop
    645c:	3c155f1c 	lui	s5,0x5f1c
    6460:	36b56698 	ori	s5,s5,0x6698
    6464:	165507bb 	bne	s2,s5,8354 <inst_error>
    6468:	00000000 	nop
    646c:	00000000 	nop
    6470:	3c0c69ef 	lui	t4,0x69ef
    6474:	358ccf00 	ori	t4,t4,0xcf00
    6478:	3c0d2fa1 	lui	t5,0x2fa1
    647c:	35add3dc 	ori	t5,t5,0xd3dc
    6480:	24100000 	li	s0,0
    6484:	1000000b 	b	64b4 <n37_j_test+0x64b4>
    6488:	24120000 	li	s2,0
    648c:	00000000 	nop
    6490:	3c1069ef 	lui	s0,0x69ef
    6494:	08001939 	j	64e4 <n37_j_test+0x64e4>
    6498:	3610cf00 	ori	s0,s0,0xcf00
    649c:	10000013 	b	64ec <n37_j_test+0x64ec>
    64a0:	00000000 	nop
    64a4:	00000000 	nop
    64a8:	00000021 	move	zero,zero
    64ac:	00000021 	move	zero,zero
    64b0:	00000021 	move	zero,zero
    64b4:	08001924 	j	6490 <n37_j_test+0x6490>
    64b8:	00000000 	nop
    64bc:	1000000b 	b	64ec <n37_j_test+0x64ec>
    64c0:	00000000 	nop
    64c4:	00000000 	nop
    64c8:	00000021 	move	zero,zero
    64cc:	00000021 	move	zero,zero
    64d0:	00000021 	move	zero,zero
    64d4:	00000021 	move	zero,zero
    64d8:	00000021 	move	zero,zero
    64dc:	00000021 	move	zero,zero
    64e0:	00000021 	move	zero,zero
    64e4:	3c122fa1 	lui	s2,0x2fa1
    64e8:	3652d3dc 	ori	s2,s2,0xd3dc
    64ec:	00000000 	nop
    64f0:	3c1469ef 	lui	s4,0x69ef
    64f4:	3694cf00 	ori	s4,s4,0xcf00
    64f8:	16140796 	bne	s0,s4,8354 <inst_error>
    64fc:	00000000 	nop
    6500:	00000000 	nop
    6504:	3c152fa1 	lui	s5,0x2fa1
    6508:	36b5d3dc 	ori	s5,s5,0xd3dc
    650c:	16550791 	bne	s2,s5,8354 <inst_error>
    6510:	00000000 	nop
    6514:	00000000 	nop
    6518:	3c0c8959 	lui	t4,0x8959
    651c:	358c486f 	ori	t4,t4,0x486f
    6520:	3c0d8590 	lui	t5,0x8590
    6524:	35adfce0 	ori	t5,t5,0xfce0
    6528:	24100000 	li	s0,0
    652c:	1000000b 	b	655c <n37_j_test+0x655c>
    6530:	24120000 	li	s2,0
    6534:	00000000 	nop
    6538:	3c108959 	lui	s0,0x8959
    653c:	08001963 	j	658c <n37_j_test+0x658c>
    6540:	3610486f 	ori	s0,s0,0x486f
    6544:	10000013 	b	6594 <n37_j_test+0x6594>
    6548:	00000000 	nop
    654c:	00000000 	nop
    6550:	00000021 	move	zero,zero
    6554:	00000021 	move	zero,zero
    6558:	00000021 	move	zero,zero
    655c:	0800194e 	j	6538 <n37_j_test+0x6538>
    6560:	00000000 	nop
    6564:	1000000b 	b	6594 <n37_j_test+0x6594>
    6568:	00000000 	nop
    656c:	00000000 	nop
    6570:	00000021 	move	zero,zero
    6574:	00000021 	move	zero,zero
    6578:	00000021 	move	zero,zero
    657c:	00000021 	move	zero,zero
    6580:	00000021 	move	zero,zero
    6584:	00000021 	move	zero,zero
    6588:	00000021 	move	zero,zero
    658c:	3c128590 	lui	s2,0x8590
    6590:	3652fce0 	ori	s2,s2,0xfce0
    6594:	00000000 	nop
    6598:	3c148959 	lui	s4,0x8959
    659c:	3694486f 	ori	s4,s4,0x486f
    65a0:	1614076c 	bne	s0,s4,8354 <inst_error>
    65a4:	00000000 	nop
    65a8:	00000000 	nop
    65ac:	3c158590 	lui	s5,0x8590
    65b0:	36b5fce0 	ori	s5,s5,0xfce0
    65b4:	16550767 	bne	s2,s5,8354 <inst_error>
    65b8:	00000000 	nop
    65bc:	00000000 	nop
    65c0:	3c0ca24e 	lui	t4,0xa24e
    65c4:	358c76a0 	ori	t4,t4,0x76a0
    65c8:	3c0d8b1d 	lui	t5,0x8b1d
    65cc:	35ad9dea 	ori	t5,t5,0x9dea
    65d0:	24100000 	li	s0,0
    65d4:	1000000b 	b	6604 <n37_j_test+0x6604>
    65d8:	24120000 	li	s2,0
    65dc:	00000000 	nop
    65e0:	3c10a24e 	lui	s0,0xa24e
    65e4:	0800198d 	j	6634 <n37_j_test+0x6634>
    65e8:	361076a0 	ori	s0,s0,0x76a0
    65ec:	10000013 	b	663c <n37_j_test+0x663c>
    65f0:	00000000 	nop
    65f4:	00000000 	nop
    65f8:	00000021 	move	zero,zero
    65fc:	00000021 	move	zero,zero
    6600:	00000021 	move	zero,zero
    6604:	08001978 	j	65e0 <n37_j_test+0x65e0>
    6608:	00000000 	nop
    660c:	1000000b 	b	663c <n37_j_test+0x663c>
    6610:	00000000 	nop
    6614:	00000000 	nop
    6618:	00000021 	move	zero,zero
    661c:	00000021 	move	zero,zero
    6620:	00000021 	move	zero,zero
    6624:	00000021 	move	zero,zero
    6628:	00000021 	move	zero,zero
    662c:	00000021 	move	zero,zero
    6630:	00000021 	move	zero,zero
    6634:	3c128b1d 	lui	s2,0x8b1d
    6638:	36529dea 	ori	s2,s2,0x9dea
    663c:	00000000 	nop
    6640:	3c14a24e 	lui	s4,0xa24e
    6644:	369476a0 	ori	s4,s4,0x76a0
    6648:	16140742 	bne	s0,s4,8354 <inst_error>
    664c:	00000000 	nop
    6650:	00000000 	nop
    6654:	3c158b1d 	lui	s5,0x8b1d
    6658:	36b59dea 	ori	s5,s5,0x9dea
    665c:	1655073d 	bne	s2,s5,8354 <inst_error>
    6660:	00000000 	nop
    6664:	00000000 	nop
    6668:	3c0cdef2 	lui	t4,0xdef2
    666c:	358c54e6 	ori	t4,t4,0x54e6
    6670:	3c0de963 	lui	t5,0xe963
    6674:	35ad7dea 	ori	t5,t5,0x7dea
    6678:	24100000 	li	s0,0
    667c:	1000000b 	b	66ac <n37_j_test+0x66ac>
    6680:	24120000 	li	s2,0
    6684:	00000000 	nop
    6688:	3c10def2 	lui	s0,0xdef2
    668c:	080019b7 	j	66dc <n37_j_test+0x66dc>
    6690:	361054e6 	ori	s0,s0,0x54e6
    6694:	10000013 	b	66e4 <n37_j_test+0x66e4>
    6698:	00000000 	nop
    669c:	00000000 	nop
    66a0:	00000021 	move	zero,zero
    66a4:	00000021 	move	zero,zero
    66a8:	00000021 	move	zero,zero
    66ac:	080019a2 	j	6688 <n37_j_test+0x6688>
    66b0:	00000000 	nop
    66b4:	1000000b 	b	66e4 <n37_j_test+0x66e4>
    66b8:	00000000 	nop
    66bc:	00000000 	nop
    66c0:	00000021 	move	zero,zero
    66c4:	00000021 	move	zero,zero
    66c8:	00000021 	move	zero,zero
    66cc:	00000021 	move	zero,zero
    66d0:	00000021 	move	zero,zero
    66d4:	00000021 	move	zero,zero
    66d8:	00000021 	move	zero,zero
    66dc:	3c12e963 	lui	s2,0xe963
    66e0:	36527dea 	ori	s2,s2,0x7dea
    66e4:	00000000 	nop
    66e8:	3c14def2 	lui	s4,0xdef2
    66ec:	369454e6 	ori	s4,s4,0x54e6
    66f0:	16140718 	bne	s0,s4,8354 <inst_error>
    66f4:	00000000 	nop
    66f8:	00000000 	nop
    66fc:	3c15e963 	lui	s5,0xe963
    6700:	36b57dea 	ori	s5,s5,0x7dea
    6704:	16550713 	bne	s2,s5,8354 <inst_error>
    6708:	00000000 	nop
    670c:	00000000 	nop
    6710:	3c0c09d2 	lui	t4,0x9d2
    6714:	358cdbc2 	ori	t4,t4,0xdbc2
    6718:	3c0dd72f 	lui	t5,0xd72f
    671c:	35adc808 	ori	t5,t5,0xc808
    6720:	24100000 	li	s0,0
    6724:	1000000b 	b	6754 <n37_j_test+0x6754>
    6728:	24120000 	li	s2,0
    672c:	00000000 	nop
    6730:	3c1009d2 	lui	s0,0x9d2
    6734:	080019e1 	j	6784 <n37_j_test+0x6784>
    6738:	3610dbc2 	ori	s0,s0,0xdbc2
    673c:	10000013 	b	678c <n37_j_test+0x678c>
    6740:	00000000 	nop
    6744:	00000000 	nop
    6748:	00000021 	move	zero,zero
    674c:	00000021 	move	zero,zero
    6750:	00000021 	move	zero,zero
    6754:	080019cc 	j	6730 <n37_j_test+0x6730>
    6758:	00000000 	nop
    675c:	1000000b 	b	678c <n37_j_test+0x678c>
    6760:	00000000 	nop
    6764:	00000000 	nop
    6768:	00000021 	move	zero,zero
    676c:	00000021 	move	zero,zero
    6770:	00000021 	move	zero,zero
    6774:	00000021 	move	zero,zero
    6778:	00000021 	move	zero,zero
    677c:	00000021 	move	zero,zero
    6780:	00000021 	move	zero,zero
    6784:	3c12d72f 	lui	s2,0xd72f
    6788:	3652c808 	ori	s2,s2,0xc808
    678c:	00000000 	nop
    6790:	3c1409d2 	lui	s4,0x9d2
    6794:	3694dbc2 	ori	s4,s4,0xdbc2
    6798:	161406ee 	bne	s0,s4,8354 <inst_error>
    679c:	00000000 	nop
    67a0:	00000000 	nop
    67a4:	3c15d72f 	lui	s5,0xd72f
    67a8:	36b5c808 	ori	s5,s5,0xc808
    67ac:	165506e9 	bne	s2,s5,8354 <inst_error>
    67b0:	00000000 	nop
    67b4:	00000000 	nop
    67b8:	3c0cb3ae 	lui	t4,0xb3ae
    67bc:	358cc756 	ori	t4,t4,0xc756
    67c0:	3c0d52d4 	lui	t5,0x52d4
    67c4:	35ada080 	ori	t5,t5,0xa080
    67c8:	24100000 	li	s0,0
    67cc:	1000000b 	b	67fc <n37_j_test+0x67fc>
    67d0:	24120000 	li	s2,0
    67d4:	00000000 	nop
    67d8:	3c10b3ae 	lui	s0,0xb3ae
    67dc:	08001a0b 	j	682c <n37_j_test+0x682c>
    67e0:	3610c756 	ori	s0,s0,0xc756
    67e4:	10000013 	b	6834 <n37_j_test+0x6834>
    67e8:	00000000 	nop
    67ec:	00000000 	nop
    67f0:	00000021 	move	zero,zero
    67f4:	00000021 	move	zero,zero
    67f8:	00000021 	move	zero,zero
    67fc:	080019f6 	j	67d8 <n37_j_test+0x67d8>
    6800:	00000000 	nop
    6804:	1000000b 	b	6834 <n37_j_test+0x6834>
    6808:	00000000 	nop
    680c:	00000000 	nop
    6810:	00000021 	move	zero,zero
    6814:	00000021 	move	zero,zero
    6818:	00000021 	move	zero,zero
    681c:	00000021 	move	zero,zero
    6820:	00000021 	move	zero,zero
    6824:	00000021 	move	zero,zero
    6828:	00000021 	move	zero,zero
    682c:	3c1252d4 	lui	s2,0x52d4
    6830:	3652a080 	ori	s2,s2,0xa080
    6834:	00000000 	nop
    6838:	3c14b3ae 	lui	s4,0xb3ae
    683c:	3694c756 	ori	s4,s4,0xc756
    6840:	161406c4 	bne	s0,s4,8354 <inst_error>
    6844:	00000000 	nop
    6848:	00000000 	nop
    684c:	3c1552d4 	lui	s5,0x52d4
    6850:	36b5a080 	ori	s5,s5,0xa080
    6854:	165506bf 	bne	s2,s5,8354 <inst_error>
    6858:	00000000 	nop
    685c:	00000000 	nop
    6860:	3c0c2507 	lui	t4,0x2507
    6864:	358c8274 	ori	t4,t4,0x8274
    6868:	3c0dac5e 	lui	t5,0xac5e
    686c:	35ade0c0 	ori	t5,t5,0xe0c0
    6870:	24100000 	li	s0,0
    6874:	1000000b 	b	68a4 <n37_j_test+0x68a4>
    6878:	24120000 	li	s2,0
    687c:	00000000 	nop
    6880:	3c102507 	lui	s0,0x2507
    6884:	08001a35 	j	68d4 <n37_j_test+0x68d4>
    6888:	36108274 	ori	s0,s0,0x8274
    688c:	10000013 	b	68dc <n37_j_test+0x68dc>
    6890:	00000000 	nop
    6894:	00000000 	nop
    6898:	00000021 	move	zero,zero
    689c:	00000021 	move	zero,zero
    68a0:	00000021 	move	zero,zero
    68a4:	08001a20 	j	6880 <n37_j_test+0x6880>
    68a8:	00000000 	nop
    68ac:	1000000b 	b	68dc <n37_j_test+0x68dc>
    68b0:	00000000 	nop
    68b4:	00000000 	nop
    68b8:	00000021 	move	zero,zero
    68bc:	00000021 	move	zero,zero
    68c0:	00000021 	move	zero,zero
    68c4:	00000021 	move	zero,zero
    68c8:	00000021 	move	zero,zero
    68cc:	00000021 	move	zero,zero
    68d0:	00000021 	move	zero,zero
    68d4:	3c12ac5e 	lui	s2,0xac5e
    68d8:	3652e0c0 	ori	s2,s2,0xe0c0
    68dc:	00000000 	nop
    68e0:	3c142507 	lui	s4,0x2507
    68e4:	36948274 	ori	s4,s4,0x8274
    68e8:	1614069a 	bne	s0,s4,8354 <inst_error>
    68ec:	00000000 	nop
    68f0:	00000000 	nop
    68f4:	3c15ac5e 	lui	s5,0xac5e
    68f8:	36b5e0c0 	ori	s5,s5,0xe0c0
    68fc:	16550695 	bne	s2,s5,8354 <inst_error>
    6900:	00000000 	nop
    6904:	00000000 	nop
    6908:	3c0c4e13 	lui	t4,0x4e13
    690c:	358c2415 	ori	t4,t4,0x2415
    6910:	3c0d7db7 	lui	t5,0x7db7
    6914:	35adb048 	ori	t5,t5,0xb048
    6918:	24100000 	li	s0,0
    691c:	1000000b 	b	694c <n37_j_test+0x694c>
    6920:	24120000 	li	s2,0
    6924:	00000000 	nop
    6928:	3c104e13 	lui	s0,0x4e13
    692c:	08001a5f 	j	697c <n37_j_test+0x697c>
    6930:	36102415 	ori	s0,s0,0x2415
    6934:	10000013 	b	6984 <n37_j_test+0x6984>
    6938:	00000000 	nop
    693c:	00000000 	nop
    6940:	00000021 	move	zero,zero
    6944:	00000021 	move	zero,zero
    6948:	00000021 	move	zero,zero
    694c:	08001a4a 	j	6928 <n37_j_test+0x6928>
    6950:	00000000 	nop
    6954:	1000000b 	b	6984 <n37_j_test+0x6984>
    6958:	00000000 	nop
    695c:	00000000 	nop
    6960:	00000021 	move	zero,zero
    6964:	00000021 	move	zero,zero
    6968:	00000021 	move	zero,zero
    696c:	00000021 	move	zero,zero
    6970:	00000021 	move	zero,zero
    6974:	00000021 	move	zero,zero
    6978:	00000021 	move	zero,zero
    697c:	3c127db7 	lui	s2,0x7db7
    6980:	3652b048 	ori	s2,s2,0xb048
    6984:	00000000 	nop
    6988:	3c144e13 	lui	s4,0x4e13
    698c:	36942415 	ori	s4,s4,0x2415
    6990:	16140670 	bne	s0,s4,8354 <inst_error>
    6994:	00000000 	nop
    6998:	00000000 	nop
    699c:	3c157db7 	lui	s5,0x7db7
    69a0:	36b5b048 	ori	s5,s5,0xb048
    69a4:	1655066b 	bne	s2,s5,8354 <inst_error>
    69a8:	00000000 	nop
    69ac:	00000000 	nop
    69b0:	3c0cb4bf 	lui	t4,0xb4bf
    69b4:	358cffe0 	ori	t4,t4,0xffe0
    69b8:	3c0d584a 	lui	t5,0x584a
    69bc:	35adf448 	ori	t5,t5,0xf448
    69c0:	24100000 	li	s0,0
    69c4:	1000000b 	b	69f4 <n37_j_test+0x69f4>
    69c8:	24120000 	li	s2,0
    69cc:	00000000 	nop
    69d0:	3c10b4bf 	lui	s0,0xb4bf
    69d4:	08001a89 	j	6a24 <n37_j_test+0x6a24>
    69d8:	3610ffe0 	ori	s0,s0,0xffe0
    69dc:	10000013 	b	6a2c <n37_j_test+0x6a2c>
    69e0:	00000000 	nop
    69e4:	00000000 	nop
    69e8:	00000021 	move	zero,zero
    69ec:	00000021 	move	zero,zero
    69f0:	00000021 	move	zero,zero
    69f4:	08001a74 	j	69d0 <n37_j_test+0x69d0>
    69f8:	00000000 	nop
    69fc:	1000000b 	b	6a2c <n37_j_test+0x6a2c>
    6a00:	00000000 	nop
    6a04:	00000000 	nop
    6a08:	00000021 	move	zero,zero
    6a0c:	00000021 	move	zero,zero
    6a10:	00000021 	move	zero,zero
    6a14:	00000021 	move	zero,zero
    6a18:	00000021 	move	zero,zero
    6a1c:	00000021 	move	zero,zero
    6a20:	00000021 	move	zero,zero
    6a24:	3c12584a 	lui	s2,0x584a
    6a28:	3652f448 	ori	s2,s2,0xf448
    6a2c:	00000000 	nop
    6a30:	3c14b4bf 	lui	s4,0xb4bf
    6a34:	3694ffe0 	ori	s4,s4,0xffe0
    6a38:	16140646 	bne	s0,s4,8354 <inst_error>
    6a3c:	00000000 	nop
    6a40:	00000000 	nop
    6a44:	3c15584a 	lui	s5,0x584a
    6a48:	36b5f448 	ori	s5,s5,0xf448
    6a4c:	16550641 	bne	s2,s5,8354 <inst_error>
    6a50:	00000000 	nop
    6a54:	00000000 	nop
    6a58:	3c0c9555 	lui	t4,0x9555
    6a5c:	358c0edf 	ori	t4,t4,0xedf
    6a60:	3c0d70bf 	lui	t5,0x70bf
    6a64:	35ad3aff 	ori	t5,t5,0x3aff
    6a68:	24100000 	li	s0,0
    6a6c:	1000000b 	b	6a9c <n37_j_test+0x6a9c>
    6a70:	24120000 	li	s2,0
    6a74:	00000000 	nop
    6a78:	3c109555 	lui	s0,0x9555
    6a7c:	08001ab3 	j	6acc <n37_j_test+0x6acc>
    6a80:	36100edf 	ori	s0,s0,0xedf
    6a84:	10000013 	b	6ad4 <n37_j_test+0x6ad4>
    6a88:	00000000 	nop
    6a8c:	00000000 	nop
    6a90:	00000021 	move	zero,zero
    6a94:	00000021 	move	zero,zero
    6a98:	00000021 	move	zero,zero
    6a9c:	08001a9e 	j	6a78 <n37_j_test+0x6a78>
    6aa0:	00000000 	nop
    6aa4:	1000000b 	b	6ad4 <n37_j_test+0x6ad4>
    6aa8:	00000000 	nop
    6aac:	00000000 	nop
    6ab0:	00000021 	move	zero,zero
    6ab4:	00000021 	move	zero,zero
    6ab8:	00000021 	move	zero,zero
    6abc:	00000021 	move	zero,zero
    6ac0:	00000021 	move	zero,zero
    6ac4:	00000021 	move	zero,zero
    6ac8:	00000021 	move	zero,zero
    6acc:	3c1270bf 	lui	s2,0x70bf
    6ad0:	36523aff 	ori	s2,s2,0x3aff
    6ad4:	00000000 	nop
    6ad8:	3c149555 	lui	s4,0x9555
    6adc:	36940edf 	ori	s4,s4,0xedf
    6ae0:	1614061c 	bne	s0,s4,8354 <inst_error>
    6ae4:	00000000 	nop
    6ae8:	00000000 	nop
    6aec:	3c1570bf 	lui	s5,0x70bf
    6af0:	36b53aff 	ori	s5,s5,0x3aff
    6af4:	16550617 	bne	s2,s5,8354 <inst_error>
    6af8:	00000000 	nop
    6afc:	00000000 	nop
    6b00:	3c0c37c9 	lui	t4,0x37c9
    6b04:	358cb418 	ori	t4,t4,0xb418
    6b08:	3c0d1ede 	lui	t5,0x1ede
    6b0c:	35ada5ab 	ori	t5,t5,0xa5ab
    6b10:	24100000 	li	s0,0
    6b14:	1000000b 	b	6b44 <n37_j_test+0x6b44>
    6b18:	24120000 	li	s2,0
    6b1c:	00000000 	nop
    6b20:	3c1037c9 	lui	s0,0x37c9
    6b24:	08001add 	j	6b74 <n37_j_test+0x6b74>
    6b28:	3610b418 	ori	s0,s0,0xb418
    6b2c:	10000013 	b	6b7c <n37_j_test+0x6b7c>
    6b30:	00000000 	nop
    6b34:	00000000 	nop
    6b38:	00000021 	move	zero,zero
    6b3c:	00000021 	move	zero,zero
    6b40:	00000021 	move	zero,zero
    6b44:	08001ac8 	j	6b20 <n37_j_test+0x6b20>
    6b48:	00000000 	nop
    6b4c:	1000000b 	b	6b7c <n37_j_test+0x6b7c>
    6b50:	00000000 	nop
    6b54:	00000000 	nop
    6b58:	00000021 	move	zero,zero
    6b5c:	00000021 	move	zero,zero
    6b60:	00000021 	move	zero,zero
    6b64:	00000021 	move	zero,zero
    6b68:	00000021 	move	zero,zero
    6b6c:	00000021 	move	zero,zero
    6b70:	00000021 	move	zero,zero
    6b74:	3c121ede 	lui	s2,0x1ede
    6b78:	3652a5ab 	ori	s2,s2,0xa5ab
    6b7c:	00000000 	nop
    6b80:	3c1437c9 	lui	s4,0x37c9
    6b84:	3694b418 	ori	s4,s4,0xb418
    6b88:	161405f2 	bne	s0,s4,8354 <inst_error>
    6b8c:	00000000 	nop
    6b90:	00000000 	nop
    6b94:	3c151ede 	lui	s5,0x1ede
    6b98:	36b5a5ab 	ori	s5,s5,0xa5ab
    6b9c:	165505ed 	bne	s2,s5,8354 <inst_error>
    6ba0:	00000000 	nop
    6ba4:	00000000 	nop
    6ba8:	3c0cfeb6 	lui	t4,0xfeb6
    6bac:	358cf680 	ori	t4,t4,0xf680
    6bb0:	3c0d8799 	lui	t5,0x8799
    6bb4:	35ad7a49 	ori	t5,t5,0x7a49
    6bb8:	24100000 	li	s0,0
    6bbc:	1000000b 	b	6bec <n37_j_test+0x6bec>
    6bc0:	24120000 	li	s2,0
    6bc4:	00000000 	nop
    6bc8:	3c10feb6 	lui	s0,0xfeb6
    6bcc:	08001b07 	j	6c1c <n37_j_test+0x6c1c>
    6bd0:	3610f680 	ori	s0,s0,0xf680
    6bd4:	10000013 	b	6c24 <n37_j_test+0x6c24>
    6bd8:	00000000 	nop
    6bdc:	00000000 	nop
    6be0:	00000021 	move	zero,zero
    6be4:	00000021 	move	zero,zero
    6be8:	00000021 	move	zero,zero
    6bec:	08001af2 	j	6bc8 <n37_j_test+0x6bc8>
    6bf0:	00000000 	nop
    6bf4:	1000000b 	b	6c24 <n37_j_test+0x6c24>
    6bf8:	00000000 	nop
    6bfc:	00000000 	nop
    6c00:	00000021 	move	zero,zero
    6c04:	00000021 	move	zero,zero
    6c08:	00000021 	move	zero,zero
    6c0c:	00000021 	move	zero,zero
    6c10:	00000021 	move	zero,zero
    6c14:	00000021 	move	zero,zero
    6c18:	00000021 	move	zero,zero
    6c1c:	3c128799 	lui	s2,0x8799
    6c20:	36527a49 	ori	s2,s2,0x7a49
    6c24:	00000000 	nop
    6c28:	3c14feb6 	lui	s4,0xfeb6
    6c2c:	3694f680 	ori	s4,s4,0xf680
    6c30:	161405c8 	bne	s0,s4,8354 <inst_error>
    6c34:	00000000 	nop
    6c38:	00000000 	nop
    6c3c:	3c158799 	lui	s5,0x8799
    6c40:	36b57a49 	ori	s5,s5,0x7a49
    6c44:	165505c3 	bne	s2,s5,8354 <inst_error>
    6c48:	00000000 	nop
    6c4c:	00000000 	nop
    6c50:	3c0cd062 	lui	t4,0xd062
    6c54:	358cc193 	ori	t4,t4,0xc193
    6c58:	3c0dc5a1 	lui	t5,0xc5a1
    6c5c:	35adccf0 	ori	t5,t5,0xccf0
    6c60:	24100000 	li	s0,0
    6c64:	1000000b 	b	6c94 <n37_j_test+0x6c94>
    6c68:	24120000 	li	s2,0
    6c6c:	00000000 	nop
    6c70:	3c10d062 	lui	s0,0xd062
    6c74:	08001b31 	j	6cc4 <n37_j_test+0x6cc4>
    6c78:	3610c193 	ori	s0,s0,0xc193
    6c7c:	10000013 	b	6ccc <n37_j_test+0x6ccc>
    6c80:	00000000 	nop
    6c84:	00000000 	nop
    6c88:	00000021 	move	zero,zero
    6c8c:	00000021 	move	zero,zero
    6c90:	00000021 	move	zero,zero
    6c94:	08001b1c 	j	6c70 <n37_j_test+0x6c70>
    6c98:	00000000 	nop
    6c9c:	1000000b 	b	6ccc <n37_j_test+0x6ccc>
    6ca0:	00000000 	nop
    6ca4:	00000000 	nop
    6ca8:	00000021 	move	zero,zero
    6cac:	00000021 	move	zero,zero
    6cb0:	00000021 	move	zero,zero
    6cb4:	00000021 	move	zero,zero
    6cb8:	00000021 	move	zero,zero
    6cbc:	00000021 	move	zero,zero
    6cc0:	00000021 	move	zero,zero
    6cc4:	3c12c5a1 	lui	s2,0xc5a1
    6cc8:	3652ccf0 	ori	s2,s2,0xccf0
    6ccc:	00000000 	nop
    6cd0:	3c14d062 	lui	s4,0xd062
    6cd4:	3694c193 	ori	s4,s4,0xc193
    6cd8:	1614059e 	bne	s0,s4,8354 <inst_error>
    6cdc:	00000000 	nop
    6ce0:	00000000 	nop
    6ce4:	3c15c5a1 	lui	s5,0xc5a1
    6ce8:	36b5ccf0 	ori	s5,s5,0xccf0
    6cec:	16550599 	bne	s2,s5,8354 <inst_error>
    6cf0:	00000000 	nop
    6cf4:	00000000 	nop
    6cf8:	3c0c1648 	lui	t4,0x1648
    6cfc:	358c6a7c 	ori	t4,t4,0x6a7c
    6d00:	3c0d512e 	lui	t5,0x512e
    6d04:	35ad7094 	ori	t5,t5,0x7094
    6d08:	24100000 	li	s0,0
    6d0c:	1000000b 	b	6d3c <n37_j_test+0x6d3c>
    6d10:	24120000 	li	s2,0
    6d14:	00000000 	nop
    6d18:	3c101648 	lui	s0,0x1648
    6d1c:	08001b5b 	j	6d6c <n37_j_test+0x6d6c>
    6d20:	36106a7c 	ori	s0,s0,0x6a7c
    6d24:	10000013 	b	6d74 <n37_j_test+0x6d74>
    6d28:	00000000 	nop
    6d2c:	00000000 	nop
    6d30:	00000021 	move	zero,zero
    6d34:	00000021 	move	zero,zero
    6d38:	00000021 	move	zero,zero
    6d3c:	08001b46 	j	6d18 <n37_j_test+0x6d18>
    6d40:	00000000 	nop
    6d44:	1000000b 	b	6d74 <n37_j_test+0x6d74>
    6d48:	00000000 	nop
    6d4c:	00000000 	nop
    6d50:	00000021 	move	zero,zero
    6d54:	00000021 	move	zero,zero
    6d58:	00000021 	move	zero,zero
    6d5c:	00000021 	move	zero,zero
    6d60:	00000021 	move	zero,zero
    6d64:	00000021 	move	zero,zero
    6d68:	00000021 	move	zero,zero
    6d6c:	3c12512e 	lui	s2,0x512e
    6d70:	36527094 	ori	s2,s2,0x7094
    6d74:	00000000 	nop
    6d78:	3c141648 	lui	s4,0x1648
    6d7c:	36946a7c 	ori	s4,s4,0x6a7c
    6d80:	16140574 	bne	s0,s4,8354 <inst_error>
    6d84:	00000000 	nop
    6d88:	00000000 	nop
    6d8c:	3c15512e 	lui	s5,0x512e
    6d90:	36b57094 	ori	s5,s5,0x7094
    6d94:	1655056f 	bne	s2,s5,8354 <inst_error>
    6d98:	00000000 	nop
    6d9c:	00000000 	nop
    6da0:	3c0c3dca 	lui	t4,0x3dca
    6da4:	358cdb74 	ori	t4,t4,0xdb74
    6da8:	3c0d1893 	lui	t5,0x1893
    6dac:	35ad2800 	ori	t5,t5,0x2800
    6db0:	24100000 	li	s0,0
    6db4:	1000000b 	b	6de4 <n37_j_test+0x6de4>
    6db8:	24120000 	li	s2,0
    6dbc:	00000000 	nop
    6dc0:	3c103dca 	lui	s0,0x3dca
    6dc4:	08001b85 	j	6e14 <n37_j_test+0x6e14>
    6dc8:	3610db74 	ori	s0,s0,0xdb74
    6dcc:	10000013 	b	6e1c <n37_j_test+0x6e1c>
    6dd0:	00000000 	nop
    6dd4:	00000000 	nop
    6dd8:	00000021 	move	zero,zero
    6ddc:	00000021 	move	zero,zero
    6de0:	00000021 	move	zero,zero
    6de4:	08001b70 	j	6dc0 <n37_j_test+0x6dc0>
    6de8:	00000000 	nop
    6dec:	1000000b 	b	6e1c <n37_j_test+0x6e1c>
    6df0:	00000000 	nop
    6df4:	00000000 	nop
    6df8:	00000021 	move	zero,zero
    6dfc:	00000021 	move	zero,zero
    6e00:	00000021 	move	zero,zero
    6e04:	00000021 	move	zero,zero
    6e08:	00000021 	move	zero,zero
    6e0c:	00000021 	move	zero,zero
    6e10:	00000021 	move	zero,zero
    6e14:	3c121893 	lui	s2,0x1893
    6e18:	36522800 	ori	s2,s2,0x2800
    6e1c:	00000000 	nop
    6e20:	3c143dca 	lui	s4,0x3dca
    6e24:	3694db74 	ori	s4,s4,0xdb74
    6e28:	1614054a 	bne	s0,s4,8354 <inst_error>
    6e2c:	00000000 	nop
    6e30:	00000000 	nop
    6e34:	3c151893 	lui	s5,0x1893
    6e38:	36b52800 	ori	s5,s5,0x2800
    6e3c:	16550545 	bne	s2,s5,8354 <inst_error>
    6e40:	00000000 	nop
    6e44:	00000000 	nop
    6e48:	3c0c1d42 	lui	t4,0x1d42
    6e4c:	358cafc0 	ori	t4,t4,0xafc0
    6e50:	3c0dfd7e 	lui	t5,0xfd7e
    6e54:	35ad0f80 	ori	t5,t5,0xf80
    6e58:	24100000 	li	s0,0
    6e5c:	1000000b 	b	6e8c <n37_j_test+0x6e8c>
    6e60:	24120000 	li	s2,0
    6e64:	00000000 	nop
    6e68:	3c101d42 	lui	s0,0x1d42
    6e6c:	08001baf 	j	6ebc <n37_j_test+0x6ebc>
    6e70:	3610afc0 	ori	s0,s0,0xafc0
    6e74:	10000013 	b	6ec4 <n37_j_test+0x6ec4>
    6e78:	00000000 	nop
    6e7c:	00000000 	nop
    6e80:	00000021 	move	zero,zero
    6e84:	00000021 	move	zero,zero
    6e88:	00000021 	move	zero,zero
    6e8c:	08001b9a 	j	6e68 <n37_j_test+0x6e68>
    6e90:	00000000 	nop
    6e94:	1000000b 	b	6ec4 <n37_j_test+0x6ec4>
    6e98:	00000000 	nop
    6e9c:	00000000 	nop
    6ea0:	00000021 	move	zero,zero
    6ea4:	00000021 	move	zero,zero
    6ea8:	00000021 	move	zero,zero
    6eac:	00000021 	move	zero,zero
    6eb0:	00000021 	move	zero,zero
    6eb4:	00000021 	move	zero,zero
    6eb8:	00000021 	move	zero,zero
    6ebc:	3c12fd7e 	lui	s2,0xfd7e
    6ec0:	36520f80 	ori	s2,s2,0xf80
    6ec4:	00000000 	nop
    6ec8:	3c141d42 	lui	s4,0x1d42
    6ecc:	3694afc0 	ori	s4,s4,0xafc0
    6ed0:	16140520 	bne	s0,s4,8354 <inst_error>
    6ed4:	00000000 	nop
    6ed8:	00000000 	nop
    6edc:	3c15fd7e 	lui	s5,0xfd7e
    6ee0:	36b50f80 	ori	s5,s5,0xf80
    6ee4:	1655051b 	bne	s2,s5,8354 <inst_error>
    6ee8:	00000000 	nop
    6eec:	00000000 	nop
    6ef0:	3c0c3f87 	lui	t4,0x3f87
    6ef4:	358cc62c 	ori	t4,t4,0xc62c
    6ef8:	3c0d317d 	lui	t5,0x317d
    6efc:	35adbeb0 	ori	t5,t5,0xbeb0
    6f00:	24100000 	li	s0,0
    6f04:	1000000b 	b	6f34 <n37_j_test+0x6f34>
    6f08:	24120000 	li	s2,0
    6f0c:	00000000 	nop
    6f10:	3c103f87 	lui	s0,0x3f87
    6f14:	08001bd9 	j	6f64 <n37_j_test+0x6f64>
    6f18:	3610c62c 	ori	s0,s0,0xc62c
    6f1c:	10000013 	b	6f6c <n37_j_test+0x6f6c>
    6f20:	00000000 	nop
    6f24:	00000000 	nop
    6f28:	00000021 	move	zero,zero
    6f2c:	00000021 	move	zero,zero
    6f30:	00000021 	move	zero,zero
    6f34:	08001bc4 	j	6f10 <n37_j_test+0x6f10>
    6f38:	00000000 	nop
    6f3c:	1000000b 	b	6f6c <n37_j_test+0x6f6c>
    6f40:	00000000 	nop
    6f44:	00000000 	nop
    6f48:	00000021 	move	zero,zero
    6f4c:	00000021 	move	zero,zero
    6f50:	00000021 	move	zero,zero
    6f54:	00000021 	move	zero,zero
    6f58:	00000021 	move	zero,zero
    6f5c:	00000021 	move	zero,zero
    6f60:	00000021 	move	zero,zero
    6f64:	3c12317d 	lui	s2,0x317d
    6f68:	3652beb0 	ori	s2,s2,0xbeb0
    6f6c:	00000000 	nop
    6f70:	3c143f87 	lui	s4,0x3f87
    6f74:	3694c62c 	ori	s4,s4,0xc62c
    6f78:	161404f6 	bne	s0,s4,8354 <inst_error>
    6f7c:	00000000 	nop
    6f80:	00000000 	nop
    6f84:	3c15317d 	lui	s5,0x317d
    6f88:	36b5beb0 	ori	s5,s5,0xbeb0
    6f8c:	165504f1 	bne	s2,s5,8354 <inst_error>
    6f90:	00000000 	nop
    6f94:	00000000 	nop
    6f98:	3c0c5774 	lui	t4,0x5774
    6f9c:	358c2340 	ori	t4,t4,0x2340
    6fa0:	3c0dff7f 	lui	t5,0xff7f
    6fa4:	35ad31e8 	ori	t5,t5,0x31e8
    6fa8:	24100000 	li	s0,0
    6fac:	1000000b 	b	6fdc <n37_j_test+0x6fdc>
    6fb0:	24120000 	li	s2,0
    6fb4:	00000000 	nop
    6fb8:	3c105774 	lui	s0,0x5774
    6fbc:	08001c03 	j	700c <n37_j_test+0x700c>
    6fc0:	36102340 	ori	s0,s0,0x2340
    6fc4:	10000013 	b	7014 <n37_j_test+0x7014>
    6fc8:	00000000 	nop
    6fcc:	00000000 	nop
    6fd0:	00000021 	move	zero,zero
    6fd4:	00000021 	move	zero,zero
    6fd8:	00000021 	move	zero,zero
    6fdc:	08001bee 	j	6fb8 <n37_j_test+0x6fb8>
    6fe0:	00000000 	nop
    6fe4:	1000000b 	b	7014 <n37_j_test+0x7014>
    6fe8:	00000000 	nop
    6fec:	00000000 	nop
    6ff0:	00000021 	move	zero,zero
    6ff4:	00000021 	move	zero,zero
    6ff8:	00000021 	move	zero,zero
    6ffc:	00000021 	move	zero,zero
    7000:	00000021 	move	zero,zero
    7004:	00000021 	move	zero,zero
    7008:	00000021 	move	zero,zero
    700c:	3c12ff7f 	lui	s2,0xff7f
    7010:	365231e8 	ori	s2,s2,0x31e8
    7014:	00000000 	nop
    7018:	3c145774 	lui	s4,0x5774
    701c:	36942340 	ori	s4,s4,0x2340
    7020:	161404cc 	bne	s0,s4,8354 <inst_error>
    7024:	00000000 	nop
    7028:	00000000 	nop
    702c:	3c15ff7f 	lui	s5,0xff7f
    7030:	36b531e8 	ori	s5,s5,0x31e8
    7034:	165504c7 	bne	s2,s5,8354 <inst_error>
    7038:	00000000 	nop
    703c:	00000000 	nop
    7040:	3c0c5347 	lui	t4,0x5347
    7044:	358c0066 	ori	t4,t4,0x66
    7048:	3c0d8918 	lui	t5,0x8918
    704c:	35adc70c 	ori	t5,t5,0xc70c
    7050:	24100000 	li	s0,0
    7054:	1000000b 	b	7084 <n37_j_test+0x7084>
    7058:	24120000 	li	s2,0
    705c:	00000000 	nop
    7060:	3c105347 	lui	s0,0x5347
    7064:	08001c2d 	j	70b4 <n37_j_test+0x70b4>
    7068:	36100066 	ori	s0,s0,0x66
    706c:	10000013 	b	70bc <n37_j_test+0x70bc>
    7070:	00000000 	nop
    7074:	00000000 	nop
    7078:	00000021 	move	zero,zero
    707c:	00000021 	move	zero,zero
    7080:	00000021 	move	zero,zero
    7084:	08001c18 	j	7060 <n37_j_test+0x7060>
    7088:	00000000 	nop
    708c:	1000000b 	b	70bc <n37_j_test+0x70bc>
    7090:	00000000 	nop
    7094:	00000000 	nop
    7098:	00000021 	move	zero,zero
    709c:	00000021 	move	zero,zero
    70a0:	00000021 	move	zero,zero
    70a4:	00000021 	move	zero,zero
    70a8:	00000021 	move	zero,zero
    70ac:	00000021 	move	zero,zero
    70b0:	00000021 	move	zero,zero
    70b4:	3c128918 	lui	s2,0x8918
    70b8:	3652c70c 	ori	s2,s2,0xc70c
    70bc:	00000000 	nop
    70c0:	3c145347 	lui	s4,0x5347
    70c4:	36940066 	ori	s4,s4,0x66
    70c8:	161404a2 	bne	s0,s4,8354 <inst_error>
    70cc:	00000000 	nop
    70d0:	00000000 	nop
    70d4:	3c158918 	lui	s5,0x8918
    70d8:	36b5c70c 	ori	s5,s5,0xc70c
    70dc:	1655049d 	bne	s2,s5,8354 <inst_error>
    70e0:	00000000 	nop
    70e4:	00000000 	nop
    70e8:	3c0c2b88 	lui	t4,0x2b88
    70ec:	358ce2d8 	ori	t4,t4,0xe2d8
    70f0:	3c0d1956 	lui	t5,0x1956
    70f4:	35ad758a 	ori	t5,t5,0x758a
    70f8:	24100000 	li	s0,0
    70fc:	1000000b 	b	712c <n37_j_test+0x712c>
    7100:	24120000 	li	s2,0
    7104:	00000000 	nop
    7108:	3c102b88 	lui	s0,0x2b88
    710c:	08001c57 	j	715c <n37_j_test+0x715c>
    7110:	3610e2d8 	ori	s0,s0,0xe2d8
    7114:	10000013 	b	7164 <n37_j_test+0x7164>
    7118:	00000000 	nop
    711c:	00000000 	nop
    7120:	00000021 	move	zero,zero
    7124:	00000021 	move	zero,zero
    7128:	00000021 	move	zero,zero
    712c:	08001c42 	j	7108 <n37_j_test+0x7108>
    7130:	00000000 	nop
    7134:	1000000b 	b	7164 <n37_j_test+0x7164>
    7138:	00000000 	nop
    713c:	00000000 	nop
    7140:	00000021 	move	zero,zero
    7144:	00000021 	move	zero,zero
    7148:	00000021 	move	zero,zero
    714c:	00000021 	move	zero,zero
    7150:	00000021 	move	zero,zero
    7154:	00000021 	move	zero,zero
    7158:	00000021 	move	zero,zero
    715c:	3c121956 	lui	s2,0x1956
    7160:	3652758a 	ori	s2,s2,0x758a
    7164:	00000000 	nop
    7168:	3c142b88 	lui	s4,0x2b88
    716c:	3694e2d8 	ori	s4,s4,0xe2d8
    7170:	16140478 	bne	s0,s4,8354 <inst_error>
    7174:	00000000 	nop
    7178:	00000000 	nop
    717c:	3c151956 	lui	s5,0x1956
    7180:	36b5758a 	ori	s5,s5,0x758a
    7184:	16550473 	bne	s2,s5,8354 <inst_error>
    7188:	00000000 	nop
    718c:	00000000 	nop
    7190:	3c0c2615 	lui	t4,0x2615
    7194:	358c5744 	ori	t4,t4,0x5744
    7198:	3c0d4641 	lui	t5,0x4641
    719c:	35adaed8 	ori	t5,t5,0xaed8
    71a0:	24100000 	li	s0,0
    71a4:	1000000b 	b	71d4 <n37_j_test+0x71d4>
    71a8:	24120000 	li	s2,0
    71ac:	00000000 	nop
    71b0:	3c102615 	lui	s0,0x2615
    71b4:	08001c81 	j	7204 <n37_j_test+0x7204>
    71b8:	36105744 	ori	s0,s0,0x5744
    71bc:	10000013 	b	720c <n37_j_test+0x720c>
    71c0:	00000000 	nop
    71c4:	00000000 	nop
    71c8:	00000021 	move	zero,zero
    71cc:	00000021 	move	zero,zero
    71d0:	00000021 	move	zero,zero
    71d4:	08001c6c 	j	71b0 <n37_j_test+0x71b0>
    71d8:	00000000 	nop
    71dc:	1000000b 	b	720c <n37_j_test+0x720c>
    71e0:	00000000 	nop
    71e4:	00000000 	nop
    71e8:	00000021 	move	zero,zero
    71ec:	00000021 	move	zero,zero
    71f0:	00000021 	move	zero,zero
    71f4:	00000021 	move	zero,zero
    71f8:	00000021 	move	zero,zero
    71fc:	00000021 	move	zero,zero
    7200:	00000021 	move	zero,zero
    7204:	3c124641 	lui	s2,0x4641
    7208:	3652aed8 	ori	s2,s2,0xaed8
    720c:	00000000 	nop
    7210:	3c142615 	lui	s4,0x2615
    7214:	36945744 	ori	s4,s4,0x5744
    7218:	1614044e 	bne	s0,s4,8354 <inst_error>
    721c:	00000000 	nop
    7220:	00000000 	nop
    7224:	3c154641 	lui	s5,0x4641
    7228:	36b5aed8 	ori	s5,s5,0xaed8
    722c:	16550449 	bne	s2,s5,8354 <inst_error>
    7230:	00000000 	nop
    7234:	00000000 	nop
    7238:	3c0ca426 	lui	t4,0xa426
    723c:	358c20c5 	ori	t4,t4,0x20c5
    7240:	3c0d8d9c 	lui	t5,0x8d9c
    7244:	35adcc00 	ori	t5,t5,0xcc00
    7248:	24100000 	li	s0,0
    724c:	1000000b 	b	727c <n37_j_test+0x727c>
    7250:	24120000 	li	s2,0
    7254:	00000000 	nop
    7258:	3c10a426 	lui	s0,0xa426
    725c:	08001cab 	j	72ac <n37_j_test+0x72ac>
    7260:	361020c5 	ori	s0,s0,0x20c5
    7264:	10000013 	b	72b4 <n37_j_test+0x72b4>
    7268:	00000000 	nop
    726c:	00000000 	nop
    7270:	00000021 	move	zero,zero
    7274:	00000021 	move	zero,zero
    7278:	00000021 	move	zero,zero
    727c:	08001c96 	j	7258 <n37_j_test+0x7258>
    7280:	00000000 	nop
    7284:	1000000b 	b	72b4 <n37_j_test+0x72b4>
    7288:	00000000 	nop
    728c:	00000000 	nop
    7290:	00000021 	move	zero,zero
    7294:	00000021 	move	zero,zero
    7298:	00000021 	move	zero,zero
    729c:	00000021 	move	zero,zero
    72a0:	00000021 	move	zero,zero
    72a4:	00000021 	move	zero,zero
    72a8:	00000021 	move	zero,zero
    72ac:	3c128d9c 	lui	s2,0x8d9c
    72b0:	3652cc00 	ori	s2,s2,0xcc00
    72b4:	00000000 	nop
    72b8:	3c14a426 	lui	s4,0xa426
    72bc:	369420c5 	ori	s4,s4,0x20c5
    72c0:	16140424 	bne	s0,s4,8354 <inst_error>
    72c4:	00000000 	nop
    72c8:	00000000 	nop
    72cc:	3c158d9c 	lui	s5,0x8d9c
    72d0:	36b5cc00 	ori	s5,s5,0xcc00
    72d4:	1655041f 	bne	s2,s5,8354 <inst_error>
    72d8:	00000000 	nop
    72dc:	00000000 	nop
    72e0:	3c0c56ad 	lui	t4,0x56ad
    72e4:	358c76b4 	ori	t4,t4,0x76b4
    72e8:	3c0d41db 	lui	t5,0x41db
    72ec:	35adbf00 	ori	t5,t5,0xbf00
    72f0:	24100000 	li	s0,0
    72f4:	1000000b 	b	7324 <n37_j_test+0x7324>
    72f8:	24120000 	li	s2,0
    72fc:	00000000 	nop
    7300:	3c1056ad 	lui	s0,0x56ad
    7304:	08001cd5 	j	7354 <n37_j_test+0x7354>
    7308:	361076b4 	ori	s0,s0,0x76b4
    730c:	10000013 	b	735c <n37_j_test+0x735c>
    7310:	00000000 	nop
    7314:	00000000 	nop
    7318:	00000021 	move	zero,zero
    731c:	00000021 	move	zero,zero
    7320:	00000021 	move	zero,zero
    7324:	08001cc0 	j	7300 <n37_j_test+0x7300>
    7328:	00000000 	nop
    732c:	1000000b 	b	735c <n37_j_test+0x735c>
    7330:	00000000 	nop
    7334:	00000000 	nop
    7338:	00000021 	move	zero,zero
    733c:	00000021 	move	zero,zero
    7340:	00000021 	move	zero,zero
    7344:	00000021 	move	zero,zero
    7348:	00000021 	move	zero,zero
    734c:	00000021 	move	zero,zero
    7350:	00000021 	move	zero,zero
    7354:	3c1241db 	lui	s2,0x41db
    7358:	3652bf00 	ori	s2,s2,0xbf00
    735c:	00000000 	nop
    7360:	3c1456ad 	lui	s4,0x56ad
    7364:	369476b4 	ori	s4,s4,0x76b4
    7368:	161403fa 	bne	s0,s4,8354 <inst_error>
    736c:	00000000 	nop
    7370:	00000000 	nop
    7374:	3c1541db 	lui	s5,0x41db
    7378:	36b5bf00 	ori	s5,s5,0xbf00
    737c:	165503f5 	bne	s2,s5,8354 <inst_error>
    7380:	00000000 	nop
    7384:	00000000 	nop
    7388:	3c0cd772 	lui	t4,0xd772
    738c:	358c56b8 	ori	t4,t4,0x56b8
    7390:	3c0d75df 	lui	t5,0x75df
    7394:	35adf4ee 	ori	t5,t5,0xf4ee
    7398:	24100000 	li	s0,0
    739c:	1000000b 	b	73cc <n37_j_test+0x73cc>
    73a0:	24120000 	li	s2,0
    73a4:	00000000 	nop
    73a8:	3c10d772 	lui	s0,0xd772
    73ac:	08001cff 	j	73fc <n37_j_test+0x73fc>
    73b0:	361056b8 	ori	s0,s0,0x56b8
    73b4:	10000013 	b	7404 <n37_j_test+0x7404>
    73b8:	00000000 	nop
    73bc:	00000000 	nop
    73c0:	00000021 	move	zero,zero
    73c4:	00000021 	move	zero,zero
    73c8:	00000021 	move	zero,zero
    73cc:	08001cea 	j	73a8 <n37_j_test+0x73a8>
    73d0:	00000000 	nop
    73d4:	1000000b 	b	7404 <n37_j_test+0x7404>
    73d8:	00000000 	nop
    73dc:	00000000 	nop
    73e0:	00000021 	move	zero,zero
    73e4:	00000021 	move	zero,zero
    73e8:	00000021 	move	zero,zero
    73ec:	00000021 	move	zero,zero
    73f0:	00000021 	move	zero,zero
    73f4:	00000021 	move	zero,zero
    73f8:	00000021 	move	zero,zero
    73fc:	3c1275df 	lui	s2,0x75df
    7400:	3652f4ee 	ori	s2,s2,0xf4ee
    7404:	00000000 	nop
    7408:	3c14d772 	lui	s4,0xd772
    740c:	369456b8 	ori	s4,s4,0x56b8
    7410:	161403d0 	bne	s0,s4,8354 <inst_error>
    7414:	00000000 	nop
    7418:	00000000 	nop
    741c:	3c1575df 	lui	s5,0x75df
    7420:	36b5f4ee 	ori	s5,s5,0xf4ee
    7424:	165503cb 	bne	s2,s5,8354 <inst_error>
    7428:	00000000 	nop
    742c:	00000000 	nop
    7430:	3c0c3b18 	lui	t4,0x3b18
    7434:	358c2cc0 	ori	t4,t4,0x2cc0
    7438:	3c0d13b7 	lui	t5,0x13b7
    743c:	35ad8060 	ori	t5,t5,0x8060
    7440:	24100000 	li	s0,0
    7444:	1000000b 	b	7474 <n37_j_test+0x7474>
    7448:	24120000 	li	s2,0
    744c:	00000000 	nop
    7450:	3c103b18 	lui	s0,0x3b18
    7454:	08001d29 	j	74a4 <n37_j_test+0x74a4>
    7458:	36102cc0 	ori	s0,s0,0x2cc0
    745c:	10000013 	b	74ac <n37_j_test+0x74ac>
    7460:	00000000 	nop
    7464:	00000000 	nop
    7468:	00000021 	move	zero,zero
    746c:	00000021 	move	zero,zero
    7470:	00000021 	move	zero,zero
    7474:	08001d14 	j	7450 <n37_j_test+0x7450>
    7478:	00000000 	nop
    747c:	1000000b 	b	74ac <n37_j_test+0x74ac>
    7480:	00000000 	nop
    7484:	00000000 	nop
    7488:	00000021 	move	zero,zero
    748c:	00000021 	move	zero,zero
    7490:	00000021 	move	zero,zero
    7494:	00000021 	move	zero,zero
    7498:	00000021 	move	zero,zero
    749c:	00000021 	move	zero,zero
    74a0:	00000021 	move	zero,zero
    74a4:	3c1213b7 	lui	s2,0x13b7
    74a8:	36528060 	ori	s2,s2,0x8060
    74ac:	00000000 	nop
    74b0:	3c143b18 	lui	s4,0x3b18
    74b4:	36942cc0 	ori	s4,s4,0x2cc0
    74b8:	161403a6 	bne	s0,s4,8354 <inst_error>
    74bc:	00000000 	nop
    74c0:	00000000 	nop
    74c4:	3c1513b7 	lui	s5,0x13b7
    74c8:	36b58060 	ori	s5,s5,0x8060
    74cc:	165503a1 	bne	s2,s5,8354 <inst_error>
    74d0:	00000000 	nop
    74d4:	00000000 	nop
    74d8:	3c0c71db 	lui	t4,0x71db
    74dc:	358c7228 	ori	t4,t4,0x7228
    74e0:	3c0d4e0f 	lui	t5,0x4e0f
    74e4:	35ad5080 	ori	t5,t5,0x5080
    74e8:	24100000 	li	s0,0
    74ec:	1000000b 	b	751c <n37_j_test+0x751c>
    74f0:	24120000 	li	s2,0
    74f4:	00000000 	nop
    74f8:	3c1071db 	lui	s0,0x71db
    74fc:	08001d53 	j	754c <n37_j_test+0x754c>
    7500:	36107228 	ori	s0,s0,0x7228
    7504:	10000013 	b	7554 <n37_j_test+0x7554>
    7508:	00000000 	nop
    750c:	00000000 	nop
    7510:	00000021 	move	zero,zero
    7514:	00000021 	move	zero,zero
    7518:	00000021 	move	zero,zero
    751c:	08001d3e 	j	74f8 <n37_j_test+0x74f8>
    7520:	00000000 	nop
    7524:	1000000b 	b	7554 <n37_j_test+0x7554>
    7528:	00000000 	nop
    752c:	00000000 	nop
    7530:	00000021 	move	zero,zero
    7534:	00000021 	move	zero,zero
    7538:	00000021 	move	zero,zero
    753c:	00000021 	move	zero,zero
    7540:	00000021 	move	zero,zero
    7544:	00000021 	move	zero,zero
    7548:	00000021 	move	zero,zero
    754c:	3c124e0f 	lui	s2,0x4e0f
    7550:	36525080 	ori	s2,s2,0x5080
    7554:	00000000 	nop
    7558:	3c1471db 	lui	s4,0x71db
    755c:	36947228 	ori	s4,s4,0x7228
    7560:	1614037c 	bne	s0,s4,8354 <inst_error>
    7564:	00000000 	nop
    7568:	00000000 	nop
    756c:	3c154e0f 	lui	s5,0x4e0f
    7570:	36b55080 	ori	s5,s5,0x5080
    7574:	16550377 	bne	s2,s5,8354 <inst_error>
    7578:	00000000 	nop
    757c:	00000000 	nop
    7580:	3c0c536a 	lui	t4,0x536a
    7584:	358c6dac 	ori	t4,t4,0x6dac
    7588:	3c0d43aa 	lui	t5,0x43aa
    758c:	35ad60c0 	ori	t5,t5,0x60c0
    7590:	24100000 	li	s0,0
    7594:	1000000b 	b	75c4 <n37_j_test+0x75c4>
    7598:	24120000 	li	s2,0
    759c:	00000000 	nop
    75a0:	3c10536a 	lui	s0,0x536a
    75a4:	08001d7d 	j	75f4 <n37_j_test+0x75f4>
    75a8:	36106dac 	ori	s0,s0,0x6dac
    75ac:	10000013 	b	75fc <n37_j_test+0x75fc>
    75b0:	00000000 	nop
    75b4:	00000000 	nop
    75b8:	00000021 	move	zero,zero
    75bc:	00000021 	move	zero,zero
    75c0:	00000021 	move	zero,zero
    75c4:	08001d68 	j	75a0 <n37_j_test+0x75a0>
    75c8:	00000000 	nop
    75cc:	1000000b 	b	75fc <n37_j_test+0x75fc>
    75d0:	00000000 	nop
    75d4:	00000000 	nop
    75d8:	00000021 	move	zero,zero
    75dc:	00000021 	move	zero,zero
    75e0:	00000021 	move	zero,zero
    75e4:	00000021 	move	zero,zero
    75e8:	00000021 	move	zero,zero
    75ec:	00000021 	move	zero,zero
    75f0:	00000021 	move	zero,zero
    75f4:	3c1243aa 	lui	s2,0x43aa
    75f8:	365260c0 	ori	s2,s2,0x60c0
    75fc:	00000000 	nop
    7600:	3c14536a 	lui	s4,0x536a
    7604:	36946dac 	ori	s4,s4,0x6dac
    7608:	16140352 	bne	s0,s4,8354 <inst_error>
    760c:	00000000 	nop
    7610:	00000000 	nop
    7614:	3c1543aa 	lui	s5,0x43aa
    7618:	36b560c0 	ori	s5,s5,0x60c0
    761c:	1655034d 	bne	s2,s5,8354 <inst_error>
    7620:	00000000 	nop
    7624:	00000000 	nop
    7628:	3c0c2cd0 	lui	t4,0x2cd0
    762c:	358c30d8 	ori	t4,t4,0x30d8
    7630:	3c0d8912 	lui	t5,0x8912
    7634:	35ad6580 	ori	t5,t5,0x6580
    7638:	24100000 	li	s0,0
    763c:	1000000b 	b	766c <n37_j_test+0x766c>
    7640:	24120000 	li	s2,0
    7644:	00000000 	nop
    7648:	3c102cd0 	lui	s0,0x2cd0
    764c:	08001da7 	j	769c <n37_j_test+0x769c>
    7650:	361030d8 	ori	s0,s0,0x30d8
    7654:	10000013 	b	76a4 <n37_j_test+0x76a4>
    7658:	00000000 	nop
    765c:	00000000 	nop
    7660:	00000021 	move	zero,zero
    7664:	00000021 	move	zero,zero
    7668:	00000021 	move	zero,zero
    766c:	08001d92 	j	7648 <n37_j_test+0x7648>
    7670:	00000000 	nop
    7674:	1000000b 	b	76a4 <n37_j_test+0x76a4>
    7678:	00000000 	nop
    767c:	00000000 	nop
    7680:	00000021 	move	zero,zero
    7684:	00000021 	move	zero,zero
    7688:	00000021 	move	zero,zero
    768c:	00000021 	move	zero,zero
    7690:	00000021 	move	zero,zero
    7694:	00000021 	move	zero,zero
    7698:	00000021 	move	zero,zero
    769c:	3c128912 	lui	s2,0x8912
    76a0:	36526580 	ori	s2,s2,0x6580
    76a4:	00000000 	nop
    76a8:	3c142cd0 	lui	s4,0x2cd0
    76ac:	369430d8 	ori	s4,s4,0x30d8
    76b0:	16140328 	bne	s0,s4,8354 <inst_error>
    76b4:	00000000 	nop
    76b8:	00000000 	nop
    76bc:	3c158912 	lui	s5,0x8912
    76c0:	36b56580 	ori	s5,s5,0x6580
    76c4:	16550323 	bne	s2,s5,8354 <inst_error>
    76c8:	00000000 	nop
    76cc:	00000000 	nop
    76d0:	3c0c24c2 	lui	t4,0x24c2
    76d4:	358c05c4 	ori	t4,t4,0x5c4
    76d8:	3c0d366a 	lui	t5,0x366a
    76dc:	35ad9a58 	ori	t5,t5,0x9a58
    76e0:	24100000 	li	s0,0
    76e4:	1000000b 	b	7714 <n37_j_test+0x7714>
    76e8:	24120000 	li	s2,0
    76ec:	00000000 	nop
    76f0:	3c1024c2 	lui	s0,0x24c2
    76f4:	08001dd1 	j	7744 <n37_j_test+0x7744>
    76f8:	361005c4 	ori	s0,s0,0x5c4
    76fc:	10000013 	b	774c <n37_j_test+0x774c>
    7700:	00000000 	nop
    7704:	00000000 	nop
    7708:	00000021 	move	zero,zero
    770c:	00000021 	move	zero,zero
    7710:	00000021 	move	zero,zero
    7714:	08001dbc 	j	76f0 <n37_j_test+0x76f0>
    7718:	00000000 	nop
    771c:	1000000b 	b	774c <n37_j_test+0x774c>
    7720:	00000000 	nop
    7724:	00000000 	nop
    7728:	00000021 	move	zero,zero
    772c:	00000021 	move	zero,zero
    7730:	00000021 	move	zero,zero
    7734:	00000021 	move	zero,zero
    7738:	00000021 	move	zero,zero
    773c:	00000021 	move	zero,zero
    7740:	00000021 	move	zero,zero
    7744:	3c12366a 	lui	s2,0x366a
    7748:	36529a58 	ori	s2,s2,0x9a58
    774c:	00000000 	nop
    7750:	3c1424c2 	lui	s4,0x24c2
    7754:	369405c4 	ori	s4,s4,0x5c4
    7758:	161402fe 	bne	s0,s4,8354 <inst_error>
    775c:	00000000 	nop
    7760:	00000000 	nop
    7764:	3c15366a 	lui	s5,0x366a
    7768:	36b59a58 	ori	s5,s5,0x9a58
    776c:	165502f9 	bne	s2,s5,8354 <inst_error>
    7770:	00000000 	nop
    7774:	00000000 	nop
    7778:	3c0c7ef5 	lui	t4,0x7ef5
    777c:	358cd5c0 	ori	t4,t4,0xd5c0
    7780:	3c0da6d5 	lui	t5,0xa6d5
    7784:	35ade148 	ori	t5,t5,0xe148
    7788:	24100000 	li	s0,0
    778c:	1000000b 	b	77bc <n37_j_test+0x77bc>
    7790:	24120000 	li	s2,0
    7794:	00000000 	nop
    7798:	3c107ef5 	lui	s0,0x7ef5
    779c:	08001dfb 	j	77ec <n37_j_test+0x77ec>
    77a0:	3610d5c0 	ori	s0,s0,0xd5c0
    77a4:	10000013 	b	77f4 <n37_j_test+0x77f4>
    77a8:	00000000 	nop
    77ac:	00000000 	nop
    77b0:	00000021 	move	zero,zero
    77b4:	00000021 	move	zero,zero
    77b8:	00000021 	move	zero,zero
    77bc:	08001de6 	j	7798 <n37_j_test+0x7798>
    77c0:	00000000 	nop
    77c4:	1000000b 	b	77f4 <n37_j_test+0x77f4>
    77c8:	00000000 	nop
    77cc:	00000000 	nop
    77d0:	00000021 	move	zero,zero
    77d4:	00000021 	move	zero,zero
    77d8:	00000021 	move	zero,zero
    77dc:	00000021 	move	zero,zero
    77e0:	00000021 	move	zero,zero
    77e4:	00000021 	move	zero,zero
    77e8:	00000021 	move	zero,zero
    77ec:	3c12a6d5 	lui	s2,0xa6d5
    77f0:	3652e148 	ori	s2,s2,0xe148
    77f4:	00000000 	nop
    77f8:	3c147ef5 	lui	s4,0x7ef5
    77fc:	3694d5c0 	ori	s4,s4,0xd5c0
    7800:	161402d4 	bne	s0,s4,8354 <inst_error>
    7804:	00000000 	nop
    7808:	00000000 	nop
    780c:	3c15a6d5 	lui	s5,0xa6d5
    7810:	36b5e148 	ori	s5,s5,0xe148
    7814:	165502cf 	bne	s2,s5,8354 <inst_error>
    7818:	00000000 	nop
    781c:	00000000 	nop
    7820:	3c0c209c 	lui	t4,0x209c
    7824:	358cb5f0 	ori	t4,t4,0xb5f0
    7828:	3c0dd3e5 	lui	t5,0xd3e5
    782c:	35ad1e84 	ori	t5,t5,0x1e84
    7830:	24100000 	li	s0,0
    7834:	1000000b 	b	7864 <n37_j_test+0x7864>
    7838:	24120000 	li	s2,0
    783c:	00000000 	nop
    7840:	3c10209c 	lui	s0,0x209c
    7844:	08001e25 	j	7894 <n37_j_test+0x7894>
    7848:	3610b5f0 	ori	s0,s0,0xb5f0
    784c:	10000013 	b	789c <n37_j_test+0x789c>
    7850:	00000000 	nop
    7854:	00000000 	nop
    7858:	00000021 	move	zero,zero
    785c:	00000021 	move	zero,zero
    7860:	00000021 	move	zero,zero
    7864:	08001e10 	j	7840 <n37_j_test+0x7840>
    7868:	00000000 	nop
    786c:	1000000b 	b	789c <n37_j_test+0x789c>
    7870:	00000000 	nop
    7874:	00000000 	nop
    7878:	00000021 	move	zero,zero
    787c:	00000021 	move	zero,zero
    7880:	00000021 	move	zero,zero
    7884:	00000021 	move	zero,zero
    7888:	00000021 	move	zero,zero
    788c:	00000021 	move	zero,zero
    7890:	00000021 	move	zero,zero
    7894:	3c12d3e5 	lui	s2,0xd3e5
    7898:	36521e84 	ori	s2,s2,0x1e84
    789c:	00000000 	nop
    78a0:	3c14209c 	lui	s4,0x209c
    78a4:	3694b5f0 	ori	s4,s4,0xb5f0
    78a8:	161402aa 	bne	s0,s4,8354 <inst_error>
    78ac:	00000000 	nop
    78b0:	00000000 	nop
    78b4:	3c15d3e5 	lui	s5,0xd3e5
    78b8:	36b51e84 	ori	s5,s5,0x1e84
    78bc:	165502a5 	bne	s2,s5,8354 <inst_error>
    78c0:	00000000 	nop
    78c4:	00000000 	nop
    78c8:	3c0c1965 	lui	t4,0x1965
    78cc:	358c4048 	ori	t4,t4,0x4048
    78d0:	3c0ddf1c 	lui	t5,0xdf1c
    78d4:	35ad7410 	ori	t5,t5,0x7410
    78d8:	24100000 	li	s0,0
    78dc:	1000000b 	b	790c <n37_j_test+0x790c>
    78e0:	24120000 	li	s2,0
    78e4:	00000000 	nop
    78e8:	3c101965 	lui	s0,0x1965
    78ec:	08001e4f 	j	793c <n37_j_test+0x793c>
    78f0:	36104048 	ori	s0,s0,0x4048
    78f4:	10000013 	b	7944 <n37_j_test+0x7944>
    78f8:	00000000 	nop
    78fc:	00000000 	nop
    7900:	00000021 	move	zero,zero
    7904:	00000021 	move	zero,zero
    7908:	00000021 	move	zero,zero
    790c:	08001e3a 	j	78e8 <n37_j_test+0x78e8>
    7910:	00000000 	nop
    7914:	1000000b 	b	7944 <n37_j_test+0x7944>
    7918:	00000000 	nop
    791c:	00000000 	nop
    7920:	00000021 	move	zero,zero
    7924:	00000021 	move	zero,zero
    7928:	00000021 	move	zero,zero
    792c:	00000021 	move	zero,zero
    7930:	00000021 	move	zero,zero
    7934:	00000021 	move	zero,zero
    7938:	00000021 	move	zero,zero
    793c:	3c12df1c 	lui	s2,0xdf1c
    7940:	36527410 	ori	s2,s2,0x7410
    7944:	00000000 	nop
    7948:	3c141965 	lui	s4,0x1965
    794c:	36944048 	ori	s4,s4,0x4048
    7950:	16140280 	bne	s0,s4,8354 <inst_error>
    7954:	00000000 	nop
    7958:	00000000 	nop
    795c:	3c15df1c 	lui	s5,0xdf1c
    7960:	36b57410 	ori	s5,s5,0x7410
    7964:	1655027b 	bne	s2,s5,8354 <inst_error>
    7968:	00000000 	nop
    796c:	00000000 	nop
    7970:	3c0c0102 	lui	t4,0x102
    7974:	358c1bfa 	ori	t4,t4,0x1bfa
    7978:	3c0d6134 	lui	t5,0x6134
    797c:	35ad8c20 	ori	t5,t5,0x8c20
    7980:	24100000 	li	s0,0
    7984:	1000000b 	b	79b4 <n37_j_test+0x79b4>
    7988:	24120000 	li	s2,0
    798c:	00000000 	nop
    7990:	3c100102 	lui	s0,0x102
    7994:	08001e79 	j	79e4 <n37_j_test+0x79e4>
    7998:	36101bfa 	ori	s0,s0,0x1bfa
    799c:	10000013 	b	79ec <n37_j_test+0x79ec>
    79a0:	00000000 	nop
    79a4:	00000000 	nop
    79a8:	00000021 	move	zero,zero
    79ac:	00000021 	move	zero,zero
    79b0:	00000021 	move	zero,zero
    79b4:	08001e64 	j	7990 <n37_j_test+0x7990>
    79b8:	00000000 	nop
    79bc:	1000000b 	b	79ec <n37_j_test+0x79ec>
    79c0:	00000000 	nop
    79c4:	00000000 	nop
    79c8:	00000021 	move	zero,zero
    79cc:	00000021 	move	zero,zero
    79d0:	00000021 	move	zero,zero
    79d4:	00000021 	move	zero,zero
    79d8:	00000021 	move	zero,zero
    79dc:	00000021 	move	zero,zero
    79e0:	00000021 	move	zero,zero
    79e4:	3c126134 	lui	s2,0x6134
    79e8:	36528c20 	ori	s2,s2,0x8c20
    79ec:	00000000 	nop
    79f0:	3c140102 	lui	s4,0x102
    79f4:	36941bfa 	ori	s4,s4,0x1bfa
    79f8:	16140256 	bne	s0,s4,8354 <inst_error>
    79fc:	00000000 	nop
    7a00:	00000000 	nop
    7a04:	3c156134 	lui	s5,0x6134
    7a08:	36b58c20 	ori	s5,s5,0x8c20
    7a0c:	16550251 	bne	s2,s5,8354 <inst_error>
    7a10:	00000000 	nop
    7a14:	00000000 	nop
    7a18:	3c0cfb20 	lui	t4,0xfb20
    7a1c:	358c5d30 	ori	t4,t4,0x5d30
    7a20:	3c0de42e 	lui	t5,0xe42e
    7a24:	35ad10f2 	ori	t5,t5,0x10f2
    7a28:	24100000 	li	s0,0
    7a2c:	1000000b 	b	7a5c <n37_j_test+0x7a5c>
    7a30:	24120000 	li	s2,0
    7a34:	00000000 	nop
    7a38:	3c10fb20 	lui	s0,0xfb20
    7a3c:	08001ea3 	j	7a8c <n37_j_test+0x7a8c>
    7a40:	36105d30 	ori	s0,s0,0x5d30
    7a44:	10000013 	b	7a94 <n37_j_test+0x7a94>
    7a48:	00000000 	nop
    7a4c:	00000000 	nop
    7a50:	00000021 	move	zero,zero
    7a54:	00000021 	move	zero,zero
    7a58:	00000021 	move	zero,zero
    7a5c:	08001e8e 	j	7a38 <n37_j_test+0x7a38>
    7a60:	00000000 	nop
    7a64:	1000000b 	b	7a94 <n37_j_test+0x7a94>
    7a68:	00000000 	nop
    7a6c:	00000000 	nop
    7a70:	00000021 	move	zero,zero
    7a74:	00000021 	move	zero,zero
    7a78:	00000021 	move	zero,zero
    7a7c:	00000021 	move	zero,zero
    7a80:	00000021 	move	zero,zero
    7a84:	00000021 	move	zero,zero
    7a88:	00000021 	move	zero,zero
    7a8c:	3c12e42e 	lui	s2,0xe42e
    7a90:	365210f2 	ori	s2,s2,0x10f2
    7a94:	00000000 	nop
    7a98:	3c14fb20 	lui	s4,0xfb20
    7a9c:	36945d30 	ori	s4,s4,0x5d30
    7aa0:	1614022c 	bne	s0,s4,8354 <inst_error>
    7aa4:	00000000 	nop
    7aa8:	00000000 	nop
    7aac:	3c15e42e 	lui	s5,0xe42e
    7ab0:	36b510f2 	ori	s5,s5,0x10f2
    7ab4:	16550227 	bne	s2,s5,8354 <inst_error>
    7ab8:	00000000 	nop
    7abc:	00000000 	nop
    7ac0:	3c0c7de4 	lui	t4,0x7de4
    7ac4:	358cd7ee 	ori	t4,t4,0xd7ee
    7ac8:	3c0d6a84 	lui	t5,0x6a84
    7acc:	35ad5adc 	ori	t5,t5,0x5adc
    7ad0:	24100000 	li	s0,0
    7ad4:	1000000b 	b	7b04 <n37_j_test+0x7b04>
    7ad8:	24120000 	li	s2,0
    7adc:	00000000 	nop
    7ae0:	3c107de4 	lui	s0,0x7de4
    7ae4:	08001ecd 	j	7b34 <n37_j_test+0x7b34>
    7ae8:	3610d7ee 	ori	s0,s0,0xd7ee
    7aec:	10000013 	b	7b3c <n37_j_test+0x7b3c>
    7af0:	00000000 	nop
    7af4:	00000000 	nop
    7af8:	00000021 	move	zero,zero
    7afc:	00000021 	move	zero,zero
    7b00:	00000021 	move	zero,zero
    7b04:	08001eb8 	j	7ae0 <n37_j_test+0x7ae0>
    7b08:	00000000 	nop
    7b0c:	1000000b 	b	7b3c <n37_j_test+0x7b3c>
    7b10:	00000000 	nop
    7b14:	00000000 	nop
    7b18:	00000021 	move	zero,zero
    7b1c:	00000021 	move	zero,zero
    7b20:	00000021 	move	zero,zero
    7b24:	00000021 	move	zero,zero
    7b28:	00000021 	move	zero,zero
    7b2c:	00000021 	move	zero,zero
    7b30:	00000021 	move	zero,zero
    7b34:	3c126a84 	lui	s2,0x6a84
    7b38:	36525adc 	ori	s2,s2,0x5adc
    7b3c:	00000000 	nop
    7b40:	3c147de4 	lui	s4,0x7de4
    7b44:	3694d7ee 	ori	s4,s4,0xd7ee
    7b48:	16140202 	bne	s0,s4,8354 <inst_error>
    7b4c:	00000000 	nop
    7b50:	00000000 	nop
    7b54:	3c156a84 	lui	s5,0x6a84
    7b58:	36b55adc 	ori	s5,s5,0x5adc
    7b5c:	165501fd 	bne	s2,s5,8354 <inst_error>
    7b60:	00000000 	nop
    7b64:	00000000 	nop
    7b68:	3c0ce85f 	lui	t4,0xe85f
    7b6c:	358cbe40 	ori	t4,t4,0xbe40
    7b70:	3c0dd008 	lui	t5,0xd008
    7b74:	35ad9c1c 	ori	t5,t5,0x9c1c
    7b78:	24100000 	li	s0,0
    7b7c:	1000000b 	b	7bac <n37_j_test+0x7bac>
    7b80:	24120000 	li	s2,0
    7b84:	00000000 	nop
    7b88:	3c10e85f 	lui	s0,0xe85f
    7b8c:	08001ef7 	j	7bdc <n37_j_test+0x7bdc>
    7b90:	3610be40 	ori	s0,s0,0xbe40
    7b94:	10000013 	b	7be4 <n37_j_test+0x7be4>
    7b98:	00000000 	nop
    7b9c:	00000000 	nop
    7ba0:	00000021 	move	zero,zero
    7ba4:	00000021 	move	zero,zero
    7ba8:	00000021 	move	zero,zero
    7bac:	08001ee2 	j	7b88 <n37_j_test+0x7b88>
    7bb0:	00000000 	nop
    7bb4:	1000000b 	b	7be4 <n37_j_test+0x7be4>
    7bb8:	00000000 	nop
    7bbc:	00000000 	nop
    7bc0:	00000021 	move	zero,zero
    7bc4:	00000021 	move	zero,zero
    7bc8:	00000021 	move	zero,zero
    7bcc:	00000021 	move	zero,zero
    7bd0:	00000021 	move	zero,zero
    7bd4:	00000021 	move	zero,zero
    7bd8:	00000021 	move	zero,zero
    7bdc:	3c12d008 	lui	s2,0xd008
    7be0:	36529c1c 	ori	s2,s2,0x9c1c
    7be4:	00000000 	nop
    7be8:	3c14e85f 	lui	s4,0xe85f
    7bec:	3694be40 	ori	s4,s4,0xbe40
    7bf0:	161401d8 	bne	s0,s4,8354 <inst_error>
    7bf4:	00000000 	nop
    7bf8:	00000000 	nop
    7bfc:	3c15d008 	lui	s5,0xd008
    7c00:	36b59c1c 	ori	s5,s5,0x9c1c
    7c04:	165501d3 	bne	s2,s5,8354 <inst_error>
    7c08:	00000000 	nop
    7c0c:	00000000 	nop
    7c10:	3c0c5cc6 	lui	t4,0x5cc6
    7c14:	358c3d8f 	ori	t4,t4,0x3d8f
    7c18:	3c0d59dd 	lui	t5,0x59dd
    7c1c:	35adec46 	ori	t5,t5,0xec46
    7c20:	24100000 	li	s0,0
    7c24:	1000000b 	b	7c54 <n37_j_test+0x7c54>
    7c28:	24120000 	li	s2,0
    7c2c:	00000000 	nop
    7c30:	3c105cc6 	lui	s0,0x5cc6
    7c34:	08001f21 	j	7c84 <n37_j_test+0x7c84>
    7c38:	36103d8f 	ori	s0,s0,0x3d8f
    7c3c:	10000013 	b	7c8c <n37_j_test+0x7c8c>
    7c40:	00000000 	nop
    7c44:	00000000 	nop
    7c48:	00000021 	move	zero,zero
    7c4c:	00000021 	move	zero,zero
    7c50:	00000021 	move	zero,zero
    7c54:	08001f0c 	j	7c30 <n37_j_test+0x7c30>
    7c58:	00000000 	nop
    7c5c:	1000000b 	b	7c8c <n37_j_test+0x7c8c>
    7c60:	00000000 	nop
    7c64:	00000000 	nop
    7c68:	00000021 	move	zero,zero
    7c6c:	00000021 	move	zero,zero
    7c70:	00000021 	move	zero,zero
    7c74:	00000021 	move	zero,zero
    7c78:	00000021 	move	zero,zero
    7c7c:	00000021 	move	zero,zero
    7c80:	00000021 	move	zero,zero
    7c84:	3c1259dd 	lui	s2,0x59dd
    7c88:	3652ec46 	ori	s2,s2,0xec46
    7c8c:	00000000 	nop
    7c90:	3c145cc6 	lui	s4,0x5cc6
    7c94:	36943d8f 	ori	s4,s4,0x3d8f
    7c98:	161401ae 	bne	s0,s4,8354 <inst_error>
    7c9c:	00000000 	nop
    7ca0:	00000000 	nop
    7ca4:	3c1559dd 	lui	s5,0x59dd
    7ca8:	36b5ec46 	ori	s5,s5,0xec46
    7cac:	165501a9 	bne	s2,s5,8354 <inst_error>
    7cb0:	00000000 	nop
    7cb4:	00000000 	nop
    7cb8:	3c0c4247 	lui	t4,0x4247
    7cbc:	358c9810 	ori	t4,t4,0x9810
    7cc0:	3c0d335c 	lui	t5,0x335c
    7cc4:	35ad1280 	ori	t5,t5,0x1280
    7cc8:	24100000 	li	s0,0
    7ccc:	1000000b 	b	7cfc <n37_j_test+0x7cfc>
    7cd0:	24120000 	li	s2,0
    7cd4:	00000000 	nop
    7cd8:	3c104247 	lui	s0,0x4247
    7cdc:	08001f4b 	j	7d2c <n37_j_test+0x7d2c>
    7ce0:	36109810 	ori	s0,s0,0x9810
    7ce4:	10000013 	b	7d34 <n37_j_test+0x7d34>
    7ce8:	00000000 	nop
    7cec:	00000000 	nop
    7cf0:	00000021 	move	zero,zero
    7cf4:	00000021 	move	zero,zero
    7cf8:	00000021 	move	zero,zero
    7cfc:	08001f36 	j	7cd8 <n37_j_test+0x7cd8>
    7d00:	00000000 	nop
    7d04:	1000000b 	b	7d34 <n37_j_test+0x7d34>
    7d08:	00000000 	nop
    7d0c:	00000000 	nop
    7d10:	00000021 	move	zero,zero
    7d14:	00000021 	move	zero,zero
    7d18:	00000021 	move	zero,zero
    7d1c:	00000021 	move	zero,zero
    7d20:	00000021 	move	zero,zero
    7d24:	00000021 	move	zero,zero
    7d28:	00000021 	move	zero,zero
    7d2c:	3c12335c 	lui	s2,0x335c
    7d30:	36521280 	ori	s2,s2,0x1280
    7d34:	00000000 	nop
    7d38:	3c144247 	lui	s4,0x4247
    7d3c:	36949810 	ori	s4,s4,0x9810
    7d40:	16140184 	bne	s0,s4,8354 <inst_error>
    7d44:	00000000 	nop
    7d48:	00000000 	nop
    7d4c:	3c15335c 	lui	s5,0x335c
    7d50:	36b51280 	ori	s5,s5,0x1280
    7d54:	1655017f 	bne	s2,s5,8354 <inst_error>
    7d58:	00000000 	nop
    7d5c:	00000000 	nop
    7d60:	3c0cd819 	lui	t4,0xd819
    7d64:	358c49c0 	ori	t4,t4,0x49c0
    7d68:	3c0de6b6 	lui	t5,0xe6b6
    7d6c:	35adc9a0 	ori	t5,t5,0xc9a0
    7d70:	24100000 	li	s0,0
    7d74:	1000000b 	b	7da4 <n37_j_test+0x7da4>
    7d78:	24120000 	li	s2,0
    7d7c:	00000000 	nop
    7d80:	3c10d819 	lui	s0,0xd819
    7d84:	08001f75 	j	7dd4 <n37_j_test+0x7dd4>
    7d88:	361049c0 	ori	s0,s0,0x49c0
    7d8c:	10000013 	b	7ddc <n37_j_test+0x7ddc>
    7d90:	00000000 	nop
    7d94:	00000000 	nop
    7d98:	00000021 	move	zero,zero
    7d9c:	00000021 	move	zero,zero
    7da0:	00000021 	move	zero,zero
    7da4:	08001f60 	j	7d80 <n37_j_test+0x7d80>
    7da8:	00000000 	nop
    7dac:	1000000b 	b	7ddc <n37_j_test+0x7ddc>
    7db0:	00000000 	nop
    7db4:	00000000 	nop
    7db8:	00000021 	move	zero,zero
    7dbc:	00000021 	move	zero,zero
    7dc0:	00000021 	move	zero,zero
    7dc4:	00000021 	move	zero,zero
    7dc8:	00000021 	move	zero,zero
    7dcc:	00000021 	move	zero,zero
    7dd0:	00000021 	move	zero,zero
    7dd4:	3c12e6b6 	lui	s2,0xe6b6
    7dd8:	3652c9a0 	ori	s2,s2,0xc9a0
    7ddc:	00000000 	nop
    7de0:	3c14d819 	lui	s4,0xd819
    7de4:	369449c0 	ori	s4,s4,0x49c0
    7de8:	1614015a 	bne	s0,s4,8354 <inst_error>
    7dec:	00000000 	nop
    7df0:	00000000 	nop
    7df4:	3c15e6b6 	lui	s5,0xe6b6
    7df8:	36b5c9a0 	ori	s5,s5,0xc9a0
    7dfc:	16550155 	bne	s2,s5,8354 <inst_error>
    7e00:	00000000 	nop
    7e04:	00000000 	nop
    7e08:	3c0cc49c 	lui	t4,0xc49c
    7e0c:	358c14c8 	ori	t4,t4,0x14c8
    7e10:	3c0db602 	lui	t5,0xb602
    7e14:	35ad50e0 	ori	t5,t5,0x50e0
    7e18:	24100000 	li	s0,0
    7e1c:	1000000b 	b	7e4c <n37_j_test+0x7e4c>
    7e20:	24120000 	li	s2,0
    7e24:	00000000 	nop
    7e28:	3c10c49c 	lui	s0,0xc49c
    7e2c:	08001f9f 	j	7e7c <n37_j_test+0x7e7c>
    7e30:	361014c8 	ori	s0,s0,0x14c8
    7e34:	10000013 	b	7e84 <n37_j_test+0x7e84>
    7e38:	00000000 	nop
    7e3c:	00000000 	nop
    7e40:	00000021 	move	zero,zero
    7e44:	00000021 	move	zero,zero
    7e48:	00000021 	move	zero,zero
    7e4c:	08001f8a 	j	7e28 <n37_j_test+0x7e28>
    7e50:	00000000 	nop
    7e54:	1000000b 	b	7e84 <n37_j_test+0x7e84>
    7e58:	00000000 	nop
    7e5c:	00000000 	nop
    7e60:	00000021 	move	zero,zero
    7e64:	00000021 	move	zero,zero
    7e68:	00000021 	move	zero,zero
    7e6c:	00000021 	move	zero,zero
    7e70:	00000021 	move	zero,zero
    7e74:	00000021 	move	zero,zero
    7e78:	00000021 	move	zero,zero
    7e7c:	3c12b602 	lui	s2,0xb602
    7e80:	365250e0 	ori	s2,s2,0x50e0
    7e84:	00000000 	nop
    7e88:	3c14c49c 	lui	s4,0xc49c
    7e8c:	369414c8 	ori	s4,s4,0x14c8
    7e90:	16140130 	bne	s0,s4,8354 <inst_error>
    7e94:	00000000 	nop
    7e98:	00000000 	nop
    7e9c:	3c15b602 	lui	s5,0xb602
    7ea0:	36b550e0 	ori	s5,s5,0x50e0
    7ea4:	1655012b 	bne	s2,s5,8354 <inst_error>
    7ea8:	00000000 	nop
    7eac:	00000000 	nop
    7eb0:	3c0c02b2 	lui	t4,0x2b2
    7eb4:	358c95e0 	ori	t4,t4,0x95e0
    7eb8:	3c0d4424 	lui	t5,0x4424
    7ebc:	35ad30f0 	ori	t5,t5,0x30f0
    7ec0:	24100000 	li	s0,0
    7ec4:	1000000b 	b	7ef4 <n37_j_test+0x7ef4>
    7ec8:	24120000 	li	s2,0
    7ecc:	00000000 	nop
    7ed0:	3c1002b2 	lui	s0,0x2b2
    7ed4:	08001fc9 	j	7f24 <n37_j_test+0x7f24>
    7ed8:	361095e0 	ori	s0,s0,0x95e0
    7edc:	10000013 	b	7f2c <n37_j_test+0x7f2c>
    7ee0:	00000000 	nop
    7ee4:	00000000 	nop
    7ee8:	00000021 	move	zero,zero
    7eec:	00000021 	move	zero,zero
    7ef0:	00000021 	move	zero,zero
    7ef4:	08001fb4 	j	7ed0 <n37_j_test+0x7ed0>
    7ef8:	00000000 	nop
    7efc:	1000000b 	b	7f2c <n37_j_test+0x7f2c>
    7f00:	00000000 	nop
    7f04:	00000000 	nop
    7f08:	00000021 	move	zero,zero
    7f0c:	00000021 	move	zero,zero
    7f10:	00000021 	move	zero,zero
    7f14:	00000021 	move	zero,zero
    7f18:	00000021 	move	zero,zero
    7f1c:	00000021 	move	zero,zero
    7f20:	00000021 	move	zero,zero
    7f24:	3c124424 	lui	s2,0x4424
    7f28:	365230f0 	ori	s2,s2,0x30f0
    7f2c:	00000000 	nop
    7f30:	3c1402b2 	lui	s4,0x2b2
    7f34:	369495e0 	ori	s4,s4,0x95e0
    7f38:	16140106 	bne	s0,s4,8354 <inst_error>
    7f3c:	00000000 	nop
    7f40:	00000000 	nop
    7f44:	3c154424 	lui	s5,0x4424
    7f48:	36b530f0 	ori	s5,s5,0x30f0
    7f4c:	16550101 	bne	s2,s5,8354 <inst_error>
    7f50:	00000000 	nop
    7f54:	00000000 	nop
    7f58:	3c0c3ee9 	lui	t4,0x3ee9
    7f5c:	358cf35c 	ori	t4,t4,0xf35c
    7f60:	3c0d2ac4 	lui	t5,0x2ac4
    7f64:	35add9cc 	ori	t5,t5,0xd9cc
    7f68:	24100000 	li	s0,0
    7f6c:	1000000b 	b	7f9c <n37_j_test+0x7f9c>
    7f70:	24120000 	li	s2,0
    7f74:	00000000 	nop
    7f78:	3c103ee9 	lui	s0,0x3ee9
    7f7c:	08001ff3 	j	7fcc <n37_j_test+0x7fcc>
    7f80:	3610f35c 	ori	s0,s0,0xf35c
    7f84:	10000013 	b	7fd4 <n37_j_test+0x7fd4>
    7f88:	00000000 	nop
    7f8c:	00000000 	nop
    7f90:	00000021 	move	zero,zero
    7f94:	00000021 	move	zero,zero
    7f98:	00000021 	move	zero,zero
    7f9c:	08001fde 	j	7f78 <n37_j_test+0x7f78>
    7fa0:	00000000 	nop
    7fa4:	1000000b 	b	7fd4 <n37_j_test+0x7fd4>
    7fa8:	00000000 	nop
    7fac:	00000000 	nop
    7fb0:	00000021 	move	zero,zero
    7fb4:	00000021 	move	zero,zero
    7fb8:	00000021 	move	zero,zero
    7fbc:	00000021 	move	zero,zero
    7fc0:	00000021 	move	zero,zero
    7fc4:	00000021 	move	zero,zero
    7fc8:	00000021 	move	zero,zero
    7fcc:	3c122ac4 	lui	s2,0x2ac4
    7fd0:	3652d9cc 	ori	s2,s2,0xd9cc
    7fd4:	00000000 	nop
    7fd8:	3c143ee9 	lui	s4,0x3ee9
    7fdc:	3694f35c 	ori	s4,s4,0xf35c
    7fe0:	161400dc 	bne	s0,s4,8354 <inst_error>
    7fe4:	00000000 	nop
    7fe8:	00000000 	nop
    7fec:	3c152ac4 	lui	s5,0x2ac4
    7ff0:	36b5d9cc 	ori	s5,s5,0xd9cc
    7ff4:	165500d7 	bne	s2,s5,8354 <inst_error>
    7ff8:	00000000 	nop
    7ffc:	00000000 	nop
    8000:	3c0ca53d 	lui	t4,0xa53d
    8004:	358c5f40 	ori	t4,t4,0x5f40
    8008:	3c0d5e99 	lui	t5,0x5e99
    800c:	35ad7488 	ori	t5,t5,0x7488
    8010:	24100000 	li	s0,0
    8014:	1000000b 	b	8044 <n37_j_test+0x8044>
    8018:	24120000 	li	s2,0
    801c:	00000000 	nop
    8020:	3c10a53d 	lui	s0,0xa53d
    8024:	0800201d 	j	8074 <n37_j_test+0x8074>
    8028:	36105f40 	ori	s0,s0,0x5f40
    802c:	10000013 	b	807c <n37_j_test+0x807c>
    8030:	00000000 	nop
    8034:	00000000 	nop
    8038:	00000021 	move	zero,zero
    803c:	00000021 	move	zero,zero
    8040:	00000021 	move	zero,zero
    8044:	08002008 	j	8020 <n37_j_test+0x8020>
    8048:	00000000 	nop
    804c:	1000000b 	b	807c <n37_j_test+0x807c>
    8050:	00000000 	nop
    8054:	00000000 	nop
    8058:	00000021 	move	zero,zero
    805c:	00000021 	move	zero,zero
    8060:	00000021 	move	zero,zero
    8064:	00000021 	move	zero,zero
    8068:	00000021 	move	zero,zero
    806c:	00000021 	move	zero,zero
    8070:	00000021 	move	zero,zero
    8074:	3c125e99 	lui	s2,0x5e99
    8078:	36527488 	ori	s2,s2,0x7488
    807c:	00000000 	nop
    8080:	3c14a53d 	lui	s4,0xa53d
    8084:	36945f40 	ori	s4,s4,0x5f40
    8088:	161400b2 	bne	s0,s4,8354 <inst_error>
    808c:	00000000 	nop
    8090:	00000000 	nop
    8094:	3c155e99 	lui	s5,0x5e99
    8098:	36b57488 	ori	s5,s5,0x7488
    809c:	165500ad 	bne	s2,s5,8354 <inst_error>
    80a0:	00000000 	nop
    80a4:	00000000 	nop
    80a8:	3c0c442a 	lui	t4,0x442a
    80ac:	358cb5dd 	ori	t4,t4,0xb5dd
    80b0:	3c0dc36f 	lui	t5,0xc36f
    80b4:	35ad026b 	ori	t5,t5,0x26b
    80b8:	24100000 	li	s0,0
    80bc:	1000000b 	b	80ec <n37_j_test+0x80ec>
    80c0:	24120000 	li	s2,0
    80c4:	00000000 	nop
    80c8:	3c10442a 	lui	s0,0x442a
    80cc:	08002047 	j	811c <n37_j_test+0x811c>
    80d0:	3610b5dd 	ori	s0,s0,0xb5dd
    80d4:	10000013 	b	8124 <n37_j_test+0x8124>
    80d8:	00000000 	nop
    80dc:	00000000 	nop
    80e0:	00000021 	move	zero,zero
    80e4:	00000021 	move	zero,zero
    80e8:	00000021 	move	zero,zero
    80ec:	08002032 	j	80c8 <n37_j_test+0x80c8>
    80f0:	00000000 	nop
    80f4:	1000000b 	b	8124 <n37_j_test+0x8124>
    80f8:	00000000 	nop
    80fc:	00000000 	nop
    8100:	00000021 	move	zero,zero
    8104:	00000021 	move	zero,zero
    8108:	00000021 	move	zero,zero
    810c:	00000021 	move	zero,zero
    8110:	00000021 	move	zero,zero
    8114:	00000021 	move	zero,zero
    8118:	00000021 	move	zero,zero
    811c:	3c12c36f 	lui	s2,0xc36f
    8120:	3652026b 	ori	s2,s2,0x26b
    8124:	00000000 	nop
    8128:	3c14442a 	lui	s4,0x442a
    812c:	3694b5dd 	ori	s4,s4,0xb5dd
    8130:	16140088 	bne	s0,s4,8354 <inst_error>
    8134:	00000000 	nop
    8138:	00000000 	nop
    813c:	3c15c36f 	lui	s5,0xc36f
    8140:	36b5026b 	ori	s5,s5,0x26b
    8144:	16550083 	bne	s2,s5,8354 <inst_error>
    8148:	00000000 	nop
    814c:	00000000 	nop
    8150:	3c0c3322 	lui	t4,0x3322
    8154:	358cfda8 	ori	t4,t4,0xfda8
    8158:	3c0d9400 	lui	t5,0x9400
    815c:	35adf0a0 	ori	t5,t5,0xf0a0
    8160:	24100000 	li	s0,0
    8164:	1000000b 	b	8194 <n37_j_test+0x8194>
    8168:	24120000 	li	s2,0
    816c:	00000000 	nop
    8170:	3c103322 	lui	s0,0x3322
    8174:	08002071 	j	81c4 <n37_j_test+0x81c4>
    8178:	3610fda8 	ori	s0,s0,0xfda8
    817c:	10000013 	b	81cc <n37_j_test+0x81cc>
    8180:	00000000 	nop
    8184:	00000000 	nop
    8188:	00000021 	move	zero,zero
    818c:	00000021 	move	zero,zero
    8190:	00000021 	move	zero,zero
    8194:	0800205c 	j	8170 <n37_j_test+0x8170>
    8198:	00000000 	nop
    819c:	1000000b 	b	81cc <n37_j_test+0x81cc>
    81a0:	00000000 	nop
    81a4:	00000000 	nop
    81a8:	00000021 	move	zero,zero
    81ac:	00000021 	move	zero,zero
    81b0:	00000021 	move	zero,zero
    81b4:	00000021 	move	zero,zero
    81b8:	00000021 	move	zero,zero
    81bc:	00000021 	move	zero,zero
    81c0:	00000021 	move	zero,zero
    81c4:	3c129400 	lui	s2,0x9400
    81c8:	3652f0a0 	ori	s2,s2,0xf0a0
    81cc:	00000000 	nop
    81d0:	3c143322 	lui	s4,0x3322
    81d4:	3694fda8 	ori	s4,s4,0xfda8
    81d8:	1614005e 	bne	s0,s4,8354 <inst_error>
    81dc:	00000000 	nop
    81e0:	00000000 	nop
    81e4:	3c159400 	lui	s5,0x9400
    81e8:	36b5f0a0 	ori	s5,s5,0xf0a0
    81ec:	16550059 	bne	s2,s5,8354 <inst_error>
    81f0:	00000000 	nop
    81f4:	00000000 	nop
    81f8:	3c0cd0e2 	lui	t4,0xd0e2
    81fc:	358c5fc8 	ori	t4,t4,0x5fc8
    8200:	3c0d34a6 	lui	t5,0x34a6
    8204:	35adc1ec 	ori	t5,t5,0xc1ec
    8208:	24100000 	li	s0,0
    820c:	1000000b 	b	823c <n37_j_test+0x823c>
    8210:	24120000 	li	s2,0
    8214:	00000000 	nop
    8218:	3c10d0e2 	lui	s0,0xd0e2
    821c:	0800209b 	j	826c <n37_j_test+0x826c>
    8220:	36105fc8 	ori	s0,s0,0x5fc8
    8224:	10000013 	b	8274 <n37_j_test+0x8274>
    8228:	00000000 	nop
    822c:	00000000 	nop
    8230:	00000021 	move	zero,zero
    8234:	00000021 	move	zero,zero
    8238:	00000021 	move	zero,zero
    823c:	08002086 	j	8218 <n37_j_test+0x8218>
    8240:	00000000 	nop
    8244:	1000000b 	b	8274 <n37_j_test+0x8274>
    8248:	00000000 	nop
    824c:	00000000 	nop
    8250:	00000021 	move	zero,zero
    8254:	00000021 	move	zero,zero
    8258:	00000021 	move	zero,zero
    825c:	00000021 	move	zero,zero
    8260:	00000021 	move	zero,zero
    8264:	00000021 	move	zero,zero
    8268:	00000021 	move	zero,zero
    826c:	3c1234a6 	lui	s2,0x34a6
    8270:	3652c1ec 	ori	s2,s2,0xc1ec
    8274:	00000000 	nop
    8278:	3c14d0e2 	lui	s4,0xd0e2
    827c:	36945fc8 	ori	s4,s4,0x5fc8
    8280:	16140034 	bne	s0,s4,8354 <inst_error>
    8284:	00000000 	nop
    8288:	00000000 	nop
    828c:	3c1534a6 	lui	s5,0x34a6
    8290:	36b5c1ec 	ori	s5,s5,0xc1ec
    8294:	1655002f 	bne	s2,s5,8354 <inst_error>
    8298:	00000000 	nop
    829c:	00000000 	nop
    82a0:	3c0c7b07 	lui	t4,0x7b07
    82a4:	358cc5ea 	ori	t4,t4,0xc5ea
    82a8:	3c0d22f0 	lui	t5,0x22f0
    82ac:	35adcf9c 	ori	t5,t5,0xcf9c
    82b0:	24100000 	li	s0,0
    82b4:	1000000b 	b	82e4 <n37_j_test+0x82e4>
    82b8:	24120000 	li	s2,0
    82bc:	00000000 	nop
    82c0:	3c107b07 	lui	s0,0x7b07
    82c4:	080020c5 	j	8314 <n37_j_test+0x8314>
    82c8:	3610c5ea 	ori	s0,s0,0xc5ea
    82cc:	10000013 	b	831c <n37_j_test+0x831c>
    82d0:	00000000 	nop
    82d4:	00000000 	nop
    82d8:	00000021 	move	zero,zero
    82dc:	00000021 	move	zero,zero
    82e0:	00000021 	move	zero,zero
    82e4:	080020b0 	j	82c0 <n37_j_test+0x82c0>
    82e8:	00000000 	nop
    82ec:	1000000b 	b	831c <n37_j_test+0x831c>
    82f0:	00000000 	nop
    82f4:	00000000 	nop
    82f8:	00000021 	move	zero,zero
    82fc:	00000021 	move	zero,zero
    8300:	00000021 	move	zero,zero
    8304:	00000021 	move	zero,zero
    8308:	00000021 	move	zero,zero
    830c:	00000021 	move	zero,zero
    8310:	00000021 	move	zero,zero
    8314:	3c1222f0 	lui	s2,0x22f0
    8318:	3652cf9c 	ori	s2,s2,0xcf9c
    831c:	00000000 	nop
    8320:	3c147b07 	lui	s4,0x7b07
    8324:	3694c5ea 	ori	s4,s4,0xc5ea
    8328:	1614000a 	bne	s0,s4,8354 <inst_error>
    832c:	00000000 	nop
    8330:	00000000 	nop
    8334:	3c1522f0 	lui	s5,0x22f0
    8338:	36b5cf9c 	ori	s5,s5,0xcf9c
    833c:	16550005 	bne	s2,s5,8354 <inst_error>
    8340:	00000000 	nop
    8344:	14400003 	bnez	v0,8354 <inst_error>
    8348:	00000000 	nop
    834c:	00000000 	nop
    8350:	26730001 	addiu	s3,s3,1

00008354 <inst_error>:
    8354:	00934025 	or	t0,a0,s3
    8358:	03e00008 	jr	ra
    835c:	ae280000 	sw	t0,0(s1)
