00000000 <n38_jal_test>:
       0:	3c042600 	lui	a0,0x2600
       4:	24020000 	li	v0,0
       8:	001fb021 	addu	s6,zero,ra
       c:	3c0c8c3e 	lui	t4,0x8c3e
      10:	358c1efa 	ori	t4,t4,0x1efa
      14:	3c0deb2b 	lui	t5,0xeb2b
      18:	35add57c 	ori	t5,t5,0xd57c
      1c:	24100000 	li	s0,0
      20:	1000000d 	b	58 <n38_jal_test+0x58>
      24:	24120000 	li	s2,0
      28:	00000000 	nop
      2c:	3c108c3e 	lui	s0,0x8c3e
      30:	36101efa 	ori	s0,s0,0x1efa
      34:	0c00001c 	jal	70 <n38_jal_test+0x70>
      38:	00000000 	nop
      3c:	1000000e 	b	78 <n38_jal_test+0x78>
      40:	00000000 	nop
      44:	00000000 	nop
      48:	00000021 	move	zero,zero
      4c:	00000021 	move	zero,zero
      50:	00000021 	move	zero,zero
      54:	00000021 	move	zero,zero
      58:	0c00000b 	jal	2c <n38_jal_test+0x2c>
      5c:	00000000 	nop
      60:	10000005 	b	78 <n38_jal_test+0x78>
      64:	00000000 	nop
      68:	00000000 	nop
      6c:	00000021 	move	zero,zero
      70:	3c12eb2b 	lui	s2,0xeb2b
      74:	3652d57c 	ori	s2,s2,0xd57c
      78:	001fa021 	addu	s4,zero,ra
      7c:	0016f821 	addu	ra,zero,s6
      80:	3c150000 	lui	s5,0x0
      84:	26b50034 	addiu	s5,s5,52
      88:	3c0d8c3e 	lui	t5,0x8c3e
      8c:	35ad1efa 	ori	t5,t5,0x1efa
      90:	160d23d0 	bne	s0,t5,8fd4 <inst_error>
      94:	00000000 	nop
      98:	00000000 	nop
      9c:	3c0ceb2b 	lui	t4,0xeb2b
      a0:	358cd57c 	ori	t4,t4,0xd57c
      a4:	164c23cb 	bne	s2,t4,8fd4 <inst_error>
      a8:	00000000 	nop
      ac:	00000000 	nop
      b0:	26b50008 	addiu	s5,s5,8
      b4:	169523c7 	bne	s4,s5,8fd4 <inst_error>
      b8:	00000000 	nop
      bc:	00000000 	nop
      c0:	001fb021 	addu	s6,zero,ra
      c4:	3c0cfbc1 	lui	t4,0xfbc1
      c8:	358cf5d0 	ori	t4,t4,0xf5d0
      cc:	3c0db91b 	lui	t5,0xb91b
      d0:	35adc0b0 	ori	t5,t5,0xc0b0
      d4:	24100000 	li	s0,0
      d8:	1000000d 	b	110 <n38_jal_test+0x110>
      dc:	24120000 	li	s2,0
      e0:	00000000 	nop
      e4:	3c10fbc1 	lui	s0,0xfbc1
      e8:	3610f5d0 	ori	s0,s0,0xf5d0
      ec:	0c00004a 	jal	128 <n38_jal_test+0x128>
      f0:	00000000 	nop
      f4:	1000000e 	b	130 <n38_jal_test+0x130>
      f8:	00000000 	nop
      fc:	00000000 	nop
     100:	00000021 	move	zero,zero
     104:	00000021 	move	zero,zero
     108:	00000021 	move	zero,zero
     10c:	00000021 	move	zero,zero
     110:	0c000039 	jal	e4 <n38_jal_test+0xe4>
     114:	00000000 	nop
     118:	10000005 	b	130 <n38_jal_test+0x130>
     11c:	00000000 	nop
     120:	00000000 	nop
     124:	00000021 	move	zero,zero
     128:	3c12b91b 	lui	s2,0xb91b
     12c:	3652c0b0 	ori	s2,s2,0xc0b0
     130:	001fa021 	addu	s4,zero,ra
     134:	0016f821 	addu	ra,zero,s6
     138:	3c150000 	lui	s5,0x0
     13c:	26b500ec 	addiu	s5,s5,236
     140:	3c0dfbc1 	lui	t5,0xfbc1
     144:	35adf5d0 	ori	t5,t5,0xf5d0
     148:	160d23a2 	bne	s0,t5,8fd4 <inst_error>
     14c:	00000000 	nop
     150:	00000000 	nop
     154:	3c0cb91b 	lui	t4,0xb91b
     158:	358cc0b0 	ori	t4,t4,0xc0b0
     15c:	164c239d 	bne	s2,t4,8fd4 <inst_error>
     160:	00000000 	nop
     164:	00000000 	nop
     168:	26b50008 	addiu	s5,s5,8
     16c:	16952399 	bne	s4,s5,8fd4 <inst_error>
     170:	00000000 	nop
     174:	00000000 	nop
     178:	001fb021 	addu	s6,zero,ra
     17c:	3c0cc106 	lui	t4,0xc106
     180:	358c2356 	ori	t4,t4,0x2356
     184:	3c0df8d6 	lui	t5,0xf8d6
     188:	35ad0c60 	ori	t5,t5,0xc60
     18c:	24100000 	li	s0,0
     190:	1000000d 	b	1c8 <n38_jal_test+0x1c8>
     194:	24120000 	li	s2,0
     198:	00000000 	nop
     19c:	3c10c106 	lui	s0,0xc106
     1a0:	36102356 	ori	s0,s0,0x2356
     1a4:	0c000078 	jal	1e0 <n38_jal_test+0x1e0>
     1a8:	00000000 	nop
     1ac:	1000000e 	b	1e8 <n38_jal_test+0x1e8>
     1b0:	00000000 	nop
     1b4:	00000000 	nop
     1b8:	00000021 	move	zero,zero
     1bc:	00000021 	move	zero,zero
     1c0:	00000021 	move	zero,zero
     1c4:	00000021 	move	zero,zero
     1c8:	0c000067 	jal	19c <n38_jal_test+0x19c>
     1cc:	00000000 	nop
     1d0:	10000005 	b	1e8 <n38_jal_test+0x1e8>
     1d4:	00000000 	nop
     1d8:	00000000 	nop
     1dc:	00000021 	move	zero,zero
     1e0:	3c12f8d6 	lui	s2,0xf8d6
     1e4:	36520c60 	ori	s2,s2,0xc60
     1e8:	001fa021 	addu	s4,zero,ra
     1ec:	0016f821 	addu	ra,zero,s6
     1f0:	3c150000 	lui	s5,0x0
     1f4:	26b501a4 	addiu	s5,s5,420
     1f8:	3c0dc106 	lui	t5,0xc106
     1fc:	35ad2356 	ori	t5,t5,0x2356
     200:	160d2374 	bne	s0,t5,8fd4 <inst_error>
     204:	00000000 	nop
     208:	00000000 	nop
     20c:	3c0cf8d6 	lui	t4,0xf8d6
     210:	358c0c60 	ori	t4,t4,0xc60
     214:	164c236f 	bne	s2,t4,8fd4 <inst_error>
     218:	00000000 	nop
     21c:	00000000 	nop
     220:	26b50008 	addiu	s5,s5,8
     224:	1695236b 	bne	s4,s5,8fd4 <inst_error>
     228:	00000000 	nop
     22c:	00000000 	nop
     230:	001fb021 	addu	s6,zero,ra
     234:	3c0c0b2d 	lui	t4,0xb2d
     238:	358cc8e4 	ori	t4,t4,0xc8e4
     23c:	3c0dff27 	lui	t5,0xff27
     240:	35ad6d2f 	ori	t5,t5,0x6d2f
     244:	24100000 	li	s0,0
     248:	1000000d 	b	280 <n38_jal_test+0x280>
     24c:	24120000 	li	s2,0
     250:	00000000 	nop
     254:	3c100b2d 	lui	s0,0xb2d
     258:	3610c8e4 	ori	s0,s0,0xc8e4
     25c:	0c0000a6 	jal	298 <n38_jal_test+0x298>
     260:	00000000 	nop
     264:	1000000e 	b	2a0 <n38_jal_test+0x2a0>
     268:	00000000 	nop
     26c:	00000000 	nop
     270:	00000021 	move	zero,zero
     274:	00000021 	move	zero,zero
     278:	00000021 	move	zero,zero
     27c:	00000021 	move	zero,zero
     280:	0c000095 	jal	254 <n38_jal_test+0x254>
     284:	00000000 	nop
     288:	10000005 	b	2a0 <n38_jal_test+0x2a0>
     28c:	00000000 	nop
     290:	00000000 	nop
     294:	00000021 	move	zero,zero
     298:	3c12ff27 	lui	s2,0xff27
     29c:	36526d2f 	ori	s2,s2,0x6d2f
     2a0:	001fa021 	addu	s4,zero,ra
     2a4:	0016f821 	addu	ra,zero,s6
     2a8:	3c150000 	lui	s5,0x0
     2ac:	26b5025c 	addiu	s5,s5,604
     2b0:	3c0d0b2d 	lui	t5,0xb2d
     2b4:	35adc8e4 	ori	t5,t5,0xc8e4
     2b8:	160d2346 	bne	s0,t5,8fd4 <inst_error>
     2bc:	00000000 	nop
     2c0:	00000000 	nop
     2c4:	3c0cff27 	lui	t4,0xff27
     2c8:	358c6d2f 	ori	t4,t4,0x6d2f
     2cc:	164c2341 	bne	s2,t4,8fd4 <inst_error>
     2d0:	00000000 	nop
     2d4:	00000000 	nop
     2d8:	26b50008 	addiu	s5,s5,8
     2dc:	1695233d 	bne	s4,s5,8fd4 <inst_error>
     2e0:	00000000 	nop
     2e4:	00000000 	nop
     2e8:	001fb021 	addu	s6,zero,ra
     2ec:	3c0c312f 	lui	t4,0x312f
     2f0:	358cabd9 	ori	t4,t4,0xabd9
     2f4:	3c0d9703 	lui	t5,0x9703
     2f8:	35ad87ac 	ori	t5,t5,0x87ac
     2fc:	24100000 	li	s0,0
     300:	1000000d 	b	338 <n38_jal_test+0x338>
     304:	24120000 	li	s2,0
     308:	00000000 	nop
     30c:	3c10312f 	lui	s0,0x312f
     310:	3610abd9 	ori	s0,s0,0xabd9
     314:	0c0000d4 	jal	350 <n38_jal_test+0x350>
     318:	00000000 	nop
     31c:	1000000e 	b	358 <n38_jal_test+0x358>
     320:	00000000 	nop
     324:	00000000 	nop
     328:	00000021 	move	zero,zero
     32c:	00000021 	move	zero,zero
     330:	00000021 	move	zero,zero
     334:	00000021 	move	zero,zero
     338:	0c0000c3 	jal	30c <n38_jal_test+0x30c>
     33c:	00000000 	nop
     340:	10000005 	b	358 <n38_jal_test+0x358>
     344:	00000000 	nop
     348:	00000000 	nop
     34c:	00000021 	move	zero,zero
     350:	3c129703 	lui	s2,0x9703
     354:	365287ac 	ori	s2,s2,0x87ac
     358:	001fa021 	addu	s4,zero,ra
     35c:	0016f821 	addu	ra,zero,s6
     360:	3c150000 	lui	s5,0x0
     364:	26b50314 	addiu	s5,s5,788
     368:	3c0d312f 	lui	t5,0x312f
     36c:	35adabd9 	ori	t5,t5,0xabd9
     370:	160d2318 	bne	s0,t5,8fd4 <inst_error>
     374:	00000000 	nop
     378:	00000000 	nop
     37c:	3c0c9703 	lui	t4,0x9703
     380:	358c87ac 	ori	t4,t4,0x87ac
     384:	164c2313 	bne	s2,t4,8fd4 <inst_error>
     388:	00000000 	nop
     38c:	00000000 	nop
     390:	26b50008 	addiu	s5,s5,8
     394:	1695230f 	bne	s4,s5,8fd4 <inst_error>
     398:	00000000 	nop
     39c:	00000000 	nop
     3a0:	001fb021 	addu	s6,zero,ra
     3a4:	3c0c4636 	lui	t4,0x4636
     3a8:	358c0a68 	ori	t4,t4,0xa68
     3ac:	3c0df903 	lui	t5,0xf903
     3b0:	35adf5cd 	ori	t5,t5,0xf5cd
     3b4:	24100000 	li	s0,0
     3b8:	1000000d 	b	3f0 <n38_jal_test+0x3f0>
     3bc:	24120000 	li	s2,0
     3c0:	00000000 	nop
     3c4:	3c104636 	lui	s0,0x4636
     3c8:	36100a68 	ori	s0,s0,0xa68
     3cc:	0c000102 	jal	408 <n38_jal_test+0x408>
     3d0:	00000000 	nop
     3d4:	1000000e 	b	410 <n38_jal_test+0x410>
     3d8:	00000000 	nop
     3dc:	00000000 	nop
     3e0:	00000021 	move	zero,zero
     3e4:	00000021 	move	zero,zero
     3e8:	00000021 	move	zero,zero
     3ec:	00000021 	move	zero,zero
     3f0:	0c0000f1 	jal	3c4 <n38_jal_test+0x3c4>
     3f4:	00000000 	nop
     3f8:	10000005 	b	410 <n38_jal_test+0x410>
     3fc:	00000000 	nop
     400:	00000000 	nop
     404:	00000021 	move	zero,zero
     408:	3c12f903 	lui	s2,0xf903
     40c:	3652f5cd 	ori	s2,s2,0xf5cd
     410:	001fa021 	addu	s4,zero,ra
     414:	0016f821 	addu	ra,zero,s6
     418:	3c150000 	lui	s5,0x0
     41c:	26b503cc 	addiu	s5,s5,972
     420:	3c0d4636 	lui	t5,0x4636
     424:	35ad0a68 	ori	t5,t5,0xa68
     428:	160d22ea 	bne	s0,t5,8fd4 <inst_error>
     42c:	00000000 	nop
     430:	00000000 	nop
     434:	3c0cf903 	lui	t4,0xf903
     438:	358cf5cd 	ori	t4,t4,0xf5cd
     43c:	164c22e5 	bne	s2,t4,8fd4 <inst_error>
     440:	00000000 	nop
     444:	00000000 	nop
     448:	26b50008 	addiu	s5,s5,8
     44c:	169522e1 	bne	s4,s5,8fd4 <inst_error>
     450:	00000000 	nop
     454:	00000000 	nop
     458:	001fb021 	addu	s6,zero,ra
     45c:	3c0c41cc 	lui	t4,0x41cc
     460:	358c660a 	ori	t4,t4,0x660a
     464:	3c0d5229 	lui	t5,0x5229
     468:	35ad5cdc 	ori	t5,t5,0x5cdc
     46c:	24100000 	li	s0,0
     470:	1000000d 	b	4a8 <n38_jal_test+0x4a8>
     474:	24120000 	li	s2,0
     478:	00000000 	nop
     47c:	3c1041cc 	lui	s0,0x41cc
     480:	3610660a 	ori	s0,s0,0x660a
     484:	0c000130 	jal	4c0 <n38_jal_test+0x4c0>
     488:	00000000 	nop
     48c:	1000000e 	b	4c8 <n38_jal_test+0x4c8>
     490:	00000000 	nop
     494:	00000000 	nop
     498:	00000021 	move	zero,zero
     49c:	00000021 	move	zero,zero
     4a0:	00000021 	move	zero,zero
     4a4:	00000021 	move	zero,zero
     4a8:	0c00011f 	jal	47c <n38_jal_test+0x47c>
     4ac:	00000000 	nop
     4b0:	10000005 	b	4c8 <n38_jal_test+0x4c8>
     4b4:	00000000 	nop
     4b8:	00000000 	nop
     4bc:	00000021 	move	zero,zero
     4c0:	3c125229 	lui	s2,0x5229
     4c4:	36525cdc 	ori	s2,s2,0x5cdc
     4c8:	001fa021 	addu	s4,zero,ra
     4cc:	0016f821 	addu	ra,zero,s6
     4d0:	3c150000 	lui	s5,0x0
     4d4:	26b50484 	addiu	s5,s5,1156
     4d8:	3c0d41cc 	lui	t5,0x41cc
     4dc:	35ad660a 	ori	t5,t5,0x660a
     4e0:	160d22bc 	bne	s0,t5,8fd4 <inst_error>
     4e4:	00000000 	nop
     4e8:	00000000 	nop
     4ec:	3c0c5229 	lui	t4,0x5229
     4f0:	358c5cdc 	ori	t4,t4,0x5cdc
     4f4:	164c22b7 	bne	s2,t4,8fd4 <inst_error>
     4f8:	00000000 	nop
     4fc:	00000000 	nop
     500:	26b50008 	addiu	s5,s5,8
     504:	169522b3 	bne	s4,s5,8fd4 <inst_error>
     508:	00000000 	nop
     50c:	00000000 	nop
     510:	001fb021 	addu	s6,zero,ra
     514:	3c0c48fa 	lui	t4,0x48fa
     518:	358c3a04 	ori	t4,t4,0x3a04
     51c:	3c0d6963 	lui	t5,0x6963
     520:	35ad6126 	ori	t5,t5,0x6126
     524:	24100000 	li	s0,0
     528:	1000000d 	b	560 <n38_jal_test+0x560>
     52c:	24120000 	li	s2,0
     530:	00000000 	nop
     534:	3c1048fa 	lui	s0,0x48fa
     538:	36103a04 	ori	s0,s0,0x3a04
     53c:	0c00015e 	jal	578 <n38_jal_test+0x578>
     540:	00000000 	nop
     544:	1000000e 	b	580 <n38_jal_test+0x580>
     548:	00000000 	nop
     54c:	00000000 	nop
     550:	00000021 	move	zero,zero
     554:	00000021 	move	zero,zero
     558:	00000021 	move	zero,zero
     55c:	00000021 	move	zero,zero
     560:	0c00014d 	jal	534 <n38_jal_test+0x534>
     564:	00000000 	nop
     568:	10000005 	b	580 <n38_jal_test+0x580>
     56c:	00000000 	nop
     570:	00000000 	nop
     574:	00000021 	move	zero,zero
     578:	3c126963 	lui	s2,0x6963
     57c:	36526126 	ori	s2,s2,0x6126
     580:	001fa021 	addu	s4,zero,ra
     584:	0016f821 	addu	ra,zero,s6
     588:	3c150000 	lui	s5,0x0
     58c:	26b5053c 	addiu	s5,s5,1340
     590:	3c0d48fa 	lui	t5,0x48fa
     594:	35ad3a04 	ori	t5,t5,0x3a04
     598:	160d228e 	bne	s0,t5,8fd4 <inst_error>
     59c:	00000000 	nop
     5a0:	00000000 	nop
     5a4:	3c0c6963 	lui	t4,0x6963
     5a8:	358c6126 	ori	t4,t4,0x6126
     5ac:	164c2289 	bne	s2,t4,8fd4 <inst_error>
     5b0:	00000000 	nop
     5b4:	00000000 	nop
     5b8:	26b50008 	addiu	s5,s5,8
     5bc:	16952285 	bne	s4,s5,8fd4 <inst_error>
     5c0:	00000000 	nop
     5c4:	00000000 	nop
     5c8:	001fb021 	addu	s6,zero,ra
     5cc:	3c0cbcd7 	lui	t4,0xbcd7
     5d0:	358ccfec 	ori	t4,t4,0xcfec
     5d4:	3c0d779a 	lui	t5,0x779a
     5d8:	35ad95ec 	ori	t5,t5,0x95ec
     5dc:	24100000 	li	s0,0
     5e0:	1000000d 	b	618 <n38_jal_test+0x618>
     5e4:	24120000 	li	s2,0
     5e8:	00000000 	nop
     5ec:	3c10bcd7 	lui	s0,0xbcd7
     5f0:	3610cfec 	ori	s0,s0,0xcfec
     5f4:	0c00018c 	jal	630 <n38_jal_test+0x630>
     5f8:	00000000 	nop
     5fc:	1000000e 	b	638 <n38_jal_test+0x638>
     600:	00000000 	nop
     604:	00000000 	nop
     608:	00000021 	move	zero,zero
     60c:	00000021 	move	zero,zero
     610:	00000021 	move	zero,zero
     614:	00000021 	move	zero,zero
     618:	0c00017b 	jal	5ec <n38_jal_test+0x5ec>
     61c:	00000000 	nop
     620:	10000005 	b	638 <n38_jal_test+0x638>
     624:	00000000 	nop
     628:	00000000 	nop
     62c:	00000021 	move	zero,zero
     630:	3c12779a 	lui	s2,0x779a
     634:	365295ec 	ori	s2,s2,0x95ec
     638:	001fa021 	addu	s4,zero,ra
     63c:	0016f821 	addu	ra,zero,s6
     640:	3c150000 	lui	s5,0x0
     644:	26b505f4 	addiu	s5,s5,1524
     648:	3c0dbcd7 	lui	t5,0xbcd7
     64c:	35adcfec 	ori	t5,t5,0xcfec
     650:	160d2260 	bne	s0,t5,8fd4 <inst_error>
     654:	00000000 	nop
     658:	00000000 	nop
     65c:	3c0c779a 	lui	t4,0x779a
     660:	358c95ec 	ori	t4,t4,0x95ec
     664:	164c225b 	bne	s2,t4,8fd4 <inst_error>
     668:	00000000 	nop
     66c:	00000000 	nop
     670:	26b50008 	addiu	s5,s5,8
     674:	16952257 	bne	s4,s5,8fd4 <inst_error>
     678:	00000000 	nop
     67c:	00000000 	nop
     680:	001fb021 	addu	s6,zero,ra
     684:	3c0c5fc9 	lui	t4,0x5fc9
     688:	358c6388 	ori	t4,t4,0x6388
     68c:	3c0dc43c 	lui	t5,0xc43c
     690:	35ad4580 	ori	t5,t5,0x4580
     694:	24100000 	li	s0,0
     698:	1000000d 	b	6d0 <n38_jal_test+0x6d0>
     69c:	24120000 	li	s2,0
     6a0:	00000000 	nop
     6a4:	3c105fc9 	lui	s0,0x5fc9
     6a8:	36106388 	ori	s0,s0,0x6388
     6ac:	0c0001ba 	jal	6e8 <n38_jal_test+0x6e8>
     6b0:	00000000 	nop
     6b4:	1000000e 	b	6f0 <n38_jal_test+0x6f0>
     6b8:	00000000 	nop
     6bc:	00000000 	nop
     6c0:	00000021 	move	zero,zero
     6c4:	00000021 	move	zero,zero
     6c8:	00000021 	move	zero,zero
     6cc:	00000021 	move	zero,zero
     6d0:	0c0001a9 	jal	6a4 <n38_jal_test+0x6a4>
     6d4:	00000000 	nop
     6d8:	10000005 	b	6f0 <n38_jal_test+0x6f0>
     6dc:	00000000 	nop
     6e0:	00000000 	nop
     6e4:	00000021 	move	zero,zero
     6e8:	3c12c43c 	lui	s2,0xc43c
     6ec:	36524580 	ori	s2,s2,0x4580
     6f0:	001fa021 	addu	s4,zero,ra
     6f4:	0016f821 	addu	ra,zero,s6
     6f8:	3c150000 	lui	s5,0x0
     6fc:	26b506ac 	addiu	s5,s5,1708
     700:	3c0d5fc9 	lui	t5,0x5fc9
     704:	35ad6388 	ori	t5,t5,0x6388
     708:	160d2232 	bne	s0,t5,8fd4 <inst_error>
     70c:	00000000 	nop
     710:	00000000 	nop
     714:	3c0cc43c 	lui	t4,0xc43c
     718:	358c4580 	ori	t4,t4,0x4580
     71c:	164c222d 	bne	s2,t4,8fd4 <inst_error>
     720:	00000000 	nop
     724:	00000000 	nop
     728:	26b50008 	addiu	s5,s5,8
     72c:	16952229 	bne	s4,s5,8fd4 <inst_error>
     730:	00000000 	nop
     734:	00000000 	nop
     738:	001fb021 	addu	s6,zero,ra
     73c:	3c0c2e6a 	lui	t4,0x2e6a
     740:	358ccb2a 	ori	t4,t4,0xcb2a
     744:	3c0d3ff9 	lui	t5,0x3ff9
     748:	35ad30e4 	ori	t5,t5,0x30e4
     74c:	24100000 	li	s0,0
     750:	1000000d 	b	788 <n38_jal_test+0x788>
     754:	24120000 	li	s2,0
     758:	00000000 	nop
     75c:	3c102e6a 	lui	s0,0x2e6a
     760:	3610cb2a 	ori	s0,s0,0xcb2a
     764:	0c0001e8 	jal	7a0 <n38_jal_test+0x7a0>
     768:	00000000 	nop
     76c:	1000000e 	b	7a8 <n38_jal_test+0x7a8>
     770:	00000000 	nop
     774:	00000000 	nop
     778:	00000021 	move	zero,zero
     77c:	00000021 	move	zero,zero
     780:	00000021 	move	zero,zero
     784:	00000021 	move	zero,zero
     788:	0c0001d7 	jal	75c <n38_jal_test+0x75c>
     78c:	00000000 	nop
     790:	10000005 	b	7a8 <n38_jal_test+0x7a8>
     794:	00000000 	nop
     798:	00000000 	nop
     79c:	00000021 	move	zero,zero
     7a0:	3c123ff9 	lui	s2,0x3ff9
     7a4:	365230e4 	ori	s2,s2,0x30e4
     7a8:	001fa021 	addu	s4,zero,ra
     7ac:	0016f821 	addu	ra,zero,s6
     7b0:	3c150000 	lui	s5,0x0
     7b4:	26b50764 	addiu	s5,s5,1892
     7b8:	3c0d2e6a 	lui	t5,0x2e6a
     7bc:	35adcb2a 	ori	t5,t5,0xcb2a
     7c0:	160d2204 	bne	s0,t5,8fd4 <inst_error>
     7c4:	00000000 	nop
     7c8:	00000000 	nop
     7cc:	3c0c3ff9 	lui	t4,0x3ff9
     7d0:	358c30e4 	ori	t4,t4,0x30e4
     7d4:	164c21ff 	bne	s2,t4,8fd4 <inst_error>
     7d8:	00000000 	nop
     7dc:	00000000 	nop
     7e0:	26b50008 	addiu	s5,s5,8
     7e4:	169521fb 	bne	s4,s5,8fd4 <inst_error>
     7e8:	00000000 	nop
     7ec:	00000000 	nop
     7f0:	001fb021 	addu	s6,zero,ra
     7f4:	3c0c5701 	lui	t4,0x5701
     7f8:	358c65c0 	ori	t4,t4,0x65c0
     7fc:	3c0d984b 	lui	t5,0x984b
     800:	35add878 	ori	t5,t5,0xd878
     804:	24100000 	li	s0,0
     808:	1000000d 	b	840 <n38_jal_test+0x840>
     80c:	24120000 	li	s2,0
     810:	00000000 	nop
     814:	3c105701 	lui	s0,0x5701
     818:	361065c0 	ori	s0,s0,0x65c0
     81c:	0c000216 	jal	858 <n38_jal_test+0x858>
     820:	00000000 	nop
     824:	1000000e 	b	860 <n38_jal_test+0x860>
     828:	00000000 	nop
     82c:	00000000 	nop
     830:	00000021 	move	zero,zero
     834:	00000021 	move	zero,zero
     838:	00000021 	move	zero,zero
     83c:	00000021 	move	zero,zero
     840:	0c000205 	jal	814 <n38_jal_test+0x814>
     844:	00000000 	nop
     848:	10000005 	b	860 <n38_jal_test+0x860>
     84c:	00000000 	nop
     850:	00000000 	nop
     854:	00000021 	move	zero,zero
     858:	3c12984b 	lui	s2,0x984b
     85c:	3652d878 	ori	s2,s2,0xd878
     860:	001fa021 	addu	s4,zero,ra
     864:	0016f821 	addu	ra,zero,s6
     868:	3c150000 	lui	s5,0x0
     86c:	26b5081c 	addiu	s5,s5,2076
     870:	3c0d5701 	lui	t5,0x5701
     874:	35ad65c0 	ori	t5,t5,0x65c0
     878:	160d21d6 	bne	s0,t5,8fd4 <inst_error>
     87c:	00000000 	nop
     880:	00000000 	nop
     884:	3c0c984b 	lui	t4,0x984b
     888:	358cd878 	ori	t4,t4,0xd878
     88c:	164c21d1 	bne	s2,t4,8fd4 <inst_error>
     890:	00000000 	nop
     894:	00000000 	nop
     898:	26b50008 	addiu	s5,s5,8
     89c:	169521cd 	bne	s4,s5,8fd4 <inst_error>
     8a0:	00000000 	nop
     8a4:	00000000 	nop
     8a8:	001fb021 	addu	s6,zero,ra
     8ac:	3c0c881d 	lui	t4,0x881d
     8b0:	358c5800 	ori	t4,t4,0x5800
     8b4:	3c0d034e 	lui	t5,0x34e
     8b8:	35ad6000 	ori	t5,t5,0x6000
     8bc:	24100000 	li	s0,0
     8c0:	1000000d 	b	8f8 <n38_jal_test+0x8f8>
     8c4:	24120000 	li	s2,0
     8c8:	00000000 	nop
     8cc:	3c10881d 	lui	s0,0x881d
     8d0:	36105800 	ori	s0,s0,0x5800
     8d4:	0c000244 	jal	910 <n38_jal_test+0x910>
     8d8:	00000000 	nop
     8dc:	1000000e 	b	918 <n38_jal_test+0x918>
     8e0:	00000000 	nop
     8e4:	00000000 	nop
     8e8:	00000021 	move	zero,zero
     8ec:	00000021 	move	zero,zero
     8f0:	00000021 	move	zero,zero
     8f4:	00000021 	move	zero,zero
     8f8:	0c000233 	jal	8cc <n38_jal_test+0x8cc>
     8fc:	00000000 	nop
     900:	10000005 	b	918 <n38_jal_test+0x918>
     904:	00000000 	nop
     908:	00000000 	nop
     90c:	00000021 	move	zero,zero
     910:	3c12034e 	lui	s2,0x34e
     914:	36526000 	ori	s2,s2,0x6000
     918:	001fa021 	addu	s4,zero,ra
     91c:	0016f821 	addu	ra,zero,s6
     920:	3c150000 	lui	s5,0x0
     924:	26b508d4 	addiu	s5,s5,2260
     928:	3c0d881d 	lui	t5,0x881d
     92c:	35ad5800 	ori	t5,t5,0x5800
     930:	160d21a8 	bne	s0,t5,8fd4 <inst_error>
     934:	00000000 	nop
     938:	00000000 	nop
     93c:	3c0c034e 	lui	t4,0x34e
     940:	358c6000 	ori	t4,t4,0x6000
     944:	164c21a3 	bne	s2,t4,8fd4 <inst_error>
     948:	00000000 	nop
     94c:	00000000 	nop
     950:	26b50008 	addiu	s5,s5,8
     954:	1695219f 	bne	s4,s5,8fd4 <inst_error>
     958:	00000000 	nop
     95c:	00000000 	nop
     960:	001fb021 	addu	s6,zero,ra
     964:	3c0c8a5b 	lui	t4,0x8a5b
     968:	358c3be0 	ori	t4,t4,0x3be0
     96c:	3c0db94b 	lui	t5,0xb94b
     970:	35ad6376 	ori	t5,t5,0x6376
     974:	24100000 	li	s0,0
     978:	1000000d 	b	9b0 <n38_jal_test+0x9b0>
     97c:	24120000 	li	s2,0
     980:	00000000 	nop
     984:	3c108a5b 	lui	s0,0x8a5b
     988:	36103be0 	ori	s0,s0,0x3be0
     98c:	0c000272 	jal	9c8 <n38_jal_test+0x9c8>
     990:	00000000 	nop
     994:	1000000e 	b	9d0 <n38_jal_test+0x9d0>
     998:	00000000 	nop
     99c:	00000000 	nop
     9a0:	00000021 	move	zero,zero
     9a4:	00000021 	move	zero,zero
     9a8:	00000021 	move	zero,zero
     9ac:	00000021 	move	zero,zero
     9b0:	0c000261 	jal	984 <n38_jal_test+0x984>
     9b4:	00000000 	nop
     9b8:	10000005 	b	9d0 <n38_jal_test+0x9d0>
     9bc:	00000000 	nop
     9c0:	00000000 	nop
     9c4:	00000021 	move	zero,zero
     9c8:	3c12b94b 	lui	s2,0xb94b
     9cc:	36526376 	ori	s2,s2,0x6376
     9d0:	001fa021 	addu	s4,zero,ra
     9d4:	0016f821 	addu	ra,zero,s6
     9d8:	3c150000 	lui	s5,0x0
     9dc:	26b5098c 	addiu	s5,s5,2444
     9e0:	3c0d8a5b 	lui	t5,0x8a5b
     9e4:	35ad3be0 	ori	t5,t5,0x3be0
     9e8:	160d217a 	bne	s0,t5,8fd4 <inst_error>
     9ec:	00000000 	nop
     9f0:	00000000 	nop
     9f4:	3c0cb94b 	lui	t4,0xb94b
     9f8:	358c6376 	ori	t4,t4,0x6376
     9fc:	164c2175 	bne	s2,t4,8fd4 <inst_error>
     a00:	00000000 	nop
     a04:	00000000 	nop
     a08:	26b50008 	addiu	s5,s5,8
     a0c:	16952171 	bne	s4,s5,8fd4 <inst_error>
     a10:	00000000 	nop
     a14:	00000000 	nop
     a18:	001fb021 	addu	s6,zero,ra
     a1c:	3c0c8b75 	lui	t4,0x8b75
     a20:	358cce52 	ori	t4,t4,0xce52
     a24:	3c0d13b7 	lui	t5,0x13b7
     a28:	35ada780 	ori	t5,t5,0xa780
     a2c:	24100000 	li	s0,0
     a30:	1000000d 	b	a68 <n38_jal_test+0xa68>
     a34:	24120000 	li	s2,0
     a38:	00000000 	nop
     a3c:	3c108b75 	lui	s0,0x8b75
     a40:	3610ce52 	ori	s0,s0,0xce52
     a44:	0c0002a0 	jal	a80 <n38_jal_test+0xa80>
     a48:	00000000 	nop
     a4c:	1000000e 	b	a88 <n38_jal_test+0xa88>
     a50:	00000000 	nop
     a54:	00000000 	nop
     a58:	00000021 	move	zero,zero
     a5c:	00000021 	move	zero,zero
     a60:	00000021 	move	zero,zero
     a64:	00000021 	move	zero,zero
     a68:	0c00028f 	jal	a3c <n38_jal_test+0xa3c>
     a6c:	00000000 	nop
     a70:	10000005 	b	a88 <n38_jal_test+0xa88>
     a74:	00000000 	nop
     a78:	00000000 	nop
     a7c:	00000021 	move	zero,zero
     a80:	3c1213b7 	lui	s2,0x13b7
     a84:	3652a780 	ori	s2,s2,0xa780
     a88:	001fa021 	addu	s4,zero,ra
     a8c:	0016f821 	addu	ra,zero,s6
     a90:	3c150000 	lui	s5,0x0
     a94:	26b50a44 	addiu	s5,s5,2628
     a98:	3c0d8b75 	lui	t5,0x8b75
     a9c:	35adce52 	ori	t5,t5,0xce52
     aa0:	160d214c 	bne	s0,t5,8fd4 <inst_error>
     aa4:	00000000 	nop
     aa8:	00000000 	nop
     aac:	3c0c13b7 	lui	t4,0x13b7
     ab0:	358ca780 	ori	t4,t4,0xa780
     ab4:	164c2147 	bne	s2,t4,8fd4 <inst_error>
     ab8:	00000000 	nop
     abc:	00000000 	nop
     ac0:	26b50008 	addiu	s5,s5,8
     ac4:	16952143 	bne	s4,s5,8fd4 <inst_error>
     ac8:	00000000 	nop
     acc:	00000000 	nop
     ad0:	001fb021 	addu	s6,zero,ra
     ad4:	3c0cfcdb 	lui	t4,0xfcdb
     ad8:	358c1218 	ori	t4,t4,0x1218
     adc:	3c0dff48 	lui	t5,0xff48
     ae0:	35ad3538 	ori	t5,t5,0x3538
     ae4:	24100000 	li	s0,0
     ae8:	1000000d 	b	b20 <n38_jal_test+0xb20>
     aec:	24120000 	li	s2,0
     af0:	00000000 	nop
     af4:	3c10fcdb 	lui	s0,0xfcdb
     af8:	36101218 	ori	s0,s0,0x1218
     afc:	0c0002ce 	jal	b38 <n38_jal_test+0xb38>
     b00:	00000000 	nop
     b04:	1000000e 	b	b40 <n38_jal_test+0xb40>
     b08:	00000000 	nop
     b0c:	00000000 	nop
     b10:	00000021 	move	zero,zero
     b14:	00000021 	move	zero,zero
     b18:	00000021 	move	zero,zero
     b1c:	00000021 	move	zero,zero
     b20:	0c0002bd 	jal	af4 <n38_jal_test+0xaf4>
     b24:	00000000 	nop
     b28:	10000005 	b	b40 <n38_jal_test+0xb40>
     b2c:	00000000 	nop
     b30:	00000000 	nop
     b34:	00000021 	move	zero,zero
     b38:	3c12ff48 	lui	s2,0xff48
     b3c:	36523538 	ori	s2,s2,0x3538
     b40:	001fa021 	addu	s4,zero,ra
     b44:	0016f821 	addu	ra,zero,s6
     b48:	3c150000 	lui	s5,0x0
     b4c:	26b50afc 	addiu	s5,s5,2812
     b50:	3c0dfcdb 	lui	t5,0xfcdb
     b54:	35ad1218 	ori	t5,t5,0x1218
     b58:	160d211e 	bne	s0,t5,8fd4 <inst_error>
     b5c:	00000000 	nop
     b60:	00000000 	nop
     b64:	3c0cff48 	lui	t4,0xff48
     b68:	358c3538 	ori	t4,t4,0x3538
     b6c:	164c2119 	bne	s2,t4,8fd4 <inst_error>
     b70:	00000000 	nop
     b74:	00000000 	nop
     b78:	26b50008 	addiu	s5,s5,8
     b7c:	16952115 	bne	s4,s5,8fd4 <inst_error>
     b80:	00000000 	nop
     b84:	00000000 	nop
     b88:	001fb021 	addu	s6,zero,ra
     b8c:	3c0c2e45 	lui	t4,0x2e45
     b90:	358c0deb 	ori	t4,t4,0xdeb
     b94:	3c0d1060 	lui	t5,0x1060
     b98:	35ad9f0c 	ori	t5,t5,0x9f0c
     b9c:	24100000 	li	s0,0
     ba0:	1000000d 	b	bd8 <n38_jal_test+0xbd8>
     ba4:	24120000 	li	s2,0
     ba8:	00000000 	nop
     bac:	3c102e45 	lui	s0,0x2e45
     bb0:	36100deb 	ori	s0,s0,0xdeb
     bb4:	0c0002fc 	jal	bf0 <n38_jal_test+0xbf0>
     bb8:	00000000 	nop
     bbc:	1000000e 	b	bf8 <n38_jal_test+0xbf8>
     bc0:	00000000 	nop
     bc4:	00000000 	nop
     bc8:	00000021 	move	zero,zero
     bcc:	00000021 	move	zero,zero
     bd0:	00000021 	move	zero,zero
     bd4:	00000021 	move	zero,zero
     bd8:	0c0002eb 	jal	bac <n38_jal_test+0xbac>
     bdc:	00000000 	nop
     be0:	10000005 	b	bf8 <n38_jal_test+0xbf8>
     be4:	00000000 	nop
     be8:	00000000 	nop
     bec:	00000021 	move	zero,zero
     bf0:	3c121060 	lui	s2,0x1060
     bf4:	36529f0c 	ori	s2,s2,0x9f0c
     bf8:	001fa021 	addu	s4,zero,ra
     bfc:	0016f821 	addu	ra,zero,s6
     c00:	3c150000 	lui	s5,0x0
     c04:	26b50bb4 	addiu	s5,s5,2996
     c08:	3c0d2e45 	lui	t5,0x2e45
     c0c:	35ad0deb 	ori	t5,t5,0xdeb
     c10:	160d20f0 	bne	s0,t5,8fd4 <inst_error>
     c14:	00000000 	nop
     c18:	00000000 	nop
     c1c:	3c0c1060 	lui	t4,0x1060
     c20:	358c9f0c 	ori	t4,t4,0x9f0c
     c24:	164c20eb 	bne	s2,t4,8fd4 <inst_error>
     c28:	00000000 	nop
     c2c:	00000000 	nop
     c30:	26b50008 	addiu	s5,s5,8
     c34:	169520e7 	bne	s4,s5,8fd4 <inst_error>
     c38:	00000000 	nop
     c3c:	00000000 	nop
     c40:	001fb021 	addu	s6,zero,ra
     c44:	3c0c3e80 	lui	t4,0x3e80
     c48:	358ccb3e 	ori	t4,t4,0xcb3e
     c4c:	3c0dc960 	lui	t5,0xc960
     c50:	35ade400 	ori	t5,t5,0xe400
     c54:	24100000 	li	s0,0
     c58:	1000000d 	b	c90 <n38_jal_test+0xc90>
     c5c:	24120000 	li	s2,0
     c60:	00000000 	nop
     c64:	3c103e80 	lui	s0,0x3e80
     c68:	3610cb3e 	ori	s0,s0,0xcb3e
     c6c:	0c00032a 	jal	ca8 <n38_jal_test+0xca8>
     c70:	00000000 	nop
     c74:	1000000e 	b	cb0 <n38_jal_test+0xcb0>
     c78:	00000000 	nop
     c7c:	00000000 	nop
     c80:	00000021 	move	zero,zero
     c84:	00000021 	move	zero,zero
     c88:	00000021 	move	zero,zero
     c8c:	00000021 	move	zero,zero
     c90:	0c000319 	jal	c64 <n38_jal_test+0xc64>
     c94:	00000000 	nop
     c98:	10000005 	b	cb0 <n38_jal_test+0xcb0>
     c9c:	00000000 	nop
     ca0:	00000000 	nop
     ca4:	00000021 	move	zero,zero
     ca8:	3c12c960 	lui	s2,0xc960
     cac:	3652e400 	ori	s2,s2,0xe400
     cb0:	001fa021 	addu	s4,zero,ra
     cb4:	0016f821 	addu	ra,zero,s6
     cb8:	3c150000 	lui	s5,0x0
     cbc:	26b50c6c 	addiu	s5,s5,3180
     cc0:	3c0d3e80 	lui	t5,0x3e80
     cc4:	35adcb3e 	ori	t5,t5,0xcb3e
     cc8:	160d20c2 	bne	s0,t5,8fd4 <inst_error>
     ccc:	00000000 	nop
     cd0:	00000000 	nop
     cd4:	3c0cc960 	lui	t4,0xc960
     cd8:	358ce400 	ori	t4,t4,0xe400
     cdc:	164c20bd 	bne	s2,t4,8fd4 <inst_error>
     ce0:	00000000 	nop
     ce4:	00000000 	nop
     ce8:	26b50008 	addiu	s5,s5,8
     cec:	169520b9 	bne	s4,s5,8fd4 <inst_error>
     cf0:	00000000 	nop
     cf4:	00000000 	nop
     cf8:	001fb021 	addu	s6,zero,ra
     cfc:	3c0c44af 	lui	t4,0x44af
     d00:	358c9ce0 	ori	t4,t4,0x9ce0
     d04:	3c0d800d 	lui	t5,0x800d
     d08:	35ad3820 	ori	t5,t5,0x3820
     d0c:	24100000 	li	s0,0
     d10:	1000000d 	b	d48 <n38_jal_test+0xd48>
     d14:	24120000 	li	s2,0
     d18:	00000000 	nop
     d1c:	3c1044af 	lui	s0,0x44af
     d20:	36109ce0 	ori	s0,s0,0x9ce0
     d24:	0c000358 	jal	d60 <n38_jal_test+0xd60>
     d28:	00000000 	nop
     d2c:	1000000e 	b	d68 <n38_jal_test+0xd68>
     d30:	00000000 	nop
     d34:	00000000 	nop
     d38:	00000021 	move	zero,zero
     d3c:	00000021 	move	zero,zero
     d40:	00000021 	move	zero,zero
     d44:	00000021 	move	zero,zero
     d48:	0c000347 	jal	d1c <n38_jal_test+0xd1c>
     d4c:	00000000 	nop
     d50:	10000005 	b	d68 <n38_jal_test+0xd68>
     d54:	00000000 	nop
     d58:	00000000 	nop
     d5c:	00000021 	move	zero,zero
     d60:	3c12800d 	lui	s2,0x800d
     d64:	36523820 	ori	s2,s2,0x3820
     d68:	001fa021 	addu	s4,zero,ra
     d6c:	0016f821 	addu	ra,zero,s6
     d70:	3c150000 	lui	s5,0x0
     d74:	26b50d24 	addiu	s5,s5,3364
     d78:	3c0d44af 	lui	t5,0x44af
     d7c:	35ad9ce0 	ori	t5,t5,0x9ce0
     d80:	160d2094 	bne	s0,t5,8fd4 <inst_error>
     d84:	00000000 	nop
     d88:	00000000 	nop
     d8c:	3c0c800d 	lui	t4,0x800d
     d90:	358c3820 	ori	t4,t4,0x3820
     d94:	164c208f 	bne	s2,t4,8fd4 <inst_error>
     d98:	00000000 	nop
     d9c:	00000000 	nop
     da0:	26b50008 	addiu	s5,s5,8
     da4:	1695208b 	bne	s4,s5,8fd4 <inst_error>
     da8:	00000000 	nop
     dac:	00000000 	nop
     db0:	001fb021 	addu	s6,zero,ra
     db4:	3c0c08ee 	lui	t4,0x8ee
     db8:	358cc534 	ori	t4,t4,0xc534
     dbc:	3c0db773 	lui	t5,0xb773
     dc0:	35ad5884 	ori	t5,t5,0x5884
     dc4:	24100000 	li	s0,0
     dc8:	1000000d 	b	e00 <n38_jal_test+0xe00>
     dcc:	24120000 	li	s2,0
     dd0:	00000000 	nop
     dd4:	3c1008ee 	lui	s0,0x8ee
     dd8:	3610c534 	ori	s0,s0,0xc534
     ddc:	0c000386 	jal	e18 <n38_jal_test+0xe18>
     de0:	00000000 	nop
     de4:	1000000e 	b	e20 <n38_jal_test+0xe20>
     de8:	00000000 	nop
     dec:	00000000 	nop
     df0:	00000021 	move	zero,zero
     df4:	00000021 	move	zero,zero
     df8:	00000021 	move	zero,zero
     dfc:	00000021 	move	zero,zero
     e00:	0c000375 	jal	dd4 <n38_jal_test+0xdd4>
     e04:	00000000 	nop
     e08:	10000005 	b	e20 <n38_jal_test+0xe20>
     e0c:	00000000 	nop
     e10:	00000000 	nop
     e14:	00000021 	move	zero,zero
     e18:	3c12b773 	lui	s2,0xb773
     e1c:	36525884 	ori	s2,s2,0x5884
     e20:	001fa021 	addu	s4,zero,ra
     e24:	0016f821 	addu	ra,zero,s6
     e28:	3c150000 	lui	s5,0x0
     e2c:	26b50ddc 	addiu	s5,s5,3548
     e30:	3c0d08ee 	lui	t5,0x8ee
     e34:	35adc534 	ori	t5,t5,0xc534
     e38:	160d2066 	bne	s0,t5,8fd4 <inst_error>
     e3c:	00000000 	nop
     e40:	00000000 	nop
     e44:	3c0cb773 	lui	t4,0xb773
     e48:	358c5884 	ori	t4,t4,0x5884
     e4c:	164c2061 	bne	s2,t4,8fd4 <inst_error>
     e50:	00000000 	nop
     e54:	00000000 	nop
     e58:	26b50008 	addiu	s5,s5,8
     e5c:	1695205d 	bne	s4,s5,8fd4 <inst_error>
     e60:	00000000 	nop
     e64:	00000000 	nop
     e68:	001fb021 	addu	s6,zero,ra
     e6c:	3c0cbc5a 	lui	t4,0xbc5a
     e70:	358c66a4 	ori	t4,t4,0x66a4
     e74:	3c0ddf14 	lui	t5,0xdf14
     e78:	35ad4ab4 	ori	t5,t5,0x4ab4
     e7c:	24100000 	li	s0,0
     e80:	1000000d 	b	eb8 <n38_jal_test+0xeb8>
     e84:	24120000 	li	s2,0
     e88:	00000000 	nop
     e8c:	3c10bc5a 	lui	s0,0xbc5a
     e90:	361066a4 	ori	s0,s0,0x66a4
     e94:	0c0003b4 	jal	ed0 <n38_jal_test+0xed0>
     e98:	00000000 	nop
     e9c:	1000000e 	b	ed8 <n38_jal_test+0xed8>
     ea0:	00000000 	nop
     ea4:	00000000 	nop
     ea8:	00000021 	move	zero,zero
     eac:	00000021 	move	zero,zero
     eb0:	00000021 	move	zero,zero
     eb4:	00000021 	move	zero,zero
     eb8:	0c0003a3 	jal	e8c <n38_jal_test+0xe8c>
     ebc:	00000000 	nop
     ec0:	10000005 	b	ed8 <n38_jal_test+0xed8>
     ec4:	00000000 	nop
     ec8:	00000000 	nop
     ecc:	00000021 	move	zero,zero
     ed0:	3c12df14 	lui	s2,0xdf14
     ed4:	36524ab4 	ori	s2,s2,0x4ab4
     ed8:	001fa021 	addu	s4,zero,ra
     edc:	0016f821 	addu	ra,zero,s6
     ee0:	3c150000 	lui	s5,0x0
     ee4:	26b50e94 	addiu	s5,s5,3732
     ee8:	3c0dbc5a 	lui	t5,0xbc5a
     eec:	35ad66a4 	ori	t5,t5,0x66a4
     ef0:	160d2038 	bne	s0,t5,8fd4 <inst_error>
     ef4:	00000000 	nop
     ef8:	00000000 	nop
     efc:	3c0cdf14 	lui	t4,0xdf14
     f00:	358c4ab4 	ori	t4,t4,0x4ab4
     f04:	164c2033 	bne	s2,t4,8fd4 <inst_error>
     f08:	00000000 	nop
     f0c:	00000000 	nop
     f10:	26b50008 	addiu	s5,s5,8
     f14:	1695202f 	bne	s4,s5,8fd4 <inst_error>
     f18:	00000000 	nop
     f1c:	00000000 	nop
     f20:	001fb021 	addu	s6,zero,ra
     f24:	3c0c2aeb 	lui	t4,0x2aeb
     f28:	358c3f3c 	ori	t4,t4,0x3f3c
     f2c:	3c0dedcc 	lui	t5,0xedcc
     f30:	35ad9ce0 	ori	t5,t5,0x9ce0
     f34:	24100000 	li	s0,0
     f38:	1000000d 	b	f70 <n38_jal_test+0xf70>
     f3c:	24120000 	li	s2,0
     f40:	00000000 	nop
     f44:	3c102aeb 	lui	s0,0x2aeb
     f48:	36103f3c 	ori	s0,s0,0x3f3c
     f4c:	0c0003e2 	jal	f88 <n38_jal_test+0xf88>
     f50:	00000000 	nop
     f54:	1000000e 	b	f90 <n38_jal_test+0xf90>
     f58:	00000000 	nop
     f5c:	00000000 	nop
     f60:	00000021 	move	zero,zero
     f64:	00000021 	move	zero,zero
     f68:	00000021 	move	zero,zero
     f6c:	00000021 	move	zero,zero
     f70:	0c0003d1 	jal	f44 <n38_jal_test+0xf44>
     f74:	00000000 	nop
     f78:	10000005 	b	f90 <n38_jal_test+0xf90>
     f7c:	00000000 	nop
     f80:	00000000 	nop
     f84:	00000021 	move	zero,zero
     f88:	3c12edcc 	lui	s2,0xedcc
     f8c:	36529ce0 	ori	s2,s2,0x9ce0
     f90:	001fa021 	addu	s4,zero,ra
     f94:	0016f821 	addu	ra,zero,s6
     f98:	3c150000 	lui	s5,0x0
     f9c:	26b50f4c 	addiu	s5,s5,3916
     fa0:	3c0d2aeb 	lui	t5,0x2aeb
     fa4:	35ad3f3c 	ori	t5,t5,0x3f3c
     fa8:	160d200a 	bne	s0,t5,8fd4 <inst_error>
     fac:	00000000 	nop
     fb0:	00000000 	nop
     fb4:	3c0cedcc 	lui	t4,0xedcc
     fb8:	358c9ce0 	ori	t4,t4,0x9ce0
     fbc:	164c2005 	bne	s2,t4,8fd4 <inst_error>
     fc0:	00000000 	nop
     fc4:	00000000 	nop
     fc8:	26b50008 	addiu	s5,s5,8
     fcc:	16952001 	bne	s4,s5,8fd4 <inst_error>
     fd0:	00000000 	nop
     fd4:	00000000 	nop
     fd8:	001fb021 	addu	s6,zero,ra
     fdc:	3c0ccd78 	lui	t4,0xcd78
     fe0:	358c4df5 	ori	t4,t4,0x4df5
     fe4:	3c0daff9 	lui	t5,0xaff9
     fe8:	35ad2f84 	ori	t5,t5,0x2f84
     fec:	24100000 	li	s0,0
     ff0:	1000000d 	b	1028 <n38_jal_test+0x1028>
     ff4:	24120000 	li	s2,0
     ff8:	00000000 	nop
     ffc:	3c10cd78 	lui	s0,0xcd78
    1000:	36104df5 	ori	s0,s0,0x4df5
    1004:	0c000410 	jal	1040 <n38_jal_test+0x1040>
    1008:	00000000 	nop
    100c:	1000000e 	b	1048 <n38_jal_test+0x1048>
    1010:	00000000 	nop
    1014:	00000000 	nop
    1018:	00000021 	move	zero,zero
    101c:	00000021 	move	zero,zero
    1020:	00000021 	move	zero,zero
    1024:	00000021 	move	zero,zero
    1028:	0c0003ff 	jal	ffc <n38_jal_test+0xffc>
    102c:	00000000 	nop
    1030:	10000005 	b	1048 <n38_jal_test+0x1048>
    1034:	00000000 	nop
    1038:	00000000 	nop
    103c:	00000021 	move	zero,zero
    1040:	3c12aff9 	lui	s2,0xaff9
    1044:	36522f84 	ori	s2,s2,0x2f84
    1048:	001fa021 	addu	s4,zero,ra
    104c:	0016f821 	addu	ra,zero,s6
    1050:	3c150000 	lui	s5,0x0
    1054:	26b51004 	addiu	s5,s5,4100
    1058:	3c0dcd78 	lui	t5,0xcd78
    105c:	35ad4df5 	ori	t5,t5,0x4df5
    1060:	160d1fdc 	bne	s0,t5,8fd4 <inst_error>
    1064:	00000000 	nop
    1068:	00000000 	nop
    106c:	3c0caff9 	lui	t4,0xaff9
    1070:	358c2f84 	ori	t4,t4,0x2f84
    1074:	164c1fd7 	bne	s2,t4,8fd4 <inst_error>
    1078:	00000000 	nop
    107c:	00000000 	nop
    1080:	26b50008 	addiu	s5,s5,8
    1084:	16951fd3 	bne	s4,s5,8fd4 <inst_error>
    1088:	00000000 	nop
    108c:	00000000 	nop
    1090:	001fb021 	addu	s6,zero,ra
    1094:	3c0ca34d 	lui	t4,0xa34d
    1098:	358c260a 	ori	t4,t4,0x260a
    109c:	3c0db77c 	lui	t5,0xb77c
    10a0:	35ad87f4 	ori	t5,t5,0x87f4
    10a4:	24100000 	li	s0,0
    10a8:	1000000d 	b	10e0 <n38_jal_test+0x10e0>
    10ac:	24120000 	li	s2,0
    10b0:	00000000 	nop
    10b4:	3c10a34d 	lui	s0,0xa34d
    10b8:	3610260a 	ori	s0,s0,0x260a
    10bc:	0c00043e 	jal	10f8 <n38_jal_test+0x10f8>
    10c0:	00000000 	nop
    10c4:	1000000e 	b	1100 <n38_jal_test+0x1100>
    10c8:	00000000 	nop
    10cc:	00000000 	nop
    10d0:	00000021 	move	zero,zero
    10d4:	00000021 	move	zero,zero
    10d8:	00000021 	move	zero,zero
    10dc:	00000021 	move	zero,zero
    10e0:	0c00042d 	jal	10b4 <n38_jal_test+0x10b4>
    10e4:	00000000 	nop
    10e8:	10000005 	b	1100 <n38_jal_test+0x1100>
    10ec:	00000000 	nop
    10f0:	00000000 	nop
    10f4:	00000021 	move	zero,zero
    10f8:	3c12b77c 	lui	s2,0xb77c
    10fc:	365287f4 	ori	s2,s2,0x87f4
    1100:	001fa021 	addu	s4,zero,ra
    1104:	0016f821 	addu	ra,zero,s6
    1108:	3c150000 	lui	s5,0x0
    110c:	26b510bc 	addiu	s5,s5,4284
    1110:	3c0da34d 	lui	t5,0xa34d
    1114:	35ad260a 	ori	t5,t5,0x260a
    1118:	160d1fae 	bne	s0,t5,8fd4 <inst_error>
    111c:	00000000 	nop
    1120:	00000000 	nop
    1124:	3c0cb77c 	lui	t4,0xb77c
    1128:	358c87f4 	ori	t4,t4,0x87f4
    112c:	164c1fa9 	bne	s2,t4,8fd4 <inst_error>
    1130:	00000000 	nop
    1134:	00000000 	nop
    1138:	26b50008 	addiu	s5,s5,8
    113c:	16951fa5 	bne	s4,s5,8fd4 <inst_error>
    1140:	00000000 	nop
    1144:	00000000 	nop
    1148:	001fb021 	addu	s6,zero,ra
    114c:	3c0ca0d8 	lui	t4,0xa0d8
    1150:	358c6880 	ori	t4,t4,0x6880
    1154:	3c0dafeb 	lui	t5,0xafeb
    1158:	35ada4e4 	ori	t5,t5,0xa4e4
    115c:	24100000 	li	s0,0
    1160:	1000000d 	b	1198 <n38_jal_test+0x1198>
    1164:	24120000 	li	s2,0
    1168:	00000000 	nop
    116c:	3c10a0d8 	lui	s0,0xa0d8
    1170:	36106880 	ori	s0,s0,0x6880
    1174:	0c00046c 	jal	11b0 <n38_jal_test+0x11b0>
    1178:	00000000 	nop
    117c:	1000000e 	b	11b8 <n38_jal_test+0x11b8>
    1180:	00000000 	nop
    1184:	00000000 	nop
    1188:	00000021 	move	zero,zero
    118c:	00000021 	move	zero,zero
    1190:	00000021 	move	zero,zero
    1194:	00000021 	move	zero,zero
    1198:	0c00045b 	jal	116c <n38_jal_test+0x116c>
    119c:	00000000 	nop
    11a0:	10000005 	b	11b8 <n38_jal_test+0x11b8>
    11a4:	00000000 	nop
    11a8:	00000000 	nop
    11ac:	00000021 	move	zero,zero
    11b0:	3c12afeb 	lui	s2,0xafeb
    11b4:	3652a4e4 	ori	s2,s2,0xa4e4
    11b8:	001fa021 	addu	s4,zero,ra
    11bc:	0016f821 	addu	ra,zero,s6
    11c0:	3c150000 	lui	s5,0x0
    11c4:	26b51174 	addiu	s5,s5,4468
    11c8:	3c0da0d8 	lui	t5,0xa0d8
    11cc:	35ad6880 	ori	t5,t5,0x6880
    11d0:	160d1f80 	bne	s0,t5,8fd4 <inst_error>
    11d4:	00000000 	nop
    11d8:	00000000 	nop
    11dc:	3c0cafeb 	lui	t4,0xafeb
    11e0:	358ca4e4 	ori	t4,t4,0xa4e4
    11e4:	164c1f7b 	bne	s2,t4,8fd4 <inst_error>
    11e8:	00000000 	nop
    11ec:	00000000 	nop
    11f0:	26b50008 	addiu	s5,s5,8
    11f4:	16951f77 	bne	s4,s5,8fd4 <inst_error>
    11f8:	00000000 	nop
    11fc:	00000000 	nop
    1200:	001fb021 	addu	s6,zero,ra
    1204:	3c0cf7b8 	lui	t4,0xf7b8
    1208:	358cf37b 	ori	t4,t4,0xf37b
    120c:	3c0d911d 	lui	t5,0x911d
    1210:	35ade040 	ori	t5,t5,0xe040
    1214:	24100000 	li	s0,0
    1218:	1000000d 	b	1250 <n38_jal_test+0x1250>
    121c:	24120000 	li	s2,0
    1220:	00000000 	nop
    1224:	3c10f7b8 	lui	s0,0xf7b8
    1228:	3610f37b 	ori	s0,s0,0xf37b
    122c:	0c00049a 	jal	1268 <n38_jal_test+0x1268>
    1230:	00000000 	nop
    1234:	1000000e 	b	1270 <n38_jal_test+0x1270>
    1238:	00000000 	nop
    123c:	00000000 	nop
    1240:	00000021 	move	zero,zero
    1244:	00000021 	move	zero,zero
    1248:	00000021 	move	zero,zero
    124c:	00000021 	move	zero,zero
    1250:	0c000489 	jal	1224 <n38_jal_test+0x1224>
    1254:	00000000 	nop
    1258:	10000005 	b	1270 <n38_jal_test+0x1270>
    125c:	00000000 	nop
    1260:	00000000 	nop
    1264:	00000021 	move	zero,zero
    1268:	3c12911d 	lui	s2,0x911d
    126c:	3652e040 	ori	s2,s2,0xe040
    1270:	001fa021 	addu	s4,zero,ra
    1274:	0016f821 	addu	ra,zero,s6
    1278:	3c150000 	lui	s5,0x0
    127c:	26b5122c 	addiu	s5,s5,4652
    1280:	3c0df7b8 	lui	t5,0xf7b8
    1284:	35adf37b 	ori	t5,t5,0xf37b
    1288:	160d1f52 	bne	s0,t5,8fd4 <inst_error>
    128c:	00000000 	nop
    1290:	00000000 	nop
    1294:	3c0c911d 	lui	t4,0x911d
    1298:	358ce040 	ori	t4,t4,0xe040
    129c:	164c1f4d 	bne	s2,t4,8fd4 <inst_error>
    12a0:	00000000 	nop
    12a4:	00000000 	nop
    12a8:	26b50008 	addiu	s5,s5,8
    12ac:	16951f49 	bne	s4,s5,8fd4 <inst_error>
    12b0:	00000000 	nop
    12b4:	00000000 	nop
    12b8:	001fb021 	addu	s6,zero,ra
    12bc:	3c0c7c77 	lui	t4,0x7c77
    12c0:	358c7a50 	ori	t4,t4,0x7a50
    12c4:	3c0de14e 	lui	t5,0xe14e
    12c8:	35ad1a90 	ori	t5,t5,0x1a90
    12cc:	24100000 	li	s0,0
    12d0:	1000000d 	b	1308 <n38_jal_test+0x1308>
    12d4:	24120000 	li	s2,0
    12d8:	00000000 	nop
    12dc:	3c107c77 	lui	s0,0x7c77
    12e0:	36107a50 	ori	s0,s0,0x7a50
    12e4:	0c0004c8 	jal	1320 <n38_jal_test+0x1320>
    12e8:	00000000 	nop
    12ec:	1000000e 	b	1328 <n38_jal_test+0x1328>
    12f0:	00000000 	nop
    12f4:	00000000 	nop
    12f8:	00000021 	move	zero,zero
    12fc:	00000021 	move	zero,zero
    1300:	00000021 	move	zero,zero
    1304:	00000021 	move	zero,zero
    1308:	0c0004b7 	jal	12dc <n38_jal_test+0x12dc>
    130c:	00000000 	nop
    1310:	10000005 	b	1328 <n38_jal_test+0x1328>
    1314:	00000000 	nop
    1318:	00000000 	nop
    131c:	00000021 	move	zero,zero
    1320:	3c12e14e 	lui	s2,0xe14e
    1324:	36521a90 	ori	s2,s2,0x1a90
    1328:	001fa021 	addu	s4,zero,ra
    132c:	0016f821 	addu	ra,zero,s6
    1330:	3c150000 	lui	s5,0x0
    1334:	26b512e4 	addiu	s5,s5,4836
    1338:	3c0d7c77 	lui	t5,0x7c77
    133c:	35ad7a50 	ori	t5,t5,0x7a50
    1340:	160d1f24 	bne	s0,t5,8fd4 <inst_error>
    1344:	00000000 	nop
    1348:	00000000 	nop
    134c:	3c0ce14e 	lui	t4,0xe14e
    1350:	358c1a90 	ori	t4,t4,0x1a90
    1354:	164c1f1f 	bne	s2,t4,8fd4 <inst_error>
    1358:	00000000 	nop
    135c:	00000000 	nop
    1360:	26b50008 	addiu	s5,s5,8
    1364:	16951f1b 	bne	s4,s5,8fd4 <inst_error>
    1368:	00000000 	nop
    136c:	00000000 	nop
    1370:	001fb021 	addu	s6,zero,ra
    1374:	3c0c7b1a 	lui	t4,0x7b1a
    1378:	358c2aa1 	ori	t4,t4,0x2aa1
    137c:	3c0d944c 	lui	t5,0x944c
    1380:	35ad4918 	ori	t5,t5,0x4918
    1384:	24100000 	li	s0,0
    1388:	1000000d 	b	13c0 <n38_jal_test+0x13c0>
    138c:	24120000 	li	s2,0
    1390:	00000000 	nop
    1394:	3c107b1a 	lui	s0,0x7b1a
    1398:	36102aa1 	ori	s0,s0,0x2aa1
    139c:	0c0004f6 	jal	13d8 <n38_jal_test+0x13d8>
    13a0:	00000000 	nop
    13a4:	1000000e 	b	13e0 <n38_jal_test+0x13e0>
    13a8:	00000000 	nop
    13ac:	00000000 	nop
    13b0:	00000021 	move	zero,zero
    13b4:	00000021 	move	zero,zero
    13b8:	00000021 	move	zero,zero
    13bc:	00000021 	move	zero,zero
    13c0:	0c0004e5 	jal	1394 <n38_jal_test+0x1394>
    13c4:	00000000 	nop
    13c8:	10000005 	b	13e0 <n38_jal_test+0x13e0>
    13cc:	00000000 	nop
    13d0:	00000000 	nop
    13d4:	00000021 	move	zero,zero
    13d8:	3c12944c 	lui	s2,0x944c
    13dc:	36524918 	ori	s2,s2,0x4918
    13e0:	001fa021 	addu	s4,zero,ra
    13e4:	0016f821 	addu	ra,zero,s6
    13e8:	3c150000 	lui	s5,0x0
    13ec:	26b5139c 	addiu	s5,s5,5020
    13f0:	3c0d7b1a 	lui	t5,0x7b1a
    13f4:	35ad2aa1 	ori	t5,t5,0x2aa1
    13f8:	160d1ef6 	bne	s0,t5,8fd4 <inst_error>
    13fc:	00000000 	nop
    1400:	00000000 	nop
    1404:	3c0c944c 	lui	t4,0x944c
    1408:	358c4918 	ori	t4,t4,0x4918
    140c:	164c1ef1 	bne	s2,t4,8fd4 <inst_error>
    1410:	00000000 	nop
    1414:	00000000 	nop
    1418:	26b50008 	addiu	s5,s5,8
    141c:	16951eed 	bne	s4,s5,8fd4 <inst_error>
    1420:	00000000 	nop
    1424:	00000000 	nop
    1428:	001fb021 	addu	s6,zero,ra
    142c:	3c0c7e86 	lui	t4,0x7e86
    1430:	358ceb59 	ori	t4,t4,0xeb59
    1434:	3c0db542 	lui	t5,0xb542
    1438:	35ad8b4c 	ori	t5,t5,0x8b4c
    143c:	24100000 	li	s0,0
    1440:	1000000d 	b	1478 <n38_jal_test+0x1478>
    1444:	24120000 	li	s2,0
    1448:	00000000 	nop
    144c:	3c107e86 	lui	s0,0x7e86
    1450:	3610eb59 	ori	s0,s0,0xeb59
    1454:	0c000524 	jal	1490 <n38_jal_test+0x1490>
    1458:	00000000 	nop
    145c:	1000000e 	b	1498 <n38_jal_test+0x1498>
    1460:	00000000 	nop
    1464:	00000000 	nop
    1468:	00000021 	move	zero,zero
    146c:	00000021 	move	zero,zero
    1470:	00000021 	move	zero,zero
    1474:	00000021 	move	zero,zero
    1478:	0c000513 	jal	144c <n38_jal_test+0x144c>
    147c:	00000000 	nop
    1480:	10000005 	b	1498 <n38_jal_test+0x1498>
    1484:	00000000 	nop
    1488:	00000000 	nop
    148c:	00000021 	move	zero,zero
    1490:	3c12b542 	lui	s2,0xb542
    1494:	36528b4c 	ori	s2,s2,0x8b4c
    1498:	001fa021 	addu	s4,zero,ra
    149c:	0016f821 	addu	ra,zero,s6
    14a0:	3c150000 	lui	s5,0x0
    14a4:	26b51454 	addiu	s5,s5,5204
    14a8:	3c0d7e86 	lui	t5,0x7e86
    14ac:	35adeb59 	ori	t5,t5,0xeb59
    14b0:	160d1ec8 	bne	s0,t5,8fd4 <inst_error>
    14b4:	00000000 	nop
    14b8:	00000000 	nop
    14bc:	3c0cb542 	lui	t4,0xb542
    14c0:	358c8b4c 	ori	t4,t4,0x8b4c
    14c4:	164c1ec3 	bne	s2,t4,8fd4 <inst_error>
    14c8:	00000000 	nop
    14cc:	00000000 	nop
    14d0:	26b50008 	addiu	s5,s5,8
    14d4:	16951ebf 	bne	s4,s5,8fd4 <inst_error>
    14d8:	00000000 	nop
    14dc:	00000000 	nop
    14e0:	001fb021 	addu	s6,zero,ra
    14e4:	3c0c7bf8 	lui	t4,0x7bf8
    14e8:	358c8eb0 	ori	t4,t4,0x8eb0
    14ec:	3c0d7730 	lui	t5,0x7730
    14f0:	35adb200 	ori	t5,t5,0xb200
    14f4:	24100000 	li	s0,0
    14f8:	1000000d 	b	1530 <n38_jal_test+0x1530>
    14fc:	24120000 	li	s2,0
    1500:	00000000 	nop
    1504:	3c107bf8 	lui	s0,0x7bf8
    1508:	36108eb0 	ori	s0,s0,0x8eb0
    150c:	0c000552 	jal	1548 <n38_jal_test+0x1548>
    1510:	00000000 	nop
    1514:	1000000e 	b	1550 <n38_jal_test+0x1550>
    1518:	00000000 	nop
    151c:	00000000 	nop
    1520:	00000021 	move	zero,zero
    1524:	00000021 	move	zero,zero
    1528:	00000021 	move	zero,zero
    152c:	00000021 	move	zero,zero
    1530:	0c000541 	jal	1504 <n38_jal_test+0x1504>
    1534:	00000000 	nop
    1538:	10000005 	b	1550 <n38_jal_test+0x1550>
    153c:	00000000 	nop
    1540:	00000000 	nop
    1544:	00000021 	move	zero,zero
    1548:	3c127730 	lui	s2,0x7730
    154c:	3652b200 	ori	s2,s2,0xb200
    1550:	001fa021 	addu	s4,zero,ra
    1554:	0016f821 	addu	ra,zero,s6
    1558:	3c150000 	lui	s5,0x0
    155c:	26b5150c 	addiu	s5,s5,5388
    1560:	3c0d7bf8 	lui	t5,0x7bf8
    1564:	35ad8eb0 	ori	t5,t5,0x8eb0
    1568:	160d1e9a 	bne	s0,t5,8fd4 <inst_error>
    156c:	00000000 	nop
    1570:	00000000 	nop
    1574:	3c0c7730 	lui	t4,0x7730
    1578:	358cb200 	ori	t4,t4,0xb200
    157c:	164c1e95 	bne	s2,t4,8fd4 <inst_error>
    1580:	00000000 	nop
    1584:	00000000 	nop
    1588:	26b50008 	addiu	s5,s5,8
    158c:	16951e91 	bne	s4,s5,8fd4 <inst_error>
    1590:	00000000 	nop
    1594:	00000000 	nop
    1598:	001fb021 	addu	s6,zero,ra
    159c:	3c0c68e1 	lui	t4,0x68e1
    15a0:	358c1960 	ori	t4,t4,0x1960
    15a4:	3c0d8bb6 	lui	t5,0x8bb6
    15a8:	35ad5900 	ori	t5,t5,0x5900
    15ac:	24100000 	li	s0,0
    15b0:	1000000d 	b	15e8 <n38_jal_test+0x15e8>
    15b4:	24120000 	li	s2,0
    15b8:	00000000 	nop
    15bc:	3c1068e1 	lui	s0,0x68e1
    15c0:	36101960 	ori	s0,s0,0x1960
    15c4:	0c000580 	jal	1600 <n38_jal_test+0x1600>
    15c8:	00000000 	nop
    15cc:	1000000e 	b	1608 <n38_jal_test+0x1608>
    15d0:	00000000 	nop
    15d4:	00000000 	nop
    15d8:	00000021 	move	zero,zero
    15dc:	00000021 	move	zero,zero
    15e0:	00000021 	move	zero,zero
    15e4:	00000021 	move	zero,zero
    15e8:	0c00056f 	jal	15bc <n38_jal_test+0x15bc>
    15ec:	00000000 	nop
    15f0:	10000005 	b	1608 <n38_jal_test+0x1608>
    15f4:	00000000 	nop
    15f8:	00000000 	nop
    15fc:	00000021 	move	zero,zero
    1600:	3c128bb6 	lui	s2,0x8bb6
    1604:	36525900 	ori	s2,s2,0x5900
    1608:	001fa021 	addu	s4,zero,ra
    160c:	0016f821 	addu	ra,zero,s6
    1610:	3c150000 	lui	s5,0x0
    1614:	26b515c4 	addiu	s5,s5,5572
    1618:	3c0d68e1 	lui	t5,0x68e1
    161c:	35ad1960 	ori	t5,t5,0x1960
    1620:	160d1e6c 	bne	s0,t5,8fd4 <inst_error>
    1624:	00000000 	nop
    1628:	00000000 	nop
    162c:	3c0c8bb6 	lui	t4,0x8bb6
    1630:	358c5900 	ori	t4,t4,0x5900
    1634:	164c1e67 	bne	s2,t4,8fd4 <inst_error>
    1638:	00000000 	nop
    163c:	00000000 	nop
    1640:	26b50008 	addiu	s5,s5,8
    1644:	16951e63 	bne	s4,s5,8fd4 <inst_error>
    1648:	00000000 	nop
    164c:	00000000 	nop
    1650:	001fb021 	addu	s6,zero,ra
    1654:	3c0c761d 	lui	t4,0x761d
    1658:	358cf4e4 	ori	t4,t4,0xf4e4
    165c:	3c0da9cb 	lui	t5,0xa9cb
    1660:	35ad4b94 	ori	t5,t5,0x4b94
    1664:	24100000 	li	s0,0
    1668:	1000000d 	b	16a0 <n38_jal_test+0x16a0>
    166c:	24120000 	li	s2,0
    1670:	00000000 	nop
    1674:	3c10761d 	lui	s0,0x761d
    1678:	3610f4e4 	ori	s0,s0,0xf4e4
    167c:	0c0005ae 	jal	16b8 <n38_jal_test+0x16b8>
    1680:	00000000 	nop
    1684:	1000000e 	b	16c0 <n38_jal_test+0x16c0>
    1688:	00000000 	nop
    168c:	00000000 	nop
    1690:	00000021 	move	zero,zero
    1694:	00000021 	move	zero,zero
    1698:	00000021 	move	zero,zero
    169c:	00000021 	move	zero,zero
    16a0:	0c00059d 	jal	1674 <n38_jal_test+0x1674>
    16a4:	00000000 	nop
    16a8:	10000005 	b	16c0 <n38_jal_test+0x16c0>
    16ac:	00000000 	nop
    16b0:	00000000 	nop
    16b4:	00000021 	move	zero,zero
    16b8:	3c12a9cb 	lui	s2,0xa9cb
    16bc:	36524b94 	ori	s2,s2,0x4b94
    16c0:	001fa021 	addu	s4,zero,ra
    16c4:	0016f821 	addu	ra,zero,s6
    16c8:	3c150000 	lui	s5,0x0
    16cc:	26b5167c 	addiu	s5,s5,5756
    16d0:	3c0d761d 	lui	t5,0x761d
    16d4:	35adf4e4 	ori	t5,t5,0xf4e4
    16d8:	160d1e3e 	bne	s0,t5,8fd4 <inst_error>
    16dc:	00000000 	nop
    16e0:	00000000 	nop
    16e4:	3c0ca9cb 	lui	t4,0xa9cb
    16e8:	358c4b94 	ori	t4,t4,0x4b94
    16ec:	164c1e39 	bne	s2,t4,8fd4 <inst_error>
    16f0:	00000000 	nop
    16f4:	00000000 	nop
    16f8:	26b50008 	addiu	s5,s5,8
    16fc:	16951e35 	bne	s4,s5,8fd4 <inst_error>
    1700:	00000000 	nop
    1704:	00000000 	nop
    1708:	001fb021 	addu	s6,zero,ra
    170c:	3c0ccf09 	lui	t4,0xcf09
    1710:	358c190a 	ori	t4,t4,0x190a
    1714:	3c0d38d5 	lui	t5,0x38d5
    1718:	35ada080 	ori	t5,t5,0xa080
    171c:	24100000 	li	s0,0
    1720:	1000000d 	b	1758 <n38_jal_test+0x1758>
    1724:	24120000 	li	s2,0
    1728:	00000000 	nop
    172c:	3c10cf09 	lui	s0,0xcf09
    1730:	3610190a 	ori	s0,s0,0x190a
    1734:	0c0005dc 	jal	1770 <n38_jal_test+0x1770>
    1738:	00000000 	nop
    173c:	1000000e 	b	1778 <n38_jal_test+0x1778>
    1740:	00000000 	nop
    1744:	00000000 	nop
    1748:	00000021 	move	zero,zero
    174c:	00000021 	move	zero,zero
    1750:	00000021 	move	zero,zero
    1754:	00000021 	move	zero,zero
    1758:	0c0005cb 	jal	172c <n38_jal_test+0x172c>
    175c:	00000000 	nop
    1760:	10000005 	b	1778 <n38_jal_test+0x1778>
    1764:	00000000 	nop
    1768:	00000000 	nop
    176c:	00000021 	move	zero,zero
    1770:	3c1238d5 	lui	s2,0x38d5
    1774:	3652a080 	ori	s2,s2,0xa080
    1778:	001fa021 	addu	s4,zero,ra
    177c:	0016f821 	addu	ra,zero,s6
    1780:	3c150000 	lui	s5,0x0
    1784:	26b51734 	addiu	s5,s5,5940
    1788:	3c0dcf09 	lui	t5,0xcf09
    178c:	35ad190a 	ori	t5,t5,0x190a
    1790:	160d1e10 	bne	s0,t5,8fd4 <inst_error>
    1794:	00000000 	nop
    1798:	00000000 	nop
    179c:	3c0c38d5 	lui	t4,0x38d5
    17a0:	358ca080 	ori	t4,t4,0xa080
    17a4:	164c1e0b 	bne	s2,t4,8fd4 <inst_error>
    17a8:	00000000 	nop
    17ac:	00000000 	nop
    17b0:	26b50008 	addiu	s5,s5,8
    17b4:	16951e07 	bne	s4,s5,8fd4 <inst_error>
    17b8:	00000000 	nop
    17bc:	00000000 	nop
    17c0:	001fb021 	addu	s6,zero,ra
    17c4:	3c0ce30a 	lui	t4,0xe30a
    17c8:	358c8d18 	ori	t4,t4,0x8d18
    17cc:	3c0dc20c 	lui	t5,0xc20c
    17d0:	35ad3730 	ori	t5,t5,0x3730
    17d4:	24100000 	li	s0,0
    17d8:	1000000d 	b	1810 <n38_jal_test+0x1810>
    17dc:	24120000 	li	s2,0
    17e0:	00000000 	nop
    17e4:	3c10e30a 	lui	s0,0xe30a
    17e8:	36108d18 	ori	s0,s0,0x8d18
    17ec:	0c00060a 	jal	1828 <n38_jal_test+0x1828>
    17f0:	00000000 	nop
    17f4:	1000000e 	b	1830 <n38_jal_test+0x1830>
    17f8:	00000000 	nop
    17fc:	00000000 	nop
    1800:	00000021 	move	zero,zero
    1804:	00000021 	move	zero,zero
    1808:	00000021 	move	zero,zero
    180c:	00000021 	move	zero,zero
    1810:	0c0005f9 	jal	17e4 <n38_jal_test+0x17e4>
    1814:	00000000 	nop
    1818:	10000005 	b	1830 <n38_jal_test+0x1830>
    181c:	00000000 	nop
    1820:	00000000 	nop
    1824:	00000021 	move	zero,zero
    1828:	3c12c20c 	lui	s2,0xc20c
    182c:	36523730 	ori	s2,s2,0x3730
    1830:	001fa021 	addu	s4,zero,ra
    1834:	0016f821 	addu	ra,zero,s6
    1838:	3c150000 	lui	s5,0x0
    183c:	26b517ec 	addiu	s5,s5,6124
    1840:	3c0de30a 	lui	t5,0xe30a
    1844:	35ad8d18 	ori	t5,t5,0x8d18
    1848:	160d1de2 	bne	s0,t5,8fd4 <inst_error>
    184c:	00000000 	nop
    1850:	00000000 	nop
    1854:	3c0cc20c 	lui	t4,0xc20c
    1858:	358c3730 	ori	t4,t4,0x3730
    185c:	164c1ddd 	bne	s2,t4,8fd4 <inst_error>
    1860:	00000000 	nop
    1864:	00000000 	nop
    1868:	26b50008 	addiu	s5,s5,8
    186c:	16951dd9 	bne	s4,s5,8fd4 <inst_error>
    1870:	00000000 	nop
    1874:	00000000 	nop
    1878:	001fb021 	addu	s6,zero,ra
    187c:	3c0ced68 	lui	t4,0xed68
    1880:	358c78d8 	ori	t4,t4,0x78d8
    1884:	3c0df351 	lui	t5,0xf351
    1888:	35ada7d0 	ori	t5,t5,0xa7d0
    188c:	24100000 	li	s0,0
    1890:	1000000d 	b	18c8 <n38_jal_test+0x18c8>
    1894:	24120000 	li	s2,0
    1898:	00000000 	nop
    189c:	3c10ed68 	lui	s0,0xed68
    18a0:	361078d8 	ori	s0,s0,0x78d8
    18a4:	0c000638 	jal	18e0 <n38_jal_test+0x18e0>
    18a8:	00000000 	nop
    18ac:	1000000e 	b	18e8 <n38_jal_test+0x18e8>
    18b0:	00000000 	nop
    18b4:	00000000 	nop
    18b8:	00000021 	move	zero,zero
    18bc:	00000021 	move	zero,zero
    18c0:	00000021 	move	zero,zero
    18c4:	00000021 	move	zero,zero
    18c8:	0c000627 	jal	189c <n38_jal_test+0x189c>
    18cc:	00000000 	nop
    18d0:	10000005 	b	18e8 <n38_jal_test+0x18e8>
    18d4:	00000000 	nop
    18d8:	00000000 	nop
    18dc:	00000021 	move	zero,zero
    18e0:	3c12f351 	lui	s2,0xf351
    18e4:	3652a7d0 	ori	s2,s2,0xa7d0
    18e8:	001fa021 	addu	s4,zero,ra
    18ec:	0016f821 	addu	ra,zero,s6
    18f0:	3c150000 	lui	s5,0x0
    18f4:	26b518a4 	addiu	s5,s5,6308
    18f8:	3c0ded68 	lui	t5,0xed68
    18fc:	35ad78d8 	ori	t5,t5,0x78d8
    1900:	160d1db4 	bne	s0,t5,8fd4 <inst_error>
    1904:	00000000 	nop
    1908:	00000000 	nop
    190c:	3c0cf351 	lui	t4,0xf351
    1910:	358ca7d0 	ori	t4,t4,0xa7d0
    1914:	164c1daf 	bne	s2,t4,8fd4 <inst_error>
    1918:	00000000 	nop
    191c:	00000000 	nop
    1920:	26b50008 	addiu	s5,s5,8
    1924:	16951dab 	bne	s4,s5,8fd4 <inst_error>
    1928:	00000000 	nop
    192c:	00000000 	nop
    1930:	001fb021 	addu	s6,zero,ra
    1934:	3c0c2ce2 	lui	t4,0x2ce2
    1938:	358c7912 	ori	t4,t4,0x7912
    193c:	3c0de112 	lui	t5,0xe112
    1940:	35addcc0 	ori	t5,t5,0xdcc0
    1944:	24100000 	li	s0,0
    1948:	1000000d 	b	1980 <n38_jal_test+0x1980>
    194c:	24120000 	li	s2,0
    1950:	00000000 	nop
    1954:	3c102ce2 	lui	s0,0x2ce2
    1958:	36107912 	ori	s0,s0,0x7912
    195c:	0c000666 	jal	1998 <n38_jal_test+0x1998>
    1960:	00000000 	nop
    1964:	1000000e 	b	19a0 <n38_jal_test+0x19a0>
    1968:	00000000 	nop
    196c:	00000000 	nop
    1970:	00000021 	move	zero,zero
    1974:	00000021 	move	zero,zero
    1978:	00000021 	move	zero,zero
    197c:	00000021 	move	zero,zero
    1980:	0c000655 	jal	1954 <n38_jal_test+0x1954>
    1984:	00000000 	nop
    1988:	10000005 	b	19a0 <n38_jal_test+0x19a0>
    198c:	00000000 	nop
    1990:	00000000 	nop
    1994:	00000021 	move	zero,zero
    1998:	3c12e112 	lui	s2,0xe112
    199c:	3652dcc0 	ori	s2,s2,0xdcc0
    19a0:	001fa021 	addu	s4,zero,ra
    19a4:	0016f821 	addu	ra,zero,s6
    19a8:	3c150000 	lui	s5,0x0
    19ac:	26b5195c 	addiu	s5,s5,6492
    19b0:	3c0d2ce2 	lui	t5,0x2ce2
    19b4:	35ad7912 	ori	t5,t5,0x7912
    19b8:	160d1d86 	bne	s0,t5,8fd4 <inst_error>
    19bc:	00000000 	nop
    19c0:	00000000 	nop
    19c4:	3c0ce112 	lui	t4,0xe112
    19c8:	358cdcc0 	ori	t4,t4,0xdcc0
    19cc:	164c1d81 	bne	s2,t4,8fd4 <inst_error>
    19d0:	00000000 	nop
    19d4:	00000000 	nop
    19d8:	26b50008 	addiu	s5,s5,8
    19dc:	16951d7d 	bne	s4,s5,8fd4 <inst_error>
    19e0:	00000000 	nop
    19e4:	00000000 	nop
    19e8:	001fb021 	addu	s6,zero,ra
    19ec:	3c0ccf2e 	lui	t4,0xcf2e
    19f0:	358c7144 	ori	t4,t4,0x7144
    19f4:	3c0d3553 	lui	t5,0x3553
    19f8:	35ad0400 	ori	t5,t5,0x400
    19fc:	24100000 	li	s0,0
    1a00:	1000000d 	b	1a38 <n38_jal_test+0x1a38>
    1a04:	24120000 	li	s2,0
    1a08:	00000000 	nop
    1a0c:	3c10cf2e 	lui	s0,0xcf2e
    1a10:	36107144 	ori	s0,s0,0x7144
    1a14:	0c000694 	jal	1a50 <n38_jal_test+0x1a50>
    1a18:	00000000 	nop
    1a1c:	1000000e 	b	1a58 <n38_jal_test+0x1a58>
    1a20:	00000000 	nop
    1a24:	00000000 	nop
    1a28:	00000021 	move	zero,zero
    1a2c:	00000021 	move	zero,zero
    1a30:	00000021 	move	zero,zero
    1a34:	00000021 	move	zero,zero
    1a38:	0c000683 	jal	1a0c <n38_jal_test+0x1a0c>
    1a3c:	00000000 	nop
    1a40:	10000005 	b	1a58 <n38_jal_test+0x1a58>
    1a44:	00000000 	nop
    1a48:	00000000 	nop
    1a4c:	00000021 	move	zero,zero
    1a50:	3c123553 	lui	s2,0x3553
    1a54:	36520400 	ori	s2,s2,0x400
    1a58:	001fa021 	addu	s4,zero,ra
    1a5c:	0016f821 	addu	ra,zero,s6
    1a60:	3c150000 	lui	s5,0x0
    1a64:	26b51a14 	addiu	s5,s5,6676
    1a68:	3c0dcf2e 	lui	t5,0xcf2e
    1a6c:	35ad7144 	ori	t5,t5,0x7144
    1a70:	160d1d58 	bne	s0,t5,8fd4 <inst_error>
    1a74:	00000000 	nop
    1a78:	00000000 	nop
    1a7c:	3c0c3553 	lui	t4,0x3553
    1a80:	358c0400 	ori	t4,t4,0x400
    1a84:	164c1d53 	bne	s2,t4,8fd4 <inst_error>
    1a88:	00000000 	nop
    1a8c:	00000000 	nop
    1a90:	26b50008 	addiu	s5,s5,8
    1a94:	16951d4f 	bne	s4,s5,8fd4 <inst_error>
    1a98:	00000000 	nop
    1a9c:	00000000 	nop
    1aa0:	001fb021 	addu	s6,zero,ra
    1aa4:	3c0cc781 	lui	t4,0xc781
    1aa8:	358c9b20 	ori	t4,t4,0x9b20
    1aac:	3c0d8274 	lui	t5,0x8274
    1ab0:	35adcb2e 	ori	t5,t5,0xcb2e
    1ab4:	24100000 	li	s0,0
    1ab8:	1000000d 	b	1af0 <n38_jal_test+0x1af0>
    1abc:	24120000 	li	s2,0
    1ac0:	00000000 	nop
    1ac4:	3c10c781 	lui	s0,0xc781
    1ac8:	36109b20 	ori	s0,s0,0x9b20
    1acc:	0c0006c2 	jal	1b08 <n38_jal_test+0x1b08>
    1ad0:	00000000 	nop
    1ad4:	1000000e 	b	1b10 <n38_jal_test+0x1b10>
    1ad8:	00000000 	nop
    1adc:	00000000 	nop
    1ae0:	00000021 	move	zero,zero
    1ae4:	00000021 	move	zero,zero
    1ae8:	00000021 	move	zero,zero
    1aec:	00000021 	move	zero,zero
    1af0:	0c0006b1 	jal	1ac4 <n38_jal_test+0x1ac4>
    1af4:	00000000 	nop
    1af8:	10000005 	b	1b10 <n38_jal_test+0x1b10>
    1afc:	00000000 	nop
    1b00:	00000000 	nop
    1b04:	00000021 	move	zero,zero
    1b08:	3c128274 	lui	s2,0x8274
    1b0c:	3652cb2e 	ori	s2,s2,0xcb2e
    1b10:	001fa021 	addu	s4,zero,ra
    1b14:	0016f821 	addu	ra,zero,s6
    1b18:	3c150000 	lui	s5,0x0
    1b1c:	26b51acc 	addiu	s5,s5,6860
    1b20:	3c0dc781 	lui	t5,0xc781
    1b24:	35ad9b20 	ori	t5,t5,0x9b20
    1b28:	160d1d2a 	bne	s0,t5,8fd4 <inst_error>
    1b2c:	00000000 	nop
    1b30:	00000000 	nop
    1b34:	3c0c8274 	lui	t4,0x8274
    1b38:	358ccb2e 	ori	t4,t4,0xcb2e
    1b3c:	164c1d25 	bne	s2,t4,8fd4 <inst_error>
    1b40:	00000000 	nop
    1b44:	00000000 	nop
    1b48:	26b50008 	addiu	s5,s5,8
    1b4c:	16951d21 	bne	s4,s5,8fd4 <inst_error>
    1b50:	00000000 	nop
    1b54:	00000000 	nop
    1b58:	001fb021 	addu	s6,zero,ra
    1b5c:	3c0cc179 	lui	t4,0xc179
    1b60:	358c9706 	ori	t4,t4,0x9706
    1b64:	3c0d493e 	lui	t5,0x493e
    1b68:	35ad5d5c 	ori	t5,t5,0x5d5c
    1b6c:	24100000 	li	s0,0
    1b70:	1000000d 	b	1ba8 <n38_jal_test+0x1ba8>
    1b74:	24120000 	li	s2,0
    1b78:	00000000 	nop
    1b7c:	3c10c179 	lui	s0,0xc179
    1b80:	36109706 	ori	s0,s0,0x9706
    1b84:	0c0006f0 	jal	1bc0 <n38_jal_test+0x1bc0>
    1b88:	00000000 	nop
    1b8c:	1000000e 	b	1bc8 <n38_jal_test+0x1bc8>
    1b90:	00000000 	nop
    1b94:	00000000 	nop
    1b98:	00000021 	move	zero,zero
    1b9c:	00000021 	move	zero,zero
    1ba0:	00000021 	move	zero,zero
    1ba4:	00000021 	move	zero,zero
    1ba8:	0c0006df 	jal	1b7c <n38_jal_test+0x1b7c>
    1bac:	00000000 	nop
    1bb0:	10000005 	b	1bc8 <n38_jal_test+0x1bc8>
    1bb4:	00000000 	nop
    1bb8:	00000000 	nop
    1bbc:	00000021 	move	zero,zero
    1bc0:	3c12493e 	lui	s2,0x493e
    1bc4:	36525d5c 	ori	s2,s2,0x5d5c
    1bc8:	001fa021 	addu	s4,zero,ra
    1bcc:	0016f821 	addu	ra,zero,s6
    1bd0:	3c150000 	lui	s5,0x0
    1bd4:	26b51b84 	addiu	s5,s5,7044
    1bd8:	3c0dc179 	lui	t5,0xc179
    1bdc:	35ad9706 	ori	t5,t5,0x9706
    1be0:	160d1cfc 	bne	s0,t5,8fd4 <inst_error>
    1be4:	00000000 	nop
    1be8:	00000000 	nop
    1bec:	3c0c493e 	lui	t4,0x493e
    1bf0:	358c5d5c 	ori	t4,t4,0x5d5c
    1bf4:	164c1cf7 	bne	s2,t4,8fd4 <inst_error>
    1bf8:	00000000 	nop
    1bfc:	00000000 	nop
    1c00:	26b50008 	addiu	s5,s5,8
    1c04:	16951cf3 	bne	s4,s5,8fd4 <inst_error>
    1c08:	00000000 	nop
    1c0c:	00000000 	nop
    1c10:	001fb021 	addu	s6,zero,ra
    1c14:	3c0cd28b 	lui	t4,0xd28b
    1c18:	358c3668 	ori	t4,t4,0x3668
    1c1c:	3c0ddb28 	lui	t5,0xdb28
    1c20:	35ad0f90 	ori	t5,t5,0xf90
    1c24:	24100000 	li	s0,0
    1c28:	1000000d 	b	1c60 <n38_jal_test+0x1c60>
    1c2c:	24120000 	li	s2,0
    1c30:	00000000 	nop
    1c34:	3c10d28b 	lui	s0,0xd28b
    1c38:	36103668 	ori	s0,s0,0x3668
    1c3c:	0c00071e 	jal	1c78 <n38_jal_test+0x1c78>
    1c40:	00000000 	nop
    1c44:	1000000e 	b	1c80 <n38_jal_test+0x1c80>
    1c48:	00000000 	nop
    1c4c:	00000000 	nop
    1c50:	00000021 	move	zero,zero
    1c54:	00000021 	move	zero,zero
    1c58:	00000021 	move	zero,zero
    1c5c:	00000021 	move	zero,zero
    1c60:	0c00070d 	jal	1c34 <n38_jal_test+0x1c34>
    1c64:	00000000 	nop
    1c68:	10000005 	b	1c80 <n38_jal_test+0x1c80>
    1c6c:	00000000 	nop
    1c70:	00000000 	nop
    1c74:	00000021 	move	zero,zero
    1c78:	3c12db28 	lui	s2,0xdb28
    1c7c:	36520f90 	ori	s2,s2,0xf90
    1c80:	001fa021 	addu	s4,zero,ra
    1c84:	0016f821 	addu	ra,zero,s6
    1c88:	3c150000 	lui	s5,0x0
    1c8c:	26b51c3c 	addiu	s5,s5,7228
    1c90:	3c0dd28b 	lui	t5,0xd28b
    1c94:	35ad3668 	ori	t5,t5,0x3668
    1c98:	160d1cce 	bne	s0,t5,8fd4 <inst_error>
    1c9c:	00000000 	nop
    1ca0:	00000000 	nop
    1ca4:	3c0cdb28 	lui	t4,0xdb28
    1ca8:	358c0f90 	ori	t4,t4,0xf90
    1cac:	164c1cc9 	bne	s2,t4,8fd4 <inst_error>
    1cb0:	00000000 	nop
    1cb4:	00000000 	nop
    1cb8:	26b50008 	addiu	s5,s5,8
    1cbc:	16951cc5 	bne	s4,s5,8fd4 <inst_error>
    1cc0:	00000000 	nop
    1cc4:	00000000 	nop
    1cc8:	001fb021 	addu	s6,zero,ra
    1ccc:	3c0c026a 	lui	t4,0x26a
    1cd0:	358ca762 	ori	t4,t4,0xa762
    1cd4:	3c0d3e6c 	lui	t5,0x3e6c
    1cd8:	35adae50 	ori	t5,t5,0xae50
    1cdc:	24100000 	li	s0,0
    1ce0:	1000000d 	b	1d18 <n38_jal_test+0x1d18>
    1ce4:	24120000 	li	s2,0
    1ce8:	00000000 	nop
    1cec:	3c10026a 	lui	s0,0x26a
    1cf0:	3610a762 	ori	s0,s0,0xa762
    1cf4:	0c00074c 	jal	1d30 <n38_jal_test+0x1d30>
    1cf8:	00000000 	nop
    1cfc:	1000000e 	b	1d38 <n38_jal_test+0x1d38>
    1d00:	00000000 	nop
    1d04:	00000000 	nop
    1d08:	00000021 	move	zero,zero
    1d0c:	00000021 	move	zero,zero
    1d10:	00000021 	move	zero,zero
    1d14:	00000021 	move	zero,zero
    1d18:	0c00073b 	jal	1cec <n38_jal_test+0x1cec>
    1d1c:	00000000 	nop
    1d20:	10000005 	b	1d38 <n38_jal_test+0x1d38>
    1d24:	00000000 	nop
    1d28:	00000000 	nop
    1d2c:	00000021 	move	zero,zero
    1d30:	3c123e6c 	lui	s2,0x3e6c
    1d34:	3652ae50 	ori	s2,s2,0xae50
    1d38:	001fa021 	addu	s4,zero,ra
    1d3c:	0016f821 	addu	ra,zero,s6
    1d40:	3c150000 	lui	s5,0x0
    1d44:	26b51cf4 	addiu	s5,s5,7412
    1d48:	3c0d026a 	lui	t5,0x26a
    1d4c:	35ada762 	ori	t5,t5,0xa762
    1d50:	160d1ca0 	bne	s0,t5,8fd4 <inst_error>
    1d54:	00000000 	nop
    1d58:	00000000 	nop
    1d5c:	3c0c3e6c 	lui	t4,0x3e6c
    1d60:	358cae50 	ori	t4,t4,0xae50
    1d64:	164c1c9b 	bne	s2,t4,8fd4 <inst_error>
    1d68:	00000000 	nop
    1d6c:	00000000 	nop
    1d70:	26b50008 	addiu	s5,s5,8
    1d74:	16951c97 	bne	s4,s5,8fd4 <inst_error>
    1d78:	00000000 	nop
    1d7c:	00000000 	nop
    1d80:	001fb021 	addu	s6,zero,ra
    1d84:	3c0c66ef 	lui	t4,0x66ef
    1d88:	358c8290 	ori	t4,t4,0x8290
    1d8c:	3c0d649f 	lui	t5,0x649f
    1d90:	35ad12da 	ori	t5,t5,0x12da
    1d94:	24100000 	li	s0,0
    1d98:	1000000d 	b	1dd0 <n38_jal_test+0x1dd0>
    1d9c:	24120000 	li	s2,0
    1da0:	00000000 	nop
    1da4:	3c1066ef 	lui	s0,0x66ef
    1da8:	36108290 	ori	s0,s0,0x8290
    1dac:	0c00077a 	jal	1de8 <n38_jal_test+0x1de8>
    1db0:	00000000 	nop
    1db4:	1000000e 	b	1df0 <n38_jal_test+0x1df0>
    1db8:	00000000 	nop
    1dbc:	00000000 	nop
    1dc0:	00000021 	move	zero,zero
    1dc4:	00000021 	move	zero,zero
    1dc8:	00000021 	move	zero,zero
    1dcc:	00000021 	move	zero,zero
    1dd0:	0c000769 	jal	1da4 <n38_jal_test+0x1da4>
    1dd4:	00000000 	nop
    1dd8:	10000005 	b	1df0 <n38_jal_test+0x1df0>
    1ddc:	00000000 	nop
    1de0:	00000000 	nop
    1de4:	00000021 	move	zero,zero
    1de8:	3c12649f 	lui	s2,0x649f
    1dec:	365212da 	ori	s2,s2,0x12da
    1df0:	001fa021 	addu	s4,zero,ra
    1df4:	0016f821 	addu	ra,zero,s6
    1df8:	3c150000 	lui	s5,0x0
    1dfc:	26b51dac 	addiu	s5,s5,7596
    1e00:	3c0d66ef 	lui	t5,0x66ef
    1e04:	35ad8290 	ori	t5,t5,0x8290
    1e08:	160d1c72 	bne	s0,t5,8fd4 <inst_error>
    1e0c:	00000000 	nop
    1e10:	00000000 	nop
    1e14:	3c0c649f 	lui	t4,0x649f
    1e18:	358c12da 	ori	t4,t4,0x12da
    1e1c:	164c1c6d 	bne	s2,t4,8fd4 <inst_error>
    1e20:	00000000 	nop
    1e24:	00000000 	nop
    1e28:	26b50008 	addiu	s5,s5,8
    1e2c:	16951c69 	bne	s4,s5,8fd4 <inst_error>
    1e30:	00000000 	nop
    1e34:	00000000 	nop
    1e38:	001fb021 	addu	s6,zero,ra
    1e3c:	3c0c62b6 	lui	t4,0x62b6
    1e40:	358cf780 	ori	t4,t4,0xf780
    1e44:	3c0d3a97 	lui	t5,0x3a97
    1e48:	35ad2800 	ori	t5,t5,0x2800
    1e4c:	24100000 	li	s0,0
    1e50:	1000000d 	b	1e88 <n38_jal_test+0x1e88>
    1e54:	24120000 	li	s2,0
    1e58:	00000000 	nop
    1e5c:	3c1062b6 	lui	s0,0x62b6
    1e60:	3610f780 	ori	s0,s0,0xf780
    1e64:	0c0007a8 	jal	1ea0 <n38_jal_test+0x1ea0>
    1e68:	00000000 	nop
    1e6c:	1000000e 	b	1ea8 <n38_jal_test+0x1ea8>
    1e70:	00000000 	nop
    1e74:	00000000 	nop
    1e78:	00000021 	move	zero,zero
    1e7c:	00000021 	move	zero,zero
    1e80:	00000021 	move	zero,zero
    1e84:	00000021 	move	zero,zero
    1e88:	0c000797 	jal	1e5c <n38_jal_test+0x1e5c>
    1e8c:	00000000 	nop
    1e90:	10000005 	b	1ea8 <n38_jal_test+0x1ea8>
    1e94:	00000000 	nop
    1e98:	00000000 	nop
    1e9c:	00000021 	move	zero,zero
    1ea0:	3c123a97 	lui	s2,0x3a97
    1ea4:	36522800 	ori	s2,s2,0x2800
    1ea8:	001fa021 	addu	s4,zero,ra
    1eac:	0016f821 	addu	ra,zero,s6
    1eb0:	3c150000 	lui	s5,0x0
    1eb4:	26b51e64 	addiu	s5,s5,7780
    1eb8:	3c0d62b6 	lui	t5,0x62b6
    1ebc:	35adf780 	ori	t5,t5,0xf780
    1ec0:	160d1c44 	bne	s0,t5,8fd4 <inst_error>
    1ec4:	00000000 	nop
    1ec8:	00000000 	nop
    1ecc:	3c0c3a97 	lui	t4,0x3a97
    1ed0:	358c2800 	ori	t4,t4,0x2800
    1ed4:	164c1c3f 	bne	s2,t4,8fd4 <inst_error>
    1ed8:	00000000 	nop
    1edc:	00000000 	nop
    1ee0:	26b50008 	addiu	s5,s5,8
    1ee4:	16951c3b 	bne	s4,s5,8fd4 <inst_error>
    1ee8:	00000000 	nop
    1eec:	00000000 	nop
    1ef0:	001fb021 	addu	s6,zero,ra
    1ef4:	3c0cc820 	lui	t4,0xc820
    1ef8:	358ccfb0 	ori	t4,t4,0xcfb0
    1efc:	3c0dfb4f 	lui	t5,0xfb4f
    1f00:	35ad92d6 	ori	t5,t5,0x92d6
    1f04:	24100000 	li	s0,0
    1f08:	1000000d 	b	1f40 <n38_jal_test+0x1f40>
    1f0c:	24120000 	li	s2,0
    1f10:	00000000 	nop
    1f14:	3c10c820 	lui	s0,0xc820
    1f18:	3610cfb0 	ori	s0,s0,0xcfb0
    1f1c:	0c0007d6 	jal	1f58 <n38_jal_test+0x1f58>
    1f20:	00000000 	nop
    1f24:	1000000e 	b	1f60 <n38_jal_test+0x1f60>
    1f28:	00000000 	nop
    1f2c:	00000000 	nop
    1f30:	00000021 	move	zero,zero
    1f34:	00000021 	move	zero,zero
    1f38:	00000021 	move	zero,zero
    1f3c:	00000021 	move	zero,zero
    1f40:	0c0007c5 	jal	1f14 <n38_jal_test+0x1f14>
    1f44:	00000000 	nop
    1f48:	10000005 	b	1f60 <n38_jal_test+0x1f60>
    1f4c:	00000000 	nop
    1f50:	00000000 	nop
    1f54:	00000021 	move	zero,zero
    1f58:	3c12fb4f 	lui	s2,0xfb4f
    1f5c:	365292d6 	ori	s2,s2,0x92d6
    1f60:	001fa021 	addu	s4,zero,ra
    1f64:	0016f821 	addu	ra,zero,s6
    1f68:	3c150000 	lui	s5,0x0
    1f6c:	26b51f1c 	addiu	s5,s5,7964
    1f70:	3c0dc820 	lui	t5,0xc820
    1f74:	35adcfb0 	ori	t5,t5,0xcfb0
    1f78:	160d1c16 	bne	s0,t5,8fd4 <inst_error>
    1f7c:	00000000 	nop
    1f80:	00000000 	nop
    1f84:	3c0cfb4f 	lui	t4,0xfb4f
    1f88:	358c92d6 	ori	t4,t4,0x92d6
    1f8c:	164c1c11 	bne	s2,t4,8fd4 <inst_error>
    1f90:	00000000 	nop
    1f94:	00000000 	nop
    1f98:	26b50008 	addiu	s5,s5,8
    1f9c:	16951c0d 	bne	s4,s5,8fd4 <inst_error>
    1fa0:	00000000 	nop
    1fa4:	00000000 	nop
    1fa8:	001fb021 	addu	s6,zero,ra
    1fac:	3c0cafb1 	lui	t4,0xafb1
    1fb0:	358c1450 	ori	t4,t4,0x1450
    1fb4:	3c0d6f3f 	lui	t5,0x6f3f
    1fb8:	35ad4ac4 	ori	t5,t5,0x4ac4
    1fbc:	24100000 	li	s0,0
    1fc0:	1000000d 	b	1ff8 <n38_jal_test+0x1ff8>
    1fc4:	24120000 	li	s2,0
    1fc8:	00000000 	nop
    1fcc:	3c10afb1 	lui	s0,0xafb1
    1fd0:	36101450 	ori	s0,s0,0x1450
    1fd4:	0c000804 	jal	2010 <n38_jal_test+0x2010>
    1fd8:	00000000 	nop
    1fdc:	1000000e 	b	2018 <n38_jal_test+0x2018>
    1fe0:	00000000 	nop
    1fe4:	00000000 	nop
    1fe8:	00000021 	move	zero,zero
    1fec:	00000021 	move	zero,zero
    1ff0:	00000021 	move	zero,zero
    1ff4:	00000021 	move	zero,zero
    1ff8:	0c0007f3 	jal	1fcc <n38_jal_test+0x1fcc>
    1ffc:	00000000 	nop
    2000:	10000005 	b	2018 <n38_jal_test+0x2018>
    2004:	00000000 	nop
    2008:	00000000 	nop
    200c:	00000021 	move	zero,zero
    2010:	3c126f3f 	lui	s2,0x6f3f
    2014:	36524ac4 	ori	s2,s2,0x4ac4
    2018:	001fa021 	addu	s4,zero,ra
    201c:	0016f821 	addu	ra,zero,s6
    2020:	3c150000 	lui	s5,0x0
    2024:	26b51fd4 	addiu	s5,s5,8148
    2028:	3c0dafb1 	lui	t5,0xafb1
    202c:	35ad1450 	ori	t5,t5,0x1450
    2030:	160d1be8 	bne	s0,t5,8fd4 <inst_error>
    2034:	00000000 	nop
    2038:	00000000 	nop
    203c:	3c0c6f3f 	lui	t4,0x6f3f
    2040:	358c4ac4 	ori	t4,t4,0x4ac4
    2044:	164c1be3 	bne	s2,t4,8fd4 <inst_error>
    2048:	00000000 	nop
    204c:	00000000 	nop
    2050:	26b50008 	addiu	s5,s5,8
    2054:	16951bdf 	bne	s4,s5,8fd4 <inst_error>
    2058:	00000000 	nop
    205c:	00000000 	nop
    2060:	001fb021 	addu	s6,zero,ra
    2064:	3c0c4f07 	lui	t4,0x4f07
    2068:	358cfcf0 	ori	t4,t4,0xfcf0
    206c:	3c0dc90e 	lui	t5,0xc90e
    2070:	35add8f2 	ori	t5,t5,0xd8f2
    2074:	24100000 	li	s0,0
    2078:	1000000d 	b	20b0 <n38_jal_test+0x20b0>
    207c:	24120000 	li	s2,0
    2080:	00000000 	nop
    2084:	3c104f07 	lui	s0,0x4f07
    2088:	3610fcf0 	ori	s0,s0,0xfcf0
    208c:	0c000832 	jal	20c8 <n38_jal_test+0x20c8>
    2090:	00000000 	nop
    2094:	1000000e 	b	20d0 <n38_jal_test+0x20d0>
    2098:	00000000 	nop
    209c:	00000000 	nop
    20a0:	00000021 	move	zero,zero
    20a4:	00000021 	move	zero,zero
    20a8:	00000021 	move	zero,zero
    20ac:	00000021 	move	zero,zero
    20b0:	0c000821 	jal	2084 <n38_jal_test+0x2084>
    20b4:	00000000 	nop
    20b8:	10000005 	b	20d0 <n38_jal_test+0x20d0>
    20bc:	00000000 	nop
    20c0:	00000000 	nop
    20c4:	00000021 	move	zero,zero
    20c8:	3c12c90e 	lui	s2,0xc90e
    20cc:	3652d8f2 	ori	s2,s2,0xd8f2
    20d0:	001fa021 	addu	s4,zero,ra
    20d4:	0016f821 	addu	ra,zero,s6
    20d8:	3c150000 	lui	s5,0x0
    20dc:	26b5208c 	addiu	s5,s5,8332
    20e0:	3c0d4f07 	lui	t5,0x4f07
    20e4:	35adfcf0 	ori	t5,t5,0xfcf0
    20e8:	160d1bba 	bne	s0,t5,8fd4 <inst_error>
    20ec:	00000000 	nop
    20f0:	00000000 	nop
    20f4:	3c0cc90e 	lui	t4,0xc90e
    20f8:	358cd8f2 	ori	t4,t4,0xd8f2
    20fc:	164c1bb5 	bne	s2,t4,8fd4 <inst_error>
    2100:	00000000 	nop
    2104:	00000000 	nop
    2108:	26b50008 	addiu	s5,s5,8
    210c:	16951bb1 	bne	s4,s5,8fd4 <inst_error>
    2110:	00000000 	nop
    2114:	00000000 	nop
    2118:	001fb021 	addu	s6,zero,ra
    211c:	3c0c348b 	lui	t4,0x348b
    2120:	358ccc32 	ori	t4,t4,0xcc32
    2124:	3c0daf14 	lui	t5,0xaf14
    2128:	35add88e 	ori	t5,t5,0xd88e
    212c:	24100000 	li	s0,0
    2130:	1000000d 	b	2168 <n38_jal_test+0x2168>
    2134:	24120000 	li	s2,0
    2138:	00000000 	nop
    213c:	3c10348b 	lui	s0,0x348b
    2140:	3610cc32 	ori	s0,s0,0xcc32
    2144:	0c000860 	jal	2180 <n38_jal_test+0x2180>
    2148:	00000000 	nop
    214c:	1000000e 	b	2188 <n38_jal_test+0x2188>
    2150:	00000000 	nop
    2154:	00000000 	nop
    2158:	00000021 	move	zero,zero
    215c:	00000021 	move	zero,zero
    2160:	00000021 	move	zero,zero
    2164:	00000021 	move	zero,zero
    2168:	0c00084f 	jal	213c <n38_jal_test+0x213c>
    216c:	00000000 	nop
    2170:	10000005 	b	2188 <n38_jal_test+0x2188>
    2174:	00000000 	nop
    2178:	00000000 	nop
    217c:	00000021 	move	zero,zero
    2180:	3c12af14 	lui	s2,0xaf14
    2184:	3652d88e 	ori	s2,s2,0xd88e
    2188:	001fa021 	addu	s4,zero,ra
    218c:	0016f821 	addu	ra,zero,s6
    2190:	3c150000 	lui	s5,0x0
    2194:	26b52144 	addiu	s5,s5,8516
    2198:	3c0d348b 	lui	t5,0x348b
    219c:	35adcc32 	ori	t5,t5,0xcc32
    21a0:	160d1b8c 	bne	s0,t5,8fd4 <inst_error>
    21a4:	00000000 	nop
    21a8:	00000000 	nop
    21ac:	3c0caf14 	lui	t4,0xaf14
    21b0:	358cd88e 	ori	t4,t4,0xd88e
    21b4:	164c1b87 	bne	s2,t4,8fd4 <inst_error>
    21b8:	00000000 	nop
    21bc:	00000000 	nop
    21c0:	26b50008 	addiu	s5,s5,8
    21c4:	16951b83 	bne	s4,s5,8fd4 <inst_error>
    21c8:	00000000 	nop
    21cc:	00000000 	nop
    21d0:	001fb021 	addu	s6,zero,ra
    21d4:	3c0cac0d 	lui	t4,0xac0d
    21d8:	358c1b82 	ori	t4,t4,0x1b82
    21dc:	3c0d859c 	lui	t5,0x859c
    21e0:	35ad9fa0 	ori	t5,t5,0x9fa0
    21e4:	24100000 	li	s0,0
    21e8:	1000000d 	b	2220 <n38_jal_test+0x2220>
    21ec:	24120000 	li	s2,0
    21f0:	00000000 	nop
    21f4:	3c10ac0d 	lui	s0,0xac0d
    21f8:	36101b82 	ori	s0,s0,0x1b82
    21fc:	0c00088e 	jal	2238 <n38_jal_test+0x2238>
    2200:	00000000 	nop
    2204:	1000000e 	b	2240 <n38_jal_test+0x2240>
    2208:	00000000 	nop
    220c:	00000000 	nop
    2210:	00000021 	move	zero,zero
    2214:	00000021 	move	zero,zero
    2218:	00000021 	move	zero,zero
    221c:	00000021 	move	zero,zero
    2220:	0c00087d 	jal	21f4 <n38_jal_test+0x21f4>
    2224:	00000000 	nop
    2228:	10000005 	b	2240 <n38_jal_test+0x2240>
    222c:	00000000 	nop
    2230:	00000000 	nop
    2234:	00000021 	move	zero,zero
    2238:	3c12859c 	lui	s2,0x859c
    223c:	36529fa0 	ori	s2,s2,0x9fa0
    2240:	001fa021 	addu	s4,zero,ra
    2244:	0016f821 	addu	ra,zero,s6
    2248:	3c150000 	lui	s5,0x0
    224c:	26b521fc 	addiu	s5,s5,8700
    2250:	3c0dac0d 	lui	t5,0xac0d
    2254:	35ad1b82 	ori	t5,t5,0x1b82
    2258:	160d1b5e 	bne	s0,t5,8fd4 <inst_error>
    225c:	00000000 	nop
    2260:	00000000 	nop
    2264:	3c0c859c 	lui	t4,0x859c
    2268:	358c9fa0 	ori	t4,t4,0x9fa0
    226c:	164c1b59 	bne	s2,t4,8fd4 <inst_error>
    2270:	00000000 	nop
    2274:	00000000 	nop
    2278:	26b50008 	addiu	s5,s5,8
    227c:	16951b55 	bne	s4,s5,8fd4 <inst_error>
    2280:	00000000 	nop
    2284:	00000000 	nop
    2288:	001fb021 	addu	s6,zero,ra
    228c:	3c0c2967 	lui	t4,0x2967
    2290:	358ca800 	ori	t4,t4,0xa800
    2294:	3c0d9be6 	lui	t5,0x9be6
    2298:	35ad79e0 	ori	t5,t5,0x79e0
    229c:	24100000 	li	s0,0
    22a0:	1000000d 	b	22d8 <n38_jal_test+0x22d8>
    22a4:	24120000 	li	s2,0
    22a8:	00000000 	nop
    22ac:	3c102967 	lui	s0,0x2967
    22b0:	3610a800 	ori	s0,s0,0xa800
    22b4:	0c0008bc 	jal	22f0 <n38_jal_test+0x22f0>
    22b8:	00000000 	nop
    22bc:	1000000e 	b	22f8 <n38_jal_test+0x22f8>
    22c0:	00000000 	nop
    22c4:	00000000 	nop
    22c8:	00000021 	move	zero,zero
    22cc:	00000021 	move	zero,zero
    22d0:	00000021 	move	zero,zero
    22d4:	00000021 	move	zero,zero
    22d8:	0c0008ab 	jal	22ac <n38_jal_test+0x22ac>
    22dc:	00000000 	nop
    22e0:	10000005 	b	22f8 <n38_jal_test+0x22f8>
    22e4:	00000000 	nop
    22e8:	00000000 	nop
    22ec:	00000021 	move	zero,zero
    22f0:	3c129be6 	lui	s2,0x9be6
    22f4:	365279e0 	ori	s2,s2,0x79e0
    22f8:	001fa021 	addu	s4,zero,ra
    22fc:	0016f821 	addu	ra,zero,s6
    2300:	3c150000 	lui	s5,0x0
    2304:	26b522b4 	addiu	s5,s5,8884
    2308:	3c0d2967 	lui	t5,0x2967
    230c:	35ada800 	ori	t5,t5,0xa800
    2310:	160d1b30 	bne	s0,t5,8fd4 <inst_error>
    2314:	00000000 	nop
    2318:	00000000 	nop
    231c:	3c0c9be6 	lui	t4,0x9be6
    2320:	358c79e0 	ori	t4,t4,0x79e0
    2324:	164c1b2b 	bne	s2,t4,8fd4 <inst_error>
    2328:	00000000 	nop
    232c:	00000000 	nop
    2330:	26b50008 	addiu	s5,s5,8
    2334:	16951b27 	bne	s4,s5,8fd4 <inst_error>
    2338:	00000000 	nop
    233c:	00000000 	nop
    2340:	001fb021 	addu	s6,zero,ra
    2344:	3c0c5468 	lui	t4,0x5468
    2348:	358c2b9b 	ori	t4,t4,0x2b9b
    234c:	3c0df6af 	lui	t5,0xf6af
    2350:	35adc130 	ori	t5,t5,0xc130
    2354:	24100000 	li	s0,0
    2358:	1000000d 	b	2390 <n38_jal_test+0x2390>
    235c:	24120000 	li	s2,0
    2360:	00000000 	nop
    2364:	3c105468 	lui	s0,0x5468
    2368:	36102b9b 	ori	s0,s0,0x2b9b
    236c:	0c0008ea 	jal	23a8 <n38_jal_test+0x23a8>
    2370:	00000000 	nop
    2374:	1000000e 	b	23b0 <n38_jal_test+0x23b0>
    2378:	00000000 	nop
    237c:	00000000 	nop
    2380:	00000021 	move	zero,zero
    2384:	00000021 	move	zero,zero
    2388:	00000021 	move	zero,zero
    238c:	00000021 	move	zero,zero
    2390:	0c0008d9 	jal	2364 <n38_jal_test+0x2364>
    2394:	00000000 	nop
    2398:	10000005 	b	23b0 <n38_jal_test+0x23b0>
    239c:	00000000 	nop
    23a0:	00000000 	nop
    23a4:	00000021 	move	zero,zero
    23a8:	3c12f6af 	lui	s2,0xf6af
    23ac:	3652c130 	ori	s2,s2,0xc130
    23b0:	001fa021 	addu	s4,zero,ra
    23b4:	0016f821 	addu	ra,zero,s6
    23b8:	3c150000 	lui	s5,0x0
    23bc:	26b5236c 	addiu	s5,s5,9068
    23c0:	3c0d5468 	lui	t5,0x5468
    23c4:	35ad2b9b 	ori	t5,t5,0x2b9b
    23c8:	160d1b02 	bne	s0,t5,8fd4 <inst_error>
    23cc:	00000000 	nop
    23d0:	00000000 	nop
    23d4:	3c0cf6af 	lui	t4,0xf6af
    23d8:	358cc130 	ori	t4,t4,0xc130
    23dc:	164c1afd 	bne	s2,t4,8fd4 <inst_error>
    23e0:	00000000 	nop
    23e4:	00000000 	nop
    23e8:	26b50008 	addiu	s5,s5,8
    23ec:	16951af9 	bne	s4,s5,8fd4 <inst_error>
    23f0:	00000000 	nop
    23f4:	00000000 	nop
    23f8:	001fb021 	addu	s6,zero,ra
    23fc:	3c0c546c 	lui	t4,0x546c
    2400:	358c98f0 	ori	t4,t4,0x98f0
    2404:	3c0d54bb 	lui	t5,0x54bb
    2408:	35ad0a06 	ori	t5,t5,0xa06
    240c:	24100000 	li	s0,0
    2410:	1000000d 	b	2448 <n38_jal_test+0x2448>
    2414:	24120000 	li	s2,0
    2418:	00000000 	nop
    241c:	3c10546c 	lui	s0,0x546c
    2420:	361098f0 	ori	s0,s0,0x98f0
    2424:	0c000918 	jal	2460 <n38_jal_test+0x2460>
    2428:	00000000 	nop
    242c:	1000000e 	b	2468 <n38_jal_test+0x2468>
    2430:	00000000 	nop
    2434:	00000000 	nop
    2438:	00000021 	move	zero,zero
    243c:	00000021 	move	zero,zero
    2440:	00000021 	move	zero,zero
    2444:	00000021 	move	zero,zero
    2448:	0c000907 	jal	241c <n38_jal_test+0x241c>
    244c:	00000000 	nop
    2450:	10000005 	b	2468 <n38_jal_test+0x2468>
    2454:	00000000 	nop
    2458:	00000000 	nop
    245c:	00000021 	move	zero,zero
    2460:	3c1254bb 	lui	s2,0x54bb
    2464:	36520a06 	ori	s2,s2,0xa06
    2468:	001fa021 	addu	s4,zero,ra
    246c:	0016f821 	addu	ra,zero,s6
    2470:	3c150000 	lui	s5,0x0
    2474:	26b52424 	addiu	s5,s5,9252
    2478:	3c0d546c 	lui	t5,0x546c
    247c:	35ad98f0 	ori	t5,t5,0x98f0
    2480:	160d1ad4 	bne	s0,t5,8fd4 <inst_error>
    2484:	00000000 	nop
    2488:	00000000 	nop
    248c:	3c0c54bb 	lui	t4,0x54bb
    2490:	358c0a06 	ori	t4,t4,0xa06
    2494:	164c1acf 	bne	s2,t4,8fd4 <inst_error>
    2498:	00000000 	nop
    249c:	00000000 	nop
    24a0:	26b50008 	addiu	s5,s5,8
    24a4:	16951acb 	bne	s4,s5,8fd4 <inst_error>
    24a8:	00000000 	nop
    24ac:	00000000 	nop
    24b0:	001fb021 	addu	s6,zero,ra
    24b4:	3c0c0b51 	lui	t4,0xb51
    24b8:	358cbf3f 	ori	t4,t4,0xbf3f
    24bc:	3c0d31c2 	lui	t5,0x31c2
    24c0:	35ad2efc 	ori	t5,t5,0x2efc
    24c4:	24100000 	li	s0,0
    24c8:	1000000d 	b	2500 <n38_jal_test+0x2500>
    24cc:	24120000 	li	s2,0
    24d0:	00000000 	nop
    24d4:	3c100b51 	lui	s0,0xb51
    24d8:	3610bf3f 	ori	s0,s0,0xbf3f
    24dc:	0c000946 	jal	2518 <n38_jal_test+0x2518>
    24e0:	00000000 	nop
    24e4:	1000000e 	b	2520 <n38_jal_test+0x2520>
    24e8:	00000000 	nop
    24ec:	00000000 	nop
    24f0:	00000021 	move	zero,zero
    24f4:	00000021 	move	zero,zero
    24f8:	00000021 	move	zero,zero
    24fc:	00000021 	move	zero,zero
    2500:	0c000935 	jal	24d4 <n38_jal_test+0x24d4>
    2504:	00000000 	nop
    2508:	10000005 	b	2520 <n38_jal_test+0x2520>
    250c:	00000000 	nop
    2510:	00000000 	nop
    2514:	00000021 	move	zero,zero
    2518:	3c1231c2 	lui	s2,0x31c2
    251c:	36522efc 	ori	s2,s2,0x2efc
    2520:	001fa021 	addu	s4,zero,ra
    2524:	0016f821 	addu	ra,zero,s6
    2528:	3c150000 	lui	s5,0x0
    252c:	26b524dc 	addiu	s5,s5,9436
    2530:	3c0d0b51 	lui	t5,0xb51
    2534:	35adbf3f 	ori	t5,t5,0xbf3f
    2538:	160d1aa6 	bne	s0,t5,8fd4 <inst_error>
    253c:	00000000 	nop
    2540:	00000000 	nop
    2544:	3c0c31c2 	lui	t4,0x31c2
    2548:	358c2efc 	ori	t4,t4,0x2efc
    254c:	164c1aa1 	bne	s2,t4,8fd4 <inst_error>
    2550:	00000000 	nop
    2554:	00000000 	nop
    2558:	26b50008 	addiu	s5,s5,8
    255c:	16951a9d 	bne	s4,s5,8fd4 <inst_error>
    2560:	00000000 	nop
    2564:	00000000 	nop
    2568:	001fb021 	addu	s6,zero,ra
    256c:	3c0c04ad 	lui	t4,0x4ad
    2570:	358c485a 	ori	t4,t4,0x485a
    2574:	3c0d39e8 	lui	t5,0x39e8
    2578:	35ad5f59 	ori	t5,t5,0x5f59
    257c:	24100000 	li	s0,0
    2580:	1000000d 	b	25b8 <n38_jal_test+0x25b8>
    2584:	24120000 	li	s2,0
    2588:	00000000 	nop
    258c:	3c1004ad 	lui	s0,0x4ad
    2590:	3610485a 	ori	s0,s0,0x485a
    2594:	0c000974 	jal	25d0 <n38_jal_test+0x25d0>
    2598:	00000000 	nop
    259c:	1000000e 	b	25d8 <n38_jal_test+0x25d8>
    25a0:	00000000 	nop
    25a4:	00000000 	nop
    25a8:	00000021 	move	zero,zero
    25ac:	00000021 	move	zero,zero
    25b0:	00000021 	move	zero,zero
    25b4:	00000021 	move	zero,zero
    25b8:	0c000963 	jal	258c <n38_jal_test+0x258c>
    25bc:	00000000 	nop
    25c0:	10000005 	b	25d8 <n38_jal_test+0x25d8>
    25c4:	00000000 	nop
    25c8:	00000000 	nop
    25cc:	00000021 	move	zero,zero
    25d0:	3c1239e8 	lui	s2,0x39e8
    25d4:	36525f59 	ori	s2,s2,0x5f59
    25d8:	001fa021 	addu	s4,zero,ra
    25dc:	0016f821 	addu	ra,zero,s6
    25e0:	3c150000 	lui	s5,0x0
    25e4:	26b52594 	addiu	s5,s5,9620
    25e8:	3c0d04ad 	lui	t5,0x4ad
    25ec:	35ad485a 	ori	t5,t5,0x485a
    25f0:	160d1a78 	bne	s0,t5,8fd4 <inst_error>
    25f4:	00000000 	nop
    25f8:	00000000 	nop
    25fc:	3c0c39e8 	lui	t4,0x39e8
    2600:	358c5f59 	ori	t4,t4,0x5f59
    2604:	164c1a73 	bne	s2,t4,8fd4 <inst_error>
    2608:	00000000 	nop
    260c:	00000000 	nop
    2610:	26b50008 	addiu	s5,s5,8
    2614:	16951a6f 	bne	s4,s5,8fd4 <inst_error>
    2618:	00000000 	nop
    261c:	00000000 	nop
    2620:	001fb021 	addu	s6,zero,ra
    2624:	3c0ce7e5 	lui	t4,0xe7e5
    2628:	358c76d8 	ori	t4,t4,0x76d8
    262c:	3c0d68ca 	lui	t5,0x68ca
    2630:	35ad0df9 	ori	t5,t5,0xdf9
    2634:	24100000 	li	s0,0
    2638:	1000000d 	b	2670 <n38_jal_test+0x2670>
    263c:	24120000 	li	s2,0
    2640:	00000000 	nop
    2644:	3c10e7e5 	lui	s0,0xe7e5
    2648:	361076d8 	ori	s0,s0,0x76d8
    264c:	0c0009a2 	jal	2688 <n38_jal_test+0x2688>
    2650:	00000000 	nop
    2654:	1000000e 	b	2690 <n38_jal_test+0x2690>
    2658:	00000000 	nop
    265c:	00000000 	nop
    2660:	00000021 	move	zero,zero
    2664:	00000021 	move	zero,zero
    2668:	00000021 	move	zero,zero
    266c:	00000021 	move	zero,zero
    2670:	0c000991 	jal	2644 <n38_jal_test+0x2644>
    2674:	00000000 	nop
    2678:	10000005 	b	2690 <n38_jal_test+0x2690>
    267c:	00000000 	nop
    2680:	00000000 	nop
    2684:	00000021 	move	zero,zero
    2688:	3c1268ca 	lui	s2,0x68ca
    268c:	36520df9 	ori	s2,s2,0xdf9
    2690:	001fa021 	addu	s4,zero,ra
    2694:	0016f821 	addu	ra,zero,s6
    2698:	3c150000 	lui	s5,0x0
    269c:	26b5264c 	addiu	s5,s5,9804
    26a0:	3c0de7e5 	lui	t5,0xe7e5
    26a4:	35ad76d8 	ori	t5,t5,0x76d8
    26a8:	160d1a4a 	bne	s0,t5,8fd4 <inst_error>
    26ac:	00000000 	nop
    26b0:	00000000 	nop
    26b4:	3c0c68ca 	lui	t4,0x68ca
    26b8:	358c0df9 	ori	t4,t4,0xdf9
    26bc:	164c1a45 	bne	s2,t4,8fd4 <inst_error>
    26c0:	00000000 	nop
    26c4:	00000000 	nop
    26c8:	26b50008 	addiu	s5,s5,8
    26cc:	16951a41 	bne	s4,s5,8fd4 <inst_error>
    26d0:	00000000 	nop
    26d4:	00000000 	nop
    26d8:	001fb021 	addu	s6,zero,ra
    26dc:	3c0cba12 	lui	t4,0xba12
    26e0:	358cc92e 	ori	t4,t4,0xc92e
    26e4:	3c0d8557 	lui	t5,0x8557
    26e8:	35ad7d42 	ori	t5,t5,0x7d42
    26ec:	24100000 	li	s0,0
    26f0:	1000000d 	b	2728 <n38_jal_test+0x2728>
    26f4:	24120000 	li	s2,0
    26f8:	00000000 	nop
    26fc:	3c10ba12 	lui	s0,0xba12
    2700:	3610c92e 	ori	s0,s0,0xc92e
    2704:	0c0009d0 	jal	2740 <n38_jal_test+0x2740>
    2708:	00000000 	nop
    270c:	1000000e 	b	2748 <n38_jal_test+0x2748>
    2710:	00000000 	nop
    2714:	00000000 	nop
    2718:	00000021 	move	zero,zero
    271c:	00000021 	move	zero,zero
    2720:	00000021 	move	zero,zero
    2724:	00000021 	move	zero,zero
    2728:	0c0009bf 	jal	26fc <n38_jal_test+0x26fc>
    272c:	00000000 	nop
    2730:	10000005 	b	2748 <n38_jal_test+0x2748>
    2734:	00000000 	nop
    2738:	00000000 	nop
    273c:	00000021 	move	zero,zero
    2740:	3c128557 	lui	s2,0x8557
    2744:	36527d42 	ori	s2,s2,0x7d42
    2748:	001fa021 	addu	s4,zero,ra
    274c:	0016f821 	addu	ra,zero,s6
    2750:	3c150000 	lui	s5,0x0
    2754:	26b52704 	addiu	s5,s5,9988
    2758:	3c0dba12 	lui	t5,0xba12
    275c:	35adc92e 	ori	t5,t5,0xc92e
    2760:	160d1a1c 	bne	s0,t5,8fd4 <inst_error>
    2764:	00000000 	nop
    2768:	00000000 	nop
    276c:	3c0c8557 	lui	t4,0x8557
    2770:	358c7d42 	ori	t4,t4,0x7d42
    2774:	164c1a17 	bne	s2,t4,8fd4 <inst_error>
    2778:	00000000 	nop
    277c:	00000000 	nop
    2780:	26b50008 	addiu	s5,s5,8
    2784:	16951a13 	bne	s4,s5,8fd4 <inst_error>
    2788:	00000000 	nop
    278c:	00000000 	nop
    2790:	001fb021 	addu	s6,zero,ra
    2794:	3c0c403b 	lui	t4,0x403b
    2798:	358c4458 	ori	t4,t4,0x4458
    279c:	3c0d6bec 	lui	t5,0x6bec
    27a0:	35adb754 	ori	t5,t5,0xb754
    27a4:	24100000 	li	s0,0
    27a8:	1000000d 	b	27e0 <n38_jal_test+0x27e0>
    27ac:	24120000 	li	s2,0
    27b0:	00000000 	nop
    27b4:	3c10403b 	lui	s0,0x403b
    27b8:	36104458 	ori	s0,s0,0x4458
    27bc:	0c0009fe 	jal	27f8 <n38_jal_test+0x27f8>
    27c0:	00000000 	nop
    27c4:	1000000e 	b	2800 <n38_jal_test+0x2800>
    27c8:	00000000 	nop
    27cc:	00000000 	nop
    27d0:	00000021 	move	zero,zero
    27d4:	00000021 	move	zero,zero
    27d8:	00000021 	move	zero,zero
    27dc:	00000021 	move	zero,zero
    27e0:	0c0009ed 	jal	27b4 <n38_jal_test+0x27b4>
    27e4:	00000000 	nop
    27e8:	10000005 	b	2800 <n38_jal_test+0x2800>
    27ec:	00000000 	nop
    27f0:	00000000 	nop
    27f4:	00000021 	move	zero,zero
    27f8:	3c126bec 	lui	s2,0x6bec
    27fc:	3652b754 	ori	s2,s2,0xb754
    2800:	001fa021 	addu	s4,zero,ra
    2804:	0016f821 	addu	ra,zero,s6
    2808:	3c150000 	lui	s5,0x0
    280c:	26b527bc 	addiu	s5,s5,10172
    2810:	3c0d403b 	lui	t5,0x403b
    2814:	35ad4458 	ori	t5,t5,0x4458
    2818:	160d19ee 	bne	s0,t5,8fd4 <inst_error>
    281c:	00000000 	nop
    2820:	00000000 	nop
    2824:	3c0c6bec 	lui	t4,0x6bec
    2828:	358cb754 	ori	t4,t4,0xb754
    282c:	164c19e9 	bne	s2,t4,8fd4 <inst_error>
    2830:	00000000 	nop
    2834:	00000000 	nop
    2838:	26b50008 	addiu	s5,s5,8
    283c:	169519e5 	bne	s4,s5,8fd4 <inst_error>
    2840:	00000000 	nop
    2844:	00000000 	nop
    2848:	001fb021 	addu	s6,zero,ra
    284c:	3c0c8f6d 	lui	t4,0x8f6d
    2850:	358c6b48 	ori	t4,t4,0x6b48
    2854:	3c0de156 	lui	t5,0xe156
    2858:	35ad3e28 	ori	t5,t5,0x3e28
    285c:	24100000 	li	s0,0
    2860:	1000000d 	b	2898 <n38_jal_test+0x2898>
    2864:	24120000 	li	s2,0
    2868:	00000000 	nop
    286c:	3c108f6d 	lui	s0,0x8f6d
    2870:	36106b48 	ori	s0,s0,0x6b48
    2874:	0c000a2c 	jal	28b0 <n38_jal_test+0x28b0>
    2878:	00000000 	nop
    287c:	1000000e 	b	28b8 <n38_jal_test+0x28b8>
    2880:	00000000 	nop
    2884:	00000000 	nop
    2888:	00000021 	move	zero,zero
    288c:	00000021 	move	zero,zero
    2890:	00000021 	move	zero,zero
    2894:	00000021 	move	zero,zero
    2898:	0c000a1b 	jal	286c <n38_jal_test+0x286c>
    289c:	00000000 	nop
    28a0:	10000005 	b	28b8 <n38_jal_test+0x28b8>
    28a4:	00000000 	nop
    28a8:	00000000 	nop
    28ac:	00000021 	move	zero,zero
    28b0:	3c12e156 	lui	s2,0xe156
    28b4:	36523e28 	ori	s2,s2,0x3e28
    28b8:	001fa021 	addu	s4,zero,ra
    28bc:	0016f821 	addu	ra,zero,s6
    28c0:	3c150000 	lui	s5,0x0
    28c4:	26b52874 	addiu	s5,s5,10356
    28c8:	3c0d8f6d 	lui	t5,0x8f6d
    28cc:	35ad6b48 	ori	t5,t5,0x6b48
    28d0:	160d19c0 	bne	s0,t5,8fd4 <inst_error>
    28d4:	00000000 	nop
    28d8:	00000000 	nop
    28dc:	3c0ce156 	lui	t4,0xe156
    28e0:	358c3e28 	ori	t4,t4,0x3e28
    28e4:	164c19bb 	bne	s2,t4,8fd4 <inst_error>
    28e8:	00000000 	nop
    28ec:	00000000 	nop
    28f0:	26b50008 	addiu	s5,s5,8
    28f4:	169519b7 	bne	s4,s5,8fd4 <inst_error>
    28f8:	00000000 	nop
    28fc:	00000000 	nop
    2900:	001fb021 	addu	s6,zero,ra
    2904:	3c0cb41d 	lui	t4,0xb41d
    2908:	358c3203 	ori	t4,t4,0x3203
    290c:	3c0d9632 	lui	t5,0x9632
    2910:	35ad9e80 	ori	t5,t5,0x9e80
    2914:	24100000 	li	s0,0
    2918:	1000000d 	b	2950 <n38_jal_test+0x2950>
    291c:	24120000 	li	s2,0
    2920:	00000000 	nop
    2924:	3c10b41d 	lui	s0,0xb41d
    2928:	36103203 	ori	s0,s0,0x3203
    292c:	0c000a5a 	jal	2968 <n38_jal_test+0x2968>
    2930:	00000000 	nop
    2934:	1000000e 	b	2970 <n38_jal_test+0x2970>
    2938:	00000000 	nop
    293c:	00000000 	nop
    2940:	00000021 	move	zero,zero
    2944:	00000021 	move	zero,zero
    2948:	00000021 	move	zero,zero
    294c:	00000021 	move	zero,zero
    2950:	0c000a49 	jal	2924 <n38_jal_test+0x2924>
    2954:	00000000 	nop
    2958:	10000005 	b	2970 <n38_jal_test+0x2970>
    295c:	00000000 	nop
    2960:	00000000 	nop
    2964:	00000021 	move	zero,zero
    2968:	3c129632 	lui	s2,0x9632
    296c:	36529e80 	ori	s2,s2,0x9e80
    2970:	001fa021 	addu	s4,zero,ra
    2974:	0016f821 	addu	ra,zero,s6
    2978:	3c150000 	lui	s5,0x0
    297c:	26b5292c 	addiu	s5,s5,10540
    2980:	3c0db41d 	lui	t5,0xb41d
    2984:	35ad3203 	ori	t5,t5,0x3203
    2988:	160d1992 	bne	s0,t5,8fd4 <inst_error>
    298c:	00000000 	nop
    2990:	00000000 	nop
    2994:	3c0c9632 	lui	t4,0x9632
    2998:	358c9e80 	ori	t4,t4,0x9e80
    299c:	164c198d 	bne	s2,t4,8fd4 <inst_error>
    29a0:	00000000 	nop
    29a4:	00000000 	nop
    29a8:	26b50008 	addiu	s5,s5,8
    29ac:	16951989 	bne	s4,s5,8fd4 <inst_error>
    29b0:	00000000 	nop
    29b4:	00000000 	nop
    29b8:	001fb021 	addu	s6,zero,ra
    29bc:	3c0ce6ae 	lui	t4,0xe6ae
    29c0:	358cc8cb 	ori	t4,t4,0xc8cb
    29c4:	3c0d27ef 	lui	t5,0x27ef
    29c8:	35ad5f5b 	ori	t5,t5,0x5f5b
    29cc:	24100000 	li	s0,0
    29d0:	1000000d 	b	2a08 <n38_jal_test+0x2a08>
    29d4:	24120000 	li	s2,0
    29d8:	00000000 	nop
    29dc:	3c10e6ae 	lui	s0,0xe6ae
    29e0:	3610c8cb 	ori	s0,s0,0xc8cb
    29e4:	0c000a88 	jal	2a20 <n38_jal_test+0x2a20>
    29e8:	00000000 	nop
    29ec:	1000000e 	b	2a28 <n38_jal_test+0x2a28>
    29f0:	00000000 	nop
    29f4:	00000000 	nop
    29f8:	00000021 	move	zero,zero
    29fc:	00000021 	move	zero,zero
    2a00:	00000021 	move	zero,zero
    2a04:	00000021 	move	zero,zero
    2a08:	0c000a77 	jal	29dc <n38_jal_test+0x29dc>
    2a0c:	00000000 	nop
    2a10:	10000005 	b	2a28 <n38_jal_test+0x2a28>
    2a14:	00000000 	nop
    2a18:	00000000 	nop
    2a1c:	00000021 	move	zero,zero
    2a20:	3c1227ef 	lui	s2,0x27ef
    2a24:	36525f5b 	ori	s2,s2,0x5f5b
    2a28:	001fa021 	addu	s4,zero,ra
    2a2c:	0016f821 	addu	ra,zero,s6
    2a30:	3c150000 	lui	s5,0x0
    2a34:	26b529e4 	addiu	s5,s5,10724
    2a38:	3c0de6ae 	lui	t5,0xe6ae
    2a3c:	35adc8cb 	ori	t5,t5,0xc8cb
    2a40:	160d1964 	bne	s0,t5,8fd4 <inst_error>
    2a44:	00000000 	nop
    2a48:	00000000 	nop
    2a4c:	3c0c27ef 	lui	t4,0x27ef
    2a50:	358c5f5b 	ori	t4,t4,0x5f5b
    2a54:	164c195f 	bne	s2,t4,8fd4 <inst_error>
    2a58:	00000000 	nop
    2a5c:	00000000 	nop
    2a60:	26b50008 	addiu	s5,s5,8
    2a64:	1695195b 	bne	s4,s5,8fd4 <inst_error>
    2a68:	00000000 	nop
    2a6c:	00000000 	nop
    2a70:	001fb021 	addu	s6,zero,ra
    2a74:	3c0c5eed 	lui	t4,0x5eed
    2a78:	358cde10 	ori	t4,t4,0xde10
    2a7c:	3c0d94eb 	lui	t5,0x94eb
    2a80:	35ad3844 	ori	t5,t5,0x3844
    2a84:	24100000 	li	s0,0
    2a88:	1000000d 	b	2ac0 <n38_jal_test+0x2ac0>
    2a8c:	24120000 	li	s2,0
    2a90:	00000000 	nop
    2a94:	3c105eed 	lui	s0,0x5eed
    2a98:	3610de10 	ori	s0,s0,0xde10
    2a9c:	0c000ab6 	jal	2ad8 <n38_jal_test+0x2ad8>
    2aa0:	00000000 	nop
    2aa4:	1000000e 	b	2ae0 <n38_jal_test+0x2ae0>
    2aa8:	00000000 	nop
    2aac:	00000000 	nop
    2ab0:	00000021 	move	zero,zero
    2ab4:	00000021 	move	zero,zero
    2ab8:	00000021 	move	zero,zero
    2abc:	00000021 	move	zero,zero
    2ac0:	0c000aa5 	jal	2a94 <n38_jal_test+0x2a94>
    2ac4:	00000000 	nop
    2ac8:	10000005 	b	2ae0 <n38_jal_test+0x2ae0>
    2acc:	00000000 	nop
    2ad0:	00000000 	nop
    2ad4:	00000021 	move	zero,zero
    2ad8:	3c1294eb 	lui	s2,0x94eb
    2adc:	36523844 	ori	s2,s2,0x3844
    2ae0:	001fa021 	addu	s4,zero,ra
    2ae4:	0016f821 	addu	ra,zero,s6
    2ae8:	3c150000 	lui	s5,0x0
    2aec:	26b52a9c 	addiu	s5,s5,10908
    2af0:	3c0d5eed 	lui	t5,0x5eed
    2af4:	35adde10 	ori	t5,t5,0xde10
    2af8:	160d1936 	bne	s0,t5,8fd4 <inst_error>
    2afc:	00000000 	nop
    2b00:	00000000 	nop
    2b04:	3c0c94eb 	lui	t4,0x94eb
    2b08:	358c3844 	ori	t4,t4,0x3844
    2b0c:	164c1931 	bne	s2,t4,8fd4 <inst_error>
    2b10:	00000000 	nop
    2b14:	00000000 	nop
    2b18:	26b50008 	addiu	s5,s5,8
    2b1c:	1695192d 	bne	s4,s5,8fd4 <inst_error>
    2b20:	00000000 	nop
    2b24:	00000000 	nop
    2b28:	001fb021 	addu	s6,zero,ra
    2b2c:	3c0c83b0 	lui	t4,0x83b0
    2b30:	358c8836 	ori	t4,t4,0x8836
    2b34:	3c0d2217 	lui	t5,0x2217
    2b38:	35ad3eb0 	ori	t5,t5,0x3eb0
    2b3c:	24100000 	li	s0,0
    2b40:	1000000d 	b	2b78 <n38_jal_test+0x2b78>
    2b44:	24120000 	li	s2,0
    2b48:	00000000 	nop
    2b4c:	3c1083b0 	lui	s0,0x83b0
    2b50:	36108836 	ori	s0,s0,0x8836
    2b54:	0c000ae4 	jal	2b90 <n38_jal_test+0x2b90>
    2b58:	00000000 	nop
    2b5c:	1000000e 	b	2b98 <n38_jal_test+0x2b98>
    2b60:	00000000 	nop
    2b64:	00000000 	nop
    2b68:	00000021 	move	zero,zero
    2b6c:	00000021 	move	zero,zero
    2b70:	00000021 	move	zero,zero
    2b74:	00000021 	move	zero,zero
    2b78:	0c000ad3 	jal	2b4c <n38_jal_test+0x2b4c>
    2b7c:	00000000 	nop
    2b80:	10000005 	b	2b98 <n38_jal_test+0x2b98>
    2b84:	00000000 	nop
    2b88:	00000000 	nop
    2b8c:	00000021 	move	zero,zero
    2b90:	3c122217 	lui	s2,0x2217
    2b94:	36523eb0 	ori	s2,s2,0x3eb0
    2b98:	001fa021 	addu	s4,zero,ra
    2b9c:	0016f821 	addu	ra,zero,s6
    2ba0:	3c150000 	lui	s5,0x0
    2ba4:	26b52b54 	addiu	s5,s5,11092
    2ba8:	3c0d83b0 	lui	t5,0x83b0
    2bac:	35ad8836 	ori	t5,t5,0x8836
    2bb0:	160d1908 	bne	s0,t5,8fd4 <inst_error>
    2bb4:	00000000 	nop
    2bb8:	00000000 	nop
    2bbc:	3c0c2217 	lui	t4,0x2217
    2bc0:	358c3eb0 	ori	t4,t4,0x3eb0
    2bc4:	164c1903 	bne	s2,t4,8fd4 <inst_error>
    2bc8:	00000000 	nop
    2bcc:	00000000 	nop
    2bd0:	26b50008 	addiu	s5,s5,8
    2bd4:	169518ff 	bne	s4,s5,8fd4 <inst_error>
    2bd8:	00000000 	nop
    2bdc:	00000000 	nop
    2be0:	001fb021 	addu	s6,zero,ra
    2be4:	3c0c5993 	lui	t4,0x5993
    2be8:	358c1aae 	ori	t4,t4,0x1aae
    2bec:	3c0ddbc9 	lui	t5,0xdbc9
    2bf0:	35add400 	ori	t5,t5,0xd400
    2bf4:	24100000 	li	s0,0
    2bf8:	1000000d 	b	2c30 <n38_jal_test+0x2c30>
    2bfc:	24120000 	li	s2,0
    2c00:	00000000 	nop
    2c04:	3c105993 	lui	s0,0x5993
    2c08:	36101aae 	ori	s0,s0,0x1aae
    2c0c:	0c000b12 	jal	2c48 <n38_jal_test+0x2c48>
    2c10:	00000000 	nop
    2c14:	1000000e 	b	2c50 <n38_jal_test+0x2c50>
    2c18:	00000000 	nop
    2c1c:	00000000 	nop
    2c20:	00000021 	move	zero,zero
    2c24:	00000021 	move	zero,zero
    2c28:	00000021 	move	zero,zero
    2c2c:	00000021 	move	zero,zero
    2c30:	0c000b01 	jal	2c04 <n38_jal_test+0x2c04>
    2c34:	00000000 	nop
    2c38:	10000005 	b	2c50 <n38_jal_test+0x2c50>
    2c3c:	00000000 	nop
    2c40:	00000000 	nop
    2c44:	00000021 	move	zero,zero
    2c48:	3c12dbc9 	lui	s2,0xdbc9
    2c4c:	3652d400 	ori	s2,s2,0xd400
    2c50:	001fa021 	addu	s4,zero,ra
    2c54:	0016f821 	addu	ra,zero,s6
    2c58:	3c150000 	lui	s5,0x0
    2c5c:	26b52c0c 	addiu	s5,s5,11276
    2c60:	3c0d5993 	lui	t5,0x5993
    2c64:	35ad1aae 	ori	t5,t5,0x1aae
    2c68:	160d18da 	bne	s0,t5,8fd4 <inst_error>
    2c6c:	00000000 	nop
    2c70:	00000000 	nop
    2c74:	3c0cdbc9 	lui	t4,0xdbc9
    2c78:	358cd400 	ori	t4,t4,0xd400
    2c7c:	164c18d5 	bne	s2,t4,8fd4 <inst_error>
    2c80:	00000000 	nop
    2c84:	00000000 	nop
    2c88:	26b50008 	addiu	s5,s5,8
    2c8c:	169518d1 	bne	s4,s5,8fd4 <inst_error>
    2c90:	00000000 	nop
    2c94:	00000000 	nop
    2c98:	001fb021 	addu	s6,zero,ra
    2c9c:	3c0c0622 	lui	t4,0x622
    2ca0:	358c53c0 	ori	t4,t4,0x53c0
    2ca4:	3c0d2628 	lui	t5,0x2628
    2ca8:	35ada368 	ori	t5,t5,0xa368
    2cac:	24100000 	li	s0,0
    2cb0:	1000000d 	b	2ce8 <n38_jal_test+0x2ce8>
    2cb4:	24120000 	li	s2,0
    2cb8:	00000000 	nop
    2cbc:	3c100622 	lui	s0,0x622
    2cc0:	361053c0 	ori	s0,s0,0x53c0
    2cc4:	0c000b40 	jal	2d00 <n38_jal_test+0x2d00>
    2cc8:	00000000 	nop
    2ccc:	1000000e 	b	2d08 <n38_jal_test+0x2d08>
    2cd0:	00000000 	nop
    2cd4:	00000000 	nop
    2cd8:	00000021 	move	zero,zero
    2cdc:	00000021 	move	zero,zero
    2ce0:	00000021 	move	zero,zero
    2ce4:	00000021 	move	zero,zero
    2ce8:	0c000b2f 	jal	2cbc <n38_jal_test+0x2cbc>
    2cec:	00000000 	nop
    2cf0:	10000005 	b	2d08 <n38_jal_test+0x2d08>
    2cf4:	00000000 	nop
    2cf8:	00000000 	nop
    2cfc:	00000021 	move	zero,zero
    2d00:	3c122628 	lui	s2,0x2628
    2d04:	3652a368 	ori	s2,s2,0xa368
    2d08:	001fa021 	addu	s4,zero,ra
    2d0c:	0016f821 	addu	ra,zero,s6
    2d10:	3c150000 	lui	s5,0x0
    2d14:	26b52cc4 	addiu	s5,s5,11460
    2d18:	3c0d0622 	lui	t5,0x622
    2d1c:	35ad53c0 	ori	t5,t5,0x53c0
    2d20:	160d18ac 	bne	s0,t5,8fd4 <inst_error>
    2d24:	00000000 	nop
    2d28:	00000000 	nop
    2d2c:	3c0c2628 	lui	t4,0x2628
    2d30:	358ca368 	ori	t4,t4,0xa368
    2d34:	164c18a7 	bne	s2,t4,8fd4 <inst_error>
    2d38:	00000000 	nop
    2d3c:	00000000 	nop
    2d40:	26b50008 	addiu	s5,s5,8
    2d44:	169518a3 	bne	s4,s5,8fd4 <inst_error>
    2d48:	00000000 	nop
    2d4c:	00000000 	nop
    2d50:	001fb021 	addu	s6,zero,ra
    2d54:	3c0cb4f8 	lui	t4,0xb4f8
    2d58:	358c4c50 	ori	t4,t4,0x4c50
    2d5c:	3c0dd5d3 	lui	t5,0xd5d3
    2d60:	35ad9399 	ori	t5,t5,0x9399
    2d64:	24100000 	li	s0,0
    2d68:	1000000d 	b	2da0 <n38_jal_test+0x2da0>
    2d6c:	24120000 	li	s2,0
    2d70:	00000000 	nop
    2d74:	3c10b4f8 	lui	s0,0xb4f8
    2d78:	36104c50 	ori	s0,s0,0x4c50
    2d7c:	0c000b6e 	jal	2db8 <n38_jal_test+0x2db8>
    2d80:	00000000 	nop
    2d84:	1000000e 	b	2dc0 <n38_jal_test+0x2dc0>
    2d88:	00000000 	nop
    2d8c:	00000000 	nop
    2d90:	00000021 	move	zero,zero
    2d94:	00000021 	move	zero,zero
    2d98:	00000021 	move	zero,zero
    2d9c:	00000021 	move	zero,zero
    2da0:	0c000b5d 	jal	2d74 <n38_jal_test+0x2d74>
    2da4:	00000000 	nop
    2da8:	10000005 	b	2dc0 <n38_jal_test+0x2dc0>
    2dac:	00000000 	nop
    2db0:	00000000 	nop
    2db4:	00000021 	move	zero,zero
    2db8:	3c12d5d3 	lui	s2,0xd5d3
    2dbc:	36529399 	ori	s2,s2,0x9399
    2dc0:	001fa021 	addu	s4,zero,ra
    2dc4:	0016f821 	addu	ra,zero,s6
    2dc8:	3c150000 	lui	s5,0x0
    2dcc:	26b52d7c 	addiu	s5,s5,11644
    2dd0:	3c0db4f8 	lui	t5,0xb4f8
    2dd4:	35ad4c50 	ori	t5,t5,0x4c50
    2dd8:	160d187e 	bne	s0,t5,8fd4 <inst_error>
    2ddc:	00000000 	nop
    2de0:	00000000 	nop
    2de4:	3c0cd5d3 	lui	t4,0xd5d3
    2de8:	358c9399 	ori	t4,t4,0x9399
    2dec:	164c1879 	bne	s2,t4,8fd4 <inst_error>
    2df0:	00000000 	nop
    2df4:	00000000 	nop
    2df8:	26b50008 	addiu	s5,s5,8
    2dfc:	16951875 	bne	s4,s5,8fd4 <inst_error>
    2e00:	00000000 	nop
    2e04:	00000000 	nop
    2e08:	001fb021 	addu	s6,zero,ra
    2e0c:	3c0ceb44 	lui	t4,0xeb44
    2e10:	358cae38 	ori	t4,t4,0xae38
    2e14:	3c0ddc7d 	lui	t5,0xdc7d
    2e18:	35ad3918 	ori	t5,t5,0x3918
    2e1c:	24100000 	li	s0,0
    2e20:	1000000d 	b	2e58 <n38_jal_test+0x2e58>
    2e24:	24120000 	li	s2,0
    2e28:	00000000 	nop
    2e2c:	3c10eb44 	lui	s0,0xeb44
    2e30:	3610ae38 	ori	s0,s0,0xae38
    2e34:	0c000b9c 	jal	2e70 <n38_jal_test+0x2e70>
    2e38:	00000000 	nop
    2e3c:	1000000e 	b	2e78 <n38_jal_test+0x2e78>
    2e40:	00000000 	nop
    2e44:	00000000 	nop
    2e48:	00000021 	move	zero,zero
    2e4c:	00000021 	move	zero,zero
    2e50:	00000021 	move	zero,zero
    2e54:	00000021 	move	zero,zero
    2e58:	0c000b8b 	jal	2e2c <n38_jal_test+0x2e2c>
    2e5c:	00000000 	nop
    2e60:	10000005 	b	2e78 <n38_jal_test+0x2e78>
    2e64:	00000000 	nop
    2e68:	00000000 	nop
    2e6c:	00000021 	move	zero,zero
    2e70:	3c12dc7d 	lui	s2,0xdc7d
    2e74:	36523918 	ori	s2,s2,0x3918
    2e78:	001fa021 	addu	s4,zero,ra
    2e7c:	0016f821 	addu	ra,zero,s6
    2e80:	3c150000 	lui	s5,0x0
    2e84:	26b52e34 	addiu	s5,s5,11828
    2e88:	3c0deb44 	lui	t5,0xeb44
    2e8c:	35adae38 	ori	t5,t5,0xae38
    2e90:	160d1850 	bne	s0,t5,8fd4 <inst_error>
    2e94:	00000000 	nop
    2e98:	00000000 	nop
    2e9c:	3c0cdc7d 	lui	t4,0xdc7d
    2ea0:	358c3918 	ori	t4,t4,0x3918
    2ea4:	164c184b 	bne	s2,t4,8fd4 <inst_error>
    2ea8:	00000000 	nop
    2eac:	00000000 	nop
    2eb0:	26b50008 	addiu	s5,s5,8
    2eb4:	16951847 	bne	s4,s5,8fd4 <inst_error>
    2eb8:	00000000 	nop
    2ebc:	00000000 	nop
    2ec0:	001fb021 	addu	s6,zero,ra
    2ec4:	3c0c5333 	lui	t4,0x5333
    2ec8:	358c5424 	ori	t4,t4,0x5424
    2ecc:	3c0d9eee 	lui	t5,0x9eee
    2ed0:	35adc7c0 	ori	t5,t5,0xc7c0
    2ed4:	24100000 	li	s0,0
    2ed8:	1000000d 	b	2f10 <n38_jal_test+0x2f10>
    2edc:	24120000 	li	s2,0
    2ee0:	00000000 	nop
    2ee4:	3c105333 	lui	s0,0x5333
    2ee8:	36105424 	ori	s0,s0,0x5424
    2eec:	0c000bca 	jal	2f28 <n38_jal_test+0x2f28>
    2ef0:	00000000 	nop
    2ef4:	1000000e 	b	2f30 <n38_jal_test+0x2f30>
    2ef8:	00000000 	nop
    2efc:	00000000 	nop
    2f00:	00000021 	move	zero,zero
    2f04:	00000021 	move	zero,zero
    2f08:	00000021 	move	zero,zero
    2f0c:	00000021 	move	zero,zero
    2f10:	0c000bb9 	jal	2ee4 <n38_jal_test+0x2ee4>
    2f14:	00000000 	nop
    2f18:	10000005 	b	2f30 <n38_jal_test+0x2f30>
    2f1c:	00000000 	nop
    2f20:	00000000 	nop
    2f24:	00000021 	move	zero,zero
    2f28:	3c129eee 	lui	s2,0x9eee
    2f2c:	3652c7c0 	ori	s2,s2,0xc7c0
    2f30:	001fa021 	addu	s4,zero,ra
    2f34:	0016f821 	addu	ra,zero,s6
    2f38:	3c150000 	lui	s5,0x0
    2f3c:	26b52eec 	addiu	s5,s5,12012
    2f40:	3c0d5333 	lui	t5,0x5333
    2f44:	35ad5424 	ori	t5,t5,0x5424
    2f48:	160d1822 	bne	s0,t5,8fd4 <inst_error>
    2f4c:	00000000 	nop
    2f50:	00000000 	nop
    2f54:	3c0c9eee 	lui	t4,0x9eee
    2f58:	358cc7c0 	ori	t4,t4,0xc7c0
    2f5c:	164c181d 	bne	s2,t4,8fd4 <inst_error>
    2f60:	00000000 	nop
    2f64:	00000000 	nop
    2f68:	26b50008 	addiu	s5,s5,8
    2f6c:	16951819 	bne	s4,s5,8fd4 <inst_error>
    2f70:	00000000 	nop
    2f74:	00000000 	nop
    2f78:	001fb021 	addu	s6,zero,ra
    2f7c:	3c0c0cb4 	lui	t4,0xcb4
    2f80:	358cfb1c 	ori	t4,t4,0xfb1c
    2f84:	3c0d5d38 	lui	t5,0x5d38
    2f88:	35ada700 	ori	t5,t5,0xa700
    2f8c:	24100000 	li	s0,0
    2f90:	1000000d 	b	2fc8 <n38_jal_test+0x2fc8>
    2f94:	24120000 	li	s2,0
    2f98:	00000000 	nop
    2f9c:	3c100cb4 	lui	s0,0xcb4
    2fa0:	3610fb1c 	ori	s0,s0,0xfb1c
    2fa4:	0c000bf8 	jal	2fe0 <n38_jal_test+0x2fe0>
    2fa8:	00000000 	nop
    2fac:	1000000e 	b	2fe8 <n38_jal_test+0x2fe8>
    2fb0:	00000000 	nop
    2fb4:	00000000 	nop
    2fb8:	00000021 	move	zero,zero
    2fbc:	00000021 	move	zero,zero
    2fc0:	00000021 	move	zero,zero
    2fc4:	00000021 	move	zero,zero
    2fc8:	0c000be7 	jal	2f9c <n38_jal_test+0x2f9c>
    2fcc:	00000000 	nop
    2fd0:	10000005 	b	2fe8 <n38_jal_test+0x2fe8>
    2fd4:	00000000 	nop
    2fd8:	00000000 	nop
    2fdc:	00000021 	move	zero,zero
    2fe0:	3c125d38 	lui	s2,0x5d38
    2fe4:	3652a700 	ori	s2,s2,0xa700
    2fe8:	001fa021 	addu	s4,zero,ra
    2fec:	0016f821 	addu	ra,zero,s6
    2ff0:	3c150000 	lui	s5,0x0
    2ff4:	26b52fa4 	addiu	s5,s5,12196
    2ff8:	3c0d0cb4 	lui	t5,0xcb4
    2ffc:	35adfb1c 	ori	t5,t5,0xfb1c
    3000:	160d17f4 	bne	s0,t5,8fd4 <inst_error>
    3004:	00000000 	nop
    3008:	00000000 	nop
    300c:	3c0c5d38 	lui	t4,0x5d38
    3010:	358ca700 	ori	t4,t4,0xa700
    3014:	164c17ef 	bne	s2,t4,8fd4 <inst_error>
    3018:	00000000 	nop
    301c:	00000000 	nop
    3020:	26b50008 	addiu	s5,s5,8
    3024:	169517eb 	bne	s4,s5,8fd4 <inst_error>
    3028:	00000000 	nop
    302c:	00000000 	nop
    3030:	001fb021 	addu	s6,zero,ra
    3034:	3c0c9407 	lui	t4,0x9407
    3038:	358c4b4a 	ori	t4,t4,0x4b4a
    303c:	3c0d19de 	lui	t5,0x19de
    3040:	35ad1db2 	ori	t5,t5,0x1db2
    3044:	24100000 	li	s0,0
    3048:	1000000d 	b	3080 <n38_jal_test+0x3080>
    304c:	24120000 	li	s2,0
    3050:	00000000 	nop
    3054:	3c109407 	lui	s0,0x9407
    3058:	36104b4a 	ori	s0,s0,0x4b4a
    305c:	0c000c26 	jal	3098 <n38_jal_test+0x3098>
    3060:	00000000 	nop
    3064:	1000000e 	b	30a0 <n38_jal_test+0x30a0>
    3068:	00000000 	nop
    306c:	00000000 	nop
    3070:	00000021 	move	zero,zero
    3074:	00000021 	move	zero,zero
    3078:	00000021 	move	zero,zero
    307c:	00000021 	move	zero,zero
    3080:	0c000c15 	jal	3054 <n38_jal_test+0x3054>
    3084:	00000000 	nop
    3088:	10000005 	b	30a0 <n38_jal_test+0x30a0>
    308c:	00000000 	nop
    3090:	00000000 	nop
    3094:	00000021 	move	zero,zero
    3098:	3c1219de 	lui	s2,0x19de
    309c:	36521db2 	ori	s2,s2,0x1db2
    30a0:	001fa021 	addu	s4,zero,ra
    30a4:	0016f821 	addu	ra,zero,s6
    30a8:	3c150000 	lui	s5,0x0
    30ac:	26b5305c 	addiu	s5,s5,12380
    30b0:	3c0d9407 	lui	t5,0x9407
    30b4:	35ad4b4a 	ori	t5,t5,0x4b4a
    30b8:	160d17c6 	bne	s0,t5,8fd4 <inst_error>
    30bc:	00000000 	nop
    30c0:	00000000 	nop
    30c4:	3c0c19de 	lui	t4,0x19de
    30c8:	358c1db2 	ori	t4,t4,0x1db2
    30cc:	164c17c1 	bne	s2,t4,8fd4 <inst_error>
    30d0:	00000000 	nop
    30d4:	00000000 	nop
    30d8:	26b50008 	addiu	s5,s5,8
    30dc:	169517bd 	bne	s4,s5,8fd4 <inst_error>
    30e0:	00000000 	nop
    30e4:	00000000 	nop
    30e8:	001fb021 	addu	s6,zero,ra
    30ec:	3c0c47bf 	lui	t4,0x47bf
    30f0:	358cb4b8 	ori	t4,t4,0xb4b8
    30f4:	3c0d48c0 	lui	t5,0x48c0
    30f8:	35adff80 	ori	t5,t5,0xff80
    30fc:	24100000 	li	s0,0
    3100:	1000000d 	b	3138 <n38_jal_test+0x3138>
    3104:	24120000 	li	s2,0
    3108:	00000000 	nop
    310c:	3c1047bf 	lui	s0,0x47bf
    3110:	3610b4b8 	ori	s0,s0,0xb4b8
    3114:	0c000c54 	jal	3150 <n38_jal_test+0x3150>
    3118:	00000000 	nop
    311c:	1000000e 	b	3158 <n38_jal_test+0x3158>
    3120:	00000000 	nop
    3124:	00000000 	nop
    3128:	00000021 	move	zero,zero
    312c:	00000021 	move	zero,zero
    3130:	00000021 	move	zero,zero
    3134:	00000021 	move	zero,zero
    3138:	0c000c43 	jal	310c <n38_jal_test+0x310c>
    313c:	00000000 	nop
    3140:	10000005 	b	3158 <n38_jal_test+0x3158>
    3144:	00000000 	nop
    3148:	00000000 	nop
    314c:	00000021 	move	zero,zero
    3150:	3c1248c0 	lui	s2,0x48c0
    3154:	3652ff80 	ori	s2,s2,0xff80
    3158:	001fa021 	addu	s4,zero,ra
    315c:	0016f821 	addu	ra,zero,s6
    3160:	3c150000 	lui	s5,0x0
    3164:	26b53114 	addiu	s5,s5,12564
    3168:	3c0d47bf 	lui	t5,0x47bf
    316c:	35adb4b8 	ori	t5,t5,0xb4b8
    3170:	160d1798 	bne	s0,t5,8fd4 <inst_error>
    3174:	00000000 	nop
    3178:	00000000 	nop
    317c:	3c0c48c0 	lui	t4,0x48c0
    3180:	358cff80 	ori	t4,t4,0xff80
    3184:	164c1793 	bne	s2,t4,8fd4 <inst_error>
    3188:	00000000 	nop
    318c:	00000000 	nop
    3190:	26b50008 	addiu	s5,s5,8
    3194:	1695178f 	bne	s4,s5,8fd4 <inst_error>
    3198:	00000000 	nop
    319c:	00000000 	nop
    31a0:	001fb021 	addu	s6,zero,ra
    31a4:	3c0c6f54 	lui	t4,0x6f54
    31a8:	358c3ca0 	ori	t4,t4,0x3ca0
    31ac:	3c0da3af 	lui	t5,0xa3af
    31b0:	35adbfd0 	ori	t5,t5,0xbfd0
    31b4:	24100000 	li	s0,0
    31b8:	1000000d 	b	31f0 <n38_jal_test+0x31f0>
    31bc:	24120000 	li	s2,0
    31c0:	00000000 	nop
    31c4:	3c106f54 	lui	s0,0x6f54
    31c8:	36103ca0 	ori	s0,s0,0x3ca0
    31cc:	0c000c82 	jal	3208 <n38_jal_test+0x3208>
    31d0:	00000000 	nop
    31d4:	1000000e 	b	3210 <n38_jal_test+0x3210>
    31d8:	00000000 	nop
    31dc:	00000000 	nop
    31e0:	00000021 	move	zero,zero
    31e4:	00000021 	move	zero,zero
    31e8:	00000021 	move	zero,zero
    31ec:	00000021 	move	zero,zero
    31f0:	0c000c71 	jal	31c4 <n38_jal_test+0x31c4>
    31f4:	00000000 	nop
    31f8:	10000005 	b	3210 <n38_jal_test+0x3210>
    31fc:	00000000 	nop
    3200:	00000000 	nop
    3204:	00000021 	move	zero,zero
    3208:	3c12a3af 	lui	s2,0xa3af
    320c:	3652bfd0 	ori	s2,s2,0xbfd0
    3210:	001fa021 	addu	s4,zero,ra
    3214:	0016f821 	addu	ra,zero,s6
    3218:	3c150000 	lui	s5,0x0
    321c:	26b531cc 	addiu	s5,s5,12748
    3220:	3c0d6f54 	lui	t5,0x6f54
    3224:	35ad3ca0 	ori	t5,t5,0x3ca0
    3228:	160d176a 	bne	s0,t5,8fd4 <inst_error>
    322c:	00000000 	nop
    3230:	00000000 	nop
    3234:	3c0ca3af 	lui	t4,0xa3af
    3238:	358cbfd0 	ori	t4,t4,0xbfd0
    323c:	164c1765 	bne	s2,t4,8fd4 <inst_error>
    3240:	00000000 	nop
    3244:	00000000 	nop
    3248:	26b50008 	addiu	s5,s5,8
    324c:	16951761 	bne	s4,s5,8fd4 <inst_error>
    3250:	00000000 	nop
    3254:	00000000 	nop
    3258:	001fb021 	addu	s6,zero,ra
    325c:	3c0ce415 	lui	t4,0xe415
    3260:	358cada8 	ori	t4,t4,0xada8
    3264:	3c0dbf88 	lui	t5,0xbf88
    3268:	35ad4e60 	ori	t5,t5,0x4e60
    326c:	24100000 	li	s0,0
    3270:	1000000d 	b	32a8 <n38_jal_test+0x32a8>
    3274:	24120000 	li	s2,0
    3278:	00000000 	nop
    327c:	3c10e415 	lui	s0,0xe415
    3280:	3610ada8 	ori	s0,s0,0xada8
    3284:	0c000cb0 	jal	32c0 <n38_jal_test+0x32c0>
    3288:	00000000 	nop
    328c:	1000000e 	b	32c8 <n38_jal_test+0x32c8>
    3290:	00000000 	nop
    3294:	00000000 	nop
    3298:	00000021 	move	zero,zero
    329c:	00000021 	move	zero,zero
    32a0:	00000021 	move	zero,zero
    32a4:	00000021 	move	zero,zero
    32a8:	0c000c9f 	jal	327c <n38_jal_test+0x327c>
    32ac:	00000000 	nop
    32b0:	10000005 	b	32c8 <n38_jal_test+0x32c8>
    32b4:	00000000 	nop
    32b8:	00000000 	nop
    32bc:	00000021 	move	zero,zero
    32c0:	3c12bf88 	lui	s2,0xbf88
    32c4:	36524e60 	ori	s2,s2,0x4e60
    32c8:	001fa021 	addu	s4,zero,ra
    32cc:	0016f821 	addu	ra,zero,s6
    32d0:	3c150000 	lui	s5,0x0
    32d4:	26b53284 	addiu	s5,s5,12932
    32d8:	3c0de415 	lui	t5,0xe415
    32dc:	35adada8 	ori	t5,t5,0xada8
    32e0:	160d173c 	bne	s0,t5,8fd4 <inst_error>
    32e4:	00000000 	nop
    32e8:	00000000 	nop
    32ec:	3c0cbf88 	lui	t4,0xbf88
    32f0:	358c4e60 	ori	t4,t4,0x4e60
    32f4:	164c1737 	bne	s2,t4,8fd4 <inst_error>
    32f8:	00000000 	nop
    32fc:	00000000 	nop
    3300:	26b50008 	addiu	s5,s5,8
    3304:	16951733 	bne	s4,s5,8fd4 <inst_error>
    3308:	00000000 	nop
    330c:	00000000 	nop
    3310:	001fb021 	addu	s6,zero,ra
    3314:	3c0c0b96 	lui	t4,0xb96
    3318:	358cab22 	ori	t4,t4,0xab22
    331c:	3c0dc0d6 	lui	t5,0xc0d6
    3320:	35adf7c4 	ori	t5,t5,0xf7c4
    3324:	24100000 	li	s0,0
    3328:	1000000d 	b	3360 <n38_jal_test+0x3360>
    332c:	24120000 	li	s2,0
    3330:	00000000 	nop
    3334:	3c100b96 	lui	s0,0xb96
    3338:	3610ab22 	ori	s0,s0,0xab22
    333c:	0c000cde 	jal	3378 <n38_jal_test+0x3378>
    3340:	00000000 	nop
    3344:	1000000e 	b	3380 <n38_jal_test+0x3380>
    3348:	00000000 	nop
    334c:	00000000 	nop
    3350:	00000021 	move	zero,zero
    3354:	00000021 	move	zero,zero
    3358:	00000021 	move	zero,zero
    335c:	00000021 	move	zero,zero
    3360:	0c000ccd 	jal	3334 <n38_jal_test+0x3334>
    3364:	00000000 	nop
    3368:	10000005 	b	3380 <n38_jal_test+0x3380>
    336c:	00000000 	nop
    3370:	00000000 	nop
    3374:	00000021 	move	zero,zero
    3378:	3c12c0d6 	lui	s2,0xc0d6
    337c:	3652f7c4 	ori	s2,s2,0xf7c4
    3380:	001fa021 	addu	s4,zero,ra
    3384:	0016f821 	addu	ra,zero,s6
    3388:	3c150000 	lui	s5,0x0
    338c:	26b5333c 	addiu	s5,s5,13116
    3390:	3c0d0b96 	lui	t5,0xb96
    3394:	35adab22 	ori	t5,t5,0xab22
    3398:	160d170e 	bne	s0,t5,8fd4 <inst_error>
    339c:	00000000 	nop
    33a0:	00000000 	nop
    33a4:	3c0cc0d6 	lui	t4,0xc0d6
    33a8:	358cf7c4 	ori	t4,t4,0xf7c4
    33ac:	164c1709 	bne	s2,t4,8fd4 <inst_error>
    33b0:	00000000 	nop
    33b4:	00000000 	nop
    33b8:	26b50008 	addiu	s5,s5,8
    33bc:	16951705 	bne	s4,s5,8fd4 <inst_error>
    33c0:	00000000 	nop
    33c4:	00000000 	nop
    33c8:	001fb021 	addu	s6,zero,ra
    33cc:	3c0c5ae2 	lui	t4,0x5ae2
    33d0:	358c8f04 	ori	t4,t4,0x8f04
    33d4:	3c0df13e 	lui	t5,0xf13e
    33d8:	35ada9c0 	ori	t5,t5,0xa9c0
    33dc:	24100000 	li	s0,0
    33e0:	1000000d 	b	3418 <n38_jal_test+0x3418>
    33e4:	24120000 	li	s2,0
    33e8:	00000000 	nop
    33ec:	3c105ae2 	lui	s0,0x5ae2
    33f0:	36108f04 	ori	s0,s0,0x8f04
    33f4:	0c000d0c 	jal	3430 <n38_jal_test+0x3430>
    33f8:	00000000 	nop
    33fc:	1000000e 	b	3438 <n38_jal_test+0x3438>
    3400:	00000000 	nop
    3404:	00000000 	nop
    3408:	00000021 	move	zero,zero
    340c:	00000021 	move	zero,zero
    3410:	00000021 	move	zero,zero
    3414:	00000021 	move	zero,zero
    3418:	0c000cfb 	jal	33ec <n38_jal_test+0x33ec>
    341c:	00000000 	nop
    3420:	10000005 	b	3438 <n38_jal_test+0x3438>
    3424:	00000000 	nop
    3428:	00000000 	nop
    342c:	00000021 	move	zero,zero
    3430:	3c12f13e 	lui	s2,0xf13e
    3434:	3652a9c0 	ori	s2,s2,0xa9c0
    3438:	001fa021 	addu	s4,zero,ra
    343c:	0016f821 	addu	ra,zero,s6
    3440:	3c150000 	lui	s5,0x0
    3444:	26b533f4 	addiu	s5,s5,13300
    3448:	3c0d5ae2 	lui	t5,0x5ae2
    344c:	35ad8f04 	ori	t5,t5,0x8f04
    3450:	160d16e0 	bne	s0,t5,8fd4 <inst_error>
    3454:	00000000 	nop
    3458:	00000000 	nop
    345c:	3c0cf13e 	lui	t4,0xf13e
    3460:	358ca9c0 	ori	t4,t4,0xa9c0
    3464:	164c16db 	bne	s2,t4,8fd4 <inst_error>
    3468:	00000000 	nop
    346c:	00000000 	nop
    3470:	26b50008 	addiu	s5,s5,8
    3474:	169516d7 	bne	s4,s5,8fd4 <inst_error>
    3478:	00000000 	nop
    347c:	00000000 	nop
    3480:	001fb021 	addu	s6,zero,ra
    3484:	3c0c2a34 	lui	t4,0x2a34
    3488:	358ca7e4 	ori	t4,t4,0xa7e4
    348c:	3c0dcbaf 	lui	t5,0xcbaf
    3490:	35ad7220 	ori	t5,t5,0x7220
    3494:	24100000 	li	s0,0
    3498:	1000000d 	b	34d0 <n38_jal_test+0x34d0>
    349c:	24120000 	li	s2,0
    34a0:	00000000 	nop
    34a4:	3c102a34 	lui	s0,0x2a34
    34a8:	3610a7e4 	ori	s0,s0,0xa7e4
    34ac:	0c000d3a 	jal	34e8 <n38_jal_test+0x34e8>
    34b0:	00000000 	nop
    34b4:	1000000e 	b	34f0 <n38_jal_test+0x34f0>
    34b8:	00000000 	nop
    34bc:	00000000 	nop
    34c0:	00000021 	move	zero,zero
    34c4:	00000021 	move	zero,zero
    34c8:	00000021 	move	zero,zero
    34cc:	00000021 	move	zero,zero
    34d0:	0c000d29 	jal	34a4 <n38_jal_test+0x34a4>
    34d4:	00000000 	nop
    34d8:	10000005 	b	34f0 <n38_jal_test+0x34f0>
    34dc:	00000000 	nop
    34e0:	00000000 	nop
    34e4:	00000021 	move	zero,zero
    34e8:	3c12cbaf 	lui	s2,0xcbaf
    34ec:	36527220 	ori	s2,s2,0x7220
    34f0:	001fa021 	addu	s4,zero,ra
    34f4:	0016f821 	addu	ra,zero,s6
    34f8:	3c150000 	lui	s5,0x0
    34fc:	26b534ac 	addiu	s5,s5,13484
    3500:	3c0d2a34 	lui	t5,0x2a34
    3504:	35ada7e4 	ori	t5,t5,0xa7e4
    3508:	160d16b2 	bne	s0,t5,8fd4 <inst_error>
    350c:	00000000 	nop
    3510:	00000000 	nop
    3514:	3c0ccbaf 	lui	t4,0xcbaf
    3518:	358c7220 	ori	t4,t4,0x7220
    351c:	164c16ad 	bne	s2,t4,8fd4 <inst_error>
    3520:	00000000 	nop
    3524:	00000000 	nop
    3528:	26b50008 	addiu	s5,s5,8
    352c:	169516a9 	bne	s4,s5,8fd4 <inst_error>
    3530:	00000000 	nop
    3534:	00000000 	nop
    3538:	001fb021 	addu	s6,zero,ra
    353c:	3c0cd0ad 	lui	t4,0xd0ad
    3540:	358c4298 	ori	t4,t4,0x4298
    3544:	3c0df331 	lui	t5,0xf331
    3548:	35ad669e 	ori	t5,t5,0x669e
    354c:	24100000 	li	s0,0
    3550:	1000000d 	b	3588 <n38_jal_test+0x3588>
    3554:	24120000 	li	s2,0
    3558:	00000000 	nop
    355c:	3c10d0ad 	lui	s0,0xd0ad
    3560:	36104298 	ori	s0,s0,0x4298
    3564:	0c000d68 	jal	35a0 <n38_jal_test+0x35a0>
    3568:	00000000 	nop
    356c:	1000000e 	b	35a8 <n38_jal_test+0x35a8>
    3570:	00000000 	nop
    3574:	00000000 	nop
    3578:	00000021 	move	zero,zero
    357c:	00000021 	move	zero,zero
    3580:	00000021 	move	zero,zero
    3584:	00000021 	move	zero,zero
    3588:	0c000d57 	jal	355c <n38_jal_test+0x355c>
    358c:	00000000 	nop
    3590:	10000005 	b	35a8 <n38_jal_test+0x35a8>
    3594:	00000000 	nop
    3598:	00000000 	nop
    359c:	00000021 	move	zero,zero
    35a0:	3c12f331 	lui	s2,0xf331
    35a4:	3652669e 	ori	s2,s2,0x669e
    35a8:	001fa021 	addu	s4,zero,ra
    35ac:	0016f821 	addu	ra,zero,s6
    35b0:	3c150000 	lui	s5,0x0
    35b4:	26b53564 	addiu	s5,s5,13668
    35b8:	3c0dd0ad 	lui	t5,0xd0ad
    35bc:	35ad4298 	ori	t5,t5,0x4298
    35c0:	160d1684 	bne	s0,t5,8fd4 <inst_error>
    35c4:	00000000 	nop
    35c8:	00000000 	nop
    35cc:	3c0cf331 	lui	t4,0xf331
    35d0:	358c669e 	ori	t4,t4,0x669e
    35d4:	164c167f 	bne	s2,t4,8fd4 <inst_error>
    35d8:	00000000 	nop
    35dc:	00000000 	nop
    35e0:	26b50008 	addiu	s5,s5,8
    35e4:	1695167b 	bne	s4,s5,8fd4 <inst_error>
    35e8:	00000000 	nop
    35ec:	00000000 	nop
    35f0:	001fb021 	addu	s6,zero,ra
    35f4:	3c0ca066 	lui	t4,0xa066
    35f8:	358c6600 	ori	t4,t4,0x6600
    35fc:	3c0dd2db 	lui	t5,0xd2db
    3600:	35adb338 	ori	t5,t5,0xb338
    3604:	24100000 	li	s0,0
    3608:	1000000d 	b	3640 <n38_jal_test+0x3640>
    360c:	24120000 	li	s2,0
    3610:	00000000 	nop
    3614:	3c10a066 	lui	s0,0xa066
    3618:	36106600 	ori	s0,s0,0x6600
    361c:	0c000d96 	jal	3658 <n38_jal_test+0x3658>
    3620:	00000000 	nop
    3624:	1000000e 	b	3660 <n38_jal_test+0x3660>
    3628:	00000000 	nop
    362c:	00000000 	nop
    3630:	00000021 	move	zero,zero
    3634:	00000021 	move	zero,zero
    3638:	00000021 	move	zero,zero
    363c:	00000021 	move	zero,zero
    3640:	0c000d85 	jal	3614 <n38_jal_test+0x3614>
    3644:	00000000 	nop
    3648:	10000005 	b	3660 <n38_jal_test+0x3660>
    364c:	00000000 	nop
    3650:	00000000 	nop
    3654:	00000021 	move	zero,zero
    3658:	3c12d2db 	lui	s2,0xd2db
    365c:	3652b338 	ori	s2,s2,0xb338
    3660:	001fa021 	addu	s4,zero,ra
    3664:	0016f821 	addu	ra,zero,s6
    3668:	3c150000 	lui	s5,0x0
    366c:	26b5361c 	addiu	s5,s5,13852
    3670:	3c0da066 	lui	t5,0xa066
    3674:	35ad6600 	ori	t5,t5,0x6600
    3678:	160d1656 	bne	s0,t5,8fd4 <inst_error>
    367c:	00000000 	nop
    3680:	00000000 	nop
    3684:	3c0cd2db 	lui	t4,0xd2db
    3688:	358cb338 	ori	t4,t4,0xb338
    368c:	164c1651 	bne	s2,t4,8fd4 <inst_error>
    3690:	00000000 	nop
    3694:	00000000 	nop
    3698:	26b50008 	addiu	s5,s5,8
    369c:	1695164d 	bne	s4,s5,8fd4 <inst_error>
    36a0:	00000000 	nop
    36a4:	00000000 	nop
    36a8:	001fb021 	addu	s6,zero,ra
    36ac:	3c0c78bc 	lui	t4,0x78bc
    36b0:	358c78cc 	ori	t4,t4,0x78cc
    36b4:	3c0d5b60 	lui	t5,0x5b60
    36b8:	35ad16a0 	ori	t5,t5,0x16a0
    36bc:	24100000 	li	s0,0
    36c0:	1000000d 	b	36f8 <n38_jal_test+0x36f8>
    36c4:	24120000 	li	s2,0
    36c8:	00000000 	nop
    36cc:	3c1078bc 	lui	s0,0x78bc
    36d0:	361078cc 	ori	s0,s0,0x78cc
    36d4:	0c000dc4 	jal	3710 <n38_jal_test+0x3710>
    36d8:	00000000 	nop
    36dc:	1000000e 	b	3718 <n38_jal_test+0x3718>
    36e0:	00000000 	nop
    36e4:	00000000 	nop
    36e8:	00000021 	move	zero,zero
    36ec:	00000021 	move	zero,zero
    36f0:	00000021 	move	zero,zero
    36f4:	00000021 	move	zero,zero
    36f8:	0c000db3 	jal	36cc <n38_jal_test+0x36cc>
    36fc:	00000000 	nop
    3700:	10000005 	b	3718 <n38_jal_test+0x3718>
    3704:	00000000 	nop
    3708:	00000000 	nop
    370c:	00000021 	move	zero,zero
    3710:	3c125b60 	lui	s2,0x5b60
    3714:	365216a0 	ori	s2,s2,0x16a0
    3718:	001fa021 	addu	s4,zero,ra
    371c:	0016f821 	addu	ra,zero,s6
    3720:	3c150000 	lui	s5,0x0
    3724:	26b536d4 	addiu	s5,s5,14036
    3728:	3c0d78bc 	lui	t5,0x78bc
    372c:	35ad78cc 	ori	t5,t5,0x78cc
    3730:	160d1628 	bne	s0,t5,8fd4 <inst_error>
    3734:	00000000 	nop
    3738:	00000000 	nop
    373c:	3c0c5b60 	lui	t4,0x5b60
    3740:	358c16a0 	ori	t4,t4,0x16a0
    3744:	164c1623 	bne	s2,t4,8fd4 <inst_error>
    3748:	00000000 	nop
    374c:	00000000 	nop
    3750:	26b50008 	addiu	s5,s5,8
    3754:	1695161f 	bne	s4,s5,8fd4 <inst_error>
    3758:	00000000 	nop
    375c:	00000000 	nop
    3760:	001fb021 	addu	s6,zero,ra
    3764:	3c0ce705 	lui	t4,0xe705
    3768:	358c0f78 	ori	t4,t4,0xf78
    376c:	3c0d39d5 	lui	t5,0x39d5
    3770:	35ad936c 	ori	t5,t5,0x936c
    3774:	24100000 	li	s0,0
    3778:	1000000d 	b	37b0 <n38_jal_test+0x37b0>
    377c:	24120000 	li	s2,0
    3780:	00000000 	nop
    3784:	3c10e705 	lui	s0,0xe705
    3788:	36100f78 	ori	s0,s0,0xf78
    378c:	0c000df2 	jal	37c8 <n38_jal_test+0x37c8>
    3790:	00000000 	nop
    3794:	1000000e 	b	37d0 <n38_jal_test+0x37d0>
    3798:	00000000 	nop
    379c:	00000000 	nop
    37a0:	00000021 	move	zero,zero
    37a4:	00000021 	move	zero,zero
    37a8:	00000021 	move	zero,zero
    37ac:	00000021 	move	zero,zero
    37b0:	0c000de1 	jal	3784 <n38_jal_test+0x3784>
    37b4:	00000000 	nop
    37b8:	10000005 	b	37d0 <n38_jal_test+0x37d0>
    37bc:	00000000 	nop
    37c0:	00000000 	nop
    37c4:	00000021 	move	zero,zero
    37c8:	3c1239d5 	lui	s2,0x39d5
    37cc:	3652936c 	ori	s2,s2,0x936c
    37d0:	001fa021 	addu	s4,zero,ra
    37d4:	0016f821 	addu	ra,zero,s6
    37d8:	3c150000 	lui	s5,0x0
    37dc:	26b5378c 	addiu	s5,s5,14220
    37e0:	3c0de705 	lui	t5,0xe705
    37e4:	35ad0f78 	ori	t5,t5,0xf78
    37e8:	160d15fa 	bne	s0,t5,8fd4 <inst_error>
    37ec:	00000000 	nop
    37f0:	00000000 	nop
    37f4:	3c0c39d5 	lui	t4,0x39d5
    37f8:	358c936c 	ori	t4,t4,0x936c
    37fc:	164c15f5 	bne	s2,t4,8fd4 <inst_error>
    3800:	00000000 	nop
    3804:	00000000 	nop
    3808:	26b50008 	addiu	s5,s5,8
    380c:	169515f1 	bne	s4,s5,8fd4 <inst_error>
    3810:	00000000 	nop
    3814:	00000000 	nop
    3818:	001fb021 	addu	s6,zero,ra
    381c:	3c0c1991 	lui	t4,0x1991
    3820:	358c8b5e 	ori	t4,t4,0x8b5e
    3824:	3c0d4434 	lui	t5,0x4434
    3828:	35adcce4 	ori	t5,t5,0xcce4
    382c:	24100000 	li	s0,0
    3830:	1000000d 	b	3868 <n38_jal_test+0x3868>
    3834:	24120000 	li	s2,0
    3838:	00000000 	nop
    383c:	3c101991 	lui	s0,0x1991
    3840:	36108b5e 	ori	s0,s0,0x8b5e
    3844:	0c000e20 	jal	3880 <n38_jal_test+0x3880>
    3848:	00000000 	nop
    384c:	1000000e 	b	3888 <n38_jal_test+0x3888>
    3850:	00000000 	nop
    3854:	00000000 	nop
    3858:	00000021 	move	zero,zero
    385c:	00000021 	move	zero,zero
    3860:	00000021 	move	zero,zero
    3864:	00000021 	move	zero,zero
    3868:	0c000e0f 	jal	383c <n38_jal_test+0x383c>
    386c:	00000000 	nop
    3870:	10000005 	b	3888 <n38_jal_test+0x3888>
    3874:	00000000 	nop
    3878:	00000000 	nop
    387c:	00000021 	move	zero,zero
    3880:	3c124434 	lui	s2,0x4434
    3884:	3652cce4 	ori	s2,s2,0xcce4
    3888:	001fa021 	addu	s4,zero,ra
    388c:	0016f821 	addu	ra,zero,s6
    3890:	3c150000 	lui	s5,0x0
    3894:	26b53844 	addiu	s5,s5,14404
    3898:	3c0d1991 	lui	t5,0x1991
    389c:	35ad8b5e 	ori	t5,t5,0x8b5e
    38a0:	160d15cc 	bne	s0,t5,8fd4 <inst_error>
    38a4:	00000000 	nop
    38a8:	00000000 	nop
    38ac:	3c0c4434 	lui	t4,0x4434
    38b0:	358ccce4 	ori	t4,t4,0xcce4
    38b4:	164c15c7 	bne	s2,t4,8fd4 <inst_error>
    38b8:	00000000 	nop
    38bc:	00000000 	nop
    38c0:	26b50008 	addiu	s5,s5,8
    38c4:	169515c3 	bne	s4,s5,8fd4 <inst_error>
    38c8:	00000000 	nop
    38cc:	00000000 	nop
    38d0:	001fb021 	addu	s6,zero,ra
    38d4:	3c0cfb66 	lui	t4,0xfb66
    38d8:	358c58fc 	ori	t4,t4,0x58fc
    38dc:	3c0d55f6 	lui	t5,0x55f6
    38e0:	35adc180 	ori	t5,t5,0xc180
    38e4:	24100000 	li	s0,0
    38e8:	1000000d 	b	3920 <n38_jal_test+0x3920>
    38ec:	24120000 	li	s2,0
    38f0:	00000000 	nop
    38f4:	3c10fb66 	lui	s0,0xfb66
    38f8:	361058fc 	ori	s0,s0,0x58fc
    38fc:	0c000e4e 	jal	3938 <n38_jal_test+0x3938>
    3900:	00000000 	nop
    3904:	1000000e 	b	3940 <n38_jal_test+0x3940>
    3908:	00000000 	nop
    390c:	00000000 	nop
    3910:	00000021 	move	zero,zero
    3914:	00000021 	move	zero,zero
    3918:	00000021 	move	zero,zero
    391c:	00000021 	move	zero,zero
    3920:	0c000e3d 	jal	38f4 <n38_jal_test+0x38f4>
    3924:	00000000 	nop
    3928:	10000005 	b	3940 <n38_jal_test+0x3940>
    392c:	00000000 	nop
    3930:	00000000 	nop
    3934:	00000021 	move	zero,zero
    3938:	3c1255f6 	lui	s2,0x55f6
    393c:	3652c180 	ori	s2,s2,0xc180
    3940:	001fa021 	addu	s4,zero,ra
    3944:	0016f821 	addu	ra,zero,s6
    3948:	3c150000 	lui	s5,0x0
    394c:	26b538fc 	addiu	s5,s5,14588
    3950:	3c0dfb66 	lui	t5,0xfb66
    3954:	35ad58fc 	ori	t5,t5,0x58fc
    3958:	160d159e 	bne	s0,t5,8fd4 <inst_error>
    395c:	00000000 	nop
    3960:	00000000 	nop
    3964:	3c0c55f6 	lui	t4,0x55f6
    3968:	358cc180 	ori	t4,t4,0xc180
    396c:	164c1599 	bne	s2,t4,8fd4 <inst_error>
    3970:	00000000 	nop
    3974:	00000000 	nop
    3978:	26b50008 	addiu	s5,s5,8
    397c:	16951595 	bne	s4,s5,8fd4 <inst_error>
    3980:	00000000 	nop
    3984:	00000000 	nop
    3988:	001fb021 	addu	s6,zero,ra
    398c:	3c0c5c59 	lui	t4,0x5c59
    3990:	358c7442 	ori	t4,t4,0x7442
    3994:	3c0d9706 	lui	t5,0x9706
    3998:	35ad9b95 	ori	t5,t5,0x9b95
    399c:	24100000 	li	s0,0
    39a0:	1000000d 	b	39d8 <n38_jal_test+0x39d8>
    39a4:	24120000 	li	s2,0
    39a8:	00000000 	nop
    39ac:	3c105c59 	lui	s0,0x5c59
    39b0:	36107442 	ori	s0,s0,0x7442
    39b4:	0c000e7c 	jal	39f0 <n38_jal_test+0x39f0>
    39b8:	00000000 	nop
    39bc:	1000000e 	b	39f8 <n38_jal_test+0x39f8>
    39c0:	00000000 	nop
    39c4:	00000000 	nop
    39c8:	00000021 	move	zero,zero
    39cc:	00000021 	move	zero,zero
    39d0:	00000021 	move	zero,zero
    39d4:	00000021 	move	zero,zero
    39d8:	0c000e6b 	jal	39ac <n38_jal_test+0x39ac>
    39dc:	00000000 	nop
    39e0:	10000005 	b	39f8 <n38_jal_test+0x39f8>
    39e4:	00000000 	nop
    39e8:	00000000 	nop
    39ec:	00000021 	move	zero,zero
    39f0:	3c129706 	lui	s2,0x9706
    39f4:	36529b95 	ori	s2,s2,0x9b95
    39f8:	001fa021 	addu	s4,zero,ra
    39fc:	0016f821 	addu	ra,zero,s6
    3a00:	3c150000 	lui	s5,0x0
    3a04:	26b539b4 	addiu	s5,s5,14772
    3a08:	3c0d5c59 	lui	t5,0x5c59
    3a0c:	35ad7442 	ori	t5,t5,0x7442
    3a10:	160d1570 	bne	s0,t5,8fd4 <inst_error>
    3a14:	00000000 	nop
    3a18:	00000000 	nop
    3a1c:	3c0c9706 	lui	t4,0x9706
    3a20:	358c9b95 	ori	t4,t4,0x9b95
    3a24:	164c156b 	bne	s2,t4,8fd4 <inst_error>
    3a28:	00000000 	nop
    3a2c:	00000000 	nop
    3a30:	26b50008 	addiu	s5,s5,8
    3a34:	16951567 	bne	s4,s5,8fd4 <inst_error>
    3a38:	00000000 	nop
    3a3c:	00000000 	nop
    3a40:	001fb021 	addu	s6,zero,ra
    3a44:	3c0c4064 	lui	t4,0x4064
    3a48:	358c1bb4 	ori	t4,t4,0x1bb4
    3a4c:	3c0da4a7 	lui	t5,0xa4a7
    3a50:	35ade410 	ori	t5,t5,0xe410
    3a54:	24100000 	li	s0,0
    3a58:	1000000d 	b	3a90 <n38_jal_test+0x3a90>
    3a5c:	24120000 	li	s2,0
    3a60:	00000000 	nop
    3a64:	3c104064 	lui	s0,0x4064
    3a68:	36101bb4 	ori	s0,s0,0x1bb4
    3a6c:	0c000eaa 	jal	3aa8 <n38_jal_test+0x3aa8>
    3a70:	00000000 	nop
    3a74:	1000000e 	b	3ab0 <n38_jal_test+0x3ab0>
    3a78:	00000000 	nop
    3a7c:	00000000 	nop
    3a80:	00000021 	move	zero,zero
    3a84:	00000021 	move	zero,zero
    3a88:	00000021 	move	zero,zero
    3a8c:	00000021 	move	zero,zero
    3a90:	0c000e99 	jal	3a64 <n38_jal_test+0x3a64>
    3a94:	00000000 	nop
    3a98:	10000005 	b	3ab0 <n38_jal_test+0x3ab0>
    3a9c:	00000000 	nop
    3aa0:	00000000 	nop
    3aa4:	00000021 	move	zero,zero
    3aa8:	3c12a4a7 	lui	s2,0xa4a7
    3aac:	3652e410 	ori	s2,s2,0xe410
    3ab0:	001fa021 	addu	s4,zero,ra
    3ab4:	0016f821 	addu	ra,zero,s6
    3ab8:	3c150000 	lui	s5,0x0
    3abc:	26b53a6c 	addiu	s5,s5,14956
    3ac0:	3c0d4064 	lui	t5,0x4064
    3ac4:	35ad1bb4 	ori	t5,t5,0x1bb4
    3ac8:	160d1542 	bne	s0,t5,8fd4 <inst_error>
    3acc:	00000000 	nop
    3ad0:	00000000 	nop
    3ad4:	3c0ca4a7 	lui	t4,0xa4a7
    3ad8:	358ce410 	ori	t4,t4,0xe410
    3adc:	164c153d 	bne	s2,t4,8fd4 <inst_error>
    3ae0:	00000000 	nop
    3ae4:	00000000 	nop
    3ae8:	26b50008 	addiu	s5,s5,8
    3aec:	16951539 	bne	s4,s5,8fd4 <inst_error>
    3af0:	00000000 	nop
    3af4:	00000000 	nop
    3af8:	001fb021 	addu	s6,zero,ra
    3afc:	3c0ca6f1 	lui	t4,0xa6f1
    3b00:	358c77e0 	ori	t4,t4,0x77e0
    3b04:	3c0d6297 	lui	t5,0x6297
    3b08:	35ad679f 	ori	t5,t5,0x679f
    3b0c:	24100000 	li	s0,0
    3b10:	1000000d 	b	3b48 <n38_jal_test+0x3b48>
    3b14:	24120000 	li	s2,0
    3b18:	00000000 	nop
    3b1c:	3c10a6f1 	lui	s0,0xa6f1
    3b20:	361077e0 	ori	s0,s0,0x77e0
    3b24:	0c000ed8 	jal	3b60 <n38_jal_test+0x3b60>
    3b28:	00000000 	nop
    3b2c:	1000000e 	b	3b68 <n38_jal_test+0x3b68>
    3b30:	00000000 	nop
    3b34:	00000000 	nop
    3b38:	00000021 	move	zero,zero
    3b3c:	00000021 	move	zero,zero
    3b40:	00000021 	move	zero,zero
    3b44:	00000021 	move	zero,zero
    3b48:	0c000ec7 	jal	3b1c <n38_jal_test+0x3b1c>
    3b4c:	00000000 	nop
    3b50:	10000005 	b	3b68 <n38_jal_test+0x3b68>
    3b54:	00000000 	nop
    3b58:	00000000 	nop
    3b5c:	00000021 	move	zero,zero
    3b60:	3c126297 	lui	s2,0x6297
    3b64:	3652679f 	ori	s2,s2,0x679f
    3b68:	001fa021 	addu	s4,zero,ra
    3b6c:	0016f821 	addu	ra,zero,s6
    3b70:	3c150000 	lui	s5,0x0
    3b74:	26b53b24 	addiu	s5,s5,15140
    3b78:	3c0da6f1 	lui	t5,0xa6f1
    3b7c:	35ad77e0 	ori	t5,t5,0x77e0
    3b80:	160d1514 	bne	s0,t5,8fd4 <inst_error>
    3b84:	00000000 	nop
    3b88:	00000000 	nop
    3b8c:	3c0c6297 	lui	t4,0x6297
    3b90:	358c679f 	ori	t4,t4,0x679f
    3b94:	164c150f 	bne	s2,t4,8fd4 <inst_error>
    3b98:	00000000 	nop
    3b9c:	00000000 	nop
    3ba0:	26b50008 	addiu	s5,s5,8
    3ba4:	1695150b 	bne	s4,s5,8fd4 <inst_error>
    3ba8:	00000000 	nop
    3bac:	00000000 	nop
    3bb0:	001fb021 	addu	s6,zero,ra
    3bb4:	3c0cde48 	lui	t4,0xde48
    3bb8:	358c05a8 	ori	t4,t4,0x5a8
    3bbc:	3c0d831d 	lui	t5,0x831d
    3bc0:	35ad0fe8 	ori	t5,t5,0xfe8
    3bc4:	24100000 	li	s0,0
    3bc8:	1000000d 	b	3c00 <n38_jal_test+0x3c00>
    3bcc:	24120000 	li	s2,0
    3bd0:	00000000 	nop
    3bd4:	3c10de48 	lui	s0,0xde48
    3bd8:	361005a8 	ori	s0,s0,0x5a8
    3bdc:	0c000f06 	jal	3c18 <n38_jal_test+0x3c18>
    3be0:	00000000 	nop
    3be4:	1000000e 	b	3c20 <n38_jal_test+0x3c20>
    3be8:	00000000 	nop
    3bec:	00000000 	nop
    3bf0:	00000021 	move	zero,zero
    3bf4:	00000021 	move	zero,zero
    3bf8:	00000021 	move	zero,zero
    3bfc:	00000021 	move	zero,zero
    3c00:	0c000ef5 	jal	3bd4 <n38_jal_test+0x3bd4>
    3c04:	00000000 	nop
    3c08:	10000005 	b	3c20 <n38_jal_test+0x3c20>
    3c0c:	00000000 	nop
    3c10:	00000000 	nop
    3c14:	00000021 	move	zero,zero
    3c18:	3c12831d 	lui	s2,0x831d
    3c1c:	36520fe8 	ori	s2,s2,0xfe8
    3c20:	001fa021 	addu	s4,zero,ra
    3c24:	0016f821 	addu	ra,zero,s6
    3c28:	3c150000 	lui	s5,0x0
    3c2c:	26b53bdc 	addiu	s5,s5,15324
    3c30:	3c0dde48 	lui	t5,0xde48
    3c34:	35ad05a8 	ori	t5,t5,0x5a8
    3c38:	160d14e6 	bne	s0,t5,8fd4 <inst_error>
    3c3c:	00000000 	nop
    3c40:	00000000 	nop
    3c44:	3c0c831d 	lui	t4,0x831d
    3c48:	358c0fe8 	ori	t4,t4,0xfe8
    3c4c:	164c14e1 	bne	s2,t4,8fd4 <inst_error>
    3c50:	00000000 	nop
    3c54:	00000000 	nop
    3c58:	26b50008 	addiu	s5,s5,8
    3c5c:	169514dd 	bne	s4,s5,8fd4 <inst_error>
    3c60:	00000000 	nop
    3c64:	00000000 	nop
    3c68:	001fb021 	addu	s6,zero,ra
    3c6c:	3c0cd711 	lui	t4,0xd711
    3c70:	358c29d0 	ori	t4,t4,0x29d0
    3c74:	3c0d07e1 	lui	t5,0x7e1
    3c78:	35adfff8 	ori	t5,t5,0xfff8
    3c7c:	24100000 	li	s0,0
    3c80:	1000000d 	b	3cb8 <n38_jal_test+0x3cb8>
    3c84:	24120000 	li	s2,0
    3c88:	00000000 	nop
    3c8c:	3c10d711 	lui	s0,0xd711
    3c90:	361029d0 	ori	s0,s0,0x29d0
    3c94:	0c000f34 	jal	3cd0 <n38_jal_test+0x3cd0>
    3c98:	00000000 	nop
    3c9c:	1000000e 	b	3cd8 <n38_jal_test+0x3cd8>
    3ca0:	00000000 	nop
    3ca4:	00000000 	nop
    3ca8:	00000021 	move	zero,zero
    3cac:	00000021 	move	zero,zero
    3cb0:	00000021 	move	zero,zero
    3cb4:	00000021 	move	zero,zero
    3cb8:	0c000f23 	jal	3c8c <n38_jal_test+0x3c8c>
    3cbc:	00000000 	nop
    3cc0:	10000005 	b	3cd8 <n38_jal_test+0x3cd8>
    3cc4:	00000000 	nop
    3cc8:	00000000 	nop
    3ccc:	00000021 	move	zero,zero
    3cd0:	3c1207e1 	lui	s2,0x7e1
    3cd4:	3652fff8 	ori	s2,s2,0xfff8
    3cd8:	001fa021 	addu	s4,zero,ra
    3cdc:	0016f821 	addu	ra,zero,s6
    3ce0:	3c150000 	lui	s5,0x0
    3ce4:	26b53c94 	addiu	s5,s5,15508
    3ce8:	3c0dd711 	lui	t5,0xd711
    3cec:	35ad29d0 	ori	t5,t5,0x29d0
    3cf0:	160d14b8 	bne	s0,t5,8fd4 <inst_error>
    3cf4:	00000000 	nop
    3cf8:	00000000 	nop
    3cfc:	3c0c07e1 	lui	t4,0x7e1
    3d00:	358cfff8 	ori	t4,t4,0xfff8
    3d04:	164c14b3 	bne	s2,t4,8fd4 <inst_error>
    3d08:	00000000 	nop
    3d0c:	00000000 	nop
    3d10:	26b50008 	addiu	s5,s5,8
    3d14:	169514af 	bne	s4,s5,8fd4 <inst_error>
    3d18:	00000000 	nop
    3d1c:	00000000 	nop
    3d20:	001fb021 	addu	s6,zero,ra
    3d24:	3c0ca57e 	lui	t4,0xa57e
    3d28:	358cea80 	ori	t4,t4,0xea80
    3d2c:	3c0dead6 	lui	t5,0xead6
    3d30:	35ad8300 	ori	t5,t5,0x8300
    3d34:	24100000 	li	s0,0
    3d38:	1000000d 	b	3d70 <n38_jal_test+0x3d70>
    3d3c:	24120000 	li	s2,0
    3d40:	00000000 	nop
    3d44:	3c10a57e 	lui	s0,0xa57e
    3d48:	3610ea80 	ori	s0,s0,0xea80
    3d4c:	0c000f62 	jal	3d88 <n38_jal_test+0x3d88>
    3d50:	00000000 	nop
    3d54:	1000000e 	b	3d90 <n38_jal_test+0x3d90>
    3d58:	00000000 	nop
    3d5c:	00000000 	nop
    3d60:	00000021 	move	zero,zero
    3d64:	00000021 	move	zero,zero
    3d68:	00000021 	move	zero,zero
    3d6c:	00000021 	move	zero,zero
    3d70:	0c000f51 	jal	3d44 <n38_jal_test+0x3d44>
    3d74:	00000000 	nop
    3d78:	10000005 	b	3d90 <n38_jal_test+0x3d90>
    3d7c:	00000000 	nop
    3d80:	00000000 	nop
    3d84:	00000021 	move	zero,zero
    3d88:	3c12ead6 	lui	s2,0xead6
    3d8c:	36528300 	ori	s2,s2,0x8300
    3d90:	001fa021 	addu	s4,zero,ra
    3d94:	0016f821 	addu	ra,zero,s6
    3d98:	3c150000 	lui	s5,0x0
    3d9c:	26b53d4c 	addiu	s5,s5,15692
    3da0:	3c0da57e 	lui	t5,0xa57e
    3da4:	35adea80 	ori	t5,t5,0xea80
    3da8:	160d148a 	bne	s0,t5,8fd4 <inst_error>
    3dac:	00000000 	nop
    3db0:	00000000 	nop
    3db4:	3c0cead6 	lui	t4,0xead6
    3db8:	358c8300 	ori	t4,t4,0x8300
    3dbc:	164c1485 	bne	s2,t4,8fd4 <inst_error>
    3dc0:	00000000 	nop
    3dc4:	00000000 	nop
    3dc8:	26b50008 	addiu	s5,s5,8
    3dcc:	16951481 	bne	s4,s5,8fd4 <inst_error>
    3dd0:	00000000 	nop
    3dd4:	00000000 	nop
    3dd8:	001fb021 	addu	s6,zero,ra
    3ddc:	3c0c8c12 	lui	t4,0x8c12
    3de0:	358c6738 	ori	t4,t4,0x6738
    3de4:	3c0d729c 	lui	t5,0x729c
    3de8:	35ad97f4 	ori	t5,t5,0x97f4
    3dec:	24100000 	li	s0,0
    3df0:	1000000d 	b	3e28 <n38_jal_test+0x3e28>
    3df4:	24120000 	li	s2,0
    3df8:	00000000 	nop
    3dfc:	3c108c12 	lui	s0,0x8c12
    3e00:	36106738 	ori	s0,s0,0x6738
    3e04:	0c000f90 	jal	3e40 <n38_jal_test+0x3e40>
    3e08:	00000000 	nop
    3e0c:	1000000e 	b	3e48 <n38_jal_test+0x3e48>
    3e10:	00000000 	nop
    3e14:	00000000 	nop
    3e18:	00000021 	move	zero,zero
    3e1c:	00000021 	move	zero,zero
    3e20:	00000021 	move	zero,zero
    3e24:	00000021 	move	zero,zero
    3e28:	0c000f7f 	jal	3dfc <n38_jal_test+0x3dfc>
    3e2c:	00000000 	nop
    3e30:	10000005 	b	3e48 <n38_jal_test+0x3e48>
    3e34:	00000000 	nop
    3e38:	00000000 	nop
    3e3c:	00000021 	move	zero,zero
    3e40:	3c12729c 	lui	s2,0x729c
    3e44:	365297f4 	ori	s2,s2,0x97f4
    3e48:	001fa021 	addu	s4,zero,ra
    3e4c:	0016f821 	addu	ra,zero,s6
    3e50:	3c150000 	lui	s5,0x0
    3e54:	26b53e04 	addiu	s5,s5,15876
    3e58:	3c0d8c12 	lui	t5,0x8c12
    3e5c:	35ad6738 	ori	t5,t5,0x6738
    3e60:	160d145c 	bne	s0,t5,8fd4 <inst_error>
    3e64:	00000000 	nop
    3e68:	00000000 	nop
    3e6c:	3c0c729c 	lui	t4,0x729c
    3e70:	358c97f4 	ori	t4,t4,0x97f4
    3e74:	164c1457 	bne	s2,t4,8fd4 <inst_error>
    3e78:	00000000 	nop
    3e7c:	00000000 	nop
    3e80:	26b50008 	addiu	s5,s5,8
    3e84:	16951453 	bne	s4,s5,8fd4 <inst_error>
    3e88:	00000000 	nop
    3e8c:	00000000 	nop
    3e90:	001fb021 	addu	s6,zero,ra
    3e94:	3c0cc2f0 	lui	t4,0xc2f0
    3e98:	358c19bc 	ori	t4,t4,0x19bc
    3e9c:	3c0da123 	lui	t5,0xa123
    3ea0:	35add420 	ori	t5,t5,0xd420
    3ea4:	24100000 	li	s0,0
    3ea8:	1000000d 	b	3ee0 <n38_jal_test+0x3ee0>
    3eac:	24120000 	li	s2,0
    3eb0:	00000000 	nop
    3eb4:	3c10c2f0 	lui	s0,0xc2f0
    3eb8:	361019bc 	ori	s0,s0,0x19bc
    3ebc:	0c000fbe 	jal	3ef8 <n38_jal_test+0x3ef8>
    3ec0:	00000000 	nop
    3ec4:	1000000e 	b	3f00 <n38_jal_test+0x3f00>
    3ec8:	00000000 	nop
    3ecc:	00000000 	nop
    3ed0:	00000021 	move	zero,zero
    3ed4:	00000021 	move	zero,zero
    3ed8:	00000021 	move	zero,zero
    3edc:	00000021 	move	zero,zero
    3ee0:	0c000fad 	jal	3eb4 <n38_jal_test+0x3eb4>
    3ee4:	00000000 	nop
    3ee8:	10000005 	b	3f00 <n38_jal_test+0x3f00>
    3eec:	00000000 	nop
    3ef0:	00000000 	nop
    3ef4:	00000021 	move	zero,zero
    3ef8:	3c12a123 	lui	s2,0xa123
    3efc:	3652d420 	ori	s2,s2,0xd420
    3f00:	001fa021 	addu	s4,zero,ra
    3f04:	0016f821 	addu	ra,zero,s6
    3f08:	3c150000 	lui	s5,0x0
    3f0c:	26b53ebc 	addiu	s5,s5,16060
    3f10:	3c0dc2f0 	lui	t5,0xc2f0
    3f14:	35ad19bc 	ori	t5,t5,0x19bc
    3f18:	160d142e 	bne	s0,t5,8fd4 <inst_error>
    3f1c:	00000000 	nop
    3f20:	00000000 	nop
    3f24:	3c0ca123 	lui	t4,0xa123
    3f28:	358cd420 	ori	t4,t4,0xd420
    3f2c:	164c1429 	bne	s2,t4,8fd4 <inst_error>
    3f30:	00000000 	nop
    3f34:	00000000 	nop
    3f38:	26b50008 	addiu	s5,s5,8
    3f3c:	16951425 	bne	s4,s5,8fd4 <inst_error>
    3f40:	00000000 	nop
    3f44:	00000000 	nop
    3f48:	001fb021 	addu	s6,zero,ra
    3f4c:	3c0c4e60 	lui	t4,0x4e60
    3f50:	358ccfa6 	ori	t4,t4,0xcfa6
    3f54:	3c0ddf8b 	lui	t5,0xdf8b
    3f58:	35ad1860 	ori	t5,t5,0x1860
    3f5c:	24100000 	li	s0,0
    3f60:	1000000d 	b	3f98 <n38_jal_test+0x3f98>
    3f64:	24120000 	li	s2,0
    3f68:	00000000 	nop
    3f6c:	3c104e60 	lui	s0,0x4e60
    3f70:	3610cfa6 	ori	s0,s0,0xcfa6
    3f74:	0c000fec 	jal	3fb0 <n38_jal_test+0x3fb0>
    3f78:	00000000 	nop
    3f7c:	1000000e 	b	3fb8 <n38_jal_test+0x3fb8>
    3f80:	00000000 	nop
    3f84:	00000000 	nop
    3f88:	00000021 	move	zero,zero
    3f8c:	00000021 	move	zero,zero
    3f90:	00000021 	move	zero,zero
    3f94:	00000021 	move	zero,zero
    3f98:	0c000fdb 	jal	3f6c <n38_jal_test+0x3f6c>
    3f9c:	00000000 	nop
    3fa0:	10000005 	b	3fb8 <n38_jal_test+0x3fb8>
    3fa4:	00000000 	nop
    3fa8:	00000000 	nop
    3fac:	00000021 	move	zero,zero
    3fb0:	3c12df8b 	lui	s2,0xdf8b
    3fb4:	36521860 	ori	s2,s2,0x1860
    3fb8:	001fa021 	addu	s4,zero,ra
    3fbc:	0016f821 	addu	ra,zero,s6
    3fc0:	3c150000 	lui	s5,0x0
    3fc4:	26b53f74 	addiu	s5,s5,16244
    3fc8:	3c0d4e60 	lui	t5,0x4e60
    3fcc:	35adcfa6 	ori	t5,t5,0xcfa6
    3fd0:	160d1400 	bne	s0,t5,8fd4 <inst_error>
    3fd4:	00000000 	nop
    3fd8:	00000000 	nop
    3fdc:	3c0cdf8b 	lui	t4,0xdf8b
    3fe0:	358c1860 	ori	t4,t4,0x1860
    3fe4:	164c13fb 	bne	s2,t4,8fd4 <inst_error>
    3fe8:	00000000 	nop
    3fec:	00000000 	nop
    3ff0:	26b50008 	addiu	s5,s5,8
    3ff4:	169513f7 	bne	s4,s5,8fd4 <inst_error>
    3ff8:	00000000 	nop
    3ffc:	00000000 	nop
    4000:	001fb021 	addu	s6,zero,ra
    4004:	3c0c8897 	lui	t4,0x8897
    4008:	358c7aa0 	ori	t4,t4,0x7aa0
    400c:	3c0ddd38 	lui	t5,0xdd38
    4010:	35add0b8 	ori	t5,t5,0xd0b8
    4014:	24100000 	li	s0,0
    4018:	1000000d 	b	4050 <n38_jal_test+0x4050>
    401c:	24120000 	li	s2,0
    4020:	00000000 	nop
    4024:	3c108897 	lui	s0,0x8897
    4028:	36107aa0 	ori	s0,s0,0x7aa0
    402c:	0c00101a 	jal	4068 <n38_jal_test+0x4068>
    4030:	00000000 	nop
    4034:	1000000e 	b	4070 <n38_jal_test+0x4070>
    4038:	00000000 	nop
    403c:	00000000 	nop
    4040:	00000021 	move	zero,zero
    4044:	00000021 	move	zero,zero
    4048:	00000021 	move	zero,zero
    404c:	00000021 	move	zero,zero
    4050:	0c001009 	jal	4024 <n38_jal_test+0x4024>
    4054:	00000000 	nop
    4058:	10000005 	b	4070 <n38_jal_test+0x4070>
    405c:	00000000 	nop
    4060:	00000000 	nop
    4064:	00000021 	move	zero,zero
    4068:	3c12dd38 	lui	s2,0xdd38
    406c:	3652d0b8 	ori	s2,s2,0xd0b8
    4070:	001fa021 	addu	s4,zero,ra
    4074:	0016f821 	addu	ra,zero,s6
    4078:	3c150000 	lui	s5,0x0
    407c:	26b5402c 	addiu	s5,s5,16428
    4080:	3c0d8897 	lui	t5,0x8897
    4084:	35ad7aa0 	ori	t5,t5,0x7aa0
    4088:	160d13d2 	bne	s0,t5,8fd4 <inst_error>
    408c:	00000000 	nop
    4090:	00000000 	nop
    4094:	3c0cdd38 	lui	t4,0xdd38
    4098:	358cd0b8 	ori	t4,t4,0xd0b8
    409c:	164c13cd 	bne	s2,t4,8fd4 <inst_error>
    40a0:	00000000 	nop
    40a4:	00000000 	nop
    40a8:	26b50008 	addiu	s5,s5,8
    40ac:	169513c9 	bne	s4,s5,8fd4 <inst_error>
    40b0:	00000000 	nop
    40b4:	00000000 	nop
    40b8:	001fb021 	addu	s6,zero,ra
    40bc:	3c0c8273 	lui	t4,0x8273
    40c0:	358ca980 	ori	t4,t4,0xa980
    40c4:	3c0d15da 	lui	t5,0x15da
    40c8:	35adba38 	ori	t5,t5,0xba38
    40cc:	24100000 	li	s0,0
    40d0:	1000000d 	b	4108 <n38_jal_test+0x4108>
    40d4:	24120000 	li	s2,0
    40d8:	00000000 	nop
    40dc:	3c108273 	lui	s0,0x8273
    40e0:	3610a980 	ori	s0,s0,0xa980
    40e4:	0c001048 	jal	4120 <n38_jal_test+0x4120>
    40e8:	00000000 	nop
    40ec:	1000000e 	b	4128 <n38_jal_test+0x4128>
    40f0:	00000000 	nop
    40f4:	00000000 	nop
    40f8:	00000021 	move	zero,zero
    40fc:	00000021 	move	zero,zero
    4100:	00000021 	move	zero,zero
    4104:	00000021 	move	zero,zero
    4108:	0c001037 	jal	40dc <n38_jal_test+0x40dc>
    410c:	00000000 	nop
    4110:	10000005 	b	4128 <n38_jal_test+0x4128>
    4114:	00000000 	nop
    4118:	00000000 	nop
    411c:	00000021 	move	zero,zero
    4120:	3c1215da 	lui	s2,0x15da
    4124:	3652ba38 	ori	s2,s2,0xba38
    4128:	001fa021 	addu	s4,zero,ra
    412c:	0016f821 	addu	ra,zero,s6
    4130:	3c150000 	lui	s5,0x0
    4134:	26b540e4 	addiu	s5,s5,16612
    4138:	3c0d8273 	lui	t5,0x8273
    413c:	35ada980 	ori	t5,t5,0xa980
    4140:	160d13a4 	bne	s0,t5,8fd4 <inst_error>
    4144:	00000000 	nop
    4148:	00000000 	nop
    414c:	3c0c15da 	lui	t4,0x15da
    4150:	358cba38 	ori	t4,t4,0xba38
    4154:	164c139f 	bne	s2,t4,8fd4 <inst_error>
    4158:	00000000 	nop
    415c:	00000000 	nop
    4160:	26b50008 	addiu	s5,s5,8
    4164:	1695139b 	bne	s4,s5,8fd4 <inst_error>
    4168:	00000000 	nop
    416c:	00000000 	nop
    4170:	001fb021 	addu	s6,zero,ra
    4174:	3c0c2e33 	lui	t4,0x2e33
    4178:	358c290a 	ori	t4,t4,0x290a
    417c:	3c0dd934 	lui	t5,0xd934
    4180:	35ad6c82 	ori	t5,t5,0x6c82
    4184:	24100000 	li	s0,0
    4188:	1000000d 	b	41c0 <n38_jal_test+0x41c0>
    418c:	24120000 	li	s2,0
    4190:	00000000 	nop
    4194:	3c102e33 	lui	s0,0x2e33
    4198:	3610290a 	ori	s0,s0,0x290a
    419c:	0c001076 	jal	41d8 <n38_jal_test+0x41d8>
    41a0:	00000000 	nop
    41a4:	1000000e 	b	41e0 <n38_jal_test+0x41e0>
    41a8:	00000000 	nop
    41ac:	00000000 	nop
    41b0:	00000021 	move	zero,zero
    41b4:	00000021 	move	zero,zero
    41b8:	00000021 	move	zero,zero
    41bc:	00000021 	move	zero,zero
    41c0:	0c001065 	jal	4194 <n38_jal_test+0x4194>
    41c4:	00000000 	nop
    41c8:	10000005 	b	41e0 <n38_jal_test+0x41e0>
    41cc:	00000000 	nop
    41d0:	00000000 	nop
    41d4:	00000021 	move	zero,zero
    41d8:	3c12d934 	lui	s2,0xd934
    41dc:	36526c82 	ori	s2,s2,0x6c82
    41e0:	001fa021 	addu	s4,zero,ra
    41e4:	0016f821 	addu	ra,zero,s6
    41e8:	3c150000 	lui	s5,0x0
    41ec:	26b5419c 	addiu	s5,s5,16796
    41f0:	3c0d2e33 	lui	t5,0x2e33
    41f4:	35ad290a 	ori	t5,t5,0x290a
    41f8:	160d1376 	bne	s0,t5,8fd4 <inst_error>
    41fc:	00000000 	nop
    4200:	00000000 	nop
    4204:	3c0cd934 	lui	t4,0xd934
    4208:	358c6c82 	ori	t4,t4,0x6c82
    420c:	164c1371 	bne	s2,t4,8fd4 <inst_error>
    4210:	00000000 	nop
    4214:	00000000 	nop
    4218:	26b50008 	addiu	s5,s5,8
    421c:	1695136d 	bne	s4,s5,8fd4 <inst_error>
    4220:	00000000 	nop
    4224:	00000000 	nop
    4228:	001fb021 	addu	s6,zero,ra
    422c:	3c0c864e 	lui	t4,0x864e
    4230:	358c94e4 	ori	t4,t4,0x94e4
    4234:	3c0da20d 	lui	t5,0xa20d
    4238:	35ad82e4 	ori	t5,t5,0x82e4
    423c:	24100000 	li	s0,0
    4240:	1000000d 	b	4278 <n38_jal_test+0x4278>
    4244:	24120000 	li	s2,0
    4248:	00000000 	nop
    424c:	3c10864e 	lui	s0,0x864e
    4250:	361094e4 	ori	s0,s0,0x94e4
    4254:	0c0010a4 	jal	4290 <n38_jal_test+0x4290>
    4258:	00000000 	nop
    425c:	1000000e 	b	4298 <n38_jal_test+0x4298>
    4260:	00000000 	nop
    4264:	00000000 	nop
    4268:	00000021 	move	zero,zero
    426c:	00000021 	move	zero,zero
    4270:	00000021 	move	zero,zero
    4274:	00000021 	move	zero,zero
    4278:	0c001093 	jal	424c <n38_jal_test+0x424c>
    427c:	00000000 	nop
    4280:	10000005 	b	4298 <n38_jal_test+0x4298>
    4284:	00000000 	nop
    4288:	00000000 	nop
    428c:	00000021 	move	zero,zero
    4290:	3c12a20d 	lui	s2,0xa20d
    4294:	365282e4 	ori	s2,s2,0x82e4
    4298:	001fa021 	addu	s4,zero,ra
    429c:	0016f821 	addu	ra,zero,s6
    42a0:	3c150000 	lui	s5,0x0
    42a4:	26b54254 	addiu	s5,s5,16980
    42a8:	3c0d864e 	lui	t5,0x864e
    42ac:	35ad94e4 	ori	t5,t5,0x94e4
    42b0:	160d1348 	bne	s0,t5,8fd4 <inst_error>
    42b4:	00000000 	nop
    42b8:	00000000 	nop
    42bc:	3c0ca20d 	lui	t4,0xa20d
    42c0:	358c82e4 	ori	t4,t4,0x82e4
    42c4:	164c1343 	bne	s2,t4,8fd4 <inst_error>
    42c8:	00000000 	nop
    42cc:	00000000 	nop
    42d0:	26b50008 	addiu	s5,s5,8
    42d4:	1695133f 	bne	s4,s5,8fd4 <inst_error>
    42d8:	00000000 	nop
    42dc:	00000000 	nop
    42e0:	001fb021 	addu	s6,zero,ra
    42e4:	3c0c6367 	lui	t4,0x6367
    42e8:	358c7728 	ori	t4,t4,0x7728
    42ec:	3c0d3d83 	lui	t5,0x3d83
    42f0:	35adac49 	ori	t5,t5,0xac49
    42f4:	24100000 	li	s0,0
    42f8:	1000000d 	b	4330 <n38_jal_test+0x4330>
    42fc:	24120000 	li	s2,0
    4300:	00000000 	nop
    4304:	3c106367 	lui	s0,0x6367
    4308:	36107728 	ori	s0,s0,0x7728
    430c:	0c0010d2 	jal	4348 <n38_jal_test+0x4348>
    4310:	00000000 	nop
    4314:	1000000e 	b	4350 <n38_jal_test+0x4350>
    4318:	00000000 	nop
    431c:	00000000 	nop
    4320:	00000021 	move	zero,zero
    4324:	00000021 	move	zero,zero
    4328:	00000021 	move	zero,zero
    432c:	00000021 	move	zero,zero
    4330:	0c0010c1 	jal	4304 <n38_jal_test+0x4304>
    4334:	00000000 	nop
    4338:	10000005 	b	4350 <n38_jal_test+0x4350>
    433c:	00000000 	nop
    4340:	00000000 	nop
    4344:	00000021 	move	zero,zero
    4348:	3c123d83 	lui	s2,0x3d83
    434c:	3652ac49 	ori	s2,s2,0xac49
    4350:	001fa021 	addu	s4,zero,ra
    4354:	0016f821 	addu	ra,zero,s6
    4358:	3c150000 	lui	s5,0x0
    435c:	26b5430c 	addiu	s5,s5,17164
    4360:	3c0d6367 	lui	t5,0x6367
    4364:	35ad7728 	ori	t5,t5,0x7728
    4368:	160d131a 	bne	s0,t5,8fd4 <inst_error>
    436c:	00000000 	nop
    4370:	00000000 	nop
    4374:	3c0c3d83 	lui	t4,0x3d83
    4378:	358cac49 	ori	t4,t4,0xac49
    437c:	164c1315 	bne	s2,t4,8fd4 <inst_error>
    4380:	00000000 	nop
    4384:	00000000 	nop
    4388:	26b50008 	addiu	s5,s5,8
    438c:	16951311 	bne	s4,s5,8fd4 <inst_error>
    4390:	00000000 	nop
    4394:	00000000 	nop
    4398:	001fb021 	addu	s6,zero,ra
    439c:	3c0cdc9e 	lui	t4,0xdc9e
    43a0:	358c95bc 	ori	t4,t4,0x95bc
    43a4:	3c0d8089 	lui	t5,0x8089
    43a8:	35ad0af0 	ori	t5,t5,0xaf0
    43ac:	24100000 	li	s0,0
    43b0:	1000000d 	b	43e8 <n38_jal_test+0x43e8>
    43b4:	24120000 	li	s2,0
    43b8:	00000000 	nop
    43bc:	3c10dc9e 	lui	s0,0xdc9e
    43c0:	361095bc 	ori	s0,s0,0x95bc
    43c4:	0c001100 	jal	4400 <n38_jal_test+0x4400>
    43c8:	00000000 	nop
    43cc:	1000000e 	b	4408 <n38_jal_test+0x4408>
    43d0:	00000000 	nop
    43d4:	00000000 	nop
    43d8:	00000021 	move	zero,zero
    43dc:	00000021 	move	zero,zero
    43e0:	00000021 	move	zero,zero
    43e4:	00000021 	move	zero,zero
    43e8:	0c0010ef 	jal	43bc <n38_jal_test+0x43bc>
    43ec:	00000000 	nop
    43f0:	10000005 	b	4408 <n38_jal_test+0x4408>
    43f4:	00000000 	nop
    43f8:	00000000 	nop
    43fc:	00000021 	move	zero,zero
    4400:	3c128089 	lui	s2,0x8089
    4404:	36520af0 	ori	s2,s2,0xaf0
    4408:	001fa021 	addu	s4,zero,ra
    440c:	0016f821 	addu	ra,zero,s6
    4410:	3c150000 	lui	s5,0x0
    4414:	26b543c4 	addiu	s5,s5,17348
    4418:	3c0ddc9e 	lui	t5,0xdc9e
    441c:	35ad95bc 	ori	t5,t5,0x95bc
    4420:	160d12ec 	bne	s0,t5,8fd4 <inst_error>
    4424:	00000000 	nop
    4428:	00000000 	nop
    442c:	3c0c8089 	lui	t4,0x8089
    4430:	358c0af0 	ori	t4,t4,0xaf0
    4434:	164c12e7 	bne	s2,t4,8fd4 <inst_error>
    4438:	00000000 	nop
    443c:	00000000 	nop
    4440:	26b50008 	addiu	s5,s5,8
    4444:	169512e3 	bne	s4,s5,8fd4 <inst_error>
    4448:	00000000 	nop
    444c:	00000000 	nop
    4450:	001fb021 	addu	s6,zero,ra
    4454:	3c0c6298 	lui	t4,0x6298
    4458:	358c7b70 	ori	t4,t4,0x7b70
    445c:	3c0db808 	lui	t5,0xb808
    4460:	35ad55ae 	ori	t5,t5,0x55ae
    4464:	24100000 	li	s0,0
    4468:	1000000d 	b	44a0 <n38_jal_test+0x44a0>
    446c:	24120000 	li	s2,0
    4470:	00000000 	nop
    4474:	3c106298 	lui	s0,0x6298
    4478:	36107b70 	ori	s0,s0,0x7b70
    447c:	0c00112e 	jal	44b8 <n38_jal_test+0x44b8>
    4480:	00000000 	nop
    4484:	1000000e 	b	44c0 <n38_jal_test+0x44c0>
    4488:	00000000 	nop
    448c:	00000000 	nop
    4490:	00000021 	move	zero,zero
    4494:	00000021 	move	zero,zero
    4498:	00000021 	move	zero,zero
    449c:	00000021 	move	zero,zero
    44a0:	0c00111d 	jal	4474 <n38_jal_test+0x4474>
    44a4:	00000000 	nop
    44a8:	10000005 	b	44c0 <n38_jal_test+0x44c0>
    44ac:	00000000 	nop
    44b0:	00000000 	nop
    44b4:	00000021 	move	zero,zero
    44b8:	3c12b808 	lui	s2,0xb808
    44bc:	365255ae 	ori	s2,s2,0x55ae
    44c0:	001fa021 	addu	s4,zero,ra
    44c4:	0016f821 	addu	ra,zero,s6
    44c8:	3c150000 	lui	s5,0x0
    44cc:	26b5447c 	addiu	s5,s5,17532
    44d0:	3c0d6298 	lui	t5,0x6298
    44d4:	35ad7b70 	ori	t5,t5,0x7b70
    44d8:	160d12be 	bne	s0,t5,8fd4 <inst_error>
    44dc:	00000000 	nop
    44e0:	00000000 	nop
    44e4:	3c0cb808 	lui	t4,0xb808
    44e8:	358c55ae 	ori	t4,t4,0x55ae
    44ec:	164c12b9 	bne	s2,t4,8fd4 <inst_error>
    44f0:	00000000 	nop
    44f4:	00000000 	nop
    44f8:	26b50008 	addiu	s5,s5,8
    44fc:	169512b5 	bne	s4,s5,8fd4 <inst_error>
    4500:	00000000 	nop
    4504:	00000000 	nop
    4508:	001fb021 	addu	s6,zero,ra
    450c:	3c0cb5b7 	lui	t4,0xb5b7
    4510:	358c0534 	ori	t4,t4,0x534
    4514:	3c0d6507 	lui	t5,0x6507
    4518:	35adff98 	ori	t5,t5,0xff98
    451c:	24100000 	li	s0,0
    4520:	1000000d 	b	4558 <n38_jal_test+0x4558>
    4524:	24120000 	li	s2,0
    4528:	00000000 	nop
    452c:	3c10b5b7 	lui	s0,0xb5b7
    4530:	36100534 	ori	s0,s0,0x534
    4534:	0c00115c 	jal	4570 <n38_jal_test+0x4570>
    4538:	00000000 	nop
    453c:	1000000e 	b	4578 <n38_jal_test+0x4578>
    4540:	00000000 	nop
    4544:	00000000 	nop
    4548:	00000021 	move	zero,zero
    454c:	00000021 	move	zero,zero
    4550:	00000021 	move	zero,zero
    4554:	00000021 	move	zero,zero
    4558:	0c00114b 	jal	452c <n38_jal_test+0x452c>
    455c:	00000000 	nop
    4560:	10000005 	b	4578 <n38_jal_test+0x4578>
    4564:	00000000 	nop
    4568:	00000000 	nop
    456c:	00000021 	move	zero,zero
    4570:	3c126507 	lui	s2,0x6507
    4574:	3652ff98 	ori	s2,s2,0xff98
    4578:	001fa021 	addu	s4,zero,ra
    457c:	0016f821 	addu	ra,zero,s6
    4580:	3c150000 	lui	s5,0x0
    4584:	26b54534 	addiu	s5,s5,17716
    4588:	3c0db5b7 	lui	t5,0xb5b7
    458c:	35ad0534 	ori	t5,t5,0x534
    4590:	160d1290 	bne	s0,t5,8fd4 <inst_error>
    4594:	00000000 	nop
    4598:	00000000 	nop
    459c:	3c0c6507 	lui	t4,0x6507
    45a0:	358cff98 	ori	t4,t4,0xff98
    45a4:	164c128b 	bne	s2,t4,8fd4 <inst_error>
    45a8:	00000000 	nop
    45ac:	00000000 	nop
    45b0:	26b50008 	addiu	s5,s5,8
    45b4:	16951287 	bne	s4,s5,8fd4 <inst_error>
    45b8:	00000000 	nop
    45bc:	00000000 	nop
    45c0:	001fb021 	addu	s6,zero,ra
    45c4:	3c0cac72 	lui	t4,0xac72
    45c8:	358cd980 	ori	t4,t4,0xd980
    45cc:	3c0dbf98 	lui	t5,0xbf98
    45d0:	35ad9ac0 	ori	t5,t5,0x9ac0
    45d4:	24100000 	li	s0,0
    45d8:	1000000d 	b	4610 <n38_jal_test+0x4610>
    45dc:	24120000 	li	s2,0
    45e0:	00000000 	nop
    45e4:	3c10ac72 	lui	s0,0xac72
    45e8:	3610d980 	ori	s0,s0,0xd980
    45ec:	0c00118a 	jal	4628 <n38_jal_test+0x4628>
    45f0:	00000000 	nop
    45f4:	1000000e 	b	4630 <n38_jal_test+0x4630>
    45f8:	00000000 	nop
    45fc:	00000000 	nop
    4600:	00000021 	move	zero,zero
    4604:	00000021 	move	zero,zero
    4608:	00000021 	move	zero,zero
    460c:	00000021 	move	zero,zero
    4610:	0c001179 	jal	45e4 <n38_jal_test+0x45e4>
    4614:	00000000 	nop
    4618:	10000005 	b	4630 <n38_jal_test+0x4630>
    461c:	00000000 	nop
    4620:	00000000 	nop
    4624:	00000021 	move	zero,zero
    4628:	3c12bf98 	lui	s2,0xbf98
    462c:	36529ac0 	ori	s2,s2,0x9ac0
    4630:	001fa021 	addu	s4,zero,ra
    4634:	0016f821 	addu	ra,zero,s6
    4638:	3c150000 	lui	s5,0x0
    463c:	26b545ec 	addiu	s5,s5,17900
    4640:	3c0dac72 	lui	t5,0xac72
    4644:	35add980 	ori	t5,t5,0xd980
    4648:	160d1262 	bne	s0,t5,8fd4 <inst_error>
    464c:	00000000 	nop
    4650:	00000000 	nop
    4654:	3c0cbf98 	lui	t4,0xbf98
    4658:	358c9ac0 	ori	t4,t4,0x9ac0
    465c:	164c125d 	bne	s2,t4,8fd4 <inst_error>
    4660:	00000000 	nop
    4664:	00000000 	nop
    4668:	26b50008 	addiu	s5,s5,8
    466c:	16951259 	bne	s4,s5,8fd4 <inst_error>
    4670:	00000000 	nop
    4674:	00000000 	nop
    4678:	001fb021 	addu	s6,zero,ra
    467c:	3c0cf330 	lui	t4,0xf330
    4680:	358ce230 	ori	t4,t4,0xe230
    4684:	3c0d3e89 	lui	t5,0x3e89
    4688:	35ad46c8 	ori	t5,t5,0x46c8
    468c:	24100000 	li	s0,0
    4690:	1000000d 	b	46c8 <n38_jal_test+0x46c8>
    4694:	24120000 	li	s2,0
    4698:	00000000 	nop
    469c:	3c10f330 	lui	s0,0xf330
    46a0:	3610e230 	ori	s0,s0,0xe230
    46a4:	0c0011b8 	jal	46e0 <n38_jal_test+0x46e0>
    46a8:	00000000 	nop
    46ac:	1000000e 	b	46e8 <n38_jal_test+0x46e8>
    46b0:	00000000 	nop
    46b4:	00000000 	nop
    46b8:	00000021 	move	zero,zero
    46bc:	00000021 	move	zero,zero
    46c0:	00000021 	move	zero,zero
    46c4:	00000021 	move	zero,zero
    46c8:	0c0011a7 	jal	469c <n38_jal_test+0x469c>
    46cc:	00000000 	nop
    46d0:	10000005 	b	46e8 <n38_jal_test+0x46e8>
    46d4:	00000000 	nop
    46d8:	00000000 	nop
    46dc:	00000021 	move	zero,zero
    46e0:	3c123e89 	lui	s2,0x3e89
    46e4:	365246c8 	ori	s2,s2,0x46c8
    46e8:	001fa021 	addu	s4,zero,ra
    46ec:	0016f821 	addu	ra,zero,s6
    46f0:	3c150000 	lui	s5,0x0
    46f4:	26b546a4 	addiu	s5,s5,18084
    46f8:	3c0df330 	lui	t5,0xf330
    46fc:	35ade230 	ori	t5,t5,0xe230
    4700:	160d1234 	bne	s0,t5,8fd4 <inst_error>
    4704:	00000000 	nop
    4708:	00000000 	nop
    470c:	3c0c3e89 	lui	t4,0x3e89
    4710:	358c46c8 	ori	t4,t4,0x46c8
    4714:	164c122f 	bne	s2,t4,8fd4 <inst_error>
    4718:	00000000 	nop
    471c:	00000000 	nop
    4720:	26b50008 	addiu	s5,s5,8
    4724:	1695122b 	bne	s4,s5,8fd4 <inst_error>
    4728:	00000000 	nop
    472c:	00000000 	nop
    4730:	001fb021 	addu	s6,zero,ra
    4734:	3c0ca6d1 	lui	t4,0xa6d1
    4738:	358c66cc 	ori	t4,t4,0x66cc
    473c:	3c0de182 	lui	t5,0xe182
    4740:	35ad1d9f 	ori	t5,t5,0x1d9f
    4744:	24100000 	li	s0,0
    4748:	1000000d 	b	4780 <n38_jal_test+0x4780>
    474c:	24120000 	li	s2,0
    4750:	00000000 	nop
    4754:	3c10a6d1 	lui	s0,0xa6d1
    4758:	361066cc 	ori	s0,s0,0x66cc
    475c:	0c0011e6 	jal	4798 <n38_jal_test+0x4798>
    4760:	00000000 	nop
    4764:	1000000e 	b	47a0 <n38_jal_test+0x47a0>
    4768:	00000000 	nop
    476c:	00000000 	nop
    4770:	00000021 	move	zero,zero
    4774:	00000021 	move	zero,zero
    4778:	00000021 	move	zero,zero
    477c:	00000021 	move	zero,zero
    4780:	0c0011d5 	jal	4754 <n38_jal_test+0x4754>
    4784:	00000000 	nop
    4788:	10000005 	b	47a0 <n38_jal_test+0x47a0>
    478c:	00000000 	nop
    4790:	00000000 	nop
    4794:	00000021 	move	zero,zero
    4798:	3c12e182 	lui	s2,0xe182
    479c:	36521d9f 	ori	s2,s2,0x1d9f
    47a0:	001fa021 	addu	s4,zero,ra
    47a4:	0016f821 	addu	ra,zero,s6
    47a8:	3c150000 	lui	s5,0x0
    47ac:	26b5475c 	addiu	s5,s5,18268
    47b0:	3c0da6d1 	lui	t5,0xa6d1
    47b4:	35ad66cc 	ori	t5,t5,0x66cc
    47b8:	160d1206 	bne	s0,t5,8fd4 <inst_error>
    47bc:	00000000 	nop
    47c0:	00000000 	nop
    47c4:	3c0ce182 	lui	t4,0xe182
    47c8:	358c1d9f 	ori	t4,t4,0x1d9f
    47cc:	164c1201 	bne	s2,t4,8fd4 <inst_error>
    47d0:	00000000 	nop
    47d4:	00000000 	nop
    47d8:	26b50008 	addiu	s5,s5,8
    47dc:	169511fd 	bne	s4,s5,8fd4 <inst_error>
    47e0:	00000000 	nop
    47e4:	00000000 	nop
    47e8:	001fb021 	addu	s6,zero,ra
    47ec:	3c0cf2a1 	lui	t4,0xf2a1
    47f0:	358c547c 	ori	t4,t4,0x547c
    47f4:	3c0d2750 	lui	t5,0x2750
    47f8:	35ad7968 	ori	t5,t5,0x7968
    47fc:	24100000 	li	s0,0
    4800:	1000000d 	b	4838 <n38_jal_test+0x4838>
    4804:	24120000 	li	s2,0
    4808:	00000000 	nop
    480c:	3c10f2a1 	lui	s0,0xf2a1
    4810:	3610547c 	ori	s0,s0,0x547c
    4814:	0c001214 	jal	4850 <n38_jal_test+0x4850>
    4818:	00000000 	nop
    481c:	1000000e 	b	4858 <n38_jal_test+0x4858>
    4820:	00000000 	nop
    4824:	00000000 	nop
    4828:	00000021 	move	zero,zero
    482c:	00000021 	move	zero,zero
    4830:	00000021 	move	zero,zero
    4834:	00000021 	move	zero,zero
    4838:	0c001203 	jal	480c <n38_jal_test+0x480c>
    483c:	00000000 	nop
    4840:	10000005 	b	4858 <n38_jal_test+0x4858>
    4844:	00000000 	nop
    4848:	00000000 	nop
    484c:	00000021 	move	zero,zero
    4850:	3c122750 	lui	s2,0x2750
    4854:	36527968 	ori	s2,s2,0x7968
    4858:	001fa021 	addu	s4,zero,ra
    485c:	0016f821 	addu	ra,zero,s6
    4860:	3c150000 	lui	s5,0x0
    4864:	26b54814 	addiu	s5,s5,18452
    4868:	3c0df2a1 	lui	t5,0xf2a1
    486c:	35ad547c 	ori	t5,t5,0x547c
    4870:	160d11d8 	bne	s0,t5,8fd4 <inst_error>
    4874:	00000000 	nop
    4878:	00000000 	nop
    487c:	3c0c2750 	lui	t4,0x2750
    4880:	358c7968 	ori	t4,t4,0x7968
    4884:	164c11d3 	bne	s2,t4,8fd4 <inst_error>
    4888:	00000000 	nop
    488c:	00000000 	nop
    4890:	26b50008 	addiu	s5,s5,8
    4894:	169511cf 	bne	s4,s5,8fd4 <inst_error>
    4898:	00000000 	nop
    489c:	00000000 	nop
    48a0:	001fb021 	addu	s6,zero,ra
    48a4:	3c0c22da 	lui	t4,0x22da
    48a8:	358c9500 	ori	t4,t4,0x9500
    48ac:	3c0d3567 	lui	t5,0x3567
    48b0:	35adc320 	ori	t5,t5,0xc320
    48b4:	24100000 	li	s0,0
    48b8:	1000000d 	b	48f0 <n38_jal_test+0x48f0>
    48bc:	24120000 	li	s2,0
    48c0:	00000000 	nop
    48c4:	3c1022da 	lui	s0,0x22da
    48c8:	36109500 	ori	s0,s0,0x9500
    48cc:	0c001242 	jal	4908 <n38_jal_test+0x4908>
    48d0:	00000000 	nop
    48d4:	1000000e 	b	4910 <n38_jal_test+0x4910>
    48d8:	00000000 	nop
    48dc:	00000000 	nop
    48e0:	00000021 	move	zero,zero
    48e4:	00000021 	move	zero,zero
    48e8:	00000021 	move	zero,zero
    48ec:	00000021 	move	zero,zero
    48f0:	0c001231 	jal	48c4 <n38_jal_test+0x48c4>
    48f4:	00000000 	nop
    48f8:	10000005 	b	4910 <n38_jal_test+0x4910>
    48fc:	00000000 	nop
    4900:	00000000 	nop
    4904:	00000021 	move	zero,zero
    4908:	3c123567 	lui	s2,0x3567
    490c:	3652c320 	ori	s2,s2,0xc320
    4910:	001fa021 	addu	s4,zero,ra
    4914:	0016f821 	addu	ra,zero,s6
    4918:	3c150000 	lui	s5,0x0
    491c:	26b548cc 	addiu	s5,s5,18636
    4920:	3c0d22da 	lui	t5,0x22da
    4924:	35ad9500 	ori	t5,t5,0x9500
    4928:	160d11aa 	bne	s0,t5,8fd4 <inst_error>
    492c:	00000000 	nop
    4930:	00000000 	nop
    4934:	3c0c3567 	lui	t4,0x3567
    4938:	358cc320 	ori	t4,t4,0xc320
    493c:	164c11a5 	bne	s2,t4,8fd4 <inst_error>
    4940:	00000000 	nop
    4944:	00000000 	nop
    4948:	26b50008 	addiu	s5,s5,8
    494c:	169511a1 	bne	s4,s5,8fd4 <inst_error>
    4950:	00000000 	nop
    4954:	00000000 	nop
    4958:	001fb021 	addu	s6,zero,ra
    495c:	3c0c4568 	lui	t4,0x4568
    4960:	358c43ac 	ori	t4,t4,0x43ac
    4964:	3c0d9078 	lui	t5,0x9078
    4968:	35adaa46 	ori	t5,t5,0xaa46
    496c:	24100000 	li	s0,0
    4970:	1000000d 	b	49a8 <n38_jal_test+0x49a8>
    4974:	24120000 	li	s2,0
    4978:	00000000 	nop
    497c:	3c104568 	lui	s0,0x4568
    4980:	361043ac 	ori	s0,s0,0x43ac
    4984:	0c001270 	jal	49c0 <n38_jal_test+0x49c0>
    4988:	00000000 	nop
    498c:	1000000e 	b	49c8 <n38_jal_test+0x49c8>
    4990:	00000000 	nop
    4994:	00000000 	nop
    4998:	00000021 	move	zero,zero
    499c:	00000021 	move	zero,zero
    49a0:	00000021 	move	zero,zero
    49a4:	00000021 	move	zero,zero
    49a8:	0c00125f 	jal	497c <n38_jal_test+0x497c>
    49ac:	00000000 	nop
    49b0:	10000005 	b	49c8 <n38_jal_test+0x49c8>
    49b4:	00000000 	nop
    49b8:	00000000 	nop
    49bc:	00000021 	move	zero,zero
    49c0:	3c129078 	lui	s2,0x9078
    49c4:	3652aa46 	ori	s2,s2,0xaa46
    49c8:	001fa021 	addu	s4,zero,ra
    49cc:	0016f821 	addu	ra,zero,s6
    49d0:	3c150000 	lui	s5,0x0
    49d4:	26b54984 	addiu	s5,s5,18820
    49d8:	3c0d4568 	lui	t5,0x4568
    49dc:	35ad43ac 	ori	t5,t5,0x43ac
    49e0:	160d117c 	bne	s0,t5,8fd4 <inst_error>
    49e4:	00000000 	nop
    49e8:	00000000 	nop
    49ec:	3c0c9078 	lui	t4,0x9078
    49f0:	358caa46 	ori	t4,t4,0xaa46
    49f4:	164c1177 	bne	s2,t4,8fd4 <inst_error>
    49f8:	00000000 	nop
    49fc:	00000000 	nop
    4a00:	26b50008 	addiu	s5,s5,8
    4a04:	16951173 	bne	s4,s5,8fd4 <inst_error>
    4a08:	00000000 	nop
    4a0c:	00000000 	nop
    4a10:	001fb021 	addu	s6,zero,ra
    4a14:	3c0cf637 	lui	t4,0xf637
    4a18:	358c4800 	ori	t4,t4,0x4800
    4a1c:	3c0dfec9 	lui	t5,0xfec9
    4a20:	35ad001c 	ori	t5,t5,0x1c
    4a24:	24100000 	li	s0,0
    4a28:	1000000d 	b	4a60 <n38_jal_test+0x4a60>
    4a2c:	24120000 	li	s2,0
    4a30:	00000000 	nop
    4a34:	3c10f637 	lui	s0,0xf637
    4a38:	36104800 	ori	s0,s0,0x4800
    4a3c:	0c00129e 	jal	4a78 <n38_jal_test+0x4a78>
    4a40:	00000000 	nop
    4a44:	1000000e 	b	4a80 <n38_jal_test+0x4a80>
    4a48:	00000000 	nop
    4a4c:	00000000 	nop
    4a50:	00000021 	move	zero,zero
    4a54:	00000021 	move	zero,zero
    4a58:	00000021 	move	zero,zero
    4a5c:	00000021 	move	zero,zero
    4a60:	0c00128d 	jal	4a34 <n38_jal_test+0x4a34>
    4a64:	00000000 	nop
    4a68:	10000005 	b	4a80 <n38_jal_test+0x4a80>
    4a6c:	00000000 	nop
    4a70:	00000000 	nop
    4a74:	00000021 	move	zero,zero
    4a78:	3c12fec9 	lui	s2,0xfec9
    4a7c:	3652001c 	ori	s2,s2,0x1c
    4a80:	001fa021 	addu	s4,zero,ra
    4a84:	0016f821 	addu	ra,zero,s6
    4a88:	3c150000 	lui	s5,0x0
    4a8c:	26b54a3c 	addiu	s5,s5,19004
    4a90:	3c0df637 	lui	t5,0xf637
    4a94:	35ad4800 	ori	t5,t5,0x4800
    4a98:	160d114e 	bne	s0,t5,8fd4 <inst_error>
    4a9c:	00000000 	nop
    4aa0:	00000000 	nop
    4aa4:	3c0cfec9 	lui	t4,0xfec9
    4aa8:	358c001c 	ori	t4,t4,0x1c
    4aac:	164c1149 	bne	s2,t4,8fd4 <inst_error>
    4ab0:	00000000 	nop
    4ab4:	00000000 	nop
    4ab8:	26b50008 	addiu	s5,s5,8
    4abc:	16951145 	bne	s4,s5,8fd4 <inst_error>
    4ac0:	00000000 	nop
    4ac4:	00000000 	nop
    4ac8:	001fb021 	addu	s6,zero,ra
    4acc:	3c0c7772 	lui	t4,0x7772
    4ad0:	358c970e 	ori	t4,t4,0x970e
    4ad4:	3c0d5c93 	lui	t5,0x5c93
    4ad8:	35adcaaf 	ori	t5,t5,0xcaaf
    4adc:	24100000 	li	s0,0
    4ae0:	1000000d 	b	4b18 <n38_jal_test+0x4b18>
    4ae4:	24120000 	li	s2,0
    4ae8:	00000000 	nop
    4aec:	3c107772 	lui	s0,0x7772
    4af0:	3610970e 	ori	s0,s0,0x970e
    4af4:	0c0012cc 	jal	4b30 <n38_jal_test+0x4b30>
    4af8:	00000000 	nop
    4afc:	1000000e 	b	4b38 <n38_jal_test+0x4b38>
    4b00:	00000000 	nop
    4b04:	00000000 	nop
    4b08:	00000021 	move	zero,zero
    4b0c:	00000021 	move	zero,zero
    4b10:	00000021 	move	zero,zero
    4b14:	00000021 	move	zero,zero
    4b18:	0c0012bb 	jal	4aec <n38_jal_test+0x4aec>
    4b1c:	00000000 	nop
    4b20:	10000005 	b	4b38 <n38_jal_test+0x4b38>
    4b24:	00000000 	nop
    4b28:	00000000 	nop
    4b2c:	00000021 	move	zero,zero
    4b30:	3c125c93 	lui	s2,0x5c93
    4b34:	3652caaf 	ori	s2,s2,0xcaaf
    4b38:	001fa021 	addu	s4,zero,ra
    4b3c:	0016f821 	addu	ra,zero,s6
    4b40:	3c150000 	lui	s5,0x0
    4b44:	26b54af4 	addiu	s5,s5,19188
    4b48:	3c0d7772 	lui	t5,0x7772
    4b4c:	35ad970e 	ori	t5,t5,0x970e
    4b50:	160d1120 	bne	s0,t5,8fd4 <inst_error>
    4b54:	00000000 	nop
    4b58:	00000000 	nop
    4b5c:	3c0c5c93 	lui	t4,0x5c93
    4b60:	358ccaaf 	ori	t4,t4,0xcaaf
    4b64:	164c111b 	bne	s2,t4,8fd4 <inst_error>
    4b68:	00000000 	nop
    4b6c:	00000000 	nop
    4b70:	26b50008 	addiu	s5,s5,8
    4b74:	16951117 	bne	s4,s5,8fd4 <inst_error>
    4b78:	00000000 	nop
    4b7c:	00000000 	nop
    4b80:	001fb021 	addu	s6,zero,ra
    4b84:	3c0cd0de 	lui	t4,0xd0de
    4b88:	358cecae 	ori	t4,t4,0xecae
    4b8c:	3c0d9242 	lui	t5,0x9242
    4b90:	35adf92c 	ori	t5,t5,0xf92c
    4b94:	24100000 	li	s0,0
    4b98:	1000000d 	b	4bd0 <n38_jal_test+0x4bd0>
    4b9c:	24120000 	li	s2,0
    4ba0:	00000000 	nop
    4ba4:	3c10d0de 	lui	s0,0xd0de
    4ba8:	3610ecae 	ori	s0,s0,0xecae
    4bac:	0c0012fa 	jal	4be8 <n38_jal_test+0x4be8>
    4bb0:	00000000 	nop
    4bb4:	1000000e 	b	4bf0 <n38_jal_test+0x4bf0>
    4bb8:	00000000 	nop
    4bbc:	00000000 	nop
    4bc0:	00000021 	move	zero,zero
    4bc4:	00000021 	move	zero,zero
    4bc8:	00000021 	move	zero,zero
    4bcc:	00000021 	move	zero,zero
    4bd0:	0c0012e9 	jal	4ba4 <n38_jal_test+0x4ba4>
    4bd4:	00000000 	nop
    4bd8:	10000005 	b	4bf0 <n38_jal_test+0x4bf0>
    4bdc:	00000000 	nop
    4be0:	00000000 	nop
    4be4:	00000021 	move	zero,zero
    4be8:	3c129242 	lui	s2,0x9242
    4bec:	3652f92c 	ori	s2,s2,0xf92c
    4bf0:	001fa021 	addu	s4,zero,ra
    4bf4:	0016f821 	addu	ra,zero,s6
    4bf8:	3c150000 	lui	s5,0x0
    4bfc:	26b54bac 	addiu	s5,s5,19372
    4c00:	3c0dd0de 	lui	t5,0xd0de
    4c04:	35adecae 	ori	t5,t5,0xecae
    4c08:	160d10f2 	bne	s0,t5,8fd4 <inst_error>
    4c0c:	00000000 	nop
    4c10:	00000000 	nop
    4c14:	3c0c9242 	lui	t4,0x9242
    4c18:	358cf92c 	ori	t4,t4,0xf92c
    4c1c:	164c10ed 	bne	s2,t4,8fd4 <inst_error>
    4c20:	00000000 	nop
    4c24:	00000000 	nop
    4c28:	26b50008 	addiu	s5,s5,8
    4c2c:	169510e9 	bne	s4,s5,8fd4 <inst_error>
    4c30:	00000000 	nop
    4c34:	00000000 	nop
    4c38:	001fb021 	addu	s6,zero,ra
    4c3c:	3c0cf706 	lui	t4,0xf706
    4c40:	358ce3d4 	ori	t4,t4,0xe3d4
    4c44:	3c0dd800 	lui	t5,0xd800
    4c48:	35ad65c8 	ori	t5,t5,0x65c8
    4c4c:	24100000 	li	s0,0
    4c50:	1000000d 	b	4c88 <n38_jal_test+0x4c88>
    4c54:	24120000 	li	s2,0
    4c58:	00000000 	nop
    4c5c:	3c10f706 	lui	s0,0xf706
    4c60:	3610e3d4 	ori	s0,s0,0xe3d4
    4c64:	0c001328 	jal	4ca0 <n38_jal_test+0x4ca0>
    4c68:	00000000 	nop
    4c6c:	1000000e 	b	4ca8 <n38_jal_test+0x4ca8>
    4c70:	00000000 	nop
    4c74:	00000000 	nop
    4c78:	00000021 	move	zero,zero
    4c7c:	00000021 	move	zero,zero
    4c80:	00000021 	move	zero,zero
    4c84:	00000021 	move	zero,zero
    4c88:	0c001317 	jal	4c5c <n38_jal_test+0x4c5c>
    4c8c:	00000000 	nop
    4c90:	10000005 	b	4ca8 <n38_jal_test+0x4ca8>
    4c94:	00000000 	nop
    4c98:	00000000 	nop
    4c9c:	00000021 	move	zero,zero
    4ca0:	3c12d800 	lui	s2,0xd800
    4ca4:	365265c8 	ori	s2,s2,0x65c8
    4ca8:	001fa021 	addu	s4,zero,ra
    4cac:	0016f821 	addu	ra,zero,s6
    4cb0:	3c150000 	lui	s5,0x0
    4cb4:	26b54c64 	addiu	s5,s5,19556
    4cb8:	3c0df706 	lui	t5,0xf706
    4cbc:	35ade3d4 	ori	t5,t5,0xe3d4
    4cc0:	160d10c4 	bne	s0,t5,8fd4 <inst_error>
    4cc4:	00000000 	nop
    4cc8:	00000000 	nop
    4ccc:	3c0cd800 	lui	t4,0xd800
    4cd0:	358c65c8 	ori	t4,t4,0x65c8
    4cd4:	164c10bf 	bne	s2,t4,8fd4 <inst_error>
    4cd8:	00000000 	nop
    4cdc:	00000000 	nop
    4ce0:	26b50008 	addiu	s5,s5,8
    4ce4:	169510bb 	bne	s4,s5,8fd4 <inst_error>
    4ce8:	00000000 	nop
    4cec:	00000000 	nop
    4cf0:	001fb021 	addu	s6,zero,ra
    4cf4:	3c0c88ed 	lui	t4,0x88ed
    4cf8:	358c1d00 	ori	t4,t4,0x1d00
    4cfc:	3c0d0113 	lui	t5,0x113
    4d00:	35ad2628 	ori	t5,t5,0x2628
    4d04:	24100000 	li	s0,0
    4d08:	1000000d 	b	4d40 <n38_jal_test+0x4d40>
    4d0c:	24120000 	li	s2,0
    4d10:	00000000 	nop
    4d14:	3c1088ed 	lui	s0,0x88ed
    4d18:	36101d00 	ori	s0,s0,0x1d00
    4d1c:	0c001356 	jal	4d58 <n38_jal_test+0x4d58>
    4d20:	00000000 	nop
    4d24:	1000000e 	b	4d60 <n38_jal_test+0x4d60>
    4d28:	00000000 	nop
    4d2c:	00000000 	nop
    4d30:	00000021 	move	zero,zero
    4d34:	00000021 	move	zero,zero
    4d38:	00000021 	move	zero,zero
    4d3c:	00000021 	move	zero,zero
    4d40:	0c001345 	jal	4d14 <n38_jal_test+0x4d14>
    4d44:	00000000 	nop
    4d48:	10000005 	b	4d60 <n38_jal_test+0x4d60>
    4d4c:	00000000 	nop
    4d50:	00000000 	nop
    4d54:	00000021 	move	zero,zero
    4d58:	3c120113 	lui	s2,0x113
    4d5c:	36522628 	ori	s2,s2,0x2628
    4d60:	001fa021 	addu	s4,zero,ra
    4d64:	0016f821 	addu	ra,zero,s6
    4d68:	3c150000 	lui	s5,0x0
    4d6c:	26b54d1c 	addiu	s5,s5,19740
    4d70:	3c0d88ed 	lui	t5,0x88ed
    4d74:	35ad1d00 	ori	t5,t5,0x1d00
    4d78:	160d1096 	bne	s0,t5,8fd4 <inst_error>
    4d7c:	00000000 	nop
    4d80:	00000000 	nop
    4d84:	3c0c0113 	lui	t4,0x113
    4d88:	358c2628 	ori	t4,t4,0x2628
    4d8c:	164c1091 	bne	s2,t4,8fd4 <inst_error>
    4d90:	00000000 	nop
    4d94:	00000000 	nop
    4d98:	26b50008 	addiu	s5,s5,8
    4d9c:	1695108d 	bne	s4,s5,8fd4 <inst_error>
    4da0:	00000000 	nop
    4da4:	00000000 	nop
    4da8:	001fb021 	addu	s6,zero,ra
    4dac:	3c0cf1d6 	lui	t4,0xf1d6
    4db0:	358cdafe 	ori	t4,t4,0xdafe
    4db4:	3c0df8ed 	lui	t5,0xf8ed
    4db8:	35adf824 	ori	t5,t5,0xf824
    4dbc:	24100000 	li	s0,0
    4dc0:	1000000d 	b	4df8 <n38_jal_test+0x4df8>
    4dc4:	24120000 	li	s2,0
    4dc8:	00000000 	nop
    4dcc:	3c10f1d6 	lui	s0,0xf1d6
    4dd0:	3610dafe 	ori	s0,s0,0xdafe
    4dd4:	0c001384 	jal	4e10 <n38_jal_test+0x4e10>
    4dd8:	00000000 	nop
    4ddc:	1000000e 	b	4e18 <n38_jal_test+0x4e18>
    4de0:	00000000 	nop
    4de4:	00000000 	nop
    4de8:	00000021 	move	zero,zero
    4dec:	00000021 	move	zero,zero
    4df0:	00000021 	move	zero,zero
    4df4:	00000021 	move	zero,zero
    4df8:	0c001373 	jal	4dcc <n38_jal_test+0x4dcc>
    4dfc:	00000000 	nop
    4e00:	10000005 	b	4e18 <n38_jal_test+0x4e18>
    4e04:	00000000 	nop
    4e08:	00000000 	nop
    4e0c:	00000021 	move	zero,zero
    4e10:	3c12f8ed 	lui	s2,0xf8ed
    4e14:	3652f824 	ori	s2,s2,0xf824
    4e18:	001fa021 	addu	s4,zero,ra
    4e1c:	0016f821 	addu	ra,zero,s6
    4e20:	3c150000 	lui	s5,0x0
    4e24:	26b54dd4 	addiu	s5,s5,19924
    4e28:	3c0df1d6 	lui	t5,0xf1d6
    4e2c:	35addafe 	ori	t5,t5,0xdafe
    4e30:	160d1068 	bne	s0,t5,8fd4 <inst_error>
    4e34:	00000000 	nop
    4e38:	00000000 	nop
    4e3c:	3c0cf8ed 	lui	t4,0xf8ed
    4e40:	358cf824 	ori	t4,t4,0xf824
    4e44:	164c1063 	bne	s2,t4,8fd4 <inst_error>
    4e48:	00000000 	nop
    4e4c:	00000000 	nop
    4e50:	26b50008 	addiu	s5,s5,8
    4e54:	1695105f 	bne	s4,s5,8fd4 <inst_error>
    4e58:	00000000 	nop
    4e5c:	00000000 	nop
    4e60:	001fb021 	addu	s6,zero,ra
    4e64:	3c0c6539 	lui	t4,0x6539
    4e68:	358c4174 	ori	t4,t4,0x4174
    4e6c:	3c0dcc26 	lui	t5,0xcc26
    4e70:	35ad4320 	ori	t5,t5,0x4320
    4e74:	24100000 	li	s0,0
    4e78:	1000000d 	b	4eb0 <n38_jal_test+0x4eb0>
    4e7c:	24120000 	li	s2,0
    4e80:	00000000 	nop
    4e84:	3c106539 	lui	s0,0x6539
    4e88:	36104174 	ori	s0,s0,0x4174
    4e8c:	0c0013b2 	jal	4ec8 <n38_jal_test+0x4ec8>
    4e90:	00000000 	nop
    4e94:	1000000e 	b	4ed0 <n38_jal_test+0x4ed0>
    4e98:	00000000 	nop
    4e9c:	00000000 	nop
    4ea0:	00000021 	move	zero,zero
    4ea4:	00000021 	move	zero,zero
    4ea8:	00000021 	move	zero,zero
    4eac:	00000021 	move	zero,zero
    4eb0:	0c0013a1 	jal	4e84 <n38_jal_test+0x4e84>
    4eb4:	00000000 	nop
    4eb8:	10000005 	b	4ed0 <n38_jal_test+0x4ed0>
    4ebc:	00000000 	nop
    4ec0:	00000000 	nop
    4ec4:	00000021 	move	zero,zero
    4ec8:	3c12cc26 	lui	s2,0xcc26
    4ecc:	36524320 	ori	s2,s2,0x4320
    4ed0:	001fa021 	addu	s4,zero,ra
    4ed4:	0016f821 	addu	ra,zero,s6
    4ed8:	3c150000 	lui	s5,0x0
    4edc:	26b54e8c 	addiu	s5,s5,20108
    4ee0:	3c0d6539 	lui	t5,0x6539
    4ee4:	35ad4174 	ori	t5,t5,0x4174
    4ee8:	160d103a 	bne	s0,t5,8fd4 <inst_error>
    4eec:	00000000 	nop
    4ef0:	00000000 	nop
    4ef4:	3c0ccc26 	lui	t4,0xcc26
    4ef8:	358c4320 	ori	t4,t4,0x4320
    4efc:	164c1035 	bne	s2,t4,8fd4 <inst_error>
    4f00:	00000000 	nop
    4f04:	00000000 	nop
    4f08:	26b50008 	addiu	s5,s5,8
    4f0c:	16951031 	bne	s4,s5,8fd4 <inst_error>
    4f10:	00000000 	nop
    4f14:	00000000 	nop
    4f18:	001fb021 	addu	s6,zero,ra
    4f1c:	3c0c7f95 	lui	t4,0x7f95
    4f20:	358ce490 	ori	t4,t4,0xe490
    4f24:	3c0db642 	lui	t5,0xb642
    4f28:	35ad62d0 	ori	t5,t5,0x62d0
    4f2c:	24100000 	li	s0,0
    4f30:	1000000d 	b	4f68 <n38_jal_test+0x4f68>
    4f34:	24120000 	li	s2,0
    4f38:	00000000 	nop
    4f3c:	3c107f95 	lui	s0,0x7f95
    4f40:	3610e490 	ori	s0,s0,0xe490
    4f44:	0c0013e0 	jal	4f80 <n38_jal_test+0x4f80>
    4f48:	00000000 	nop
    4f4c:	1000000e 	b	4f88 <n38_jal_test+0x4f88>
    4f50:	00000000 	nop
    4f54:	00000000 	nop
    4f58:	00000021 	move	zero,zero
    4f5c:	00000021 	move	zero,zero
    4f60:	00000021 	move	zero,zero
    4f64:	00000021 	move	zero,zero
    4f68:	0c0013cf 	jal	4f3c <n38_jal_test+0x4f3c>
    4f6c:	00000000 	nop
    4f70:	10000005 	b	4f88 <n38_jal_test+0x4f88>
    4f74:	00000000 	nop
    4f78:	00000000 	nop
    4f7c:	00000021 	move	zero,zero
    4f80:	3c12b642 	lui	s2,0xb642
    4f84:	365262d0 	ori	s2,s2,0x62d0
    4f88:	001fa021 	addu	s4,zero,ra
    4f8c:	0016f821 	addu	ra,zero,s6
    4f90:	3c150000 	lui	s5,0x0
    4f94:	26b54f44 	addiu	s5,s5,20292
    4f98:	3c0d7f95 	lui	t5,0x7f95
    4f9c:	35ade490 	ori	t5,t5,0xe490
    4fa0:	160d100c 	bne	s0,t5,8fd4 <inst_error>
    4fa4:	00000000 	nop
    4fa8:	00000000 	nop
    4fac:	3c0cb642 	lui	t4,0xb642
    4fb0:	358c62d0 	ori	t4,t4,0x62d0
    4fb4:	164c1007 	bne	s2,t4,8fd4 <inst_error>
    4fb8:	00000000 	nop
    4fbc:	00000000 	nop
    4fc0:	26b50008 	addiu	s5,s5,8
    4fc4:	16951003 	bne	s4,s5,8fd4 <inst_error>
    4fc8:	00000000 	nop
    4fcc:	00000000 	nop
    4fd0:	001fb021 	addu	s6,zero,ra
    4fd4:	3c0ce67c 	lui	t4,0xe67c
    4fd8:	358c8576 	ori	t4,t4,0x8576
    4fdc:	3c0d14fc 	lui	t5,0x14fc
    4fe0:	35ad505c 	ori	t5,t5,0x505c
    4fe4:	24100000 	li	s0,0
    4fe8:	1000000d 	b	5020 <n38_jal_test+0x5020>
    4fec:	24120000 	li	s2,0
    4ff0:	00000000 	nop
    4ff4:	3c10e67c 	lui	s0,0xe67c
    4ff8:	36108576 	ori	s0,s0,0x8576
    4ffc:	0c00140e 	jal	5038 <n38_jal_test+0x5038>
    5000:	00000000 	nop
    5004:	1000000e 	b	5040 <n38_jal_test+0x5040>
    5008:	00000000 	nop
    500c:	00000000 	nop
    5010:	00000021 	move	zero,zero
    5014:	00000021 	move	zero,zero
    5018:	00000021 	move	zero,zero
    501c:	00000021 	move	zero,zero
    5020:	0c0013fd 	jal	4ff4 <n38_jal_test+0x4ff4>
    5024:	00000000 	nop
    5028:	10000005 	b	5040 <n38_jal_test+0x5040>
    502c:	00000000 	nop
    5030:	00000000 	nop
    5034:	00000021 	move	zero,zero
    5038:	3c1214fc 	lui	s2,0x14fc
    503c:	3652505c 	ori	s2,s2,0x505c
    5040:	001fa021 	addu	s4,zero,ra
    5044:	0016f821 	addu	ra,zero,s6
    5048:	3c150000 	lui	s5,0x0
    504c:	26b54ffc 	addiu	s5,s5,20476
    5050:	3c0de67c 	lui	t5,0xe67c
    5054:	35ad8576 	ori	t5,t5,0x8576
    5058:	160d0fde 	bne	s0,t5,8fd4 <inst_error>
    505c:	00000000 	nop
    5060:	00000000 	nop
    5064:	3c0c14fc 	lui	t4,0x14fc
    5068:	358c505c 	ori	t4,t4,0x505c
    506c:	164c0fd9 	bne	s2,t4,8fd4 <inst_error>
    5070:	00000000 	nop
    5074:	00000000 	nop
    5078:	26b50008 	addiu	s5,s5,8
    507c:	16950fd5 	bne	s4,s5,8fd4 <inst_error>
    5080:	00000000 	nop
    5084:	00000000 	nop
    5088:	001fb021 	addu	s6,zero,ra
    508c:	3c0c54be 	lui	t4,0x54be
    5090:	358c7440 	ori	t4,t4,0x7440
    5094:	3c0df66c 	lui	t5,0xf66c
    5098:	35ad762e 	ori	t5,t5,0x762e
    509c:	24100000 	li	s0,0
    50a0:	1000000d 	b	50d8 <n38_jal_test+0x50d8>
    50a4:	24120000 	li	s2,0
    50a8:	00000000 	nop
    50ac:	3c1054be 	lui	s0,0x54be
    50b0:	36107440 	ori	s0,s0,0x7440
    50b4:	0c00143c 	jal	50f0 <n38_jal_test+0x50f0>
    50b8:	00000000 	nop
    50bc:	1000000e 	b	50f8 <n38_jal_test+0x50f8>
    50c0:	00000000 	nop
    50c4:	00000000 	nop
    50c8:	00000021 	move	zero,zero
    50cc:	00000021 	move	zero,zero
    50d0:	00000021 	move	zero,zero
    50d4:	00000021 	move	zero,zero
    50d8:	0c00142b 	jal	50ac <n38_jal_test+0x50ac>
    50dc:	00000000 	nop
    50e0:	10000005 	b	50f8 <n38_jal_test+0x50f8>
    50e4:	00000000 	nop
    50e8:	00000000 	nop
    50ec:	00000021 	move	zero,zero
    50f0:	3c12f66c 	lui	s2,0xf66c
    50f4:	3652762e 	ori	s2,s2,0x762e
    50f8:	001fa021 	addu	s4,zero,ra
    50fc:	0016f821 	addu	ra,zero,s6
    5100:	3c150000 	lui	s5,0x0
    5104:	26b550b4 	addiu	s5,s5,20660
    5108:	3c0d54be 	lui	t5,0x54be
    510c:	35ad7440 	ori	t5,t5,0x7440
    5110:	160d0fb0 	bne	s0,t5,8fd4 <inst_error>
    5114:	00000000 	nop
    5118:	00000000 	nop
    511c:	3c0cf66c 	lui	t4,0xf66c
    5120:	358c762e 	ori	t4,t4,0x762e
    5124:	164c0fab 	bne	s2,t4,8fd4 <inst_error>
    5128:	00000000 	nop
    512c:	00000000 	nop
    5130:	26b50008 	addiu	s5,s5,8
    5134:	16950fa7 	bne	s4,s5,8fd4 <inst_error>
    5138:	00000000 	nop
    513c:	00000000 	nop
    5140:	001fb021 	addu	s6,zero,ra
    5144:	3c0cd7a7 	lui	t4,0xd7a7
    5148:	358ce4e6 	ori	t4,t4,0xe4e6
    514c:	3c0dcab5 	lui	t5,0xcab5
    5150:	35adf8fb 	ori	t5,t5,0xf8fb
    5154:	24100000 	li	s0,0
    5158:	1000000d 	b	5190 <n38_jal_test+0x5190>
    515c:	24120000 	li	s2,0
    5160:	00000000 	nop
    5164:	3c10d7a7 	lui	s0,0xd7a7
    5168:	3610e4e6 	ori	s0,s0,0xe4e6
    516c:	0c00146a 	jal	51a8 <n38_jal_test+0x51a8>
    5170:	00000000 	nop
    5174:	1000000e 	b	51b0 <n38_jal_test+0x51b0>
    5178:	00000000 	nop
    517c:	00000000 	nop
    5180:	00000021 	move	zero,zero
    5184:	00000021 	move	zero,zero
    5188:	00000021 	move	zero,zero
    518c:	00000021 	move	zero,zero
    5190:	0c001459 	jal	5164 <n38_jal_test+0x5164>
    5194:	00000000 	nop
    5198:	10000005 	b	51b0 <n38_jal_test+0x51b0>
    519c:	00000000 	nop
    51a0:	00000000 	nop
    51a4:	00000021 	move	zero,zero
    51a8:	3c12cab5 	lui	s2,0xcab5
    51ac:	3652f8fb 	ori	s2,s2,0xf8fb
    51b0:	001fa021 	addu	s4,zero,ra
    51b4:	0016f821 	addu	ra,zero,s6
    51b8:	3c150000 	lui	s5,0x0
    51bc:	26b5516c 	addiu	s5,s5,20844
    51c0:	3c0dd7a7 	lui	t5,0xd7a7
    51c4:	35ade4e6 	ori	t5,t5,0xe4e6
    51c8:	160d0f82 	bne	s0,t5,8fd4 <inst_error>
    51cc:	00000000 	nop
    51d0:	00000000 	nop
    51d4:	3c0ccab5 	lui	t4,0xcab5
    51d8:	358cf8fb 	ori	t4,t4,0xf8fb
    51dc:	164c0f7d 	bne	s2,t4,8fd4 <inst_error>
    51e0:	00000000 	nop
    51e4:	00000000 	nop
    51e8:	26b50008 	addiu	s5,s5,8
    51ec:	16950f79 	bne	s4,s5,8fd4 <inst_error>
    51f0:	00000000 	nop
    51f4:	00000000 	nop
    51f8:	001fb021 	addu	s6,zero,ra
    51fc:	3c0c626c 	lui	t4,0x626c
    5200:	358c7a3b 	ori	t4,t4,0x7a3b
    5204:	3c0dc227 	lui	t5,0xc227
    5208:	35ad9a00 	ori	t5,t5,0x9a00
    520c:	24100000 	li	s0,0
    5210:	1000000d 	b	5248 <n38_jal_test+0x5248>
    5214:	24120000 	li	s2,0
    5218:	00000000 	nop
    521c:	3c10626c 	lui	s0,0x626c
    5220:	36107a3b 	ori	s0,s0,0x7a3b
    5224:	0c001498 	jal	5260 <n38_jal_test+0x5260>
    5228:	00000000 	nop
    522c:	1000000e 	b	5268 <n38_jal_test+0x5268>
    5230:	00000000 	nop
    5234:	00000000 	nop
    5238:	00000021 	move	zero,zero
    523c:	00000021 	move	zero,zero
    5240:	00000021 	move	zero,zero
    5244:	00000021 	move	zero,zero
    5248:	0c001487 	jal	521c <n38_jal_test+0x521c>
    524c:	00000000 	nop
    5250:	10000005 	b	5268 <n38_jal_test+0x5268>
    5254:	00000000 	nop
    5258:	00000000 	nop
    525c:	00000021 	move	zero,zero
    5260:	3c12c227 	lui	s2,0xc227
    5264:	36529a00 	ori	s2,s2,0x9a00
    5268:	001fa021 	addu	s4,zero,ra
    526c:	0016f821 	addu	ra,zero,s6
    5270:	3c150000 	lui	s5,0x0
    5274:	26b55224 	addiu	s5,s5,21028
    5278:	3c0d626c 	lui	t5,0x626c
    527c:	35ad7a3b 	ori	t5,t5,0x7a3b
    5280:	160d0f54 	bne	s0,t5,8fd4 <inst_error>
    5284:	00000000 	nop
    5288:	00000000 	nop
    528c:	3c0cc227 	lui	t4,0xc227
    5290:	358c9a00 	ori	t4,t4,0x9a00
    5294:	164c0f4f 	bne	s2,t4,8fd4 <inst_error>
    5298:	00000000 	nop
    529c:	00000000 	nop
    52a0:	26b50008 	addiu	s5,s5,8
    52a4:	16950f4b 	bne	s4,s5,8fd4 <inst_error>
    52a8:	00000000 	nop
    52ac:	00000000 	nop
    52b0:	001fb021 	addu	s6,zero,ra
    52b4:	3c0cd058 	lui	t4,0xd058
    52b8:	358cca5d 	ori	t4,t4,0xca5d
    52bc:	3c0d8703 	lui	t5,0x8703
    52c0:	35ad3d19 	ori	t5,t5,0x3d19
    52c4:	24100000 	li	s0,0
    52c8:	1000000d 	b	5300 <n38_jal_test+0x5300>
    52cc:	24120000 	li	s2,0
    52d0:	00000000 	nop
    52d4:	3c10d058 	lui	s0,0xd058
    52d8:	3610ca5d 	ori	s0,s0,0xca5d
    52dc:	0c0014c6 	jal	5318 <n38_jal_test+0x5318>
    52e0:	00000000 	nop
    52e4:	1000000e 	b	5320 <n38_jal_test+0x5320>
    52e8:	00000000 	nop
    52ec:	00000000 	nop
    52f0:	00000021 	move	zero,zero
    52f4:	00000021 	move	zero,zero
    52f8:	00000021 	move	zero,zero
    52fc:	00000021 	move	zero,zero
    5300:	0c0014b5 	jal	52d4 <n38_jal_test+0x52d4>
    5304:	00000000 	nop
    5308:	10000005 	b	5320 <n38_jal_test+0x5320>
    530c:	00000000 	nop
    5310:	00000000 	nop
    5314:	00000021 	move	zero,zero
    5318:	3c128703 	lui	s2,0x8703
    531c:	36523d19 	ori	s2,s2,0x3d19
    5320:	001fa021 	addu	s4,zero,ra
    5324:	0016f821 	addu	ra,zero,s6
    5328:	3c150000 	lui	s5,0x0
    532c:	26b552dc 	addiu	s5,s5,21212
    5330:	3c0dd058 	lui	t5,0xd058
    5334:	35adca5d 	ori	t5,t5,0xca5d
    5338:	160d0f26 	bne	s0,t5,8fd4 <inst_error>
    533c:	00000000 	nop
    5340:	00000000 	nop
    5344:	3c0c8703 	lui	t4,0x8703
    5348:	358c3d19 	ori	t4,t4,0x3d19
    534c:	164c0f21 	bne	s2,t4,8fd4 <inst_error>
    5350:	00000000 	nop
    5354:	00000000 	nop
    5358:	26b50008 	addiu	s5,s5,8
    535c:	16950f1d 	bne	s4,s5,8fd4 <inst_error>
    5360:	00000000 	nop
    5364:	00000000 	nop
    5368:	001fb021 	addu	s6,zero,ra
    536c:	3c0c4883 	lui	t4,0x4883
    5370:	358c255a 	ori	t4,t4,0x255a
    5374:	3c0d5272 	lui	t5,0x5272
    5378:	35ad31d0 	ori	t5,t5,0x31d0
    537c:	24100000 	li	s0,0
    5380:	1000000d 	b	53b8 <n38_jal_test+0x53b8>
    5384:	24120000 	li	s2,0
    5388:	00000000 	nop
    538c:	3c104883 	lui	s0,0x4883
    5390:	3610255a 	ori	s0,s0,0x255a
    5394:	0c0014f4 	jal	53d0 <n38_jal_test+0x53d0>
    5398:	00000000 	nop
    539c:	1000000e 	b	53d8 <n38_jal_test+0x53d8>
    53a0:	00000000 	nop
    53a4:	00000000 	nop
    53a8:	00000021 	move	zero,zero
    53ac:	00000021 	move	zero,zero
    53b0:	00000021 	move	zero,zero
    53b4:	00000021 	move	zero,zero
    53b8:	0c0014e3 	jal	538c <n38_jal_test+0x538c>
    53bc:	00000000 	nop
    53c0:	10000005 	b	53d8 <n38_jal_test+0x53d8>
    53c4:	00000000 	nop
    53c8:	00000000 	nop
    53cc:	00000021 	move	zero,zero
    53d0:	3c125272 	lui	s2,0x5272
    53d4:	365231d0 	ori	s2,s2,0x31d0
    53d8:	001fa021 	addu	s4,zero,ra
    53dc:	0016f821 	addu	ra,zero,s6
    53e0:	3c150000 	lui	s5,0x0
    53e4:	26b55394 	addiu	s5,s5,21396
    53e8:	3c0d4883 	lui	t5,0x4883
    53ec:	35ad255a 	ori	t5,t5,0x255a
    53f0:	160d0ef8 	bne	s0,t5,8fd4 <inst_error>
    53f4:	00000000 	nop
    53f8:	00000000 	nop
    53fc:	3c0c5272 	lui	t4,0x5272
    5400:	358c31d0 	ori	t4,t4,0x31d0
    5404:	164c0ef3 	bne	s2,t4,8fd4 <inst_error>
    5408:	00000000 	nop
    540c:	00000000 	nop
    5410:	26b50008 	addiu	s5,s5,8
    5414:	16950eef 	bne	s4,s5,8fd4 <inst_error>
    5418:	00000000 	nop
    541c:	00000000 	nop
    5420:	001fb021 	addu	s6,zero,ra
    5424:	3c0c482d 	lui	t4,0x482d
    5428:	358c4ba0 	ori	t4,t4,0x4ba0
    542c:	3c0d166f 	lui	t5,0x166f
    5430:	35ade362 	ori	t5,t5,0xe362
    5434:	24100000 	li	s0,0
    5438:	1000000d 	b	5470 <n38_jal_test+0x5470>
    543c:	24120000 	li	s2,0
    5440:	00000000 	nop
    5444:	3c10482d 	lui	s0,0x482d
    5448:	36104ba0 	ori	s0,s0,0x4ba0
    544c:	0c001522 	jal	5488 <n38_jal_test+0x5488>
    5450:	00000000 	nop
    5454:	1000000e 	b	5490 <n38_jal_test+0x5490>
    5458:	00000000 	nop
    545c:	00000000 	nop
    5460:	00000021 	move	zero,zero
    5464:	00000021 	move	zero,zero
    5468:	00000021 	move	zero,zero
    546c:	00000021 	move	zero,zero
    5470:	0c001511 	jal	5444 <n38_jal_test+0x5444>
    5474:	00000000 	nop
    5478:	10000005 	b	5490 <n38_jal_test+0x5490>
    547c:	00000000 	nop
    5480:	00000000 	nop
    5484:	00000021 	move	zero,zero
    5488:	3c12166f 	lui	s2,0x166f
    548c:	3652e362 	ori	s2,s2,0xe362
    5490:	001fa021 	addu	s4,zero,ra
    5494:	0016f821 	addu	ra,zero,s6
    5498:	3c150000 	lui	s5,0x0
    549c:	26b5544c 	addiu	s5,s5,21580
    54a0:	3c0d482d 	lui	t5,0x482d
    54a4:	35ad4ba0 	ori	t5,t5,0x4ba0
    54a8:	160d0eca 	bne	s0,t5,8fd4 <inst_error>
    54ac:	00000000 	nop
    54b0:	00000000 	nop
    54b4:	3c0c166f 	lui	t4,0x166f
    54b8:	358ce362 	ori	t4,t4,0xe362
    54bc:	164c0ec5 	bne	s2,t4,8fd4 <inst_error>
    54c0:	00000000 	nop
    54c4:	00000000 	nop
    54c8:	26b50008 	addiu	s5,s5,8
    54cc:	16950ec1 	bne	s4,s5,8fd4 <inst_error>
    54d0:	00000000 	nop
    54d4:	00000000 	nop
    54d8:	001fb021 	addu	s6,zero,ra
    54dc:	3c0caa8a 	lui	t4,0xaa8a
    54e0:	358cf5cc 	ori	t4,t4,0xf5cc
    54e4:	3c0d12fd 	lui	t5,0x12fd
    54e8:	35adc654 	ori	t5,t5,0xc654
    54ec:	24100000 	li	s0,0
    54f0:	1000000d 	b	5528 <n38_jal_test+0x5528>
    54f4:	24120000 	li	s2,0
    54f8:	00000000 	nop
    54fc:	3c10aa8a 	lui	s0,0xaa8a
    5500:	3610f5cc 	ori	s0,s0,0xf5cc
    5504:	0c001550 	jal	5540 <n38_jal_test+0x5540>
    5508:	00000000 	nop
    550c:	1000000e 	b	5548 <n38_jal_test+0x5548>
    5510:	00000000 	nop
    5514:	00000000 	nop
    5518:	00000021 	move	zero,zero
    551c:	00000021 	move	zero,zero
    5520:	00000021 	move	zero,zero
    5524:	00000021 	move	zero,zero
    5528:	0c00153f 	jal	54fc <n38_jal_test+0x54fc>
    552c:	00000000 	nop
    5530:	10000005 	b	5548 <n38_jal_test+0x5548>
    5534:	00000000 	nop
    5538:	00000000 	nop
    553c:	00000021 	move	zero,zero
    5540:	3c1212fd 	lui	s2,0x12fd
    5544:	3652c654 	ori	s2,s2,0xc654
    5548:	001fa021 	addu	s4,zero,ra
    554c:	0016f821 	addu	ra,zero,s6
    5550:	3c150000 	lui	s5,0x0
    5554:	26b55504 	addiu	s5,s5,21764
    5558:	3c0daa8a 	lui	t5,0xaa8a
    555c:	35adf5cc 	ori	t5,t5,0xf5cc
    5560:	160d0e9c 	bne	s0,t5,8fd4 <inst_error>
    5564:	00000000 	nop
    5568:	00000000 	nop
    556c:	3c0c12fd 	lui	t4,0x12fd
    5570:	358cc654 	ori	t4,t4,0xc654
    5574:	164c0e97 	bne	s2,t4,8fd4 <inst_error>
    5578:	00000000 	nop
    557c:	00000000 	nop
    5580:	26b50008 	addiu	s5,s5,8
    5584:	16950e93 	bne	s4,s5,8fd4 <inst_error>
    5588:	00000000 	nop
    558c:	00000000 	nop
    5590:	001fb021 	addu	s6,zero,ra
    5594:	3c0c60c6 	lui	t4,0x60c6
    5598:	358cb2c4 	ori	t4,t4,0xb2c4
    559c:	3c0d6d83 	lui	t5,0x6d83
    55a0:	35ade80a 	ori	t5,t5,0xe80a
    55a4:	24100000 	li	s0,0
    55a8:	1000000d 	b	55e0 <n38_jal_test+0x55e0>
    55ac:	24120000 	li	s2,0
    55b0:	00000000 	nop
    55b4:	3c1060c6 	lui	s0,0x60c6
    55b8:	3610b2c4 	ori	s0,s0,0xb2c4
    55bc:	0c00157e 	jal	55f8 <n38_jal_test+0x55f8>
    55c0:	00000000 	nop
    55c4:	1000000e 	b	5600 <n38_jal_test+0x5600>
    55c8:	00000000 	nop
    55cc:	00000000 	nop
    55d0:	00000021 	move	zero,zero
    55d4:	00000021 	move	zero,zero
    55d8:	00000021 	move	zero,zero
    55dc:	00000021 	move	zero,zero
    55e0:	0c00156d 	jal	55b4 <n38_jal_test+0x55b4>
    55e4:	00000000 	nop
    55e8:	10000005 	b	5600 <n38_jal_test+0x5600>
    55ec:	00000000 	nop
    55f0:	00000000 	nop
    55f4:	00000021 	move	zero,zero
    55f8:	3c126d83 	lui	s2,0x6d83
    55fc:	3652e80a 	ori	s2,s2,0xe80a
    5600:	001fa021 	addu	s4,zero,ra
    5604:	0016f821 	addu	ra,zero,s6
    5608:	3c150000 	lui	s5,0x0
    560c:	26b555bc 	addiu	s5,s5,21948
    5610:	3c0d60c6 	lui	t5,0x60c6
    5614:	35adb2c4 	ori	t5,t5,0xb2c4
    5618:	160d0e6e 	bne	s0,t5,8fd4 <inst_error>
    561c:	00000000 	nop
    5620:	00000000 	nop
    5624:	3c0c6d83 	lui	t4,0x6d83
    5628:	358ce80a 	ori	t4,t4,0xe80a
    562c:	164c0e69 	bne	s2,t4,8fd4 <inst_error>
    5630:	00000000 	nop
    5634:	00000000 	nop
    5638:	26b50008 	addiu	s5,s5,8
    563c:	16950e65 	bne	s4,s5,8fd4 <inst_error>
    5640:	00000000 	nop
    5644:	00000000 	nop
    5648:	001fb021 	addu	s6,zero,ra
    564c:	3c0c8647 	lui	t4,0x8647
    5650:	358c9cb8 	ori	t4,t4,0x9cb8
    5654:	3c0db78f 	lui	t5,0xb78f
    5658:	35adb7a2 	ori	t5,t5,0xb7a2
    565c:	24100000 	li	s0,0
    5660:	1000000d 	b	5698 <n38_jal_test+0x5698>
    5664:	24120000 	li	s2,0
    5668:	00000000 	nop
    566c:	3c108647 	lui	s0,0x8647
    5670:	36109cb8 	ori	s0,s0,0x9cb8
    5674:	0c0015ac 	jal	56b0 <n38_jal_test+0x56b0>
    5678:	00000000 	nop
    567c:	1000000e 	b	56b8 <n38_jal_test+0x56b8>
    5680:	00000000 	nop
    5684:	00000000 	nop
    5688:	00000021 	move	zero,zero
    568c:	00000021 	move	zero,zero
    5690:	00000021 	move	zero,zero
    5694:	00000021 	move	zero,zero
    5698:	0c00159b 	jal	566c <n38_jal_test+0x566c>
    569c:	00000000 	nop
    56a0:	10000005 	b	56b8 <n38_jal_test+0x56b8>
    56a4:	00000000 	nop
    56a8:	00000000 	nop
    56ac:	00000021 	move	zero,zero
    56b0:	3c12b78f 	lui	s2,0xb78f
    56b4:	3652b7a2 	ori	s2,s2,0xb7a2
    56b8:	001fa021 	addu	s4,zero,ra
    56bc:	0016f821 	addu	ra,zero,s6
    56c0:	3c150000 	lui	s5,0x0
    56c4:	26b55674 	addiu	s5,s5,22132
    56c8:	3c0d8647 	lui	t5,0x8647
    56cc:	35ad9cb8 	ori	t5,t5,0x9cb8
    56d0:	160d0e40 	bne	s0,t5,8fd4 <inst_error>
    56d4:	00000000 	nop
    56d8:	00000000 	nop
    56dc:	3c0cb78f 	lui	t4,0xb78f
    56e0:	358cb7a2 	ori	t4,t4,0xb7a2
    56e4:	164c0e3b 	bne	s2,t4,8fd4 <inst_error>
    56e8:	00000000 	nop
    56ec:	00000000 	nop
    56f0:	26b50008 	addiu	s5,s5,8
    56f4:	16950e37 	bne	s4,s5,8fd4 <inst_error>
    56f8:	00000000 	nop
    56fc:	00000000 	nop
    5700:	001fb021 	addu	s6,zero,ra
    5704:	3c0cab6b 	lui	t4,0xab6b
    5708:	358c767c 	ori	t4,t4,0x767c
    570c:	3c0d3de3 	lui	t5,0x3de3
    5710:	35ad7136 	ori	t5,t5,0x7136
    5714:	24100000 	li	s0,0
    5718:	1000000d 	b	5750 <n38_jal_test+0x5750>
    571c:	24120000 	li	s2,0
    5720:	00000000 	nop
    5724:	3c10ab6b 	lui	s0,0xab6b
    5728:	3610767c 	ori	s0,s0,0x767c
    572c:	0c0015da 	jal	5768 <n38_jal_test+0x5768>
    5730:	00000000 	nop
    5734:	1000000e 	b	5770 <n38_jal_test+0x5770>
    5738:	00000000 	nop
    573c:	00000000 	nop
    5740:	00000021 	move	zero,zero
    5744:	00000021 	move	zero,zero
    5748:	00000021 	move	zero,zero
    574c:	00000021 	move	zero,zero
    5750:	0c0015c9 	jal	5724 <n38_jal_test+0x5724>
    5754:	00000000 	nop
    5758:	10000005 	b	5770 <n38_jal_test+0x5770>
    575c:	00000000 	nop
    5760:	00000000 	nop
    5764:	00000021 	move	zero,zero
    5768:	3c123de3 	lui	s2,0x3de3
    576c:	36527136 	ori	s2,s2,0x7136
    5770:	001fa021 	addu	s4,zero,ra
    5774:	0016f821 	addu	ra,zero,s6
    5778:	3c150000 	lui	s5,0x0
    577c:	26b5572c 	addiu	s5,s5,22316
    5780:	3c0dab6b 	lui	t5,0xab6b
    5784:	35ad767c 	ori	t5,t5,0x767c
    5788:	160d0e12 	bne	s0,t5,8fd4 <inst_error>
    578c:	00000000 	nop
    5790:	00000000 	nop
    5794:	3c0c3de3 	lui	t4,0x3de3
    5798:	358c7136 	ori	t4,t4,0x7136
    579c:	164c0e0d 	bne	s2,t4,8fd4 <inst_error>
    57a0:	00000000 	nop
    57a4:	00000000 	nop
    57a8:	26b50008 	addiu	s5,s5,8
    57ac:	16950e09 	bne	s4,s5,8fd4 <inst_error>
    57b0:	00000000 	nop
    57b4:	00000000 	nop
    57b8:	001fb021 	addu	s6,zero,ra
    57bc:	3c0c4f2c 	lui	t4,0x4f2c
    57c0:	358c6700 	ori	t4,t4,0x6700
    57c4:	3c0d5c6e 	lui	t5,0x5c6e
    57c8:	35ad1608 	ori	t5,t5,0x1608
    57cc:	24100000 	li	s0,0
    57d0:	1000000d 	b	5808 <n38_jal_test+0x5808>
    57d4:	24120000 	li	s2,0
    57d8:	00000000 	nop
    57dc:	3c104f2c 	lui	s0,0x4f2c
    57e0:	36106700 	ori	s0,s0,0x6700
    57e4:	0c001608 	jal	5820 <n38_jal_test+0x5820>
    57e8:	00000000 	nop
    57ec:	1000000e 	b	5828 <n38_jal_test+0x5828>
    57f0:	00000000 	nop
    57f4:	00000000 	nop
    57f8:	00000021 	move	zero,zero
    57fc:	00000021 	move	zero,zero
    5800:	00000021 	move	zero,zero
    5804:	00000021 	move	zero,zero
    5808:	0c0015f7 	jal	57dc <n38_jal_test+0x57dc>
    580c:	00000000 	nop
    5810:	10000005 	b	5828 <n38_jal_test+0x5828>
    5814:	00000000 	nop
    5818:	00000000 	nop
    581c:	00000021 	move	zero,zero
    5820:	3c125c6e 	lui	s2,0x5c6e
    5824:	36521608 	ori	s2,s2,0x1608
    5828:	001fa021 	addu	s4,zero,ra
    582c:	0016f821 	addu	ra,zero,s6
    5830:	3c150000 	lui	s5,0x0
    5834:	26b557e4 	addiu	s5,s5,22500
    5838:	3c0d4f2c 	lui	t5,0x4f2c
    583c:	35ad6700 	ori	t5,t5,0x6700
    5840:	160d0de4 	bne	s0,t5,8fd4 <inst_error>
    5844:	00000000 	nop
    5848:	00000000 	nop
    584c:	3c0c5c6e 	lui	t4,0x5c6e
    5850:	358c1608 	ori	t4,t4,0x1608
    5854:	164c0ddf 	bne	s2,t4,8fd4 <inst_error>
    5858:	00000000 	nop
    585c:	00000000 	nop
    5860:	26b50008 	addiu	s5,s5,8
    5864:	16950ddb 	bne	s4,s5,8fd4 <inst_error>
    5868:	00000000 	nop
    586c:	00000000 	nop
    5870:	001fb021 	addu	s6,zero,ra
    5874:	3c0c8372 	lui	t4,0x8372
    5878:	358c21e0 	ori	t4,t4,0x21e0
    587c:	3c0df67a 	lui	t5,0xf67a
    5880:	35ad1882 	ori	t5,t5,0x1882
    5884:	24100000 	li	s0,0
    5888:	1000000d 	b	58c0 <n38_jal_test+0x58c0>
    588c:	24120000 	li	s2,0
    5890:	00000000 	nop
    5894:	3c108372 	lui	s0,0x8372
    5898:	361021e0 	ori	s0,s0,0x21e0
    589c:	0c001636 	jal	58d8 <n38_jal_test+0x58d8>
    58a0:	00000000 	nop
    58a4:	1000000e 	b	58e0 <n38_jal_test+0x58e0>
    58a8:	00000000 	nop
    58ac:	00000000 	nop
    58b0:	00000021 	move	zero,zero
    58b4:	00000021 	move	zero,zero
    58b8:	00000021 	move	zero,zero
    58bc:	00000021 	move	zero,zero
    58c0:	0c001625 	jal	5894 <n38_jal_test+0x5894>
    58c4:	00000000 	nop
    58c8:	10000005 	b	58e0 <n38_jal_test+0x58e0>
    58cc:	00000000 	nop
    58d0:	00000000 	nop
    58d4:	00000021 	move	zero,zero
    58d8:	3c12f67a 	lui	s2,0xf67a
    58dc:	36521882 	ori	s2,s2,0x1882
    58e0:	001fa021 	addu	s4,zero,ra
    58e4:	0016f821 	addu	ra,zero,s6
    58e8:	3c150000 	lui	s5,0x0
    58ec:	26b5589c 	addiu	s5,s5,22684
    58f0:	3c0d8372 	lui	t5,0x8372
    58f4:	35ad21e0 	ori	t5,t5,0x21e0
    58f8:	160d0db6 	bne	s0,t5,8fd4 <inst_error>
    58fc:	00000000 	nop
    5900:	00000000 	nop
    5904:	3c0cf67a 	lui	t4,0xf67a
    5908:	358c1882 	ori	t4,t4,0x1882
    590c:	164c0db1 	bne	s2,t4,8fd4 <inst_error>
    5910:	00000000 	nop
    5914:	00000000 	nop
    5918:	26b50008 	addiu	s5,s5,8
    591c:	16950dad 	bne	s4,s5,8fd4 <inst_error>
    5920:	00000000 	nop
    5924:	00000000 	nop
    5928:	001fb021 	addu	s6,zero,ra
    592c:	3c0ce860 	lui	t4,0xe860
    5930:	358c9af3 	ori	t4,t4,0x9af3
    5934:	3c0de8c6 	lui	t5,0xe8c6
    5938:	35add23c 	ori	t5,t5,0xd23c
    593c:	24100000 	li	s0,0
    5940:	1000000d 	b	5978 <n38_jal_test+0x5978>
    5944:	24120000 	li	s2,0
    5948:	00000000 	nop
    594c:	3c10e860 	lui	s0,0xe860
    5950:	36109af3 	ori	s0,s0,0x9af3
    5954:	0c001664 	jal	5990 <n38_jal_test+0x5990>
    5958:	00000000 	nop
    595c:	1000000e 	b	5998 <n38_jal_test+0x5998>
    5960:	00000000 	nop
    5964:	00000000 	nop
    5968:	00000021 	move	zero,zero
    596c:	00000021 	move	zero,zero
    5970:	00000021 	move	zero,zero
    5974:	00000021 	move	zero,zero
    5978:	0c001653 	jal	594c <n38_jal_test+0x594c>
    597c:	00000000 	nop
    5980:	10000005 	b	5998 <n38_jal_test+0x5998>
    5984:	00000000 	nop
    5988:	00000000 	nop
    598c:	00000021 	move	zero,zero
    5990:	3c12e8c6 	lui	s2,0xe8c6
    5994:	3652d23c 	ori	s2,s2,0xd23c
    5998:	001fa021 	addu	s4,zero,ra
    599c:	0016f821 	addu	ra,zero,s6
    59a0:	3c150000 	lui	s5,0x0
    59a4:	26b55954 	addiu	s5,s5,22868
    59a8:	3c0de860 	lui	t5,0xe860
    59ac:	35ad9af3 	ori	t5,t5,0x9af3
    59b0:	160d0d88 	bne	s0,t5,8fd4 <inst_error>
    59b4:	00000000 	nop
    59b8:	00000000 	nop
    59bc:	3c0ce8c6 	lui	t4,0xe8c6
    59c0:	358cd23c 	ori	t4,t4,0xd23c
    59c4:	164c0d83 	bne	s2,t4,8fd4 <inst_error>
    59c8:	00000000 	nop
    59cc:	00000000 	nop
    59d0:	26b50008 	addiu	s5,s5,8
    59d4:	16950d7f 	bne	s4,s5,8fd4 <inst_error>
    59d8:	00000000 	nop
    59dc:	00000000 	nop
    59e0:	001fb021 	addu	s6,zero,ra
    59e4:	3c0c397d 	lui	t4,0x397d
    59e8:	358cf8e2 	ori	t4,t4,0xf8e2
    59ec:	3c0ddad4 	lui	t5,0xdad4
    59f0:	35add9c8 	ori	t5,t5,0xd9c8
    59f4:	24100000 	li	s0,0
    59f8:	1000000d 	b	5a30 <n38_jal_test+0x5a30>
    59fc:	24120000 	li	s2,0
    5a00:	00000000 	nop
    5a04:	3c10397d 	lui	s0,0x397d
    5a08:	3610f8e2 	ori	s0,s0,0xf8e2
    5a0c:	0c001692 	jal	5a48 <n38_jal_test+0x5a48>
    5a10:	00000000 	nop
    5a14:	1000000e 	b	5a50 <n38_jal_test+0x5a50>
    5a18:	00000000 	nop
    5a1c:	00000000 	nop
    5a20:	00000021 	move	zero,zero
    5a24:	00000021 	move	zero,zero
    5a28:	00000021 	move	zero,zero
    5a2c:	00000021 	move	zero,zero
    5a30:	0c001681 	jal	5a04 <n38_jal_test+0x5a04>
    5a34:	00000000 	nop
    5a38:	10000005 	b	5a50 <n38_jal_test+0x5a50>
    5a3c:	00000000 	nop
    5a40:	00000000 	nop
    5a44:	00000021 	move	zero,zero
    5a48:	3c12dad4 	lui	s2,0xdad4
    5a4c:	3652d9c8 	ori	s2,s2,0xd9c8
    5a50:	001fa021 	addu	s4,zero,ra
    5a54:	0016f821 	addu	ra,zero,s6
    5a58:	3c150000 	lui	s5,0x0
    5a5c:	26b55a0c 	addiu	s5,s5,23052
    5a60:	3c0d397d 	lui	t5,0x397d
    5a64:	35adf8e2 	ori	t5,t5,0xf8e2
    5a68:	160d0d5a 	bne	s0,t5,8fd4 <inst_error>
    5a6c:	00000000 	nop
    5a70:	00000000 	nop
    5a74:	3c0cdad4 	lui	t4,0xdad4
    5a78:	358cd9c8 	ori	t4,t4,0xd9c8
    5a7c:	164c0d55 	bne	s2,t4,8fd4 <inst_error>
    5a80:	00000000 	nop
    5a84:	00000000 	nop
    5a88:	26b50008 	addiu	s5,s5,8
    5a8c:	16950d51 	bne	s4,s5,8fd4 <inst_error>
    5a90:	00000000 	nop
    5a94:	00000000 	nop
    5a98:	001fb021 	addu	s6,zero,ra
    5a9c:	3c0c50a3 	lui	t4,0x50a3
    5aa0:	358c79d0 	ori	t4,t4,0x79d0
    5aa4:	3c0dcebe 	lui	t5,0xcebe
    5aa8:	35adc140 	ori	t5,t5,0xc140
    5aac:	24100000 	li	s0,0
    5ab0:	1000000d 	b	5ae8 <n38_jal_test+0x5ae8>
    5ab4:	24120000 	li	s2,0
    5ab8:	00000000 	nop
    5abc:	3c1050a3 	lui	s0,0x50a3
    5ac0:	361079d0 	ori	s0,s0,0x79d0
    5ac4:	0c0016c0 	jal	5b00 <n38_jal_test+0x5b00>
    5ac8:	00000000 	nop
    5acc:	1000000e 	b	5b08 <n38_jal_test+0x5b08>
    5ad0:	00000000 	nop
    5ad4:	00000000 	nop
    5ad8:	00000021 	move	zero,zero
    5adc:	00000021 	move	zero,zero
    5ae0:	00000021 	move	zero,zero
    5ae4:	00000021 	move	zero,zero
    5ae8:	0c0016af 	jal	5abc <n38_jal_test+0x5abc>
    5aec:	00000000 	nop
    5af0:	10000005 	b	5b08 <n38_jal_test+0x5b08>
    5af4:	00000000 	nop
    5af8:	00000000 	nop
    5afc:	00000021 	move	zero,zero
    5b00:	3c12cebe 	lui	s2,0xcebe
    5b04:	3652c140 	ori	s2,s2,0xc140
    5b08:	001fa021 	addu	s4,zero,ra
    5b0c:	0016f821 	addu	ra,zero,s6
    5b10:	3c150000 	lui	s5,0x0
    5b14:	26b55ac4 	addiu	s5,s5,23236
    5b18:	3c0d50a3 	lui	t5,0x50a3
    5b1c:	35ad79d0 	ori	t5,t5,0x79d0
    5b20:	160d0d2c 	bne	s0,t5,8fd4 <inst_error>
    5b24:	00000000 	nop
    5b28:	00000000 	nop
    5b2c:	3c0ccebe 	lui	t4,0xcebe
    5b30:	358cc140 	ori	t4,t4,0xc140
    5b34:	164c0d27 	bne	s2,t4,8fd4 <inst_error>
    5b38:	00000000 	nop
    5b3c:	00000000 	nop
    5b40:	26b50008 	addiu	s5,s5,8
    5b44:	16950d23 	bne	s4,s5,8fd4 <inst_error>
    5b48:	00000000 	nop
    5b4c:	00000000 	nop
    5b50:	001fb021 	addu	s6,zero,ra
    5b54:	3c0c3af9 	lui	t4,0x3af9
    5b58:	358cc4d7 	ori	t4,t4,0xc4d7
    5b5c:	3c0d9d77 	lui	t5,0x9d77
    5b60:	35ad0cfe 	ori	t5,t5,0xcfe
    5b64:	24100000 	li	s0,0
    5b68:	1000000d 	b	5ba0 <n38_jal_test+0x5ba0>
    5b6c:	24120000 	li	s2,0
    5b70:	00000000 	nop
    5b74:	3c103af9 	lui	s0,0x3af9
    5b78:	3610c4d7 	ori	s0,s0,0xc4d7
    5b7c:	0c0016ee 	jal	5bb8 <n38_jal_test+0x5bb8>
    5b80:	00000000 	nop
    5b84:	1000000e 	b	5bc0 <n38_jal_test+0x5bc0>
    5b88:	00000000 	nop
    5b8c:	00000000 	nop
    5b90:	00000021 	move	zero,zero
    5b94:	00000021 	move	zero,zero
    5b98:	00000021 	move	zero,zero
    5b9c:	00000021 	move	zero,zero
    5ba0:	0c0016dd 	jal	5b74 <n38_jal_test+0x5b74>
    5ba4:	00000000 	nop
    5ba8:	10000005 	b	5bc0 <n38_jal_test+0x5bc0>
    5bac:	00000000 	nop
    5bb0:	00000000 	nop
    5bb4:	00000021 	move	zero,zero
    5bb8:	3c129d77 	lui	s2,0x9d77
    5bbc:	36520cfe 	ori	s2,s2,0xcfe
    5bc0:	001fa021 	addu	s4,zero,ra
    5bc4:	0016f821 	addu	ra,zero,s6
    5bc8:	3c150000 	lui	s5,0x0
    5bcc:	26b55b7c 	addiu	s5,s5,23420
    5bd0:	3c0d3af9 	lui	t5,0x3af9
    5bd4:	35adc4d7 	ori	t5,t5,0xc4d7
    5bd8:	160d0cfe 	bne	s0,t5,8fd4 <inst_error>
    5bdc:	00000000 	nop
    5be0:	00000000 	nop
    5be4:	3c0c9d77 	lui	t4,0x9d77
    5be8:	358c0cfe 	ori	t4,t4,0xcfe
    5bec:	164c0cf9 	bne	s2,t4,8fd4 <inst_error>
    5bf0:	00000000 	nop
    5bf4:	00000000 	nop
    5bf8:	26b50008 	addiu	s5,s5,8
    5bfc:	16950cf5 	bne	s4,s5,8fd4 <inst_error>
    5c00:	00000000 	nop
    5c04:	00000000 	nop
    5c08:	001fb021 	addu	s6,zero,ra
    5c0c:	3c0ce081 	lui	t4,0xe081
    5c10:	358c4d80 	ori	t4,t4,0x4d80
    5c14:	3c0d535d 	lui	t5,0x535d
    5c18:	35ad93c0 	ori	t5,t5,0x93c0
    5c1c:	24100000 	li	s0,0
    5c20:	1000000d 	b	5c58 <n38_jal_test+0x5c58>
    5c24:	24120000 	li	s2,0
    5c28:	00000000 	nop
    5c2c:	3c10e081 	lui	s0,0xe081
    5c30:	36104d80 	ori	s0,s0,0x4d80
    5c34:	0c00171c 	jal	5c70 <n38_jal_test+0x5c70>
    5c38:	00000000 	nop
    5c3c:	1000000e 	b	5c78 <n38_jal_test+0x5c78>
    5c40:	00000000 	nop
    5c44:	00000000 	nop
    5c48:	00000021 	move	zero,zero
    5c4c:	00000021 	move	zero,zero
    5c50:	00000021 	move	zero,zero
    5c54:	00000021 	move	zero,zero
    5c58:	0c00170b 	jal	5c2c <n38_jal_test+0x5c2c>
    5c5c:	00000000 	nop
    5c60:	10000005 	b	5c78 <n38_jal_test+0x5c78>
    5c64:	00000000 	nop
    5c68:	00000000 	nop
    5c6c:	00000021 	move	zero,zero
    5c70:	3c12535d 	lui	s2,0x535d
    5c74:	365293c0 	ori	s2,s2,0x93c0
    5c78:	001fa021 	addu	s4,zero,ra
    5c7c:	0016f821 	addu	ra,zero,s6
    5c80:	3c150000 	lui	s5,0x0
    5c84:	26b55c34 	addiu	s5,s5,23604
    5c88:	3c0de081 	lui	t5,0xe081
    5c8c:	35ad4d80 	ori	t5,t5,0x4d80
    5c90:	160d0cd0 	bne	s0,t5,8fd4 <inst_error>
    5c94:	00000000 	nop
    5c98:	00000000 	nop
    5c9c:	3c0c535d 	lui	t4,0x535d
    5ca0:	358c93c0 	ori	t4,t4,0x93c0
    5ca4:	164c0ccb 	bne	s2,t4,8fd4 <inst_error>
    5ca8:	00000000 	nop
    5cac:	00000000 	nop
    5cb0:	26b50008 	addiu	s5,s5,8
    5cb4:	16950cc7 	bne	s4,s5,8fd4 <inst_error>
    5cb8:	00000000 	nop
    5cbc:	00000000 	nop
    5cc0:	001fb021 	addu	s6,zero,ra
    5cc4:	3c0c9886 	lui	t4,0x9886
    5cc8:	358ce010 	ori	t4,t4,0xe010
    5ccc:	3c0d3001 	lui	t5,0x3001
    5cd0:	35ad35f0 	ori	t5,t5,0x35f0
    5cd4:	24100000 	li	s0,0
    5cd8:	1000000d 	b	5d10 <n38_jal_test+0x5d10>
    5cdc:	24120000 	li	s2,0
    5ce0:	00000000 	nop
    5ce4:	3c109886 	lui	s0,0x9886
    5ce8:	3610e010 	ori	s0,s0,0xe010
    5cec:	0c00174a 	jal	5d28 <n38_jal_test+0x5d28>
    5cf0:	00000000 	nop
    5cf4:	1000000e 	b	5d30 <n38_jal_test+0x5d30>
    5cf8:	00000000 	nop
    5cfc:	00000000 	nop
    5d00:	00000021 	move	zero,zero
    5d04:	00000021 	move	zero,zero
    5d08:	00000021 	move	zero,zero
    5d0c:	00000021 	move	zero,zero
    5d10:	0c001739 	jal	5ce4 <n38_jal_test+0x5ce4>
    5d14:	00000000 	nop
    5d18:	10000005 	b	5d30 <n38_jal_test+0x5d30>
    5d1c:	00000000 	nop
    5d20:	00000000 	nop
    5d24:	00000021 	move	zero,zero
    5d28:	3c123001 	lui	s2,0x3001
    5d2c:	365235f0 	ori	s2,s2,0x35f0
    5d30:	001fa021 	addu	s4,zero,ra
    5d34:	0016f821 	addu	ra,zero,s6
    5d38:	3c150000 	lui	s5,0x0
    5d3c:	26b55cec 	addiu	s5,s5,23788
    5d40:	3c0d9886 	lui	t5,0x9886
    5d44:	35ade010 	ori	t5,t5,0xe010
    5d48:	160d0ca2 	bne	s0,t5,8fd4 <inst_error>
    5d4c:	00000000 	nop
    5d50:	00000000 	nop
    5d54:	3c0c3001 	lui	t4,0x3001
    5d58:	358c35f0 	ori	t4,t4,0x35f0
    5d5c:	164c0c9d 	bne	s2,t4,8fd4 <inst_error>
    5d60:	00000000 	nop
    5d64:	00000000 	nop
    5d68:	26b50008 	addiu	s5,s5,8
    5d6c:	16950c99 	bne	s4,s5,8fd4 <inst_error>
    5d70:	00000000 	nop
    5d74:	00000000 	nop
    5d78:	001fb021 	addu	s6,zero,ra
    5d7c:	3c0c70f4 	lui	t4,0x70f4
    5d80:	358cbbd4 	ori	t4,t4,0xbbd4
    5d84:	3c0d0afa 	lui	t5,0xafa
    5d88:	35ad6080 	ori	t5,t5,0x6080
    5d8c:	24100000 	li	s0,0
    5d90:	1000000d 	b	5dc8 <n38_jal_test+0x5dc8>
    5d94:	24120000 	li	s2,0
    5d98:	00000000 	nop
    5d9c:	3c1070f4 	lui	s0,0x70f4
    5da0:	3610bbd4 	ori	s0,s0,0xbbd4
    5da4:	0c001778 	jal	5de0 <n38_jal_test+0x5de0>
    5da8:	00000000 	nop
    5dac:	1000000e 	b	5de8 <n38_jal_test+0x5de8>
    5db0:	00000000 	nop
    5db4:	00000000 	nop
    5db8:	00000021 	move	zero,zero
    5dbc:	00000021 	move	zero,zero
    5dc0:	00000021 	move	zero,zero
    5dc4:	00000021 	move	zero,zero
    5dc8:	0c001767 	jal	5d9c <n38_jal_test+0x5d9c>
    5dcc:	00000000 	nop
    5dd0:	10000005 	b	5de8 <n38_jal_test+0x5de8>
    5dd4:	00000000 	nop
    5dd8:	00000000 	nop
    5ddc:	00000021 	move	zero,zero
    5de0:	3c120afa 	lui	s2,0xafa
    5de4:	36526080 	ori	s2,s2,0x6080
    5de8:	001fa021 	addu	s4,zero,ra
    5dec:	0016f821 	addu	ra,zero,s6
    5df0:	3c150000 	lui	s5,0x0
    5df4:	26b55da4 	addiu	s5,s5,23972
    5df8:	3c0d70f4 	lui	t5,0x70f4
    5dfc:	35adbbd4 	ori	t5,t5,0xbbd4
    5e00:	160d0c74 	bne	s0,t5,8fd4 <inst_error>
    5e04:	00000000 	nop
    5e08:	00000000 	nop
    5e0c:	3c0c0afa 	lui	t4,0xafa
    5e10:	358c6080 	ori	t4,t4,0x6080
    5e14:	164c0c6f 	bne	s2,t4,8fd4 <inst_error>
    5e18:	00000000 	nop
    5e1c:	00000000 	nop
    5e20:	26b50008 	addiu	s5,s5,8
    5e24:	16950c6b 	bne	s4,s5,8fd4 <inst_error>
    5e28:	00000000 	nop
    5e2c:	00000000 	nop
    5e30:	001fb021 	addu	s6,zero,ra
    5e34:	3c0c957d 	lui	t4,0x957d
    5e38:	358c3bd2 	ori	t4,t4,0x3bd2
    5e3c:	3c0d5726 	lui	t5,0x5726
    5e40:	35ad030a 	ori	t5,t5,0x30a
    5e44:	24100000 	li	s0,0
    5e48:	1000000d 	b	5e80 <n38_jal_test+0x5e80>
    5e4c:	24120000 	li	s2,0
    5e50:	00000000 	nop
    5e54:	3c10957d 	lui	s0,0x957d
    5e58:	36103bd2 	ori	s0,s0,0x3bd2
    5e5c:	0c0017a6 	jal	5e98 <n38_jal_test+0x5e98>
    5e60:	00000000 	nop
    5e64:	1000000e 	b	5ea0 <n38_jal_test+0x5ea0>
    5e68:	00000000 	nop
    5e6c:	00000000 	nop
    5e70:	00000021 	move	zero,zero
    5e74:	00000021 	move	zero,zero
    5e78:	00000021 	move	zero,zero
    5e7c:	00000021 	move	zero,zero
    5e80:	0c001795 	jal	5e54 <n38_jal_test+0x5e54>
    5e84:	00000000 	nop
    5e88:	10000005 	b	5ea0 <n38_jal_test+0x5ea0>
    5e8c:	00000000 	nop
    5e90:	00000000 	nop
    5e94:	00000021 	move	zero,zero
    5e98:	3c125726 	lui	s2,0x5726
    5e9c:	3652030a 	ori	s2,s2,0x30a
    5ea0:	001fa021 	addu	s4,zero,ra
    5ea4:	0016f821 	addu	ra,zero,s6
    5ea8:	3c150000 	lui	s5,0x0
    5eac:	26b55e5c 	addiu	s5,s5,24156
    5eb0:	3c0d957d 	lui	t5,0x957d
    5eb4:	35ad3bd2 	ori	t5,t5,0x3bd2
    5eb8:	160d0c46 	bne	s0,t5,8fd4 <inst_error>
    5ebc:	00000000 	nop
    5ec0:	00000000 	nop
    5ec4:	3c0c5726 	lui	t4,0x5726
    5ec8:	358c030a 	ori	t4,t4,0x30a
    5ecc:	164c0c41 	bne	s2,t4,8fd4 <inst_error>
    5ed0:	00000000 	nop
    5ed4:	00000000 	nop
    5ed8:	26b50008 	addiu	s5,s5,8
    5edc:	16950c3d 	bne	s4,s5,8fd4 <inst_error>
    5ee0:	00000000 	nop
    5ee4:	00000000 	nop
    5ee8:	001fb021 	addu	s6,zero,ra
    5eec:	3c0cff44 	lui	t4,0xff44
    5ef0:	358c1412 	ori	t4,t4,0x1412
    5ef4:	3c0d9352 	lui	t5,0x9352
    5ef8:	35ad0ef6 	ori	t5,t5,0xef6
    5efc:	24100000 	li	s0,0
    5f00:	1000000d 	b	5f38 <n38_jal_test+0x5f38>
    5f04:	24120000 	li	s2,0
    5f08:	00000000 	nop
    5f0c:	3c10ff44 	lui	s0,0xff44
    5f10:	36101412 	ori	s0,s0,0x1412
    5f14:	0c0017d4 	jal	5f50 <n38_jal_test+0x5f50>
    5f18:	00000000 	nop
    5f1c:	1000000e 	b	5f58 <n38_jal_test+0x5f58>
    5f20:	00000000 	nop
    5f24:	00000000 	nop
    5f28:	00000021 	move	zero,zero
    5f2c:	00000021 	move	zero,zero
    5f30:	00000021 	move	zero,zero
    5f34:	00000021 	move	zero,zero
    5f38:	0c0017c3 	jal	5f0c <n38_jal_test+0x5f0c>
    5f3c:	00000000 	nop
    5f40:	10000005 	b	5f58 <n38_jal_test+0x5f58>
    5f44:	00000000 	nop
    5f48:	00000000 	nop
    5f4c:	00000021 	move	zero,zero
    5f50:	3c129352 	lui	s2,0x9352
    5f54:	36520ef6 	ori	s2,s2,0xef6
    5f58:	001fa021 	addu	s4,zero,ra
    5f5c:	0016f821 	addu	ra,zero,s6
    5f60:	3c150000 	lui	s5,0x0
    5f64:	26b55f14 	addiu	s5,s5,24340
    5f68:	3c0dff44 	lui	t5,0xff44
    5f6c:	35ad1412 	ori	t5,t5,0x1412
    5f70:	160d0c18 	bne	s0,t5,8fd4 <inst_error>
    5f74:	00000000 	nop
    5f78:	00000000 	nop
    5f7c:	3c0c9352 	lui	t4,0x9352
    5f80:	358c0ef6 	ori	t4,t4,0xef6
    5f84:	164c0c13 	bne	s2,t4,8fd4 <inst_error>
    5f88:	00000000 	nop
    5f8c:	00000000 	nop
    5f90:	26b50008 	addiu	s5,s5,8
    5f94:	16950c0f 	bne	s4,s5,8fd4 <inst_error>
    5f98:	00000000 	nop
    5f9c:	00000000 	nop
    5fa0:	001fb021 	addu	s6,zero,ra
    5fa4:	3c0ca3ad 	lui	t4,0xa3ad
    5fa8:	358c1eca 	ori	t4,t4,0x1eca
    5fac:	3c0d0f86 	lui	t5,0xf86
    5fb0:	35adf200 	ori	t5,t5,0xf200
    5fb4:	24100000 	li	s0,0
    5fb8:	1000000d 	b	5ff0 <n38_jal_test+0x5ff0>
    5fbc:	24120000 	li	s2,0
    5fc0:	00000000 	nop
    5fc4:	3c10a3ad 	lui	s0,0xa3ad
    5fc8:	36101eca 	ori	s0,s0,0x1eca
    5fcc:	0c001802 	jal	6008 <n38_jal_test+0x6008>
    5fd0:	00000000 	nop
    5fd4:	1000000e 	b	6010 <n38_jal_test+0x6010>
    5fd8:	00000000 	nop
    5fdc:	00000000 	nop
    5fe0:	00000021 	move	zero,zero
    5fe4:	00000021 	move	zero,zero
    5fe8:	00000021 	move	zero,zero
    5fec:	00000021 	move	zero,zero
    5ff0:	0c0017f1 	jal	5fc4 <n38_jal_test+0x5fc4>
    5ff4:	00000000 	nop
    5ff8:	10000005 	b	6010 <n38_jal_test+0x6010>
    5ffc:	00000000 	nop
    6000:	00000000 	nop
    6004:	00000021 	move	zero,zero
    6008:	3c120f86 	lui	s2,0xf86
    600c:	3652f200 	ori	s2,s2,0xf200
    6010:	001fa021 	addu	s4,zero,ra
    6014:	0016f821 	addu	ra,zero,s6
    6018:	3c150000 	lui	s5,0x0
    601c:	26b55fcc 	addiu	s5,s5,24524
    6020:	3c0da3ad 	lui	t5,0xa3ad
    6024:	35ad1eca 	ori	t5,t5,0x1eca
    6028:	160d0bea 	bne	s0,t5,8fd4 <inst_error>
    602c:	00000000 	nop
    6030:	00000000 	nop
    6034:	3c0c0f86 	lui	t4,0xf86
    6038:	358cf200 	ori	t4,t4,0xf200
    603c:	164c0be5 	bne	s2,t4,8fd4 <inst_error>
    6040:	00000000 	nop
    6044:	00000000 	nop
    6048:	26b50008 	addiu	s5,s5,8
    604c:	16950be1 	bne	s4,s5,8fd4 <inst_error>
    6050:	00000000 	nop
    6054:	00000000 	nop
    6058:	001fb021 	addu	s6,zero,ra
    605c:	3c0ce6bd 	lui	t4,0xe6bd
    6060:	358c89c0 	ori	t4,t4,0x89c0
    6064:	3c0d01dc 	lui	t5,0x1dc
    6068:	35ad0560 	ori	t5,t5,0x560
    606c:	24100000 	li	s0,0
    6070:	1000000d 	b	60a8 <n38_jal_test+0x60a8>
    6074:	24120000 	li	s2,0
    6078:	00000000 	nop
    607c:	3c10e6bd 	lui	s0,0xe6bd
    6080:	361089c0 	ori	s0,s0,0x89c0
    6084:	0c001830 	jal	60c0 <n38_jal_test+0x60c0>
    6088:	00000000 	nop
    608c:	1000000e 	b	60c8 <n38_jal_test+0x60c8>
    6090:	00000000 	nop
    6094:	00000000 	nop
    6098:	00000021 	move	zero,zero
    609c:	00000021 	move	zero,zero
    60a0:	00000021 	move	zero,zero
    60a4:	00000021 	move	zero,zero
    60a8:	0c00181f 	jal	607c <n38_jal_test+0x607c>
    60ac:	00000000 	nop
    60b0:	10000005 	b	60c8 <n38_jal_test+0x60c8>
    60b4:	00000000 	nop
    60b8:	00000000 	nop
    60bc:	00000021 	move	zero,zero
    60c0:	3c1201dc 	lui	s2,0x1dc
    60c4:	36520560 	ori	s2,s2,0x560
    60c8:	001fa021 	addu	s4,zero,ra
    60cc:	0016f821 	addu	ra,zero,s6
    60d0:	3c150000 	lui	s5,0x0
    60d4:	26b56084 	addiu	s5,s5,24708
    60d8:	3c0de6bd 	lui	t5,0xe6bd
    60dc:	35ad89c0 	ori	t5,t5,0x89c0
    60e0:	160d0bbc 	bne	s0,t5,8fd4 <inst_error>
    60e4:	00000000 	nop
    60e8:	00000000 	nop
    60ec:	3c0c01dc 	lui	t4,0x1dc
    60f0:	358c0560 	ori	t4,t4,0x560
    60f4:	164c0bb7 	bne	s2,t4,8fd4 <inst_error>
    60f8:	00000000 	nop
    60fc:	00000000 	nop
    6100:	26b50008 	addiu	s5,s5,8
    6104:	16950bb3 	bne	s4,s5,8fd4 <inst_error>
    6108:	00000000 	nop
    610c:	00000000 	nop
    6110:	001fb021 	addu	s6,zero,ra
    6114:	3c0cf5e4 	lui	t4,0xf5e4
    6118:	358c174e 	ori	t4,t4,0x174e
    611c:	3c0dbefb 	lui	t5,0xbefb
    6120:	35adf528 	ori	t5,t5,0xf528
    6124:	24100000 	li	s0,0
    6128:	1000000d 	b	6160 <n38_jal_test+0x6160>
    612c:	24120000 	li	s2,0
    6130:	00000000 	nop
    6134:	3c10f5e4 	lui	s0,0xf5e4
    6138:	3610174e 	ori	s0,s0,0x174e
    613c:	0c00185e 	jal	6178 <n38_jal_test+0x6178>
    6140:	00000000 	nop
    6144:	1000000e 	b	6180 <n38_jal_test+0x6180>
    6148:	00000000 	nop
    614c:	00000000 	nop
    6150:	00000021 	move	zero,zero
    6154:	00000021 	move	zero,zero
    6158:	00000021 	move	zero,zero
    615c:	00000021 	move	zero,zero
    6160:	0c00184d 	jal	6134 <n38_jal_test+0x6134>
    6164:	00000000 	nop
    6168:	10000005 	b	6180 <n38_jal_test+0x6180>
    616c:	00000000 	nop
    6170:	00000000 	nop
    6174:	00000021 	move	zero,zero
    6178:	3c12befb 	lui	s2,0xbefb
    617c:	3652f528 	ori	s2,s2,0xf528
    6180:	001fa021 	addu	s4,zero,ra
    6184:	0016f821 	addu	ra,zero,s6
    6188:	3c150000 	lui	s5,0x0
    618c:	26b5613c 	addiu	s5,s5,24892
    6190:	3c0df5e4 	lui	t5,0xf5e4
    6194:	35ad174e 	ori	t5,t5,0x174e
    6198:	160d0b8e 	bne	s0,t5,8fd4 <inst_error>
    619c:	00000000 	nop
    61a0:	00000000 	nop
    61a4:	3c0cbefb 	lui	t4,0xbefb
    61a8:	358cf528 	ori	t4,t4,0xf528
    61ac:	164c0b89 	bne	s2,t4,8fd4 <inst_error>
    61b0:	00000000 	nop
    61b4:	00000000 	nop
    61b8:	26b50008 	addiu	s5,s5,8
    61bc:	16950b85 	bne	s4,s5,8fd4 <inst_error>
    61c0:	00000000 	nop
    61c4:	00000000 	nop
    61c8:	001fb021 	addu	s6,zero,ra
    61cc:	3c0c0e2e 	lui	t4,0xe2e
    61d0:	358c04b8 	ori	t4,t4,0x4b8
    61d4:	3c0d5e3a 	lui	t5,0x5e3a
    61d8:	35add5e9 	ori	t5,t5,0xd5e9
    61dc:	24100000 	li	s0,0
    61e0:	1000000d 	b	6218 <n38_jal_test+0x6218>
    61e4:	24120000 	li	s2,0
    61e8:	00000000 	nop
    61ec:	3c100e2e 	lui	s0,0xe2e
    61f0:	361004b8 	ori	s0,s0,0x4b8
    61f4:	0c00188c 	jal	6230 <n38_jal_test+0x6230>
    61f8:	00000000 	nop
    61fc:	1000000e 	b	6238 <n38_jal_test+0x6238>
    6200:	00000000 	nop
    6204:	00000000 	nop
    6208:	00000021 	move	zero,zero
    620c:	00000021 	move	zero,zero
    6210:	00000021 	move	zero,zero
    6214:	00000021 	move	zero,zero
    6218:	0c00187b 	jal	61ec <n38_jal_test+0x61ec>
    621c:	00000000 	nop
    6220:	10000005 	b	6238 <n38_jal_test+0x6238>
    6224:	00000000 	nop
    6228:	00000000 	nop
    622c:	00000021 	move	zero,zero
    6230:	3c125e3a 	lui	s2,0x5e3a
    6234:	3652d5e9 	ori	s2,s2,0xd5e9
    6238:	001fa021 	addu	s4,zero,ra
    623c:	0016f821 	addu	ra,zero,s6
    6240:	3c150000 	lui	s5,0x0
    6244:	26b561f4 	addiu	s5,s5,25076
    6248:	3c0d0e2e 	lui	t5,0xe2e
    624c:	35ad04b8 	ori	t5,t5,0x4b8
    6250:	160d0b60 	bne	s0,t5,8fd4 <inst_error>
    6254:	00000000 	nop
    6258:	00000000 	nop
    625c:	3c0c5e3a 	lui	t4,0x5e3a
    6260:	358cd5e9 	ori	t4,t4,0xd5e9
    6264:	164c0b5b 	bne	s2,t4,8fd4 <inst_error>
    6268:	00000000 	nop
    626c:	00000000 	nop
    6270:	26b50008 	addiu	s5,s5,8
    6274:	16950b57 	bne	s4,s5,8fd4 <inst_error>
    6278:	00000000 	nop
    627c:	00000000 	nop
    6280:	001fb021 	addu	s6,zero,ra
    6284:	3c0cf013 	lui	t4,0xf013
    6288:	358c2abc 	ori	t4,t4,0x2abc
    628c:	3c0d6a99 	lui	t5,0x6a99
    6290:	35adfa90 	ori	t5,t5,0xfa90
    6294:	24100000 	li	s0,0
    6298:	1000000d 	b	62d0 <n38_jal_test+0x62d0>
    629c:	24120000 	li	s2,0
    62a0:	00000000 	nop
    62a4:	3c10f013 	lui	s0,0xf013
    62a8:	36102abc 	ori	s0,s0,0x2abc
    62ac:	0c0018ba 	jal	62e8 <n38_jal_test+0x62e8>
    62b0:	00000000 	nop
    62b4:	1000000e 	b	62f0 <n38_jal_test+0x62f0>
    62b8:	00000000 	nop
    62bc:	00000000 	nop
    62c0:	00000021 	move	zero,zero
    62c4:	00000021 	move	zero,zero
    62c8:	00000021 	move	zero,zero
    62cc:	00000021 	move	zero,zero
    62d0:	0c0018a9 	jal	62a4 <n38_jal_test+0x62a4>
    62d4:	00000000 	nop
    62d8:	10000005 	b	62f0 <n38_jal_test+0x62f0>
    62dc:	00000000 	nop
    62e0:	00000000 	nop
    62e4:	00000021 	move	zero,zero
    62e8:	3c126a99 	lui	s2,0x6a99
    62ec:	3652fa90 	ori	s2,s2,0xfa90
    62f0:	001fa021 	addu	s4,zero,ra
    62f4:	0016f821 	addu	ra,zero,s6
    62f8:	3c150000 	lui	s5,0x0
    62fc:	26b562ac 	addiu	s5,s5,25260
    6300:	3c0df013 	lui	t5,0xf013
    6304:	35ad2abc 	ori	t5,t5,0x2abc
    6308:	160d0b32 	bne	s0,t5,8fd4 <inst_error>
    630c:	00000000 	nop
    6310:	00000000 	nop
    6314:	3c0c6a99 	lui	t4,0x6a99
    6318:	358cfa90 	ori	t4,t4,0xfa90
    631c:	164c0b2d 	bne	s2,t4,8fd4 <inst_error>
    6320:	00000000 	nop
    6324:	00000000 	nop
    6328:	26b50008 	addiu	s5,s5,8
    632c:	16950b29 	bne	s4,s5,8fd4 <inst_error>
    6330:	00000000 	nop
    6334:	00000000 	nop
    6338:	001fb021 	addu	s6,zero,ra
    633c:	3c0cd29b 	lui	t4,0xd29b
    6340:	358c6d80 	ori	t4,t4,0x6d80
    6344:	3c0d5fde 	lui	t5,0x5fde
    6348:	35ad970c 	ori	t5,t5,0x970c
    634c:	24100000 	li	s0,0
    6350:	1000000d 	b	6388 <n38_jal_test+0x6388>
    6354:	24120000 	li	s2,0
    6358:	00000000 	nop
    635c:	3c10d29b 	lui	s0,0xd29b
    6360:	36106d80 	ori	s0,s0,0x6d80
    6364:	0c0018e8 	jal	63a0 <n38_jal_test+0x63a0>
    6368:	00000000 	nop
    636c:	1000000e 	b	63a8 <n38_jal_test+0x63a8>
    6370:	00000000 	nop
    6374:	00000000 	nop
    6378:	00000021 	move	zero,zero
    637c:	00000021 	move	zero,zero
    6380:	00000021 	move	zero,zero
    6384:	00000021 	move	zero,zero
    6388:	0c0018d7 	jal	635c <n38_jal_test+0x635c>
    638c:	00000000 	nop
    6390:	10000005 	b	63a8 <n38_jal_test+0x63a8>
    6394:	00000000 	nop
    6398:	00000000 	nop
    639c:	00000021 	move	zero,zero
    63a0:	3c125fde 	lui	s2,0x5fde
    63a4:	3652970c 	ori	s2,s2,0x970c
    63a8:	001fa021 	addu	s4,zero,ra
    63ac:	0016f821 	addu	ra,zero,s6
    63b0:	3c150000 	lui	s5,0x0
    63b4:	26b56364 	addiu	s5,s5,25444
    63b8:	3c0dd29b 	lui	t5,0xd29b
    63bc:	35ad6d80 	ori	t5,t5,0x6d80
    63c0:	160d0b04 	bne	s0,t5,8fd4 <inst_error>
    63c4:	00000000 	nop
    63c8:	00000000 	nop
    63cc:	3c0c5fde 	lui	t4,0x5fde
    63d0:	358c970c 	ori	t4,t4,0x970c
    63d4:	164c0aff 	bne	s2,t4,8fd4 <inst_error>
    63d8:	00000000 	nop
    63dc:	00000000 	nop
    63e0:	26b50008 	addiu	s5,s5,8
    63e4:	16950afb 	bne	s4,s5,8fd4 <inst_error>
    63e8:	00000000 	nop
    63ec:	00000000 	nop
    63f0:	001fb021 	addu	s6,zero,ra
    63f4:	3c0cb35f 	lui	t4,0xb35f
    63f8:	358cc4b0 	ori	t4,t4,0xc4b0
    63fc:	3c0d0b66 	lui	t5,0xb66
    6400:	35ad5f50 	ori	t5,t5,0x5f50
    6404:	24100000 	li	s0,0
    6408:	1000000d 	b	6440 <n38_jal_test+0x6440>
    640c:	24120000 	li	s2,0
    6410:	00000000 	nop
    6414:	3c10b35f 	lui	s0,0xb35f
    6418:	3610c4b0 	ori	s0,s0,0xc4b0
    641c:	0c001916 	jal	6458 <n38_jal_test+0x6458>
    6420:	00000000 	nop
    6424:	1000000e 	b	6460 <n38_jal_test+0x6460>
    6428:	00000000 	nop
    642c:	00000000 	nop
    6430:	00000021 	move	zero,zero
    6434:	00000021 	move	zero,zero
    6438:	00000021 	move	zero,zero
    643c:	00000021 	move	zero,zero
    6440:	0c001905 	jal	6414 <n38_jal_test+0x6414>
    6444:	00000000 	nop
    6448:	10000005 	b	6460 <n38_jal_test+0x6460>
    644c:	00000000 	nop
    6450:	00000000 	nop
    6454:	00000021 	move	zero,zero
    6458:	3c120b66 	lui	s2,0xb66
    645c:	36525f50 	ori	s2,s2,0x5f50
    6460:	001fa021 	addu	s4,zero,ra
    6464:	0016f821 	addu	ra,zero,s6
    6468:	3c150000 	lui	s5,0x0
    646c:	26b5641c 	addiu	s5,s5,25628
    6470:	3c0db35f 	lui	t5,0xb35f
    6474:	35adc4b0 	ori	t5,t5,0xc4b0
    6478:	160d0ad6 	bne	s0,t5,8fd4 <inst_error>
    647c:	00000000 	nop
    6480:	00000000 	nop
    6484:	3c0c0b66 	lui	t4,0xb66
    6488:	358c5f50 	ori	t4,t4,0x5f50
    648c:	164c0ad1 	bne	s2,t4,8fd4 <inst_error>
    6490:	00000000 	nop
    6494:	00000000 	nop
    6498:	26b50008 	addiu	s5,s5,8
    649c:	16950acd 	bne	s4,s5,8fd4 <inst_error>
    64a0:	00000000 	nop
    64a4:	00000000 	nop
    64a8:	001fb021 	addu	s6,zero,ra
    64ac:	3c0c8f73 	lui	t4,0x8f73
    64b0:	358cc708 	ori	t4,t4,0xc708
    64b4:	3c0d6031 	lui	t5,0x6031
    64b8:	35ad5db8 	ori	t5,t5,0x5db8
    64bc:	24100000 	li	s0,0
    64c0:	1000000d 	b	64f8 <n38_jal_test+0x64f8>
    64c4:	24120000 	li	s2,0
    64c8:	00000000 	nop
    64cc:	3c108f73 	lui	s0,0x8f73
    64d0:	3610c708 	ori	s0,s0,0xc708
    64d4:	0c001944 	jal	6510 <n38_jal_test+0x6510>
    64d8:	00000000 	nop
    64dc:	1000000e 	b	6518 <n38_jal_test+0x6518>
    64e0:	00000000 	nop
    64e4:	00000000 	nop
    64e8:	00000021 	move	zero,zero
    64ec:	00000021 	move	zero,zero
    64f0:	00000021 	move	zero,zero
    64f4:	00000021 	move	zero,zero
    64f8:	0c001933 	jal	64cc <n38_jal_test+0x64cc>
    64fc:	00000000 	nop
    6500:	10000005 	b	6518 <n38_jal_test+0x6518>
    6504:	00000000 	nop
    6508:	00000000 	nop
    650c:	00000021 	move	zero,zero
    6510:	3c126031 	lui	s2,0x6031
    6514:	36525db8 	ori	s2,s2,0x5db8
    6518:	001fa021 	addu	s4,zero,ra
    651c:	0016f821 	addu	ra,zero,s6
    6520:	3c150000 	lui	s5,0x0
    6524:	26b564d4 	addiu	s5,s5,25812
    6528:	3c0d8f73 	lui	t5,0x8f73
    652c:	35adc708 	ori	t5,t5,0xc708
    6530:	160d0aa8 	bne	s0,t5,8fd4 <inst_error>
    6534:	00000000 	nop
    6538:	00000000 	nop
    653c:	3c0c6031 	lui	t4,0x6031
    6540:	358c5db8 	ori	t4,t4,0x5db8
    6544:	164c0aa3 	bne	s2,t4,8fd4 <inst_error>
    6548:	00000000 	nop
    654c:	00000000 	nop
    6550:	26b50008 	addiu	s5,s5,8
    6554:	16950a9f 	bne	s4,s5,8fd4 <inst_error>
    6558:	00000000 	nop
    655c:	00000000 	nop
    6560:	001fb021 	addu	s6,zero,ra
    6564:	3c0c148c 	lui	t4,0x148c
    6568:	358c1328 	ori	t4,t4,0x1328
    656c:	3c0db37f 	lui	t5,0xb37f
    6570:	35ad2bf5 	ori	t5,t5,0x2bf5
    6574:	24100000 	li	s0,0
    6578:	1000000d 	b	65b0 <n38_jal_test+0x65b0>
    657c:	24120000 	li	s2,0
    6580:	00000000 	nop
    6584:	3c10148c 	lui	s0,0x148c
    6588:	36101328 	ori	s0,s0,0x1328
    658c:	0c001972 	jal	65c8 <n38_jal_test+0x65c8>
    6590:	00000000 	nop
    6594:	1000000e 	b	65d0 <n38_jal_test+0x65d0>
    6598:	00000000 	nop
    659c:	00000000 	nop
    65a0:	00000021 	move	zero,zero
    65a4:	00000021 	move	zero,zero
    65a8:	00000021 	move	zero,zero
    65ac:	00000021 	move	zero,zero
    65b0:	0c001961 	jal	6584 <n38_jal_test+0x6584>
    65b4:	00000000 	nop
    65b8:	10000005 	b	65d0 <n38_jal_test+0x65d0>
    65bc:	00000000 	nop
    65c0:	00000000 	nop
    65c4:	00000021 	move	zero,zero
    65c8:	3c12b37f 	lui	s2,0xb37f
    65cc:	36522bf5 	ori	s2,s2,0x2bf5
    65d0:	001fa021 	addu	s4,zero,ra
    65d4:	0016f821 	addu	ra,zero,s6
    65d8:	3c150000 	lui	s5,0x0
    65dc:	26b5658c 	addiu	s5,s5,25996
    65e0:	3c0d148c 	lui	t5,0x148c
    65e4:	35ad1328 	ori	t5,t5,0x1328
    65e8:	160d0a7a 	bne	s0,t5,8fd4 <inst_error>
    65ec:	00000000 	nop
    65f0:	00000000 	nop
    65f4:	3c0cb37f 	lui	t4,0xb37f
    65f8:	358c2bf5 	ori	t4,t4,0x2bf5
    65fc:	164c0a75 	bne	s2,t4,8fd4 <inst_error>
    6600:	00000000 	nop
    6604:	00000000 	nop
    6608:	26b50008 	addiu	s5,s5,8
    660c:	16950a71 	bne	s4,s5,8fd4 <inst_error>
    6610:	00000000 	nop
    6614:	00000000 	nop
    6618:	001fb021 	addu	s6,zero,ra
    661c:	3c0c7731 	lui	t4,0x7731
    6620:	358c562a 	ori	t4,t4,0x562a
    6624:	3c0db0d0 	lui	t5,0xb0d0
    6628:	35ad928d 	ori	t5,t5,0x928d
    662c:	24100000 	li	s0,0
    6630:	1000000d 	b	6668 <n38_jal_test+0x6668>
    6634:	24120000 	li	s2,0
    6638:	00000000 	nop
    663c:	3c107731 	lui	s0,0x7731
    6640:	3610562a 	ori	s0,s0,0x562a
    6644:	0c0019a0 	jal	6680 <n38_jal_test+0x6680>
    6648:	00000000 	nop
    664c:	1000000e 	b	6688 <n38_jal_test+0x6688>
    6650:	00000000 	nop
    6654:	00000000 	nop
    6658:	00000021 	move	zero,zero
    665c:	00000021 	move	zero,zero
    6660:	00000021 	move	zero,zero
    6664:	00000021 	move	zero,zero
    6668:	0c00198f 	jal	663c <n38_jal_test+0x663c>
    666c:	00000000 	nop
    6670:	10000005 	b	6688 <n38_jal_test+0x6688>
    6674:	00000000 	nop
    6678:	00000000 	nop
    667c:	00000021 	move	zero,zero
    6680:	3c12b0d0 	lui	s2,0xb0d0
    6684:	3652928d 	ori	s2,s2,0x928d
    6688:	001fa021 	addu	s4,zero,ra
    668c:	0016f821 	addu	ra,zero,s6
    6690:	3c150000 	lui	s5,0x0
    6694:	26b56644 	addiu	s5,s5,26180
    6698:	3c0d7731 	lui	t5,0x7731
    669c:	35ad562a 	ori	t5,t5,0x562a
    66a0:	160d0a4c 	bne	s0,t5,8fd4 <inst_error>
    66a4:	00000000 	nop
    66a8:	00000000 	nop
    66ac:	3c0cb0d0 	lui	t4,0xb0d0
    66b0:	358c928d 	ori	t4,t4,0x928d
    66b4:	164c0a47 	bne	s2,t4,8fd4 <inst_error>
    66b8:	00000000 	nop
    66bc:	00000000 	nop
    66c0:	26b50008 	addiu	s5,s5,8
    66c4:	16950a43 	bne	s4,s5,8fd4 <inst_error>
    66c8:	00000000 	nop
    66cc:	00000000 	nop
    66d0:	001fb021 	addu	s6,zero,ra
    66d4:	3c0ce846 	lui	t4,0xe846
    66d8:	358c9a78 	ori	t4,t4,0x9a78
    66dc:	3c0df1e4 	lui	t5,0xf1e4
    66e0:	35ad2cc0 	ori	t5,t5,0x2cc0
    66e4:	24100000 	li	s0,0
    66e8:	1000000d 	b	6720 <n38_jal_test+0x6720>
    66ec:	24120000 	li	s2,0
    66f0:	00000000 	nop
    66f4:	3c10e846 	lui	s0,0xe846
    66f8:	36109a78 	ori	s0,s0,0x9a78
    66fc:	0c0019ce 	jal	6738 <n38_jal_test+0x6738>
    6700:	00000000 	nop
    6704:	1000000e 	b	6740 <n38_jal_test+0x6740>
    6708:	00000000 	nop
    670c:	00000000 	nop
    6710:	00000021 	move	zero,zero
    6714:	00000021 	move	zero,zero
    6718:	00000021 	move	zero,zero
    671c:	00000021 	move	zero,zero
    6720:	0c0019bd 	jal	66f4 <n38_jal_test+0x66f4>
    6724:	00000000 	nop
    6728:	10000005 	b	6740 <n38_jal_test+0x6740>
    672c:	00000000 	nop
    6730:	00000000 	nop
    6734:	00000021 	move	zero,zero
    6738:	3c12f1e4 	lui	s2,0xf1e4
    673c:	36522cc0 	ori	s2,s2,0x2cc0
    6740:	001fa021 	addu	s4,zero,ra
    6744:	0016f821 	addu	ra,zero,s6
    6748:	3c150000 	lui	s5,0x0
    674c:	26b566fc 	addiu	s5,s5,26364
    6750:	3c0de846 	lui	t5,0xe846
    6754:	35ad9a78 	ori	t5,t5,0x9a78
    6758:	160d0a1e 	bne	s0,t5,8fd4 <inst_error>
    675c:	00000000 	nop
    6760:	00000000 	nop
    6764:	3c0cf1e4 	lui	t4,0xf1e4
    6768:	358c2cc0 	ori	t4,t4,0x2cc0
    676c:	164c0a19 	bne	s2,t4,8fd4 <inst_error>
    6770:	00000000 	nop
    6774:	00000000 	nop
    6778:	26b50008 	addiu	s5,s5,8
    677c:	16950a15 	bne	s4,s5,8fd4 <inst_error>
    6780:	00000000 	nop
    6784:	00000000 	nop
    6788:	001fb021 	addu	s6,zero,ra
    678c:	3c0c872f 	lui	t4,0x872f
    6790:	358c83e8 	ori	t4,t4,0x83e8
    6794:	3c0d9e52 	lui	t5,0x9e52
    6798:	35ad5fe0 	ori	t5,t5,0x5fe0
    679c:	24100000 	li	s0,0
    67a0:	1000000d 	b	67d8 <n38_jal_test+0x67d8>
    67a4:	24120000 	li	s2,0
    67a8:	00000000 	nop
    67ac:	3c10872f 	lui	s0,0x872f
    67b0:	361083e8 	ori	s0,s0,0x83e8
    67b4:	0c0019fc 	jal	67f0 <n38_jal_test+0x67f0>
    67b8:	00000000 	nop
    67bc:	1000000e 	b	67f8 <n38_jal_test+0x67f8>
    67c0:	00000000 	nop
    67c4:	00000000 	nop
    67c8:	00000021 	move	zero,zero
    67cc:	00000021 	move	zero,zero
    67d0:	00000021 	move	zero,zero
    67d4:	00000021 	move	zero,zero
    67d8:	0c0019eb 	jal	67ac <n38_jal_test+0x67ac>
    67dc:	00000000 	nop
    67e0:	10000005 	b	67f8 <n38_jal_test+0x67f8>
    67e4:	00000000 	nop
    67e8:	00000000 	nop
    67ec:	00000021 	move	zero,zero
    67f0:	3c129e52 	lui	s2,0x9e52
    67f4:	36525fe0 	ori	s2,s2,0x5fe0
    67f8:	001fa021 	addu	s4,zero,ra
    67fc:	0016f821 	addu	ra,zero,s6
    6800:	3c150000 	lui	s5,0x0
    6804:	26b567b4 	addiu	s5,s5,26548
    6808:	3c0d872f 	lui	t5,0x872f
    680c:	35ad83e8 	ori	t5,t5,0x83e8
    6810:	160d09f0 	bne	s0,t5,8fd4 <inst_error>
    6814:	00000000 	nop
    6818:	00000000 	nop
    681c:	3c0c9e52 	lui	t4,0x9e52
    6820:	358c5fe0 	ori	t4,t4,0x5fe0
    6824:	164c09eb 	bne	s2,t4,8fd4 <inst_error>
    6828:	00000000 	nop
    682c:	00000000 	nop
    6830:	26b50008 	addiu	s5,s5,8
    6834:	169509e7 	bne	s4,s5,8fd4 <inst_error>
    6838:	00000000 	nop
    683c:	00000000 	nop
    6840:	001fb021 	addu	s6,zero,ra
    6844:	3c0cca11 	lui	t4,0xca11
    6848:	358c4c7f 	ori	t4,t4,0x4c7f
    684c:	3c0dd161 	lui	t5,0xd161
    6850:	35ad3e14 	ori	t5,t5,0x3e14
    6854:	24100000 	li	s0,0
    6858:	1000000d 	b	6890 <n38_jal_test+0x6890>
    685c:	24120000 	li	s2,0
    6860:	00000000 	nop
    6864:	3c10ca11 	lui	s0,0xca11
    6868:	36104c7f 	ori	s0,s0,0x4c7f
    686c:	0c001a2a 	jal	68a8 <n38_jal_test+0x68a8>
    6870:	00000000 	nop
    6874:	1000000e 	b	68b0 <n38_jal_test+0x68b0>
    6878:	00000000 	nop
    687c:	00000000 	nop
    6880:	00000021 	move	zero,zero
    6884:	00000021 	move	zero,zero
    6888:	00000021 	move	zero,zero
    688c:	00000021 	move	zero,zero
    6890:	0c001a19 	jal	6864 <n38_jal_test+0x6864>
    6894:	00000000 	nop
    6898:	10000005 	b	68b0 <n38_jal_test+0x68b0>
    689c:	00000000 	nop
    68a0:	00000000 	nop
    68a4:	00000021 	move	zero,zero
    68a8:	3c12d161 	lui	s2,0xd161
    68ac:	36523e14 	ori	s2,s2,0x3e14
    68b0:	001fa021 	addu	s4,zero,ra
    68b4:	0016f821 	addu	ra,zero,s6
    68b8:	3c150000 	lui	s5,0x0
    68bc:	26b5686c 	addiu	s5,s5,26732
    68c0:	3c0dca11 	lui	t5,0xca11
    68c4:	35ad4c7f 	ori	t5,t5,0x4c7f
    68c8:	160d09c2 	bne	s0,t5,8fd4 <inst_error>
    68cc:	00000000 	nop
    68d0:	00000000 	nop
    68d4:	3c0cd161 	lui	t4,0xd161
    68d8:	358c3e14 	ori	t4,t4,0x3e14
    68dc:	164c09bd 	bne	s2,t4,8fd4 <inst_error>
    68e0:	00000000 	nop
    68e4:	00000000 	nop
    68e8:	26b50008 	addiu	s5,s5,8
    68ec:	169509b9 	bne	s4,s5,8fd4 <inst_error>
    68f0:	00000000 	nop
    68f4:	00000000 	nop
    68f8:	001fb021 	addu	s6,zero,ra
    68fc:	3c0c1f77 	lui	t4,0x1f77
    6900:	358c1c40 	ori	t4,t4,0x1c40
    6904:	3c0d5c13 	lui	t5,0x5c13
    6908:	35ad1564 	ori	t5,t5,0x1564
    690c:	24100000 	li	s0,0
    6910:	1000000d 	b	6948 <n38_jal_test+0x6948>
    6914:	24120000 	li	s2,0
    6918:	00000000 	nop
    691c:	3c101f77 	lui	s0,0x1f77
    6920:	36101c40 	ori	s0,s0,0x1c40
    6924:	0c001a58 	jal	6960 <n38_jal_test+0x6960>
    6928:	00000000 	nop
    692c:	1000000e 	b	6968 <n38_jal_test+0x6968>
    6930:	00000000 	nop
    6934:	00000000 	nop
    6938:	00000021 	move	zero,zero
    693c:	00000021 	move	zero,zero
    6940:	00000021 	move	zero,zero
    6944:	00000021 	move	zero,zero
    6948:	0c001a47 	jal	691c <n38_jal_test+0x691c>
    694c:	00000000 	nop
    6950:	10000005 	b	6968 <n38_jal_test+0x6968>
    6954:	00000000 	nop
    6958:	00000000 	nop
    695c:	00000021 	move	zero,zero
    6960:	3c125c13 	lui	s2,0x5c13
    6964:	36521564 	ori	s2,s2,0x1564
    6968:	001fa021 	addu	s4,zero,ra
    696c:	0016f821 	addu	ra,zero,s6
    6970:	3c150000 	lui	s5,0x0
    6974:	26b56924 	addiu	s5,s5,26916
    6978:	3c0d1f77 	lui	t5,0x1f77
    697c:	35ad1c40 	ori	t5,t5,0x1c40
    6980:	160d0994 	bne	s0,t5,8fd4 <inst_error>
    6984:	00000000 	nop
    6988:	00000000 	nop
    698c:	3c0c5c13 	lui	t4,0x5c13
    6990:	358c1564 	ori	t4,t4,0x1564
    6994:	164c098f 	bne	s2,t4,8fd4 <inst_error>
    6998:	00000000 	nop
    699c:	00000000 	nop
    69a0:	26b50008 	addiu	s5,s5,8
    69a4:	1695098b 	bne	s4,s5,8fd4 <inst_error>
    69a8:	00000000 	nop
    69ac:	00000000 	nop
    69b0:	001fb021 	addu	s6,zero,ra
    69b4:	3c0c5989 	lui	t4,0x5989
    69b8:	358c2de4 	ori	t4,t4,0x2de4
    69bc:	3c0d7c4d 	lui	t5,0x7c4d
    69c0:	35ad6241 	ori	t5,t5,0x6241
    69c4:	24100000 	li	s0,0
    69c8:	1000000d 	b	6a00 <n38_jal_test+0x6a00>
    69cc:	24120000 	li	s2,0
    69d0:	00000000 	nop
    69d4:	3c105989 	lui	s0,0x5989
    69d8:	36102de4 	ori	s0,s0,0x2de4
    69dc:	0c001a86 	jal	6a18 <n38_jal_test+0x6a18>
    69e0:	00000000 	nop
    69e4:	1000000e 	b	6a20 <n38_jal_test+0x6a20>
    69e8:	00000000 	nop
    69ec:	00000000 	nop
    69f0:	00000021 	move	zero,zero
    69f4:	00000021 	move	zero,zero
    69f8:	00000021 	move	zero,zero
    69fc:	00000021 	move	zero,zero
    6a00:	0c001a75 	jal	69d4 <n38_jal_test+0x69d4>
    6a04:	00000000 	nop
    6a08:	10000005 	b	6a20 <n38_jal_test+0x6a20>
    6a0c:	00000000 	nop
    6a10:	00000000 	nop
    6a14:	00000021 	move	zero,zero
    6a18:	3c127c4d 	lui	s2,0x7c4d
    6a1c:	36526241 	ori	s2,s2,0x6241
    6a20:	001fa021 	addu	s4,zero,ra
    6a24:	0016f821 	addu	ra,zero,s6
    6a28:	3c150000 	lui	s5,0x0
    6a2c:	26b569dc 	addiu	s5,s5,27100
    6a30:	3c0d5989 	lui	t5,0x5989
    6a34:	35ad2de4 	ori	t5,t5,0x2de4
    6a38:	160d0966 	bne	s0,t5,8fd4 <inst_error>
    6a3c:	00000000 	nop
    6a40:	00000000 	nop
    6a44:	3c0c7c4d 	lui	t4,0x7c4d
    6a48:	358c6241 	ori	t4,t4,0x6241
    6a4c:	164c0961 	bne	s2,t4,8fd4 <inst_error>
    6a50:	00000000 	nop
    6a54:	00000000 	nop
    6a58:	26b50008 	addiu	s5,s5,8
    6a5c:	1695095d 	bne	s4,s5,8fd4 <inst_error>
    6a60:	00000000 	nop
    6a64:	00000000 	nop
    6a68:	001fb021 	addu	s6,zero,ra
    6a6c:	3c0c7620 	lui	t4,0x7620
    6a70:	358c14e5 	ori	t4,t4,0x14e5
    6a74:	3c0db748 	lui	t5,0xb748
    6a78:	35adedf0 	ori	t5,t5,0xedf0
    6a7c:	24100000 	li	s0,0
    6a80:	1000000d 	b	6ab8 <n38_jal_test+0x6ab8>
    6a84:	24120000 	li	s2,0
    6a88:	00000000 	nop
    6a8c:	3c107620 	lui	s0,0x7620
    6a90:	361014e5 	ori	s0,s0,0x14e5
    6a94:	0c001ab4 	jal	6ad0 <n38_jal_test+0x6ad0>
    6a98:	00000000 	nop
    6a9c:	1000000e 	b	6ad8 <n38_jal_test+0x6ad8>
    6aa0:	00000000 	nop
    6aa4:	00000000 	nop
    6aa8:	00000021 	move	zero,zero
    6aac:	00000021 	move	zero,zero
    6ab0:	00000021 	move	zero,zero
    6ab4:	00000021 	move	zero,zero
    6ab8:	0c001aa3 	jal	6a8c <n38_jal_test+0x6a8c>
    6abc:	00000000 	nop
    6ac0:	10000005 	b	6ad8 <n38_jal_test+0x6ad8>
    6ac4:	00000000 	nop
    6ac8:	00000000 	nop
    6acc:	00000021 	move	zero,zero
    6ad0:	3c12b748 	lui	s2,0xb748
    6ad4:	3652edf0 	ori	s2,s2,0xedf0
    6ad8:	001fa021 	addu	s4,zero,ra
    6adc:	0016f821 	addu	ra,zero,s6
    6ae0:	3c150000 	lui	s5,0x0
    6ae4:	26b56a94 	addiu	s5,s5,27284
    6ae8:	3c0d7620 	lui	t5,0x7620
    6aec:	35ad14e5 	ori	t5,t5,0x14e5
    6af0:	160d0938 	bne	s0,t5,8fd4 <inst_error>
    6af4:	00000000 	nop
    6af8:	00000000 	nop
    6afc:	3c0cb748 	lui	t4,0xb748
    6b00:	358cedf0 	ori	t4,t4,0xedf0
    6b04:	164c0933 	bne	s2,t4,8fd4 <inst_error>
    6b08:	00000000 	nop
    6b0c:	00000000 	nop
    6b10:	26b50008 	addiu	s5,s5,8
    6b14:	1695092f 	bne	s4,s5,8fd4 <inst_error>
    6b18:	00000000 	nop
    6b1c:	00000000 	nop
    6b20:	001fb021 	addu	s6,zero,ra
    6b24:	3c0c0630 	lui	t4,0x630
    6b28:	358ca598 	ori	t4,t4,0xa598
    6b2c:	3c0dbf4f 	lui	t5,0xbf4f
    6b30:	35adc5a0 	ori	t5,t5,0xc5a0
    6b34:	24100000 	li	s0,0
    6b38:	1000000d 	b	6b70 <n38_jal_test+0x6b70>
    6b3c:	24120000 	li	s2,0
    6b40:	00000000 	nop
    6b44:	3c100630 	lui	s0,0x630
    6b48:	3610a598 	ori	s0,s0,0xa598
    6b4c:	0c001ae2 	jal	6b88 <n38_jal_test+0x6b88>
    6b50:	00000000 	nop
    6b54:	1000000e 	b	6b90 <n38_jal_test+0x6b90>
    6b58:	00000000 	nop
    6b5c:	00000000 	nop
    6b60:	00000021 	move	zero,zero
    6b64:	00000021 	move	zero,zero
    6b68:	00000021 	move	zero,zero
    6b6c:	00000021 	move	zero,zero
    6b70:	0c001ad1 	jal	6b44 <n38_jal_test+0x6b44>
    6b74:	00000000 	nop
    6b78:	10000005 	b	6b90 <n38_jal_test+0x6b90>
    6b7c:	00000000 	nop
    6b80:	00000000 	nop
    6b84:	00000021 	move	zero,zero
    6b88:	3c12bf4f 	lui	s2,0xbf4f
    6b8c:	3652c5a0 	ori	s2,s2,0xc5a0
    6b90:	001fa021 	addu	s4,zero,ra
    6b94:	0016f821 	addu	ra,zero,s6
    6b98:	3c150000 	lui	s5,0x0
    6b9c:	26b56b4c 	addiu	s5,s5,27468
    6ba0:	3c0d0630 	lui	t5,0x630
    6ba4:	35ada598 	ori	t5,t5,0xa598
    6ba8:	160d090a 	bne	s0,t5,8fd4 <inst_error>
    6bac:	00000000 	nop
    6bb0:	00000000 	nop
    6bb4:	3c0cbf4f 	lui	t4,0xbf4f
    6bb8:	358cc5a0 	ori	t4,t4,0xc5a0
    6bbc:	164c0905 	bne	s2,t4,8fd4 <inst_error>
    6bc0:	00000000 	nop
    6bc4:	00000000 	nop
    6bc8:	26b50008 	addiu	s5,s5,8
    6bcc:	16950901 	bne	s4,s5,8fd4 <inst_error>
    6bd0:	00000000 	nop
    6bd4:	00000000 	nop
    6bd8:	001fb021 	addu	s6,zero,ra
    6bdc:	3c0c3d40 	lui	t4,0x3d40
    6be0:	358cefc0 	ori	t4,t4,0xefc0
    6be4:	3c0dedfb 	lui	t5,0xedfb
    6be8:	35ad0588 	ori	t5,t5,0x588
    6bec:	24100000 	li	s0,0
    6bf0:	1000000d 	b	6c28 <n38_jal_test+0x6c28>
    6bf4:	24120000 	li	s2,0
    6bf8:	00000000 	nop
    6bfc:	3c103d40 	lui	s0,0x3d40
    6c00:	3610efc0 	ori	s0,s0,0xefc0
    6c04:	0c001b10 	jal	6c40 <n38_jal_test+0x6c40>
    6c08:	00000000 	nop
    6c0c:	1000000e 	b	6c48 <n38_jal_test+0x6c48>
    6c10:	00000000 	nop
    6c14:	00000000 	nop
    6c18:	00000021 	move	zero,zero
    6c1c:	00000021 	move	zero,zero
    6c20:	00000021 	move	zero,zero
    6c24:	00000021 	move	zero,zero
    6c28:	0c001aff 	jal	6bfc <n38_jal_test+0x6bfc>
    6c2c:	00000000 	nop
    6c30:	10000005 	b	6c48 <n38_jal_test+0x6c48>
    6c34:	00000000 	nop
    6c38:	00000000 	nop
    6c3c:	00000021 	move	zero,zero
    6c40:	3c12edfb 	lui	s2,0xedfb
    6c44:	36520588 	ori	s2,s2,0x588
    6c48:	001fa021 	addu	s4,zero,ra
    6c4c:	0016f821 	addu	ra,zero,s6
    6c50:	3c150000 	lui	s5,0x0
    6c54:	26b56c04 	addiu	s5,s5,27652
    6c58:	3c0d3d40 	lui	t5,0x3d40
    6c5c:	35adefc0 	ori	t5,t5,0xefc0
    6c60:	160d08dc 	bne	s0,t5,8fd4 <inst_error>
    6c64:	00000000 	nop
    6c68:	00000000 	nop
    6c6c:	3c0cedfb 	lui	t4,0xedfb
    6c70:	358c0588 	ori	t4,t4,0x588
    6c74:	164c08d7 	bne	s2,t4,8fd4 <inst_error>
    6c78:	00000000 	nop
    6c7c:	00000000 	nop
    6c80:	26b50008 	addiu	s5,s5,8
    6c84:	169508d3 	bne	s4,s5,8fd4 <inst_error>
    6c88:	00000000 	nop
    6c8c:	00000000 	nop
    6c90:	001fb021 	addu	s6,zero,ra
    6c94:	3c0cf36d 	lui	t4,0xf36d
    6c98:	358c1638 	ori	t4,t4,0x1638
    6c9c:	3c0d04b4 	lui	t5,0x4b4
    6ca0:	35ad84c0 	ori	t5,t5,0x84c0
    6ca4:	24100000 	li	s0,0
    6ca8:	1000000d 	b	6ce0 <n38_jal_test+0x6ce0>
    6cac:	24120000 	li	s2,0
    6cb0:	00000000 	nop
    6cb4:	3c10f36d 	lui	s0,0xf36d
    6cb8:	36101638 	ori	s0,s0,0x1638
    6cbc:	0c001b3e 	jal	6cf8 <n38_jal_test+0x6cf8>
    6cc0:	00000000 	nop
    6cc4:	1000000e 	b	6d00 <n38_jal_test+0x6d00>
    6cc8:	00000000 	nop
    6ccc:	00000000 	nop
    6cd0:	00000021 	move	zero,zero
    6cd4:	00000021 	move	zero,zero
    6cd8:	00000021 	move	zero,zero
    6cdc:	00000021 	move	zero,zero
    6ce0:	0c001b2d 	jal	6cb4 <n38_jal_test+0x6cb4>
    6ce4:	00000000 	nop
    6ce8:	10000005 	b	6d00 <n38_jal_test+0x6d00>
    6cec:	00000000 	nop
    6cf0:	00000000 	nop
    6cf4:	00000021 	move	zero,zero
    6cf8:	3c1204b4 	lui	s2,0x4b4
    6cfc:	365284c0 	ori	s2,s2,0x84c0
    6d00:	001fa021 	addu	s4,zero,ra
    6d04:	0016f821 	addu	ra,zero,s6
    6d08:	3c150000 	lui	s5,0x0
    6d0c:	26b56cbc 	addiu	s5,s5,27836
    6d10:	3c0df36d 	lui	t5,0xf36d
    6d14:	35ad1638 	ori	t5,t5,0x1638
    6d18:	160d08ae 	bne	s0,t5,8fd4 <inst_error>
    6d1c:	00000000 	nop
    6d20:	00000000 	nop
    6d24:	3c0c04b4 	lui	t4,0x4b4
    6d28:	358c84c0 	ori	t4,t4,0x84c0
    6d2c:	164c08a9 	bne	s2,t4,8fd4 <inst_error>
    6d30:	00000000 	nop
    6d34:	00000000 	nop
    6d38:	26b50008 	addiu	s5,s5,8
    6d3c:	169508a5 	bne	s4,s5,8fd4 <inst_error>
    6d40:	00000000 	nop
    6d44:	00000000 	nop
    6d48:	001fb021 	addu	s6,zero,ra
    6d4c:	3c0caf10 	lui	t4,0xaf10
    6d50:	358c5dfc 	ori	t4,t4,0x5dfc
    6d54:	3c0da7ba 	lui	t5,0xa7ba
    6d58:	35ad2b5c 	ori	t5,t5,0x2b5c
    6d5c:	24100000 	li	s0,0
    6d60:	1000000d 	b	6d98 <n38_jal_test+0x6d98>
    6d64:	24120000 	li	s2,0
    6d68:	00000000 	nop
    6d6c:	3c10af10 	lui	s0,0xaf10
    6d70:	36105dfc 	ori	s0,s0,0x5dfc
    6d74:	0c001b6c 	jal	6db0 <n38_jal_test+0x6db0>
    6d78:	00000000 	nop
    6d7c:	1000000e 	b	6db8 <n38_jal_test+0x6db8>
    6d80:	00000000 	nop
    6d84:	00000000 	nop
    6d88:	00000021 	move	zero,zero
    6d8c:	00000021 	move	zero,zero
    6d90:	00000021 	move	zero,zero
    6d94:	00000021 	move	zero,zero
    6d98:	0c001b5b 	jal	6d6c <n38_jal_test+0x6d6c>
    6d9c:	00000000 	nop
    6da0:	10000005 	b	6db8 <n38_jal_test+0x6db8>
    6da4:	00000000 	nop
    6da8:	00000000 	nop
    6dac:	00000021 	move	zero,zero
    6db0:	3c12a7ba 	lui	s2,0xa7ba
    6db4:	36522b5c 	ori	s2,s2,0x2b5c
    6db8:	001fa021 	addu	s4,zero,ra
    6dbc:	0016f821 	addu	ra,zero,s6
    6dc0:	3c150000 	lui	s5,0x0
    6dc4:	26b56d74 	addiu	s5,s5,28020
    6dc8:	3c0daf10 	lui	t5,0xaf10
    6dcc:	35ad5dfc 	ori	t5,t5,0x5dfc
    6dd0:	160d0880 	bne	s0,t5,8fd4 <inst_error>
    6dd4:	00000000 	nop
    6dd8:	00000000 	nop
    6ddc:	3c0ca7ba 	lui	t4,0xa7ba
    6de0:	358c2b5c 	ori	t4,t4,0x2b5c
    6de4:	164c087b 	bne	s2,t4,8fd4 <inst_error>
    6de8:	00000000 	nop
    6dec:	00000000 	nop
    6df0:	26b50008 	addiu	s5,s5,8
    6df4:	16950877 	bne	s4,s5,8fd4 <inst_error>
    6df8:	00000000 	nop
    6dfc:	00000000 	nop
    6e00:	001fb021 	addu	s6,zero,ra
    6e04:	3c0c4433 	lui	t4,0x4433
    6e08:	358c23f8 	ori	t4,t4,0x23f8
    6e0c:	3c0df9a5 	lui	t5,0xf9a5
    6e10:	35adcf25 	ori	t5,t5,0xcf25
    6e14:	24100000 	li	s0,0
    6e18:	1000000d 	b	6e50 <n38_jal_test+0x6e50>
    6e1c:	24120000 	li	s2,0
    6e20:	00000000 	nop
    6e24:	3c104433 	lui	s0,0x4433
    6e28:	361023f8 	ori	s0,s0,0x23f8
    6e2c:	0c001b9a 	jal	6e68 <n38_jal_test+0x6e68>
    6e30:	00000000 	nop
    6e34:	1000000e 	b	6e70 <n38_jal_test+0x6e70>
    6e38:	00000000 	nop
    6e3c:	00000000 	nop
    6e40:	00000021 	move	zero,zero
    6e44:	00000021 	move	zero,zero
    6e48:	00000021 	move	zero,zero
    6e4c:	00000021 	move	zero,zero
    6e50:	0c001b89 	jal	6e24 <n38_jal_test+0x6e24>
    6e54:	00000000 	nop
    6e58:	10000005 	b	6e70 <n38_jal_test+0x6e70>
    6e5c:	00000000 	nop
    6e60:	00000000 	nop
    6e64:	00000021 	move	zero,zero
    6e68:	3c12f9a5 	lui	s2,0xf9a5
    6e6c:	3652cf25 	ori	s2,s2,0xcf25
    6e70:	001fa021 	addu	s4,zero,ra
    6e74:	0016f821 	addu	ra,zero,s6
    6e78:	3c150000 	lui	s5,0x0
    6e7c:	26b56e2c 	addiu	s5,s5,28204
    6e80:	3c0d4433 	lui	t5,0x4433
    6e84:	35ad23f8 	ori	t5,t5,0x23f8
    6e88:	160d0852 	bne	s0,t5,8fd4 <inst_error>
    6e8c:	00000000 	nop
    6e90:	00000000 	nop
    6e94:	3c0cf9a5 	lui	t4,0xf9a5
    6e98:	358ccf25 	ori	t4,t4,0xcf25
    6e9c:	164c084d 	bne	s2,t4,8fd4 <inst_error>
    6ea0:	00000000 	nop
    6ea4:	00000000 	nop
    6ea8:	26b50008 	addiu	s5,s5,8
    6eac:	16950849 	bne	s4,s5,8fd4 <inst_error>
    6eb0:	00000000 	nop
    6eb4:	00000000 	nop
    6eb8:	001fb021 	addu	s6,zero,ra
    6ebc:	3c0c9580 	lui	t4,0x9580
    6ec0:	358c83cc 	ori	t4,t4,0x83cc
    6ec4:	3c0d7abf 	lui	t5,0x7abf
    6ec8:	35adbd64 	ori	t5,t5,0xbd64
    6ecc:	24100000 	li	s0,0
    6ed0:	1000000d 	b	6f08 <n38_jal_test+0x6f08>
    6ed4:	24120000 	li	s2,0
    6ed8:	00000000 	nop
    6edc:	3c109580 	lui	s0,0x9580
    6ee0:	361083cc 	ori	s0,s0,0x83cc
    6ee4:	0c001bc8 	jal	6f20 <n38_jal_test+0x6f20>
    6ee8:	00000000 	nop
    6eec:	1000000e 	b	6f28 <n38_jal_test+0x6f28>
    6ef0:	00000000 	nop
    6ef4:	00000000 	nop
    6ef8:	00000021 	move	zero,zero
    6efc:	00000021 	move	zero,zero
    6f00:	00000021 	move	zero,zero
    6f04:	00000021 	move	zero,zero
    6f08:	0c001bb7 	jal	6edc <n38_jal_test+0x6edc>
    6f0c:	00000000 	nop
    6f10:	10000005 	b	6f28 <n38_jal_test+0x6f28>
    6f14:	00000000 	nop
    6f18:	00000000 	nop
    6f1c:	00000021 	move	zero,zero
    6f20:	3c127abf 	lui	s2,0x7abf
    6f24:	3652bd64 	ori	s2,s2,0xbd64
    6f28:	001fa021 	addu	s4,zero,ra
    6f2c:	0016f821 	addu	ra,zero,s6
    6f30:	3c150000 	lui	s5,0x0
    6f34:	26b56ee4 	addiu	s5,s5,28388
    6f38:	3c0d9580 	lui	t5,0x9580
    6f3c:	35ad83cc 	ori	t5,t5,0x83cc
    6f40:	160d0824 	bne	s0,t5,8fd4 <inst_error>
    6f44:	00000000 	nop
    6f48:	00000000 	nop
    6f4c:	3c0c7abf 	lui	t4,0x7abf
    6f50:	358cbd64 	ori	t4,t4,0xbd64
    6f54:	164c081f 	bne	s2,t4,8fd4 <inst_error>
    6f58:	00000000 	nop
    6f5c:	00000000 	nop
    6f60:	26b50008 	addiu	s5,s5,8
    6f64:	1695081b 	bne	s4,s5,8fd4 <inst_error>
    6f68:	00000000 	nop
    6f6c:	00000000 	nop
    6f70:	001fb021 	addu	s6,zero,ra
    6f74:	3c0c0849 	lui	t4,0x849
    6f78:	358cc579 	ori	t4,t4,0xc579
    6f7c:	3c0d4940 	lui	t5,0x4940
    6f80:	35ad76ef 	ori	t5,t5,0x76ef
    6f84:	24100000 	li	s0,0
    6f88:	1000000d 	b	6fc0 <n38_jal_test+0x6fc0>
    6f8c:	24120000 	li	s2,0
    6f90:	00000000 	nop
    6f94:	3c100849 	lui	s0,0x849
    6f98:	3610c579 	ori	s0,s0,0xc579
    6f9c:	0c001bf6 	jal	6fd8 <n38_jal_test+0x6fd8>
    6fa0:	00000000 	nop
    6fa4:	1000000e 	b	6fe0 <n38_jal_test+0x6fe0>
    6fa8:	00000000 	nop
    6fac:	00000000 	nop
    6fb0:	00000021 	move	zero,zero
    6fb4:	00000021 	move	zero,zero
    6fb8:	00000021 	move	zero,zero
    6fbc:	00000021 	move	zero,zero
    6fc0:	0c001be5 	jal	6f94 <n38_jal_test+0x6f94>
    6fc4:	00000000 	nop
    6fc8:	10000005 	b	6fe0 <n38_jal_test+0x6fe0>
    6fcc:	00000000 	nop
    6fd0:	00000000 	nop
    6fd4:	00000021 	move	zero,zero
    6fd8:	3c124940 	lui	s2,0x4940
    6fdc:	365276ef 	ori	s2,s2,0x76ef
    6fe0:	001fa021 	addu	s4,zero,ra
    6fe4:	0016f821 	addu	ra,zero,s6
    6fe8:	3c150000 	lui	s5,0x0
    6fec:	26b56f9c 	addiu	s5,s5,28572
    6ff0:	3c0d0849 	lui	t5,0x849
    6ff4:	35adc579 	ori	t5,t5,0xc579
    6ff8:	160d07f6 	bne	s0,t5,8fd4 <inst_error>
    6ffc:	00000000 	nop
    7000:	00000000 	nop
    7004:	3c0c4940 	lui	t4,0x4940
    7008:	358c76ef 	ori	t4,t4,0x76ef
    700c:	164c07f1 	bne	s2,t4,8fd4 <inst_error>
    7010:	00000000 	nop
    7014:	00000000 	nop
    7018:	26b50008 	addiu	s5,s5,8
    701c:	169507ed 	bne	s4,s5,8fd4 <inst_error>
    7020:	00000000 	nop
    7024:	00000000 	nop
    7028:	001fb021 	addu	s6,zero,ra
    702c:	3c0c0c3d 	lui	t4,0xc3d
    7030:	358c52a0 	ori	t4,t4,0x52a0
    7034:	3c0d095f 	lui	t5,0x95f
    7038:	35ad1c90 	ori	t5,t5,0x1c90
    703c:	24100000 	li	s0,0
    7040:	1000000d 	b	7078 <n38_jal_test+0x7078>
    7044:	24120000 	li	s2,0
    7048:	00000000 	nop
    704c:	3c100c3d 	lui	s0,0xc3d
    7050:	361052a0 	ori	s0,s0,0x52a0
    7054:	0c001c24 	jal	7090 <n38_jal_test+0x7090>
    7058:	00000000 	nop
    705c:	1000000e 	b	7098 <n38_jal_test+0x7098>
    7060:	00000000 	nop
    7064:	00000000 	nop
    7068:	00000021 	move	zero,zero
    706c:	00000021 	move	zero,zero
    7070:	00000021 	move	zero,zero
    7074:	00000021 	move	zero,zero
    7078:	0c001c13 	jal	704c <n38_jal_test+0x704c>
    707c:	00000000 	nop
    7080:	10000005 	b	7098 <n38_jal_test+0x7098>
    7084:	00000000 	nop
    7088:	00000000 	nop
    708c:	00000021 	move	zero,zero
    7090:	3c12095f 	lui	s2,0x95f
    7094:	36521c90 	ori	s2,s2,0x1c90
    7098:	001fa021 	addu	s4,zero,ra
    709c:	0016f821 	addu	ra,zero,s6
    70a0:	3c150000 	lui	s5,0x0
    70a4:	26b57054 	addiu	s5,s5,28756
    70a8:	3c0d0c3d 	lui	t5,0xc3d
    70ac:	35ad52a0 	ori	t5,t5,0x52a0
    70b0:	160d07c8 	bne	s0,t5,8fd4 <inst_error>
    70b4:	00000000 	nop
    70b8:	00000000 	nop
    70bc:	3c0c095f 	lui	t4,0x95f
    70c0:	358c1c90 	ori	t4,t4,0x1c90
    70c4:	164c07c3 	bne	s2,t4,8fd4 <inst_error>
    70c8:	00000000 	nop
    70cc:	00000000 	nop
    70d0:	26b50008 	addiu	s5,s5,8
    70d4:	169507bf 	bne	s4,s5,8fd4 <inst_error>
    70d8:	00000000 	nop
    70dc:	00000000 	nop
    70e0:	001fb021 	addu	s6,zero,ra
    70e4:	3c0c7869 	lui	t4,0x7869
    70e8:	358cbfbc 	ori	t4,t4,0xbfbc
    70ec:	3c0d5b92 	lui	t5,0x5b92
    70f0:	35adccac 	ori	t5,t5,0xccac
    70f4:	24100000 	li	s0,0
    70f8:	1000000d 	b	7130 <n38_jal_test+0x7130>
    70fc:	24120000 	li	s2,0
    7100:	00000000 	nop
    7104:	3c107869 	lui	s0,0x7869
    7108:	3610bfbc 	ori	s0,s0,0xbfbc
    710c:	0c001c52 	jal	7148 <n38_jal_test+0x7148>
    7110:	00000000 	nop
    7114:	1000000e 	b	7150 <n38_jal_test+0x7150>
    7118:	00000000 	nop
    711c:	00000000 	nop
    7120:	00000021 	move	zero,zero
    7124:	00000021 	move	zero,zero
    7128:	00000021 	move	zero,zero
    712c:	00000021 	move	zero,zero
    7130:	0c001c41 	jal	7104 <n38_jal_test+0x7104>
    7134:	00000000 	nop
    7138:	10000005 	b	7150 <n38_jal_test+0x7150>
    713c:	00000000 	nop
    7140:	00000000 	nop
    7144:	00000021 	move	zero,zero
    7148:	3c125b92 	lui	s2,0x5b92
    714c:	3652ccac 	ori	s2,s2,0xccac
    7150:	001fa021 	addu	s4,zero,ra
    7154:	0016f821 	addu	ra,zero,s6
    7158:	3c150000 	lui	s5,0x0
    715c:	26b5710c 	addiu	s5,s5,28940
    7160:	3c0d7869 	lui	t5,0x7869
    7164:	35adbfbc 	ori	t5,t5,0xbfbc
    7168:	160d079a 	bne	s0,t5,8fd4 <inst_error>
    716c:	00000000 	nop
    7170:	00000000 	nop
    7174:	3c0c5b92 	lui	t4,0x5b92
    7178:	358cccac 	ori	t4,t4,0xccac
    717c:	164c0795 	bne	s2,t4,8fd4 <inst_error>
    7180:	00000000 	nop
    7184:	00000000 	nop
    7188:	26b50008 	addiu	s5,s5,8
    718c:	16950791 	bne	s4,s5,8fd4 <inst_error>
    7190:	00000000 	nop
    7194:	00000000 	nop
    7198:	001fb021 	addu	s6,zero,ra
    719c:	3c0cc45c 	lui	t4,0xc45c
    71a0:	358cefa4 	ori	t4,t4,0xefa4
    71a4:	3c0d7006 	lui	t5,0x7006
    71a8:	35adab64 	ori	t5,t5,0xab64
    71ac:	24100000 	li	s0,0
    71b0:	1000000d 	b	71e8 <n38_jal_test+0x71e8>
    71b4:	24120000 	li	s2,0
    71b8:	00000000 	nop
    71bc:	3c10c45c 	lui	s0,0xc45c
    71c0:	3610efa4 	ori	s0,s0,0xefa4
    71c4:	0c001c80 	jal	7200 <n38_jal_test+0x7200>
    71c8:	00000000 	nop
    71cc:	1000000e 	b	7208 <n38_jal_test+0x7208>
    71d0:	00000000 	nop
    71d4:	00000000 	nop
    71d8:	00000021 	move	zero,zero
    71dc:	00000021 	move	zero,zero
    71e0:	00000021 	move	zero,zero
    71e4:	00000021 	move	zero,zero
    71e8:	0c001c6f 	jal	71bc <n38_jal_test+0x71bc>
    71ec:	00000000 	nop
    71f0:	10000005 	b	7208 <n38_jal_test+0x7208>
    71f4:	00000000 	nop
    71f8:	00000000 	nop
    71fc:	00000021 	move	zero,zero
    7200:	3c127006 	lui	s2,0x7006
    7204:	3652ab64 	ori	s2,s2,0xab64
    7208:	001fa021 	addu	s4,zero,ra
    720c:	0016f821 	addu	ra,zero,s6
    7210:	3c150000 	lui	s5,0x0
    7214:	26b571c4 	addiu	s5,s5,29124
    7218:	3c0dc45c 	lui	t5,0xc45c
    721c:	35adefa4 	ori	t5,t5,0xefa4
    7220:	160d076c 	bne	s0,t5,8fd4 <inst_error>
    7224:	00000000 	nop
    7228:	00000000 	nop
    722c:	3c0c7006 	lui	t4,0x7006
    7230:	358cab64 	ori	t4,t4,0xab64
    7234:	164c0767 	bne	s2,t4,8fd4 <inst_error>
    7238:	00000000 	nop
    723c:	00000000 	nop
    7240:	26b50008 	addiu	s5,s5,8
    7244:	16950763 	bne	s4,s5,8fd4 <inst_error>
    7248:	00000000 	nop
    724c:	00000000 	nop
    7250:	001fb021 	addu	s6,zero,ra
    7254:	3c0c9641 	lui	t4,0x9641
    7258:	358cdae6 	ori	t4,t4,0xdae6
    725c:	3c0d21bd 	lui	t5,0x21bd
    7260:	35ad0b07 	ori	t5,t5,0xb07
    7264:	24100000 	li	s0,0
    7268:	1000000d 	b	72a0 <n38_jal_test+0x72a0>
    726c:	24120000 	li	s2,0
    7270:	00000000 	nop
    7274:	3c109641 	lui	s0,0x9641
    7278:	3610dae6 	ori	s0,s0,0xdae6
    727c:	0c001cae 	jal	72b8 <n38_jal_test+0x72b8>
    7280:	00000000 	nop
    7284:	1000000e 	b	72c0 <n38_jal_test+0x72c0>
    7288:	00000000 	nop
    728c:	00000000 	nop
    7290:	00000021 	move	zero,zero
    7294:	00000021 	move	zero,zero
    7298:	00000021 	move	zero,zero
    729c:	00000021 	move	zero,zero
    72a0:	0c001c9d 	jal	7274 <n38_jal_test+0x7274>
    72a4:	00000000 	nop
    72a8:	10000005 	b	72c0 <n38_jal_test+0x72c0>
    72ac:	00000000 	nop
    72b0:	00000000 	nop
    72b4:	00000021 	move	zero,zero
    72b8:	3c1221bd 	lui	s2,0x21bd
    72bc:	36520b07 	ori	s2,s2,0xb07
    72c0:	001fa021 	addu	s4,zero,ra
    72c4:	0016f821 	addu	ra,zero,s6
    72c8:	3c150000 	lui	s5,0x0
    72cc:	26b5727c 	addiu	s5,s5,29308
    72d0:	3c0d9641 	lui	t5,0x9641
    72d4:	35addae6 	ori	t5,t5,0xdae6
    72d8:	160d073e 	bne	s0,t5,8fd4 <inst_error>
    72dc:	00000000 	nop
    72e0:	00000000 	nop
    72e4:	3c0c21bd 	lui	t4,0x21bd
    72e8:	358c0b07 	ori	t4,t4,0xb07
    72ec:	164c0739 	bne	s2,t4,8fd4 <inst_error>
    72f0:	00000000 	nop
    72f4:	00000000 	nop
    72f8:	26b50008 	addiu	s5,s5,8
    72fc:	16950735 	bne	s4,s5,8fd4 <inst_error>
    7300:	00000000 	nop
    7304:	00000000 	nop
    7308:	001fb021 	addu	s6,zero,ra
    730c:	3c0c4cd7 	lui	t4,0x4cd7
    7310:	358cccef 	ori	t4,t4,0xccef
    7314:	3c0db838 	lui	t5,0xb838
    7318:	35ad965b 	ori	t5,t5,0x965b
    731c:	24100000 	li	s0,0
    7320:	1000000d 	b	7358 <n38_jal_test+0x7358>
    7324:	24120000 	li	s2,0
    7328:	00000000 	nop
    732c:	3c104cd7 	lui	s0,0x4cd7
    7330:	3610ccef 	ori	s0,s0,0xccef
    7334:	0c001cdc 	jal	7370 <n38_jal_test+0x7370>
    7338:	00000000 	nop
    733c:	1000000e 	b	7378 <n38_jal_test+0x7378>
    7340:	00000000 	nop
    7344:	00000000 	nop
    7348:	00000021 	move	zero,zero
    734c:	00000021 	move	zero,zero
    7350:	00000021 	move	zero,zero
    7354:	00000021 	move	zero,zero
    7358:	0c001ccb 	jal	732c <n38_jal_test+0x732c>
    735c:	00000000 	nop
    7360:	10000005 	b	7378 <n38_jal_test+0x7378>
    7364:	00000000 	nop
    7368:	00000000 	nop
    736c:	00000021 	move	zero,zero
    7370:	3c12b838 	lui	s2,0xb838
    7374:	3652965b 	ori	s2,s2,0x965b
    7378:	001fa021 	addu	s4,zero,ra
    737c:	0016f821 	addu	ra,zero,s6
    7380:	3c150000 	lui	s5,0x0
    7384:	26b57334 	addiu	s5,s5,29492
    7388:	3c0d4cd7 	lui	t5,0x4cd7
    738c:	35adccef 	ori	t5,t5,0xccef
    7390:	160d0710 	bne	s0,t5,8fd4 <inst_error>
    7394:	00000000 	nop
    7398:	00000000 	nop
    739c:	3c0cb838 	lui	t4,0xb838
    73a0:	358c965b 	ori	t4,t4,0x965b
    73a4:	164c070b 	bne	s2,t4,8fd4 <inst_error>
    73a8:	00000000 	nop
    73ac:	00000000 	nop
    73b0:	26b50008 	addiu	s5,s5,8
    73b4:	16950707 	bne	s4,s5,8fd4 <inst_error>
    73b8:	00000000 	nop
    73bc:	00000000 	nop
    73c0:	001fb021 	addu	s6,zero,ra
    73c4:	3c0cd924 	lui	t4,0xd924
    73c8:	358c322a 	ori	t4,t4,0x322a
    73cc:	3c0d9ebb 	lui	t5,0x9ebb
    73d0:	35adb9dc 	ori	t5,t5,0xb9dc
    73d4:	24100000 	li	s0,0
    73d8:	1000000d 	b	7410 <n38_jal_test+0x7410>
    73dc:	24120000 	li	s2,0
    73e0:	00000000 	nop
    73e4:	3c10d924 	lui	s0,0xd924
    73e8:	3610322a 	ori	s0,s0,0x322a
    73ec:	0c001d0a 	jal	7428 <n38_jal_test+0x7428>
    73f0:	00000000 	nop
    73f4:	1000000e 	b	7430 <n38_jal_test+0x7430>
    73f8:	00000000 	nop
    73fc:	00000000 	nop
    7400:	00000021 	move	zero,zero
    7404:	00000021 	move	zero,zero
    7408:	00000021 	move	zero,zero
    740c:	00000021 	move	zero,zero
    7410:	0c001cf9 	jal	73e4 <n38_jal_test+0x73e4>
    7414:	00000000 	nop
    7418:	10000005 	b	7430 <n38_jal_test+0x7430>
    741c:	00000000 	nop
    7420:	00000000 	nop
    7424:	00000021 	move	zero,zero
    7428:	3c129ebb 	lui	s2,0x9ebb
    742c:	3652b9dc 	ori	s2,s2,0xb9dc
    7430:	001fa021 	addu	s4,zero,ra
    7434:	0016f821 	addu	ra,zero,s6
    7438:	3c150000 	lui	s5,0x0
    743c:	26b573ec 	addiu	s5,s5,29676
    7440:	3c0dd924 	lui	t5,0xd924
    7444:	35ad322a 	ori	t5,t5,0x322a
    7448:	160d06e2 	bne	s0,t5,8fd4 <inst_error>
    744c:	00000000 	nop
    7450:	00000000 	nop
    7454:	3c0c9ebb 	lui	t4,0x9ebb
    7458:	358cb9dc 	ori	t4,t4,0xb9dc
    745c:	164c06dd 	bne	s2,t4,8fd4 <inst_error>
    7460:	00000000 	nop
    7464:	00000000 	nop
    7468:	26b50008 	addiu	s5,s5,8
    746c:	169506d9 	bne	s4,s5,8fd4 <inst_error>
    7470:	00000000 	nop
    7474:	00000000 	nop
    7478:	001fb021 	addu	s6,zero,ra
    747c:	3c0cb908 	lui	t4,0xb908
    7480:	358c0a70 	ori	t4,t4,0xa70
    7484:	3c0dcffa 	lui	t5,0xcffa
    7488:	35add758 	ori	t5,t5,0xd758
    748c:	24100000 	li	s0,0
    7490:	1000000d 	b	74c8 <n38_jal_test+0x74c8>
    7494:	24120000 	li	s2,0
    7498:	00000000 	nop
    749c:	3c10b908 	lui	s0,0xb908
    74a0:	36100a70 	ori	s0,s0,0xa70
    74a4:	0c001d38 	jal	74e0 <n38_jal_test+0x74e0>
    74a8:	00000000 	nop
    74ac:	1000000e 	b	74e8 <n38_jal_test+0x74e8>
    74b0:	00000000 	nop
    74b4:	00000000 	nop
    74b8:	00000021 	move	zero,zero
    74bc:	00000021 	move	zero,zero
    74c0:	00000021 	move	zero,zero
    74c4:	00000021 	move	zero,zero
    74c8:	0c001d27 	jal	749c <n38_jal_test+0x749c>
    74cc:	00000000 	nop
    74d0:	10000005 	b	74e8 <n38_jal_test+0x74e8>
    74d4:	00000000 	nop
    74d8:	00000000 	nop
    74dc:	00000021 	move	zero,zero
    74e0:	3c12cffa 	lui	s2,0xcffa
    74e4:	3652d758 	ori	s2,s2,0xd758
    74e8:	001fa021 	addu	s4,zero,ra
    74ec:	0016f821 	addu	ra,zero,s6
    74f0:	3c150000 	lui	s5,0x0
    74f4:	26b574a4 	addiu	s5,s5,29860
    74f8:	3c0db908 	lui	t5,0xb908
    74fc:	35ad0a70 	ori	t5,t5,0xa70
    7500:	160d06b4 	bne	s0,t5,8fd4 <inst_error>
    7504:	00000000 	nop
    7508:	00000000 	nop
    750c:	3c0ccffa 	lui	t4,0xcffa
    7510:	358cd758 	ori	t4,t4,0xd758
    7514:	164c06af 	bne	s2,t4,8fd4 <inst_error>
    7518:	00000000 	nop
    751c:	00000000 	nop
    7520:	26b50008 	addiu	s5,s5,8
    7524:	169506ab 	bne	s4,s5,8fd4 <inst_error>
    7528:	00000000 	nop
    752c:	00000000 	nop
    7530:	001fb021 	addu	s6,zero,ra
    7534:	3c0c53a6 	lui	t4,0x53a6
    7538:	358c1c51 	ori	t4,t4,0x1c51
    753c:	3c0dd977 	lui	t5,0xd977
    7540:	35ad6eae 	ori	t5,t5,0x6eae
    7544:	24100000 	li	s0,0
    7548:	1000000d 	b	7580 <n38_jal_test+0x7580>
    754c:	24120000 	li	s2,0
    7550:	00000000 	nop
    7554:	3c1053a6 	lui	s0,0x53a6
    7558:	36101c51 	ori	s0,s0,0x1c51
    755c:	0c001d66 	jal	7598 <n38_jal_test+0x7598>
    7560:	00000000 	nop
    7564:	1000000e 	b	75a0 <n38_jal_test+0x75a0>
    7568:	00000000 	nop
    756c:	00000000 	nop
    7570:	00000021 	move	zero,zero
    7574:	00000021 	move	zero,zero
    7578:	00000021 	move	zero,zero
    757c:	00000021 	move	zero,zero
    7580:	0c001d55 	jal	7554 <n38_jal_test+0x7554>
    7584:	00000000 	nop
    7588:	10000005 	b	75a0 <n38_jal_test+0x75a0>
    758c:	00000000 	nop
    7590:	00000000 	nop
    7594:	00000021 	move	zero,zero
    7598:	3c12d977 	lui	s2,0xd977
    759c:	36526eae 	ori	s2,s2,0x6eae
    75a0:	001fa021 	addu	s4,zero,ra
    75a4:	0016f821 	addu	ra,zero,s6
    75a8:	3c150000 	lui	s5,0x0
    75ac:	26b5755c 	addiu	s5,s5,30044
    75b0:	3c0d53a6 	lui	t5,0x53a6
    75b4:	35ad1c51 	ori	t5,t5,0x1c51
    75b8:	160d0686 	bne	s0,t5,8fd4 <inst_error>
    75bc:	00000000 	nop
    75c0:	00000000 	nop
    75c4:	3c0cd977 	lui	t4,0xd977
    75c8:	358c6eae 	ori	t4,t4,0x6eae
    75cc:	164c0681 	bne	s2,t4,8fd4 <inst_error>
    75d0:	00000000 	nop
    75d4:	00000000 	nop
    75d8:	26b50008 	addiu	s5,s5,8
    75dc:	1695067d 	bne	s4,s5,8fd4 <inst_error>
    75e0:	00000000 	nop
    75e4:	00000000 	nop
    75e8:	001fb021 	addu	s6,zero,ra
    75ec:	3c0ca2af 	lui	t4,0xa2af
    75f0:	358cbf34 	ori	t4,t4,0xbf34
    75f4:	3c0d4756 	lui	t5,0x4756
    75f8:	35ad2800 	ori	t5,t5,0x2800
    75fc:	24100000 	li	s0,0
    7600:	1000000d 	b	7638 <n38_jal_test+0x7638>
    7604:	24120000 	li	s2,0
    7608:	00000000 	nop
    760c:	3c10a2af 	lui	s0,0xa2af
    7610:	3610bf34 	ori	s0,s0,0xbf34
    7614:	0c001d94 	jal	7650 <n38_jal_test+0x7650>
    7618:	00000000 	nop
    761c:	1000000e 	b	7658 <n38_jal_test+0x7658>
    7620:	00000000 	nop
    7624:	00000000 	nop
    7628:	00000021 	move	zero,zero
    762c:	00000021 	move	zero,zero
    7630:	00000021 	move	zero,zero
    7634:	00000021 	move	zero,zero
    7638:	0c001d83 	jal	760c <n38_jal_test+0x760c>
    763c:	00000000 	nop
    7640:	10000005 	b	7658 <n38_jal_test+0x7658>
    7644:	00000000 	nop
    7648:	00000000 	nop
    764c:	00000021 	move	zero,zero
    7650:	3c124756 	lui	s2,0x4756
    7654:	36522800 	ori	s2,s2,0x2800
    7658:	001fa021 	addu	s4,zero,ra
    765c:	0016f821 	addu	ra,zero,s6
    7660:	3c150000 	lui	s5,0x0
    7664:	26b57614 	addiu	s5,s5,30228
    7668:	3c0da2af 	lui	t5,0xa2af
    766c:	35adbf34 	ori	t5,t5,0xbf34
    7670:	160d0658 	bne	s0,t5,8fd4 <inst_error>
    7674:	00000000 	nop
    7678:	00000000 	nop
    767c:	3c0c4756 	lui	t4,0x4756
    7680:	358c2800 	ori	t4,t4,0x2800
    7684:	164c0653 	bne	s2,t4,8fd4 <inst_error>
    7688:	00000000 	nop
    768c:	00000000 	nop
    7690:	26b50008 	addiu	s5,s5,8
    7694:	1695064f 	bne	s4,s5,8fd4 <inst_error>
    7698:	00000000 	nop
    769c:	00000000 	nop
    76a0:	001fb021 	addu	s6,zero,ra
    76a4:	3c0c5edf 	lui	t4,0x5edf
    76a8:	358c2815 	ori	t4,t4,0x2815
    76ac:	3c0d0965 	lui	t5,0x965
    76b0:	35ad4c40 	ori	t5,t5,0x4c40
    76b4:	24100000 	li	s0,0
    76b8:	1000000d 	b	76f0 <n38_jal_test+0x76f0>
    76bc:	24120000 	li	s2,0
    76c0:	00000000 	nop
    76c4:	3c105edf 	lui	s0,0x5edf
    76c8:	36102815 	ori	s0,s0,0x2815
    76cc:	0c001dc2 	jal	7708 <n38_jal_test+0x7708>
    76d0:	00000000 	nop
    76d4:	1000000e 	b	7710 <n38_jal_test+0x7710>
    76d8:	00000000 	nop
    76dc:	00000000 	nop
    76e0:	00000021 	move	zero,zero
    76e4:	00000021 	move	zero,zero
    76e8:	00000021 	move	zero,zero
    76ec:	00000021 	move	zero,zero
    76f0:	0c001db1 	jal	76c4 <n38_jal_test+0x76c4>
    76f4:	00000000 	nop
    76f8:	10000005 	b	7710 <n38_jal_test+0x7710>
    76fc:	00000000 	nop
    7700:	00000000 	nop
    7704:	00000021 	move	zero,zero
    7708:	3c120965 	lui	s2,0x965
    770c:	36524c40 	ori	s2,s2,0x4c40
    7710:	001fa021 	addu	s4,zero,ra
    7714:	0016f821 	addu	ra,zero,s6
    7718:	3c150000 	lui	s5,0x0
    771c:	26b576cc 	addiu	s5,s5,30412
    7720:	3c0d5edf 	lui	t5,0x5edf
    7724:	35ad2815 	ori	t5,t5,0x2815
    7728:	160d062a 	bne	s0,t5,8fd4 <inst_error>
    772c:	00000000 	nop
    7730:	00000000 	nop
    7734:	3c0c0965 	lui	t4,0x965
    7738:	358c4c40 	ori	t4,t4,0x4c40
    773c:	164c0625 	bne	s2,t4,8fd4 <inst_error>
    7740:	00000000 	nop
    7744:	00000000 	nop
    7748:	26b50008 	addiu	s5,s5,8
    774c:	16950621 	bne	s4,s5,8fd4 <inst_error>
    7750:	00000000 	nop
    7754:	00000000 	nop
    7758:	001fb021 	addu	s6,zero,ra
    775c:	3c0c18fd 	lui	t4,0x18fd
    7760:	358c52d0 	ori	t4,t4,0x52d0
    7764:	3c0d83ff 	lui	t5,0x83ff
    7768:	35ad1689 	ori	t5,t5,0x1689
    776c:	24100000 	li	s0,0
    7770:	1000000d 	b	77a8 <n38_jal_test+0x77a8>
    7774:	24120000 	li	s2,0
    7778:	00000000 	nop
    777c:	3c1018fd 	lui	s0,0x18fd
    7780:	361052d0 	ori	s0,s0,0x52d0
    7784:	0c001df0 	jal	77c0 <n38_jal_test+0x77c0>
    7788:	00000000 	nop
    778c:	1000000e 	b	77c8 <n38_jal_test+0x77c8>
    7790:	00000000 	nop
    7794:	00000000 	nop
    7798:	00000021 	move	zero,zero
    779c:	00000021 	move	zero,zero
    77a0:	00000021 	move	zero,zero
    77a4:	00000021 	move	zero,zero
    77a8:	0c001ddf 	jal	777c <n38_jal_test+0x777c>
    77ac:	00000000 	nop
    77b0:	10000005 	b	77c8 <n38_jal_test+0x77c8>
    77b4:	00000000 	nop
    77b8:	00000000 	nop
    77bc:	00000021 	move	zero,zero
    77c0:	3c1283ff 	lui	s2,0x83ff
    77c4:	36521689 	ori	s2,s2,0x1689
    77c8:	001fa021 	addu	s4,zero,ra
    77cc:	0016f821 	addu	ra,zero,s6
    77d0:	3c150000 	lui	s5,0x0
    77d4:	26b57784 	addiu	s5,s5,30596
    77d8:	3c0d18fd 	lui	t5,0x18fd
    77dc:	35ad52d0 	ori	t5,t5,0x52d0
    77e0:	160d05fc 	bne	s0,t5,8fd4 <inst_error>
    77e4:	00000000 	nop
    77e8:	00000000 	nop
    77ec:	3c0c83ff 	lui	t4,0x83ff
    77f0:	358c1689 	ori	t4,t4,0x1689
    77f4:	164c05f7 	bne	s2,t4,8fd4 <inst_error>
    77f8:	00000000 	nop
    77fc:	00000000 	nop
    7800:	26b50008 	addiu	s5,s5,8
    7804:	169505f3 	bne	s4,s5,8fd4 <inst_error>
    7808:	00000000 	nop
    780c:	00000000 	nop
    7810:	001fb021 	addu	s6,zero,ra
    7814:	3c0cc186 	lui	t4,0xc186
    7818:	358c68c2 	ori	t4,t4,0x68c2
    781c:	3c0dec02 	lui	t5,0xec02
    7820:	35ad8728 	ori	t5,t5,0x8728
    7824:	24100000 	li	s0,0
    7828:	1000000d 	b	7860 <n38_jal_test+0x7860>
    782c:	24120000 	li	s2,0
    7830:	00000000 	nop
    7834:	3c10c186 	lui	s0,0xc186
    7838:	361068c2 	ori	s0,s0,0x68c2
    783c:	0c001e1e 	jal	7878 <n38_jal_test+0x7878>
    7840:	00000000 	nop
    7844:	1000000e 	b	7880 <n38_jal_test+0x7880>
    7848:	00000000 	nop
    784c:	00000000 	nop
    7850:	00000021 	move	zero,zero
    7854:	00000021 	move	zero,zero
    7858:	00000021 	move	zero,zero
    785c:	00000021 	move	zero,zero
    7860:	0c001e0d 	jal	7834 <n38_jal_test+0x7834>
    7864:	00000000 	nop
    7868:	10000005 	b	7880 <n38_jal_test+0x7880>
    786c:	00000000 	nop
    7870:	00000000 	nop
    7874:	00000021 	move	zero,zero
    7878:	3c12ec02 	lui	s2,0xec02
    787c:	36528728 	ori	s2,s2,0x8728
    7880:	001fa021 	addu	s4,zero,ra
    7884:	0016f821 	addu	ra,zero,s6
    7888:	3c150000 	lui	s5,0x0
    788c:	26b5783c 	addiu	s5,s5,30780
    7890:	3c0dc186 	lui	t5,0xc186
    7894:	35ad68c2 	ori	t5,t5,0x68c2
    7898:	160d05ce 	bne	s0,t5,8fd4 <inst_error>
    789c:	00000000 	nop
    78a0:	00000000 	nop
    78a4:	3c0cec02 	lui	t4,0xec02
    78a8:	358c8728 	ori	t4,t4,0x8728
    78ac:	164c05c9 	bne	s2,t4,8fd4 <inst_error>
    78b0:	00000000 	nop
    78b4:	00000000 	nop
    78b8:	26b50008 	addiu	s5,s5,8
    78bc:	169505c5 	bne	s4,s5,8fd4 <inst_error>
    78c0:	00000000 	nop
    78c4:	00000000 	nop
    78c8:	001fb021 	addu	s6,zero,ra
    78cc:	3c0c6cc5 	lui	t4,0x6cc5
    78d0:	358c5230 	ori	t4,t4,0x5230
    78d4:	3c0d9a0a 	lui	t5,0x9a0a
    78d8:	35adf75e 	ori	t5,t5,0xf75e
    78dc:	24100000 	li	s0,0
    78e0:	1000000d 	b	7918 <n38_jal_test+0x7918>
    78e4:	24120000 	li	s2,0
    78e8:	00000000 	nop
    78ec:	3c106cc5 	lui	s0,0x6cc5
    78f0:	36105230 	ori	s0,s0,0x5230
    78f4:	0c001e4c 	jal	7930 <n38_jal_test+0x7930>
    78f8:	00000000 	nop
    78fc:	1000000e 	b	7938 <n38_jal_test+0x7938>
    7900:	00000000 	nop
    7904:	00000000 	nop
    7908:	00000021 	move	zero,zero
    790c:	00000021 	move	zero,zero
    7910:	00000021 	move	zero,zero
    7914:	00000021 	move	zero,zero
    7918:	0c001e3b 	jal	78ec <n38_jal_test+0x78ec>
    791c:	00000000 	nop
    7920:	10000005 	b	7938 <n38_jal_test+0x7938>
    7924:	00000000 	nop
    7928:	00000000 	nop
    792c:	00000021 	move	zero,zero
    7930:	3c129a0a 	lui	s2,0x9a0a
    7934:	3652f75e 	ori	s2,s2,0xf75e
    7938:	001fa021 	addu	s4,zero,ra
    793c:	0016f821 	addu	ra,zero,s6
    7940:	3c150000 	lui	s5,0x0
    7944:	26b578f4 	addiu	s5,s5,30964
    7948:	3c0d6cc5 	lui	t5,0x6cc5
    794c:	35ad5230 	ori	t5,t5,0x5230
    7950:	160d05a0 	bne	s0,t5,8fd4 <inst_error>
    7954:	00000000 	nop
    7958:	00000000 	nop
    795c:	3c0c9a0a 	lui	t4,0x9a0a
    7960:	358cf75e 	ori	t4,t4,0xf75e
    7964:	164c059b 	bne	s2,t4,8fd4 <inst_error>
    7968:	00000000 	nop
    796c:	00000000 	nop
    7970:	26b50008 	addiu	s5,s5,8
    7974:	16950597 	bne	s4,s5,8fd4 <inst_error>
    7978:	00000000 	nop
    797c:	00000000 	nop
    7980:	001fb021 	addu	s6,zero,ra
    7984:	3c0cf5aa 	lui	t4,0xf5aa
    7988:	358cab48 	ori	t4,t4,0xab48
    798c:	3c0dd1b0 	lui	t5,0xd1b0
    7990:	35ad328c 	ori	t5,t5,0x328c
    7994:	24100000 	li	s0,0
    7998:	1000000d 	b	79d0 <n38_jal_test+0x79d0>
    799c:	24120000 	li	s2,0
    79a0:	00000000 	nop
    79a4:	3c10f5aa 	lui	s0,0xf5aa
    79a8:	3610ab48 	ori	s0,s0,0xab48
    79ac:	0c001e7a 	jal	79e8 <n38_jal_test+0x79e8>
    79b0:	00000000 	nop
    79b4:	1000000e 	b	79f0 <n38_jal_test+0x79f0>
    79b8:	00000000 	nop
    79bc:	00000000 	nop
    79c0:	00000021 	move	zero,zero
    79c4:	00000021 	move	zero,zero
    79c8:	00000021 	move	zero,zero
    79cc:	00000021 	move	zero,zero
    79d0:	0c001e69 	jal	79a4 <n38_jal_test+0x79a4>
    79d4:	00000000 	nop
    79d8:	10000005 	b	79f0 <n38_jal_test+0x79f0>
    79dc:	00000000 	nop
    79e0:	00000000 	nop
    79e4:	00000021 	move	zero,zero
    79e8:	3c12d1b0 	lui	s2,0xd1b0
    79ec:	3652328c 	ori	s2,s2,0x328c
    79f0:	001fa021 	addu	s4,zero,ra
    79f4:	0016f821 	addu	ra,zero,s6
    79f8:	3c150000 	lui	s5,0x0
    79fc:	26b579ac 	addiu	s5,s5,31148
    7a00:	3c0df5aa 	lui	t5,0xf5aa
    7a04:	35adab48 	ori	t5,t5,0xab48
    7a08:	160d0572 	bne	s0,t5,8fd4 <inst_error>
    7a0c:	00000000 	nop
    7a10:	00000000 	nop
    7a14:	3c0cd1b0 	lui	t4,0xd1b0
    7a18:	358c328c 	ori	t4,t4,0x328c
    7a1c:	164c056d 	bne	s2,t4,8fd4 <inst_error>
    7a20:	00000000 	nop
    7a24:	00000000 	nop
    7a28:	26b50008 	addiu	s5,s5,8
    7a2c:	16950569 	bne	s4,s5,8fd4 <inst_error>
    7a30:	00000000 	nop
    7a34:	00000000 	nop
    7a38:	001fb021 	addu	s6,zero,ra
    7a3c:	3c0cf3ff 	lui	t4,0xf3ff
    7a40:	358c4eac 	ori	t4,t4,0x4eac
    7a44:	3c0dce6a 	lui	t5,0xce6a
    7a48:	35adecb3 	ori	t5,t5,0xecb3
    7a4c:	24100000 	li	s0,0
    7a50:	1000000d 	b	7a88 <n38_jal_test+0x7a88>
    7a54:	24120000 	li	s2,0
    7a58:	00000000 	nop
    7a5c:	3c10f3ff 	lui	s0,0xf3ff
    7a60:	36104eac 	ori	s0,s0,0x4eac
    7a64:	0c001ea8 	jal	7aa0 <n38_jal_test+0x7aa0>
    7a68:	00000000 	nop
    7a6c:	1000000e 	b	7aa8 <n38_jal_test+0x7aa8>
    7a70:	00000000 	nop
    7a74:	00000000 	nop
    7a78:	00000021 	move	zero,zero
    7a7c:	00000021 	move	zero,zero
    7a80:	00000021 	move	zero,zero
    7a84:	00000021 	move	zero,zero
    7a88:	0c001e97 	jal	7a5c <n38_jal_test+0x7a5c>
    7a8c:	00000000 	nop
    7a90:	10000005 	b	7aa8 <n38_jal_test+0x7aa8>
    7a94:	00000000 	nop
    7a98:	00000000 	nop
    7a9c:	00000021 	move	zero,zero
    7aa0:	3c12ce6a 	lui	s2,0xce6a
    7aa4:	3652ecb3 	ori	s2,s2,0xecb3
    7aa8:	001fa021 	addu	s4,zero,ra
    7aac:	0016f821 	addu	ra,zero,s6
    7ab0:	3c150000 	lui	s5,0x0
    7ab4:	26b57a64 	addiu	s5,s5,31332
    7ab8:	3c0df3ff 	lui	t5,0xf3ff
    7abc:	35ad4eac 	ori	t5,t5,0x4eac
    7ac0:	160d0544 	bne	s0,t5,8fd4 <inst_error>
    7ac4:	00000000 	nop
    7ac8:	00000000 	nop
    7acc:	3c0cce6a 	lui	t4,0xce6a
    7ad0:	358cecb3 	ori	t4,t4,0xecb3
    7ad4:	164c053f 	bne	s2,t4,8fd4 <inst_error>
    7ad8:	00000000 	nop
    7adc:	00000000 	nop
    7ae0:	26b50008 	addiu	s5,s5,8
    7ae4:	1695053b 	bne	s4,s5,8fd4 <inst_error>
    7ae8:	00000000 	nop
    7aec:	00000000 	nop
    7af0:	001fb021 	addu	s6,zero,ra
    7af4:	3c0c0947 	lui	t4,0x947
    7af8:	358ccf11 	ori	t4,t4,0xcf11
    7afc:	3c0d2c07 	lui	t5,0x2c07
    7b00:	35adace8 	ori	t5,t5,0xace8
    7b04:	24100000 	li	s0,0
    7b08:	1000000d 	b	7b40 <n38_jal_test+0x7b40>
    7b0c:	24120000 	li	s2,0
    7b10:	00000000 	nop
    7b14:	3c100947 	lui	s0,0x947
    7b18:	3610cf11 	ori	s0,s0,0xcf11
    7b1c:	0c001ed6 	jal	7b58 <n38_jal_test+0x7b58>
    7b20:	00000000 	nop
    7b24:	1000000e 	b	7b60 <n38_jal_test+0x7b60>
    7b28:	00000000 	nop
    7b2c:	00000000 	nop
    7b30:	00000021 	move	zero,zero
    7b34:	00000021 	move	zero,zero
    7b38:	00000021 	move	zero,zero
    7b3c:	00000021 	move	zero,zero
    7b40:	0c001ec5 	jal	7b14 <n38_jal_test+0x7b14>
    7b44:	00000000 	nop
    7b48:	10000005 	b	7b60 <n38_jal_test+0x7b60>
    7b4c:	00000000 	nop
    7b50:	00000000 	nop
    7b54:	00000021 	move	zero,zero
    7b58:	3c122c07 	lui	s2,0x2c07
    7b5c:	3652ace8 	ori	s2,s2,0xace8
    7b60:	001fa021 	addu	s4,zero,ra
    7b64:	0016f821 	addu	ra,zero,s6
    7b68:	3c150000 	lui	s5,0x0
    7b6c:	26b57b1c 	addiu	s5,s5,31516
    7b70:	3c0d0947 	lui	t5,0x947
    7b74:	35adcf11 	ori	t5,t5,0xcf11
    7b78:	160d0516 	bne	s0,t5,8fd4 <inst_error>
    7b7c:	00000000 	nop
    7b80:	00000000 	nop
    7b84:	3c0c2c07 	lui	t4,0x2c07
    7b88:	358cace8 	ori	t4,t4,0xace8
    7b8c:	164c0511 	bne	s2,t4,8fd4 <inst_error>
    7b90:	00000000 	nop
    7b94:	00000000 	nop
    7b98:	26b50008 	addiu	s5,s5,8
    7b9c:	1695050d 	bne	s4,s5,8fd4 <inst_error>
    7ba0:	00000000 	nop
    7ba4:	00000000 	nop
    7ba8:	001fb021 	addu	s6,zero,ra
    7bac:	3c0c5eae 	lui	t4,0x5eae
    7bb0:	358cc54e 	ori	t4,t4,0xc54e
    7bb4:	3c0d94d5 	lui	t5,0x94d5
    7bb8:	35ad12f8 	ori	t5,t5,0x12f8
    7bbc:	24100000 	li	s0,0
    7bc0:	1000000d 	b	7bf8 <n38_jal_test+0x7bf8>
    7bc4:	24120000 	li	s2,0
    7bc8:	00000000 	nop
    7bcc:	3c105eae 	lui	s0,0x5eae
    7bd0:	3610c54e 	ori	s0,s0,0xc54e
    7bd4:	0c001f04 	jal	7c10 <n38_jal_test+0x7c10>
    7bd8:	00000000 	nop
    7bdc:	1000000e 	b	7c18 <n38_jal_test+0x7c18>
    7be0:	00000000 	nop
    7be4:	00000000 	nop
    7be8:	00000021 	move	zero,zero
    7bec:	00000021 	move	zero,zero
    7bf0:	00000021 	move	zero,zero
    7bf4:	00000021 	move	zero,zero
    7bf8:	0c001ef3 	jal	7bcc <n38_jal_test+0x7bcc>
    7bfc:	00000000 	nop
    7c00:	10000005 	b	7c18 <n38_jal_test+0x7c18>
    7c04:	00000000 	nop
    7c08:	00000000 	nop
    7c0c:	00000021 	move	zero,zero
    7c10:	3c1294d5 	lui	s2,0x94d5
    7c14:	365212f8 	ori	s2,s2,0x12f8
    7c18:	001fa021 	addu	s4,zero,ra
    7c1c:	0016f821 	addu	ra,zero,s6
    7c20:	3c150000 	lui	s5,0x0
    7c24:	26b57bd4 	addiu	s5,s5,31700
    7c28:	3c0d5eae 	lui	t5,0x5eae
    7c2c:	35adc54e 	ori	t5,t5,0xc54e
    7c30:	160d04e8 	bne	s0,t5,8fd4 <inst_error>
    7c34:	00000000 	nop
    7c38:	00000000 	nop
    7c3c:	3c0c94d5 	lui	t4,0x94d5
    7c40:	358c12f8 	ori	t4,t4,0x12f8
    7c44:	164c04e3 	bne	s2,t4,8fd4 <inst_error>
    7c48:	00000000 	nop
    7c4c:	00000000 	nop
    7c50:	26b50008 	addiu	s5,s5,8
    7c54:	169504df 	bne	s4,s5,8fd4 <inst_error>
    7c58:	00000000 	nop
    7c5c:	00000000 	nop
    7c60:	001fb021 	addu	s6,zero,ra
    7c64:	3c0ca07b 	lui	t4,0xa07b
    7c68:	358c8e00 	ori	t4,t4,0x8e00
    7c6c:	3c0dddfd 	lui	t5,0xddfd
    7c70:	35adbc60 	ori	t5,t5,0xbc60
    7c74:	24100000 	li	s0,0
    7c78:	1000000d 	b	7cb0 <n38_jal_test+0x7cb0>
    7c7c:	24120000 	li	s2,0
    7c80:	00000000 	nop
    7c84:	3c10a07b 	lui	s0,0xa07b
    7c88:	36108e00 	ori	s0,s0,0x8e00
    7c8c:	0c001f32 	jal	7cc8 <n38_jal_test+0x7cc8>
    7c90:	00000000 	nop
    7c94:	1000000e 	b	7cd0 <n38_jal_test+0x7cd0>
    7c98:	00000000 	nop
    7c9c:	00000000 	nop
    7ca0:	00000021 	move	zero,zero
    7ca4:	00000021 	move	zero,zero
    7ca8:	00000021 	move	zero,zero
    7cac:	00000021 	move	zero,zero
    7cb0:	0c001f21 	jal	7c84 <n38_jal_test+0x7c84>
    7cb4:	00000000 	nop
    7cb8:	10000005 	b	7cd0 <n38_jal_test+0x7cd0>
    7cbc:	00000000 	nop
    7cc0:	00000000 	nop
    7cc4:	00000021 	move	zero,zero
    7cc8:	3c12ddfd 	lui	s2,0xddfd
    7ccc:	3652bc60 	ori	s2,s2,0xbc60
    7cd0:	001fa021 	addu	s4,zero,ra
    7cd4:	0016f821 	addu	ra,zero,s6
    7cd8:	3c150000 	lui	s5,0x0
    7cdc:	26b57c8c 	addiu	s5,s5,31884
    7ce0:	3c0da07b 	lui	t5,0xa07b
    7ce4:	35ad8e00 	ori	t5,t5,0x8e00
    7ce8:	160d04ba 	bne	s0,t5,8fd4 <inst_error>
    7cec:	00000000 	nop
    7cf0:	00000000 	nop
    7cf4:	3c0cddfd 	lui	t4,0xddfd
    7cf8:	358cbc60 	ori	t4,t4,0xbc60
    7cfc:	164c04b5 	bne	s2,t4,8fd4 <inst_error>
    7d00:	00000000 	nop
    7d04:	00000000 	nop
    7d08:	26b50008 	addiu	s5,s5,8
    7d0c:	169504b1 	bne	s4,s5,8fd4 <inst_error>
    7d10:	00000000 	nop
    7d14:	00000000 	nop
    7d18:	001fb021 	addu	s6,zero,ra
    7d1c:	3c0ccf09 	lui	t4,0xcf09
    7d20:	358cfb60 	ori	t4,t4,0xfb60
    7d24:	3c0d2329 	lui	t5,0x2329
    7d28:	35ad6371 	ori	t5,t5,0x6371
    7d2c:	24100000 	li	s0,0
    7d30:	1000000d 	b	7d68 <n38_jal_test+0x7d68>
    7d34:	24120000 	li	s2,0
    7d38:	00000000 	nop
    7d3c:	3c10cf09 	lui	s0,0xcf09
    7d40:	3610fb60 	ori	s0,s0,0xfb60
    7d44:	0c001f60 	jal	7d80 <n38_jal_test+0x7d80>
    7d48:	00000000 	nop
    7d4c:	1000000e 	b	7d88 <n38_jal_test+0x7d88>
    7d50:	00000000 	nop
    7d54:	00000000 	nop
    7d58:	00000021 	move	zero,zero
    7d5c:	00000021 	move	zero,zero
    7d60:	00000021 	move	zero,zero
    7d64:	00000021 	move	zero,zero
    7d68:	0c001f4f 	jal	7d3c <n38_jal_test+0x7d3c>
    7d6c:	00000000 	nop
    7d70:	10000005 	b	7d88 <n38_jal_test+0x7d88>
    7d74:	00000000 	nop
    7d78:	00000000 	nop
    7d7c:	00000021 	move	zero,zero
    7d80:	3c122329 	lui	s2,0x2329
    7d84:	36526371 	ori	s2,s2,0x6371
    7d88:	001fa021 	addu	s4,zero,ra
    7d8c:	0016f821 	addu	ra,zero,s6
    7d90:	3c150000 	lui	s5,0x0
    7d94:	26b57d44 	addiu	s5,s5,32068
    7d98:	3c0dcf09 	lui	t5,0xcf09
    7d9c:	35adfb60 	ori	t5,t5,0xfb60
    7da0:	160d048c 	bne	s0,t5,8fd4 <inst_error>
    7da4:	00000000 	nop
    7da8:	00000000 	nop
    7dac:	3c0c2329 	lui	t4,0x2329
    7db0:	358c6371 	ori	t4,t4,0x6371
    7db4:	164c0487 	bne	s2,t4,8fd4 <inst_error>
    7db8:	00000000 	nop
    7dbc:	00000000 	nop
    7dc0:	26b50008 	addiu	s5,s5,8
    7dc4:	16950483 	bne	s4,s5,8fd4 <inst_error>
    7dc8:	00000000 	nop
    7dcc:	00000000 	nop
    7dd0:	001fb021 	addu	s6,zero,ra
    7dd4:	3c0c00cd 	lui	t4,0xcd
    7dd8:	358ca400 	ori	t4,t4,0xa400
    7ddc:	3c0d5266 	lui	t5,0x5266
    7de0:	35ad32b0 	ori	t5,t5,0x32b0
    7de4:	24100000 	li	s0,0
    7de8:	1000000d 	b	7e20 <n38_jal_test+0x7e20>
    7dec:	24120000 	li	s2,0
    7df0:	00000000 	nop
    7df4:	3c1000cd 	lui	s0,0xcd
    7df8:	3610a400 	ori	s0,s0,0xa400
    7dfc:	0c001f8e 	jal	7e38 <n38_jal_test+0x7e38>
    7e00:	00000000 	nop
    7e04:	1000000e 	b	7e40 <n38_jal_test+0x7e40>
    7e08:	00000000 	nop
    7e0c:	00000000 	nop
    7e10:	00000021 	move	zero,zero
    7e14:	00000021 	move	zero,zero
    7e18:	00000021 	move	zero,zero
    7e1c:	00000021 	move	zero,zero
    7e20:	0c001f7d 	jal	7df4 <n38_jal_test+0x7df4>
    7e24:	00000000 	nop
    7e28:	10000005 	b	7e40 <n38_jal_test+0x7e40>
    7e2c:	00000000 	nop
    7e30:	00000000 	nop
    7e34:	00000021 	move	zero,zero
    7e38:	3c125266 	lui	s2,0x5266
    7e3c:	365232b0 	ori	s2,s2,0x32b0
    7e40:	001fa021 	addu	s4,zero,ra
    7e44:	0016f821 	addu	ra,zero,s6
    7e48:	3c150000 	lui	s5,0x0
    7e4c:	26b57dfc 	addiu	s5,s5,32252
    7e50:	3c0d00cd 	lui	t5,0xcd
    7e54:	35ada400 	ori	t5,t5,0xa400
    7e58:	160d045e 	bne	s0,t5,8fd4 <inst_error>
    7e5c:	00000000 	nop
    7e60:	00000000 	nop
    7e64:	3c0c5266 	lui	t4,0x5266
    7e68:	358c32b0 	ori	t4,t4,0x32b0
    7e6c:	164c0459 	bne	s2,t4,8fd4 <inst_error>
    7e70:	00000000 	nop
    7e74:	00000000 	nop
    7e78:	26b50008 	addiu	s5,s5,8
    7e7c:	16950455 	bne	s4,s5,8fd4 <inst_error>
    7e80:	00000000 	nop
    7e84:	00000000 	nop
    7e88:	001fb021 	addu	s6,zero,ra
    7e8c:	3c0cf236 	lui	t4,0xf236
    7e90:	358c7e0c 	ori	t4,t4,0x7e0c
    7e94:	3c0ddb21 	lui	t5,0xdb21
    7e98:	35ad54f8 	ori	t5,t5,0x54f8
    7e9c:	24100000 	li	s0,0
    7ea0:	1000000d 	b	7ed8 <n38_jal_test+0x7ed8>
    7ea4:	24120000 	li	s2,0
    7ea8:	00000000 	nop
    7eac:	3c10f236 	lui	s0,0xf236
    7eb0:	36107e0c 	ori	s0,s0,0x7e0c
    7eb4:	0c001fbc 	jal	7ef0 <n38_jal_test+0x7ef0>
    7eb8:	00000000 	nop
    7ebc:	1000000e 	b	7ef8 <n38_jal_test+0x7ef8>
    7ec0:	00000000 	nop
    7ec4:	00000000 	nop
    7ec8:	00000021 	move	zero,zero
    7ecc:	00000021 	move	zero,zero
    7ed0:	00000021 	move	zero,zero
    7ed4:	00000021 	move	zero,zero
    7ed8:	0c001fab 	jal	7eac <n38_jal_test+0x7eac>
    7edc:	00000000 	nop
    7ee0:	10000005 	b	7ef8 <n38_jal_test+0x7ef8>
    7ee4:	00000000 	nop
    7ee8:	00000000 	nop
    7eec:	00000021 	move	zero,zero
    7ef0:	3c12db21 	lui	s2,0xdb21
    7ef4:	365254f8 	ori	s2,s2,0x54f8
    7ef8:	001fa021 	addu	s4,zero,ra
    7efc:	0016f821 	addu	ra,zero,s6
    7f00:	3c150000 	lui	s5,0x0
    7f04:	26b57eb4 	addiu	s5,s5,32436
    7f08:	3c0df236 	lui	t5,0xf236
    7f0c:	35ad7e0c 	ori	t5,t5,0x7e0c
    7f10:	160d0430 	bne	s0,t5,8fd4 <inst_error>
    7f14:	00000000 	nop
    7f18:	00000000 	nop
    7f1c:	3c0cdb21 	lui	t4,0xdb21
    7f20:	358c54f8 	ori	t4,t4,0x54f8
    7f24:	164c042b 	bne	s2,t4,8fd4 <inst_error>
    7f28:	00000000 	nop
    7f2c:	00000000 	nop
    7f30:	26b50008 	addiu	s5,s5,8
    7f34:	16950427 	bne	s4,s5,8fd4 <inst_error>
    7f38:	00000000 	nop
    7f3c:	00000000 	nop
    7f40:	001fb021 	addu	s6,zero,ra
    7f44:	3c0c5b73 	lui	t4,0x5b73
    7f48:	358cdb50 	ori	t4,t4,0xdb50
    7f4c:	3c0d23c5 	lui	t5,0x23c5
    7f50:	35ad5346 	ori	t5,t5,0x5346
    7f54:	24100000 	li	s0,0
    7f58:	1000000d 	b	7f90 <n38_jal_test+0x7f90>
    7f5c:	24120000 	li	s2,0
    7f60:	00000000 	nop
    7f64:	3c105b73 	lui	s0,0x5b73
    7f68:	3610db50 	ori	s0,s0,0xdb50
    7f6c:	0c001fea 	jal	7fa8 <n38_jal_test+0x7fa8>
    7f70:	00000000 	nop
    7f74:	1000000e 	b	7fb0 <n38_jal_test+0x7fb0>
    7f78:	00000000 	nop
    7f7c:	00000000 	nop
    7f80:	00000021 	move	zero,zero
    7f84:	00000021 	move	zero,zero
    7f88:	00000021 	move	zero,zero
    7f8c:	00000021 	move	zero,zero
    7f90:	0c001fd9 	jal	7f64 <n38_jal_test+0x7f64>
    7f94:	00000000 	nop
    7f98:	10000005 	b	7fb0 <n38_jal_test+0x7fb0>
    7f9c:	00000000 	nop
    7fa0:	00000000 	nop
    7fa4:	00000021 	move	zero,zero
    7fa8:	3c1223c5 	lui	s2,0x23c5
    7fac:	36525346 	ori	s2,s2,0x5346
    7fb0:	001fa021 	addu	s4,zero,ra
    7fb4:	0016f821 	addu	ra,zero,s6
    7fb8:	3c150000 	lui	s5,0x0
    7fbc:	26b57f6c 	addiu	s5,s5,32620
    7fc0:	3c0d5b73 	lui	t5,0x5b73
    7fc4:	35addb50 	ori	t5,t5,0xdb50
    7fc8:	160d0402 	bne	s0,t5,8fd4 <inst_error>
    7fcc:	00000000 	nop
    7fd0:	00000000 	nop
    7fd4:	3c0c23c5 	lui	t4,0x23c5
    7fd8:	358c5346 	ori	t4,t4,0x5346
    7fdc:	164c03fd 	bne	s2,t4,8fd4 <inst_error>
    7fe0:	00000000 	nop
    7fe4:	00000000 	nop
    7fe8:	26b50008 	addiu	s5,s5,8
    7fec:	169503f9 	bne	s4,s5,8fd4 <inst_error>
    7ff0:	00000000 	nop
    7ff4:	00000000 	nop
    7ff8:	001fb021 	addu	s6,zero,ra
    7ffc:	3c0c9939 	lui	t4,0x9939
    8000:	358c3820 	ori	t4,t4,0x3820
    8004:	3c0db347 	lui	t5,0xb347
    8008:	35ad2a6c 	ori	t5,t5,0x2a6c
    800c:	24100000 	li	s0,0
    8010:	1000000d 	b	8048 <n38_jal_test+0x8048>
    8014:	24120000 	li	s2,0
    8018:	00000000 	nop
    801c:	3c109939 	lui	s0,0x9939
    8020:	36103820 	ori	s0,s0,0x3820
    8024:	0c002018 	jal	8060 <n38_jal_test+0x8060>
    8028:	00000000 	nop
    802c:	1000000e 	b	8068 <n38_jal_test+0x8068>
    8030:	00000000 	nop
    8034:	00000000 	nop
    8038:	00000021 	move	zero,zero
    803c:	00000021 	move	zero,zero
    8040:	00000021 	move	zero,zero
    8044:	00000021 	move	zero,zero
    8048:	0c002007 	jal	801c <n38_jal_test+0x801c>
    804c:	00000000 	nop
    8050:	10000005 	b	8068 <n38_jal_test+0x8068>
    8054:	00000000 	nop
    8058:	00000000 	nop
    805c:	00000021 	move	zero,zero
    8060:	3c12b347 	lui	s2,0xb347
    8064:	36522a6c 	ori	s2,s2,0x2a6c
    8068:	001fa021 	addu	s4,zero,ra
    806c:	0016f821 	addu	ra,zero,s6
    8070:	3c150001 	lui	s5,0x1
    8074:	26b58024 	addiu	s5,s5,-32732
    8078:	3c0d9939 	lui	t5,0x9939
    807c:	35ad3820 	ori	t5,t5,0x3820
    8080:	160d03d4 	bne	s0,t5,8fd4 <inst_error>
    8084:	00000000 	nop
    8088:	00000000 	nop
    808c:	3c0cb347 	lui	t4,0xb347
    8090:	358c2a6c 	ori	t4,t4,0x2a6c
    8094:	164c03cf 	bne	s2,t4,8fd4 <inst_error>
    8098:	00000000 	nop
    809c:	00000000 	nop
    80a0:	26b50008 	addiu	s5,s5,8
    80a4:	169503cb 	bne	s4,s5,8fd4 <inst_error>
    80a8:	00000000 	nop
    80ac:	00000000 	nop
    80b0:	001fb021 	addu	s6,zero,ra
    80b4:	3c0cca33 	lui	t4,0xca33
    80b8:	358cc824 	ori	t4,t4,0xc824
    80bc:	3c0d3865 	lui	t5,0x3865
    80c0:	35ad9bc8 	ori	t5,t5,0x9bc8
    80c4:	24100000 	li	s0,0
    80c8:	1000000d 	b	8100 <n38_jal_test+0x8100>
    80cc:	24120000 	li	s2,0
    80d0:	00000000 	nop
    80d4:	3c10ca33 	lui	s0,0xca33
    80d8:	3610c824 	ori	s0,s0,0xc824
    80dc:	0c002046 	jal	8118 <n38_jal_test+0x8118>
    80e0:	00000000 	nop
    80e4:	1000000e 	b	8120 <n38_jal_test+0x8120>
    80e8:	00000000 	nop
    80ec:	00000000 	nop
    80f0:	00000021 	move	zero,zero
    80f4:	00000021 	move	zero,zero
    80f8:	00000021 	move	zero,zero
    80fc:	00000021 	move	zero,zero
    8100:	0c002035 	jal	80d4 <n38_jal_test+0x80d4>
    8104:	00000000 	nop
    8108:	10000005 	b	8120 <n38_jal_test+0x8120>
    810c:	00000000 	nop
    8110:	00000000 	nop
    8114:	00000021 	move	zero,zero
    8118:	3c123865 	lui	s2,0x3865
    811c:	36529bc8 	ori	s2,s2,0x9bc8
    8120:	001fa021 	addu	s4,zero,ra
    8124:	0016f821 	addu	ra,zero,s6
    8128:	3c150001 	lui	s5,0x1
    812c:	26b580dc 	addiu	s5,s5,-32548
    8130:	3c0dca33 	lui	t5,0xca33
    8134:	35adc824 	ori	t5,t5,0xc824
    8138:	160d03a6 	bne	s0,t5,8fd4 <inst_error>
    813c:	00000000 	nop
    8140:	00000000 	nop
    8144:	3c0c3865 	lui	t4,0x3865
    8148:	358c9bc8 	ori	t4,t4,0x9bc8
    814c:	164c03a1 	bne	s2,t4,8fd4 <inst_error>
    8150:	00000000 	nop
    8154:	00000000 	nop
    8158:	26b50008 	addiu	s5,s5,8
    815c:	1695039d 	bne	s4,s5,8fd4 <inst_error>
    8160:	00000000 	nop
    8164:	00000000 	nop
    8168:	001fb021 	addu	s6,zero,ra
    816c:	3c0c3d8d 	lui	t4,0x3d8d
    8170:	358c2c44 	ori	t4,t4,0x2c44
    8174:	3c0de659 	lui	t5,0xe659
    8178:	35ad5cd2 	ori	t5,t5,0x5cd2
    817c:	24100000 	li	s0,0
    8180:	1000000d 	b	81b8 <n38_jal_test+0x81b8>
    8184:	24120000 	li	s2,0
    8188:	00000000 	nop
    818c:	3c103d8d 	lui	s0,0x3d8d
    8190:	36102c44 	ori	s0,s0,0x2c44
    8194:	0c002074 	jal	81d0 <n38_jal_test+0x81d0>
    8198:	00000000 	nop
    819c:	1000000e 	b	81d8 <n38_jal_test+0x81d8>
    81a0:	00000000 	nop
    81a4:	00000000 	nop
    81a8:	00000021 	move	zero,zero
    81ac:	00000021 	move	zero,zero
    81b0:	00000021 	move	zero,zero
    81b4:	00000021 	move	zero,zero
    81b8:	0c002063 	jal	818c <n38_jal_test+0x818c>
    81bc:	00000000 	nop
    81c0:	10000005 	b	81d8 <n38_jal_test+0x81d8>
    81c4:	00000000 	nop
    81c8:	00000000 	nop
    81cc:	00000021 	move	zero,zero
    81d0:	3c12e659 	lui	s2,0xe659
    81d4:	36525cd2 	ori	s2,s2,0x5cd2
    81d8:	001fa021 	addu	s4,zero,ra
    81dc:	0016f821 	addu	ra,zero,s6
    81e0:	3c150001 	lui	s5,0x1
    81e4:	26b58194 	addiu	s5,s5,-32364
    81e8:	3c0d3d8d 	lui	t5,0x3d8d
    81ec:	35ad2c44 	ori	t5,t5,0x2c44
    81f0:	160d0378 	bne	s0,t5,8fd4 <inst_error>
    81f4:	00000000 	nop
    81f8:	00000000 	nop
    81fc:	3c0ce659 	lui	t4,0xe659
    8200:	358c5cd2 	ori	t4,t4,0x5cd2
    8204:	164c0373 	bne	s2,t4,8fd4 <inst_error>
    8208:	00000000 	nop
    820c:	00000000 	nop
    8210:	26b50008 	addiu	s5,s5,8
    8214:	1695036f 	bne	s4,s5,8fd4 <inst_error>
    8218:	00000000 	nop
    821c:	00000000 	nop
    8220:	001fb021 	addu	s6,zero,ra
    8224:	3c0c9db7 	lui	t4,0x9db7
    8228:	358c39aa 	ori	t4,t4,0x39aa
    822c:	3c0d940d 	lui	t5,0x940d
    8230:	35ad49fe 	ori	t5,t5,0x49fe
    8234:	24100000 	li	s0,0
    8238:	1000000d 	b	8270 <n38_jal_test+0x8270>
    823c:	24120000 	li	s2,0
    8240:	00000000 	nop
    8244:	3c109db7 	lui	s0,0x9db7
    8248:	361039aa 	ori	s0,s0,0x39aa
    824c:	0c0020a2 	jal	8288 <n38_jal_test+0x8288>
    8250:	00000000 	nop
    8254:	1000000e 	b	8290 <n38_jal_test+0x8290>
    8258:	00000000 	nop
    825c:	00000000 	nop
    8260:	00000021 	move	zero,zero
    8264:	00000021 	move	zero,zero
    8268:	00000021 	move	zero,zero
    826c:	00000021 	move	zero,zero
    8270:	0c002091 	jal	8244 <n38_jal_test+0x8244>
    8274:	00000000 	nop
    8278:	10000005 	b	8290 <n38_jal_test+0x8290>
    827c:	00000000 	nop
    8280:	00000000 	nop
    8284:	00000021 	move	zero,zero
    8288:	3c12940d 	lui	s2,0x940d
    828c:	365249fe 	ori	s2,s2,0x49fe
    8290:	001fa021 	addu	s4,zero,ra
    8294:	0016f821 	addu	ra,zero,s6
    8298:	3c150001 	lui	s5,0x1
    829c:	26b5824c 	addiu	s5,s5,-32180
    82a0:	3c0d9db7 	lui	t5,0x9db7
    82a4:	35ad39aa 	ori	t5,t5,0x39aa
    82a8:	160d034a 	bne	s0,t5,8fd4 <inst_error>
    82ac:	00000000 	nop
    82b0:	00000000 	nop
    82b4:	3c0c940d 	lui	t4,0x940d
    82b8:	358c49fe 	ori	t4,t4,0x49fe
    82bc:	164c0345 	bne	s2,t4,8fd4 <inst_error>
    82c0:	00000000 	nop
    82c4:	00000000 	nop
    82c8:	26b50008 	addiu	s5,s5,8
    82cc:	16950341 	bne	s4,s5,8fd4 <inst_error>
    82d0:	00000000 	nop
    82d4:	00000000 	nop
    82d8:	001fb021 	addu	s6,zero,ra
    82dc:	3c0c34af 	lui	t4,0x34af
    82e0:	358c7570 	ori	t4,t4,0x7570
    82e4:	3c0d30a1 	lui	t5,0x30a1
    82e8:	35adf5c4 	ori	t5,t5,0xf5c4
    82ec:	24100000 	li	s0,0
    82f0:	1000000d 	b	8328 <n38_jal_test+0x8328>
    82f4:	24120000 	li	s2,0
    82f8:	00000000 	nop
    82fc:	3c1034af 	lui	s0,0x34af
    8300:	36107570 	ori	s0,s0,0x7570
    8304:	0c0020d0 	jal	8340 <n38_jal_test+0x8340>
    8308:	00000000 	nop
    830c:	1000000e 	b	8348 <n38_jal_test+0x8348>
    8310:	00000000 	nop
    8314:	00000000 	nop
    8318:	00000021 	move	zero,zero
    831c:	00000021 	move	zero,zero
    8320:	00000021 	move	zero,zero
    8324:	00000021 	move	zero,zero
    8328:	0c0020bf 	jal	82fc <n38_jal_test+0x82fc>
    832c:	00000000 	nop
    8330:	10000005 	b	8348 <n38_jal_test+0x8348>
    8334:	00000000 	nop
    8338:	00000000 	nop
    833c:	00000021 	move	zero,zero
    8340:	3c1230a1 	lui	s2,0x30a1
    8344:	3652f5c4 	ori	s2,s2,0xf5c4
    8348:	001fa021 	addu	s4,zero,ra
    834c:	0016f821 	addu	ra,zero,s6
    8350:	3c150001 	lui	s5,0x1
    8354:	26b58304 	addiu	s5,s5,-31996
    8358:	3c0d34af 	lui	t5,0x34af
    835c:	35ad7570 	ori	t5,t5,0x7570
    8360:	160d031c 	bne	s0,t5,8fd4 <inst_error>
    8364:	00000000 	nop
    8368:	00000000 	nop
    836c:	3c0c30a1 	lui	t4,0x30a1
    8370:	358cf5c4 	ori	t4,t4,0xf5c4
    8374:	164c0317 	bne	s2,t4,8fd4 <inst_error>
    8378:	00000000 	nop
    837c:	00000000 	nop
    8380:	26b50008 	addiu	s5,s5,8
    8384:	16950313 	bne	s4,s5,8fd4 <inst_error>
    8388:	00000000 	nop
    838c:	00000000 	nop
    8390:	001fb021 	addu	s6,zero,ra
    8394:	3c0c2d1b 	lui	t4,0x2d1b
    8398:	358c57d7 	ori	t4,t4,0x57d7
    839c:	3c0d559e 	lui	t5,0x559e
    83a0:	35ad4a76 	ori	t5,t5,0x4a76
    83a4:	24100000 	li	s0,0
    83a8:	1000000d 	b	83e0 <n38_jal_test+0x83e0>
    83ac:	24120000 	li	s2,0
    83b0:	00000000 	nop
    83b4:	3c102d1b 	lui	s0,0x2d1b
    83b8:	361057d7 	ori	s0,s0,0x57d7
    83bc:	0c0020fe 	jal	83f8 <n38_jal_test+0x83f8>
    83c0:	00000000 	nop
    83c4:	1000000e 	b	8400 <n38_jal_test+0x8400>
    83c8:	00000000 	nop
    83cc:	00000000 	nop
    83d0:	00000021 	move	zero,zero
    83d4:	00000021 	move	zero,zero
    83d8:	00000021 	move	zero,zero
    83dc:	00000021 	move	zero,zero
    83e0:	0c0020ed 	jal	83b4 <n38_jal_test+0x83b4>
    83e4:	00000000 	nop
    83e8:	10000005 	b	8400 <n38_jal_test+0x8400>
    83ec:	00000000 	nop
    83f0:	00000000 	nop
    83f4:	00000021 	move	zero,zero
    83f8:	3c12559e 	lui	s2,0x559e
    83fc:	36524a76 	ori	s2,s2,0x4a76
    8400:	001fa021 	addu	s4,zero,ra
    8404:	0016f821 	addu	ra,zero,s6
    8408:	3c150001 	lui	s5,0x1
    840c:	26b583bc 	addiu	s5,s5,-31812
    8410:	3c0d2d1b 	lui	t5,0x2d1b
    8414:	35ad57d7 	ori	t5,t5,0x57d7
    8418:	160d02ee 	bne	s0,t5,8fd4 <inst_error>
    841c:	00000000 	nop
    8420:	00000000 	nop
    8424:	3c0c559e 	lui	t4,0x559e
    8428:	358c4a76 	ori	t4,t4,0x4a76
    842c:	164c02e9 	bne	s2,t4,8fd4 <inst_error>
    8430:	00000000 	nop
    8434:	00000000 	nop
    8438:	26b50008 	addiu	s5,s5,8
    843c:	169502e5 	bne	s4,s5,8fd4 <inst_error>
    8440:	00000000 	nop
    8444:	00000000 	nop
    8448:	001fb021 	addu	s6,zero,ra
    844c:	3c0ca424 	lui	t4,0xa424
    8450:	358cd030 	ori	t4,t4,0xd030
    8454:	3c0d4a02 	lui	t5,0x4a02
    8458:	35ad9754 	ori	t5,t5,0x9754
    845c:	24100000 	li	s0,0
    8460:	1000000d 	b	8498 <n38_jal_test+0x8498>
    8464:	24120000 	li	s2,0
    8468:	00000000 	nop
    846c:	3c10a424 	lui	s0,0xa424
    8470:	3610d030 	ori	s0,s0,0xd030
    8474:	0c00212c 	jal	84b0 <n38_jal_test+0x84b0>
    8478:	00000000 	nop
    847c:	1000000e 	b	84b8 <n38_jal_test+0x84b8>
    8480:	00000000 	nop
    8484:	00000000 	nop
    8488:	00000021 	move	zero,zero
    848c:	00000021 	move	zero,zero
    8490:	00000021 	move	zero,zero
    8494:	00000021 	move	zero,zero
    8498:	0c00211b 	jal	846c <n38_jal_test+0x846c>
    849c:	00000000 	nop
    84a0:	10000005 	b	84b8 <n38_jal_test+0x84b8>
    84a4:	00000000 	nop
    84a8:	00000000 	nop
    84ac:	00000021 	move	zero,zero
    84b0:	3c124a02 	lui	s2,0x4a02
    84b4:	36529754 	ori	s2,s2,0x9754
    84b8:	001fa021 	addu	s4,zero,ra
    84bc:	0016f821 	addu	ra,zero,s6
    84c0:	3c150001 	lui	s5,0x1
    84c4:	26b58474 	addiu	s5,s5,-31628
    84c8:	3c0da424 	lui	t5,0xa424
    84cc:	35add030 	ori	t5,t5,0xd030
    84d0:	160d02c0 	bne	s0,t5,8fd4 <inst_error>
    84d4:	00000000 	nop
    84d8:	00000000 	nop
    84dc:	3c0c4a02 	lui	t4,0x4a02
    84e0:	358c9754 	ori	t4,t4,0x9754
    84e4:	164c02bb 	bne	s2,t4,8fd4 <inst_error>
    84e8:	00000000 	nop
    84ec:	00000000 	nop
    84f0:	26b50008 	addiu	s5,s5,8
    84f4:	169502b7 	bne	s4,s5,8fd4 <inst_error>
    84f8:	00000000 	nop
    84fc:	00000000 	nop
    8500:	001fb021 	addu	s6,zero,ra
    8504:	3c0cf5f1 	lui	t4,0xf5f1
    8508:	358cfea0 	ori	t4,t4,0xfea0
    850c:	3c0d17c2 	lui	t5,0x17c2
    8510:	35ad2c9e 	ori	t5,t5,0x2c9e
    8514:	24100000 	li	s0,0
    8518:	1000000d 	b	8550 <n38_jal_test+0x8550>
    851c:	24120000 	li	s2,0
    8520:	00000000 	nop
    8524:	3c10f5f1 	lui	s0,0xf5f1
    8528:	3610fea0 	ori	s0,s0,0xfea0
    852c:	0c00215a 	jal	8568 <n38_jal_test+0x8568>
    8530:	00000000 	nop
    8534:	1000000e 	b	8570 <n38_jal_test+0x8570>
    8538:	00000000 	nop
    853c:	00000000 	nop
    8540:	00000021 	move	zero,zero
    8544:	00000021 	move	zero,zero
    8548:	00000021 	move	zero,zero
    854c:	00000021 	move	zero,zero
    8550:	0c002149 	jal	8524 <n38_jal_test+0x8524>
    8554:	00000000 	nop
    8558:	10000005 	b	8570 <n38_jal_test+0x8570>
    855c:	00000000 	nop
    8560:	00000000 	nop
    8564:	00000021 	move	zero,zero
    8568:	3c1217c2 	lui	s2,0x17c2
    856c:	36522c9e 	ori	s2,s2,0x2c9e
    8570:	001fa021 	addu	s4,zero,ra
    8574:	0016f821 	addu	ra,zero,s6
    8578:	3c150001 	lui	s5,0x1
    857c:	26b5852c 	addiu	s5,s5,-31444
    8580:	3c0df5f1 	lui	t5,0xf5f1
    8584:	35adfea0 	ori	t5,t5,0xfea0
    8588:	160d0292 	bne	s0,t5,8fd4 <inst_error>
    858c:	00000000 	nop
    8590:	00000000 	nop
    8594:	3c0c17c2 	lui	t4,0x17c2
    8598:	358c2c9e 	ori	t4,t4,0x2c9e
    859c:	164c028d 	bne	s2,t4,8fd4 <inst_error>
    85a0:	00000000 	nop
    85a4:	00000000 	nop
    85a8:	26b50008 	addiu	s5,s5,8
    85ac:	16950289 	bne	s4,s5,8fd4 <inst_error>
    85b0:	00000000 	nop
    85b4:	00000000 	nop
    85b8:	001fb021 	addu	s6,zero,ra
    85bc:	3c0cc2e2 	lui	t4,0xc2e2
    85c0:	358c6918 	ori	t4,t4,0x6918
    85c4:	3c0d555e 	lui	t5,0x555e
    85c8:	35ad1066 	ori	t5,t5,0x1066
    85cc:	24100000 	li	s0,0
    85d0:	1000000d 	b	8608 <n38_jal_test+0x8608>
    85d4:	24120000 	li	s2,0
    85d8:	00000000 	nop
    85dc:	3c10c2e2 	lui	s0,0xc2e2
    85e0:	36106918 	ori	s0,s0,0x6918
    85e4:	0c002188 	jal	8620 <n38_jal_test+0x8620>
    85e8:	00000000 	nop
    85ec:	1000000e 	b	8628 <n38_jal_test+0x8628>
    85f0:	00000000 	nop
    85f4:	00000000 	nop
    85f8:	00000021 	move	zero,zero
    85fc:	00000021 	move	zero,zero
    8600:	00000021 	move	zero,zero
    8604:	00000021 	move	zero,zero
    8608:	0c002177 	jal	85dc <n38_jal_test+0x85dc>
    860c:	00000000 	nop
    8610:	10000005 	b	8628 <n38_jal_test+0x8628>
    8614:	00000000 	nop
    8618:	00000000 	nop
    861c:	00000021 	move	zero,zero
    8620:	3c12555e 	lui	s2,0x555e
    8624:	36521066 	ori	s2,s2,0x1066
    8628:	001fa021 	addu	s4,zero,ra
    862c:	0016f821 	addu	ra,zero,s6
    8630:	3c150001 	lui	s5,0x1
    8634:	26b585e4 	addiu	s5,s5,-31260
    8638:	3c0dc2e2 	lui	t5,0xc2e2
    863c:	35ad6918 	ori	t5,t5,0x6918
    8640:	160d0264 	bne	s0,t5,8fd4 <inst_error>
    8644:	00000000 	nop
    8648:	00000000 	nop
    864c:	3c0c555e 	lui	t4,0x555e
    8650:	358c1066 	ori	t4,t4,0x1066
    8654:	164c025f 	bne	s2,t4,8fd4 <inst_error>
    8658:	00000000 	nop
    865c:	00000000 	nop
    8660:	26b50008 	addiu	s5,s5,8
    8664:	1695025b 	bne	s4,s5,8fd4 <inst_error>
    8668:	00000000 	nop
    866c:	00000000 	nop
    8670:	001fb021 	addu	s6,zero,ra
    8674:	3c0c2eb1 	lui	t4,0x2eb1
    8678:	358cd6d6 	ori	t4,t4,0xd6d6
    867c:	3c0d0f00 	lui	t5,0xf00
    8680:	35ad3580 	ori	t5,t5,0x3580
    8684:	24100000 	li	s0,0
    8688:	1000000d 	b	86c0 <n38_jal_test+0x86c0>
    868c:	24120000 	li	s2,0
    8690:	00000000 	nop
    8694:	3c102eb1 	lui	s0,0x2eb1
    8698:	3610d6d6 	ori	s0,s0,0xd6d6
    869c:	0c0021b6 	jal	86d8 <n38_jal_test+0x86d8>
    86a0:	00000000 	nop
    86a4:	1000000e 	b	86e0 <n38_jal_test+0x86e0>
    86a8:	00000000 	nop
    86ac:	00000000 	nop
    86b0:	00000021 	move	zero,zero
    86b4:	00000021 	move	zero,zero
    86b8:	00000021 	move	zero,zero
    86bc:	00000021 	move	zero,zero
    86c0:	0c0021a5 	jal	8694 <n38_jal_test+0x8694>
    86c4:	00000000 	nop
    86c8:	10000005 	b	86e0 <n38_jal_test+0x86e0>
    86cc:	00000000 	nop
    86d0:	00000000 	nop
    86d4:	00000021 	move	zero,zero
    86d8:	3c120f00 	lui	s2,0xf00
    86dc:	36523580 	ori	s2,s2,0x3580
    86e0:	001fa021 	addu	s4,zero,ra
    86e4:	0016f821 	addu	ra,zero,s6
    86e8:	3c150001 	lui	s5,0x1
    86ec:	26b5869c 	addiu	s5,s5,-31076
    86f0:	3c0d2eb1 	lui	t5,0x2eb1
    86f4:	35add6d6 	ori	t5,t5,0xd6d6
    86f8:	160d0236 	bne	s0,t5,8fd4 <inst_error>
    86fc:	00000000 	nop
    8700:	00000000 	nop
    8704:	3c0c0f00 	lui	t4,0xf00
    8708:	358c3580 	ori	t4,t4,0x3580
    870c:	164c0231 	bne	s2,t4,8fd4 <inst_error>
    8710:	00000000 	nop
    8714:	00000000 	nop
    8718:	26b50008 	addiu	s5,s5,8
    871c:	1695022d 	bne	s4,s5,8fd4 <inst_error>
    8720:	00000000 	nop
    8724:	00000000 	nop
    8728:	001fb021 	addu	s6,zero,ra
    872c:	3c0c32ea 	lui	t4,0x32ea
    8730:	358ce280 	ori	t4,t4,0xe280
    8734:	3c0d174f 	lui	t5,0x174f
    8738:	35ad4580 	ori	t5,t5,0x4580
    873c:	24100000 	li	s0,0
    8740:	1000000d 	b	8778 <n38_jal_test+0x8778>
    8744:	24120000 	li	s2,0
    8748:	00000000 	nop
    874c:	3c1032ea 	lui	s0,0x32ea
    8750:	3610e280 	ori	s0,s0,0xe280
    8754:	0c0021e4 	jal	8790 <n38_jal_test+0x8790>
    8758:	00000000 	nop
    875c:	1000000e 	b	8798 <n38_jal_test+0x8798>
    8760:	00000000 	nop
    8764:	00000000 	nop
    8768:	00000021 	move	zero,zero
    876c:	00000021 	move	zero,zero
    8770:	00000021 	move	zero,zero
    8774:	00000021 	move	zero,zero
    8778:	0c0021d3 	jal	874c <n38_jal_test+0x874c>
    877c:	00000000 	nop
    8780:	10000005 	b	8798 <n38_jal_test+0x8798>
    8784:	00000000 	nop
    8788:	00000000 	nop
    878c:	00000021 	move	zero,zero
    8790:	3c12174f 	lui	s2,0x174f
    8794:	36524580 	ori	s2,s2,0x4580
    8798:	001fa021 	addu	s4,zero,ra
    879c:	0016f821 	addu	ra,zero,s6
    87a0:	3c150001 	lui	s5,0x1
    87a4:	26b58754 	addiu	s5,s5,-30892
    87a8:	3c0d32ea 	lui	t5,0x32ea
    87ac:	35ade280 	ori	t5,t5,0xe280
    87b0:	160d0208 	bne	s0,t5,8fd4 <inst_error>
    87b4:	00000000 	nop
    87b8:	00000000 	nop
    87bc:	3c0c174f 	lui	t4,0x174f
    87c0:	358c4580 	ori	t4,t4,0x4580
    87c4:	164c0203 	bne	s2,t4,8fd4 <inst_error>
    87c8:	00000000 	nop
    87cc:	00000000 	nop
    87d0:	26b50008 	addiu	s5,s5,8
    87d4:	169501ff 	bne	s4,s5,8fd4 <inst_error>
    87d8:	00000000 	nop
    87dc:	00000000 	nop
    87e0:	001fb021 	addu	s6,zero,ra
    87e4:	3c0c824c 	lui	t4,0x824c
    87e8:	358c9710 	ori	t4,t4,0x9710
    87ec:	3c0db2d3 	lui	t5,0xb2d3
    87f0:	35adfe09 	ori	t5,t5,0xfe09
    87f4:	24100000 	li	s0,0
    87f8:	1000000d 	b	8830 <n38_jal_test+0x8830>
    87fc:	24120000 	li	s2,0
    8800:	00000000 	nop
    8804:	3c10824c 	lui	s0,0x824c
    8808:	36109710 	ori	s0,s0,0x9710
    880c:	0c002212 	jal	8848 <n38_jal_test+0x8848>
    8810:	00000000 	nop
    8814:	1000000e 	b	8850 <n38_jal_test+0x8850>
    8818:	00000000 	nop
    881c:	00000000 	nop
    8820:	00000021 	move	zero,zero
    8824:	00000021 	move	zero,zero
    8828:	00000021 	move	zero,zero
    882c:	00000021 	move	zero,zero
    8830:	0c002201 	jal	8804 <n38_jal_test+0x8804>
    8834:	00000000 	nop
    8838:	10000005 	b	8850 <n38_jal_test+0x8850>
    883c:	00000000 	nop
    8840:	00000000 	nop
    8844:	00000021 	move	zero,zero
    8848:	3c12b2d3 	lui	s2,0xb2d3
    884c:	3652fe09 	ori	s2,s2,0xfe09
    8850:	001fa021 	addu	s4,zero,ra
    8854:	0016f821 	addu	ra,zero,s6
    8858:	3c150001 	lui	s5,0x1
    885c:	26b5880c 	addiu	s5,s5,-30708
    8860:	3c0d824c 	lui	t5,0x824c
    8864:	35ad9710 	ori	t5,t5,0x9710
    8868:	160d01da 	bne	s0,t5,8fd4 <inst_error>
    886c:	00000000 	nop
    8870:	00000000 	nop
    8874:	3c0cb2d3 	lui	t4,0xb2d3
    8878:	358cfe09 	ori	t4,t4,0xfe09
    887c:	164c01d5 	bne	s2,t4,8fd4 <inst_error>
    8880:	00000000 	nop
    8884:	00000000 	nop
    8888:	26b50008 	addiu	s5,s5,8
    888c:	169501d1 	bne	s4,s5,8fd4 <inst_error>
    8890:	00000000 	nop
    8894:	00000000 	nop
    8898:	001fb021 	addu	s6,zero,ra
    889c:	3c0cf413 	lui	t4,0xf413
    88a0:	358c38d8 	ori	t4,t4,0x38d8
    88a4:	3c0d7d52 	lui	t5,0x7d52
    88a8:	35ad7120 	ori	t5,t5,0x7120
    88ac:	24100000 	li	s0,0
    88b0:	1000000d 	b	88e8 <n38_jal_test+0x88e8>
    88b4:	24120000 	li	s2,0
    88b8:	00000000 	nop
    88bc:	3c10f413 	lui	s0,0xf413
    88c0:	361038d8 	ori	s0,s0,0x38d8
    88c4:	0c002240 	jal	8900 <n38_jal_test+0x8900>
    88c8:	00000000 	nop
    88cc:	1000000e 	b	8908 <n38_jal_test+0x8908>
    88d0:	00000000 	nop
    88d4:	00000000 	nop
    88d8:	00000021 	move	zero,zero
    88dc:	00000021 	move	zero,zero
    88e0:	00000021 	move	zero,zero
    88e4:	00000021 	move	zero,zero
    88e8:	0c00222f 	jal	88bc <n38_jal_test+0x88bc>
    88ec:	00000000 	nop
    88f0:	10000005 	b	8908 <n38_jal_test+0x8908>
    88f4:	00000000 	nop
    88f8:	00000000 	nop
    88fc:	00000021 	move	zero,zero
    8900:	3c127d52 	lui	s2,0x7d52
    8904:	36527120 	ori	s2,s2,0x7120
    8908:	001fa021 	addu	s4,zero,ra
    890c:	0016f821 	addu	ra,zero,s6
    8910:	3c150001 	lui	s5,0x1
    8914:	26b588c4 	addiu	s5,s5,-30524
    8918:	3c0df413 	lui	t5,0xf413
    891c:	35ad38d8 	ori	t5,t5,0x38d8
    8920:	160d01ac 	bne	s0,t5,8fd4 <inst_error>
    8924:	00000000 	nop
    8928:	00000000 	nop
    892c:	3c0c7d52 	lui	t4,0x7d52
    8930:	358c7120 	ori	t4,t4,0x7120
    8934:	164c01a7 	bne	s2,t4,8fd4 <inst_error>
    8938:	00000000 	nop
    893c:	00000000 	nop
    8940:	26b50008 	addiu	s5,s5,8
    8944:	169501a3 	bne	s4,s5,8fd4 <inst_error>
    8948:	00000000 	nop
    894c:	00000000 	nop
    8950:	001fb021 	addu	s6,zero,ra
    8954:	3c0c2ff1 	lui	t4,0x2ff1
    8958:	358c3590 	ori	t4,t4,0x3590
    895c:	3c0de511 	lui	t5,0xe511
    8960:	35ad79de 	ori	t5,t5,0x79de
    8964:	24100000 	li	s0,0
    8968:	1000000d 	b	89a0 <n38_jal_test+0x89a0>
    896c:	24120000 	li	s2,0
    8970:	00000000 	nop
    8974:	3c102ff1 	lui	s0,0x2ff1
    8978:	36103590 	ori	s0,s0,0x3590
    897c:	0c00226e 	jal	89b8 <n38_jal_test+0x89b8>
    8980:	00000000 	nop
    8984:	1000000e 	b	89c0 <n38_jal_test+0x89c0>
    8988:	00000000 	nop
    898c:	00000000 	nop
    8990:	00000021 	move	zero,zero
    8994:	00000021 	move	zero,zero
    8998:	00000021 	move	zero,zero
    899c:	00000021 	move	zero,zero
    89a0:	0c00225d 	jal	8974 <n38_jal_test+0x8974>
    89a4:	00000000 	nop
    89a8:	10000005 	b	89c0 <n38_jal_test+0x89c0>
    89ac:	00000000 	nop
    89b0:	00000000 	nop
    89b4:	00000021 	move	zero,zero
    89b8:	3c12e511 	lui	s2,0xe511
    89bc:	365279de 	ori	s2,s2,0x79de
    89c0:	001fa021 	addu	s4,zero,ra
    89c4:	0016f821 	addu	ra,zero,s6
    89c8:	3c150001 	lui	s5,0x1
    89cc:	26b5897c 	addiu	s5,s5,-30340
    89d0:	3c0d2ff1 	lui	t5,0x2ff1
    89d4:	35ad3590 	ori	t5,t5,0x3590
    89d8:	160d017e 	bne	s0,t5,8fd4 <inst_error>
    89dc:	00000000 	nop
    89e0:	00000000 	nop
    89e4:	3c0ce511 	lui	t4,0xe511
    89e8:	358c79de 	ori	t4,t4,0x79de
    89ec:	164c0179 	bne	s2,t4,8fd4 <inst_error>
    89f0:	00000000 	nop
    89f4:	00000000 	nop
    89f8:	26b50008 	addiu	s5,s5,8
    89fc:	16950175 	bne	s4,s5,8fd4 <inst_error>
    8a00:	00000000 	nop
    8a04:	00000000 	nop
    8a08:	001fb021 	addu	s6,zero,ra
    8a0c:	3c0c6310 	lui	t4,0x6310
    8a10:	358cdd60 	ori	t4,t4,0xdd60
    8a14:	3c0d9423 	lui	t5,0x9423
    8a18:	35adfac0 	ori	t5,t5,0xfac0
    8a1c:	24100000 	li	s0,0
    8a20:	1000000d 	b	8a58 <n38_jal_test+0x8a58>
    8a24:	24120000 	li	s2,0
    8a28:	00000000 	nop
    8a2c:	3c106310 	lui	s0,0x6310
    8a30:	3610dd60 	ori	s0,s0,0xdd60
    8a34:	0c00229c 	jal	8a70 <n38_jal_test+0x8a70>
    8a38:	00000000 	nop
    8a3c:	1000000e 	b	8a78 <n38_jal_test+0x8a78>
    8a40:	00000000 	nop
    8a44:	00000000 	nop
    8a48:	00000021 	move	zero,zero
    8a4c:	00000021 	move	zero,zero
    8a50:	00000021 	move	zero,zero
    8a54:	00000021 	move	zero,zero
    8a58:	0c00228b 	jal	8a2c <n38_jal_test+0x8a2c>
    8a5c:	00000000 	nop
    8a60:	10000005 	b	8a78 <n38_jal_test+0x8a78>
    8a64:	00000000 	nop
    8a68:	00000000 	nop
    8a6c:	00000021 	move	zero,zero
    8a70:	3c129423 	lui	s2,0x9423
    8a74:	3652fac0 	ori	s2,s2,0xfac0
    8a78:	001fa021 	addu	s4,zero,ra
    8a7c:	0016f821 	addu	ra,zero,s6
    8a80:	3c150001 	lui	s5,0x1
    8a84:	26b58a34 	addiu	s5,s5,-30156
    8a88:	3c0d6310 	lui	t5,0x6310
    8a8c:	35addd60 	ori	t5,t5,0xdd60
    8a90:	160d0150 	bne	s0,t5,8fd4 <inst_error>
    8a94:	00000000 	nop
    8a98:	00000000 	nop
    8a9c:	3c0c9423 	lui	t4,0x9423
    8aa0:	358cfac0 	ori	t4,t4,0xfac0
    8aa4:	164c014b 	bne	s2,t4,8fd4 <inst_error>
    8aa8:	00000000 	nop
    8aac:	00000000 	nop
    8ab0:	26b50008 	addiu	s5,s5,8
    8ab4:	16950147 	bne	s4,s5,8fd4 <inst_error>
    8ab8:	00000000 	nop
    8abc:	00000000 	nop
    8ac0:	001fb021 	addu	s6,zero,ra
    8ac4:	3c0c9f43 	lui	t4,0x9f43
    8ac8:	358c4002 	ori	t4,t4,0x4002
    8acc:	3c0d775d 	lui	t5,0x775d
    8ad0:	35ad06fc 	ori	t5,t5,0x6fc
    8ad4:	24100000 	li	s0,0
    8ad8:	1000000d 	b	8b10 <n38_jal_test+0x8b10>
    8adc:	24120000 	li	s2,0
    8ae0:	00000000 	nop
    8ae4:	3c109f43 	lui	s0,0x9f43
    8ae8:	36104002 	ori	s0,s0,0x4002
    8aec:	0c0022ca 	jal	8b28 <n38_jal_test+0x8b28>
    8af0:	00000000 	nop
    8af4:	1000000e 	b	8b30 <n38_jal_test+0x8b30>
    8af8:	00000000 	nop
    8afc:	00000000 	nop
    8b00:	00000021 	move	zero,zero
    8b04:	00000021 	move	zero,zero
    8b08:	00000021 	move	zero,zero
    8b0c:	00000021 	move	zero,zero
    8b10:	0c0022b9 	jal	8ae4 <n38_jal_test+0x8ae4>
    8b14:	00000000 	nop
    8b18:	10000005 	b	8b30 <n38_jal_test+0x8b30>
    8b1c:	00000000 	nop
    8b20:	00000000 	nop
    8b24:	00000021 	move	zero,zero
    8b28:	3c12775d 	lui	s2,0x775d
    8b2c:	365206fc 	ori	s2,s2,0x6fc
    8b30:	001fa021 	addu	s4,zero,ra
    8b34:	0016f821 	addu	ra,zero,s6
    8b38:	3c150001 	lui	s5,0x1
    8b3c:	26b58aec 	addiu	s5,s5,-29972
    8b40:	3c0d9f43 	lui	t5,0x9f43
    8b44:	35ad4002 	ori	t5,t5,0x4002
    8b48:	160d0122 	bne	s0,t5,8fd4 <inst_error>
    8b4c:	00000000 	nop
    8b50:	00000000 	nop
    8b54:	3c0c775d 	lui	t4,0x775d
    8b58:	358c06fc 	ori	t4,t4,0x6fc
    8b5c:	164c011d 	bne	s2,t4,8fd4 <inst_error>
    8b60:	00000000 	nop
    8b64:	00000000 	nop
    8b68:	26b50008 	addiu	s5,s5,8
    8b6c:	16950119 	bne	s4,s5,8fd4 <inst_error>
    8b70:	00000000 	nop
    8b74:	00000000 	nop
    8b78:	001fb021 	addu	s6,zero,ra
    8b7c:	3c0c49b9 	lui	t4,0x49b9
    8b80:	358cc1c0 	ori	t4,t4,0xc1c0
    8b84:	3c0da4a1 	lui	t5,0xa4a1
    8b88:	35adf200 	ori	t5,t5,0xf200
    8b8c:	24100000 	li	s0,0
    8b90:	1000000d 	b	8bc8 <n38_jal_test+0x8bc8>
    8b94:	24120000 	li	s2,0
    8b98:	00000000 	nop
    8b9c:	3c1049b9 	lui	s0,0x49b9
    8ba0:	3610c1c0 	ori	s0,s0,0xc1c0
    8ba4:	0c0022f8 	jal	8be0 <n38_jal_test+0x8be0>
    8ba8:	00000000 	nop
    8bac:	1000000e 	b	8be8 <n38_jal_test+0x8be8>
    8bb0:	00000000 	nop
    8bb4:	00000000 	nop
    8bb8:	00000021 	move	zero,zero
    8bbc:	00000021 	move	zero,zero
    8bc0:	00000021 	move	zero,zero
    8bc4:	00000021 	move	zero,zero
    8bc8:	0c0022e7 	jal	8b9c <n38_jal_test+0x8b9c>
    8bcc:	00000000 	nop
    8bd0:	10000005 	b	8be8 <n38_jal_test+0x8be8>
    8bd4:	00000000 	nop
    8bd8:	00000000 	nop
    8bdc:	00000021 	move	zero,zero
    8be0:	3c12a4a1 	lui	s2,0xa4a1
    8be4:	3652f200 	ori	s2,s2,0xf200
    8be8:	001fa021 	addu	s4,zero,ra
    8bec:	0016f821 	addu	ra,zero,s6
    8bf0:	3c150001 	lui	s5,0x1
    8bf4:	26b58ba4 	addiu	s5,s5,-29788
    8bf8:	3c0d49b9 	lui	t5,0x49b9
    8bfc:	35adc1c0 	ori	t5,t5,0xc1c0
    8c00:	160d00f4 	bne	s0,t5,8fd4 <inst_error>
    8c04:	00000000 	nop
    8c08:	00000000 	nop
    8c0c:	3c0ca4a1 	lui	t4,0xa4a1
    8c10:	358cf200 	ori	t4,t4,0xf200
    8c14:	164c00ef 	bne	s2,t4,8fd4 <inst_error>
    8c18:	00000000 	nop
    8c1c:	00000000 	nop
    8c20:	26b50008 	addiu	s5,s5,8
    8c24:	169500eb 	bne	s4,s5,8fd4 <inst_error>
    8c28:	00000000 	nop
    8c2c:	00000000 	nop
    8c30:	001fb021 	addu	s6,zero,ra
    8c34:	3c0c52ea 	lui	t4,0x52ea
    8c38:	358cfe00 	ori	t4,t4,0xfe00
    8c3c:	3c0dfadd 	lui	t5,0xfadd
    8c40:	35adf60c 	ori	t5,t5,0xf60c
    8c44:	24100000 	li	s0,0
    8c48:	1000000d 	b	8c80 <n38_jal_test+0x8c80>
    8c4c:	24120000 	li	s2,0
    8c50:	00000000 	nop
    8c54:	3c1052ea 	lui	s0,0x52ea
    8c58:	3610fe00 	ori	s0,s0,0xfe00
    8c5c:	0c002326 	jal	8c98 <n38_jal_test+0x8c98>
    8c60:	00000000 	nop
    8c64:	1000000e 	b	8ca0 <n38_jal_test+0x8ca0>
    8c68:	00000000 	nop
    8c6c:	00000000 	nop
    8c70:	00000021 	move	zero,zero
    8c74:	00000021 	move	zero,zero
    8c78:	00000021 	move	zero,zero
    8c7c:	00000021 	move	zero,zero
    8c80:	0c002315 	jal	8c54 <n38_jal_test+0x8c54>
    8c84:	00000000 	nop
    8c88:	10000005 	b	8ca0 <n38_jal_test+0x8ca0>
    8c8c:	00000000 	nop
    8c90:	00000000 	nop
    8c94:	00000021 	move	zero,zero
    8c98:	3c12fadd 	lui	s2,0xfadd
    8c9c:	3652f60c 	ori	s2,s2,0xf60c
    8ca0:	001fa021 	addu	s4,zero,ra
    8ca4:	0016f821 	addu	ra,zero,s6
    8ca8:	3c150001 	lui	s5,0x1
    8cac:	26b58c5c 	addiu	s5,s5,-29604
    8cb0:	3c0d52ea 	lui	t5,0x52ea
    8cb4:	35adfe00 	ori	t5,t5,0xfe00
    8cb8:	160d00c6 	bne	s0,t5,8fd4 <inst_error>
    8cbc:	00000000 	nop
    8cc0:	00000000 	nop
    8cc4:	3c0cfadd 	lui	t4,0xfadd
    8cc8:	358cf60c 	ori	t4,t4,0xf60c
    8ccc:	164c00c1 	bne	s2,t4,8fd4 <inst_error>
    8cd0:	00000000 	nop
    8cd4:	00000000 	nop
    8cd8:	26b50008 	addiu	s5,s5,8
    8cdc:	169500bd 	bne	s4,s5,8fd4 <inst_error>
    8ce0:	00000000 	nop
    8ce4:	00000000 	nop
    8ce8:	001fb021 	addu	s6,zero,ra
    8cec:	3c0cd280 	lui	t4,0xd280
    8cf0:	358cee0a 	ori	t4,t4,0xee0a
    8cf4:	3c0d2176 	lui	t5,0x2176
    8cf8:	35adf4c0 	ori	t5,t5,0xf4c0
    8cfc:	24100000 	li	s0,0
    8d00:	1000000d 	b	8d38 <n38_jal_test+0x8d38>
    8d04:	24120000 	li	s2,0
    8d08:	00000000 	nop
    8d0c:	3c10d280 	lui	s0,0xd280
    8d10:	3610ee0a 	ori	s0,s0,0xee0a
    8d14:	0c002354 	jal	8d50 <n38_jal_test+0x8d50>
    8d18:	00000000 	nop
    8d1c:	1000000e 	b	8d58 <n38_jal_test+0x8d58>
    8d20:	00000000 	nop
    8d24:	00000000 	nop
    8d28:	00000021 	move	zero,zero
    8d2c:	00000021 	move	zero,zero
    8d30:	00000021 	move	zero,zero
    8d34:	00000021 	move	zero,zero
    8d38:	0c002343 	jal	8d0c <n38_jal_test+0x8d0c>
    8d3c:	00000000 	nop
    8d40:	10000005 	b	8d58 <n38_jal_test+0x8d58>
    8d44:	00000000 	nop
    8d48:	00000000 	nop
    8d4c:	00000021 	move	zero,zero
    8d50:	3c122176 	lui	s2,0x2176
    8d54:	3652f4c0 	ori	s2,s2,0xf4c0
    8d58:	001fa021 	addu	s4,zero,ra
    8d5c:	0016f821 	addu	ra,zero,s6
    8d60:	3c150001 	lui	s5,0x1
    8d64:	26b58d14 	addiu	s5,s5,-29420
    8d68:	3c0dd280 	lui	t5,0xd280
    8d6c:	35adee0a 	ori	t5,t5,0xee0a
    8d70:	160d0098 	bne	s0,t5,8fd4 <inst_error>
    8d74:	00000000 	nop
    8d78:	00000000 	nop
    8d7c:	3c0c2176 	lui	t4,0x2176
    8d80:	358cf4c0 	ori	t4,t4,0xf4c0
    8d84:	164c0093 	bne	s2,t4,8fd4 <inst_error>
    8d88:	00000000 	nop
    8d8c:	00000000 	nop
    8d90:	26b50008 	addiu	s5,s5,8
    8d94:	1695008f 	bne	s4,s5,8fd4 <inst_error>
    8d98:	00000000 	nop
    8d9c:	00000000 	nop
    8da0:	001fb021 	addu	s6,zero,ra
    8da4:	3c0ce9bc 	lui	t4,0xe9bc
    8da8:	358c5a90 	ori	t4,t4,0x5a90
    8dac:	3c0dab04 	lui	t5,0xab04
    8db0:	35ad21a6 	ori	t5,t5,0x21a6
    8db4:	24100000 	li	s0,0
    8db8:	1000000d 	b	8df0 <n38_jal_test+0x8df0>
    8dbc:	24120000 	li	s2,0
    8dc0:	00000000 	nop
    8dc4:	3c10e9bc 	lui	s0,0xe9bc
    8dc8:	36105a90 	ori	s0,s0,0x5a90
    8dcc:	0c002382 	jal	8e08 <n38_jal_test+0x8e08>
    8dd0:	00000000 	nop
    8dd4:	1000000e 	b	8e10 <n38_jal_test+0x8e10>
    8dd8:	00000000 	nop
    8ddc:	00000000 	nop
    8de0:	00000021 	move	zero,zero
    8de4:	00000021 	move	zero,zero
    8de8:	00000021 	move	zero,zero
    8dec:	00000021 	move	zero,zero
    8df0:	0c002371 	jal	8dc4 <n38_jal_test+0x8dc4>
    8df4:	00000000 	nop
    8df8:	10000005 	b	8e10 <n38_jal_test+0x8e10>
    8dfc:	00000000 	nop
    8e00:	00000000 	nop
    8e04:	00000021 	move	zero,zero
    8e08:	3c12ab04 	lui	s2,0xab04
    8e0c:	365221a6 	ori	s2,s2,0x21a6
    8e10:	001fa021 	addu	s4,zero,ra
    8e14:	0016f821 	addu	ra,zero,s6
    8e18:	3c150001 	lui	s5,0x1
    8e1c:	26b58dcc 	addiu	s5,s5,-29236
    8e20:	3c0de9bc 	lui	t5,0xe9bc
    8e24:	35ad5a90 	ori	t5,t5,0x5a90
    8e28:	160d006a 	bne	s0,t5,8fd4 <inst_error>
    8e2c:	00000000 	nop
    8e30:	00000000 	nop
    8e34:	3c0cab04 	lui	t4,0xab04
    8e38:	358c21a6 	ori	t4,t4,0x21a6
    8e3c:	164c0065 	bne	s2,t4,8fd4 <inst_error>
    8e40:	00000000 	nop
    8e44:	00000000 	nop
    8e48:	26b50008 	addiu	s5,s5,8
    8e4c:	16950061 	bne	s4,s5,8fd4 <inst_error>
    8e50:	00000000 	nop
    8e54:	00000000 	nop
    8e58:	001fb021 	addu	s6,zero,ra
    8e5c:	3c0c8335 	lui	t4,0x8335
    8e60:	358cd66d 	ori	t4,t4,0xd66d
    8e64:	3c0ddaf2 	lui	t5,0xdaf2
    8e68:	35adc222 	ori	t5,t5,0xc222
    8e6c:	24100000 	li	s0,0
    8e70:	1000000d 	b	8ea8 <n38_jal_test+0x8ea8>
    8e74:	24120000 	li	s2,0
    8e78:	00000000 	nop
    8e7c:	3c108335 	lui	s0,0x8335
    8e80:	3610d66d 	ori	s0,s0,0xd66d
    8e84:	0c0023b0 	jal	8ec0 <n38_jal_test+0x8ec0>
    8e88:	00000000 	nop
    8e8c:	1000000e 	b	8ec8 <n38_jal_test+0x8ec8>
    8e90:	00000000 	nop
    8e94:	00000000 	nop
    8e98:	00000021 	move	zero,zero
    8e9c:	00000021 	move	zero,zero
    8ea0:	00000021 	move	zero,zero
    8ea4:	00000021 	move	zero,zero
    8ea8:	0c00239f 	jal	8e7c <n38_jal_test+0x8e7c>
    8eac:	00000000 	nop
    8eb0:	10000005 	b	8ec8 <n38_jal_test+0x8ec8>
    8eb4:	00000000 	nop
    8eb8:	00000000 	nop
    8ebc:	00000021 	move	zero,zero
    8ec0:	3c12daf2 	lui	s2,0xdaf2
    8ec4:	3652c222 	ori	s2,s2,0xc222
    8ec8:	001fa021 	addu	s4,zero,ra
    8ecc:	0016f821 	addu	ra,zero,s6
    8ed0:	3c150001 	lui	s5,0x1
    8ed4:	26b58e84 	addiu	s5,s5,-29052
    8ed8:	3c0d8335 	lui	t5,0x8335
    8edc:	35add66d 	ori	t5,t5,0xd66d
    8ee0:	160d003c 	bne	s0,t5,8fd4 <inst_error>
    8ee4:	00000000 	nop
    8ee8:	00000000 	nop
    8eec:	3c0cdaf2 	lui	t4,0xdaf2
    8ef0:	358cc222 	ori	t4,t4,0xc222
    8ef4:	164c0037 	bne	s2,t4,8fd4 <inst_error>
    8ef8:	00000000 	nop
    8efc:	00000000 	nop
    8f00:	26b50008 	addiu	s5,s5,8
    8f04:	16950033 	bne	s4,s5,8fd4 <inst_error>
    8f08:	00000000 	nop
    8f0c:	00000000 	nop
    8f10:	001fb021 	addu	s6,zero,ra
    8f14:	3c0c18e0 	lui	t4,0x18e0
    8f18:	358c8d00 	ori	t4,t4,0x8d00
    8f1c:	3c0d6fa3 	lui	t5,0x6fa3
    8f20:	35ad619e 	ori	t5,t5,0x619e
    8f24:	24100000 	li	s0,0
    8f28:	1000000d 	b	8f60 <n38_jal_test+0x8f60>
    8f2c:	24120000 	li	s2,0
    8f30:	00000000 	nop
    8f34:	3c1018e0 	lui	s0,0x18e0
    8f38:	36108d00 	ori	s0,s0,0x8d00
    8f3c:	0c0023de 	jal	8f78 <n38_jal_test+0x8f78>
    8f40:	00000000 	nop
    8f44:	1000000e 	b	8f80 <n38_jal_test+0x8f80>
    8f48:	00000000 	nop
    8f4c:	00000000 	nop
    8f50:	00000021 	move	zero,zero
    8f54:	00000021 	move	zero,zero
    8f58:	00000021 	move	zero,zero
    8f5c:	00000021 	move	zero,zero
    8f60:	0c0023cd 	jal	8f34 <n38_jal_test+0x8f34>
    8f64:	00000000 	nop
    8f68:	10000005 	b	8f80 <n38_jal_test+0x8f80>
    8f6c:	00000000 	nop
    8f70:	00000000 	nop
    8f74:	00000021 	move	zero,zero
    8f78:	3c126fa3 	lui	s2,0x6fa3
    8f7c:	3652619e 	ori	s2,s2,0x619e
    8f80:	001fa021 	addu	s4,zero,ra
    8f84:	0016f821 	addu	ra,zero,s6
    8f88:	3c150001 	lui	s5,0x1
    8f8c:	26b58f3c 	addiu	s5,s5,-28868
    8f90:	3c0d18e0 	lui	t5,0x18e0
    8f94:	35ad8d00 	ori	t5,t5,0x8d00
    8f98:	160d000e 	bne	s0,t5,8fd4 <inst_error>
    8f9c:	00000000 	nop
    8fa0:	00000000 	nop
    8fa4:	3c0c6fa3 	lui	t4,0x6fa3
    8fa8:	358c619e 	ori	t4,t4,0x619e
    8fac:	164c0009 	bne	s2,t4,8fd4 <inst_error>
    8fb0:	00000000 	nop
    8fb4:	00000000 	nop
    8fb8:	26b50008 	addiu	s5,s5,8
    8fbc:	16950005 	bne	s4,s5,8fd4 <inst_error>
    8fc0:	00000000 	nop
    8fc4:	14400003 	bnez	v0,8fd4 <inst_error>
    8fc8:	00000000 	nop
    8fcc:	00000000 	nop
    8fd0:	26730001 	addiu	s3,s3,1

00008fd4 <inst_error>:
    8fd4:	00934025 	or	t0,a0,s3
    8fd8:	03e00008 	jr	ra
    8fdc:	ae280000 	sw	t0,0(s1)
