00000000 <n39_jr_test>:
       0:	3c042700 	lui	a0,0x2700
       4:	24020000 	li	v0,0
       8:	3c0cc21e 	lui	t4,0xc21e
       c:	358c6e78 	ori	t4,t4,0x6e78
      10:	3c0d0e2e 	lui	t5,0xe2e
      14:	35ada248 	ori	t5,t5,0xa248
      18:	24100000 	li	s0,0
      1c:	24120000 	li	s2,0
      20:	3c080000 	lui	t0,0x0
      24:	2508003c 	addiu	t0,t0,60
      28:	3c090000 	lui	t1,0x0
      2c:	252900a8 	addiu	t1,t1,168
      30:	1000000b 	b	60 <n39_jr_test+0x60>
      34:	00000000 	nop
      38:	00000000 	nop
      3c:	3c10c21e 	lui	s0,0xc21e
      40:	01200008 	jr	t1
      44:	36106e78 	ori	s0,s0,0x6e78
      48:	10000019 	b	b0 <n39_jr_test+0xb0>
      4c:	00000000 	nop
      50:	00000000 	nop
      54:	00000021 	move	zero,zero
      58:	00000021 	move	zero,zero
      5c:	00000021 	move	zero,zero
      60:	01000008 	jr	t0
      64:	00000000 	nop
      68:	10000011 	b	b0 <n39_jr_test+0xb0>
      6c:	00000000 	nop
      70:	00000000 	nop
      74:	00000021 	move	zero,zero
      78:	00000021 	move	zero,zero
      7c:	00000021 	move	zero,zero
      80:	00000021 	move	zero,zero
      84:	00000021 	move	zero,zero
      88:	00000021 	move	zero,zero
      8c:	00000021 	move	zero,zero
      90:	00000021 	move	zero,zero
      94:	00000021 	move	zero,zero
      98:	00000021 	move	zero,zero
      9c:	00000021 	move	zero,zero
      a0:	00000021 	move	zero,zero
      a4:	00000021 	move	zero,zero
      a8:	3c120e2e 	lui	s2,0xe2e
      ac:	3652a248 	ori	s2,s2,0xa248
      b0:	00000000 	nop
      b4:	3c14c21e 	lui	s4,0xc21e
      b8:	36946e78 	ori	s4,s4,0x6e78
      bc:	1614293a 	bne	s0,s4,a5a8 <inst_error>
      c0:	00000000 	nop
      c4:	00000000 	nop
      c8:	3c150e2e 	lui	s5,0xe2e
      cc:	36b5a248 	ori	s5,s5,0xa248
      d0:	16552935 	bne	s2,s5,a5a8 <inst_error>
      d4:	00000000 	nop
      d8:	00000000 	nop
      dc:	3c0c6793 	lui	t4,0x6793
      e0:	358cc49c 	ori	t4,t4,0xc49c
      e4:	3c0d654b 	lui	t5,0x654b
      e8:	35ad2d70 	ori	t5,t5,0x2d70
      ec:	24100000 	li	s0,0
      f0:	24120000 	li	s2,0
      f4:	3c080000 	lui	t0,0x0
      f8:	25080110 	addiu	t0,t0,272
      fc:	3c090000 	lui	t1,0x0
     100:	2529017c 	addiu	t1,t1,380
     104:	1000000b 	b	134 <n39_jr_test+0x134>
     108:	00000000 	nop
     10c:	00000000 	nop
     110:	3c106793 	lui	s0,0x6793
     114:	01200008 	jr	t1
     118:	3610c49c 	ori	s0,s0,0xc49c
     11c:	10000019 	b	184 <n39_jr_test+0x184>
     120:	00000000 	nop
     124:	00000000 	nop
     128:	00000021 	move	zero,zero
     12c:	00000021 	move	zero,zero
     130:	00000021 	move	zero,zero
     134:	01000008 	jr	t0
     138:	00000000 	nop
     13c:	10000011 	b	184 <n39_jr_test+0x184>
     140:	00000000 	nop
     144:	00000000 	nop
     148:	00000021 	move	zero,zero
     14c:	00000021 	move	zero,zero
     150:	00000021 	move	zero,zero
     154:	00000021 	move	zero,zero
     158:	00000021 	move	zero,zero
     15c:	00000021 	move	zero,zero
     160:	00000021 	move	zero,zero
     164:	00000021 	move	zero,zero
     168:	00000021 	move	zero,zero
     16c:	00000021 	move	zero,zero
     170:	00000021 	move	zero,zero
     174:	00000021 	move	zero,zero
     178:	00000021 	move	zero,zero
     17c:	3c12654b 	lui	s2,0x654b
     180:	36522d70 	ori	s2,s2,0x2d70
     184:	00000000 	nop
     188:	3c146793 	lui	s4,0x6793
     18c:	3694c49c 	ori	s4,s4,0xc49c
     190:	16142905 	bne	s0,s4,a5a8 <inst_error>
     194:	00000000 	nop
     198:	00000000 	nop
     19c:	3c15654b 	lui	s5,0x654b
     1a0:	36b52d70 	ori	s5,s5,0x2d70
     1a4:	16552900 	bne	s2,s5,a5a8 <inst_error>
     1a8:	00000000 	nop
     1ac:	00000000 	nop
     1b0:	3c0cff0a 	lui	t4,0xff0a
     1b4:	358c08b0 	ori	t4,t4,0x8b0
     1b8:	3c0d50d2 	lui	t5,0x50d2
     1bc:	35adbb38 	ori	t5,t5,0xbb38
     1c0:	24100000 	li	s0,0
     1c4:	24120000 	li	s2,0
     1c8:	3c080000 	lui	t0,0x0
     1cc:	250801e4 	addiu	t0,t0,484
     1d0:	3c090000 	lui	t1,0x0
     1d4:	25290250 	addiu	t1,t1,592
     1d8:	1000000b 	b	208 <n39_jr_test+0x208>
     1dc:	00000000 	nop
     1e0:	00000000 	nop
     1e4:	3c10ff0a 	lui	s0,0xff0a
     1e8:	01200008 	jr	t1
     1ec:	361008b0 	ori	s0,s0,0x8b0
     1f0:	10000019 	b	258 <n39_jr_test+0x258>
     1f4:	00000000 	nop
     1f8:	00000000 	nop
     1fc:	00000021 	move	zero,zero
     200:	00000021 	move	zero,zero
     204:	00000021 	move	zero,zero
     208:	01000008 	jr	t0
     20c:	00000000 	nop
     210:	10000011 	b	258 <n39_jr_test+0x258>
     214:	00000000 	nop
     218:	00000000 	nop
     21c:	00000021 	move	zero,zero
     220:	00000021 	move	zero,zero
     224:	00000021 	move	zero,zero
     228:	00000021 	move	zero,zero
     22c:	00000021 	move	zero,zero
     230:	00000021 	move	zero,zero
     234:	00000021 	move	zero,zero
     238:	00000021 	move	zero,zero
     23c:	00000021 	move	zero,zero
     240:	00000021 	move	zero,zero
     244:	00000021 	move	zero,zero
     248:	00000021 	move	zero,zero
     24c:	00000021 	move	zero,zero
     250:	3c1250d2 	lui	s2,0x50d2
     254:	3652bb38 	ori	s2,s2,0xbb38
     258:	00000000 	nop
     25c:	3c14ff0a 	lui	s4,0xff0a
     260:	369408b0 	ori	s4,s4,0x8b0
     264:	161428d0 	bne	s0,s4,a5a8 <inst_error>
     268:	00000000 	nop
     26c:	00000000 	nop
     270:	3c1550d2 	lui	s5,0x50d2
     274:	36b5bb38 	ori	s5,s5,0xbb38
     278:	165528cb 	bne	s2,s5,a5a8 <inst_error>
     27c:	00000000 	nop
     280:	00000000 	nop
     284:	3c0c7064 	lui	t4,0x7064
     288:	358c0e44 	ori	t4,t4,0xe44
     28c:	3c0d391a 	lui	t5,0x391a
     290:	35adfbca 	ori	t5,t5,0xfbca
     294:	24100000 	li	s0,0
     298:	24120000 	li	s2,0
     29c:	3c080000 	lui	t0,0x0
     2a0:	250802b8 	addiu	t0,t0,696
     2a4:	3c090000 	lui	t1,0x0
     2a8:	25290324 	addiu	t1,t1,804
     2ac:	1000000b 	b	2dc <n39_jr_test+0x2dc>
     2b0:	00000000 	nop
     2b4:	00000000 	nop
     2b8:	3c107064 	lui	s0,0x7064
     2bc:	01200008 	jr	t1
     2c0:	36100e44 	ori	s0,s0,0xe44
     2c4:	10000019 	b	32c <n39_jr_test+0x32c>
     2c8:	00000000 	nop
     2cc:	00000000 	nop
     2d0:	00000021 	move	zero,zero
     2d4:	00000021 	move	zero,zero
     2d8:	00000021 	move	zero,zero
     2dc:	01000008 	jr	t0
     2e0:	00000000 	nop
     2e4:	10000011 	b	32c <n39_jr_test+0x32c>
     2e8:	00000000 	nop
     2ec:	00000000 	nop
     2f0:	00000021 	move	zero,zero
     2f4:	00000021 	move	zero,zero
     2f8:	00000021 	move	zero,zero
     2fc:	00000021 	move	zero,zero
     300:	00000021 	move	zero,zero
     304:	00000021 	move	zero,zero
     308:	00000021 	move	zero,zero
     30c:	00000021 	move	zero,zero
     310:	00000021 	move	zero,zero
     314:	00000021 	move	zero,zero
     318:	00000021 	move	zero,zero
     31c:	00000021 	move	zero,zero
     320:	00000021 	move	zero,zero
     324:	3c12391a 	lui	s2,0x391a
     328:	3652fbca 	ori	s2,s2,0xfbca
     32c:	00000000 	nop
     330:	3c147064 	lui	s4,0x7064
     334:	36940e44 	ori	s4,s4,0xe44
     338:	1614289b 	bne	s0,s4,a5a8 <inst_error>
     33c:	00000000 	nop
     340:	00000000 	nop
     344:	3c15391a 	lui	s5,0x391a
     348:	36b5fbca 	ori	s5,s5,0xfbca
     34c:	16552896 	bne	s2,s5,a5a8 <inst_error>
     350:	00000000 	nop
     354:	00000000 	nop
     358:	3c0c0506 	lui	t4,0x506
     35c:	358c233b 	ori	t4,t4,0x233b
     360:	3c0db141 	lui	t5,0xb141
     364:	35ad15a8 	ori	t5,t5,0x15a8
     368:	24100000 	li	s0,0
     36c:	24120000 	li	s2,0
     370:	3c080000 	lui	t0,0x0
     374:	2508038c 	addiu	t0,t0,908
     378:	3c090000 	lui	t1,0x0
     37c:	252903f8 	addiu	t1,t1,1016
     380:	1000000b 	b	3b0 <n39_jr_test+0x3b0>
     384:	00000000 	nop
     388:	00000000 	nop
     38c:	3c100506 	lui	s0,0x506
     390:	01200008 	jr	t1
     394:	3610233b 	ori	s0,s0,0x233b
     398:	10000019 	b	400 <n39_jr_test+0x400>
     39c:	00000000 	nop
     3a0:	00000000 	nop
     3a4:	00000021 	move	zero,zero
     3a8:	00000021 	move	zero,zero
     3ac:	00000021 	move	zero,zero
     3b0:	01000008 	jr	t0
     3b4:	00000000 	nop
     3b8:	10000011 	b	400 <n39_jr_test+0x400>
     3bc:	00000000 	nop
     3c0:	00000000 	nop
     3c4:	00000021 	move	zero,zero
     3c8:	00000021 	move	zero,zero
     3cc:	00000021 	move	zero,zero
     3d0:	00000021 	move	zero,zero
     3d4:	00000021 	move	zero,zero
     3d8:	00000021 	move	zero,zero
     3dc:	00000021 	move	zero,zero
     3e0:	00000021 	move	zero,zero
     3e4:	00000021 	move	zero,zero
     3e8:	00000021 	move	zero,zero
     3ec:	00000021 	move	zero,zero
     3f0:	00000021 	move	zero,zero
     3f4:	00000021 	move	zero,zero
     3f8:	3c12b141 	lui	s2,0xb141
     3fc:	365215a8 	ori	s2,s2,0x15a8
     400:	00000000 	nop
     404:	3c140506 	lui	s4,0x506
     408:	3694233b 	ori	s4,s4,0x233b
     40c:	16142866 	bne	s0,s4,a5a8 <inst_error>
     410:	00000000 	nop
     414:	00000000 	nop
     418:	3c15b141 	lui	s5,0xb141
     41c:	36b515a8 	ori	s5,s5,0x15a8
     420:	16552861 	bne	s2,s5,a5a8 <inst_error>
     424:	00000000 	nop
     428:	00000000 	nop
     42c:	3c0c9c78 	lui	t4,0x9c78
     430:	358c1547 	ori	t4,t4,0x1547
     434:	3c0dde17 	lui	t5,0xde17
     438:	35ad8220 	ori	t5,t5,0x8220
     43c:	24100000 	li	s0,0
     440:	24120000 	li	s2,0
     444:	3c080000 	lui	t0,0x0
     448:	25080460 	addiu	t0,t0,1120
     44c:	3c090000 	lui	t1,0x0
     450:	252904cc 	addiu	t1,t1,1228
     454:	1000000b 	b	484 <n39_jr_test+0x484>
     458:	00000000 	nop
     45c:	00000000 	nop
     460:	3c109c78 	lui	s0,0x9c78
     464:	01200008 	jr	t1
     468:	36101547 	ori	s0,s0,0x1547
     46c:	10000019 	b	4d4 <n39_jr_test+0x4d4>
     470:	00000000 	nop
     474:	00000000 	nop
     478:	00000021 	move	zero,zero
     47c:	00000021 	move	zero,zero
     480:	00000021 	move	zero,zero
     484:	01000008 	jr	t0
     488:	00000000 	nop
     48c:	10000011 	b	4d4 <n39_jr_test+0x4d4>
     490:	00000000 	nop
     494:	00000000 	nop
     498:	00000021 	move	zero,zero
     49c:	00000021 	move	zero,zero
     4a0:	00000021 	move	zero,zero
     4a4:	00000021 	move	zero,zero
     4a8:	00000021 	move	zero,zero
     4ac:	00000021 	move	zero,zero
     4b0:	00000021 	move	zero,zero
     4b4:	00000021 	move	zero,zero
     4b8:	00000021 	move	zero,zero
     4bc:	00000021 	move	zero,zero
     4c0:	00000021 	move	zero,zero
     4c4:	00000021 	move	zero,zero
     4c8:	00000021 	move	zero,zero
     4cc:	3c12de17 	lui	s2,0xde17
     4d0:	36528220 	ori	s2,s2,0x8220
     4d4:	00000000 	nop
     4d8:	3c149c78 	lui	s4,0x9c78
     4dc:	36941547 	ori	s4,s4,0x1547
     4e0:	16142831 	bne	s0,s4,a5a8 <inst_error>
     4e4:	00000000 	nop
     4e8:	00000000 	nop
     4ec:	3c15de17 	lui	s5,0xde17
     4f0:	36b58220 	ori	s5,s5,0x8220
     4f4:	1655282c 	bne	s2,s5,a5a8 <inst_error>
     4f8:	00000000 	nop
     4fc:	00000000 	nop
     500:	3c0ca8dd 	lui	t4,0xa8dd
     504:	358c2c05 	ori	t4,t4,0x2c05
     508:	3c0dfb3d 	lui	t5,0xfb3d
     50c:	35ad8034 	ori	t5,t5,0x8034
     510:	24100000 	li	s0,0
     514:	24120000 	li	s2,0
     518:	3c080000 	lui	t0,0x0
     51c:	25080534 	addiu	t0,t0,1332
     520:	3c090000 	lui	t1,0x0
     524:	252905a0 	addiu	t1,t1,1440
     528:	1000000b 	b	558 <n39_jr_test+0x558>
     52c:	00000000 	nop
     530:	00000000 	nop
     534:	3c10a8dd 	lui	s0,0xa8dd
     538:	01200008 	jr	t1
     53c:	36102c05 	ori	s0,s0,0x2c05
     540:	10000019 	b	5a8 <n39_jr_test+0x5a8>
     544:	00000000 	nop
     548:	00000000 	nop
     54c:	00000021 	move	zero,zero
     550:	00000021 	move	zero,zero
     554:	00000021 	move	zero,zero
     558:	01000008 	jr	t0
     55c:	00000000 	nop
     560:	10000011 	b	5a8 <n39_jr_test+0x5a8>
     564:	00000000 	nop
     568:	00000000 	nop
     56c:	00000021 	move	zero,zero
     570:	00000021 	move	zero,zero
     574:	00000021 	move	zero,zero
     578:	00000021 	move	zero,zero
     57c:	00000021 	move	zero,zero
     580:	00000021 	move	zero,zero
     584:	00000021 	move	zero,zero
     588:	00000021 	move	zero,zero
     58c:	00000021 	move	zero,zero
     590:	00000021 	move	zero,zero
     594:	00000021 	move	zero,zero
     598:	00000021 	move	zero,zero
     59c:	00000021 	move	zero,zero
     5a0:	3c12fb3d 	lui	s2,0xfb3d
     5a4:	36528034 	ori	s2,s2,0x8034
     5a8:	00000000 	nop
     5ac:	3c14a8dd 	lui	s4,0xa8dd
     5b0:	36942c05 	ori	s4,s4,0x2c05
     5b4:	161427fc 	bne	s0,s4,a5a8 <inst_error>
     5b8:	00000000 	nop
     5bc:	00000000 	nop
     5c0:	3c15fb3d 	lui	s5,0xfb3d
     5c4:	36b58034 	ori	s5,s5,0x8034
     5c8:	165527f7 	bne	s2,s5,a5a8 <inst_error>
     5cc:	00000000 	nop
     5d0:	00000000 	nop
     5d4:	3c0c01c4 	lui	t4,0x1c4
     5d8:	358c5860 	ori	t4,t4,0x5860
     5dc:	3c0d6bdc 	lui	t5,0x6bdc
     5e0:	35ad4550 	ori	t5,t5,0x4550
     5e4:	24100000 	li	s0,0
     5e8:	24120000 	li	s2,0
     5ec:	3c080000 	lui	t0,0x0
     5f0:	25080608 	addiu	t0,t0,1544
     5f4:	3c090000 	lui	t1,0x0
     5f8:	25290674 	addiu	t1,t1,1652
     5fc:	1000000b 	b	62c <n39_jr_test+0x62c>
     600:	00000000 	nop
     604:	00000000 	nop
     608:	3c1001c4 	lui	s0,0x1c4
     60c:	01200008 	jr	t1
     610:	36105860 	ori	s0,s0,0x5860
     614:	10000019 	b	67c <n39_jr_test+0x67c>
     618:	00000000 	nop
     61c:	00000000 	nop
     620:	00000021 	move	zero,zero
     624:	00000021 	move	zero,zero
     628:	00000021 	move	zero,zero
     62c:	01000008 	jr	t0
     630:	00000000 	nop
     634:	10000011 	b	67c <n39_jr_test+0x67c>
     638:	00000000 	nop
     63c:	00000000 	nop
     640:	00000021 	move	zero,zero
     644:	00000021 	move	zero,zero
     648:	00000021 	move	zero,zero
     64c:	00000021 	move	zero,zero
     650:	00000021 	move	zero,zero
     654:	00000021 	move	zero,zero
     658:	00000021 	move	zero,zero
     65c:	00000021 	move	zero,zero
     660:	00000021 	move	zero,zero
     664:	00000021 	move	zero,zero
     668:	00000021 	move	zero,zero
     66c:	00000021 	move	zero,zero
     670:	00000021 	move	zero,zero
     674:	3c126bdc 	lui	s2,0x6bdc
     678:	36524550 	ori	s2,s2,0x4550
     67c:	00000000 	nop
     680:	3c1401c4 	lui	s4,0x1c4
     684:	36945860 	ori	s4,s4,0x5860
     688:	161427c7 	bne	s0,s4,a5a8 <inst_error>
     68c:	00000000 	nop
     690:	00000000 	nop
     694:	3c156bdc 	lui	s5,0x6bdc
     698:	36b54550 	ori	s5,s5,0x4550
     69c:	165527c2 	bne	s2,s5,a5a8 <inst_error>
     6a0:	00000000 	nop
     6a4:	00000000 	nop
     6a8:	3c0c47d1 	lui	t4,0x47d1
     6ac:	358cc1c0 	ori	t4,t4,0xc1c0
     6b0:	3c0df853 	lui	t5,0xf853
     6b4:	35adcd8e 	ori	t5,t5,0xcd8e
     6b8:	24100000 	li	s0,0
     6bc:	24120000 	li	s2,0
     6c0:	3c080000 	lui	t0,0x0
     6c4:	250806dc 	addiu	t0,t0,1756
     6c8:	3c090000 	lui	t1,0x0
     6cc:	25290748 	addiu	t1,t1,1864
     6d0:	1000000b 	b	700 <n39_jr_test+0x700>
     6d4:	00000000 	nop
     6d8:	00000000 	nop
     6dc:	3c1047d1 	lui	s0,0x47d1
     6e0:	01200008 	jr	t1
     6e4:	3610c1c0 	ori	s0,s0,0xc1c0
     6e8:	10000019 	b	750 <n39_jr_test+0x750>
     6ec:	00000000 	nop
     6f0:	00000000 	nop
     6f4:	00000021 	move	zero,zero
     6f8:	00000021 	move	zero,zero
     6fc:	00000021 	move	zero,zero
     700:	01000008 	jr	t0
     704:	00000000 	nop
     708:	10000011 	b	750 <n39_jr_test+0x750>
     70c:	00000000 	nop
     710:	00000000 	nop
     714:	00000021 	move	zero,zero
     718:	00000021 	move	zero,zero
     71c:	00000021 	move	zero,zero
     720:	00000021 	move	zero,zero
     724:	00000021 	move	zero,zero
     728:	00000021 	move	zero,zero
     72c:	00000021 	move	zero,zero
     730:	00000021 	move	zero,zero
     734:	00000021 	move	zero,zero
     738:	00000021 	move	zero,zero
     73c:	00000021 	move	zero,zero
     740:	00000021 	move	zero,zero
     744:	00000021 	move	zero,zero
     748:	3c12f853 	lui	s2,0xf853
     74c:	3652cd8e 	ori	s2,s2,0xcd8e
     750:	00000000 	nop
     754:	3c1447d1 	lui	s4,0x47d1
     758:	3694c1c0 	ori	s4,s4,0xc1c0
     75c:	16142792 	bne	s0,s4,a5a8 <inst_error>
     760:	00000000 	nop
     764:	00000000 	nop
     768:	3c15f853 	lui	s5,0xf853
     76c:	36b5cd8e 	ori	s5,s5,0xcd8e
     770:	1655278d 	bne	s2,s5,a5a8 <inst_error>
     774:	00000000 	nop
     778:	00000000 	nop
     77c:	3c0c7089 	lui	t4,0x7089
     780:	358cb600 	ori	t4,t4,0xb600
     784:	3c0db8da 	lui	t5,0xb8da
     788:	35ad1d86 	ori	t5,t5,0x1d86
     78c:	24100000 	li	s0,0
     790:	24120000 	li	s2,0
     794:	3c080000 	lui	t0,0x0
     798:	250807b0 	addiu	t0,t0,1968
     79c:	3c090000 	lui	t1,0x0
     7a0:	2529081c 	addiu	t1,t1,2076
     7a4:	1000000b 	b	7d4 <n39_jr_test+0x7d4>
     7a8:	00000000 	nop
     7ac:	00000000 	nop
     7b0:	3c107089 	lui	s0,0x7089
     7b4:	01200008 	jr	t1
     7b8:	3610b600 	ori	s0,s0,0xb600
     7bc:	10000019 	b	824 <n39_jr_test+0x824>
     7c0:	00000000 	nop
     7c4:	00000000 	nop
     7c8:	00000021 	move	zero,zero
     7cc:	00000021 	move	zero,zero
     7d0:	00000021 	move	zero,zero
     7d4:	01000008 	jr	t0
     7d8:	00000000 	nop
     7dc:	10000011 	b	824 <n39_jr_test+0x824>
     7e0:	00000000 	nop
     7e4:	00000000 	nop
     7e8:	00000021 	move	zero,zero
     7ec:	00000021 	move	zero,zero
     7f0:	00000021 	move	zero,zero
     7f4:	00000021 	move	zero,zero
     7f8:	00000021 	move	zero,zero
     7fc:	00000021 	move	zero,zero
     800:	00000021 	move	zero,zero
     804:	00000021 	move	zero,zero
     808:	00000021 	move	zero,zero
     80c:	00000021 	move	zero,zero
     810:	00000021 	move	zero,zero
     814:	00000021 	move	zero,zero
     818:	00000021 	move	zero,zero
     81c:	3c12b8da 	lui	s2,0xb8da
     820:	36521d86 	ori	s2,s2,0x1d86
     824:	00000000 	nop
     828:	3c147089 	lui	s4,0x7089
     82c:	3694b600 	ori	s4,s4,0xb600
     830:	1614275d 	bne	s0,s4,a5a8 <inst_error>
     834:	00000000 	nop
     838:	00000000 	nop
     83c:	3c15b8da 	lui	s5,0xb8da
     840:	36b51d86 	ori	s5,s5,0x1d86
     844:	16552758 	bne	s2,s5,a5a8 <inst_error>
     848:	00000000 	nop
     84c:	00000000 	nop
     850:	3c0c7292 	lui	t4,0x7292
     854:	358caac0 	ori	t4,t4,0xaac0
     858:	3c0d0e66 	lui	t5,0xe66
     85c:	35adc29a 	ori	t5,t5,0xc29a
     860:	24100000 	li	s0,0
     864:	24120000 	li	s2,0
     868:	3c080000 	lui	t0,0x0
     86c:	25080884 	addiu	t0,t0,2180
     870:	3c090000 	lui	t1,0x0
     874:	252908f0 	addiu	t1,t1,2288
     878:	1000000b 	b	8a8 <n39_jr_test+0x8a8>
     87c:	00000000 	nop
     880:	00000000 	nop
     884:	3c107292 	lui	s0,0x7292
     888:	01200008 	jr	t1
     88c:	3610aac0 	ori	s0,s0,0xaac0
     890:	10000019 	b	8f8 <n39_jr_test+0x8f8>
     894:	00000000 	nop
     898:	00000000 	nop
     89c:	00000021 	move	zero,zero
     8a0:	00000021 	move	zero,zero
     8a4:	00000021 	move	zero,zero
     8a8:	01000008 	jr	t0
     8ac:	00000000 	nop
     8b0:	10000011 	b	8f8 <n39_jr_test+0x8f8>
     8b4:	00000000 	nop
     8b8:	00000000 	nop
     8bc:	00000021 	move	zero,zero
     8c0:	00000021 	move	zero,zero
     8c4:	00000021 	move	zero,zero
     8c8:	00000021 	move	zero,zero
     8cc:	00000021 	move	zero,zero
     8d0:	00000021 	move	zero,zero
     8d4:	00000021 	move	zero,zero
     8d8:	00000021 	move	zero,zero
     8dc:	00000021 	move	zero,zero
     8e0:	00000021 	move	zero,zero
     8e4:	00000021 	move	zero,zero
     8e8:	00000021 	move	zero,zero
     8ec:	00000021 	move	zero,zero
     8f0:	3c120e66 	lui	s2,0xe66
     8f4:	3652c29a 	ori	s2,s2,0xc29a
     8f8:	00000000 	nop
     8fc:	3c147292 	lui	s4,0x7292
     900:	3694aac0 	ori	s4,s4,0xaac0
     904:	16142728 	bne	s0,s4,a5a8 <inst_error>
     908:	00000000 	nop
     90c:	00000000 	nop
     910:	3c150e66 	lui	s5,0xe66
     914:	36b5c29a 	ori	s5,s5,0xc29a
     918:	16552723 	bne	s2,s5,a5a8 <inst_error>
     91c:	00000000 	nop
     920:	00000000 	nop
     924:	3c0c8c9b 	lui	t4,0x8c9b
     928:	358cab9e 	ori	t4,t4,0xab9e
     92c:	3c0d32b2 	lui	t5,0x32b2
     930:	35ad7d8c 	ori	t5,t5,0x7d8c
     934:	24100000 	li	s0,0
     938:	24120000 	li	s2,0
     93c:	3c080000 	lui	t0,0x0
     940:	25080958 	addiu	t0,t0,2392
     944:	3c090000 	lui	t1,0x0
     948:	252909c4 	addiu	t1,t1,2500
     94c:	1000000b 	b	97c <n39_jr_test+0x97c>
     950:	00000000 	nop
     954:	00000000 	nop
     958:	3c108c9b 	lui	s0,0x8c9b
     95c:	01200008 	jr	t1
     960:	3610ab9e 	ori	s0,s0,0xab9e
     964:	10000019 	b	9cc <n39_jr_test+0x9cc>
     968:	00000000 	nop
     96c:	00000000 	nop
     970:	00000021 	move	zero,zero
     974:	00000021 	move	zero,zero
     978:	00000021 	move	zero,zero
     97c:	01000008 	jr	t0
     980:	00000000 	nop
     984:	10000011 	b	9cc <n39_jr_test+0x9cc>
     988:	00000000 	nop
     98c:	00000000 	nop
     990:	00000021 	move	zero,zero
     994:	00000021 	move	zero,zero
     998:	00000021 	move	zero,zero
     99c:	00000021 	move	zero,zero
     9a0:	00000021 	move	zero,zero
     9a4:	00000021 	move	zero,zero
     9a8:	00000021 	move	zero,zero
     9ac:	00000021 	move	zero,zero
     9b0:	00000021 	move	zero,zero
     9b4:	00000021 	move	zero,zero
     9b8:	00000021 	move	zero,zero
     9bc:	00000021 	move	zero,zero
     9c0:	00000021 	move	zero,zero
     9c4:	3c1232b2 	lui	s2,0x32b2
     9c8:	36527d8c 	ori	s2,s2,0x7d8c
     9cc:	00000000 	nop
     9d0:	3c148c9b 	lui	s4,0x8c9b
     9d4:	3694ab9e 	ori	s4,s4,0xab9e
     9d8:	161426f3 	bne	s0,s4,a5a8 <inst_error>
     9dc:	00000000 	nop
     9e0:	00000000 	nop
     9e4:	3c1532b2 	lui	s5,0x32b2
     9e8:	36b57d8c 	ori	s5,s5,0x7d8c
     9ec:	165526ee 	bne	s2,s5,a5a8 <inst_error>
     9f0:	00000000 	nop
     9f4:	00000000 	nop
     9f8:	3c0c1bac 	lui	t4,0x1bac
     9fc:	358c298c 	ori	t4,t4,0x298c
     a00:	3c0d64cd 	lui	t5,0x64cd
     a04:	35ad8070 	ori	t5,t5,0x8070
     a08:	24100000 	li	s0,0
     a0c:	24120000 	li	s2,0
     a10:	3c080000 	lui	t0,0x0
     a14:	25080a2c 	addiu	t0,t0,2604
     a18:	3c090000 	lui	t1,0x0
     a1c:	25290a98 	addiu	t1,t1,2712
     a20:	1000000b 	b	a50 <n39_jr_test+0xa50>
     a24:	00000000 	nop
     a28:	00000000 	nop
     a2c:	3c101bac 	lui	s0,0x1bac
     a30:	01200008 	jr	t1
     a34:	3610298c 	ori	s0,s0,0x298c
     a38:	10000019 	b	aa0 <n39_jr_test+0xaa0>
     a3c:	00000000 	nop
     a40:	00000000 	nop
     a44:	00000021 	move	zero,zero
     a48:	00000021 	move	zero,zero
     a4c:	00000021 	move	zero,zero
     a50:	01000008 	jr	t0
     a54:	00000000 	nop
     a58:	10000011 	b	aa0 <n39_jr_test+0xaa0>
     a5c:	00000000 	nop
     a60:	00000000 	nop
     a64:	00000021 	move	zero,zero
     a68:	00000021 	move	zero,zero
     a6c:	00000021 	move	zero,zero
     a70:	00000021 	move	zero,zero
     a74:	00000021 	move	zero,zero
     a78:	00000021 	move	zero,zero
     a7c:	00000021 	move	zero,zero
     a80:	00000021 	move	zero,zero
     a84:	00000021 	move	zero,zero
     a88:	00000021 	move	zero,zero
     a8c:	00000021 	move	zero,zero
     a90:	00000021 	move	zero,zero
     a94:	00000021 	move	zero,zero
     a98:	3c1264cd 	lui	s2,0x64cd
     a9c:	36528070 	ori	s2,s2,0x8070
     aa0:	00000000 	nop
     aa4:	3c141bac 	lui	s4,0x1bac
     aa8:	3694298c 	ori	s4,s4,0x298c
     aac:	161426be 	bne	s0,s4,a5a8 <inst_error>
     ab0:	00000000 	nop
     ab4:	00000000 	nop
     ab8:	3c1564cd 	lui	s5,0x64cd
     abc:	36b58070 	ori	s5,s5,0x8070
     ac0:	165526b9 	bne	s2,s5,a5a8 <inst_error>
     ac4:	00000000 	nop
     ac8:	00000000 	nop
     acc:	3c0cf6cc 	lui	t4,0xf6cc
     ad0:	358ca88d 	ori	t4,t4,0xa88d
     ad4:	3c0d57d6 	lui	t5,0x57d6
     ad8:	35ad4306 	ori	t5,t5,0x4306
     adc:	24100000 	li	s0,0
     ae0:	24120000 	li	s2,0
     ae4:	3c080000 	lui	t0,0x0
     ae8:	25080b00 	addiu	t0,t0,2816
     aec:	3c090000 	lui	t1,0x0
     af0:	25290b6c 	addiu	t1,t1,2924
     af4:	1000000b 	b	b24 <n39_jr_test+0xb24>
     af8:	00000000 	nop
     afc:	00000000 	nop
     b00:	3c10f6cc 	lui	s0,0xf6cc
     b04:	01200008 	jr	t1
     b08:	3610a88d 	ori	s0,s0,0xa88d
     b0c:	10000019 	b	b74 <n39_jr_test+0xb74>
     b10:	00000000 	nop
     b14:	00000000 	nop
     b18:	00000021 	move	zero,zero
     b1c:	00000021 	move	zero,zero
     b20:	00000021 	move	zero,zero
     b24:	01000008 	jr	t0
     b28:	00000000 	nop
     b2c:	10000011 	b	b74 <n39_jr_test+0xb74>
     b30:	00000000 	nop
     b34:	00000000 	nop
     b38:	00000021 	move	zero,zero
     b3c:	00000021 	move	zero,zero
     b40:	00000021 	move	zero,zero
     b44:	00000021 	move	zero,zero
     b48:	00000021 	move	zero,zero
     b4c:	00000021 	move	zero,zero
     b50:	00000021 	move	zero,zero
     b54:	00000021 	move	zero,zero
     b58:	00000021 	move	zero,zero
     b5c:	00000021 	move	zero,zero
     b60:	00000021 	move	zero,zero
     b64:	00000021 	move	zero,zero
     b68:	00000021 	move	zero,zero
     b6c:	3c1257d6 	lui	s2,0x57d6
     b70:	36524306 	ori	s2,s2,0x4306
     b74:	00000000 	nop
     b78:	3c14f6cc 	lui	s4,0xf6cc
     b7c:	3694a88d 	ori	s4,s4,0xa88d
     b80:	16142689 	bne	s0,s4,a5a8 <inst_error>
     b84:	00000000 	nop
     b88:	00000000 	nop
     b8c:	3c1557d6 	lui	s5,0x57d6
     b90:	36b54306 	ori	s5,s5,0x4306
     b94:	16552684 	bne	s2,s5,a5a8 <inst_error>
     b98:	00000000 	nop
     b9c:	00000000 	nop
     ba0:	3c0cb792 	lui	t4,0xb792
     ba4:	358cbde0 	ori	t4,t4,0xbde0
     ba8:	3c0d0ac1 	lui	t5,0xac1
     bac:	35adda9a 	ori	t5,t5,0xda9a
     bb0:	24100000 	li	s0,0
     bb4:	24120000 	li	s2,0
     bb8:	3c080000 	lui	t0,0x0
     bbc:	25080bd4 	addiu	t0,t0,3028
     bc0:	3c090000 	lui	t1,0x0
     bc4:	25290c40 	addiu	t1,t1,3136
     bc8:	1000000b 	b	bf8 <n39_jr_test+0xbf8>
     bcc:	00000000 	nop
     bd0:	00000000 	nop
     bd4:	3c10b792 	lui	s0,0xb792
     bd8:	01200008 	jr	t1
     bdc:	3610bde0 	ori	s0,s0,0xbde0
     be0:	10000019 	b	c48 <n39_jr_test+0xc48>
     be4:	00000000 	nop
     be8:	00000000 	nop
     bec:	00000021 	move	zero,zero
     bf0:	00000021 	move	zero,zero
     bf4:	00000021 	move	zero,zero
     bf8:	01000008 	jr	t0
     bfc:	00000000 	nop
     c00:	10000011 	b	c48 <n39_jr_test+0xc48>
     c04:	00000000 	nop
     c08:	00000000 	nop
     c0c:	00000021 	move	zero,zero
     c10:	00000021 	move	zero,zero
     c14:	00000021 	move	zero,zero
     c18:	00000021 	move	zero,zero
     c1c:	00000021 	move	zero,zero
     c20:	00000021 	move	zero,zero
     c24:	00000021 	move	zero,zero
     c28:	00000021 	move	zero,zero
     c2c:	00000021 	move	zero,zero
     c30:	00000021 	move	zero,zero
     c34:	00000021 	move	zero,zero
     c38:	00000021 	move	zero,zero
     c3c:	00000021 	move	zero,zero
     c40:	3c120ac1 	lui	s2,0xac1
     c44:	3652da9a 	ori	s2,s2,0xda9a
     c48:	00000000 	nop
     c4c:	3c14b792 	lui	s4,0xb792
     c50:	3694bde0 	ori	s4,s4,0xbde0
     c54:	16142654 	bne	s0,s4,a5a8 <inst_error>
     c58:	00000000 	nop
     c5c:	00000000 	nop
     c60:	3c150ac1 	lui	s5,0xac1
     c64:	36b5da9a 	ori	s5,s5,0xda9a
     c68:	1655264f 	bne	s2,s5,a5a8 <inst_error>
     c6c:	00000000 	nop
     c70:	00000000 	nop
     c74:	3c0cd694 	lui	t4,0xd694
     c78:	358c5e3f 	ori	t4,t4,0x5e3f
     c7c:	3c0d4a8c 	lui	t5,0x4a8c
     c80:	35ada140 	ori	t5,t5,0xa140
     c84:	24100000 	li	s0,0
     c88:	24120000 	li	s2,0
     c8c:	3c080000 	lui	t0,0x0
     c90:	25080ca8 	addiu	t0,t0,3240
     c94:	3c090000 	lui	t1,0x0
     c98:	25290d14 	addiu	t1,t1,3348
     c9c:	1000000b 	b	ccc <n39_jr_test+0xccc>
     ca0:	00000000 	nop
     ca4:	00000000 	nop
     ca8:	3c10d694 	lui	s0,0xd694
     cac:	01200008 	jr	t1
     cb0:	36105e3f 	ori	s0,s0,0x5e3f
     cb4:	10000019 	b	d1c <n39_jr_test+0xd1c>
     cb8:	00000000 	nop
     cbc:	00000000 	nop
     cc0:	00000021 	move	zero,zero
     cc4:	00000021 	move	zero,zero
     cc8:	00000021 	move	zero,zero
     ccc:	01000008 	jr	t0
     cd0:	00000000 	nop
     cd4:	10000011 	b	d1c <n39_jr_test+0xd1c>
     cd8:	00000000 	nop
     cdc:	00000000 	nop
     ce0:	00000021 	move	zero,zero
     ce4:	00000021 	move	zero,zero
     ce8:	00000021 	move	zero,zero
     cec:	00000021 	move	zero,zero
     cf0:	00000021 	move	zero,zero
     cf4:	00000021 	move	zero,zero
     cf8:	00000021 	move	zero,zero
     cfc:	00000021 	move	zero,zero
     d00:	00000021 	move	zero,zero
     d04:	00000021 	move	zero,zero
     d08:	00000021 	move	zero,zero
     d0c:	00000021 	move	zero,zero
     d10:	00000021 	move	zero,zero
     d14:	3c124a8c 	lui	s2,0x4a8c
     d18:	3652a140 	ori	s2,s2,0xa140
     d1c:	00000000 	nop
     d20:	3c14d694 	lui	s4,0xd694
     d24:	36945e3f 	ori	s4,s4,0x5e3f
     d28:	1614261f 	bne	s0,s4,a5a8 <inst_error>
     d2c:	00000000 	nop
     d30:	00000000 	nop
     d34:	3c154a8c 	lui	s5,0x4a8c
     d38:	36b5a140 	ori	s5,s5,0xa140
     d3c:	1655261a 	bne	s2,s5,a5a8 <inst_error>
     d40:	00000000 	nop
     d44:	00000000 	nop
     d48:	3c0c6c8b 	lui	t4,0x6c8b
     d4c:	358c4b9e 	ori	t4,t4,0x4b9e
     d50:	3c0da614 	lui	t5,0xa614
     d54:	35add1d3 	ori	t5,t5,0xd1d3
     d58:	24100000 	li	s0,0
     d5c:	24120000 	li	s2,0
     d60:	3c080000 	lui	t0,0x0
     d64:	25080d7c 	addiu	t0,t0,3452
     d68:	3c090000 	lui	t1,0x0
     d6c:	25290de8 	addiu	t1,t1,3560
     d70:	1000000b 	b	da0 <n39_jr_test+0xda0>
     d74:	00000000 	nop
     d78:	00000000 	nop
     d7c:	3c106c8b 	lui	s0,0x6c8b
     d80:	01200008 	jr	t1
     d84:	36104b9e 	ori	s0,s0,0x4b9e
     d88:	10000019 	b	df0 <n39_jr_test+0xdf0>
     d8c:	00000000 	nop
     d90:	00000000 	nop
     d94:	00000021 	move	zero,zero
     d98:	00000021 	move	zero,zero
     d9c:	00000021 	move	zero,zero
     da0:	01000008 	jr	t0
     da4:	00000000 	nop
     da8:	10000011 	b	df0 <n39_jr_test+0xdf0>
     dac:	00000000 	nop
     db0:	00000000 	nop
     db4:	00000021 	move	zero,zero
     db8:	00000021 	move	zero,zero
     dbc:	00000021 	move	zero,zero
     dc0:	00000021 	move	zero,zero
     dc4:	00000021 	move	zero,zero
     dc8:	00000021 	move	zero,zero
     dcc:	00000021 	move	zero,zero
     dd0:	00000021 	move	zero,zero
     dd4:	00000021 	move	zero,zero
     dd8:	00000021 	move	zero,zero
     ddc:	00000021 	move	zero,zero
     de0:	00000021 	move	zero,zero
     de4:	00000021 	move	zero,zero
     de8:	3c12a614 	lui	s2,0xa614
     dec:	3652d1d3 	ori	s2,s2,0xd1d3
     df0:	00000000 	nop
     df4:	3c146c8b 	lui	s4,0x6c8b
     df8:	36944b9e 	ori	s4,s4,0x4b9e
     dfc:	161425ea 	bne	s0,s4,a5a8 <inst_error>
     e00:	00000000 	nop
     e04:	00000000 	nop
     e08:	3c15a614 	lui	s5,0xa614
     e0c:	36b5d1d3 	ori	s5,s5,0xd1d3
     e10:	165525e5 	bne	s2,s5,a5a8 <inst_error>
     e14:	00000000 	nop
     e18:	00000000 	nop
     e1c:	3c0cb1ba 	lui	t4,0xb1ba
     e20:	358c84c0 	ori	t4,t4,0x84c0
     e24:	3c0ddebf 	lui	t5,0xdebf
     e28:	35ad6380 	ori	t5,t5,0x6380
     e2c:	24100000 	li	s0,0
     e30:	24120000 	li	s2,0
     e34:	3c080000 	lui	t0,0x0
     e38:	25080e50 	addiu	t0,t0,3664
     e3c:	3c090000 	lui	t1,0x0
     e40:	25290ebc 	addiu	t1,t1,3772
     e44:	1000000b 	b	e74 <n39_jr_test+0xe74>
     e48:	00000000 	nop
     e4c:	00000000 	nop
     e50:	3c10b1ba 	lui	s0,0xb1ba
     e54:	01200008 	jr	t1
     e58:	361084c0 	ori	s0,s0,0x84c0
     e5c:	10000019 	b	ec4 <n39_jr_test+0xec4>
     e60:	00000000 	nop
     e64:	00000000 	nop
     e68:	00000021 	move	zero,zero
     e6c:	00000021 	move	zero,zero
     e70:	00000021 	move	zero,zero
     e74:	01000008 	jr	t0
     e78:	00000000 	nop
     e7c:	10000011 	b	ec4 <n39_jr_test+0xec4>
     e80:	00000000 	nop
     e84:	00000000 	nop
     e88:	00000021 	move	zero,zero
     e8c:	00000021 	move	zero,zero
     e90:	00000021 	move	zero,zero
     e94:	00000021 	move	zero,zero
     e98:	00000021 	move	zero,zero
     e9c:	00000021 	move	zero,zero
     ea0:	00000021 	move	zero,zero
     ea4:	00000021 	move	zero,zero
     ea8:	00000021 	move	zero,zero
     eac:	00000021 	move	zero,zero
     eb0:	00000021 	move	zero,zero
     eb4:	00000021 	move	zero,zero
     eb8:	00000021 	move	zero,zero
     ebc:	3c12debf 	lui	s2,0xdebf
     ec0:	36526380 	ori	s2,s2,0x6380
     ec4:	00000000 	nop
     ec8:	3c14b1ba 	lui	s4,0xb1ba
     ecc:	369484c0 	ori	s4,s4,0x84c0
     ed0:	161425b5 	bne	s0,s4,a5a8 <inst_error>
     ed4:	00000000 	nop
     ed8:	00000000 	nop
     edc:	3c15debf 	lui	s5,0xdebf
     ee0:	36b56380 	ori	s5,s5,0x6380
     ee4:	165525b0 	bne	s2,s5,a5a8 <inst_error>
     ee8:	00000000 	nop
     eec:	00000000 	nop
     ef0:	3c0c9090 	lui	t4,0x9090
     ef4:	358c1228 	ori	t4,t4,0x1228
     ef8:	3c0d33c3 	lui	t5,0x33c3
     efc:	35ad2888 	ori	t5,t5,0x2888
     f00:	24100000 	li	s0,0
     f04:	24120000 	li	s2,0
     f08:	3c080000 	lui	t0,0x0
     f0c:	25080f24 	addiu	t0,t0,3876
     f10:	3c090000 	lui	t1,0x0
     f14:	25290f90 	addiu	t1,t1,3984
     f18:	1000000b 	b	f48 <n39_jr_test+0xf48>
     f1c:	00000000 	nop
     f20:	00000000 	nop
     f24:	3c109090 	lui	s0,0x9090
     f28:	01200008 	jr	t1
     f2c:	36101228 	ori	s0,s0,0x1228
     f30:	10000019 	b	f98 <n39_jr_test+0xf98>
     f34:	00000000 	nop
     f38:	00000000 	nop
     f3c:	00000021 	move	zero,zero
     f40:	00000021 	move	zero,zero
     f44:	00000021 	move	zero,zero
     f48:	01000008 	jr	t0
     f4c:	00000000 	nop
     f50:	10000011 	b	f98 <n39_jr_test+0xf98>
     f54:	00000000 	nop
     f58:	00000000 	nop
     f5c:	00000021 	move	zero,zero
     f60:	00000021 	move	zero,zero
     f64:	00000021 	move	zero,zero
     f68:	00000021 	move	zero,zero
     f6c:	00000021 	move	zero,zero
     f70:	00000021 	move	zero,zero
     f74:	00000021 	move	zero,zero
     f78:	00000021 	move	zero,zero
     f7c:	00000021 	move	zero,zero
     f80:	00000021 	move	zero,zero
     f84:	00000021 	move	zero,zero
     f88:	00000021 	move	zero,zero
     f8c:	00000021 	move	zero,zero
     f90:	3c1233c3 	lui	s2,0x33c3
     f94:	36522888 	ori	s2,s2,0x2888
     f98:	00000000 	nop
     f9c:	3c149090 	lui	s4,0x9090
     fa0:	36941228 	ori	s4,s4,0x1228
     fa4:	16142580 	bne	s0,s4,a5a8 <inst_error>
     fa8:	00000000 	nop
     fac:	00000000 	nop
     fb0:	3c1533c3 	lui	s5,0x33c3
     fb4:	36b52888 	ori	s5,s5,0x2888
     fb8:	1655257b 	bne	s2,s5,a5a8 <inst_error>
     fbc:	00000000 	nop
     fc0:	00000000 	nop
     fc4:	3c0cc7eb 	lui	t4,0xc7eb
     fc8:	358c69e0 	ori	t4,t4,0x69e0
     fcc:	3c0d5879 	lui	t5,0x5879
     fd0:	35ad6a6c 	ori	t5,t5,0x6a6c
     fd4:	24100000 	li	s0,0
     fd8:	24120000 	li	s2,0
     fdc:	3c080000 	lui	t0,0x0
     fe0:	25080ff8 	addiu	t0,t0,4088
     fe4:	3c090000 	lui	t1,0x0
     fe8:	25291064 	addiu	t1,t1,4196
     fec:	1000000b 	b	101c <n39_jr_test+0x101c>
     ff0:	00000000 	nop
     ff4:	00000000 	nop
     ff8:	3c10c7eb 	lui	s0,0xc7eb
     ffc:	01200008 	jr	t1
    1000:	361069e0 	ori	s0,s0,0x69e0
    1004:	10000019 	b	106c <n39_jr_test+0x106c>
    1008:	00000000 	nop
    100c:	00000000 	nop
    1010:	00000021 	move	zero,zero
    1014:	00000021 	move	zero,zero
    1018:	00000021 	move	zero,zero
    101c:	01000008 	jr	t0
    1020:	00000000 	nop
    1024:	10000011 	b	106c <n39_jr_test+0x106c>
    1028:	00000000 	nop
    102c:	00000000 	nop
    1030:	00000021 	move	zero,zero
    1034:	00000021 	move	zero,zero
    1038:	00000021 	move	zero,zero
    103c:	00000021 	move	zero,zero
    1040:	00000021 	move	zero,zero
    1044:	00000021 	move	zero,zero
    1048:	00000021 	move	zero,zero
    104c:	00000021 	move	zero,zero
    1050:	00000021 	move	zero,zero
    1054:	00000021 	move	zero,zero
    1058:	00000021 	move	zero,zero
    105c:	00000021 	move	zero,zero
    1060:	00000021 	move	zero,zero
    1064:	3c125879 	lui	s2,0x5879
    1068:	36526a6c 	ori	s2,s2,0x6a6c
    106c:	00000000 	nop
    1070:	3c14c7eb 	lui	s4,0xc7eb
    1074:	369469e0 	ori	s4,s4,0x69e0
    1078:	1614254b 	bne	s0,s4,a5a8 <inst_error>
    107c:	00000000 	nop
    1080:	00000000 	nop
    1084:	3c155879 	lui	s5,0x5879
    1088:	36b56a6c 	ori	s5,s5,0x6a6c
    108c:	16552546 	bne	s2,s5,a5a8 <inst_error>
    1090:	00000000 	nop
    1094:	00000000 	nop
    1098:	3c0c549e 	lui	t4,0x549e
    109c:	358cc268 	ori	t4,t4,0xc268
    10a0:	3c0dc98b 	lui	t5,0xc98b
    10a4:	35ad6a8a 	ori	t5,t5,0x6a8a
    10a8:	24100000 	li	s0,0
    10ac:	24120000 	li	s2,0
    10b0:	3c080000 	lui	t0,0x0
    10b4:	250810cc 	addiu	t0,t0,4300
    10b8:	3c090000 	lui	t1,0x0
    10bc:	25291138 	addiu	t1,t1,4408
    10c0:	1000000b 	b	10f0 <n39_jr_test+0x10f0>
    10c4:	00000000 	nop
    10c8:	00000000 	nop
    10cc:	3c10549e 	lui	s0,0x549e
    10d0:	01200008 	jr	t1
    10d4:	3610c268 	ori	s0,s0,0xc268
    10d8:	10000019 	b	1140 <n39_jr_test+0x1140>
    10dc:	00000000 	nop
    10e0:	00000000 	nop
    10e4:	00000021 	move	zero,zero
    10e8:	00000021 	move	zero,zero
    10ec:	00000021 	move	zero,zero
    10f0:	01000008 	jr	t0
    10f4:	00000000 	nop
    10f8:	10000011 	b	1140 <n39_jr_test+0x1140>
    10fc:	00000000 	nop
    1100:	00000000 	nop
    1104:	00000021 	move	zero,zero
    1108:	00000021 	move	zero,zero
    110c:	00000021 	move	zero,zero
    1110:	00000021 	move	zero,zero
    1114:	00000021 	move	zero,zero
    1118:	00000021 	move	zero,zero
    111c:	00000021 	move	zero,zero
    1120:	00000021 	move	zero,zero
    1124:	00000021 	move	zero,zero
    1128:	00000021 	move	zero,zero
    112c:	00000021 	move	zero,zero
    1130:	00000021 	move	zero,zero
    1134:	00000021 	move	zero,zero
    1138:	3c12c98b 	lui	s2,0xc98b
    113c:	36526a8a 	ori	s2,s2,0x6a8a
    1140:	00000000 	nop
    1144:	3c14549e 	lui	s4,0x549e
    1148:	3694c268 	ori	s4,s4,0xc268
    114c:	16142516 	bne	s0,s4,a5a8 <inst_error>
    1150:	00000000 	nop
    1154:	00000000 	nop
    1158:	3c15c98b 	lui	s5,0xc98b
    115c:	36b56a8a 	ori	s5,s5,0x6a8a
    1160:	16552511 	bne	s2,s5,a5a8 <inst_error>
    1164:	00000000 	nop
    1168:	00000000 	nop
    116c:	3c0cfb01 	lui	t4,0xfb01
    1170:	358c0550 	ori	t4,t4,0x550
    1174:	3c0d5114 	lui	t5,0x5114
    1178:	35adcdbc 	ori	t5,t5,0xcdbc
    117c:	24100000 	li	s0,0
    1180:	24120000 	li	s2,0
    1184:	3c080000 	lui	t0,0x0
    1188:	250811a0 	addiu	t0,t0,4512
    118c:	3c090000 	lui	t1,0x0
    1190:	2529120c 	addiu	t1,t1,4620
    1194:	1000000b 	b	11c4 <n39_jr_test+0x11c4>
    1198:	00000000 	nop
    119c:	00000000 	nop
    11a0:	3c10fb01 	lui	s0,0xfb01
    11a4:	01200008 	jr	t1
    11a8:	36100550 	ori	s0,s0,0x550
    11ac:	10000019 	b	1214 <n39_jr_test+0x1214>
    11b0:	00000000 	nop
    11b4:	00000000 	nop
    11b8:	00000021 	move	zero,zero
    11bc:	00000021 	move	zero,zero
    11c0:	00000021 	move	zero,zero
    11c4:	01000008 	jr	t0
    11c8:	00000000 	nop
    11cc:	10000011 	b	1214 <n39_jr_test+0x1214>
    11d0:	00000000 	nop
    11d4:	00000000 	nop
    11d8:	00000021 	move	zero,zero
    11dc:	00000021 	move	zero,zero
    11e0:	00000021 	move	zero,zero
    11e4:	00000021 	move	zero,zero
    11e8:	00000021 	move	zero,zero
    11ec:	00000021 	move	zero,zero
    11f0:	00000021 	move	zero,zero
    11f4:	00000021 	move	zero,zero
    11f8:	00000021 	move	zero,zero
    11fc:	00000021 	move	zero,zero
    1200:	00000021 	move	zero,zero
    1204:	00000021 	move	zero,zero
    1208:	00000021 	move	zero,zero
    120c:	3c125114 	lui	s2,0x5114
    1210:	3652cdbc 	ori	s2,s2,0xcdbc
    1214:	00000000 	nop
    1218:	3c14fb01 	lui	s4,0xfb01
    121c:	36940550 	ori	s4,s4,0x550
    1220:	161424e1 	bne	s0,s4,a5a8 <inst_error>
    1224:	00000000 	nop
    1228:	00000000 	nop
    122c:	3c155114 	lui	s5,0x5114
    1230:	36b5cdbc 	ori	s5,s5,0xcdbc
    1234:	165524dc 	bne	s2,s5,a5a8 <inst_error>
    1238:	00000000 	nop
    123c:	00000000 	nop
    1240:	3c0c62bc 	lui	t4,0x62bc
    1244:	358c6ba6 	ori	t4,t4,0x6ba6
    1248:	3c0d7be6 	lui	t5,0x7be6
    124c:	35ad4fa2 	ori	t5,t5,0x4fa2
    1250:	24100000 	li	s0,0
    1254:	24120000 	li	s2,0
    1258:	3c080000 	lui	t0,0x0
    125c:	25081274 	addiu	t0,t0,4724
    1260:	3c090000 	lui	t1,0x0
    1264:	252912e0 	addiu	t1,t1,4832
    1268:	1000000b 	b	1298 <n39_jr_test+0x1298>
    126c:	00000000 	nop
    1270:	00000000 	nop
    1274:	3c1062bc 	lui	s0,0x62bc
    1278:	01200008 	jr	t1
    127c:	36106ba6 	ori	s0,s0,0x6ba6
    1280:	10000019 	b	12e8 <n39_jr_test+0x12e8>
    1284:	00000000 	nop
    1288:	00000000 	nop
    128c:	00000021 	move	zero,zero
    1290:	00000021 	move	zero,zero
    1294:	00000021 	move	zero,zero
    1298:	01000008 	jr	t0
    129c:	00000000 	nop
    12a0:	10000011 	b	12e8 <n39_jr_test+0x12e8>
    12a4:	00000000 	nop
    12a8:	00000000 	nop
    12ac:	00000021 	move	zero,zero
    12b0:	00000021 	move	zero,zero
    12b4:	00000021 	move	zero,zero
    12b8:	00000021 	move	zero,zero
    12bc:	00000021 	move	zero,zero
    12c0:	00000021 	move	zero,zero
    12c4:	00000021 	move	zero,zero
    12c8:	00000021 	move	zero,zero
    12cc:	00000021 	move	zero,zero
    12d0:	00000021 	move	zero,zero
    12d4:	00000021 	move	zero,zero
    12d8:	00000021 	move	zero,zero
    12dc:	00000021 	move	zero,zero
    12e0:	3c127be6 	lui	s2,0x7be6
    12e4:	36524fa2 	ori	s2,s2,0x4fa2
    12e8:	00000000 	nop
    12ec:	3c1462bc 	lui	s4,0x62bc
    12f0:	36946ba6 	ori	s4,s4,0x6ba6
    12f4:	161424ac 	bne	s0,s4,a5a8 <inst_error>
    12f8:	00000000 	nop
    12fc:	00000000 	nop
    1300:	3c157be6 	lui	s5,0x7be6
    1304:	36b54fa2 	ori	s5,s5,0x4fa2
    1308:	165524a7 	bne	s2,s5,a5a8 <inst_error>
    130c:	00000000 	nop
    1310:	00000000 	nop
    1314:	3c0cbf3b 	lui	t4,0xbf3b
    1318:	358ca098 	ori	t4,t4,0xa098
    131c:	3c0d0cd8 	lui	t5,0xcd8
    1320:	35ad3240 	ori	t5,t5,0x3240
    1324:	24100000 	li	s0,0
    1328:	24120000 	li	s2,0
    132c:	3c080000 	lui	t0,0x0
    1330:	25081348 	addiu	t0,t0,4936
    1334:	3c090000 	lui	t1,0x0
    1338:	252913b4 	addiu	t1,t1,5044
    133c:	1000000b 	b	136c <n39_jr_test+0x136c>
    1340:	00000000 	nop
    1344:	00000000 	nop
    1348:	3c10bf3b 	lui	s0,0xbf3b
    134c:	01200008 	jr	t1
    1350:	3610a098 	ori	s0,s0,0xa098
    1354:	10000019 	b	13bc <n39_jr_test+0x13bc>
    1358:	00000000 	nop
    135c:	00000000 	nop
    1360:	00000021 	move	zero,zero
    1364:	00000021 	move	zero,zero
    1368:	00000021 	move	zero,zero
    136c:	01000008 	jr	t0
    1370:	00000000 	nop
    1374:	10000011 	b	13bc <n39_jr_test+0x13bc>
    1378:	00000000 	nop
    137c:	00000000 	nop
    1380:	00000021 	move	zero,zero
    1384:	00000021 	move	zero,zero
    1388:	00000021 	move	zero,zero
    138c:	00000021 	move	zero,zero
    1390:	00000021 	move	zero,zero
    1394:	00000021 	move	zero,zero
    1398:	00000021 	move	zero,zero
    139c:	00000021 	move	zero,zero
    13a0:	00000021 	move	zero,zero
    13a4:	00000021 	move	zero,zero
    13a8:	00000021 	move	zero,zero
    13ac:	00000021 	move	zero,zero
    13b0:	00000021 	move	zero,zero
    13b4:	3c120cd8 	lui	s2,0xcd8
    13b8:	36523240 	ori	s2,s2,0x3240
    13bc:	00000000 	nop
    13c0:	3c14bf3b 	lui	s4,0xbf3b
    13c4:	3694a098 	ori	s4,s4,0xa098
    13c8:	16142477 	bne	s0,s4,a5a8 <inst_error>
    13cc:	00000000 	nop
    13d0:	00000000 	nop
    13d4:	3c150cd8 	lui	s5,0xcd8
    13d8:	36b53240 	ori	s5,s5,0x3240
    13dc:	16552472 	bne	s2,s5,a5a8 <inst_error>
    13e0:	00000000 	nop
    13e4:	00000000 	nop
    13e8:	3c0c3e1a 	lui	t4,0x3e1a
    13ec:	358c96ec 	ori	t4,t4,0x96ec
    13f0:	3c0d5eb2 	lui	t5,0x5eb2
    13f4:	35adc340 	ori	t5,t5,0xc340
    13f8:	24100000 	li	s0,0
    13fc:	24120000 	li	s2,0
    1400:	3c080000 	lui	t0,0x0
    1404:	2508141c 	addiu	t0,t0,5148
    1408:	3c090000 	lui	t1,0x0
    140c:	25291488 	addiu	t1,t1,5256
    1410:	1000000b 	b	1440 <n39_jr_test+0x1440>
    1414:	00000000 	nop
    1418:	00000000 	nop
    141c:	3c103e1a 	lui	s0,0x3e1a
    1420:	01200008 	jr	t1
    1424:	361096ec 	ori	s0,s0,0x96ec
    1428:	10000019 	b	1490 <n39_jr_test+0x1490>
    142c:	00000000 	nop
    1430:	00000000 	nop
    1434:	00000021 	move	zero,zero
    1438:	00000021 	move	zero,zero
    143c:	00000021 	move	zero,zero
    1440:	01000008 	jr	t0
    1444:	00000000 	nop
    1448:	10000011 	b	1490 <n39_jr_test+0x1490>
    144c:	00000000 	nop
    1450:	00000000 	nop
    1454:	00000021 	move	zero,zero
    1458:	00000021 	move	zero,zero
    145c:	00000021 	move	zero,zero
    1460:	00000021 	move	zero,zero
    1464:	00000021 	move	zero,zero
    1468:	00000021 	move	zero,zero
    146c:	00000021 	move	zero,zero
    1470:	00000021 	move	zero,zero
    1474:	00000021 	move	zero,zero
    1478:	00000021 	move	zero,zero
    147c:	00000021 	move	zero,zero
    1480:	00000021 	move	zero,zero
    1484:	00000021 	move	zero,zero
    1488:	3c125eb2 	lui	s2,0x5eb2
    148c:	3652c340 	ori	s2,s2,0xc340
    1490:	00000000 	nop
    1494:	3c143e1a 	lui	s4,0x3e1a
    1498:	369496ec 	ori	s4,s4,0x96ec
    149c:	16142442 	bne	s0,s4,a5a8 <inst_error>
    14a0:	00000000 	nop
    14a4:	00000000 	nop
    14a8:	3c155eb2 	lui	s5,0x5eb2
    14ac:	36b5c340 	ori	s5,s5,0xc340
    14b0:	1655243d 	bne	s2,s5,a5a8 <inst_error>
    14b4:	00000000 	nop
    14b8:	00000000 	nop
    14bc:	3c0c3a7d 	lui	t4,0x3a7d
    14c0:	358ca350 	ori	t4,t4,0xa350
    14c4:	3c0dd06a 	lui	t5,0xd06a
    14c8:	35ad825a 	ori	t5,t5,0x825a
    14cc:	24100000 	li	s0,0
    14d0:	24120000 	li	s2,0
    14d4:	3c080000 	lui	t0,0x0
    14d8:	250814f0 	addiu	t0,t0,5360
    14dc:	3c090000 	lui	t1,0x0
    14e0:	2529155c 	addiu	t1,t1,5468
    14e4:	1000000b 	b	1514 <n39_jr_test+0x1514>
    14e8:	00000000 	nop
    14ec:	00000000 	nop
    14f0:	3c103a7d 	lui	s0,0x3a7d
    14f4:	01200008 	jr	t1
    14f8:	3610a350 	ori	s0,s0,0xa350
    14fc:	10000019 	b	1564 <n39_jr_test+0x1564>
    1500:	00000000 	nop
    1504:	00000000 	nop
    1508:	00000021 	move	zero,zero
    150c:	00000021 	move	zero,zero
    1510:	00000021 	move	zero,zero
    1514:	01000008 	jr	t0
    1518:	00000000 	nop
    151c:	10000011 	b	1564 <n39_jr_test+0x1564>
    1520:	00000000 	nop
    1524:	00000000 	nop
    1528:	00000021 	move	zero,zero
    152c:	00000021 	move	zero,zero
    1530:	00000021 	move	zero,zero
    1534:	00000021 	move	zero,zero
    1538:	00000021 	move	zero,zero
    153c:	00000021 	move	zero,zero
    1540:	00000021 	move	zero,zero
    1544:	00000021 	move	zero,zero
    1548:	00000021 	move	zero,zero
    154c:	00000021 	move	zero,zero
    1550:	00000021 	move	zero,zero
    1554:	00000021 	move	zero,zero
    1558:	00000021 	move	zero,zero
    155c:	3c12d06a 	lui	s2,0xd06a
    1560:	3652825a 	ori	s2,s2,0x825a
    1564:	00000000 	nop
    1568:	3c143a7d 	lui	s4,0x3a7d
    156c:	3694a350 	ori	s4,s4,0xa350
    1570:	1614240d 	bne	s0,s4,a5a8 <inst_error>
    1574:	00000000 	nop
    1578:	00000000 	nop
    157c:	3c15d06a 	lui	s5,0xd06a
    1580:	36b5825a 	ori	s5,s5,0x825a
    1584:	16552408 	bne	s2,s5,a5a8 <inst_error>
    1588:	00000000 	nop
    158c:	00000000 	nop
    1590:	3c0cb2d9 	lui	t4,0xb2d9
    1594:	358c32b0 	ori	t4,t4,0x32b0
    1598:	3c0dc243 	lui	t5,0xc243
    159c:	35ad527a 	ori	t5,t5,0x527a
    15a0:	24100000 	li	s0,0
    15a4:	24120000 	li	s2,0
    15a8:	3c080000 	lui	t0,0x0
    15ac:	250815c4 	addiu	t0,t0,5572
    15b0:	3c090000 	lui	t1,0x0
    15b4:	25291630 	addiu	t1,t1,5680
    15b8:	1000000b 	b	15e8 <n39_jr_test+0x15e8>
    15bc:	00000000 	nop
    15c0:	00000000 	nop
    15c4:	3c10b2d9 	lui	s0,0xb2d9
    15c8:	01200008 	jr	t1
    15cc:	361032b0 	ori	s0,s0,0x32b0
    15d0:	10000019 	b	1638 <n39_jr_test+0x1638>
    15d4:	00000000 	nop
    15d8:	00000000 	nop
    15dc:	00000021 	move	zero,zero
    15e0:	00000021 	move	zero,zero
    15e4:	00000021 	move	zero,zero
    15e8:	01000008 	jr	t0
    15ec:	00000000 	nop
    15f0:	10000011 	b	1638 <n39_jr_test+0x1638>
    15f4:	00000000 	nop
    15f8:	00000000 	nop
    15fc:	00000021 	move	zero,zero
    1600:	00000021 	move	zero,zero
    1604:	00000021 	move	zero,zero
    1608:	00000021 	move	zero,zero
    160c:	00000021 	move	zero,zero
    1610:	00000021 	move	zero,zero
    1614:	00000021 	move	zero,zero
    1618:	00000021 	move	zero,zero
    161c:	00000021 	move	zero,zero
    1620:	00000021 	move	zero,zero
    1624:	00000021 	move	zero,zero
    1628:	00000021 	move	zero,zero
    162c:	00000021 	move	zero,zero
    1630:	3c12c243 	lui	s2,0xc243
    1634:	3652527a 	ori	s2,s2,0x527a
    1638:	00000000 	nop
    163c:	3c14b2d9 	lui	s4,0xb2d9
    1640:	369432b0 	ori	s4,s4,0x32b0
    1644:	161423d8 	bne	s0,s4,a5a8 <inst_error>
    1648:	00000000 	nop
    164c:	00000000 	nop
    1650:	3c15c243 	lui	s5,0xc243
    1654:	36b5527a 	ori	s5,s5,0x527a
    1658:	165523d3 	bne	s2,s5,a5a8 <inst_error>
    165c:	00000000 	nop
    1660:	00000000 	nop
    1664:	3c0c7e8b 	lui	t4,0x7e8b
    1668:	358cef50 	ori	t4,t4,0xef50
    166c:	3c0d8f43 	lui	t5,0x8f43
    1670:	35adbbc0 	ori	t5,t5,0xbbc0
    1674:	24100000 	li	s0,0
    1678:	24120000 	li	s2,0
    167c:	3c080000 	lui	t0,0x0
    1680:	25081698 	addiu	t0,t0,5784
    1684:	3c090000 	lui	t1,0x0
    1688:	25291704 	addiu	t1,t1,5892
    168c:	1000000b 	b	16bc <n39_jr_test+0x16bc>
    1690:	00000000 	nop
    1694:	00000000 	nop
    1698:	3c107e8b 	lui	s0,0x7e8b
    169c:	01200008 	jr	t1
    16a0:	3610ef50 	ori	s0,s0,0xef50
    16a4:	10000019 	b	170c <n39_jr_test+0x170c>
    16a8:	00000000 	nop
    16ac:	00000000 	nop
    16b0:	00000021 	move	zero,zero
    16b4:	00000021 	move	zero,zero
    16b8:	00000021 	move	zero,zero
    16bc:	01000008 	jr	t0
    16c0:	00000000 	nop
    16c4:	10000011 	b	170c <n39_jr_test+0x170c>
    16c8:	00000000 	nop
    16cc:	00000000 	nop
    16d0:	00000021 	move	zero,zero
    16d4:	00000021 	move	zero,zero
    16d8:	00000021 	move	zero,zero
    16dc:	00000021 	move	zero,zero
    16e0:	00000021 	move	zero,zero
    16e4:	00000021 	move	zero,zero
    16e8:	00000021 	move	zero,zero
    16ec:	00000021 	move	zero,zero
    16f0:	00000021 	move	zero,zero
    16f4:	00000021 	move	zero,zero
    16f8:	00000021 	move	zero,zero
    16fc:	00000021 	move	zero,zero
    1700:	00000021 	move	zero,zero
    1704:	3c128f43 	lui	s2,0x8f43
    1708:	3652bbc0 	ori	s2,s2,0xbbc0
    170c:	00000000 	nop
    1710:	3c147e8b 	lui	s4,0x7e8b
    1714:	3694ef50 	ori	s4,s4,0xef50
    1718:	161423a3 	bne	s0,s4,a5a8 <inst_error>
    171c:	00000000 	nop
    1720:	00000000 	nop
    1724:	3c158f43 	lui	s5,0x8f43
    1728:	36b5bbc0 	ori	s5,s5,0xbbc0
    172c:	1655239e 	bne	s2,s5,a5a8 <inst_error>
    1730:	00000000 	nop
    1734:	00000000 	nop
    1738:	3c0cac7b 	lui	t4,0xac7b
    173c:	358ca388 	ori	t4,t4,0xa388
    1740:	3c0dd256 	lui	t5,0xd256
    1744:	35ad010e 	ori	t5,t5,0x10e
    1748:	24100000 	li	s0,0
    174c:	24120000 	li	s2,0
    1750:	3c080000 	lui	t0,0x0
    1754:	2508176c 	addiu	t0,t0,5996
    1758:	3c090000 	lui	t1,0x0
    175c:	252917d8 	addiu	t1,t1,6104
    1760:	1000000b 	b	1790 <n39_jr_test+0x1790>
    1764:	00000000 	nop
    1768:	00000000 	nop
    176c:	3c10ac7b 	lui	s0,0xac7b
    1770:	01200008 	jr	t1
    1774:	3610a388 	ori	s0,s0,0xa388
    1778:	10000019 	b	17e0 <n39_jr_test+0x17e0>
    177c:	00000000 	nop
    1780:	00000000 	nop
    1784:	00000021 	move	zero,zero
    1788:	00000021 	move	zero,zero
    178c:	00000021 	move	zero,zero
    1790:	01000008 	jr	t0
    1794:	00000000 	nop
    1798:	10000011 	b	17e0 <n39_jr_test+0x17e0>
    179c:	00000000 	nop
    17a0:	00000000 	nop
    17a4:	00000021 	move	zero,zero
    17a8:	00000021 	move	zero,zero
    17ac:	00000021 	move	zero,zero
    17b0:	00000021 	move	zero,zero
    17b4:	00000021 	move	zero,zero
    17b8:	00000021 	move	zero,zero
    17bc:	00000021 	move	zero,zero
    17c0:	00000021 	move	zero,zero
    17c4:	00000021 	move	zero,zero
    17c8:	00000021 	move	zero,zero
    17cc:	00000021 	move	zero,zero
    17d0:	00000021 	move	zero,zero
    17d4:	00000021 	move	zero,zero
    17d8:	3c12d256 	lui	s2,0xd256
    17dc:	3652010e 	ori	s2,s2,0x10e
    17e0:	00000000 	nop
    17e4:	3c14ac7b 	lui	s4,0xac7b
    17e8:	3694a388 	ori	s4,s4,0xa388
    17ec:	1614236e 	bne	s0,s4,a5a8 <inst_error>
    17f0:	00000000 	nop
    17f4:	00000000 	nop
    17f8:	3c15d256 	lui	s5,0xd256
    17fc:	36b5010e 	ori	s5,s5,0x10e
    1800:	16552369 	bne	s2,s5,a5a8 <inst_error>
    1804:	00000000 	nop
    1808:	00000000 	nop
    180c:	3c0c15f9 	lui	t4,0x15f9
    1810:	358c0aec 	ori	t4,t4,0xaec
    1814:	3c0d3de2 	lui	t5,0x3de2
    1818:	35ada485 	ori	t5,t5,0xa485
    181c:	24100000 	li	s0,0
    1820:	24120000 	li	s2,0
    1824:	3c080000 	lui	t0,0x0
    1828:	25081840 	addiu	t0,t0,6208
    182c:	3c090000 	lui	t1,0x0
    1830:	252918ac 	addiu	t1,t1,6316
    1834:	1000000b 	b	1864 <n39_jr_test+0x1864>
    1838:	00000000 	nop
    183c:	00000000 	nop
    1840:	3c1015f9 	lui	s0,0x15f9
    1844:	01200008 	jr	t1
    1848:	36100aec 	ori	s0,s0,0xaec
    184c:	10000019 	b	18b4 <n39_jr_test+0x18b4>
    1850:	00000000 	nop
    1854:	00000000 	nop
    1858:	00000021 	move	zero,zero
    185c:	00000021 	move	zero,zero
    1860:	00000021 	move	zero,zero
    1864:	01000008 	jr	t0
    1868:	00000000 	nop
    186c:	10000011 	b	18b4 <n39_jr_test+0x18b4>
    1870:	00000000 	nop
    1874:	00000000 	nop
    1878:	00000021 	move	zero,zero
    187c:	00000021 	move	zero,zero
    1880:	00000021 	move	zero,zero
    1884:	00000021 	move	zero,zero
    1888:	00000021 	move	zero,zero
    188c:	00000021 	move	zero,zero
    1890:	00000021 	move	zero,zero
    1894:	00000021 	move	zero,zero
    1898:	00000021 	move	zero,zero
    189c:	00000021 	move	zero,zero
    18a0:	00000021 	move	zero,zero
    18a4:	00000021 	move	zero,zero
    18a8:	00000021 	move	zero,zero
    18ac:	3c123de2 	lui	s2,0x3de2
    18b0:	3652a485 	ori	s2,s2,0xa485
    18b4:	00000000 	nop
    18b8:	3c1415f9 	lui	s4,0x15f9
    18bc:	36940aec 	ori	s4,s4,0xaec
    18c0:	16142339 	bne	s0,s4,a5a8 <inst_error>
    18c4:	00000000 	nop
    18c8:	00000000 	nop
    18cc:	3c153de2 	lui	s5,0x3de2
    18d0:	36b5a485 	ori	s5,s5,0xa485
    18d4:	16552334 	bne	s2,s5,a5a8 <inst_error>
    18d8:	00000000 	nop
    18dc:	00000000 	nop
    18e0:	3c0c3f50 	lui	t4,0x3f50
    18e4:	358ca7b4 	ori	t4,t4,0xa7b4
    18e8:	3c0dd194 	lui	t5,0xd194
    18ec:	35ad15d8 	ori	t5,t5,0x15d8
    18f0:	24100000 	li	s0,0
    18f4:	24120000 	li	s2,0
    18f8:	3c080000 	lui	t0,0x0
    18fc:	25081914 	addiu	t0,t0,6420
    1900:	3c090000 	lui	t1,0x0
    1904:	25291980 	addiu	t1,t1,6528
    1908:	1000000b 	b	1938 <n39_jr_test+0x1938>
    190c:	00000000 	nop
    1910:	00000000 	nop
    1914:	3c103f50 	lui	s0,0x3f50
    1918:	01200008 	jr	t1
    191c:	3610a7b4 	ori	s0,s0,0xa7b4
    1920:	10000019 	b	1988 <n39_jr_test+0x1988>
    1924:	00000000 	nop
    1928:	00000000 	nop
    192c:	00000021 	move	zero,zero
    1930:	00000021 	move	zero,zero
    1934:	00000021 	move	zero,zero
    1938:	01000008 	jr	t0
    193c:	00000000 	nop
    1940:	10000011 	b	1988 <n39_jr_test+0x1988>
    1944:	00000000 	nop
    1948:	00000000 	nop
    194c:	00000021 	move	zero,zero
    1950:	00000021 	move	zero,zero
    1954:	00000021 	move	zero,zero
    1958:	00000021 	move	zero,zero
    195c:	00000021 	move	zero,zero
    1960:	00000021 	move	zero,zero
    1964:	00000021 	move	zero,zero
    1968:	00000021 	move	zero,zero
    196c:	00000021 	move	zero,zero
    1970:	00000021 	move	zero,zero
    1974:	00000021 	move	zero,zero
    1978:	00000021 	move	zero,zero
    197c:	00000021 	move	zero,zero
    1980:	3c12d194 	lui	s2,0xd194
    1984:	365215d8 	ori	s2,s2,0x15d8
    1988:	00000000 	nop
    198c:	3c143f50 	lui	s4,0x3f50
    1990:	3694a7b4 	ori	s4,s4,0xa7b4
    1994:	16142304 	bne	s0,s4,a5a8 <inst_error>
    1998:	00000000 	nop
    199c:	00000000 	nop
    19a0:	3c15d194 	lui	s5,0xd194
    19a4:	36b515d8 	ori	s5,s5,0x15d8
    19a8:	165522ff 	bne	s2,s5,a5a8 <inst_error>
    19ac:	00000000 	nop
    19b0:	00000000 	nop
    19b4:	3c0c60b6 	lui	t4,0x60b6
    19b8:	358c60dc 	ori	t4,t4,0x60dc
    19bc:	3c0dfbcf 	lui	t5,0xfbcf
    19c0:	35adeedc 	ori	t5,t5,0xeedc
    19c4:	24100000 	li	s0,0
    19c8:	24120000 	li	s2,0
    19cc:	3c080000 	lui	t0,0x0
    19d0:	250819e8 	addiu	t0,t0,6632
    19d4:	3c090000 	lui	t1,0x0
    19d8:	25291a54 	addiu	t1,t1,6740
    19dc:	1000000b 	b	1a0c <n39_jr_test+0x1a0c>
    19e0:	00000000 	nop
    19e4:	00000000 	nop
    19e8:	3c1060b6 	lui	s0,0x60b6
    19ec:	01200008 	jr	t1
    19f0:	361060dc 	ori	s0,s0,0x60dc
    19f4:	10000019 	b	1a5c <n39_jr_test+0x1a5c>
    19f8:	00000000 	nop
    19fc:	00000000 	nop
    1a00:	00000021 	move	zero,zero
    1a04:	00000021 	move	zero,zero
    1a08:	00000021 	move	zero,zero
    1a0c:	01000008 	jr	t0
    1a10:	00000000 	nop
    1a14:	10000011 	b	1a5c <n39_jr_test+0x1a5c>
    1a18:	00000000 	nop
    1a1c:	00000000 	nop
    1a20:	00000021 	move	zero,zero
    1a24:	00000021 	move	zero,zero
    1a28:	00000021 	move	zero,zero
    1a2c:	00000021 	move	zero,zero
    1a30:	00000021 	move	zero,zero
    1a34:	00000021 	move	zero,zero
    1a38:	00000021 	move	zero,zero
    1a3c:	00000021 	move	zero,zero
    1a40:	00000021 	move	zero,zero
    1a44:	00000021 	move	zero,zero
    1a48:	00000021 	move	zero,zero
    1a4c:	00000021 	move	zero,zero
    1a50:	00000021 	move	zero,zero
    1a54:	3c12fbcf 	lui	s2,0xfbcf
    1a58:	3652eedc 	ori	s2,s2,0xeedc
    1a5c:	00000000 	nop
    1a60:	3c1460b6 	lui	s4,0x60b6
    1a64:	369460dc 	ori	s4,s4,0x60dc
    1a68:	161422cf 	bne	s0,s4,a5a8 <inst_error>
    1a6c:	00000000 	nop
    1a70:	00000000 	nop
    1a74:	3c15fbcf 	lui	s5,0xfbcf
    1a78:	36b5eedc 	ori	s5,s5,0xeedc
    1a7c:	165522ca 	bne	s2,s5,a5a8 <inst_error>
    1a80:	00000000 	nop
    1a84:	00000000 	nop
    1a88:	3c0c5aa4 	lui	t4,0x5aa4
    1a8c:	358c3c18 	ori	t4,t4,0x3c18
    1a90:	3c0dfcf3 	lui	t5,0xfcf3
    1a94:	35ad3656 	ori	t5,t5,0x3656
    1a98:	24100000 	li	s0,0
    1a9c:	24120000 	li	s2,0
    1aa0:	3c080000 	lui	t0,0x0
    1aa4:	25081abc 	addiu	t0,t0,6844
    1aa8:	3c090000 	lui	t1,0x0
    1aac:	25291b28 	addiu	t1,t1,6952
    1ab0:	1000000b 	b	1ae0 <n39_jr_test+0x1ae0>
    1ab4:	00000000 	nop
    1ab8:	00000000 	nop
    1abc:	3c105aa4 	lui	s0,0x5aa4
    1ac0:	01200008 	jr	t1
    1ac4:	36103c18 	ori	s0,s0,0x3c18
    1ac8:	10000019 	b	1b30 <n39_jr_test+0x1b30>
    1acc:	00000000 	nop
    1ad0:	00000000 	nop
    1ad4:	00000021 	move	zero,zero
    1ad8:	00000021 	move	zero,zero
    1adc:	00000021 	move	zero,zero
    1ae0:	01000008 	jr	t0
    1ae4:	00000000 	nop
    1ae8:	10000011 	b	1b30 <n39_jr_test+0x1b30>
    1aec:	00000000 	nop
    1af0:	00000000 	nop
    1af4:	00000021 	move	zero,zero
    1af8:	00000021 	move	zero,zero
    1afc:	00000021 	move	zero,zero
    1b00:	00000021 	move	zero,zero
    1b04:	00000021 	move	zero,zero
    1b08:	00000021 	move	zero,zero
    1b0c:	00000021 	move	zero,zero
    1b10:	00000021 	move	zero,zero
    1b14:	00000021 	move	zero,zero
    1b18:	00000021 	move	zero,zero
    1b1c:	00000021 	move	zero,zero
    1b20:	00000021 	move	zero,zero
    1b24:	00000021 	move	zero,zero
    1b28:	3c12fcf3 	lui	s2,0xfcf3
    1b2c:	36523656 	ori	s2,s2,0x3656
    1b30:	00000000 	nop
    1b34:	3c145aa4 	lui	s4,0x5aa4
    1b38:	36943c18 	ori	s4,s4,0x3c18
    1b3c:	1614229a 	bne	s0,s4,a5a8 <inst_error>
    1b40:	00000000 	nop
    1b44:	00000000 	nop
    1b48:	3c15fcf3 	lui	s5,0xfcf3
    1b4c:	36b53656 	ori	s5,s5,0x3656
    1b50:	16552295 	bne	s2,s5,a5a8 <inst_error>
    1b54:	00000000 	nop
    1b58:	00000000 	nop
    1b5c:	3c0ceec5 	lui	t4,0xeec5
    1b60:	358cb304 	ori	t4,t4,0xb304
    1b64:	3c0d6b5b 	lui	t5,0x6b5b
    1b68:	35ad15b0 	ori	t5,t5,0x15b0
    1b6c:	24100000 	li	s0,0
    1b70:	24120000 	li	s2,0
    1b74:	3c080000 	lui	t0,0x0
    1b78:	25081b90 	addiu	t0,t0,7056
    1b7c:	3c090000 	lui	t1,0x0
    1b80:	25291bfc 	addiu	t1,t1,7164
    1b84:	1000000b 	b	1bb4 <n39_jr_test+0x1bb4>
    1b88:	00000000 	nop
    1b8c:	00000000 	nop
    1b90:	3c10eec5 	lui	s0,0xeec5
    1b94:	01200008 	jr	t1
    1b98:	3610b304 	ori	s0,s0,0xb304
    1b9c:	10000019 	b	1c04 <n39_jr_test+0x1c04>
    1ba0:	00000000 	nop
    1ba4:	00000000 	nop
    1ba8:	00000021 	move	zero,zero
    1bac:	00000021 	move	zero,zero
    1bb0:	00000021 	move	zero,zero
    1bb4:	01000008 	jr	t0
    1bb8:	00000000 	nop
    1bbc:	10000011 	b	1c04 <n39_jr_test+0x1c04>
    1bc0:	00000000 	nop
    1bc4:	00000000 	nop
    1bc8:	00000021 	move	zero,zero
    1bcc:	00000021 	move	zero,zero
    1bd0:	00000021 	move	zero,zero
    1bd4:	00000021 	move	zero,zero
    1bd8:	00000021 	move	zero,zero
    1bdc:	00000021 	move	zero,zero
    1be0:	00000021 	move	zero,zero
    1be4:	00000021 	move	zero,zero
    1be8:	00000021 	move	zero,zero
    1bec:	00000021 	move	zero,zero
    1bf0:	00000021 	move	zero,zero
    1bf4:	00000021 	move	zero,zero
    1bf8:	00000021 	move	zero,zero
    1bfc:	3c126b5b 	lui	s2,0x6b5b
    1c00:	365215b0 	ori	s2,s2,0x15b0
    1c04:	00000000 	nop
    1c08:	3c14eec5 	lui	s4,0xeec5
    1c0c:	3694b304 	ori	s4,s4,0xb304
    1c10:	16142265 	bne	s0,s4,a5a8 <inst_error>
    1c14:	00000000 	nop
    1c18:	00000000 	nop
    1c1c:	3c156b5b 	lui	s5,0x6b5b
    1c20:	36b515b0 	ori	s5,s5,0x15b0
    1c24:	16552260 	bne	s2,s5,a5a8 <inst_error>
    1c28:	00000000 	nop
    1c2c:	00000000 	nop
    1c30:	240c0000 	li	t4,0
    1c34:	3c0d2bbd 	lui	t5,0x2bbd
    1c38:	35ade8b0 	ori	t5,t5,0xe8b0
    1c3c:	24100000 	li	s0,0
    1c40:	24120000 	li	s2,0
    1c44:	3c080000 	lui	t0,0x0
    1c48:	25081c60 	addiu	t0,t0,7264
    1c4c:	3c090000 	lui	t1,0x0
    1c50:	25291cc8 	addiu	t1,t1,7368
    1c54:	1000000a 	b	1c80 <n39_jr_test+0x1c80>
    1c58:	00000000 	nop
    1c5c:	00000000 	nop
    1c60:	01200008 	jr	t1
    1c64:	24100000 	li	s0,0
    1c68:	10000019 	b	1cd0 <n39_jr_test+0x1cd0>
    1c6c:	00000000 	nop
    1c70:	00000000 	nop
    1c74:	00000021 	move	zero,zero
    1c78:	00000021 	move	zero,zero
    1c7c:	00000021 	move	zero,zero
    1c80:	01000008 	jr	t0
    1c84:	00000000 	nop
    1c88:	10000011 	b	1cd0 <n39_jr_test+0x1cd0>
    1c8c:	00000000 	nop
    1c90:	00000000 	nop
    1c94:	00000021 	move	zero,zero
    1c98:	00000021 	move	zero,zero
    1c9c:	00000021 	move	zero,zero
    1ca0:	00000021 	move	zero,zero
    1ca4:	00000021 	move	zero,zero
    1ca8:	00000021 	move	zero,zero
    1cac:	00000021 	move	zero,zero
    1cb0:	00000021 	move	zero,zero
    1cb4:	00000021 	move	zero,zero
    1cb8:	00000021 	move	zero,zero
    1cbc:	00000021 	move	zero,zero
    1cc0:	00000021 	move	zero,zero
    1cc4:	00000021 	move	zero,zero
    1cc8:	3c122bbd 	lui	s2,0x2bbd
    1ccc:	3652e8b0 	ori	s2,s2,0xe8b0
    1cd0:	00000000 	nop
    1cd4:	24140000 	li	s4,0
    1cd8:	16142233 	bne	s0,s4,a5a8 <inst_error>
    1cdc:	00000000 	nop
    1ce0:	00000000 	nop
    1ce4:	3c152bbd 	lui	s5,0x2bbd
    1ce8:	36b5e8b0 	ori	s5,s5,0xe8b0
    1cec:	1655222e 	bne	s2,s5,a5a8 <inst_error>
    1cf0:	00000000 	nop
    1cf4:	00000000 	nop
    1cf8:	3c0cadd8 	lui	t4,0xadd8
    1cfc:	358cad08 	ori	t4,t4,0xad08
    1d00:	3c0da477 	lui	t5,0xa477
    1d04:	35ad6660 	ori	t5,t5,0x6660
    1d08:	24100000 	li	s0,0
    1d0c:	24120000 	li	s2,0
    1d10:	3c080000 	lui	t0,0x0
    1d14:	25081d2c 	addiu	t0,t0,7468
    1d18:	3c090000 	lui	t1,0x0
    1d1c:	25291d98 	addiu	t1,t1,7576
    1d20:	1000000b 	b	1d50 <n39_jr_test+0x1d50>
    1d24:	00000000 	nop
    1d28:	00000000 	nop
    1d2c:	3c10add8 	lui	s0,0xadd8
    1d30:	01200008 	jr	t1
    1d34:	3610ad08 	ori	s0,s0,0xad08
    1d38:	10000019 	b	1da0 <n39_jr_test+0x1da0>
    1d3c:	00000000 	nop
    1d40:	00000000 	nop
    1d44:	00000021 	move	zero,zero
    1d48:	00000021 	move	zero,zero
    1d4c:	00000021 	move	zero,zero
    1d50:	01000008 	jr	t0
    1d54:	00000000 	nop
    1d58:	10000011 	b	1da0 <n39_jr_test+0x1da0>
    1d5c:	00000000 	nop
    1d60:	00000000 	nop
    1d64:	00000021 	move	zero,zero
    1d68:	00000021 	move	zero,zero
    1d6c:	00000021 	move	zero,zero
    1d70:	00000021 	move	zero,zero
    1d74:	00000021 	move	zero,zero
    1d78:	00000021 	move	zero,zero
    1d7c:	00000021 	move	zero,zero
    1d80:	00000021 	move	zero,zero
    1d84:	00000021 	move	zero,zero
    1d88:	00000021 	move	zero,zero
    1d8c:	00000021 	move	zero,zero
    1d90:	00000021 	move	zero,zero
    1d94:	00000021 	move	zero,zero
    1d98:	3c12a477 	lui	s2,0xa477
    1d9c:	36526660 	ori	s2,s2,0x6660
    1da0:	00000000 	nop
    1da4:	3c14add8 	lui	s4,0xadd8
    1da8:	3694ad08 	ori	s4,s4,0xad08
    1dac:	161421fe 	bne	s0,s4,a5a8 <inst_error>
    1db0:	00000000 	nop
    1db4:	00000000 	nop
    1db8:	3c15a477 	lui	s5,0xa477
    1dbc:	36b56660 	ori	s5,s5,0x6660
    1dc0:	165521f9 	bne	s2,s5,a5a8 <inst_error>
    1dc4:	00000000 	nop
    1dc8:	00000000 	nop
    1dcc:	3c0c14e7 	lui	t4,0x14e7
    1dd0:	358c738a 	ori	t4,t4,0x738a
    1dd4:	3c0dc1cf 	lui	t5,0xc1cf
    1dd8:	35ad7520 	ori	t5,t5,0x7520
    1ddc:	24100000 	li	s0,0
    1de0:	24120000 	li	s2,0
    1de4:	3c080000 	lui	t0,0x0
    1de8:	25081e00 	addiu	t0,t0,7680
    1dec:	3c090000 	lui	t1,0x0
    1df0:	25291e6c 	addiu	t1,t1,7788
    1df4:	1000000b 	b	1e24 <n39_jr_test+0x1e24>
    1df8:	00000000 	nop
    1dfc:	00000000 	nop
    1e00:	3c1014e7 	lui	s0,0x14e7
    1e04:	01200008 	jr	t1
    1e08:	3610738a 	ori	s0,s0,0x738a
    1e0c:	10000019 	b	1e74 <n39_jr_test+0x1e74>
    1e10:	00000000 	nop
    1e14:	00000000 	nop
    1e18:	00000021 	move	zero,zero
    1e1c:	00000021 	move	zero,zero
    1e20:	00000021 	move	zero,zero
    1e24:	01000008 	jr	t0
    1e28:	00000000 	nop
    1e2c:	10000011 	b	1e74 <n39_jr_test+0x1e74>
    1e30:	00000000 	nop
    1e34:	00000000 	nop
    1e38:	00000021 	move	zero,zero
    1e3c:	00000021 	move	zero,zero
    1e40:	00000021 	move	zero,zero
    1e44:	00000021 	move	zero,zero
    1e48:	00000021 	move	zero,zero
    1e4c:	00000021 	move	zero,zero
    1e50:	00000021 	move	zero,zero
    1e54:	00000021 	move	zero,zero
    1e58:	00000021 	move	zero,zero
    1e5c:	00000021 	move	zero,zero
    1e60:	00000021 	move	zero,zero
    1e64:	00000021 	move	zero,zero
    1e68:	00000021 	move	zero,zero
    1e6c:	3c12c1cf 	lui	s2,0xc1cf
    1e70:	36527520 	ori	s2,s2,0x7520
    1e74:	00000000 	nop
    1e78:	3c1414e7 	lui	s4,0x14e7
    1e7c:	3694738a 	ori	s4,s4,0x738a
    1e80:	161421c9 	bne	s0,s4,a5a8 <inst_error>
    1e84:	00000000 	nop
    1e88:	00000000 	nop
    1e8c:	3c15c1cf 	lui	s5,0xc1cf
    1e90:	36b57520 	ori	s5,s5,0x7520
    1e94:	165521c4 	bne	s2,s5,a5a8 <inst_error>
    1e98:	00000000 	nop
    1e9c:	00000000 	nop
    1ea0:	3c0c5f82 	lui	t4,0x5f82
    1ea4:	358ca728 	ori	t4,t4,0xa728
    1ea8:	3c0d52f5 	lui	t5,0x52f5
    1eac:	35ad96e0 	ori	t5,t5,0x96e0
    1eb0:	24100000 	li	s0,0
    1eb4:	24120000 	li	s2,0
    1eb8:	3c080000 	lui	t0,0x0
    1ebc:	25081ed4 	addiu	t0,t0,7892
    1ec0:	3c090000 	lui	t1,0x0
    1ec4:	25291f40 	addiu	t1,t1,8000
    1ec8:	1000000b 	b	1ef8 <n39_jr_test+0x1ef8>
    1ecc:	00000000 	nop
    1ed0:	00000000 	nop
    1ed4:	3c105f82 	lui	s0,0x5f82
    1ed8:	01200008 	jr	t1
    1edc:	3610a728 	ori	s0,s0,0xa728
    1ee0:	10000019 	b	1f48 <n39_jr_test+0x1f48>
    1ee4:	00000000 	nop
    1ee8:	00000000 	nop
    1eec:	00000021 	move	zero,zero
    1ef0:	00000021 	move	zero,zero
    1ef4:	00000021 	move	zero,zero
    1ef8:	01000008 	jr	t0
    1efc:	00000000 	nop
    1f00:	10000011 	b	1f48 <n39_jr_test+0x1f48>
    1f04:	00000000 	nop
    1f08:	00000000 	nop
    1f0c:	00000021 	move	zero,zero
    1f10:	00000021 	move	zero,zero
    1f14:	00000021 	move	zero,zero
    1f18:	00000021 	move	zero,zero
    1f1c:	00000021 	move	zero,zero
    1f20:	00000021 	move	zero,zero
    1f24:	00000021 	move	zero,zero
    1f28:	00000021 	move	zero,zero
    1f2c:	00000021 	move	zero,zero
    1f30:	00000021 	move	zero,zero
    1f34:	00000021 	move	zero,zero
    1f38:	00000021 	move	zero,zero
    1f3c:	00000021 	move	zero,zero
    1f40:	3c1252f5 	lui	s2,0x52f5
    1f44:	365296e0 	ori	s2,s2,0x96e0
    1f48:	00000000 	nop
    1f4c:	3c145f82 	lui	s4,0x5f82
    1f50:	3694a728 	ori	s4,s4,0xa728
    1f54:	16142194 	bne	s0,s4,a5a8 <inst_error>
    1f58:	00000000 	nop
    1f5c:	00000000 	nop
    1f60:	3c1552f5 	lui	s5,0x52f5
    1f64:	36b596e0 	ori	s5,s5,0x96e0
    1f68:	1655218f 	bne	s2,s5,a5a8 <inst_error>
    1f6c:	00000000 	nop
    1f70:	00000000 	nop
    1f74:	3c0c0a2a 	lui	t4,0xa2a
    1f78:	358c1a40 	ori	t4,t4,0x1a40
    1f7c:	3c0d5b09 	lui	t5,0x5b09
    1f80:	35ad88f0 	ori	t5,t5,0x88f0
    1f84:	24100000 	li	s0,0
    1f88:	24120000 	li	s2,0
    1f8c:	3c080000 	lui	t0,0x0
    1f90:	25081fa8 	addiu	t0,t0,8104
    1f94:	3c090000 	lui	t1,0x0
    1f98:	25292014 	addiu	t1,t1,8212
    1f9c:	1000000b 	b	1fcc <n39_jr_test+0x1fcc>
    1fa0:	00000000 	nop
    1fa4:	00000000 	nop
    1fa8:	3c100a2a 	lui	s0,0xa2a
    1fac:	01200008 	jr	t1
    1fb0:	36101a40 	ori	s0,s0,0x1a40
    1fb4:	10000019 	b	201c <n39_jr_test+0x201c>
    1fb8:	00000000 	nop
    1fbc:	00000000 	nop
    1fc0:	00000021 	move	zero,zero
    1fc4:	00000021 	move	zero,zero
    1fc8:	00000021 	move	zero,zero
    1fcc:	01000008 	jr	t0
    1fd0:	00000000 	nop
    1fd4:	10000011 	b	201c <n39_jr_test+0x201c>
    1fd8:	00000000 	nop
    1fdc:	00000000 	nop
    1fe0:	00000021 	move	zero,zero
    1fe4:	00000021 	move	zero,zero
    1fe8:	00000021 	move	zero,zero
    1fec:	00000021 	move	zero,zero
    1ff0:	00000021 	move	zero,zero
    1ff4:	00000021 	move	zero,zero
    1ff8:	00000021 	move	zero,zero
    1ffc:	00000021 	move	zero,zero
    2000:	00000021 	move	zero,zero
    2004:	00000021 	move	zero,zero
    2008:	00000021 	move	zero,zero
    200c:	00000021 	move	zero,zero
    2010:	00000021 	move	zero,zero
    2014:	3c125b09 	lui	s2,0x5b09
    2018:	365288f0 	ori	s2,s2,0x88f0
    201c:	00000000 	nop
    2020:	3c140a2a 	lui	s4,0xa2a
    2024:	36941a40 	ori	s4,s4,0x1a40
    2028:	1614215f 	bne	s0,s4,a5a8 <inst_error>
    202c:	00000000 	nop
    2030:	00000000 	nop
    2034:	3c155b09 	lui	s5,0x5b09
    2038:	36b588f0 	ori	s5,s5,0x88f0
    203c:	1655215a 	bne	s2,s5,a5a8 <inst_error>
    2040:	00000000 	nop
    2044:	00000000 	nop
    2048:	3c0c9727 	lui	t4,0x9727
    204c:	358ccb3c 	ori	t4,t4,0xcb3c
    2050:	3c0d0a4c 	lui	t5,0xa4c
    2054:	35adb573 	ori	t5,t5,0xb573
    2058:	24100000 	li	s0,0
    205c:	24120000 	li	s2,0
    2060:	3c080000 	lui	t0,0x0
    2064:	2508207c 	addiu	t0,t0,8316
    2068:	3c090000 	lui	t1,0x0
    206c:	252920e8 	addiu	t1,t1,8424
    2070:	1000000b 	b	20a0 <n39_jr_test+0x20a0>
    2074:	00000000 	nop
    2078:	00000000 	nop
    207c:	3c109727 	lui	s0,0x9727
    2080:	01200008 	jr	t1
    2084:	3610cb3c 	ori	s0,s0,0xcb3c
    2088:	10000019 	b	20f0 <n39_jr_test+0x20f0>
    208c:	00000000 	nop
    2090:	00000000 	nop
    2094:	00000021 	move	zero,zero
    2098:	00000021 	move	zero,zero
    209c:	00000021 	move	zero,zero
    20a0:	01000008 	jr	t0
    20a4:	00000000 	nop
    20a8:	10000011 	b	20f0 <n39_jr_test+0x20f0>
    20ac:	00000000 	nop
    20b0:	00000000 	nop
    20b4:	00000021 	move	zero,zero
    20b8:	00000021 	move	zero,zero
    20bc:	00000021 	move	zero,zero
    20c0:	00000021 	move	zero,zero
    20c4:	00000021 	move	zero,zero
    20c8:	00000021 	move	zero,zero
    20cc:	00000021 	move	zero,zero
    20d0:	00000021 	move	zero,zero
    20d4:	00000021 	move	zero,zero
    20d8:	00000021 	move	zero,zero
    20dc:	00000021 	move	zero,zero
    20e0:	00000021 	move	zero,zero
    20e4:	00000021 	move	zero,zero
    20e8:	3c120a4c 	lui	s2,0xa4c
    20ec:	3652b573 	ori	s2,s2,0xb573
    20f0:	00000000 	nop
    20f4:	3c149727 	lui	s4,0x9727
    20f8:	3694cb3c 	ori	s4,s4,0xcb3c
    20fc:	1614212a 	bne	s0,s4,a5a8 <inst_error>
    2100:	00000000 	nop
    2104:	00000000 	nop
    2108:	3c150a4c 	lui	s5,0xa4c
    210c:	36b5b573 	ori	s5,s5,0xb573
    2110:	16552125 	bne	s2,s5,a5a8 <inst_error>
    2114:	00000000 	nop
    2118:	00000000 	nop
    211c:	3c0c4140 	lui	t4,0x4140
    2120:	358ca0d0 	ori	t4,t4,0xa0d0
    2124:	3c0defbb 	lui	t5,0xefbb
    2128:	35ad87c0 	ori	t5,t5,0x87c0
    212c:	24100000 	li	s0,0
    2130:	24120000 	li	s2,0
    2134:	3c080000 	lui	t0,0x0
    2138:	25082150 	addiu	t0,t0,8528
    213c:	3c090000 	lui	t1,0x0
    2140:	252921bc 	addiu	t1,t1,8636
    2144:	1000000b 	b	2174 <n39_jr_test+0x2174>
    2148:	00000000 	nop
    214c:	00000000 	nop
    2150:	3c104140 	lui	s0,0x4140
    2154:	01200008 	jr	t1
    2158:	3610a0d0 	ori	s0,s0,0xa0d0
    215c:	10000019 	b	21c4 <n39_jr_test+0x21c4>
    2160:	00000000 	nop
    2164:	00000000 	nop
    2168:	00000021 	move	zero,zero
    216c:	00000021 	move	zero,zero
    2170:	00000021 	move	zero,zero
    2174:	01000008 	jr	t0
    2178:	00000000 	nop
    217c:	10000011 	b	21c4 <n39_jr_test+0x21c4>
    2180:	00000000 	nop
    2184:	00000000 	nop
    2188:	00000021 	move	zero,zero
    218c:	00000021 	move	zero,zero
    2190:	00000021 	move	zero,zero
    2194:	00000021 	move	zero,zero
    2198:	00000021 	move	zero,zero
    219c:	00000021 	move	zero,zero
    21a0:	00000021 	move	zero,zero
    21a4:	00000021 	move	zero,zero
    21a8:	00000021 	move	zero,zero
    21ac:	00000021 	move	zero,zero
    21b0:	00000021 	move	zero,zero
    21b4:	00000021 	move	zero,zero
    21b8:	00000021 	move	zero,zero
    21bc:	3c12efbb 	lui	s2,0xefbb
    21c0:	365287c0 	ori	s2,s2,0x87c0
    21c4:	00000000 	nop
    21c8:	3c144140 	lui	s4,0x4140
    21cc:	3694a0d0 	ori	s4,s4,0xa0d0
    21d0:	161420f5 	bne	s0,s4,a5a8 <inst_error>
    21d4:	00000000 	nop
    21d8:	00000000 	nop
    21dc:	3c15efbb 	lui	s5,0xefbb
    21e0:	36b587c0 	ori	s5,s5,0x87c0
    21e4:	165520f0 	bne	s2,s5,a5a8 <inst_error>
    21e8:	00000000 	nop
    21ec:	00000000 	nop
    21f0:	3c0c1e77 	lui	t4,0x1e77
    21f4:	358c3e31 	ori	t4,t4,0x3e31
    21f8:	3c0dbd66 	lui	t5,0xbd66
    21fc:	35addb92 	ori	t5,t5,0xdb92
    2200:	24100000 	li	s0,0
    2204:	24120000 	li	s2,0
    2208:	3c080000 	lui	t0,0x0
    220c:	25082224 	addiu	t0,t0,8740
    2210:	3c090000 	lui	t1,0x0
    2214:	25292290 	addiu	t1,t1,8848
    2218:	1000000b 	b	2248 <n39_jr_test+0x2248>
    221c:	00000000 	nop
    2220:	00000000 	nop
    2224:	3c101e77 	lui	s0,0x1e77
    2228:	01200008 	jr	t1
    222c:	36103e31 	ori	s0,s0,0x3e31
    2230:	10000019 	b	2298 <n39_jr_test+0x2298>
    2234:	00000000 	nop
    2238:	00000000 	nop
    223c:	00000021 	move	zero,zero
    2240:	00000021 	move	zero,zero
    2244:	00000021 	move	zero,zero
    2248:	01000008 	jr	t0
    224c:	00000000 	nop
    2250:	10000011 	b	2298 <n39_jr_test+0x2298>
    2254:	00000000 	nop
    2258:	00000000 	nop
    225c:	00000021 	move	zero,zero
    2260:	00000021 	move	zero,zero
    2264:	00000021 	move	zero,zero
    2268:	00000021 	move	zero,zero
    226c:	00000021 	move	zero,zero
    2270:	00000021 	move	zero,zero
    2274:	00000021 	move	zero,zero
    2278:	00000021 	move	zero,zero
    227c:	00000021 	move	zero,zero
    2280:	00000021 	move	zero,zero
    2284:	00000021 	move	zero,zero
    2288:	00000021 	move	zero,zero
    228c:	00000021 	move	zero,zero
    2290:	3c12bd66 	lui	s2,0xbd66
    2294:	3652db92 	ori	s2,s2,0xdb92
    2298:	00000000 	nop
    229c:	3c141e77 	lui	s4,0x1e77
    22a0:	36943e31 	ori	s4,s4,0x3e31
    22a4:	161420c0 	bne	s0,s4,a5a8 <inst_error>
    22a8:	00000000 	nop
    22ac:	00000000 	nop
    22b0:	3c15bd66 	lui	s5,0xbd66
    22b4:	36b5db92 	ori	s5,s5,0xdb92
    22b8:	165520bb 	bne	s2,s5,a5a8 <inst_error>
    22bc:	00000000 	nop
    22c0:	00000000 	nop
    22c4:	3c0cc75e 	lui	t4,0xc75e
    22c8:	358ca140 	ori	t4,t4,0xa140
    22cc:	3c0ddedf 	lui	t5,0xdedf
    22d0:	35ade2fa 	ori	t5,t5,0xe2fa
    22d4:	24100000 	li	s0,0
    22d8:	24120000 	li	s2,0
    22dc:	3c080000 	lui	t0,0x0
    22e0:	250822f8 	addiu	t0,t0,8952
    22e4:	3c090000 	lui	t1,0x0
    22e8:	25292364 	addiu	t1,t1,9060
    22ec:	1000000b 	b	231c <n39_jr_test+0x231c>
    22f0:	00000000 	nop
    22f4:	00000000 	nop
    22f8:	3c10c75e 	lui	s0,0xc75e
    22fc:	01200008 	jr	t1
    2300:	3610a140 	ori	s0,s0,0xa140
    2304:	10000019 	b	236c <n39_jr_test+0x236c>
    2308:	00000000 	nop
    230c:	00000000 	nop
    2310:	00000021 	move	zero,zero
    2314:	00000021 	move	zero,zero
    2318:	00000021 	move	zero,zero
    231c:	01000008 	jr	t0
    2320:	00000000 	nop
    2324:	10000011 	b	236c <n39_jr_test+0x236c>
    2328:	00000000 	nop
    232c:	00000000 	nop
    2330:	00000021 	move	zero,zero
    2334:	00000021 	move	zero,zero
    2338:	00000021 	move	zero,zero
    233c:	00000021 	move	zero,zero
    2340:	00000021 	move	zero,zero
    2344:	00000021 	move	zero,zero
    2348:	00000021 	move	zero,zero
    234c:	00000021 	move	zero,zero
    2350:	00000021 	move	zero,zero
    2354:	00000021 	move	zero,zero
    2358:	00000021 	move	zero,zero
    235c:	00000021 	move	zero,zero
    2360:	00000021 	move	zero,zero
    2364:	3c12dedf 	lui	s2,0xdedf
    2368:	3652e2fa 	ori	s2,s2,0xe2fa
    236c:	00000000 	nop
    2370:	3c14c75e 	lui	s4,0xc75e
    2374:	3694a140 	ori	s4,s4,0xa140
    2378:	1614208b 	bne	s0,s4,a5a8 <inst_error>
    237c:	00000000 	nop
    2380:	00000000 	nop
    2384:	3c15dedf 	lui	s5,0xdedf
    2388:	36b5e2fa 	ori	s5,s5,0xe2fa
    238c:	16552086 	bne	s2,s5,a5a8 <inst_error>
    2390:	00000000 	nop
    2394:	00000000 	nop
    2398:	3c0c9287 	lui	t4,0x9287
    239c:	358c7690 	ori	t4,t4,0x7690
    23a0:	3c0dbd20 	lui	t5,0xbd20
    23a4:	35ada408 	ori	t5,t5,0xa408
    23a8:	24100000 	li	s0,0
    23ac:	24120000 	li	s2,0
    23b0:	3c080000 	lui	t0,0x0
    23b4:	250823cc 	addiu	t0,t0,9164
    23b8:	3c090000 	lui	t1,0x0
    23bc:	25292438 	addiu	t1,t1,9272
    23c0:	1000000b 	b	23f0 <n39_jr_test+0x23f0>
    23c4:	00000000 	nop
    23c8:	00000000 	nop
    23cc:	3c109287 	lui	s0,0x9287
    23d0:	01200008 	jr	t1
    23d4:	36107690 	ori	s0,s0,0x7690
    23d8:	10000019 	b	2440 <n39_jr_test+0x2440>
    23dc:	00000000 	nop
    23e0:	00000000 	nop
    23e4:	00000021 	move	zero,zero
    23e8:	00000021 	move	zero,zero
    23ec:	00000021 	move	zero,zero
    23f0:	01000008 	jr	t0
    23f4:	00000000 	nop
    23f8:	10000011 	b	2440 <n39_jr_test+0x2440>
    23fc:	00000000 	nop
    2400:	00000000 	nop
    2404:	00000021 	move	zero,zero
    2408:	00000021 	move	zero,zero
    240c:	00000021 	move	zero,zero
    2410:	00000021 	move	zero,zero
    2414:	00000021 	move	zero,zero
    2418:	00000021 	move	zero,zero
    241c:	00000021 	move	zero,zero
    2420:	00000021 	move	zero,zero
    2424:	00000021 	move	zero,zero
    2428:	00000021 	move	zero,zero
    242c:	00000021 	move	zero,zero
    2430:	00000021 	move	zero,zero
    2434:	00000021 	move	zero,zero
    2438:	3c12bd20 	lui	s2,0xbd20
    243c:	3652a408 	ori	s2,s2,0xa408
    2440:	00000000 	nop
    2444:	3c149287 	lui	s4,0x9287
    2448:	36947690 	ori	s4,s4,0x7690
    244c:	16142056 	bne	s0,s4,a5a8 <inst_error>
    2450:	00000000 	nop
    2454:	00000000 	nop
    2458:	3c15bd20 	lui	s5,0xbd20
    245c:	36b5a408 	ori	s5,s5,0xa408
    2460:	16552051 	bne	s2,s5,a5a8 <inst_error>
    2464:	00000000 	nop
    2468:	00000000 	nop
    246c:	3c0c3435 	lui	t4,0x3435
    2470:	358c516a 	ori	t4,t4,0x516a
    2474:	3c0de824 	lui	t5,0xe824
    2478:	35ad51aa 	ori	t5,t5,0x51aa
    247c:	24100000 	li	s0,0
    2480:	24120000 	li	s2,0
    2484:	3c080000 	lui	t0,0x0
    2488:	250824a0 	addiu	t0,t0,9376
    248c:	3c090000 	lui	t1,0x0
    2490:	2529250c 	addiu	t1,t1,9484
    2494:	1000000b 	b	24c4 <n39_jr_test+0x24c4>
    2498:	00000000 	nop
    249c:	00000000 	nop
    24a0:	3c103435 	lui	s0,0x3435
    24a4:	01200008 	jr	t1
    24a8:	3610516a 	ori	s0,s0,0x516a
    24ac:	10000019 	b	2514 <n39_jr_test+0x2514>
    24b0:	00000000 	nop
    24b4:	00000000 	nop
    24b8:	00000021 	move	zero,zero
    24bc:	00000021 	move	zero,zero
    24c0:	00000021 	move	zero,zero
    24c4:	01000008 	jr	t0
    24c8:	00000000 	nop
    24cc:	10000011 	b	2514 <n39_jr_test+0x2514>
    24d0:	00000000 	nop
    24d4:	00000000 	nop
    24d8:	00000021 	move	zero,zero
    24dc:	00000021 	move	zero,zero
    24e0:	00000021 	move	zero,zero
    24e4:	00000021 	move	zero,zero
    24e8:	00000021 	move	zero,zero
    24ec:	00000021 	move	zero,zero
    24f0:	00000021 	move	zero,zero
    24f4:	00000021 	move	zero,zero
    24f8:	00000021 	move	zero,zero
    24fc:	00000021 	move	zero,zero
    2500:	00000021 	move	zero,zero
    2504:	00000021 	move	zero,zero
    2508:	00000021 	move	zero,zero
    250c:	3c12e824 	lui	s2,0xe824
    2510:	365251aa 	ori	s2,s2,0x51aa
    2514:	00000000 	nop
    2518:	3c143435 	lui	s4,0x3435
    251c:	3694516a 	ori	s4,s4,0x516a
    2520:	16142021 	bne	s0,s4,a5a8 <inst_error>
    2524:	00000000 	nop
    2528:	00000000 	nop
    252c:	3c15e824 	lui	s5,0xe824
    2530:	36b551aa 	ori	s5,s5,0x51aa
    2534:	1655201c 	bne	s2,s5,a5a8 <inst_error>
    2538:	00000000 	nop
    253c:	00000000 	nop
    2540:	3c0cff00 	lui	t4,0xff00
    2544:	358c777d 	ori	t4,t4,0x777d
    2548:	3c0db525 	lui	t5,0xb525
    254c:	35ad7362 	ori	t5,t5,0x7362
    2550:	24100000 	li	s0,0
    2554:	24120000 	li	s2,0
    2558:	3c080000 	lui	t0,0x0
    255c:	25082574 	addiu	t0,t0,9588
    2560:	3c090000 	lui	t1,0x0
    2564:	252925e0 	addiu	t1,t1,9696
    2568:	1000000b 	b	2598 <n39_jr_test+0x2598>
    256c:	00000000 	nop
    2570:	00000000 	nop
    2574:	3c10ff00 	lui	s0,0xff00
    2578:	01200008 	jr	t1
    257c:	3610777d 	ori	s0,s0,0x777d
    2580:	10000019 	b	25e8 <n39_jr_test+0x25e8>
    2584:	00000000 	nop
    2588:	00000000 	nop
    258c:	00000021 	move	zero,zero
    2590:	00000021 	move	zero,zero
    2594:	00000021 	move	zero,zero
    2598:	01000008 	jr	t0
    259c:	00000000 	nop
    25a0:	10000011 	b	25e8 <n39_jr_test+0x25e8>
    25a4:	00000000 	nop
    25a8:	00000000 	nop
    25ac:	00000021 	move	zero,zero
    25b0:	00000021 	move	zero,zero
    25b4:	00000021 	move	zero,zero
    25b8:	00000021 	move	zero,zero
    25bc:	00000021 	move	zero,zero
    25c0:	00000021 	move	zero,zero
    25c4:	00000021 	move	zero,zero
    25c8:	00000021 	move	zero,zero
    25cc:	00000021 	move	zero,zero
    25d0:	00000021 	move	zero,zero
    25d4:	00000021 	move	zero,zero
    25d8:	00000021 	move	zero,zero
    25dc:	00000021 	move	zero,zero
    25e0:	3c12b525 	lui	s2,0xb525
    25e4:	36527362 	ori	s2,s2,0x7362
    25e8:	00000000 	nop
    25ec:	3c14ff00 	lui	s4,0xff00
    25f0:	3694777d 	ori	s4,s4,0x777d
    25f4:	16141fec 	bne	s0,s4,a5a8 <inst_error>
    25f8:	00000000 	nop
    25fc:	00000000 	nop
    2600:	3c15b525 	lui	s5,0xb525
    2604:	36b57362 	ori	s5,s5,0x7362
    2608:	16551fe7 	bne	s2,s5,a5a8 <inst_error>
    260c:	00000000 	nop
    2610:	00000000 	nop
    2614:	3c0cb529 	lui	t4,0xb529
    2618:	358ce028 	ori	t4,t4,0xe028
    261c:	3c0d0162 	lui	t5,0x162
    2620:	35ad5b79 	ori	t5,t5,0x5b79
    2624:	24100000 	li	s0,0
    2628:	24120000 	li	s2,0
    262c:	3c080000 	lui	t0,0x0
    2630:	25082648 	addiu	t0,t0,9800
    2634:	3c090000 	lui	t1,0x0
    2638:	252926b4 	addiu	t1,t1,9908
    263c:	1000000b 	b	266c <n39_jr_test+0x266c>
    2640:	00000000 	nop
    2644:	00000000 	nop
    2648:	3c10b529 	lui	s0,0xb529
    264c:	01200008 	jr	t1
    2650:	3610e028 	ori	s0,s0,0xe028
    2654:	10000019 	b	26bc <n39_jr_test+0x26bc>
    2658:	00000000 	nop
    265c:	00000000 	nop
    2660:	00000021 	move	zero,zero
    2664:	00000021 	move	zero,zero
    2668:	00000021 	move	zero,zero
    266c:	01000008 	jr	t0
    2670:	00000000 	nop
    2674:	10000011 	b	26bc <n39_jr_test+0x26bc>
    2678:	00000000 	nop
    267c:	00000000 	nop
    2680:	00000021 	move	zero,zero
    2684:	00000021 	move	zero,zero
    2688:	00000021 	move	zero,zero
    268c:	00000021 	move	zero,zero
    2690:	00000021 	move	zero,zero
    2694:	00000021 	move	zero,zero
    2698:	00000021 	move	zero,zero
    269c:	00000021 	move	zero,zero
    26a0:	00000021 	move	zero,zero
    26a4:	00000021 	move	zero,zero
    26a8:	00000021 	move	zero,zero
    26ac:	00000021 	move	zero,zero
    26b0:	00000021 	move	zero,zero
    26b4:	3c120162 	lui	s2,0x162
    26b8:	36525b79 	ori	s2,s2,0x5b79
    26bc:	00000000 	nop
    26c0:	3c14b529 	lui	s4,0xb529
    26c4:	3694e028 	ori	s4,s4,0xe028
    26c8:	16141fb7 	bne	s0,s4,a5a8 <inst_error>
    26cc:	00000000 	nop
    26d0:	00000000 	nop
    26d4:	3c150162 	lui	s5,0x162
    26d8:	36b55b79 	ori	s5,s5,0x5b79
    26dc:	16551fb2 	bne	s2,s5,a5a8 <inst_error>
    26e0:	00000000 	nop
    26e4:	00000000 	nop
    26e8:	3c0cc5f3 	lui	t4,0xc5f3
    26ec:	358cb68f 	ori	t4,t4,0xb68f
    26f0:	3c0db889 	lui	t5,0xb889
    26f4:	35ad04b0 	ori	t5,t5,0x4b0
    26f8:	24100000 	li	s0,0
    26fc:	24120000 	li	s2,0
    2700:	3c080000 	lui	t0,0x0
    2704:	2508271c 	addiu	t0,t0,10012
    2708:	3c090000 	lui	t1,0x0
    270c:	25292788 	addiu	t1,t1,10120
    2710:	1000000b 	b	2740 <n39_jr_test+0x2740>
    2714:	00000000 	nop
    2718:	00000000 	nop
    271c:	3c10c5f3 	lui	s0,0xc5f3
    2720:	01200008 	jr	t1
    2724:	3610b68f 	ori	s0,s0,0xb68f
    2728:	10000019 	b	2790 <n39_jr_test+0x2790>
    272c:	00000000 	nop
    2730:	00000000 	nop
    2734:	00000021 	move	zero,zero
    2738:	00000021 	move	zero,zero
    273c:	00000021 	move	zero,zero
    2740:	01000008 	jr	t0
    2744:	00000000 	nop
    2748:	10000011 	b	2790 <n39_jr_test+0x2790>
    274c:	00000000 	nop
    2750:	00000000 	nop
    2754:	00000021 	move	zero,zero
    2758:	00000021 	move	zero,zero
    275c:	00000021 	move	zero,zero
    2760:	00000021 	move	zero,zero
    2764:	00000021 	move	zero,zero
    2768:	00000021 	move	zero,zero
    276c:	00000021 	move	zero,zero
    2770:	00000021 	move	zero,zero
    2774:	00000021 	move	zero,zero
    2778:	00000021 	move	zero,zero
    277c:	00000021 	move	zero,zero
    2780:	00000021 	move	zero,zero
    2784:	00000021 	move	zero,zero
    2788:	3c12b889 	lui	s2,0xb889
    278c:	365204b0 	ori	s2,s2,0x4b0
    2790:	00000000 	nop
    2794:	3c14c5f3 	lui	s4,0xc5f3
    2798:	3694b68f 	ori	s4,s4,0xb68f
    279c:	16141f82 	bne	s0,s4,a5a8 <inst_error>
    27a0:	00000000 	nop
    27a4:	00000000 	nop
    27a8:	3c15b889 	lui	s5,0xb889
    27ac:	36b504b0 	ori	s5,s5,0x4b0
    27b0:	16551f7d 	bne	s2,s5,a5a8 <inst_error>
    27b4:	00000000 	nop
    27b8:	00000000 	nop
    27bc:	3c0cb181 	lui	t4,0xb181
    27c0:	358c0096 	ori	t4,t4,0x96
    27c4:	3c0d072e 	lui	t5,0x72e
    27c8:	35adceb0 	ori	t5,t5,0xceb0
    27cc:	24100000 	li	s0,0
    27d0:	24120000 	li	s2,0
    27d4:	3c080000 	lui	t0,0x0
    27d8:	250827f0 	addiu	t0,t0,10224
    27dc:	3c090000 	lui	t1,0x0
    27e0:	2529285c 	addiu	t1,t1,10332
    27e4:	1000000b 	b	2814 <n39_jr_test+0x2814>
    27e8:	00000000 	nop
    27ec:	00000000 	nop
    27f0:	3c10b181 	lui	s0,0xb181
    27f4:	01200008 	jr	t1
    27f8:	36100096 	ori	s0,s0,0x96
    27fc:	10000019 	b	2864 <n39_jr_test+0x2864>
    2800:	00000000 	nop
    2804:	00000000 	nop
    2808:	00000021 	move	zero,zero
    280c:	00000021 	move	zero,zero
    2810:	00000021 	move	zero,zero
    2814:	01000008 	jr	t0
    2818:	00000000 	nop
    281c:	10000011 	b	2864 <n39_jr_test+0x2864>
    2820:	00000000 	nop
    2824:	00000000 	nop
    2828:	00000021 	move	zero,zero
    282c:	00000021 	move	zero,zero
    2830:	00000021 	move	zero,zero
    2834:	00000021 	move	zero,zero
    2838:	00000021 	move	zero,zero
    283c:	00000021 	move	zero,zero
    2840:	00000021 	move	zero,zero
    2844:	00000021 	move	zero,zero
    2848:	00000021 	move	zero,zero
    284c:	00000021 	move	zero,zero
    2850:	00000021 	move	zero,zero
    2854:	00000021 	move	zero,zero
    2858:	00000021 	move	zero,zero
    285c:	3c12072e 	lui	s2,0x72e
    2860:	3652ceb0 	ori	s2,s2,0xceb0
    2864:	00000000 	nop
    2868:	3c14b181 	lui	s4,0xb181
    286c:	36940096 	ori	s4,s4,0x96
    2870:	16141f4d 	bne	s0,s4,a5a8 <inst_error>
    2874:	00000000 	nop
    2878:	00000000 	nop
    287c:	3c15072e 	lui	s5,0x72e
    2880:	36b5ceb0 	ori	s5,s5,0xceb0
    2884:	16551f48 	bne	s2,s5,a5a8 <inst_error>
    2888:	00000000 	nop
    288c:	00000000 	nop
    2890:	3c0c8123 	lui	t4,0x8123
    2894:	358cd3a0 	ori	t4,t4,0xd3a0
    2898:	3c0d40cd 	lui	t5,0x40cd
    289c:	35ad5ed8 	ori	t5,t5,0x5ed8
    28a0:	24100000 	li	s0,0
    28a4:	24120000 	li	s2,0
    28a8:	3c080000 	lui	t0,0x0
    28ac:	250828c4 	addiu	t0,t0,10436
    28b0:	3c090000 	lui	t1,0x0
    28b4:	25292930 	addiu	t1,t1,10544
    28b8:	1000000b 	b	28e8 <n39_jr_test+0x28e8>
    28bc:	00000000 	nop
    28c0:	00000000 	nop
    28c4:	3c108123 	lui	s0,0x8123
    28c8:	01200008 	jr	t1
    28cc:	3610d3a0 	ori	s0,s0,0xd3a0
    28d0:	10000019 	b	2938 <n39_jr_test+0x2938>
    28d4:	00000000 	nop
    28d8:	00000000 	nop
    28dc:	00000021 	move	zero,zero
    28e0:	00000021 	move	zero,zero
    28e4:	00000021 	move	zero,zero
    28e8:	01000008 	jr	t0
    28ec:	00000000 	nop
    28f0:	10000011 	b	2938 <n39_jr_test+0x2938>
    28f4:	00000000 	nop
    28f8:	00000000 	nop
    28fc:	00000021 	move	zero,zero
    2900:	00000021 	move	zero,zero
    2904:	00000021 	move	zero,zero
    2908:	00000021 	move	zero,zero
    290c:	00000021 	move	zero,zero
    2910:	00000021 	move	zero,zero
    2914:	00000021 	move	zero,zero
    2918:	00000021 	move	zero,zero
    291c:	00000021 	move	zero,zero
    2920:	00000021 	move	zero,zero
    2924:	00000021 	move	zero,zero
    2928:	00000021 	move	zero,zero
    292c:	00000021 	move	zero,zero
    2930:	3c1240cd 	lui	s2,0x40cd
    2934:	36525ed8 	ori	s2,s2,0x5ed8
    2938:	00000000 	nop
    293c:	3c148123 	lui	s4,0x8123
    2940:	3694d3a0 	ori	s4,s4,0xd3a0
    2944:	16141f18 	bne	s0,s4,a5a8 <inst_error>
    2948:	00000000 	nop
    294c:	00000000 	nop
    2950:	3c1540cd 	lui	s5,0x40cd
    2954:	36b55ed8 	ori	s5,s5,0x5ed8
    2958:	16551f13 	bne	s2,s5,a5a8 <inst_error>
    295c:	00000000 	nop
    2960:	00000000 	nop
    2964:	3c0c6488 	lui	t4,0x6488
    2968:	358c4488 	ori	t4,t4,0x4488
    296c:	3c0d5f73 	lui	t5,0x5f73
    2970:	35ad12da 	ori	t5,t5,0x12da
    2974:	24100000 	li	s0,0
    2978:	24120000 	li	s2,0
    297c:	3c080000 	lui	t0,0x0
    2980:	25082998 	addiu	t0,t0,10648
    2984:	3c090000 	lui	t1,0x0
    2988:	25292a04 	addiu	t1,t1,10756
    298c:	1000000b 	b	29bc <n39_jr_test+0x29bc>
    2990:	00000000 	nop
    2994:	00000000 	nop
    2998:	3c106488 	lui	s0,0x6488
    299c:	01200008 	jr	t1
    29a0:	36104488 	ori	s0,s0,0x4488
    29a4:	10000019 	b	2a0c <n39_jr_test+0x2a0c>
    29a8:	00000000 	nop
    29ac:	00000000 	nop
    29b0:	00000021 	move	zero,zero
    29b4:	00000021 	move	zero,zero
    29b8:	00000021 	move	zero,zero
    29bc:	01000008 	jr	t0
    29c0:	00000000 	nop
    29c4:	10000011 	b	2a0c <n39_jr_test+0x2a0c>
    29c8:	00000000 	nop
    29cc:	00000000 	nop
    29d0:	00000021 	move	zero,zero
    29d4:	00000021 	move	zero,zero
    29d8:	00000021 	move	zero,zero
    29dc:	00000021 	move	zero,zero
    29e0:	00000021 	move	zero,zero
    29e4:	00000021 	move	zero,zero
    29e8:	00000021 	move	zero,zero
    29ec:	00000021 	move	zero,zero
    29f0:	00000021 	move	zero,zero
    29f4:	00000021 	move	zero,zero
    29f8:	00000021 	move	zero,zero
    29fc:	00000021 	move	zero,zero
    2a00:	00000021 	move	zero,zero
    2a04:	3c125f73 	lui	s2,0x5f73
    2a08:	365212da 	ori	s2,s2,0x12da
    2a0c:	00000000 	nop
    2a10:	3c146488 	lui	s4,0x6488
    2a14:	36944488 	ori	s4,s4,0x4488
    2a18:	16141ee3 	bne	s0,s4,a5a8 <inst_error>
    2a1c:	00000000 	nop
    2a20:	00000000 	nop
    2a24:	3c155f73 	lui	s5,0x5f73
    2a28:	36b512da 	ori	s5,s5,0x12da
    2a2c:	16551ede 	bne	s2,s5,a5a8 <inst_error>
    2a30:	00000000 	nop
    2a34:	00000000 	nop
    2a38:	3c0c7023 	lui	t4,0x7023
    2a3c:	358c9b80 	ori	t4,t4,0x9b80
    2a40:	3c0d3339 	lui	t5,0x3339
    2a44:	35ad2afc 	ori	t5,t5,0x2afc
    2a48:	24100000 	li	s0,0
    2a4c:	24120000 	li	s2,0
    2a50:	3c080000 	lui	t0,0x0
    2a54:	25082a6c 	addiu	t0,t0,10860
    2a58:	3c090000 	lui	t1,0x0
    2a5c:	25292ad8 	addiu	t1,t1,10968
    2a60:	1000000b 	b	2a90 <n39_jr_test+0x2a90>
    2a64:	00000000 	nop
    2a68:	00000000 	nop
    2a6c:	3c107023 	lui	s0,0x7023
    2a70:	01200008 	jr	t1
    2a74:	36109b80 	ori	s0,s0,0x9b80
    2a78:	10000019 	b	2ae0 <n39_jr_test+0x2ae0>
    2a7c:	00000000 	nop
    2a80:	00000000 	nop
    2a84:	00000021 	move	zero,zero
    2a88:	00000021 	move	zero,zero
    2a8c:	00000021 	move	zero,zero
    2a90:	01000008 	jr	t0
    2a94:	00000000 	nop
    2a98:	10000011 	b	2ae0 <n39_jr_test+0x2ae0>
    2a9c:	00000000 	nop
    2aa0:	00000000 	nop
    2aa4:	00000021 	move	zero,zero
    2aa8:	00000021 	move	zero,zero
    2aac:	00000021 	move	zero,zero
    2ab0:	00000021 	move	zero,zero
    2ab4:	00000021 	move	zero,zero
    2ab8:	00000021 	move	zero,zero
    2abc:	00000021 	move	zero,zero
    2ac0:	00000021 	move	zero,zero
    2ac4:	00000021 	move	zero,zero
    2ac8:	00000021 	move	zero,zero
    2acc:	00000021 	move	zero,zero
    2ad0:	00000021 	move	zero,zero
    2ad4:	00000021 	move	zero,zero
    2ad8:	3c123339 	lui	s2,0x3339
    2adc:	36522afc 	ori	s2,s2,0x2afc
    2ae0:	00000000 	nop
    2ae4:	3c147023 	lui	s4,0x7023
    2ae8:	36949b80 	ori	s4,s4,0x9b80
    2aec:	16141eae 	bne	s0,s4,a5a8 <inst_error>
    2af0:	00000000 	nop
    2af4:	00000000 	nop
    2af8:	3c153339 	lui	s5,0x3339
    2afc:	36b52afc 	ori	s5,s5,0x2afc
    2b00:	16551ea9 	bne	s2,s5,a5a8 <inst_error>
    2b04:	00000000 	nop
    2b08:	00000000 	nop
    2b0c:	3c0ca318 	lui	t4,0xa318
    2b10:	358cf825 	ori	t4,t4,0xf825
    2b14:	3c0de85f 	lui	t5,0xe85f
    2b18:	35ad5191 	ori	t5,t5,0x5191
    2b1c:	24100000 	li	s0,0
    2b20:	24120000 	li	s2,0
    2b24:	3c080000 	lui	t0,0x0
    2b28:	25082b40 	addiu	t0,t0,11072
    2b2c:	3c090000 	lui	t1,0x0
    2b30:	25292bac 	addiu	t1,t1,11180
    2b34:	1000000b 	b	2b64 <n39_jr_test+0x2b64>
    2b38:	00000000 	nop
    2b3c:	00000000 	nop
    2b40:	3c10a318 	lui	s0,0xa318
    2b44:	01200008 	jr	t1
    2b48:	3610f825 	ori	s0,s0,0xf825
    2b4c:	10000019 	b	2bb4 <n39_jr_test+0x2bb4>
    2b50:	00000000 	nop
    2b54:	00000000 	nop
    2b58:	00000021 	move	zero,zero
    2b5c:	00000021 	move	zero,zero
    2b60:	00000021 	move	zero,zero
    2b64:	01000008 	jr	t0
    2b68:	00000000 	nop
    2b6c:	10000011 	b	2bb4 <n39_jr_test+0x2bb4>
    2b70:	00000000 	nop
    2b74:	00000000 	nop
    2b78:	00000021 	move	zero,zero
    2b7c:	00000021 	move	zero,zero
    2b80:	00000021 	move	zero,zero
    2b84:	00000021 	move	zero,zero
    2b88:	00000021 	move	zero,zero
    2b8c:	00000021 	move	zero,zero
    2b90:	00000021 	move	zero,zero
    2b94:	00000021 	move	zero,zero
    2b98:	00000021 	move	zero,zero
    2b9c:	00000021 	move	zero,zero
    2ba0:	00000021 	move	zero,zero
    2ba4:	00000021 	move	zero,zero
    2ba8:	00000021 	move	zero,zero
    2bac:	3c12e85f 	lui	s2,0xe85f
    2bb0:	36525191 	ori	s2,s2,0x5191
    2bb4:	00000000 	nop
    2bb8:	3c14a318 	lui	s4,0xa318
    2bbc:	3694f825 	ori	s4,s4,0xf825
    2bc0:	16141e79 	bne	s0,s4,a5a8 <inst_error>
    2bc4:	00000000 	nop
    2bc8:	00000000 	nop
    2bcc:	3c15e85f 	lui	s5,0xe85f
    2bd0:	36b55191 	ori	s5,s5,0x5191
    2bd4:	16551e74 	bne	s2,s5,a5a8 <inst_error>
    2bd8:	00000000 	nop
    2bdc:	00000000 	nop
    2be0:	3c0c8e83 	lui	t4,0x8e83
    2be4:	358ccbd2 	ori	t4,t4,0xcbd2
    2be8:	3c0d968f 	lui	t5,0x968f
    2bec:	35ad4c05 	ori	t5,t5,0x4c05
    2bf0:	24100000 	li	s0,0
    2bf4:	24120000 	li	s2,0
    2bf8:	3c080000 	lui	t0,0x0
    2bfc:	25082c14 	addiu	t0,t0,11284
    2c00:	3c090000 	lui	t1,0x0
    2c04:	25292c80 	addiu	t1,t1,11392
    2c08:	1000000b 	b	2c38 <n39_jr_test+0x2c38>
    2c0c:	00000000 	nop
    2c10:	00000000 	nop
    2c14:	3c108e83 	lui	s0,0x8e83
    2c18:	01200008 	jr	t1
    2c1c:	3610cbd2 	ori	s0,s0,0xcbd2
    2c20:	10000019 	b	2c88 <n39_jr_test+0x2c88>
    2c24:	00000000 	nop
    2c28:	00000000 	nop
    2c2c:	00000021 	move	zero,zero
    2c30:	00000021 	move	zero,zero
    2c34:	00000021 	move	zero,zero
    2c38:	01000008 	jr	t0
    2c3c:	00000000 	nop
    2c40:	10000011 	b	2c88 <n39_jr_test+0x2c88>
    2c44:	00000000 	nop
    2c48:	00000000 	nop
    2c4c:	00000021 	move	zero,zero
    2c50:	00000021 	move	zero,zero
    2c54:	00000021 	move	zero,zero
    2c58:	00000021 	move	zero,zero
    2c5c:	00000021 	move	zero,zero
    2c60:	00000021 	move	zero,zero
    2c64:	00000021 	move	zero,zero
    2c68:	00000021 	move	zero,zero
    2c6c:	00000021 	move	zero,zero
    2c70:	00000021 	move	zero,zero
    2c74:	00000021 	move	zero,zero
    2c78:	00000021 	move	zero,zero
    2c7c:	00000021 	move	zero,zero
    2c80:	3c12968f 	lui	s2,0x968f
    2c84:	36524c05 	ori	s2,s2,0x4c05
    2c88:	00000000 	nop
    2c8c:	3c148e83 	lui	s4,0x8e83
    2c90:	3694cbd2 	ori	s4,s4,0xcbd2
    2c94:	16141e44 	bne	s0,s4,a5a8 <inst_error>
    2c98:	00000000 	nop
    2c9c:	00000000 	nop
    2ca0:	3c15968f 	lui	s5,0x968f
    2ca4:	36b54c05 	ori	s5,s5,0x4c05
    2ca8:	16551e3f 	bne	s2,s5,a5a8 <inst_error>
    2cac:	00000000 	nop
    2cb0:	00000000 	nop
    2cb4:	3c0cab1c 	lui	t4,0xab1c
    2cb8:	358c0db0 	ori	t4,t4,0xdb0
    2cbc:	3c0dd722 	lui	t5,0xd722
    2cc0:	35ad14fd 	ori	t5,t5,0x14fd
    2cc4:	24100000 	li	s0,0
    2cc8:	24120000 	li	s2,0
    2ccc:	3c080000 	lui	t0,0x0
    2cd0:	25082ce8 	addiu	t0,t0,11496
    2cd4:	3c090000 	lui	t1,0x0
    2cd8:	25292d54 	addiu	t1,t1,11604
    2cdc:	1000000b 	b	2d0c <n39_jr_test+0x2d0c>
    2ce0:	00000000 	nop
    2ce4:	00000000 	nop
    2ce8:	3c10ab1c 	lui	s0,0xab1c
    2cec:	01200008 	jr	t1
    2cf0:	36100db0 	ori	s0,s0,0xdb0
    2cf4:	10000019 	b	2d5c <n39_jr_test+0x2d5c>
    2cf8:	00000000 	nop
    2cfc:	00000000 	nop
    2d00:	00000021 	move	zero,zero
    2d04:	00000021 	move	zero,zero
    2d08:	00000021 	move	zero,zero
    2d0c:	01000008 	jr	t0
    2d10:	00000000 	nop
    2d14:	10000011 	b	2d5c <n39_jr_test+0x2d5c>
    2d18:	00000000 	nop
    2d1c:	00000000 	nop
    2d20:	00000021 	move	zero,zero
    2d24:	00000021 	move	zero,zero
    2d28:	00000021 	move	zero,zero
    2d2c:	00000021 	move	zero,zero
    2d30:	00000021 	move	zero,zero
    2d34:	00000021 	move	zero,zero
    2d38:	00000021 	move	zero,zero
    2d3c:	00000021 	move	zero,zero
    2d40:	00000021 	move	zero,zero
    2d44:	00000021 	move	zero,zero
    2d48:	00000021 	move	zero,zero
    2d4c:	00000021 	move	zero,zero
    2d50:	00000021 	move	zero,zero
    2d54:	3c12d722 	lui	s2,0xd722
    2d58:	365214fd 	ori	s2,s2,0x14fd
    2d5c:	00000000 	nop
    2d60:	3c14ab1c 	lui	s4,0xab1c
    2d64:	36940db0 	ori	s4,s4,0xdb0
    2d68:	16141e0f 	bne	s0,s4,a5a8 <inst_error>
    2d6c:	00000000 	nop
    2d70:	00000000 	nop
    2d74:	3c15d722 	lui	s5,0xd722
    2d78:	36b514fd 	ori	s5,s5,0x14fd
    2d7c:	16551e0a 	bne	s2,s5,a5a8 <inst_error>
    2d80:	00000000 	nop
    2d84:	00000000 	nop
    2d88:	3c0cfe96 	lui	t4,0xfe96
    2d8c:	358c4d80 	ori	t4,t4,0x4d80
    2d90:	3c0ddfc3 	lui	t5,0xdfc3
    2d94:	35adf740 	ori	t5,t5,0xf740
    2d98:	24100000 	li	s0,0
    2d9c:	24120000 	li	s2,0
    2da0:	3c080000 	lui	t0,0x0
    2da4:	25082dbc 	addiu	t0,t0,11708
    2da8:	3c090000 	lui	t1,0x0
    2dac:	25292e28 	addiu	t1,t1,11816
    2db0:	1000000b 	b	2de0 <n39_jr_test+0x2de0>
    2db4:	00000000 	nop
    2db8:	00000000 	nop
    2dbc:	3c10fe96 	lui	s0,0xfe96
    2dc0:	01200008 	jr	t1
    2dc4:	36104d80 	ori	s0,s0,0x4d80
    2dc8:	10000019 	b	2e30 <n39_jr_test+0x2e30>
    2dcc:	00000000 	nop
    2dd0:	00000000 	nop
    2dd4:	00000021 	move	zero,zero
    2dd8:	00000021 	move	zero,zero
    2ddc:	00000021 	move	zero,zero
    2de0:	01000008 	jr	t0
    2de4:	00000000 	nop
    2de8:	10000011 	b	2e30 <n39_jr_test+0x2e30>
    2dec:	00000000 	nop
    2df0:	00000000 	nop
    2df4:	00000021 	move	zero,zero
    2df8:	00000021 	move	zero,zero
    2dfc:	00000021 	move	zero,zero
    2e00:	00000021 	move	zero,zero
    2e04:	00000021 	move	zero,zero
    2e08:	00000021 	move	zero,zero
    2e0c:	00000021 	move	zero,zero
    2e10:	00000021 	move	zero,zero
    2e14:	00000021 	move	zero,zero
    2e18:	00000021 	move	zero,zero
    2e1c:	00000021 	move	zero,zero
    2e20:	00000021 	move	zero,zero
    2e24:	00000021 	move	zero,zero
    2e28:	3c12dfc3 	lui	s2,0xdfc3
    2e2c:	3652f740 	ori	s2,s2,0xf740
    2e30:	00000000 	nop
    2e34:	3c14fe96 	lui	s4,0xfe96
    2e38:	36944d80 	ori	s4,s4,0x4d80
    2e3c:	16141dda 	bne	s0,s4,a5a8 <inst_error>
    2e40:	00000000 	nop
    2e44:	00000000 	nop
    2e48:	3c15dfc3 	lui	s5,0xdfc3
    2e4c:	36b5f740 	ori	s5,s5,0xf740
    2e50:	16551dd5 	bne	s2,s5,a5a8 <inst_error>
    2e54:	00000000 	nop
    2e58:	00000000 	nop
    2e5c:	3c0c7e7c 	lui	t4,0x7e7c
    2e60:	358c9d00 	ori	t4,t4,0x9d00
    2e64:	3c0dbffe 	lui	t5,0xbffe
    2e68:	35ad06cf 	ori	t5,t5,0x6cf
    2e6c:	24100000 	li	s0,0
    2e70:	24120000 	li	s2,0
    2e74:	3c080000 	lui	t0,0x0
    2e78:	25082e90 	addiu	t0,t0,11920
    2e7c:	3c090000 	lui	t1,0x0
    2e80:	25292efc 	addiu	t1,t1,12028
    2e84:	1000000b 	b	2eb4 <n39_jr_test+0x2eb4>
    2e88:	00000000 	nop
    2e8c:	00000000 	nop
    2e90:	3c107e7c 	lui	s0,0x7e7c
    2e94:	01200008 	jr	t1
    2e98:	36109d00 	ori	s0,s0,0x9d00
    2e9c:	10000019 	b	2f04 <n39_jr_test+0x2f04>
    2ea0:	00000000 	nop
    2ea4:	00000000 	nop
    2ea8:	00000021 	move	zero,zero
    2eac:	00000021 	move	zero,zero
    2eb0:	00000021 	move	zero,zero
    2eb4:	01000008 	jr	t0
    2eb8:	00000000 	nop
    2ebc:	10000011 	b	2f04 <n39_jr_test+0x2f04>
    2ec0:	00000000 	nop
    2ec4:	00000000 	nop
    2ec8:	00000021 	move	zero,zero
    2ecc:	00000021 	move	zero,zero
    2ed0:	00000021 	move	zero,zero
    2ed4:	00000021 	move	zero,zero
    2ed8:	00000021 	move	zero,zero
    2edc:	00000021 	move	zero,zero
    2ee0:	00000021 	move	zero,zero
    2ee4:	00000021 	move	zero,zero
    2ee8:	00000021 	move	zero,zero
    2eec:	00000021 	move	zero,zero
    2ef0:	00000021 	move	zero,zero
    2ef4:	00000021 	move	zero,zero
    2ef8:	00000021 	move	zero,zero
    2efc:	3c12bffe 	lui	s2,0xbffe
    2f00:	365206cf 	ori	s2,s2,0x6cf
    2f04:	00000000 	nop
    2f08:	3c147e7c 	lui	s4,0x7e7c
    2f0c:	36949d00 	ori	s4,s4,0x9d00
    2f10:	16141da5 	bne	s0,s4,a5a8 <inst_error>
    2f14:	00000000 	nop
    2f18:	00000000 	nop
    2f1c:	3c15bffe 	lui	s5,0xbffe
    2f20:	36b506cf 	ori	s5,s5,0x6cf
    2f24:	16551da0 	bne	s2,s5,a5a8 <inst_error>
    2f28:	00000000 	nop
    2f2c:	00000000 	nop
    2f30:	3c0c50d9 	lui	t4,0x50d9
    2f34:	358c03d0 	ori	t4,t4,0x3d0
    2f38:	3c0d87db 	lui	t5,0x87db
    2f3c:	35ad092a 	ori	t5,t5,0x92a
    2f40:	24100000 	li	s0,0
    2f44:	24120000 	li	s2,0
    2f48:	3c080000 	lui	t0,0x0
    2f4c:	25082f64 	addiu	t0,t0,12132
    2f50:	3c090000 	lui	t1,0x0
    2f54:	25292fd0 	addiu	t1,t1,12240
    2f58:	1000000b 	b	2f88 <n39_jr_test+0x2f88>
    2f5c:	00000000 	nop
    2f60:	00000000 	nop
    2f64:	3c1050d9 	lui	s0,0x50d9
    2f68:	01200008 	jr	t1
    2f6c:	361003d0 	ori	s0,s0,0x3d0
    2f70:	10000019 	b	2fd8 <n39_jr_test+0x2fd8>
    2f74:	00000000 	nop
    2f78:	00000000 	nop
    2f7c:	00000021 	move	zero,zero
    2f80:	00000021 	move	zero,zero
    2f84:	00000021 	move	zero,zero
    2f88:	01000008 	jr	t0
    2f8c:	00000000 	nop
    2f90:	10000011 	b	2fd8 <n39_jr_test+0x2fd8>
    2f94:	00000000 	nop
    2f98:	00000000 	nop
    2f9c:	00000021 	move	zero,zero
    2fa0:	00000021 	move	zero,zero
    2fa4:	00000021 	move	zero,zero
    2fa8:	00000021 	move	zero,zero
    2fac:	00000021 	move	zero,zero
    2fb0:	00000021 	move	zero,zero
    2fb4:	00000021 	move	zero,zero
    2fb8:	00000021 	move	zero,zero
    2fbc:	00000021 	move	zero,zero
    2fc0:	00000021 	move	zero,zero
    2fc4:	00000021 	move	zero,zero
    2fc8:	00000021 	move	zero,zero
    2fcc:	00000021 	move	zero,zero
    2fd0:	3c1287db 	lui	s2,0x87db
    2fd4:	3652092a 	ori	s2,s2,0x92a
    2fd8:	00000000 	nop
    2fdc:	3c1450d9 	lui	s4,0x50d9
    2fe0:	369403d0 	ori	s4,s4,0x3d0
    2fe4:	16141d70 	bne	s0,s4,a5a8 <inst_error>
    2fe8:	00000000 	nop
    2fec:	00000000 	nop
    2ff0:	3c1587db 	lui	s5,0x87db
    2ff4:	36b5092a 	ori	s5,s5,0x92a
    2ff8:	16551d6b 	bne	s2,s5,a5a8 <inst_error>
    2ffc:	00000000 	nop
    3000:	00000000 	nop
    3004:	3c0c7454 	lui	t4,0x7454
    3008:	358c8fa0 	ori	t4,t4,0x8fa0
    300c:	3c0d9e2a 	lui	t5,0x9e2a
    3010:	35ad4cac 	ori	t5,t5,0x4cac
    3014:	24100000 	li	s0,0
    3018:	24120000 	li	s2,0
    301c:	3c080000 	lui	t0,0x0
    3020:	25083038 	addiu	t0,t0,12344
    3024:	3c090000 	lui	t1,0x0
    3028:	252930a4 	addiu	t1,t1,12452
    302c:	1000000b 	b	305c <n39_jr_test+0x305c>
    3030:	00000000 	nop
    3034:	00000000 	nop
    3038:	3c107454 	lui	s0,0x7454
    303c:	01200008 	jr	t1
    3040:	36108fa0 	ori	s0,s0,0x8fa0
    3044:	10000019 	b	30ac <n39_jr_test+0x30ac>
    3048:	00000000 	nop
    304c:	00000000 	nop
    3050:	00000021 	move	zero,zero
    3054:	00000021 	move	zero,zero
    3058:	00000021 	move	zero,zero
    305c:	01000008 	jr	t0
    3060:	00000000 	nop
    3064:	10000011 	b	30ac <n39_jr_test+0x30ac>
    3068:	00000000 	nop
    306c:	00000000 	nop
    3070:	00000021 	move	zero,zero
    3074:	00000021 	move	zero,zero
    3078:	00000021 	move	zero,zero
    307c:	00000021 	move	zero,zero
    3080:	00000021 	move	zero,zero
    3084:	00000021 	move	zero,zero
    3088:	00000021 	move	zero,zero
    308c:	00000021 	move	zero,zero
    3090:	00000021 	move	zero,zero
    3094:	00000021 	move	zero,zero
    3098:	00000021 	move	zero,zero
    309c:	00000021 	move	zero,zero
    30a0:	00000021 	move	zero,zero
    30a4:	3c129e2a 	lui	s2,0x9e2a
    30a8:	36524cac 	ori	s2,s2,0x4cac
    30ac:	00000000 	nop
    30b0:	3c147454 	lui	s4,0x7454
    30b4:	36948fa0 	ori	s4,s4,0x8fa0
    30b8:	16141d3b 	bne	s0,s4,a5a8 <inst_error>
    30bc:	00000000 	nop
    30c0:	00000000 	nop
    30c4:	3c159e2a 	lui	s5,0x9e2a
    30c8:	36b54cac 	ori	s5,s5,0x4cac
    30cc:	16551d36 	bne	s2,s5,a5a8 <inst_error>
    30d0:	00000000 	nop
    30d4:	00000000 	nop
    30d8:	3c0c2016 	lui	t4,0x2016
    30dc:	358c48d8 	ori	t4,t4,0x48d8
    30e0:	3c0d4ca3 	lui	t5,0x4ca3
    30e4:	35ad6af8 	ori	t5,t5,0x6af8
    30e8:	24100000 	li	s0,0
    30ec:	24120000 	li	s2,0
    30f0:	3c080000 	lui	t0,0x0
    30f4:	2508310c 	addiu	t0,t0,12556
    30f8:	3c090000 	lui	t1,0x0
    30fc:	25293178 	addiu	t1,t1,12664
    3100:	1000000b 	b	3130 <n39_jr_test+0x3130>
    3104:	00000000 	nop
    3108:	00000000 	nop
    310c:	3c102016 	lui	s0,0x2016
    3110:	01200008 	jr	t1
    3114:	361048d8 	ori	s0,s0,0x48d8
    3118:	10000019 	b	3180 <n39_jr_test+0x3180>
    311c:	00000000 	nop
    3120:	00000000 	nop
    3124:	00000021 	move	zero,zero
    3128:	00000021 	move	zero,zero
    312c:	00000021 	move	zero,zero
    3130:	01000008 	jr	t0
    3134:	00000000 	nop
    3138:	10000011 	b	3180 <n39_jr_test+0x3180>
    313c:	00000000 	nop
    3140:	00000000 	nop
    3144:	00000021 	move	zero,zero
    3148:	00000021 	move	zero,zero
    314c:	00000021 	move	zero,zero
    3150:	00000021 	move	zero,zero
    3154:	00000021 	move	zero,zero
    3158:	00000021 	move	zero,zero
    315c:	00000021 	move	zero,zero
    3160:	00000021 	move	zero,zero
    3164:	00000021 	move	zero,zero
    3168:	00000021 	move	zero,zero
    316c:	00000021 	move	zero,zero
    3170:	00000021 	move	zero,zero
    3174:	00000021 	move	zero,zero
    3178:	3c124ca3 	lui	s2,0x4ca3
    317c:	36526af8 	ori	s2,s2,0x6af8
    3180:	00000000 	nop
    3184:	3c142016 	lui	s4,0x2016
    3188:	369448d8 	ori	s4,s4,0x48d8
    318c:	16141d06 	bne	s0,s4,a5a8 <inst_error>
    3190:	00000000 	nop
    3194:	00000000 	nop
    3198:	3c154ca3 	lui	s5,0x4ca3
    319c:	36b56af8 	ori	s5,s5,0x6af8
    31a0:	16551d01 	bne	s2,s5,a5a8 <inst_error>
    31a4:	00000000 	nop
    31a8:	00000000 	nop
    31ac:	3c0c7f00 	lui	t4,0x7f00
    31b0:	358c3024 	ori	t4,t4,0x3024
    31b4:	3c0d1ea4 	lui	t5,0x1ea4
    31b8:	35ad0ce0 	ori	t5,t5,0xce0
    31bc:	24100000 	li	s0,0
    31c0:	24120000 	li	s2,0
    31c4:	3c080000 	lui	t0,0x0
    31c8:	250831e0 	addiu	t0,t0,12768
    31cc:	3c090000 	lui	t1,0x0
    31d0:	2529324c 	addiu	t1,t1,12876
    31d4:	1000000b 	b	3204 <n39_jr_test+0x3204>
    31d8:	00000000 	nop
    31dc:	00000000 	nop
    31e0:	3c107f00 	lui	s0,0x7f00
    31e4:	01200008 	jr	t1
    31e8:	36103024 	ori	s0,s0,0x3024
    31ec:	10000019 	b	3254 <n39_jr_test+0x3254>
    31f0:	00000000 	nop
    31f4:	00000000 	nop
    31f8:	00000021 	move	zero,zero
    31fc:	00000021 	move	zero,zero
    3200:	00000021 	move	zero,zero
    3204:	01000008 	jr	t0
    3208:	00000000 	nop
    320c:	10000011 	b	3254 <n39_jr_test+0x3254>
    3210:	00000000 	nop
    3214:	00000000 	nop
    3218:	00000021 	move	zero,zero
    321c:	00000021 	move	zero,zero
    3220:	00000021 	move	zero,zero
    3224:	00000021 	move	zero,zero
    3228:	00000021 	move	zero,zero
    322c:	00000021 	move	zero,zero
    3230:	00000021 	move	zero,zero
    3234:	00000021 	move	zero,zero
    3238:	00000021 	move	zero,zero
    323c:	00000021 	move	zero,zero
    3240:	00000021 	move	zero,zero
    3244:	00000021 	move	zero,zero
    3248:	00000021 	move	zero,zero
    324c:	3c121ea4 	lui	s2,0x1ea4
    3250:	36520ce0 	ori	s2,s2,0xce0
    3254:	00000000 	nop
    3258:	3c147f00 	lui	s4,0x7f00
    325c:	36943024 	ori	s4,s4,0x3024
    3260:	16141cd1 	bne	s0,s4,a5a8 <inst_error>
    3264:	00000000 	nop
    3268:	00000000 	nop
    326c:	3c151ea4 	lui	s5,0x1ea4
    3270:	36b50ce0 	ori	s5,s5,0xce0
    3274:	16551ccc 	bne	s2,s5,a5a8 <inst_error>
    3278:	00000000 	nop
    327c:	00000000 	nop
    3280:	3c0c51eb 	lui	t4,0x51eb
    3284:	358c241a 	ori	t4,t4,0x241a
    3288:	3c0d529c 	lui	t5,0x529c
    328c:	35ad528c 	ori	t5,t5,0x528c
    3290:	24100000 	li	s0,0
    3294:	24120000 	li	s2,0
    3298:	3c080000 	lui	t0,0x0
    329c:	250832b4 	addiu	t0,t0,12980
    32a0:	3c090000 	lui	t1,0x0
    32a4:	25293320 	addiu	t1,t1,13088
    32a8:	1000000b 	b	32d8 <n39_jr_test+0x32d8>
    32ac:	00000000 	nop
    32b0:	00000000 	nop
    32b4:	3c1051eb 	lui	s0,0x51eb
    32b8:	01200008 	jr	t1
    32bc:	3610241a 	ori	s0,s0,0x241a
    32c0:	10000019 	b	3328 <n39_jr_test+0x3328>
    32c4:	00000000 	nop
    32c8:	00000000 	nop
    32cc:	00000021 	move	zero,zero
    32d0:	00000021 	move	zero,zero
    32d4:	00000021 	move	zero,zero
    32d8:	01000008 	jr	t0
    32dc:	00000000 	nop
    32e0:	10000011 	b	3328 <n39_jr_test+0x3328>
    32e4:	00000000 	nop
    32e8:	00000000 	nop
    32ec:	00000021 	move	zero,zero
    32f0:	00000021 	move	zero,zero
    32f4:	00000021 	move	zero,zero
    32f8:	00000021 	move	zero,zero
    32fc:	00000021 	move	zero,zero
    3300:	00000021 	move	zero,zero
    3304:	00000021 	move	zero,zero
    3308:	00000021 	move	zero,zero
    330c:	00000021 	move	zero,zero
    3310:	00000021 	move	zero,zero
    3314:	00000021 	move	zero,zero
    3318:	00000021 	move	zero,zero
    331c:	00000021 	move	zero,zero
    3320:	3c12529c 	lui	s2,0x529c
    3324:	3652528c 	ori	s2,s2,0x528c
    3328:	00000000 	nop
    332c:	3c1451eb 	lui	s4,0x51eb
    3330:	3694241a 	ori	s4,s4,0x241a
    3334:	16141c9c 	bne	s0,s4,a5a8 <inst_error>
    3338:	00000000 	nop
    333c:	00000000 	nop
    3340:	3c15529c 	lui	s5,0x529c
    3344:	36b5528c 	ori	s5,s5,0x528c
    3348:	16551c97 	bne	s2,s5,a5a8 <inst_error>
    334c:	00000000 	nop
    3350:	00000000 	nop
    3354:	3c0cc863 	lui	t4,0xc863
    3358:	358c5b04 	ori	t4,t4,0x5b04
    335c:	3c0d8c04 	lui	t5,0x8c04
    3360:	35ad4938 	ori	t5,t5,0x4938
    3364:	24100000 	li	s0,0
    3368:	24120000 	li	s2,0
    336c:	3c080000 	lui	t0,0x0
    3370:	25083388 	addiu	t0,t0,13192
    3374:	3c090000 	lui	t1,0x0
    3378:	252933f4 	addiu	t1,t1,13300
    337c:	1000000b 	b	33ac <n39_jr_test+0x33ac>
    3380:	00000000 	nop
    3384:	00000000 	nop
    3388:	3c10c863 	lui	s0,0xc863
    338c:	01200008 	jr	t1
    3390:	36105b04 	ori	s0,s0,0x5b04
    3394:	10000019 	b	33fc <n39_jr_test+0x33fc>
    3398:	00000000 	nop
    339c:	00000000 	nop
    33a0:	00000021 	move	zero,zero
    33a4:	00000021 	move	zero,zero
    33a8:	00000021 	move	zero,zero
    33ac:	01000008 	jr	t0
    33b0:	00000000 	nop
    33b4:	10000011 	b	33fc <n39_jr_test+0x33fc>
    33b8:	00000000 	nop
    33bc:	00000000 	nop
    33c0:	00000021 	move	zero,zero
    33c4:	00000021 	move	zero,zero
    33c8:	00000021 	move	zero,zero
    33cc:	00000021 	move	zero,zero
    33d0:	00000021 	move	zero,zero
    33d4:	00000021 	move	zero,zero
    33d8:	00000021 	move	zero,zero
    33dc:	00000021 	move	zero,zero
    33e0:	00000021 	move	zero,zero
    33e4:	00000021 	move	zero,zero
    33e8:	00000021 	move	zero,zero
    33ec:	00000021 	move	zero,zero
    33f0:	00000021 	move	zero,zero
    33f4:	3c128c04 	lui	s2,0x8c04
    33f8:	36524938 	ori	s2,s2,0x4938
    33fc:	00000000 	nop
    3400:	3c14c863 	lui	s4,0xc863
    3404:	36945b04 	ori	s4,s4,0x5b04
    3408:	16141c67 	bne	s0,s4,a5a8 <inst_error>
    340c:	00000000 	nop
    3410:	00000000 	nop
    3414:	3c158c04 	lui	s5,0x8c04
    3418:	36b54938 	ori	s5,s5,0x4938
    341c:	16551c62 	bne	s2,s5,a5a8 <inst_error>
    3420:	00000000 	nop
    3424:	00000000 	nop
    3428:	3c0c0cb8 	lui	t4,0xcb8
    342c:	358cdc78 	ori	t4,t4,0xdc78
    3430:	3c0d472e 	lui	t5,0x472e
    3434:	35adc656 	ori	t5,t5,0xc656
    3438:	24100000 	li	s0,0
    343c:	24120000 	li	s2,0
    3440:	3c080000 	lui	t0,0x0
    3444:	2508345c 	addiu	t0,t0,13404
    3448:	3c090000 	lui	t1,0x0
    344c:	252934c8 	addiu	t1,t1,13512
    3450:	1000000b 	b	3480 <n39_jr_test+0x3480>
    3454:	00000000 	nop
    3458:	00000000 	nop
    345c:	3c100cb8 	lui	s0,0xcb8
    3460:	01200008 	jr	t1
    3464:	3610dc78 	ori	s0,s0,0xdc78
    3468:	10000019 	b	34d0 <n39_jr_test+0x34d0>
    346c:	00000000 	nop
    3470:	00000000 	nop
    3474:	00000021 	move	zero,zero
    3478:	00000021 	move	zero,zero
    347c:	00000021 	move	zero,zero
    3480:	01000008 	jr	t0
    3484:	00000000 	nop
    3488:	10000011 	b	34d0 <n39_jr_test+0x34d0>
    348c:	00000000 	nop
    3490:	00000000 	nop
    3494:	00000021 	move	zero,zero
    3498:	00000021 	move	zero,zero
    349c:	00000021 	move	zero,zero
    34a0:	00000021 	move	zero,zero
    34a4:	00000021 	move	zero,zero
    34a8:	00000021 	move	zero,zero
    34ac:	00000021 	move	zero,zero
    34b0:	00000021 	move	zero,zero
    34b4:	00000021 	move	zero,zero
    34b8:	00000021 	move	zero,zero
    34bc:	00000021 	move	zero,zero
    34c0:	00000021 	move	zero,zero
    34c4:	00000021 	move	zero,zero
    34c8:	3c12472e 	lui	s2,0x472e
    34cc:	3652c656 	ori	s2,s2,0xc656
    34d0:	00000000 	nop
    34d4:	3c140cb8 	lui	s4,0xcb8
    34d8:	3694dc78 	ori	s4,s4,0xdc78
    34dc:	16141c32 	bne	s0,s4,a5a8 <inst_error>
    34e0:	00000000 	nop
    34e4:	00000000 	nop
    34e8:	3c15472e 	lui	s5,0x472e
    34ec:	36b5c656 	ori	s5,s5,0xc656
    34f0:	16551c2d 	bne	s2,s5,a5a8 <inst_error>
    34f4:	00000000 	nop
    34f8:	00000000 	nop
    34fc:	3c0c06a0 	lui	t4,0x6a0
    3500:	358c15f4 	ori	t4,t4,0x15f4
    3504:	3c0d3d3a 	lui	t5,0x3d3a
    3508:	35ad6660 	ori	t5,t5,0x6660
    350c:	24100000 	li	s0,0
    3510:	24120000 	li	s2,0
    3514:	3c080000 	lui	t0,0x0
    3518:	25083530 	addiu	t0,t0,13616
    351c:	3c090000 	lui	t1,0x0
    3520:	2529359c 	addiu	t1,t1,13724
    3524:	1000000b 	b	3554 <n39_jr_test+0x3554>
    3528:	00000000 	nop
    352c:	00000000 	nop
    3530:	3c1006a0 	lui	s0,0x6a0
    3534:	01200008 	jr	t1
    3538:	361015f4 	ori	s0,s0,0x15f4
    353c:	10000019 	b	35a4 <n39_jr_test+0x35a4>
    3540:	00000000 	nop
    3544:	00000000 	nop
    3548:	00000021 	move	zero,zero
    354c:	00000021 	move	zero,zero
    3550:	00000021 	move	zero,zero
    3554:	01000008 	jr	t0
    3558:	00000000 	nop
    355c:	10000011 	b	35a4 <n39_jr_test+0x35a4>
    3560:	00000000 	nop
    3564:	00000000 	nop
    3568:	00000021 	move	zero,zero
    356c:	00000021 	move	zero,zero
    3570:	00000021 	move	zero,zero
    3574:	00000021 	move	zero,zero
    3578:	00000021 	move	zero,zero
    357c:	00000021 	move	zero,zero
    3580:	00000021 	move	zero,zero
    3584:	00000021 	move	zero,zero
    3588:	00000021 	move	zero,zero
    358c:	00000021 	move	zero,zero
    3590:	00000021 	move	zero,zero
    3594:	00000021 	move	zero,zero
    3598:	00000021 	move	zero,zero
    359c:	3c123d3a 	lui	s2,0x3d3a
    35a0:	36526660 	ori	s2,s2,0x6660
    35a4:	00000000 	nop
    35a8:	3c1406a0 	lui	s4,0x6a0
    35ac:	369415f4 	ori	s4,s4,0x15f4
    35b0:	16141bfd 	bne	s0,s4,a5a8 <inst_error>
    35b4:	00000000 	nop
    35b8:	00000000 	nop
    35bc:	3c153d3a 	lui	s5,0x3d3a
    35c0:	36b56660 	ori	s5,s5,0x6660
    35c4:	16551bf8 	bne	s2,s5,a5a8 <inst_error>
    35c8:	00000000 	nop
    35cc:	00000000 	nop
    35d0:	3c0c497f 	lui	t4,0x497f
    35d4:	358c1bbb 	ori	t4,t4,0x1bbb
    35d8:	3c0d9e9c 	lui	t5,0x9e9c
    35dc:	35ad7554 	ori	t5,t5,0x7554
    35e0:	24100000 	li	s0,0
    35e4:	24120000 	li	s2,0
    35e8:	3c080000 	lui	t0,0x0
    35ec:	25083604 	addiu	t0,t0,13828
    35f0:	3c090000 	lui	t1,0x0
    35f4:	25293670 	addiu	t1,t1,13936
    35f8:	1000000b 	b	3628 <n39_jr_test+0x3628>
    35fc:	00000000 	nop
    3600:	00000000 	nop
    3604:	3c10497f 	lui	s0,0x497f
    3608:	01200008 	jr	t1
    360c:	36101bbb 	ori	s0,s0,0x1bbb
    3610:	10000019 	b	3678 <n39_jr_test+0x3678>
    3614:	00000000 	nop
    3618:	00000000 	nop
    361c:	00000021 	move	zero,zero
    3620:	00000021 	move	zero,zero
    3624:	00000021 	move	zero,zero
    3628:	01000008 	jr	t0
    362c:	00000000 	nop
    3630:	10000011 	b	3678 <n39_jr_test+0x3678>
    3634:	00000000 	nop
    3638:	00000000 	nop
    363c:	00000021 	move	zero,zero
    3640:	00000021 	move	zero,zero
    3644:	00000021 	move	zero,zero
    3648:	00000021 	move	zero,zero
    364c:	00000021 	move	zero,zero
    3650:	00000021 	move	zero,zero
    3654:	00000021 	move	zero,zero
    3658:	00000021 	move	zero,zero
    365c:	00000021 	move	zero,zero
    3660:	00000021 	move	zero,zero
    3664:	00000021 	move	zero,zero
    3668:	00000021 	move	zero,zero
    366c:	00000021 	move	zero,zero
    3670:	3c129e9c 	lui	s2,0x9e9c
    3674:	36527554 	ori	s2,s2,0x7554
    3678:	00000000 	nop
    367c:	3c14497f 	lui	s4,0x497f
    3680:	36941bbb 	ori	s4,s4,0x1bbb
    3684:	16141bc8 	bne	s0,s4,a5a8 <inst_error>
    3688:	00000000 	nop
    368c:	00000000 	nop
    3690:	3c159e9c 	lui	s5,0x9e9c
    3694:	36b57554 	ori	s5,s5,0x7554
    3698:	16551bc3 	bne	s2,s5,a5a8 <inst_error>
    369c:	00000000 	nop
    36a0:	00000000 	nop
    36a4:	3c0c7d23 	lui	t4,0x7d23
    36a8:	358cbf6a 	ori	t4,t4,0xbf6a
    36ac:	3c0d4713 	lui	t5,0x4713
    36b0:	35ad2400 	ori	t5,t5,0x2400
    36b4:	24100000 	li	s0,0
    36b8:	24120000 	li	s2,0
    36bc:	3c080000 	lui	t0,0x0
    36c0:	250836d8 	addiu	t0,t0,14040
    36c4:	3c090000 	lui	t1,0x0
    36c8:	25293744 	addiu	t1,t1,14148
    36cc:	1000000b 	b	36fc <n39_jr_test+0x36fc>
    36d0:	00000000 	nop
    36d4:	00000000 	nop
    36d8:	3c107d23 	lui	s0,0x7d23
    36dc:	01200008 	jr	t1
    36e0:	3610bf6a 	ori	s0,s0,0xbf6a
    36e4:	10000019 	b	374c <n39_jr_test+0x374c>
    36e8:	00000000 	nop
    36ec:	00000000 	nop
    36f0:	00000021 	move	zero,zero
    36f4:	00000021 	move	zero,zero
    36f8:	00000021 	move	zero,zero
    36fc:	01000008 	jr	t0
    3700:	00000000 	nop
    3704:	10000011 	b	374c <n39_jr_test+0x374c>
    3708:	00000000 	nop
    370c:	00000000 	nop
    3710:	00000021 	move	zero,zero
    3714:	00000021 	move	zero,zero
    3718:	00000021 	move	zero,zero
    371c:	00000021 	move	zero,zero
    3720:	00000021 	move	zero,zero
    3724:	00000021 	move	zero,zero
    3728:	00000021 	move	zero,zero
    372c:	00000021 	move	zero,zero
    3730:	00000021 	move	zero,zero
    3734:	00000021 	move	zero,zero
    3738:	00000021 	move	zero,zero
    373c:	00000021 	move	zero,zero
    3740:	00000021 	move	zero,zero
    3744:	3c124713 	lui	s2,0x4713
    3748:	36522400 	ori	s2,s2,0x2400
    374c:	00000000 	nop
    3750:	3c147d23 	lui	s4,0x7d23
    3754:	3694bf6a 	ori	s4,s4,0xbf6a
    3758:	16141b93 	bne	s0,s4,a5a8 <inst_error>
    375c:	00000000 	nop
    3760:	00000000 	nop
    3764:	3c154713 	lui	s5,0x4713
    3768:	36b52400 	ori	s5,s5,0x2400
    376c:	16551b8e 	bne	s2,s5,a5a8 <inst_error>
    3770:	00000000 	nop
    3774:	00000000 	nop
    3778:	3c0c4c48 	lui	t4,0x4c48
    377c:	358cff70 	ori	t4,t4,0xff70
    3780:	3c0d72c6 	lui	t5,0x72c6
    3784:	35ad7dde 	ori	t5,t5,0x7dde
    3788:	24100000 	li	s0,0
    378c:	24120000 	li	s2,0
    3790:	3c080000 	lui	t0,0x0
    3794:	250837ac 	addiu	t0,t0,14252
    3798:	3c090000 	lui	t1,0x0
    379c:	25293818 	addiu	t1,t1,14360
    37a0:	1000000b 	b	37d0 <n39_jr_test+0x37d0>
    37a4:	00000000 	nop
    37a8:	00000000 	nop
    37ac:	3c104c48 	lui	s0,0x4c48
    37b0:	01200008 	jr	t1
    37b4:	3610ff70 	ori	s0,s0,0xff70
    37b8:	10000019 	b	3820 <n39_jr_test+0x3820>
    37bc:	00000000 	nop
    37c0:	00000000 	nop
    37c4:	00000021 	move	zero,zero
    37c8:	00000021 	move	zero,zero
    37cc:	00000021 	move	zero,zero
    37d0:	01000008 	jr	t0
    37d4:	00000000 	nop
    37d8:	10000011 	b	3820 <n39_jr_test+0x3820>
    37dc:	00000000 	nop
    37e0:	00000000 	nop
    37e4:	00000021 	move	zero,zero
    37e8:	00000021 	move	zero,zero
    37ec:	00000021 	move	zero,zero
    37f0:	00000021 	move	zero,zero
    37f4:	00000021 	move	zero,zero
    37f8:	00000021 	move	zero,zero
    37fc:	00000021 	move	zero,zero
    3800:	00000021 	move	zero,zero
    3804:	00000021 	move	zero,zero
    3808:	00000021 	move	zero,zero
    380c:	00000021 	move	zero,zero
    3810:	00000021 	move	zero,zero
    3814:	00000021 	move	zero,zero
    3818:	3c1272c6 	lui	s2,0x72c6
    381c:	36527dde 	ori	s2,s2,0x7dde
    3820:	00000000 	nop
    3824:	3c144c48 	lui	s4,0x4c48
    3828:	3694ff70 	ori	s4,s4,0xff70
    382c:	16141b5e 	bne	s0,s4,a5a8 <inst_error>
    3830:	00000000 	nop
    3834:	00000000 	nop
    3838:	3c1572c6 	lui	s5,0x72c6
    383c:	36b57dde 	ori	s5,s5,0x7dde
    3840:	16551b59 	bne	s2,s5,a5a8 <inst_error>
    3844:	00000000 	nop
    3848:	00000000 	nop
    384c:	3c0cec8f 	lui	t4,0xec8f
    3850:	358ce608 	ori	t4,t4,0xe608
    3854:	3c0d9716 	lui	t5,0x9716
    3858:	35adea6e 	ori	t5,t5,0xea6e
    385c:	24100000 	li	s0,0
    3860:	24120000 	li	s2,0
    3864:	3c080000 	lui	t0,0x0
    3868:	25083880 	addiu	t0,t0,14464
    386c:	3c090000 	lui	t1,0x0
    3870:	252938ec 	addiu	t1,t1,14572
    3874:	1000000b 	b	38a4 <n39_jr_test+0x38a4>
    3878:	00000000 	nop
    387c:	00000000 	nop
    3880:	3c10ec8f 	lui	s0,0xec8f
    3884:	01200008 	jr	t1
    3888:	3610e608 	ori	s0,s0,0xe608
    388c:	10000019 	b	38f4 <n39_jr_test+0x38f4>
    3890:	00000000 	nop
    3894:	00000000 	nop
    3898:	00000021 	move	zero,zero
    389c:	00000021 	move	zero,zero
    38a0:	00000021 	move	zero,zero
    38a4:	01000008 	jr	t0
    38a8:	00000000 	nop
    38ac:	10000011 	b	38f4 <n39_jr_test+0x38f4>
    38b0:	00000000 	nop
    38b4:	00000000 	nop
    38b8:	00000021 	move	zero,zero
    38bc:	00000021 	move	zero,zero
    38c0:	00000021 	move	zero,zero
    38c4:	00000021 	move	zero,zero
    38c8:	00000021 	move	zero,zero
    38cc:	00000021 	move	zero,zero
    38d0:	00000021 	move	zero,zero
    38d4:	00000021 	move	zero,zero
    38d8:	00000021 	move	zero,zero
    38dc:	00000021 	move	zero,zero
    38e0:	00000021 	move	zero,zero
    38e4:	00000021 	move	zero,zero
    38e8:	00000021 	move	zero,zero
    38ec:	3c129716 	lui	s2,0x9716
    38f0:	3652ea6e 	ori	s2,s2,0xea6e
    38f4:	00000000 	nop
    38f8:	3c14ec8f 	lui	s4,0xec8f
    38fc:	3694e608 	ori	s4,s4,0xe608
    3900:	16141b29 	bne	s0,s4,a5a8 <inst_error>
    3904:	00000000 	nop
    3908:	00000000 	nop
    390c:	3c159716 	lui	s5,0x9716
    3910:	36b5ea6e 	ori	s5,s5,0xea6e
    3914:	16551b24 	bne	s2,s5,a5a8 <inst_error>
    3918:	00000000 	nop
    391c:	00000000 	nop
    3920:	3c0c5949 	lui	t4,0x5949
    3924:	358c60c2 	ori	t4,t4,0x60c2
    3928:	3c0d411a 	lui	t5,0x411a
    392c:	35adc960 	ori	t5,t5,0xc960
    3930:	24100000 	li	s0,0
    3934:	24120000 	li	s2,0
    3938:	3c080000 	lui	t0,0x0
    393c:	25083954 	addiu	t0,t0,14676
    3940:	3c090000 	lui	t1,0x0
    3944:	252939c0 	addiu	t1,t1,14784
    3948:	1000000b 	b	3978 <n39_jr_test+0x3978>
    394c:	00000000 	nop
    3950:	00000000 	nop
    3954:	3c105949 	lui	s0,0x5949
    3958:	01200008 	jr	t1
    395c:	361060c2 	ori	s0,s0,0x60c2
    3960:	10000019 	b	39c8 <n39_jr_test+0x39c8>
    3964:	00000000 	nop
    3968:	00000000 	nop
    396c:	00000021 	move	zero,zero
    3970:	00000021 	move	zero,zero
    3974:	00000021 	move	zero,zero
    3978:	01000008 	jr	t0
    397c:	00000000 	nop
    3980:	10000011 	b	39c8 <n39_jr_test+0x39c8>
    3984:	00000000 	nop
    3988:	00000000 	nop
    398c:	00000021 	move	zero,zero
    3990:	00000021 	move	zero,zero
    3994:	00000021 	move	zero,zero
    3998:	00000021 	move	zero,zero
    399c:	00000021 	move	zero,zero
    39a0:	00000021 	move	zero,zero
    39a4:	00000021 	move	zero,zero
    39a8:	00000021 	move	zero,zero
    39ac:	00000021 	move	zero,zero
    39b0:	00000021 	move	zero,zero
    39b4:	00000021 	move	zero,zero
    39b8:	00000021 	move	zero,zero
    39bc:	00000021 	move	zero,zero
    39c0:	3c12411a 	lui	s2,0x411a
    39c4:	3652c960 	ori	s2,s2,0xc960
    39c8:	00000000 	nop
    39cc:	3c145949 	lui	s4,0x5949
    39d0:	369460c2 	ori	s4,s4,0x60c2
    39d4:	16141af4 	bne	s0,s4,a5a8 <inst_error>
    39d8:	00000000 	nop
    39dc:	00000000 	nop
    39e0:	3c15411a 	lui	s5,0x411a
    39e4:	36b5c960 	ori	s5,s5,0xc960
    39e8:	16551aef 	bne	s2,s5,a5a8 <inst_error>
    39ec:	00000000 	nop
    39f0:	00000000 	nop
    39f4:	3c0c6da3 	lui	t4,0x6da3
    39f8:	358c6a64 	ori	t4,t4,0x6a64
    39fc:	3c0df198 	lui	t5,0xf198
    3a00:	35ad41d7 	ori	t5,t5,0x41d7
    3a04:	24100000 	li	s0,0
    3a08:	24120000 	li	s2,0
    3a0c:	3c080000 	lui	t0,0x0
    3a10:	25083a28 	addiu	t0,t0,14888
    3a14:	3c090000 	lui	t1,0x0
    3a18:	25293a94 	addiu	t1,t1,14996
    3a1c:	1000000b 	b	3a4c <n39_jr_test+0x3a4c>
    3a20:	00000000 	nop
    3a24:	00000000 	nop
    3a28:	3c106da3 	lui	s0,0x6da3
    3a2c:	01200008 	jr	t1
    3a30:	36106a64 	ori	s0,s0,0x6a64
    3a34:	10000019 	b	3a9c <n39_jr_test+0x3a9c>
    3a38:	00000000 	nop
    3a3c:	00000000 	nop
    3a40:	00000021 	move	zero,zero
    3a44:	00000021 	move	zero,zero
    3a48:	00000021 	move	zero,zero
    3a4c:	01000008 	jr	t0
    3a50:	00000000 	nop
    3a54:	10000011 	b	3a9c <n39_jr_test+0x3a9c>
    3a58:	00000000 	nop
    3a5c:	00000000 	nop
    3a60:	00000021 	move	zero,zero
    3a64:	00000021 	move	zero,zero
    3a68:	00000021 	move	zero,zero
    3a6c:	00000021 	move	zero,zero
    3a70:	00000021 	move	zero,zero
    3a74:	00000021 	move	zero,zero
    3a78:	00000021 	move	zero,zero
    3a7c:	00000021 	move	zero,zero
    3a80:	00000021 	move	zero,zero
    3a84:	00000021 	move	zero,zero
    3a88:	00000021 	move	zero,zero
    3a8c:	00000021 	move	zero,zero
    3a90:	00000021 	move	zero,zero
    3a94:	3c12f198 	lui	s2,0xf198
    3a98:	365241d7 	ori	s2,s2,0x41d7
    3a9c:	00000000 	nop
    3aa0:	3c146da3 	lui	s4,0x6da3
    3aa4:	36946a64 	ori	s4,s4,0x6a64
    3aa8:	16141abf 	bne	s0,s4,a5a8 <inst_error>
    3aac:	00000000 	nop
    3ab0:	00000000 	nop
    3ab4:	3c15f198 	lui	s5,0xf198
    3ab8:	36b541d7 	ori	s5,s5,0x41d7
    3abc:	16551aba 	bne	s2,s5,a5a8 <inst_error>
    3ac0:	00000000 	nop
    3ac4:	00000000 	nop
    3ac8:	3c0c55e3 	lui	t4,0x55e3
    3acc:	358c0a34 	ori	t4,t4,0xa34
    3ad0:	3c0d7334 	lui	t5,0x7334
    3ad4:	35ad1241 	ori	t5,t5,0x1241
    3ad8:	24100000 	li	s0,0
    3adc:	24120000 	li	s2,0
    3ae0:	3c080000 	lui	t0,0x0
    3ae4:	25083afc 	addiu	t0,t0,15100
    3ae8:	3c090000 	lui	t1,0x0
    3aec:	25293b68 	addiu	t1,t1,15208
    3af0:	1000000b 	b	3b20 <n39_jr_test+0x3b20>
    3af4:	00000000 	nop
    3af8:	00000000 	nop
    3afc:	3c1055e3 	lui	s0,0x55e3
    3b00:	01200008 	jr	t1
    3b04:	36100a34 	ori	s0,s0,0xa34
    3b08:	10000019 	b	3b70 <n39_jr_test+0x3b70>
    3b0c:	00000000 	nop
    3b10:	00000000 	nop
    3b14:	00000021 	move	zero,zero
    3b18:	00000021 	move	zero,zero
    3b1c:	00000021 	move	zero,zero
    3b20:	01000008 	jr	t0
    3b24:	00000000 	nop
    3b28:	10000011 	b	3b70 <n39_jr_test+0x3b70>
    3b2c:	00000000 	nop
    3b30:	00000000 	nop
    3b34:	00000021 	move	zero,zero
    3b38:	00000021 	move	zero,zero
    3b3c:	00000021 	move	zero,zero
    3b40:	00000021 	move	zero,zero
    3b44:	00000021 	move	zero,zero
    3b48:	00000021 	move	zero,zero
    3b4c:	00000021 	move	zero,zero
    3b50:	00000021 	move	zero,zero
    3b54:	00000021 	move	zero,zero
    3b58:	00000021 	move	zero,zero
    3b5c:	00000021 	move	zero,zero
    3b60:	00000021 	move	zero,zero
    3b64:	00000021 	move	zero,zero
    3b68:	3c127334 	lui	s2,0x7334
    3b6c:	36521241 	ori	s2,s2,0x1241
    3b70:	00000000 	nop
    3b74:	3c1455e3 	lui	s4,0x55e3
    3b78:	36940a34 	ori	s4,s4,0xa34
    3b7c:	16141a8a 	bne	s0,s4,a5a8 <inst_error>
    3b80:	00000000 	nop
    3b84:	00000000 	nop
    3b88:	3c157334 	lui	s5,0x7334
    3b8c:	36b51241 	ori	s5,s5,0x1241
    3b90:	16551a85 	bne	s2,s5,a5a8 <inst_error>
    3b94:	00000000 	nop
    3b98:	00000000 	nop
    3b9c:	3c0c42ee 	lui	t4,0x42ee
    3ba0:	358c28fa 	ori	t4,t4,0x28fa
    3ba4:	3c0db3af 	lui	t5,0xb3af
    3ba8:	35ad47c0 	ori	t5,t5,0x47c0
    3bac:	24100000 	li	s0,0
    3bb0:	24120000 	li	s2,0
    3bb4:	3c080000 	lui	t0,0x0
    3bb8:	25083bd0 	addiu	t0,t0,15312
    3bbc:	3c090000 	lui	t1,0x0
    3bc0:	25293c3c 	addiu	t1,t1,15420
    3bc4:	1000000b 	b	3bf4 <n39_jr_test+0x3bf4>
    3bc8:	00000000 	nop
    3bcc:	00000000 	nop
    3bd0:	3c1042ee 	lui	s0,0x42ee
    3bd4:	01200008 	jr	t1
    3bd8:	361028fa 	ori	s0,s0,0x28fa
    3bdc:	10000019 	b	3c44 <n39_jr_test+0x3c44>
    3be0:	00000000 	nop
    3be4:	00000000 	nop
    3be8:	00000021 	move	zero,zero
    3bec:	00000021 	move	zero,zero
    3bf0:	00000021 	move	zero,zero
    3bf4:	01000008 	jr	t0
    3bf8:	00000000 	nop
    3bfc:	10000011 	b	3c44 <n39_jr_test+0x3c44>
    3c00:	00000000 	nop
    3c04:	00000000 	nop
    3c08:	00000021 	move	zero,zero
    3c0c:	00000021 	move	zero,zero
    3c10:	00000021 	move	zero,zero
    3c14:	00000021 	move	zero,zero
    3c18:	00000021 	move	zero,zero
    3c1c:	00000021 	move	zero,zero
    3c20:	00000021 	move	zero,zero
    3c24:	00000021 	move	zero,zero
    3c28:	00000021 	move	zero,zero
    3c2c:	00000021 	move	zero,zero
    3c30:	00000021 	move	zero,zero
    3c34:	00000021 	move	zero,zero
    3c38:	00000021 	move	zero,zero
    3c3c:	3c12b3af 	lui	s2,0xb3af
    3c40:	365247c0 	ori	s2,s2,0x47c0
    3c44:	00000000 	nop
    3c48:	3c1442ee 	lui	s4,0x42ee
    3c4c:	369428fa 	ori	s4,s4,0x28fa
    3c50:	16141a55 	bne	s0,s4,a5a8 <inst_error>
    3c54:	00000000 	nop
    3c58:	00000000 	nop
    3c5c:	3c15b3af 	lui	s5,0xb3af
    3c60:	36b547c0 	ori	s5,s5,0x47c0
    3c64:	16551a50 	bne	s2,s5,a5a8 <inst_error>
    3c68:	00000000 	nop
    3c6c:	00000000 	nop
    3c70:	3c0c0f2e 	lui	t4,0xf2e
    3c74:	358caf30 	ori	t4,t4,0xaf30
    3c78:	3c0d966b 	lui	t5,0x966b
    3c7c:	35adc5a3 	ori	t5,t5,0xc5a3
    3c80:	24100000 	li	s0,0
    3c84:	24120000 	li	s2,0
    3c88:	3c080000 	lui	t0,0x0
    3c8c:	25083ca4 	addiu	t0,t0,15524
    3c90:	3c090000 	lui	t1,0x0
    3c94:	25293d10 	addiu	t1,t1,15632
    3c98:	1000000b 	b	3cc8 <n39_jr_test+0x3cc8>
    3c9c:	00000000 	nop
    3ca0:	00000000 	nop
    3ca4:	3c100f2e 	lui	s0,0xf2e
    3ca8:	01200008 	jr	t1
    3cac:	3610af30 	ori	s0,s0,0xaf30
    3cb0:	10000019 	b	3d18 <n39_jr_test+0x3d18>
    3cb4:	00000000 	nop
    3cb8:	00000000 	nop
    3cbc:	00000021 	move	zero,zero
    3cc0:	00000021 	move	zero,zero
    3cc4:	00000021 	move	zero,zero
    3cc8:	01000008 	jr	t0
    3ccc:	00000000 	nop
    3cd0:	10000011 	b	3d18 <n39_jr_test+0x3d18>
    3cd4:	00000000 	nop
    3cd8:	00000000 	nop
    3cdc:	00000021 	move	zero,zero
    3ce0:	00000021 	move	zero,zero
    3ce4:	00000021 	move	zero,zero
    3ce8:	00000021 	move	zero,zero
    3cec:	00000021 	move	zero,zero
    3cf0:	00000021 	move	zero,zero
    3cf4:	00000021 	move	zero,zero
    3cf8:	00000021 	move	zero,zero
    3cfc:	00000021 	move	zero,zero
    3d00:	00000021 	move	zero,zero
    3d04:	00000021 	move	zero,zero
    3d08:	00000021 	move	zero,zero
    3d0c:	00000021 	move	zero,zero
    3d10:	3c12966b 	lui	s2,0x966b
    3d14:	3652c5a3 	ori	s2,s2,0xc5a3
    3d18:	00000000 	nop
    3d1c:	3c140f2e 	lui	s4,0xf2e
    3d20:	3694af30 	ori	s4,s4,0xaf30
    3d24:	16141a20 	bne	s0,s4,a5a8 <inst_error>
    3d28:	00000000 	nop
    3d2c:	00000000 	nop
    3d30:	3c15966b 	lui	s5,0x966b
    3d34:	36b5c5a3 	ori	s5,s5,0xc5a3
    3d38:	16551a1b 	bne	s2,s5,a5a8 <inst_error>
    3d3c:	00000000 	nop
    3d40:	00000000 	nop
    3d44:	3c0c3239 	lui	t4,0x3239
    3d48:	358cb2b0 	ori	t4,t4,0xb2b0
    3d4c:	3c0d1f57 	lui	t5,0x1f57
    3d50:	35aded48 	ori	t5,t5,0xed48
    3d54:	24100000 	li	s0,0
    3d58:	24120000 	li	s2,0
    3d5c:	3c080000 	lui	t0,0x0
    3d60:	25083d78 	addiu	t0,t0,15736
    3d64:	3c090000 	lui	t1,0x0
    3d68:	25293de4 	addiu	t1,t1,15844
    3d6c:	1000000b 	b	3d9c <n39_jr_test+0x3d9c>
    3d70:	00000000 	nop
    3d74:	00000000 	nop
    3d78:	3c103239 	lui	s0,0x3239
    3d7c:	01200008 	jr	t1
    3d80:	3610b2b0 	ori	s0,s0,0xb2b0
    3d84:	10000019 	b	3dec <n39_jr_test+0x3dec>
    3d88:	00000000 	nop
    3d8c:	00000000 	nop
    3d90:	00000021 	move	zero,zero
    3d94:	00000021 	move	zero,zero
    3d98:	00000021 	move	zero,zero
    3d9c:	01000008 	jr	t0
    3da0:	00000000 	nop
    3da4:	10000011 	b	3dec <n39_jr_test+0x3dec>
    3da8:	00000000 	nop
    3dac:	00000000 	nop
    3db0:	00000021 	move	zero,zero
    3db4:	00000021 	move	zero,zero
    3db8:	00000021 	move	zero,zero
    3dbc:	00000021 	move	zero,zero
    3dc0:	00000021 	move	zero,zero
    3dc4:	00000021 	move	zero,zero
    3dc8:	00000021 	move	zero,zero
    3dcc:	00000021 	move	zero,zero
    3dd0:	00000021 	move	zero,zero
    3dd4:	00000021 	move	zero,zero
    3dd8:	00000021 	move	zero,zero
    3ddc:	00000021 	move	zero,zero
    3de0:	00000021 	move	zero,zero
    3de4:	3c121f57 	lui	s2,0x1f57
    3de8:	3652ed48 	ori	s2,s2,0xed48
    3dec:	00000000 	nop
    3df0:	3c143239 	lui	s4,0x3239
    3df4:	3694b2b0 	ori	s4,s4,0xb2b0
    3df8:	161419eb 	bne	s0,s4,a5a8 <inst_error>
    3dfc:	00000000 	nop
    3e00:	00000000 	nop
    3e04:	3c151f57 	lui	s5,0x1f57
    3e08:	36b5ed48 	ori	s5,s5,0xed48
    3e0c:	165519e6 	bne	s2,s5,a5a8 <inst_error>
    3e10:	00000000 	nop
    3e14:	00000000 	nop
    3e18:	3c0c6298 	lui	t4,0x6298
    3e1c:	358ca0cc 	ori	t4,t4,0xa0cc
    3e20:	3c0d893e 	lui	t5,0x893e
    3e24:	35adfc1b 	ori	t5,t5,0xfc1b
    3e28:	24100000 	li	s0,0
    3e2c:	24120000 	li	s2,0
    3e30:	3c080000 	lui	t0,0x0
    3e34:	25083e4c 	addiu	t0,t0,15948
    3e38:	3c090000 	lui	t1,0x0
    3e3c:	25293eb8 	addiu	t1,t1,16056
    3e40:	1000000b 	b	3e70 <n39_jr_test+0x3e70>
    3e44:	00000000 	nop
    3e48:	00000000 	nop
    3e4c:	3c106298 	lui	s0,0x6298
    3e50:	01200008 	jr	t1
    3e54:	3610a0cc 	ori	s0,s0,0xa0cc
    3e58:	10000019 	b	3ec0 <n39_jr_test+0x3ec0>
    3e5c:	00000000 	nop
    3e60:	00000000 	nop
    3e64:	00000021 	move	zero,zero
    3e68:	00000021 	move	zero,zero
    3e6c:	00000021 	move	zero,zero
    3e70:	01000008 	jr	t0
    3e74:	00000000 	nop
    3e78:	10000011 	b	3ec0 <n39_jr_test+0x3ec0>
    3e7c:	00000000 	nop
    3e80:	00000000 	nop
    3e84:	00000021 	move	zero,zero
    3e88:	00000021 	move	zero,zero
    3e8c:	00000021 	move	zero,zero
    3e90:	00000021 	move	zero,zero
    3e94:	00000021 	move	zero,zero
    3e98:	00000021 	move	zero,zero
    3e9c:	00000021 	move	zero,zero
    3ea0:	00000021 	move	zero,zero
    3ea4:	00000021 	move	zero,zero
    3ea8:	00000021 	move	zero,zero
    3eac:	00000021 	move	zero,zero
    3eb0:	00000021 	move	zero,zero
    3eb4:	00000021 	move	zero,zero
    3eb8:	3c12893e 	lui	s2,0x893e
    3ebc:	3652fc1b 	ori	s2,s2,0xfc1b
    3ec0:	00000000 	nop
    3ec4:	3c146298 	lui	s4,0x6298
    3ec8:	3694a0cc 	ori	s4,s4,0xa0cc
    3ecc:	161419b6 	bne	s0,s4,a5a8 <inst_error>
    3ed0:	00000000 	nop
    3ed4:	00000000 	nop
    3ed8:	3c15893e 	lui	s5,0x893e
    3edc:	36b5fc1b 	ori	s5,s5,0xfc1b
    3ee0:	165519b1 	bne	s2,s5,a5a8 <inst_error>
    3ee4:	00000000 	nop
    3ee8:	00000000 	nop
    3eec:	3c0cb00f 	lui	t4,0xb00f
    3ef0:	358c60cd 	ori	t4,t4,0x60cd
    3ef4:	3c0d65c1 	lui	t5,0x65c1
    3ef8:	35adaf16 	ori	t5,t5,0xaf16
    3efc:	24100000 	li	s0,0
    3f00:	24120000 	li	s2,0
    3f04:	3c080000 	lui	t0,0x0
    3f08:	25083f20 	addiu	t0,t0,16160
    3f0c:	3c090000 	lui	t1,0x0
    3f10:	25293f8c 	addiu	t1,t1,16268
    3f14:	1000000b 	b	3f44 <n39_jr_test+0x3f44>
    3f18:	00000000 	nop
    3f1c:	00000000 	nop
    3f20:	3c10b00f 	lui	s0,0xb00f
    3f24:	01200008 	jr	t1
    3f28:	361060cd 	ori	s0,s0,0x60cd
    3f2c:	10000019 	b	3f94 <n39_jr_test+0x3f94>
    3f30:	00000000 	nop
    3f34:	00000000 	nop
    3f38:	00000021 	move	zero,zero
    3f3c:	00000021 	move	zero,zero
    3f40:	00000021 	move	zero,zero
    3f44:	01000008 	jr	t0
    3f48:	00000000 	nop
    3f4c:	10000011 	b	3f94 <n39_jr_test+0x3f94>
    3f50:	00000000 	nop
    3f54:	00000000 	nop
    3f58:	00000021 	move	zero,zero
    3f5c:	00000021 	move	zero,zero
    3f60:	00000021 	move	zero,zero
    3f64:	00000021 	move	zero,zero
    3f68:	00000021 	move	zero,zero
    3f6c:	00000021 	move	zero,zero
    3f70:	00000021 	move	zero,zero
    3f74:	00000021 	move	zero,zero
    3f78:	00000021 	move	zero,zero
    3f7c:	00000021 	move	zero,zero
    3f80:	00000021 	move	zero,zero
    3f84:	00000021 	move	zero,zero
    3f88:	00000021 	move	zero,zero
    3f8c:	3c1265c1 	lui	s2,0x65c1
    3f90:	3652af16 	ori	s2,s2,0xaf16
    3f94:	00000000 	nop
    3f98:	3c14b00f 	lui	s4,0xb00f
    3f9c:	369460cd 	ori	s4,s4,0x60cd
    3fa0:	16141981 	bne	s0,s4,a5a8 <inst_error>
    3fa4:	00000000 	nop
    3fa8:	00000000 	nop
    3fac:	3c1565c1 	lui	s5,0x65c1
    3fb0:	36b5af16 	ori	s5,s5,0xaf16
    3fb4:	1655197c 	bne	s2,s5,a5a8 <inst_error>
    3fb8:	00000000 	nop
    3fbc:	00000000 	nop
    3fc0:	3c0c0823 	lui	t4,0x823
    3fc4:	358c7624 	ori	t4,t4,0x7624
    3fc8:	3c0d38c0 	lui	t5,0x38c0
    3fcc:	35adece0 	ori	t5,t5,0xece0
    3fd0:	24100000 	li	s0,0
    3fd4:	24120000 	li	s2,0
    3fd8:	3c080000 	lui	t0,0x0
    3fdc:	25083ff4 	addiu	t0,t0,16372
    3fe0:	3c090000 	lui	t1,0x0
    3fe4:	25294060 	addiu	t1,t1,16480
    3fe8:	1000000b 	b	4018 <n39_jr_test+0x4018>
    3fec:	00000000 	nop
    3ff0:	00000000 	nop
    3ff4:	3c100823 	lui	s0,0x823
    3ff8:	01200008 	jr	t1
    3ffc:	36107624 	ori	s0,s0,0x7624
    4000:	10000019 	b	4068 <n39_jr_test+0x4068>
    4004:	00000000 	nop
    4008:	00000000 	nop
    400c:	00000021 	move	zero,zero
    4010:	00000021 	move	zero,zero
    4014:	00000021 	move	zero,zero
    4018:	01000008 	jr	t0
    401c:	00000000 	nop
    4020:	10000011 	b	4068 <n39_jr_test+0x4068>
    4024:	00000000 	nop
    4028:	00000000 	nop
    402c:	00000021 	move	zero,zero
    4030:	00000021 	move	zero,zero
    4034:	00000021 	move	zero,zero
    4038:	00000021 	move	zero,zero
    403c:	00000021 	move	zero,zero
    4040:	00000021 	move	zero,zero
    4044:	00000021 	move	zero,zero
    4048:	00000021 	move	zero,zero
    404c:	00000021 	move	zero,zero
    4050:	00000021 	move	zero,zero
    4054:	00000021 	move	zero,zero
    4058:	00000021 	move	zero,zero
    405c:	00000021 	move	zero,zero
    4060:	3c1238c0 	lui	s2,0x38c0
    4064:	3652ece0 	ori	s2,s2,0xece0
    4068:	00000000 	nop
    406c:	3c140823 	lui	s4,0x823
    4070:	36947624 	ori	s4,s4,0x7624
    4074:	1614194c 	bne	s0,s4,a5a8 <inst_error>
    4078:	00000000 	nop
    407c:	00000000 	nop
    4080:	3c1538c0 	lui	s5,0x38c0
    4084:	36b5ece0 	ori	s5,s5,0xece0
    4088:	16551947 	bne	s2,s5,a5a8 <inst_error>
    408c:	00000000 	nop
    4090:	00000000 	nop
    4094:	3c0c2dfe 	lui	t4,0x2dfe
    4098:	358ce5be 	ori	t4,t4,0xe5be
    409c:	3c0de51d 	lui	t5,0xe51d
    40a0:	35ad75a0 	ori	t5,t5,0x75a0
    40a4:	24100000 	li	s0,0
    40a8:	24120000 	li	s2,0
    40ac:	3c080000 	lui	t0,0x0
    40b0:	250840c8 	addiu	t0,t0,16584
    40b4:	3c090000 	lui	t1,0x0
    40b8:	25294134 	addiu	t1,t1,16692
    40bc:	1000000b 	b	40ec <n39_jr_test+0x40ec>
    40c0:	00000000 	nop
    40c4:	00000000 	nop
    40c8:	3c102dfe 	lui	s0,0x2dfe
    40cc:	01200008 	jr	t1
    40d0:	3610e5be 	ori	s0,s0,0xe5be
    40d4:	10000019 	b	413c <n39_jr_test+0x413c>
    40d8:	00000000 	nop
    40dc:	00000000 	nop
    40e0:	00000021 	move	zero,zero
    40e4:	00000021 	move	zero,zero
    40e8:	00000021 	move	zero,zero
    40ec:	01000008 	jr	t0
    40f0:	00000000 	nop
    40f4:	10000011 	b	413c <n39_jr_test+0x413c>
    40f8:	00000000 	nop
    40fc:	00000000 	nop
    4100:	00000021 	move	zero,zero
    4104:	00000021 	move	zero,zero
    4108:	00000021 	move	zero,zero
    410c:	00000021 	move	zero,zero
    4110:	00000021 	move	zero,zero
    4114:	00000021 	move	zero,zero
    4118:	00000021 	move	zero,zero
    411c:	00000021 	move	zero,zero
    4120:	00000021 	move	zero,zero
    4124:	00000021 	move	zero,zero
    4128:	00000021 	move	zero,zero
    412c:	00000021 	move	zero,zero
    4130:	00000021 	move	zero,zero
    4134:	3c12e51d 	lui	s2,0xe51d
    4138:	365275a0 	ori	s2,s2,0x75a0
    413c:	00000000 	nop
    4140:	3c142dfe 	lui	s4,0x2dfe
    4144:	3694e5be 	ori	s4,s4,0xe5be
    4148:	16141917 	bne	s0,s4,a5a8 <inst_error>
    414c:	00000000 	nop
    4150:	00000000 	nop
    4154:	3c15e51d 	lui	s5,0xe51d
    4158:	36b575a0 	ori	s5,s5,0x75a0
    415c:	16551912 	bne	s2,s5,a5a8 <inst_error>
    4160:	00000000 	nop
    4164:	00000000 	nop
    4168:	3c0c2ca5 	lui	t4,0x2ca5
    416c:	358c486c 	ori	t4,t4,0x486c
    4170:	3c0d7805 	lui	t5,0x7805
    4174:	35ad6284 	ori	t5,t5,0x6284
    4178:	24100000 	li	s0,0
    417c:	24120000 	li	s2,0
    4180:	3c080000 	lui	t0,0x0
    4184:	2508419c 	addiu	t0,t0,16796
    4188:	3c090000 	lui	t1,0x0
    418c:	25294208 	addiu	t1,t1,16904
    4190:	1000000b 	b	41c0 <n39_jr_test+0x41c0>
    4194:	00000000 	nop
    4198:	00000000 	nop
    419c:	3c102ca5 	lui	s0,0x2ca5
    41a0:	01200008 	jr	t1
    41a4:	3610486c 	ori	s0,s0,0x486c
    41a8:	10000019 	b	4210 <n39_jr_test+0x4210>
    41ac:	00000000 	nop
    41b0:	00000000 	nop
    41b4:	00000021 	move	zero,zero
    41b8:	00000021 	move	zero,zero
    41bc:	00000021 	move	zero,zero
    41c0:	01000008 	jr	t0
    41c4:	00000000 	nop
    41c8:	10000011 	b	4210 <n39_jr_test+0x4210>
    41cc:	00000000 	nop
    41d0:	00000000 	nop
    41d4:	00000021 	move	zero,zero
    41d8:	00000021 	move	zero,zero
    41dc:	00000021 	move	zero,zero
    41e0:	00000021 	move	zero,zero
    41e4:	00000021 	move	zero,zero
    41e8:	00000021 	move	zero,zero
    41ec:	00000021 	move	zero,zero
    41f0:	00000021 	move	zero,zero
    41f4:	00000021 	move	zero,zero
    41f8:	00000021 	move	zero,zero
    41fc:	00000021 	move	zero,zero
    4200:	00000021 	move	zero,zero
    4204:	00000021 	move	zero,zero
    4208:	3c127805 	lui	s2,0x7805
    420c:	36526284 	ori	s2,s2,0x6284
    4210:	00000000 	nop
    4214:	3c142ca5 	lui	s4,0x2ca5
    4218:	3694486c 	ori	s4,s4,0x486c
    421c:	161418e2 	bne	s0,s4,a5a8 <inst_error>
    4220:	00000000 	nop
    4224:	00000000 	nop
    4228:	3c157805 	lui	s5,0x7805
    422c:	36b56284 	ori	s5,s5,0x6284
    4230:	165518dd 	bne	s2,s5,a5a8 <inst_error>
    4234:	00000000 	nop
    4238:	00000000 	nop
    423c:	3c0c6770 	lui	t4,0x6770
    4240:	358cec50 	ori	t4,t4,0xec50
    4244:	3c0d2d3c 	lui	t5,0x2d3c
    4248:	35ad4286 	ori	t5,t5,0x4286
    424c:	24100000 	li	s0,0
    4250:	24120000 	li	s2,0
    4254:	3c080000 	lui	t0,0x0
    4258:	25084270 	addiu	t0,t0,17008
    425c:	3c090000 	lui	t1,0x0
    4260:	252942dc 	addiu	t1,t1,17116
    4264:	1000000b 	b	4294 <n39_jr_test+0x4294>
    4268:	00000000 	nop
    426c:	00000000 	nop
    4270:	3c106770 	lui	s0,0x6770
    4274:	01200008 	jr	t1
    4278:	3610ec50 	ori	s0,s0,0xec50
    427c:	10000019 	b	42e4 <n39_jr_test+0x42e4>
    4280:	00000000 	nop
    4284:	00000000 	nop
    4288:	00000021 	move	zero,zero
    428c:	00000021 	move	zero,zero
    4290:	00000021 	move	zero,zero
    4294:	01000008 	jr	t0
    4298:	00000000 	nop
    429c:	10000011 	b	42e4 <n39_jr_test+0x42e4>
    42a0:	00000000 	nop
    42a4:	00000000 	nop
    42a8:	00000021 	move	zero,zero
    42ac:	00000021 	move	zero,zero
    42b0:	00000021 	move	zero,zero
    42b4:	00000021 	move	zero,zero
    42b8:	00000021 	move	zero,zero
    42bc:	00000021 	move	zero,zero
    42c0:	00000021 	move	zero,zero
    42c4:	00000021 	move	zero,zero
    42c8:	00000021 	move	zero,zero
    42cc:	00000021 	move	zero,zero
    42d0:	00000021 	move	zero,zero
    42d4:	00000021 	move	zero,zero
    42d8:	00000021 	move	zero,zero
    42dc:	3c122d3c 	lui	s2,0x2d3c
    42e0:	36524286 	ori	s2,s2,0x4286
    42e4:	00000000 	nop
    42e8:	3c146770 	lui	s4,0x6770
    42ec:	3694ec50 	ori	s4,s4,0xec50
    42f0:	161418ad 	bne	s0,s4,a5a8 <inst_error>
    42f4:	00000000 	nop
    42f8:	00000000 	nop
    42fc:	3c152d3c 	lui	s5,0x2d3c
    4300:	36b54286 	ori	s5,s5,0x4286
    4304:	165518a8 	bne	s2,s5,a5a8 <inst_error>
    4308:	00000000 	nop
    430c:	00000000 	nop
    4310:	3c0cb37c 	lui	t4,0xb37c
    4314:	358c8454 	ori	t4,t4,0x8454
    4318:	3c0d4c65 	lui	t5,0x4c65
    431c:	35ad33f3 	ori	t5,t5,0x33f3
    4320:	24100000 	li	s0,0
    4324:	24120000 	li	s2,0
    4328:	3c080000 	lui	t0,0x0
    432c:	25084344 	addiu	t0,t0,17220
    4330:	3c090000 	lui	t1,0x0
    4334:	252943b0 	addiu	t1,t1,17328
    4338:	1000000b 	b	4368 <n39_jr_test+0x4368>
    433c:	00000000 	nop
    4340:	00000000 	nop
    4344:	3c10b37c 	lui	s0,0xb37c
    4348:	01200008 	jr	t1
    434c:	36108454 	ori	s0,s0,0x8454
    4350:	10000019 	b	43b8 <n39_jr_test+0x43b8>
    4354:	00000000 	nop
    4358:	00000000 	nop
    435c:	00000021 	move	zero,zero
    4360:	00000021 	move	zero,zero
    4364:	00000021 	move	zero,zero
    4368:	01000008 	jr	t0
    436c:	00000000 	nop
    4370:	10000011 	b	43b8 <n39_jr_test+0x43b8>
    4374:	00000000 	nop
    4378:	00000000 	nop
    437c:	00000021 	move	zero,zero
    4380:	00000021 	move	zero,zero
    4384:	00000021 	move	zero,zero
    4388:	00000021 	move	zero,zero
    438c:	00000021 	move	zero,zero
    4390:	00000021 	move	zero,zero
    4394:	00000021 	move	zero,zero
    4398:	00000021 	move	zero,zero
    439c:	00000021 	move	zero,zero
    43a0:	00000021 	move	zero,zero
    43a4:	00000021 	move	zero,zero
    43a8:	00000021 	move	zero,zero
    43ac:	00000021 	move	zero,zero
    43b0:	3c124c65 	lui	s2,0x4c65
    43b4:	365233f3 	ori	s2,s2,0x33f3
    43b8:	00000000 	nop
    43bc:	3c14b37c 	lui	s4,0xb37c
    43c0:	36948454 	ori	s4,s4,0x8454
    43c4:	16141878 	bne	s0,s4,a5a8 <inst_error>
    43c8:	00000000 	nop
    43cc:	00000000 	nop
    43d0:	3c154c65 	lui	s5,0x4c65
    43d4:	36b533f3 	ori	s5,s5,0x33f3
    43d8:	16551873 	bne	s2,s5,a5a8 <inst_error>
    43dc:	00000000 	nop
    43e0:	00000000 	nop
    43e4:	3c0c20aa 	lui	t4,0x20aa
    43e8:	358c0280 	ori	t4,t4,0x280
    43ec:	3c0d4d84 	lui	t5,0x4d84
    43f0:	35ad5d70 	ori	t5,t5,0x5d70
    43f4:	24100000 	li	s0,0
    43f8:	24120000 	li	s2,0
    43fc:	3c080000 	lui	t0,0x0
    4400:	25084418 	addiu	t0,t0,17432
    4404:	3c090000 	lui	t1,0x0
    4408:	25294484 	addiu	t1,t1,17540
    440c:	1000000b 	b	443c <n39_jr_test+0x443c>
    4410:	00000000 	nop
    4414:	00000000 	nop
    4418:	3c1020aa 	lui	s0,0x20aa
    441c:	01200008 	jr	t1
    4420:	36100280 	ori	s0,s0,0x280
    4424:	10000019 	b	448c <n39_jr_test+0x448c>
    4428:	00000000 	nop
    442c:	00000000 	nop
    4430:	00000021 	move	zero,zero
    4434:	00000021 	move	zero,zero
    4438:	00000021 	move	zero,zero
    443c:	01000008 	jr	t0
    4440:	00000000 	nop
    4444:	10000011 	b	448c <n39_jr_test+0x448c>
    4448:	00000000 	nop
    444c:	00000000 	nop
    4450:	00000021 	move	zero,zero
    4454:	00000021 	move	zero,zero
    4458:	00000021 	move	zero,zero
    445c:	00000021 	move	zero,zero
    4460:	00000021 	move	zero,zero
    4464:	00000021 	move	zero,zero
    4468:	00000021 	move	zero,zero
    446c:	00000021 	move	zero,zero
    4470:	00000021 	move	zero,zero
    4474:	00000021 	move	zero,zero
    4478:	00000021 	move	zero,zero
    447c:	00000021 	move	zero,zero
    4480:	00000021 	move	zero,zero
    4484:	3c124d84 	lui	s2,0x4d84
    4488:	36525d70 	ori	s2,s2,0x5d70
    448c:	00000000 	nop
    4490:	3c1420aa 	lui	s4,0x20aa
    4494:	36940280 	ori	s4,s4,0x280
    4498:	16141843 	bne	s0,s4,a5a8 <inst_error>
    449c:	00000000 	nop
    44a0:	00000000 	nop
    44a4:	3c154d84 	lui	s5,0x4d84
    44a8:	36b55d70 	ori	s5,s5,0x5d70
    44ac:	1655183e 	bne	s2,s5,a5a8 <inst_error>
    44b0:	00000000 	nop
    44b4:	00000000 	nop
    44b8:	3c0c557c 	lui	t4,0x557c
    44bc:	358c66c0 	ori	t4,t4,0x66c0
    44c0:	3c0d01ba 	lui	t5,0x1ba
    44c4:	35ad81a4 	ori	t5,t5,0x81a4
    44c8:	24100000 	li	s0,0
    44cc:	24120000 	li	s2,0
    44d0:	3c080000 	lui	t0,0x0
    44d4:	250844ec 	addiu	t0,t0,17644
    44d8:	3c090000 	lui	t1,0x0
    44dc:	25294558 	addiu	t1,t1,17752
    44e0:	1000000b 	b	4510 <n39_jr_test+0x4510>
    44e4:	00000000 	nop
    44e8:	00000000 	nop
    44ec:	3c10557c 	lui	s0,0x557c
    44f0:	01200008 	jr	t1
    44f4:	361066c0 	ori	s0,s0,0x66c0
    44f8:	10000019 	b	4560 <n39_jr_test+0x4560>
    44fc:	00000000 	nop
    4500:	00000000 	nop
    4504:	00000021 	move	zero,zero
    4508:	00000021 	move	zero,zero
    450c:	00000021 	move	zero,zero
    4510:	01000008 	jr	t0
    4514:	00000000 	nop
    4518:	10000011 	b	4560 <n39_jr_test+0x4560>
    451c:	00000000 	nop
    4520:	00000000 	nop
    4524:	00000021 	move	zero,zero
    4528:	00000021 	move	zero,zero
    452c:	00000021 	move	zero,zero
    4530:	00000021 	move	zero,zero
    4534:	00000021 	move	zero,zero
    4538:	00000021 	move	zero,zero
    453c:	00000021 	move	zero,zero
    4540:	00000021 	move	zero,zero
    4544:	00000021 	move	zero,zero
    4548:	00000021 	move	zero,zero
    454c:	00000021 	move	zero,zero
    4550:	00000021 	move	zero,zero
    4554:	00000021 	move	zero,zero
    4558:	3c1201ba 	lui	s2,0x1ba
    455c:	365281a4 	ori	s2,s2,0x81a4
    4560:	00000000 	nop
    4564:	3c14557c 	lui	s4,0x557c
    4568:	369466c0 	ori	s4,s4,0x66c0
    456c:	1614180e 	bne	s0,s4,a5a8 <inst_error>
    4570:	00000000 	nop
    4574:	00000000 	nop
    4578:	3c1501ba 	lui	s5,0x1ba
    457c:	36b581a4 	ori	s5,s5,0x81a4
    4580:	16551809 	bne	s2,s5,a5a8 <inst_error>
    4584:	00000000 	nop
    4588:	00000000 	nop
    458c:	3c0c4819 	lui	t4,0x4819
    4590:	358cc4f0 	ori	t4,t4,0xc4f0
    4594:	3c0d68fa 	lui	t5,0x68fa
    4598:	35ad809c 	ori	t5,t5,0x809c
    459c:	24100000 	li	s0,0
    45a0:	24120000 	li	s2,0
    45a4:	3c080000 	lui	t0,0x0
    45a8:	250845c0 	addiu	t0,t0,17856
    45ac:	3c090000 	lui	t1,0x0
    45b0:	2529462c 	addiu	t1,t1,17964
    45b4:	1000000b 	b	45e4 <n39_jr_test+0x45e4>
    45b8:	00000000 	nop
    45bc:	00000000 	nop
    45c0:	3c104819 	lui	s0,0x4819
    45c4:	01200008 	jr	t1
    45c8:	3610c4f0 	ori	s0,s0,0xc4f0
    45cc:	10000019 	b	4634 <n39_jr_test+0x4634>
    45d0:	00000000 	nop
    45d4:	00000000 	nop
    45d8:	00000021 	move	zero,zero
    45dc:	00000021 	move	zero,zero
    45e0:	00000021 	move	zero,zero
    45e4:	01000008 	jr	t0
    45e8:	00000000 	nop
    45ec:	10000011 	b	4634 <n39_jr_test+0x4634>
    45f0:	00000000 	nop
    45f4:	00000000 	nop
    45f8:	00000021 	move	zero,zero
    45fc:	00000021 	move	zero,zero
    4600:	00000021 	move	zero,zero
    4604:	00000021 	move	zero,zero
    4608:	00000021 	move	zero,zero
    460c:	00000021 	move	zero,zero
    4610:	00000021 	move	zero,zero
    4614:	00000021 	move	zero,zero
    4618:	00000021 	move	zero,zero
    461c:	00000021 	move	zero,zero
    4620:	00000021 	move	zero,zero
    4624:	00000021 	move	zero,zero
    4628:	00000021 	move	zero,zero
    462c:	3c1268fa 	lui	s2,0x68fa
    4630:	3652809c 	ori	s2,s2,0x809c
    4634:	00000000 	nop
    4638:	3c144819 	lui	s4,0x4819
    463c:	3694c4f0 	ori	s4,s4,0xc4f0
    4640:	161417d9 	bne	s0,s4,a5a8 <inst_error>
    4644:	00000000 	nop
    4648:	00000000 	nop
    464c:	3c1568fa 	lui	s5,0x68fa
    4650:	36b5809c 	ori	s5,s5,0x809c
    4654:	165517d4 	bne	s2,s5,a5a8 <inst_error>
    4658:	00000000 	nop
    465c:	00000000 	nop
    4660:	3c0cba2a 	lui	t4,0xba2a
    4664:	358c1bbc 	ori	t4,t4,0x1bbc
    4668:	3c0de5a7 	lui	t5,0xe5a7
    466c:	35ad2720 	ori	t5,t5,0x2720
    4670:	24100000 	li	s0,0
    4674:	24120000 	li	s2,0
    4678:	3c080000 	lui	t0,0x0
    467c:	25084694 	addiu	t0,t0,18068
    4680:	3c090000 	lui	t1,0x0
    4684:	25294700 	addiu	t1,t1,18176
    4688:	1000000b 	b	46b8 <n39_jr_test+0x46b8>
    468c:	00000000 	nop
    4690:	00000000 	nop
    4694:	3c10ba2a 	lui	s0,0xba2a
    4698:	01200008 	jr	t1
    469c:	36101bbc 	ori	s0,s0,0x1bbc
    46a0:	10000019 	b	4708 <n39_jr_test+0x4708>
    46a4:	00000000 	nop
    46a8:	00000000 	nop
    46ac:	00000021 	move	zero,zero
    46b0:	00000021 	move	zero,zero
    46b4:	00000021 	move	zero,zero
    46b8:	01000008 	jr	t0
    46bc:	00000000 	nop
    46c0:	10000011 	b	4708 <n39_jr_test+0x4708>
    46c4:	00000000 	nop
    46c8:	00000000 	nop
    46cc:	00000021 	move	zero,zero
    46d0:	00000021 	move	zero,zero
    46d4:	00000021 	move	zero,zero
    46d8:	00000021 	move	zero,zero
    46dc:	00000021 	move	zero,zero
    46e0:	00000021 	move	zero,zero
    46e4:	00000021 	move	zero,zero
    46e8:	00000021 	move	zero,zero
    46ec:	00000021 	move	zero,zero
    46f0:	00000021 	move	zero,zero
    46f4:	00000021 	move	zero,zero
    46f8:	00000021 	move	zero,zero
    46fc:	00000021 	move	zero,zero
    4700:	3c12e5a7 	lui	s2,0xe5a7
    4704:	36522720 	ori	s2,s2,0x2720
    4708:	00000000 	nop
    470c:	3c14ba2a 	lui	s4,0xba2a
    4710:	36941bbc 	ori	s4,s4,0x1bbc
    4714:	161417a4 	bne	s0,s4,a5a8 <inst_error>
    4718:	00000000 	nop
    471c:	00000000 	nop
    4720:	3c15e5a7 	lui	s5,0xe5a7
    4724:	36b52720 	ori	s5,s5,0x2720
    4728:	1655179f 	bne	s2,s5,a5a8 <inst_error>
    472c:	00000000 	nop
    4730:	00000000 	nop
    4734:	3c0c94a8 	lui	t4,0x94a8
    4738:	358c5658 	ori	t4,t4,0x5658
    473c:	3c0d06ef 	lui	t5,0x6ef
    4740:	35ad5a14 	ori	t5,t5,0x5a14
    4744:	24100000 	li	s0,0
    4748:	24120000 	li	s2,0
    474c:	3c080000 	lui	t0,0x0
    4750:	25084768 	addiu	t0,t0,18280
    4754:	3c090000 	lui	t1,0x0
    4758:	252947d4 	addiu	t1,t1,18388
    475c:	1000000b 	b	478c <n39_jr_test+0x478c>
    4760:	00000000 	nop
    4764:	00000000 	nop
    4768:	3c1094a8 	lui	s0,0x94a8
    476c:	01200008 	jr	t1
    4770:	36105658 	ori	s0,s0,0x5658
    4774:	10000019 	b	47dc <n39_jr_test+0x47dc>
    4778:	00000000 	nop
    477c:	00000000 	nop
    4780:	00000021 	move	zero,zero
    4784:	00000021 	move	zero,zero
    4788:	00000021 	move	zero,zero
    478c:	01000008 	jr	t0
    4790:	00000000 	nop
    4794:	10000011 	b	47dc <n39_jr_test+0x47dc>
    4798:	00000000 	nop
    479c:	00000000 	nop
    47a0:	00000021 	move	zero,zero
    47a4:	00000021 	move	zero,zero
    47a8:	00000021 	move	zero,zero
    47ac:	00000021 	move	zero,zero
    47b0:	00000021 	move	zero,zero
    47b4:	00000021 	move	zero,zero
    47b8:	00000021 	move	zero,zero
    47bc:	00000021 	move	zero,zero
    47c0:	00000021 	move	zero,zero
    47c4:	00000021 	move	zero,zero
    47c8:	00000021 	move	zero,zero
    47cc:	00000021 	move	zero,zero
    47d0:	00000021 	move	zero,zero
    47d4:	3c1206ef 	lui	s2,0x6ef
    47d8:	36525a14 	ori	s2,s2,0x5a14
    47dc:	00000000 	nop
    47e0:	3c1494a8 	lui	s4,0x94a8
    47e4:	36945658 	ori	s4,s4,0x5658
    47e8:	1614176f 	bne	s0,s4,a5a8 <inst_error>
    47ec:	00000000 	nop
    47f0:	00000000 	nop
    47f4:	3c1506ef 	lui	s5,0x6ef
    47f8:	36b55a14 	ori	s5,s5,0x5a14
    47fc:	1655176a 	bne	s2,s5,a5a8 <inst_error>
    4800:	00000000 	nop
    4804:	00000000 	nop
    4808:	3c0c4729 	lui	t4,0x4729
    480c:	358ccab8 	ori	t4,t4,0xcab8
    4810:	3c0ddcc9 	lui	t5,0xdcc9
    4814:	35addb9c 	ori	t5,t5,0xdb9c
    4818:	24100000 	li	s0,0
    481c:	24120000 	li	s2,0
    4820:	3c080000 	lui	t0,0x0
    4824:	2508483c 	addiu	t0,t0,18492
    4828:	3c090000 	lui	t1,0x0
    482c:	252948a8 	addiu	t1,t1,18600
    4830:	1000000b 	b	4860 <n39_jr_test+0x4860>
    4834:	00000000 	nop
    4838:	00000000 	nop
    483c:	3c104729 	lui	s0,0x4729
    4840:	01200008 	jr	t1
    4844:	3610cab8 	ori	s0,s0,0xcab8
    4848:	10000019 	b	48b0 <n39_jr_test+0x48b0>
    484c:	00000000 	nop
    4850:	00000000 	nop
    4854:	00000021 	move	zero,zero
    4858:	00000021 	move	zero,zero
    485c:	00000021 	move	zero,zero
    4860:	01000008 	jr	t0
    4864:	00000000 	nop
    4868:	10000011 	b	48b0 <n39_jr_test+0x48b0>
    486c:	00000000 	nop
    4870:	00000000 	nop
    4874:	00000021 	move	zero,zero
    4878:	00000021 	move	zero,zero
    487c:	00000021 	move	zero,zero
    4880:	00000021 	move	zero,zero
    4884:	00000021 	move	zero,zero
    4888:	00000021 	move	zero,zero
    488c:	00000021 	move	zero,zero
    4890:	00000021 	move	zero,zero
    4894:	00000021 	move	zero,zero
    4898:	00000021 	move	zero,zero
    489c:	00000021 	move	zero,zero
    48a0:	00000021 	move	zero,zero
    48a4:	00000021 	move	zero,zero
    48a8:	3c12dcc9 	lui	s2,0xdcc9
    48ac:	3652db9c 	ori	s2,s2,0xdb9c
    48b0:	00000000 	nop
    48b4:	3c144729 	lui	s4,0x4729
    48b8:	3694cab8 	ori	s4,s4,0xcab8
    48bc:	1614173a 	bne	s0,s4,a5a8 <inst_error>
    48c0:	00000000 	nop
    48c4:	00000000 	nop
    48c8:	3c15dcc9 	lui	s5,0xdcc9
    48cc:	36b5db9c 	ori	s5,s5,0xdb9c
    48d0:	16551735 	bne	s2,s5,a5a8 <inst_error>
    48d4:	00000000 	nop
    48d8:	00000000 	nop
    48dc:	3c0cf29a 	lui	t4,0xf29a
    48e0:	358c1c5c 	ori	t4,t4,0x1c5c
    48e4:	3c0dc9d1 	lui	t5,0xc9d1
    48e8:	35ada960 	ori	t5,t5,0xa960
    48ec:	24100000 	li	s0,0
    48f0:	24120000 	li	s2,0
    48f4:	3c080000 	lui	t0,0x0
    48f8:	25084910 	addiu	t0,t0,18704
    48fc:	3c090000 	lui	t1,0x0
    4900:	2529497c 	addiu	t1,t1,18812
    4904:	1000000b 	b	4934 <n39_jr_test+0x4934>
    4908:	00000000 	nop
    490c:	00000000 	nop
    4910:	3c10f29a 	lui	s0,0xf29a
    4914:	01200008 	jr	t1
    4918:	36101c5c 	ori	s0,s0,0x1c5c
    491c:	10000019 	b	4984 <n39_jr_test+0x4984>
    4920:	00000000 	nop
    4924:	00000000 	nop
    4928:	00000021 	move	zero,zero
    492c:	00000021 	move	zero,zero
    4930:	00000021 	move	zero,zero
    4934:	01000008 	jr	t0
    4938:	00000000 	nop
    493c:	10000011 	b	4984 <n39_jr_test+0x4984>
    4940:	00000000 	nop
    4944:	00000000 	nop
    4948:	00000021 	move	zero,zero
    494c:	00000021 	move	zero,zero
    4950:	00000021 	move	zero,zero
    4954:	00000021 	move	zero,zero
    4958:	00000021 	move	zero,zero
    495c:	00000021 	move	zero,zero
    4960:	00000021 	move	zero,zero
    4964:	00000021 	move	zero,zero
    4968:	00000021 	move	zero,zero
    496c:	00000021 	move	zero,zero
    4970:	00000021 	move	zero,zero
    4974:	00000021 	move	zero,zero
    4978:	00000021 	move	zero,zero
    497c:	3c12c9d1 	lui	s2,0xc9d1
    4980:	3652a960 	ori	s2,s2,0xa960
    4984:	00000000 	nop
    4988:	3c14f29a 	lui	s4,0xf29a
    498c:	36941c5c 	ori	s4,s4,0x1c5c
    4990:	16141705 	bne	s0,s4,a5a8 <inst_error>
    4994:	00000000 	nop
    4998:	00000000 	nop
    499c:	3c15c9d1 	lui	s5,0xc9d1
    49a0:	36b5a960 	ori	s5,s5,0xa960
    49a4:	16551700 	bne	s2,s5,a5a8 <inst_error>
    49a8:	00000000 	nop
    49ac:	00000000 	nop
    49b0:	3c0c363e 	lui	t4,0x363e
    49b4:	358c9340 	ori	t4,t4,0x9340
    49b8:	3c0d463f 	lui	t5,0x463f
    49bc:	35ad7863 	ori	t5,t5,0x7863
    49c0:	24100000 	li	s0,0
    49c4:	24120000 	li	s2,0
    49c8:	3c080000 	lui	t0,0x0
    49cc:	250849e4 	addiu	t0,t0,18916
    49d0:	3c090000 	lui	t1,0x0
    49d4:	25294a50 	addiu	t1,t1,19024
    49d8:	1000000b 	b	4a08 <n39_jr_test+0x4a08>
    49dc:	00000000 	nop
    49e0:	00000000 	nop
    49e4:	3c10363e 	lui	s0,0x363e
    49e8:	01200008 	jr	t1
    49ec:	36109340 	ori	s0,s0,0x9340
    49f0:	10000019 	b	4a58 <n39_jr_test+0x4a58>
    49f4:	00000000 	nop
    49f8:	00000000 	nop
    49fc:	00000021 	move	zero,zero
    4a00:	00000021 	move	zero,zero
    4a04:	00000021 	move	zero,zero
    4a08:	01000008 	jr	t0
    4a0c:	00000000 	nop
    4a10:	10000011 	b	4a58 <n39_jr_test+0x4a58>
    4a14:	00000000 	nop
    4a18:	00000000 	nop
    4a1c:	00000021 	move	zero,zero
    4a20:	00000021 	move	zero,zero
    4a24:	00000021 	move	zero,zero
    4a28:	00000021 	move	zero,zero
    4a2c:	00000021 	move	zero,zero
    4a30:	00000021 	move	zero,zero
    4a34:	00000021 	move	zero,zero
    4a38:	00000021 	move	zero,zero
    4a3c:	00000021 	move	zero,zero
    4a40:	00000021 	move	zero,zero
    4a44:	00000021 	move	zero,zero
    4a48:	00000021 	move	zero,zero
    4a4c:	00000021 	move	zero,zero
    4a50:	3c12463f 	lui	s2,0x463f
    4a54:	36527863 	ori	s2,s2,0x7863
    4a58:	00000000 	nop
    4a5c:	3c14363e 	lui	s4,0x363e
    4a60:	36949340 	ori	s4,s4,0x9340
    4a64:	161416d0 	bne	s0,s4,a5a8 <inst_error>
    4a68:	00000000 	nop
    4a6c:	00000000 	nop
    4a70:	3c15463f 	lui	s5,0x463f
    4a74:	36b57863 	ori	s5,s5,0x7863
    4a78:	165516cb 	bne	s2,s5,a5a8 <inst_error>
    4a7c:	00000000 	nop
    4a80:	00000000 	nop
    4a84:	3c0cc029 	lui	t4,0xc029
    4a88:	358ccea0 	ori	t4,t4,0xcea0
    4a8c:	3c0d3f18 	lui	t5,0x3f18
    4a90:	35adb948 	ori	t5,t5,0xb948
    4a94:	24100000 	li	s0,0
    4a98:	24120000 	li	s2,0
    4a9c:	3c080000 	lui	t0,0x0
    4aa0:	25084ab8 	addiu	t0,t0,19128
    4aa4:	3c090000 	lui	t1,0x0
    4aa8:	25294b24 	addiu	t1,t1,19236
    4aac:	1000000b 	b	4adc <n39_jr_test+0x4adc>
    4ab0:	00000000 	nop
    4ab4:	00000000 	nop
    4ab8:	3c10c029 	lui	s0,0xc029
    4abc:	01200008 	jr	t1
    4ac0:	3610cea0 	ori	s0,s0,0xcea0
    4ac4:	10000019 	b	4b2c <n39_jr_test+0x4b2c>
    4ac8:	00000000 	nop
    4acc:	00000000 	nop
    4ad0:	00000021 	move	zero,zero
    4ad4:	00000021 	move	zero,zero
    4ad8:	00000021 	move	zero,zero
    4adc:	01000008 	jr	t0
    4ae0:	00000000 	nop
    4ae4:	10000011 	b	4b2c <n39_jr_test+0x4b2c>
    4ae8:	00000000 	nop
    4aec:	00000000 	nop
    4af0:	00000021 	move	zero,zero
    4af4:	00000021 	move	zero,zero
    4af8:	00000021 	move	zero,zero
    4afc:	00000021 	move	zero,zero
    4b00:	00000021 	move	zero,zero
    4b04:	00000021 	move	zero,zero
    4b08:	00000021 	move	zero,zero
    4b0c:	00000021 	move	zero,zero
    4b10:	00000021 	move	zero,zero
    4b14:	00000021 	move	zero,zero
    4b18:	00000021 	move	zero,zero
    4b1c:	00000021 	move	zero,zero
    4b20:	00000021 	move	zero,zero
    4b24:	3c123f18 	lui	s2,0x3f18
    4b28:	3652b948 	ori	s2,s2,0xb948
    4b2c:	00000000 	nop
    4b30:	3c14c029 	lui	s4,0xc029
    4b34:	3694cea0 	ori	s4,s4,0xcea0
    4b38:	1614169b 	bne	s0,s4,a5a8 <inst_error>
    4b3c:	00000000 	nop
    4b40:	00000000 	nop
    4b44:	3c153f18 	lui	s5,0x3f18
    4b48:	36b5b948 	ori	s5,s5,0xb948
    4b4c:	16551696 	bne	s2,s5,a5a8 <inst_error>
    4b50:	00000000 	nop
    4b54:	00000000 	nop
    4b58:	3c0c6529 	lui	t4,0x6529
    4b5c:	358caa00 	ori	t4,t4,0xaa00
    4b60:	3c0d89b7 	lui	t5,0x89b7
    4b64:	35ad21fc 	ori	t5,t5,0x21fc
    4b68:	24100000 	li	s0,0
    4b6c:	24120000 	li	s2,0
    4b70:	3c080000 	lui	t0,0x0
    4b74:	25084b8c 	addiu	t0,t0,19340
    4b78:	3c090000 	lui	t1,0x0
    4b7c:	25294bf8 	addiu	t1,t1,19448
    4b80:	1000000b 	b	4bb0 <n39_jr_test+0x4bb0>
    4b84:	00000000 	nop
    4b88:	00000000 	nop
    4b8c:	3c106529 	lui	s0,0x6529
    4b90:	01200008 	jr	t1
    4b94:	3610aa00 	ori	s0,s0,0xaa00
    4b98:	10000019 	b	4c00 <n39_jr_test+0x4c00>
    4b9c:	00000000 	nop
    4ba0:	00000000 	nop
    4ba4:	00000021 	move	zero,zero
    4ba8:	00000021 	move	zero,zero
    4bac:	00000021 	move	zero,zero
    4bb0:	01000008 	jr	t0
    4bb4:	00000000 	nop
    4bb8:	10000011 	b	4c00 <n39_jr_test+0x4c00>
    4bbc:	00000000 	nop
    4bc0:	00000000 	nop
    4bc4:	00000021 	move	zero,zero
    4bc8:	00000021 	move	zero,zero
    4bcc:	00000021 	move	zero,zero
    4bd0:	00000021 	move	zero,zero
    4bd4:	00000021 	move	zero,zero
    4bd8:	00000021 	move	zero,zero
    4bdc:	00000021 	move	zero,zero
    4be0:	00000021 	move	zero,zero
    4be4:	00000021 	move	zero,zero
    4be8:	00000021 	move	zero,zero
    4bec:	00000021 	move	zero,zero
    4bf0:	00000021 	move	zero,zero
    4bf4:	00000021 	move	zero,zero
    4bf8:	3c1289b7 	lui	s2,0x89b7
    4bfc:	365221fc 	ori	s2,s2,0x21fc
    4c00:	00000000 	nop
    4c04:	3c146529 	lui	s4,0x6529
    4c08:	3694aa00 	ori	s4,s4,0xaa00
    4c0c:	16141666 	bne	s0,s4,a5a8 <inst_error>
    4c10:	00000000 	nop
    4c14:	00000000 	nop
    4c18:	3c1589b7 	lui	s5,0x89b7
    4c1c:	36b521fc 	ori	s5,s5,0x21fc
    4c20:	16551661 	bne	s2,s5,a5a8 <inst_error>
    4c24:	00000000 	nop
    4c28:	00000000 	nop
    4c2c:	3c0ca3d4 	lui	t4,0xa3d4
    4c30:	358c11de 	ori	t4,t4,0x11de
    4c34:	3c0df422 	lui	t5,0xf422
    4c38:	35ad3eae 	ori	t5,t5,0x3eae
    4c3c:	24100000 	li	s0,0
    4c40:	24120000 	li	s2,0
    4c44:	3c080000 	lui	t0,0x0
    4c48:	25084c60 	addiu	t0,t0,19552
    4c4c:	3c090000 	lui	t1,0x0
    4c50:	25294ccc 	addiu	t1,t1,19660
    4c54:	1000000b 	b	4c84 <n39_jr_test+0x4c84>
    4c58:	00000000 	nop
    4c5c:	00000000 	nop
    4c60:	3c10a3d4 	lui	s0,0xa3d4
    4c64:	01200008 	jr	t1
    4c68:	361011de 	ori	s0,s0,0x11de
    4c6c:	10000019 	b	4cd4 <n39_jr_test+0x4cd4>
    4c70:	00000000 	nop
    4c74:	00000000 	nop
    4c78:	00000021 	move	zero,zero
    4c7c:	00000021 	move	zero,zero
    4c80:	00000021 	move	zero,zero
    4c84:	01000008 	jr	t0
    4c88:	00000000 	nop
    4c8c:	10000011 	b	4cd4 <n39_jr_test+0x4cd4>
    4c90:	00000000 	nop
    4c94:	00000000 	nop
    4c98:	00000021 	move	zero,zero
    4c9c:	00000021 	move	zero,zero
    4ca0:	00000021 	move	zero,zero
    4ca4:	00000021 	move	zero,zero
    4ca8:	00000021 	move	zero,zero
    4cac:	00000021 	move	zero,zero
    4cb0:	00000021 	move	zero,zero
    4cb4:	00000021 	move	zero,zero
    4cb8:	00000021 	move	zero,zero
    4cbc:	00000021 	move	zero,zero
    4cc0:	00000021 	move	zero,zero
    4cc4:	00000021 	move	zero,zero
    4cc8:	00000021 	move	zero,zero
    4ccc:	3c12f422 	lui	s2,0xf422
    4cd0:	36523eae 	ori	s2,s2,0x3eae
    4cd4:	00000000 	nop
    4cd8:	3c14a3d4 	lui	s4,0xa3d4
    4cdc:	369411de 	ori	s4,s4,0x11de
    4ce0:	16141631 	bne	s0,s4,a5a8 <inst_error>
    4ce4:	00000000 	nop
    4ce8:	00000000 	nop
    4cec:	3c15f422 	lui	s5,0xf422
    4cf0:	36b53eae 	ori	s5,s5,0x3eae
    4cf4:	1655162c 	bne	s2,s5,a5a8 <inst_error>
    4cf8:	00000000 	nop
    4cfc:	00000000 	nop
    4d00:	3c0c90a7 	lui	t4,0x90a7
    4d04:	358c772f 	ori	t4,t4,0x772f
    4d08:	3c0d0b25 	lui	t5,0xb25
    4d0c:	35ad80ba 	ori	t5,t5,0x80ba
    4d10:	24100000 	li	s0,0
    4d14:	24120000 	li	s2,0
    4d18:	3c080000 	lui	t0,0x0
    4d1c:	25084d34 	addiu	t0,t0,19764
    4d20:	3c090000 	lui	t1,0x0
    4d24:	25294da0 	addiu	t1,t1,19872
    4d28:	1000000b 	b	4d58 <n39_jr_test+0x4d58>
    4d2c:	00000000 	nop
    4d30:	00000000 	nop
    4d34:	3c1090a7 	lui	s0,0x90a7
    4d38:	01200008 	jr	t1
    4d3c:	3610772f 	ori	s0,s0,0x772f
    4d40:	10000019 	b	4da8 <n39_jr_test+0x4da8>
    4d44:	00000000 	nop
    4d48:	00000000 	nop
    4d4c:	00000021 	move	zero,zero
    4d50:	00000021 	move	zero,zero
    4d54:	00000021 	move	zero,zero
    4d58:	01000008 	jr	t0
    4d5c:	00000000 	nop
    4d60:	10000011 	b	4da8 <n39_jr_test+0x4da8>
    4d64:	00000000 	nop
    4d68:	00000000 	nop
    4d6c:	00000021 	move	zero,zero
    4d70:	00000021 	move	zero,zero
    4d74:	00000021 	move	zero,zero
    4d78:	00000021 	move	zero,zero
    4d7c:	00000021 	move	zero,zero
    4d80:	00000021 	move	zero,zero
    4d84:	00000021 	move	zero,zero
    4d88:	00000021 	move	zero,zero
    4d8c:	00000021 	move	zero,zero
    4d90:	00000021 	move	zero,zero
    4d94:	00000021 	move	zero,zero
    4d98:	00000021 	move	zero,zero
    4d9c:	00000021 	move	zero,zero
    4da0:	3c120b25 	lui	s2,0xb25
    4da4:	365280ba 	ori	s2,s2,0x80ba
    4da8:	00000000 	nop
    4dac:	3c1490a7 	lui	s4,0x90a7
    4db0:	3694772f 	ori	s4,s4,0x772f
    4db4:	161415fc 	bne	s0,s4,a5a8 <inst_error>
    4db8:	00000000 	nop
    4dbc:	00000000 	nop
    4dc0:	3c150b25 	lui	s5,0xb25
    4dc4:	36b580ba 	ori	s5,s5,0x80ba
    4dc8:	165515f7 	bne	s2,s5,a5a8 <inst_error>
    4dcc:	00000000 	nop
    4dd0:	00000000 	nop
    4dd4:	3c0c637d 	lui	t4,0x637d
    4dd8:	358c9eba 	ori	t4,t4,0x9eba
    4ddc:	3c0d3926 	lui	t5,0x3926
    4de0:	35ad82d4 	ori	t5,t5,0x82d4
    4de4:	24100000 	li	s0,0
    4de8:	24120000 	li	s2,0
    4dec:	3c080000 	lui	t0,0x0
    4df0:	25084e08 	addiu	t0,t0,19976
    4df4:	3c090000 	lui	t1,0x0
    4df8:	25294e74 	addiu	t1,t1,20084
    4dfc:	1000000b 	b	4e2c <n39_jr_test+0x4e2c>
    4e00:	00000000 	nop
    4e04:	00000000 	nop
    4e08:	3c10637d 	lui	s0,0x637d
    4e0c:	01200008 	jr	t1
    4e10:	36109eba 	ori	s0,s0,0x9eba
    4e14:	10000019 	b	4e7c <n39_jr_test+0x4e7c>
    4e18:	00000000 	nop
    4e1c:	00000000 	nop
    4e20:	00000021 	move	zero,zero
    4e24:	00000021 	move	zero,zero
    4e28:	00000021 	move	zero,zero
    4e2c:	01000008 	jr	t0
    4e30:	00000000 	nop
    4e34:	10000011 	b	4e7c <n39_jr_test+0x4e7c>
    4e38:	00000000 	nop
    4e3c:	00000000 	nop
    4e40:	00000021 	move	zero,zero
    4e44:	00000021 	move	zero,zero
    4e48:	00000021 	move	zero,zero
    4e4c:	00000021 	move	zero,zero
    4e50:	00000021 	move	zero,zero
    4e54:	00000021 	move	zero,zero
    4e58:	00000021 	move	zero,zero
    4e5c:	00000021 	move	zero,zero
    4e60:	00000021 	move	zero,zero
    4e64:	00000021 	move	zero,zero
    4e68:	00000021 	move	zero,zero
    4e6c:	00000021 	move	zero,zero
    4e70:	00000021 	move	zero,zero
    4e74:	3c123926 	lui	s2,0x3926
    4e78:	365282d4 	ori	s2,s2,0x82d4
    4e7c:	00000000 	nop
    4e80:	3c14637d 	lui	s4,0x637d
    4e84:	36949eba 	ori	s4,s4,0x9eba
    4e88:	161415c7 	bne	s0,s4,a5a8 <inst_error>
    4e8c:	00000000 	nop
    4e90:	00000000 	nop
    4e94:	3c153926 	lui	s5,0x3926
    4e98:	36b582d4 	ori	s5,s5,0x82d4
    4e9c:	165515c2 	bne	s2,s5,a5a8 <inst_error>
    4ea0:	00000000 	nop
    4ea4:	00000000 	nop
    4ea8:	3c0c0896 	lui	t4,0x896
    4eac:	358c19d0 	ori	t4,t4,0x19d0
    4eb0:	3c0dca33 	lui	t5,0xca33
    4eb4:	35ad0c5b 	ori	t5,t5,0xc5b
    4eb8:	24100000 	li	s0,0
    4ebc:	24120000 	li	s2,0
    4ec0:	3c080000 	lui	t0,0x0
    4ec4:	25084edc 	addiu	t0,t0,20188
    4ec8:	3c090000 	lui	t1,0x0
    4ecc:	25294f48 	addiu	t1,t1,20296
    4ed0:	1000000b 	b	4f00 <n39_jr_test+0x4f00>
    4ed4:	00000000 	nop
    4ed8:	00000000 	nop
    4edc:	3c100896 	lui	s0,0x896
    4ee0:	01200008 	jr	t1
    4ee4:	361019d0 	ori	s0,s0,0x19d0
    4ee8:	10000019 	b	4f50 <n39_jr_test+0x4f50>
    4eec:	00000000 	nop
    4ef0:	00000000 	nop
    4ef4:	00000021 	move	zero,zero
    4ef8:	00000021 	move	zero,zero
    4efc:	00000021 	move	zero,zero
    4f00:	01000008 	jr	t0
    4f04:	00000000 	nop
    4f08:	10000011 	b	4f50 <n39_jr_test+0x4f50>
    4f0c:	00000000 	nop
    4f10:	00000000 	nop
    4f14:	00000021 	move	zero,zero
    4f18:	00000021 	move	zero,zero
    4f1c:	00000021 	move	zero,zero
    4f20:	00000021 	move	zero,zero
    4f24:	00000021 	move	zero,zero
    4f28:	00000021 	move	zero,zero
    4f2c:	00000021 	move	zero,zero
    4f30:	00000021 	move	zero,zero
    4f34:	00000021 	move	zero,zero
    4f38:	00000021 	move	zero,zero
    4f3c:	00000021 	move	zero,zero
    4f40:	00000021 	move	zero,zero
    4f44:	00000021 	move	zero,zero
    4f48:	3c12ca33 	lui	s2,0xca33
    4f4c:	36520c5b 	ori	s2,s2,0xc5b
    4f50:	00000000 	nop
    4f54:	3c140896 	lui	s4,0x896
    4f58:	369419d0 	ori	s4,s4,0x19d0
    4f5c:	16141592 	bne	s0,s4,a5a8 <inst_error>
    4f60:	00000000 	nop
    4f64:	00000000 	nop
    4f68:	3c15ca33 	lui	s5,0xca33
    4f6c:	36b50c5b 	ori	s5,s5,0xc5b
    4f70:	1655158d 	bne	s2,s5,a5a8 <inst_error>
    4f74:	00000000 	nop
    4f78:	00000000 	nop
    4f7c:	3c0c3153 	lui	t4,0x3153
    4f80:	358cacc0 	ori	t4,t4,0xacc0
    4f84:	3c0dd82d 	lui	t5,0xd82d
    4f88:	35ad2884 	ori	t5,t5,0x2884
    4f8c:	24100000 	li	s0,0
    4f90:	24120000 	li	s2,0
    4f94:	3c080000 	lui	t0,0x0
    4f98:	25084fb0 	addiu	t0,t0,20400
    4f9c:	3c090000 	lui	t1,0x0
    4fa0:	2529501c 	addiu	t1,t1,20508
    4fa4:	1000000b 	b	4fd4 <n39_jr_test+0x4fd4>
    4fa8:	00000000 	nop
    4fac:	00000000 	nop
    4fb0:	3c103153 	lui	s0,0x3153
    4fb4:	01200008 	jr	t1
    4fb8:	3610acc0 	ori	s0,s0,0xacc0
    4fbc:	10000019 	b	5024 <n39_jr_test+0x5024>
    4fc0:	00000000 	nop
    4fc4:	00000000 	nop
    4fc8:	00000021 	move	zero,zero
    4fcc:	00000021 	move	zero,zero
    4fd0:	00000021 	move	zero,zero
    4fd4:	01000008 	jr	t0
    4fd8:	00000000 	nop
    4fdc:	10000011 	b	5024 <n39_jr_test+0x5024>
    4fe0:	00000000 	nop
    4fe4:	00000000 	nop
    4fe8:	00000021 	move	zero,zero
    4fec:	00000021 	move	zero,zero
    4ff0:	00000021 	move	zero,zero
    4ff4:	00000021 	move	zero,zero
    4ff8:	00000021 	move	zero,zero
    4ffc:	00000021 	move	zero,zero
    5000:	00000021 	move	zero,zero
    5004:	00000021 	move	zero,zero
    5008:	00000021 	move	zero,zero
    500c:	00000021 	move	zero,zero
    5010:	00000021 	move	zero,zero
    5014:	00000021 	move	zero,zero
    5018:	00000021 	move	zero,zero
    501c:	3c12d82d 	lui	s2,0xd82d
    5020:	36522884 	ori	s2,s2,0x2884
    5024:	00000000 	nop
    5028:	3c143153 	lui	s4,0x3153
    502c:	3694acc0 	ori	s4,s4,0xacc0
    5030:	1614155d 	bne	s0,s4,a5a8 <inst_error>
    5034:	00000000 	nop
    5038:	00000000 	nop
    503c:	3c15d82d 	lui	s5,0xd82d
    5040:	36b52884 	ori	s5,s5,0x2884
    5044:	16551558 	bne	s2,s5,a5a8 <inst_error>
    5048:	00000000 	nop
    504c:	00000000 	nop
    5050:	3c0cc3e2 	lui	t4,0xc3e2
    5054:	358cc3c8 	ori	t4,t4,0xc3c8
    5058:	3c0dd457 	lui	t5,0xd457
    505c:	35ad3f50 	ori	t5,t5,0x3f50
    5060:	24100000 	li	s0,0
    5064:	24120000 	li	s2,0
    5068:	3c080000 	lui	t0,0x0
    506c:	25085084 	addiu	t0,t0,20612
    5070:	3c090000 	lui	t1,0x0
    5074:	252950f0 	addiu	t1,t1,20720
    5078:	1000000b 	b	50a8 <n39_jr_test+0x50a8>
    507c:	00000000 	nop
    5080:	00000000 	nop
    5084:	3c10c3e2 	lui	s0,0xc3e2
    5088:	01200008 	jr	t1
    508c:	3610c3c8 	ori	s0,s0,0xc3c8
    5090:	10000019 	b	50f8 <n39_jr_test+0x50f8>
    5094:	00000000 	nop
    5098:	00000000 	nop
    509c:	00000021 	move	zero,zero
    50a0:	00000021 	move	zero,zero
    50a4:	00000021 	move	zero,zero
    50a8:	01000008 	jr	t0
    50ac:	00000000 	nop
    50b0:	10000011 	b	50f8 <n39_jr_test+0x50f8>
    50b4:	00000000 	nop
    50b8:	00000000 	nop
    50bc:	00000021 	move	zero,zero
    50c0:	00000021 	move	zero,zero
    50c4:	00000021 	move	zero,zero
    50c8:	00000021 	move	zero,zero
    50cc:	00000021 	move	zero,zero
    50d0:	00000021 	move	zero,zero
    50d4:	00000021 	move	zero,zero
    50d8:	00000021 	move	zero,zero
    50dc:	00000021 	move	zero,zero
    50e0:	00000021 	move	zero,zero
    50e4:	00000021 	move	zero,zero
    50e8:	00000021 	move	zero,zero
    50ec:	00000021 	move	zero,zero
    50f0:	3c12d457 	lui	s2,0xd457
    50f4:	36523f50 	ori	s2,s2,0x3f50
    50f8:	00000000 	nop
    50fc:	3c14c3e2 	lui	s4,0xc3e2
    5100:	3694c3c8 	ori	s4,s4,0xc3c8
    5104:	16141528 	bne	s0,s4,a5a8 <inst_error>
    5108:	00000000 	nop
    510c:	00000000 	nop
    5110:	3c15d457 	lui	s5,0xd457
    5114:	36b53f50 	ori	s5,s5,0x3f50
    5118:	16551523 	bne	s2,s5,a5a8 <inst_error>
    511c:	00000000 	nop
    5120:	00000000 	nop
    5124:	3c0c5ddc 	lui	t4,0x5ddc
    5128:	358c207b 	ori	t4,t4,0x207b
    512c:	3c0d31e5 	lui	t5,0x31e5
    5130:	35ad0dad 	ori	t5,t5,0xdad
    5134:	24100000 	li	s0,0
    5138:	24120000 	li	s2,0
    513c:	3c080000 	lui	t0,0x0
    5140:	25085158 	addiu	t0,t0,20824
    5144:	3c090000 	lui	t1,0x0
    5148:	252951c4 	addiu	t1,t1,20932
    514c:	1000000b 	b	517c <n39_jr_test+0x517c>
    5150:	00000000 	nop
    5154:	00000000 	nop
    5158:	3c105ddc 	lui	s0,0x5ddc
    515c:	01200008 	jr	t1
    5160:	3610207b 	ori	s0,s0,0x207b
    5164:	10000019 	b	51cc <n39_jr_test+0x51cc>
    5168:	00000000 	nop
    516c:	00000000 	nop
    5170:	00000021 	move	zero,zero
    5174:	00000021 	move	zero,zero
    5178:	00000021 	move	zero,zero
    517c:	01000008 	jr	t0
    5180:	00000000 	nop
    5184:	10000011 	b	51cc <n39_jr_test+0x51cc>
    5188:	00000000 	nop
    518c:	00000000 	nop
    5190:	00000021 	move	zero,zero
    5194:	00000021 	move	zero,zero
    5198:	00000021 	move	zero,zero
    519c:	00000021 	move	zero,zero
    51a0:	00000021 	move	zero,zero
    51a4:	00000021 	move	zero,zero
    51a8:	00000021 	move	zero,zero
    51ac:	00000021 	move	zero,zero
    51b0:	00000021 	move	zero,zero
    51b4:	00000021 	move	zero,zero
    51b8:	00000021 	move	zero,zero
    51bc:	00000021 	move	zero,zero
    51c0:	00000021 	move	zero,zero
    51c4:	3c1231e5 	lui	s2,0x31e5
    51c8:	36520dad 	ori	s2,s2,0xdad
    51cc:	00000000 	nop
    51d0:	3c145ddc 	lui	s4,0x5ddc
    51d4:	3694207b 	ori	s4,s4,0x207b
    51d8:	161414f3 	bne	s0,s4,a5a8 <inst_error>
    51dc:	00000000 	nop
    51e0:	00000000 	nop
    51e4:	3c1531e5 	lui	s5,0x31e5
    51e8:	36b50dad 	ori	s5,s5,0xdad
    51ec:	165514ee 	bne	s2,s5,a5a8 <inst_error>
    51f0:	00000000 	nop
    51f4:	00000000 	nop
    51f8:	3c0cda24 	lui	t4,0xda24
    51fc:	358c472c 	ori	t4,t4,0x472c
    5200:	3c0ddb1e 	lui	t5,0xdb1e
    5204:	35adeac0 	ori	t5,t5,0xeac0
    5208:	24100000 	li	s0,0
    520c:	24120000 	li	s2,0
    5210:	3c080000 	lui	t0,0x0
    5214:	2508522c 	addiu	t0,t0,21036
    5218:	3c090000 	lui	t1,0x0
    521c:	25295298 	addiu	t1,t1,21144
    5220:	1000000b 	b	5250 <n39_jr_test+0x5250>
    5224:	00000000 	nop
    5228:	00000000 	nop
    522c:	3c10da24 	lui	s0,0xda24
    5230:	01200008 	jr	t1
    5234:	3610472c 	ori	s0,s0,0x472c
    5238:	10000019 	b	52a0 <n39_jr_test+0x52a0>
    523c:	00000000 	nop
    5240:	00000000 	nop
    5244:	00000021 	move	zero,zero
    5248:	00000021 	move	zero,zero
    524c:	00000021 	move	zero,zero
    5250:	01000008 	jr	t0
    5254:	00000000 	nop
    5258:	10000011 	b	52a0 <n39_jr_test+0x52a0>
    525c:	00000000 	nop
    5260:	00000000 	nop
    5264:	00000021 	move	zero,zero
    5268:	00000021 	move	zero,zero
    526c:	00000021 	move	zero,zero
    5270:	00000021 	move	zero,zero
    5274:	00000021 	move	zero,zero
    5278:	00000021 	move	zero,zero
    527c:	00000021 	move	zero,zero
    5280:	00000021 	move	zero,zero
    5284:	00000021 	move	zero,zero
    5288:	00000021 	move	zero,zero
    528c:	00000021 	move	zero,zero
    5290:	00000021 	move	zero,zero
    5294:	00000021 	move	zero,zero
    5298:	3c12db1e 	lui	s2,0xdb1e
    529c:	3652eac0 	ori	s2,s2,0xeac0
    52a0:	00000000 	nop
    52a4:	3c14da24 	lui	s4,0xda24
    52a8:	3694472c 	ori	s4,s4,0x472c
    52ac:	161414be 	bne	s0,s4,a5a8 <inst_error>
    52b0:	00000000 	nop
    52b4:	00000000 	nop
    52b8:	3c15db1e 	lui	s5,0xdb1e
    52bc:	36b5eac0 	ori	s5,s5,0xeac0
    52c0:	165514b9 	bne	s2,s5,a5a8 <inst_error>
    52c4:	00000000 	nop
    52c8:	00000000 	nop
    52cc:	3c0c2efe 	lui	t4,0x2efe
    52d0:	358c847d 	ori	t4,t4,0x847d
    52d4:	3c0de5d6 	lui	t5,0xe5d6
    52d8:	35add5be 	ori	t5,t5,0xd5be
    52dc:	24100000 	li	s0,0
    52e0:	24120000 	li	s2,0
    52e4:	3c080000 	lui	t0,0x0
    52e8:	25085300 	addiu	t0,t0,21248
    52ec:	3c090000 	lui	t1,0x0
    52f0:	2529536c 	addiu	t1,t1,21356
    52f4:	1000000b 	b	5324 <n39_jr_test+0x5324>
    52f8:	00000000 	nop
    52fc:	00000000 	nop
    5300:	3c102efe 	lui	s0,0x2efe
    5304:	01200008 	jr	t1
    5308:	3610847d 	ori	s0,s0,0x847d
    530c:	10000019 	b	5374 <n39_jr_test+0x5374>
    5310:	00000000 	nop
    5314:	00000000 	nop
    5318:	00000021 	move	zero,zero
    531c:	00000021 	move	zero,zero
    5320:	00000021 	move	zero,zero
    5324:	01000008 	jr	t0
    5328:	00000000 	nop
    532c:	10000011 	b	5374 <n39_jr_test+0x5374>
    5330:	00000000 	nop
    5334:	00000000 	nop
    5338:	00000021 	move	zero,zero
    533c:	00000021 	move	zero,zero
    5340:	00000021 	move	zero,zero
    5344:	00000021 	move	zero,zero
    5348:	00000021 	move	zero,zero
    534c:	00000021 	move	zero,zero
    5350:	00000021 	move	zero,zero
    5354:	00000021 	move	zero,zero
    5358:	00000021 	move	zero,zero
    535c:	00000021 	move	zero,zero
    5360:	00000021 	move	zero,zero
    5364:	00000021 	move	zero,zero
    5368:	00000021 	move	zero,zero
    536c:	3c12e5d6 	lui	s2,0xe5d6
    5370:	3652d5be 	ori	s2,s2,0xd5be
    5374:	00000000 	nop
    5378:	3c142efe 	lui	s4,0x2efe
    537c:	3694847d 	ori	s4,s4,0x847d
    5380:	16141489 	bne	s0,s4,a5a8 <inst_error>
    5384:	00000000 	nop
    5388:	00000000 	nop
    538c:	3c15e5d6 	lui	s5,0xe5d6
    5390:	36b5d5be 	ori	s5,s5,0xd5be
    5394:	16551484 	bne	s2,s5,a5a8 <inst_error>
    5398:	00000000 	nop
    539c:	00000000 	nop
    53a0:	3c0cb694 	lui	t4,0xb694
    53a4:	358c9ab3 	ori	t4,t4,0x9ab3
    53a8:	3c0db1e8 	lui	t5,0xb1e8
    53ac:	35ad9022 	ori	t5,t5,0x9022
    53b0:	24100000 	li	s0,0
    53b4:	24120000 	li	s2,0
    53b8:	3c080000 	lui	t0,0x0
    53bc:	250853d4 	addiu	t0,t0,21460
    53c0:	3c090000 	lui	t1,0x0
    53c4:	25295440 	addiu	t1,t1,21568
    53c8:	1000000b 	b	53f8 <n39_jr_test+0x53f8>
    53cc:	00000000 	nop
    53d0:	00000000 	nop
    53d4:	3c10b694 	lui	s0,0xb694
    53d8:	01200008 	jr	t1
    53dc:	36109ab3 	ori	s0,s0,0x9ab3
    53e0:	10000019 	b	5448 <n39_jr_test+0x5448>
    53e4:	00000000 	nop
    53e8:	00000000 	nop
    53ec:	00000021 	move	zero,zero
    53f0:	00000021 	move	zero,zero
    53f4:	00000021 	move	zero,zero
    53f8:	01000008 	jr	t0
    53fc:	00000000 	nop
    5400:	10000011 	b	5448 <n39_jr_test+0x5448>
    5404:	00000000 	nop
    5408:	00000000 	nop
    540c:	00000021 	move	zero,zero
    5410:	00000021 	move	zero,zero
    5414:	00000021 	move	zero,zero
    5418:	00000021 	move	zero,zero
    541c:	00000021 	move	zero,zero
    5420:	00000021 	move	zero,zero
    5424:	00000021 	move	zero,zero
    5428:	00000021 	move	zero,zero
    542c:	00000021 	move	zero,zero
    5430:	00000021 	move	zero,zero
    5434:	00000021 	move	zero,zero
    5438:	00000021 	move	zero,zero
    543c:	00000021 	move	zero,zero
    5440:	3c12b1e8 	lui	s2,0xb1e8
    5444:	36529022 	ori	s2,s2,0x9022
    5448:	00000000 	nop
    544c:	3c14b694 	lui	s4,0xb694
    5450:	36949ab3 	ori	s4,s4,0x9ab3
    5454:	16141454 	bne	s0,s4,a5a8 <inst_error>
    5458:	00000000 	nop
    545c:	00000000 	nop
    5460:	3c15b1e8 	lui	s5,0xb1e8
    5464:	36b59022 	ori	s5,s5,0x9022
    5468:	1655144f 	bne	s2,s5,a5a8 <inst_error>
    546c:	00000000 	nop
    5470:	00000000 	nop
    5474:	3c0c3fe1 	lui	t4,0x3fe1
    5478:	358cf2a0 	ori	t4,t4,0xf2a0
    547c:	3c0dc026 	lui	t5,0xc026
    5480:	35adca09 	ori	t5,t5,0xca09
    5484:	24100000 	li	s0,0
    5488:	24120000 	li	s2,0
    548c:	3c080000 	lui	t0,0x0
    5490:	250854a8 	addiu	t0,t0,21672
    5494:	3c090000 	lui	t1,0x0
    5498:	25295514 	addiu	t1,t1,21780
    549c:	1000000b 	b	54cc <n39_jr_test+0x54cc>
    54a0:	00000000 	nop
    54a4:	00000000 	nop
    54a8:	3c103fe1 	lui	s0,0x3fe1
    54ac:	01200008 	jr	t1
    54b0:	3610f2a0 	ori	s0,s0,0xf2a0
    54b4:	10000019 	b	551c <n39_jr_test+0x551c>
    54b8:	00000000 	nop
    54bc:	00000000 	nop
    54c0:	00000021 	move	zero,zero
    54c4:	00000021 	move	zero,zero
    54c8:	00000021 	move	zero,zero
    54cc:	01000008 	jr	t0
    54d0:	00000000 	nop
    54d4:	10000011 	b	551c <n39_jr_test+0x551c>
    54d8:	00000000 	nop
    54dc:	00000000 	nop
    54e0:	00000021 	move	zero,zero
    54e4:	00000021 	move	zero,zero
    54e8:	00000021 	move	zero,zero
    54ec:	00000021 	move	zero,zero
    54f0:	00000021 	move	zero,zero
    54f4:	00000021 	move	zero,zero
    54f8:	00000021 	move	zero,zero
    54fc:	00000021 	move	zero,zero
    5500:	00000021 	move	zero,zero
    5504:	00000021 	move	zero,zero
    5508:	00000021 	move	zero,zero
    550c:	00000021 	move	zero,zero
    5510:	00000021 	move	zero,zero
    5514:	3c12c026 	lui	s2,0xc026
    5518:	3652ca09 	ori	s2,s2,0xca09
    551c:	00000000 	nop
    5520:	3c143fe1 	lui	s4,0x3fe1
    5524:	3694f2a0 	ori	s4,s4,0xf2a0
    5528:	1614141f 	bne	s0,s4,a5a8 <inst_error>
    552c:	00000000 	nop
    5530:	00000000 	nop
    5534:	3c15c026 	lui	s5,0xc026
    5538:	36b5ca09 	ori	s5,s5,0xca09
    553c:	1655141a 	bne	s2,s5,a5a8 <inst_error>
    5540:	00000000 	nop
    5544:	00000000 	nop
    5548:	3c0c8390 	lui	t4,0x8390
    554c:	358c99b4 	ori	t4,t4,0x99b4
    5550:	3c0db34f 	lui	t5,0xb34f
    5554:	35ad4200 	ori	t5,t5,0x4200
    5558:	24100000 	li	s0,0
    555c:	24120000 	li	s2,0
    5560:	3c080000 	lui	t0,0x0
    5564:	2508557c 	addiu	t0,t0,21884
    5568:	3c090000 	lui	t1,0x0
    556c:	252955e8 	addiu	t1,t1,21992
    5570:	1000000b 	b	55a0 <n39_jr_test+0x55a0>
    5574:	00000000 	nop
    5578:	00000000 	nop
    557c:	3c108390 	lui	s0,0x8390
    5580:	01200008 	jr	t1
    5584:	361099b4 	ori	s0,s0,0x99b4
    5588:	10000019 	b	55f0 <n39_jr_test+0x55f0>
    558c:	00000000 	nop
    5590:	00000000 	nop
    5594:	00000021 	move	zero,zero
    5598:	00000021 	move	zero,zero
    559c:	00000021 	move	zero,zero
    55a0:	01000008 	jr	t0
    55a4:	00000000 	nop
    55a8:	10000011 	b	55f0 <n39_jr_test+0x55f0>
    55ac:	00000000 	nop
    55b0:	00000000 	nop
    55b4:	00000021 	move	zero,zero
    55b8:	00000021 	move	zero,zero
    55bc:	00000021 	move	zero,zero
    55c0:	00000021 	move	zero,zero
    55c4:	00000021 	move	zero,zero
    55c8:	00000021 	move	zero,zero
    55cc:	00000021 	move	zero,zero
    55d0:	00000021 	move	zero,zero
    55d4:	00000021 	move	zero,zero
    55d8:	00000021 	move	zero,zero
    55dc:	00000021 	move	zero,zero
    55e0:	00000021 	move	zero,zero
    55e4:	00000021 	move	zero,zero
    55e8:	3c12b34f 	lui	s2,0xb34f
    55ec:	36524200 	ori	s2,s2,0x4200
    55f0:	00000000 	nop
    55f4:	3c148390 	lui	s4,0x8390
    55f8:	369499b4 	ori	s4,s4,0x99b4
    55fc:	161413ea 	bne	s0,s4,a5a8 <inst_error>
    5600:	00000000 	nop
    5604:	00000000 	nop
    5608:	3c15b34f 	lui	s5,0xb34f
    560c:	36b54200 	ori	s5,s5,0x4200
    5610:	165513e5 	bne	s2,s5,a5a8 <inst_error>
    5614:	00000000 	nop
    5618:	00000000 	nop
    561c:	3c0c0309 	lui	t4,0x309
    5620:	358cefb3 	ori	t4,t4,0xefb3
    5624:	3c0d3d90 	lui	t5,0x3d90
    5628:	35ade910 	ori	t5,t5,0xe910
    562c:	24100000 	li	s0,0
    5630:	24120000 	li	s2,0
    5634:	3c080000 	lui	t0,0x0
    5638:	25085650 	addiu	t0,t0,22096
    563c:	3c090000 	lui	t1,0x0
    5640:	252956bc 	addiu	t1,t1,22204
    5644:	1000000b 	b	5674 <n39_jr_test+0x5674>
    5648:	00000000 	nop
    564c:	00000000 	nop
    5650:	3c100309 	lui	s0,0x309
    5654:	01200008 	jr	t1
    5658:	3610efb3 	ori	s0,s0,0xefb3
    565c:	10000019 	b	56c4 <n39_jr_test+0x56c4>
    5660:	00000000 	nop
    5664:	00000000 	nop
    5668:	00000021 	move	zero,zero
    566c:	00000021 	move	zero,zero
    5670:	00000021 	move	zero,zero
    5674:	01000008 	jr	t0
    5678:	00000000 	nop
    567c:	10000011 	b	56c4 <n39_jr_test+0x56c4>
    5680:	00000000 	nop
    5684:	00000000 	nop
    5688:	00000021 	move	zero,zero
    568c:	00000021 	move	zero,zero
    5690:	00000021 	move	zero,zero
    5694:	00000021 	move	zero,zero
    5698:	00000021 	move	zero,zero
    569c:	00000021 	move	zero,zero
    56a0:	00000021 	move	zero,zero
    56a4:	00000021 	move	zero,zero
    56a8:	00000021 	move	zero,zero
    56ac:	00000021 	move	zero,zero
    56b0:	00000021 	move	zero,zero
    56b4:	00000021 	move	zero,zero
    56b8:	00000021 	move	zero,zero
    56bc:	3c123d90 	lui	s2,0x3d90
    56c0:	3652e910 	ori	s2,s2,0xe910
    56c4:	00000000 	nop
    56c8:	3c140309 	lui	s4,0x309
    56cc:	3694efb3 	ori	s4,s4,0xefb3
    56d0:	161413b5 	bne	s0,s4,a5a8 <inst_error>
    56d4:	00000000 	nop
    56d8:	00000000 	nop
    56dc:	3c153d90 	lui	s5,0x3d90
    56e0:	36b5e910 	ori	s5,s5,0xe910
    56e4:	165513b0 	bne	s2,s5,a5a8 <inst_error>
    56e8:	00000000 	nop
    56ec:	00000000 	nop
    56f0:	3c0ccf4e 	lui	t4,0xcf4e
    56f4:	358c331c 	ori	t4,t4,0x331c
    56f8:	3c0df966 	lui	t5,0xf966
    56fc:	35ad62d4 	ori	t5,t5,0x62d4
    5700:	24100000 	li	s0,0
    5704:	24120000 	li	s2,0
    5708:	3c080000 	lui	t0,0x0
    570c:	25085724 	addiu	t0,t0,22308
    5710:	3c090000 	lui	t1,0x0
    5714:	25295790 	addiu	t1,t1,22416
    5718:	1000000b 	b	5748 <n39_jr_test+0x5748>
    571c:	00000000 	nop
    5720:	00000000 	nop
    5724:	3c10cf4e 	lui	s0,0xcf4e
    5728:	01200008 	jr	t1
    572c:	3610331c 	ori	s0,s0,0x331c
    5730:	10000019 	b	5798 <n39_jr_test+0x5798>
    5734:	00000000 	nop
    5738:	00000000 	nop
    573c:	00000021 	move	zero,zero
    5740:	00000021 	move	zero,zero
    5744:	00000021 	move	zero,zero
    5748:	01000008 	jr	t0
    574c:	00000000 	nop
    5750:	10000011 	b	5798 <n39_jr_test+0x5798>
    5754:	00000000 	nop
    5758:	00000000 	nop
    575c:	00000021 	move	zero,zero
    5760:	00000021 	move	zero,zero
    5764:	00000021 	move	zero,zero
    5768:	00000021 	move	zero,zero
    576c:	00000021 	move	zero,zero
    5770:	00000021 	move	zero,zero
    5774:	00000021 	move	zero,zero
    5778:	00000021 	move	zero,zero
    577c:	00000021 	move	zero,zero
    5780:	00000021 	move	zero,zero
    5784:	00000021 	move	zero,zero
    5788:	00000021 	move	zero,zero
    578c:	00000021 	move	zero,zero
    5790:	3c12f966 	lui	s2,0xf966
    5794:	365262d4 	ori	s2,s2,0x62d4
    5798:	00000000 	nop
    579c:	3c14cf4e 	lui	s4,0xcf4e
    57a0:	3694331c 	ori	s4,s4,0x331c
    57a4:	16141380 	bne	s0,s4,a5a8 <inst_error>
    57a8:	00000000 	nop
    57ac:	00000000 	nop
    57b0:	3c15f966 	lui	s5,0xf966
    57b4:	36b562d4 	ori	s5,s5,0x62d4
    57b8:	1655137b 	bne	s2,s5,a5a8 <inst_error>
    57bc:	00000000 	nop
    57c0:	00000000 	nop
    57c4:	3c0c31fe 	lui	t4,0x31fe
    57c8:	358c18a8 	ori	t4,t4,0x18a8
    57cc:	3c0dea76 	lui	t5,0xea76
    57d0:	35ad604d 	ori	t5,t5,0x604d
    57d4:	24100000 	li	s0,0
    57d8:	24120000 	li	s2,0
    57dc:	3c080000 	lui	t0,0x0
    57e0:	250857f8 	addiu	t0,t0,22520
    57e4:	3c090000 	lui	t1,0x0
    57e8:	25295864 	addiu	t1,t1,22628
    57ec:	1000000b 	b	581c <n39_jr_test+0x581c>
    57f0:	00000000 	nop
    57f4:	00000000 	nop
    57f8:	3c1031fe 	lui	s0,0x31fe
    57fc:	01200008 	jr	t1
    5800:	361018a8 	ori	s0,s0,0x18a8
    5804:	10000019 	b	586c <n39_jr_test+0x586c>
    5808:	00000000 	nop
    580c:	00000000 	nop
    5810:	00000021 	move	zero,zero
    5814:	00000021 	move	zero,zero
    5818:	00000021 	move	zero,zero
    581c:	01000008 	jr	t0
    5820:	00000000 	nop
    5824:	10000011 	b	586c <n39_jr_test+0x586c>
    5828:	00000000 	nop
    582c:	00000000 	nop
    5830:	00000021 	move	zero,zero
    5834:	00000021 	move	zero,zero
    5838:	00000021 	move	zero,zero
    583c:	00000021 	move	zero,zero
    5840:	00000021 	move	zero,zero
    5844:	00000021 	move	zero,zero
    5848:	00000021 	move	zero,zero
    584c:	00000021 	move	zero,zero
    5850:	00000021 	move	zero,zero
    5854:	00000021 	move	zero,zero
    5858:	00000021 	move	zero,zero
    585c:	00000021 	move	zero,zero
    5860:	00000021 	move	zero,zero
    5864:	3c12ea76 	lui	s2,0xea76
    5868:	3652604d 	ori	s2,s2,0x604d
    586c:	00000000 	nop
    5870:	3c1431fe 	lui	s4,0x31fe
    5874:	369418a8 	ori	s4,s4,0x18a8
    5878:	1614134b 	bne	s0,s4,a5a8 <inst_error>
    587c:	00000000 	nop
    5880:	00000000 	nop
    5884:	3c15ea76 	lui	s5,0xea76
    5888:	36b5604d 	ori	s5,s5,0x604d
    588c:	16551346 	bne	s2,s5,a5a8 <inst_error>
    5890:	00000000 	nop
    5894:	00000000 	nop
    5898:	3c0c4378 	lui	t4,0x4378
    589c:	358c50a5 	ori	t4,t4,0x50a5
    58a0:	3c0dafc8 	lui	t5,0xafc8
    58a4:	35ad4cc0 	ori	t5,t5,0x4cc0
    58a8:	24100000 	li	s0,0
    58ac:	24120000 	li	s2,0
    58b0:	3c080000 	lui	t0,0x0
    58b4:	250858cc 	addiu	t0,t0,22732
    58b8:	3c090000 	lui	t1,0x0
    58bc:	25295938 	addiu	t1,t1,22840
    58c0:	1000000b 	b	58f0 <n39_jr_test+0x58f0>
    58c4:	00000000 	nop
    58c8:	00000000 	nop
    58cc:	3c104378 	lui	s0,0x4378
    58d0:	01200008 	jr	t1
    58d4:	361050a5 	ori	s0,s0,0x50a5
    58d8:	10000019 	b	5940 <n39_jr_test+0x5940>
    58dc:	00000000 	nop
    58e0:	00000000 	nop
    58e4:	00000021 	move	zero,zero
    58e8:	00000021 	move	zero,zero
    58ec:	00000021 	move	zero,zero
    58f0:	01000008 	jr	t0
    58f4:	00000000 	nop
    58f8:	10000011 	b	5940 <n39_jr_test+0x5940>
    58fc:	00000000 	nop
    5900:	00000000 	nop
    5904:	00000021 	move	zero,zero
    5908:	00000021 	move	zero,zero
    590c:	00000021 	move	zero,zero
    5910:	00000021 	move	zero,zero
    5914:	00000021 	move	zero,zero
    5918:	00000021 	move	zero,zero
    591c:	00000021 	move	zero,zero
    5920:	00000021 	move	zero,zero
    5924:	00000021 	move	zero,zero
    5928:	00000021 	move	zero,zero
    592c:	00000021 	move	zero,zero
    5930:	00000021 	move	zero,zero
    5934:	00000021 	move	zero,zero
    5938:	3c12afc8 	lui	s2,0xafc8
    593c:	36524cc0 	ori	s2,s2,0x4cc0
    5940:	00000000 	nop
    5944:	3c144378 	lui	s4,0x4378
    5948:	369450a5 	ori	s4,s4,0x50a5
    594c:	16141316 	bne	s0,s4,a5a8 <inst_error>
    5950:	00000000 	nop
    5954:	00000000 	nop
    5958:	3c15afc8 	lui	s5,0xafc8
    595c:	36b54cc0 	ori	s5,s5,0x4cc0
    5960:	16551311 	bne	s2,s5,a5a8 <inst_error>
    5964:	00000000 	nop
    5968:	00000000 	nop
    596c:	3c0c305f 	lui	t4,0x305f
    5970:	358ce32c 	ori	t4,t4,0xe32c
    5974:	3c0d9958 	lui	t5,0x9958
    5978:	35adbca0 	ori	t5,t5,0xbca0
    597c:	24100000 	li	s0,0
    5980:	24120000 	li	s2,0
    5984:	3c080000 	lui	t0,0x0
    5988:	250859a0 	addiu	t0,t0,22944
    598c:	3c090000 	lui	t1,0x0
    5990:	25295a0c 	addiu	t1,t1,23052
    5994:	1000000b 	b	59c4 <n39_jr_test+0x59c4>
    5998:	00000000 	nop
    599c:	00000000 	nop
    59a0:	3c10305f 	lui	s0,0x305f
    59a4:	01200008 	jr	t1
    59a8:	3610e32c 	ori	s0,s0,0xe32c
    59ac:	10000019 	b	5a14 <n39_jr_test+0x5a14>
    59b0:	00000000 	nop
    59b4:	00000000 	nop
    59b8:	00000021 	move	zero,zero
    59bc:	00000021 	move	zero,zero
    59c0:	00000021 	move	zero,zero
    59c4:	01000008 	jr	t0
    59c8:	00000000 	nop
    59cc:	10000011 	b	5a14 <n39_jr_test+0x5a14>
    59d0:	00000000 	nop
    59d4:	00000000 	nop
    59d8:	00000021 	move	zero,zero
    59dc:	00000021 	move	zero,zero
    59e0:	00000021 	move	zero,zero
    59e4:	00000021 	move	zero,zero
    59e8:	00000021 	move	zero,zero
    59ec:	00000021 	move	zero,zero
    59f0:	00000021 	move	zero,zero
    59f4:	00000021 	move	zero,zero
    59f8:	00000021 	move	zero,zero
    59fc:	00000021 	move	zero,zero
    5a00:	00000021 	move	zero,zero
    5a04:	00000021 	move	zero,zero
    5a08:	00000021 	move	zero,zero
    5a0c:	3c129958 	lui	s2,0x9958
    5a10:	3652bca0 	ori	s2,s2,0xbca0
    5a14:	00000000 	nop
    5a18:	3c14305f 	lui	s4,0x305f
    5a1c:	3694e32c 	ori	s4,s4,0xe32c
    5a20:	161412e1 	bne	s0,s4,a5a8 <inst_error>
    5a24:	00000000 	nop
    5a28:	00000000 	nop
    5a2c:	3c159958 	lui	s5,0x9958
    5a30:	36b5bca0 	ori	s5,s5,0xbca0
    5a34:	165512dc 	bne	s2,s5,a5a8 <inst_error>
    5a38:	00000000 	nop
    5a3c:	00000000 	nop
    5a40:	3c0c6819 	lui	t4,0x6819
    5a44:	358cc7ac 	ori	t4,t4,0xc7ac
    5a48:	3c0d72ae 	lui	t5,0x72ae
    5a4c:	35ad5be8 	ori	t5,t5,0x5be8
    5a50:	24100000 	li	s0,0
    5a54:	24120000 	li	s2,0
    5a58:	3c080000 	lui	t0,0x0
    5a5c:	25085a74 	addiu	t0,t0,23156
    5a60:	3c090000 	lui	t1,0x0
    5a64:	25295ae0 	addiu	t1,t1,23264
    5a68:	1000000b 	b	5a98 <n39_jr_test+0x5a98>
    5a6c:	00000000 	nop
    5a70:	00000000 	nop
    5a74:	3c106819 	lui	s0,0x6819
    5a78:	01200008 	jr	t1
    5a7c:	3610c7ac 	ori	s0,s0,0xc7ac
    5a80:	10000019 	b	5ae8 <n39_jr_test+0x5ae8>
    5a84:	00000000 	nop
    5a88:	00000000 	nop
    5a8c:	00000021 	move	zero,zero
    5a90:	00000021 	move	zero,zero
    5a94:	00000021 	move	zero,zero
    5a98:	01000008 	jr	t0
    5a9c:	00000000 	nop
    5aa0:	10000011 	b	5ae8 <n39_jr_test+0x5ae8>
    5aa4:	00000000 	nop
    5aa8:	00000000 	nop
    5aac:	00000021 	move	zero,zero
    5ab0:	00000021 	move	zero,zero
    5ab4:	00000021 	move	zero,zero
    5ab8:	00000021 	move	zero,zero
    5abc:	00000021 	move	zero,zero
    5ac0:	00000021 	move	zero,zero
    5ac4:	00000021 	move	zero,zero
    5ac8:	00000021 	move	zero,zero
    5acc:	00000021 	move	zero,zero
    5ad0:	00000021 	move	zero,zero
    5ad4:	00000021 	move	zero,zero
    5ad8:	00000021 	move	zero,zero
    5adc:	00000021 	move	zero,zero
    5ae0:	3c1272ae 	lui	s2,0x72ae
    5ae4:	36525be8 	ori	s2,s2,0x5be8
    5ae8:	00000000 	nop
    5aec:	3c146819 	lui	s4,0x6819
    5af0:	3694c7ac 	ori	s4,s4,0xc7ac
    5af4:	161412ac 	bne	s0,s4,a5a8 <inst_error>
    5af8:	00000000 	nop
    5afc:	00000000 	nop
    5b00:	3c1572ae 	lui	s5,0x72ae
    5b04:	36b55be8 	ori	s5,s5,0x5be8
    5b08:	165512a7 	bne	s2,s5,a5a8 <inst_error>
    5b0c:	00000000 	nop
    5b10:	00000000 	nop
    5b14:	3c0cbc48 	lui	t4,0xbc48
    5b18:	358c3294 	ori	t4,t4,0x3294
    5b1c:	3c0d5ee9 	lui	t5,0x5ee9
    5b20:	35adcab7 	ori	t5,t5,0xcab7
    5b24:	24100000 	li	s0,0
    5b28:	24120000 	li	s2,0
    5b2c:	3c080000 	lui	t0,0x0
    5b30:	25085b48 	addiu	t0,t0,23368
    5b34:	3c090000 	lui	t1,0x0
    5b38:	25295bb4 	addiu	t1,t1,23476
    5b3c:	1000000b 	b	5b6c <n39_jr_test+0x5b6c>
    5b40:	00000000 	nop
    5b44:	00000000 	nop
    5b48:	3c10bc48 	lui	s0,0xbc48
    5b4c:	01200008 	jr	t1
    5b50:	36103294 	ori	s0,s0,0x3294
    5b54:	10000019 	b	5bbc <n39_jr_test+0x5bbc>
    5b58:	00000000 	nop
    5b5c:	00000000 	nop
    5b60:	00000021 	move	zero,zero
    5b64:	00000021 	move	zero,zero
    5b68:	00000021 	move	zero,zero
    5b6c:	01000008 	jr	t0
    5b70:	00000000 	nop
    5b74:	10000011 	b	5bbc <n39_jr_test+0x5bbc>
    5b78:	00000000 	nop
    5b7c:	00000000 	nop
    5b80:	00000021 	move	zero,zero
    5b84:	00000021 	move	zero,zero
    5b88:	00000021 	move	zero,zero
    5b8c:	00000021 	move	zero,zero
    5b90:	00000021 	move	zero,zero
    5b94:	00000021 	move	zero,zero
    5b98:	00000021 	move	zero,zero
    5b9c:	00000021 	move	zero,zero
    5ba0:	00000021 	move	zero,zero
    5ba4:	00000021 	move	zero,zero
    5ba8:	00000021 	move	zero,zero
    5bac:	00000021 	move	zero,zero
    5bb0:	00000021 	move	zero,zero
    5bb4:	3c125ee9 	lui	s2,0x5ee9
    5bb8:	3652cab7 	ori	s2,s2,0xcab7
    5bbc:	00000000 	nop
    5bc0:	3c14bc48 	lui	s4,0xbc48
    5bc4:	36943294 	ori	s4,s4,0x3294
    5bc8:	16141277 	bne	s0,s4,a5a8 <inst_error>
    5bcc:	00000000 	nop
    5bd0:	00000000 	nop
    5bd4:	3c155ee9 	lui	s5,0x5ee9
    5bd8:	36b5cab7 	ori	s5,s5,0xcab7
    5bdc:	16551272 	bne	s2,s5,a5a8 <inst_error>
    5be0:	00000000 	nop
    5be4:	00000000 	nop
    5be8:	3c0c992c 	lui	t4,0x992c
    5bec:	358ca086 	ori	t4,t4,0xa086
    5bf0:	3c0ddb12 	lui	t5,0xdb12
    5bf4:	35adba3e 	ori	t5,t5,0xba3e
    5bf8:	24100000 	li	s0,0
    5bfc:	24120000 	li	s2,0
    5c00:	3c080000 	lui	t0,0x0
    5c04:	25085c1c 	addiu	t0,t0,23580
    5c08:	3c090000 	lui	t1,0x0
    5c0c:	25295c88 	addiu	t1,t1,23688
    5c10:	1000000b 	b	5c40 <n39_jr_test+0x5c40>
    5c14:	00000000 	nop
    5c18:	00000000 	nop
    5c1c:	3c10992c 	lui	s0,0x992c
    5c20:	01200008 	jr	t1
    5c24:	3610a086 	ori	s0,s0,0xa086
    5c28:	10000019 	b	5c90 <n39_jr_test+0x5c90>
    5c2c:	00000000 	nop
    5c30:	00000000 	nop
    5c34:	00000021 	move	zero,zero
    5c38:	00000021 	move	zero,zero
    5c3c:	00000021 	move	zero,zero
    5c40:	01000008 	jr	t0
    5c44:	00000000 	nop
    5c48:	10000011 	b	5c90 <n39_jr_test+0x5c90>
    5c4c:	00000000 	nop
    5c50:	00000000 	nop
    5c54:	00000021 	move	zero,zero
    5c58:	00000021 	move	zero,zero
    5c5c:	00000021 	move	zero,zero
    5c60:	00000021 	move	zero,zero
    5c64:	00000021 	move	zero,zero
    5c68:	00000021 	move	zero,zero
    5c6c:	00000021 	move	zero,zero
    5c70:	00000021 	move	zero,zero
    5c74:	00000021 	move	zero,zero
    5c78:	00000021 	move	zero,zero
    5c7c:	00000021 	move	zero,zero
    5c80:	00000021 	move	zero,zero
    5c84:	00000021 	move	zero,zero
    5c88:	3c12db12 	lui	s2,0xdb12
    5c8c:	3652ba3e 	ori	s2,s2,0xba3e
    5c90:	00000000 	nop
    5c94:	3c14992c 	lui	s4,0x992c
    5c98:	3694a086 	ori	s4,s4,0xa086
    5c9c:	16141242 	bne	s0,s4,a5a8 <inst_error>
    5ca0:	00000000 	nop
    5ca4:	00000000 	nop
    5ca8:	3c15db12 	lui	s5,0xdb12
    5cac:	36b5ba3e 	ori	s5,s5,0xba3e
    5cb0:	1655123d 	bne	s2,s5,a5a8 <inst_error>
    5cb4:	00000000 	nop
    5cb8:	00000000 	nop
    5cbc:	3c0c4815 	lui	t4,0x4815
    5cc0:	358cf586 	ori	t4,t4,0xf586
    5cc4:	3c0d601e 	lui	t5,0x601e
    5cc8:	35ad841c 	ori	t5,t5,0x841c
    5ccc:	24100000 	li	s0,0
    5cd0:	24120000 	li	s2,0
    5cd4:	3c080000 	lui	t0,0x0
    5cd8:	25085cf0 	addiu	t0,t0,23792
    5cdc:	3c090000 	lui	t1,0x0
    5ce0:	25295d5c 	addiu	t1,t1,23900
    5ce4:	1000000b 	b	5d14 <n39_jr_test+0x5d14>
    5ce8:	00000000 	nop
    5cec:	00000000 	nop
    5cf0:	3c104815 	lui	s0,0x4815
    5cf4:	01200008 	jr	t1
    5cf8:	3610f586 	ori	s0,s0,0xf586
    5cfc:	10000019 	b	5d64 <n39_jr_test+0x5d64>
    5d00:	00000000 	nop
    5d04:	00000000 	nop
    5d08:	00000021 	move	zero,zero
    5d0c:	00000021 	move	zero,zero
    5d10:	00000021 	move	zero,zero
    5d14:	01000008 	jr	t0
    5d18:	00000000 	nop
    5d1c:	10000011 	b	5d64 <n39_jr_test+0x5d64>
    5d20:	00000000 	nop
    5d24:	00000000 	nop
    5d28:	00000021 	move	zero,zero
    5d2c:	00000021 	move	zero,zero
    5d30:	00000021 	move	zero,zero
    5d34:	00000021 	move	zero,zero
    5d38:	00000021 	move	zero,zero
    5d3c:	00000021 	move	zero,zero
    5d40:	00000021 	move	zero,zero
    5d44:	00000021 	move	zero,zero
    5d48:	00000021 	move	zero,zero
    5d4c:	00000021 	move	zero,zero
    5d50:	00000021 	move	zero,zero
    5d54:	00000021 	move	zero,zero
    5d58:	00000021 	move	zero,zero
    5d5c:	3c12601e 	lui	s2,0x601e
    5d60:	3652841c 	ori	s2,s2,0x841c
    5d64:	00000000 	nop
    5d68:	3c144815 	lui	s4,0x4815
    5d6c:	3694f586 	ori	s4,s4,0xf586
    5d70:	1614120d 	bne	s0,s4,a5a8 <inst_error>
    5d74:	00000000 	nop
    5d78:	00000000 	nop
    5d7c:	3c15601e 	lui	s5,0x601e
    5d80:	36b5841c 	ori	s5,s5,0x841c
    5d84:	16551208 	bne	s2,s5,a5a8 <inst_error>
    5d88:	00000000 	nop
    5d8c:	00000000 	nop
    5d90:	3c0cd72e 	lui	t4,0xd72e
    5d94:	358cde76 	ori	t4,t4,0xde76
    5d98:	3c0d3839 	lui	t5,0x3839
    5d9c:	35ad8460 	ori	t5,t5,0x8460
    5da0:	24100000 	li	s0,0
    5da4:	24120000 	li	s2,0
    5da8:	3c080000 	lui	t0,0x0
    5dac:	25085dc4 	addiu	t0,t0,24004
    5db0:	3c090000 	lui	t1,0x0
    5db4:	25295e30 	addiu	t1,t1,24112
    5db8:	1000000b 	b	5de8 <n39_jr_test+0x5de8>
    5dbc:	00000000 	nop
    5dc0:	00000000 	nop
    5dc4:	3c10d72e 	lui	s0,0xd72e
    5dc8:	01200008 	jr	t1
    5dcc:	3610de76 	ori	s0,s0,0xde76
    5dd0:	10000019 	b	5e38 <n39_jr_test+0x5e38>
    5dd4:	00000000 	nop
    5dd8:	00000000 	nop
    5ddc:	00000021 	move	zero,zero
    5de0:	00000021 	move	zero,zero
    5de4:	00000021 	move	zero,zero
    5de8:	01000008 	jr	t0
    5dec:	00000000 	nop
    5df0:	10000011 	b	5e38 <n39_jr_test+0x5e38>
    5df4:	00000000 	nop
    5df8:	00000000 	nop
    5dfc:	00000021 	move	zero,zero
    5e00:	00000021 	move	zero,zero
    5e04:	00000021 	move	zero,zero
    5e08:	00000021 	move	zero,zero
    5e0c:	00000021 	move	zero,zero
    5e10:	00000021 	move	zero,zero
    5e14:	00000021 	move	zero,zero
    5e18:	00000021 	move	zero,zero
    5e1c:	00000021 	move	zero,zero
    5e20:	00000021 	move	zero,zero
    5e24:	00000021 	move	zero,zero
    5e28:	00000021 	move	zero,zero
    5e2c:	00000021 	move	zero,zero
    5e30:	3c123839 	lui	s2,0x3839
    5e34:	36528460 	ori	s2,s2,0x8460
    5e38:	00000000 	nop
    5e3c:	3c14d72e 	lui	s4,0xd72e
    5e40:	3694de76 	ori	s4,s4,0xde76
    5e44:	161411d8 	bne	s0,s4,a5a8 <inst_error>
    5e48:	00000000 	nop
    5e4c:	00000000 	nop
    5e50:	3c153839 	lui	s5,0x3839
    5e54:	36b58460 	ori	s5,s5,0x8460
    5e58:	165511d3 	bne	s2,s5,a5a8 <inst_error>
    5e5c:	00000000 	nop
    5e60:	00000000 	nop
    5e64:	3c0cfd78 	lui	t4,0xfd78
    5e68:	358c0804 	ori	t4,t4,0x804
    5e6c:	3c0dd267 	lui	t5,0xd267
    5e70:	35ade691 	ori	t5,t5,0xe691
    5e74:	24100000 	li	s0,0
    5e78:	24120000 	li	s2,0
    5e7c:	3c080000 	lui	t0,0x0
    5e80:	25085e98 	addiu	t0,t0,24216
    5e84:	3c090000 	lui	t1,0x0
    5e88:	25295f04 	addiu	t1,t1,24324
    5e8c:	1000000b 	b	5ebc <n39_jr_test+0x5ebc>
    5e90:	00000000 	nop
    5e94:	00000000 	nop
    5e98:	3c10fd78 	lui	s0,0xfd78
    5e9c:	01200008 	jr	t1
    5ea0:	36100804 	ori	s0,s0,0x804
    5ea4:	10000019 	b	5f0c <n39_jr_test+0x5f0c>
    5ea8:	00000000 	nop
    5eac:	00000000 	nop
    5eb0:	00000021 	move	zero,zero
    5eb4:	00000021 	move	zero,zero
    5eb8:	00000021 	move	zero,zero
    5ebc:	01000008 	jr	t0
    5ec0:	00000000 	nop
    5ec4:	10000011 	b	5f0c <n39_jr_test+0x5f0c>
    5ec8:	00000000 	nop
    5ecc:	00000000 	nop
    5ed0:	00000021 	move	zero,zero
    5ed4:	00000021 	move	zero,zero
    5ed8:	00000021 	move	zero,zero
    5edc:	00000021 	move	zero,zero
    5ee0:	00000021 	move	zero,zero
    5ee4:	00000021 	move	zero,zero
    5ee8:	00000021 	move	zero,zero
    5eec:	00000021 	move	zero,zero
    5ef0:	00000021 	move	zero,zero
    5ef4:	00000021 	move	zero,zero
    5ef8:	00000021 	move	zero,zero
    5efc:	00000021 	move	zero,zero
    5f00:	00000021 	move	zero,zero
    5f04:	3c12d267 	lui	s2,0xd267
    5f08:	3652e691 	ori	s2,s2,0xe691
    5f0c:	00000000 	nop
    5f10:	3c14fd78 	lui	s4,0xfd78
    5f14:	36940804 	ori	s4,s4,0x804
    5f18:	161411a3 	bne	s0,s4,a5a8 <inst_error>
    5f1c:	00000000 	nop
    5f20:	00000000 	nop
    5f24:	3c15d267 	lui	s5,0xd267
    5f28:	36b5e691 	ori	s5,s5,0xe691
    5f2c:	1655119e 	bne	s2,s5,a5a8 <inst_error>
    5f30:	00000000 	nop
    5f34:	00000000 	nop
    5f38:	3c0c14b6 	lui	t4,0x14b6
    5f3c:	358c7f0f 	ori	t4,t4,0x7f0f
    5f40:	3c0d4af4 	lui	t5,0x4af4
    5f44:	35ada348 	ori	t5,t5,0xa348
    5f48:	24100000 	li	s0,0
    5f4c:	24120000 	li	s2,0
    5f50:	3c080000 	lui	t0,0x0
    5f54:	25085f6c 	addiu	t0,t0,24428
    5f58:	3c090000 	lui	t1,0x0
    5f5c:	25295fd8 	addiu	t1,t1,24536
    5f60:	1000000b 	b	5f90 <n39_jr_test+0x5f90>
    5f64:	00000000 	nop
    5f68:	00000000 	nop
    5f6c:	3c1014b6 	lui	s0,0x14b6
    5f70:	01200008 	jr	t1
    5f74:	36107f0f 	ori	s0,s0,0x7f0f
    5f78:	10000019 	b	5fe0 <n39_jr_test+0x5fe0>
    5f7c:	00000000 	nop
    5f80:	00000000 	nop
    5f84:	00000021 	move	zero,zero
    5f88:	00000021 	move	zero,zero
    5f8c:	00000021 	move	zero,zero
    5f90:	01000008 	jr	t0
    5f94:	00000000 	nop
    5f98:	10000011 	b	5fe0 <n39_jr_test+0x5fe0>
    5f9c:	00000000 	nop
    5fa0:	00000000 	nop
    5fa4:	00000021 	move	zero,zero
    5fa8:	00000021 	move	zero,zero
    5fac:	00000021 	move	zero,zero
    5fb0:	00000021 	move	zero,zero
    5fb4:	00000021 	move	zero,zero
    5fb8:	00000021 	move	zero,zero
    5fbc:	00000021 	move	zero,zero
    5fc0:	00000021 	move	zero,zero
    5fc4:	00000021 	move	zero,zero
    5fc8:	00000021 	move	zero,zero
    5fcc:	00000021 	move	zero,zero
    5fd0:	00000021 	move	zero,zero
    5fd4:	00000021 	move	zero,zero
    5fd8:	3c124af4 	lui	s2,0x4af4
    5fdc:	3652a348 	ori	s2,s2,0xa348
    5fe0:	00000000 	nop
    5fe4:	3c1414b6 	lui	s4,0x14b6
    5fe8:	36947f0f 	ori	s4,s4,0x7f0f
    5fec:	1614116e 	bne	s0,s4,a5a8 <inst_error>
    5ff0:	00000000 	nop
    5ff4:	00000000 	nop
    5ff8:	3c154af4 	lui	s5,0x4af4
    5ffc:	36b5a348 	ori	s5,s5,0xa348
    6000:	16551169 	bne	s2,s5,a5a8 <inst_error>
    6004:	00000000 	nop
    6008:	00000000 	nop
    600c:	3c0c1180 	lui	t4,0x1180
    6010:	358ca96c 	ori	t4,t4,0xa96c
    6014:	3c0dd387 	lui	t5,0xd387
    6018:	35ad7780 	ori	t5,t5,0x7780
    601c:	24100000 	li	s0,0
    6020:	24120000 	li	s2,0
    6024:	3c080000 	lui	t0,0x0
    6028:	25086040 	addiu	t0,t0,24640
    602c:	3c090000 	lui	t1,0x0
    6030:	252960ac 	addiu	t1,t1,24748
    6034:	1000000b 	b	6064 <n39_jr_test+0x6064>
    6038:	00000000 	nop
    603c:	00000000 	nop
    6040:	3c101180 	lui	s0,0x1180
    6044:	01200008 	jr	t1
    6048:	3610a96c 	ori	s0,s0,0xa96c
    604c:	10000019 	b	60b4 <n39_jr_test+0x60b4>
    6050:	00000000 	nop
    6054:	00000000 	nop
    6058:	00000021 	move	zero,zero
    605c:	00000021 	move	zero,zero
    6060:	00000021 	move	zero,zero
    6064:	01000008 	jr	t0
    6068:	00000000 	nop
    606c:	10000011 	b	60b4 <n39_jr_test+0x60b4>
    6070:	00000000 	nop
    6074:	00000000 	nop
    6078:	00000021 	move	zero,zero
    607c:	00000021 	move	zero,zero
    6080:	00000021 	move	zero,zero
    6084:	00000021 	move	zero,zero
    6088:	00000021 	move	zero,zero
    608c:	00000021 	move	zero,zero
    6090:	00000021 	move	zero,zero
    6094:	00000021 	move	zero,zero
    6098:	00000021 	move	zero,zero
    609c:	00000021 	move	zero,zero
    60a0:	00000021 	move	zero,zero
    60a4:	00000021 	move	zero,zero
    60a8:	00000021 	move	zero,zero
    60ac:	3c12d387 	lui	s2,0xd387
    60b0:	36527780 	ori	s2,s2,0x7780
    60b4:	00000000 	nop
    60b8:	3c141180 	lui	s4,0x1180
    60bc:	3694a96c 	ori	s4,s4,0xa96c
    60c0:	16141139 	bne	s0,s4,a5a8 <inst_error>
    60c4:	00000000 	nop
    60c8:	00000000 	nop
    60cc:	3c15d387 	lui	s5,0xd387
    60d0:	36b57780 	ori	s5,s5,0x7780
    60d4:	16551134 	bne	s2,s5,a5a8 <inst_error>
    60d8:	00000000 	nop
    60dc:	00000000 	nop
    60e0:	3c0c36e5 	lui	t4,0x36e5
    60e4:	358cc8b0 	ori	t4,t4,0xc8b0
    60e8:	3c0d8919 	lui	t5,0x8919
    60ec:	35adab62 	ori	t5,t5,0xab62
    60f0:	24100000 	li	s0,0
    60f4:	24120000 	li	s2,0
    60f8:	3c080000 	lui	t0,0x0
    60fc:	25086114 	addiu	t0,t0,24852
    6100:	3c090000 	lui	t1,0x0
    6104:	25296180 	addiu	t1,t1,24960
    6108:	1000000b 	b	6138 <n39_jr_test+0x6138>
    610c:	00000000 	nop
    6110:	00000000 	nop
    6114:	3c1036e5 	lui	s0,0x36e5
    6118:	01200008 	jr	t1
    611c:	3610c8b0 	ori	s0,s0,0xc8b0
    6120:	10000019 	b	6188 <n39_jr_test+0x6188>
    6124:	00000000 	nop
    6128:	00000000 	nop
    612c:	00000021 	move	zero,zero
    6130:	00000021 	move	zero,zero
    6134:	00000021 	move	zero,zero
    6138:	01000008 	jr	t0
    613c:	00000000 	nop
    6140:	10000011 	b	6188 <n39_jr_test+0x6188>
    6144:	00000000 	nop
    6148:	00000000 	nop
    614c:	00000021 	move	zero,zero
    6150:	00000021 	move	zero,zero
    6154:	00000021 	move	zero,zero
    6158:	00000021 	move	zero,zero
    615c:	00000021 	move	zero,zero
    6160:	00000021 	move	zero,zero
    6164:	00000021 	move	zero,zero
    6168:	00000021 	move	zero,zero
    616c:	00000021 	move	zero,zero
    6170:	00000021 	move	zero,zero
    6174:	00000021 	move	zero,zero
    6178:	00000021 	move	zero,zero
    617c:	00000021 	move	zero,zero
    6180:	3c128919 	lui	s2,0x8919
    6184:	3652ab62 	ori	s2,s2,0xab62
    6188:	00000000 	nop
    618c:	3c1436e5 	lui	s4,0x36e5
    6190:	3694c8b0 	ori	s4,s4,0xc8b0
    6194:	16141104 	bne	s0,s4,a5a8 <inst_error>
    6198:	00000000 	nop
    619c:	00000000 	nop
    61a0:	3c158919 	lui	s5,0x8919
    61a4:	36b5ab62 	ori	s5,s5,0xab62
    61a8:	165510ff 	bne	s2,s5,a5a8 <inst_error>
    61ac:	00000000 	nop
    61b0:	00000000 	nop
    61b4:	3c0cebe4 	lui	t4,0xebe4
    61b8:	358c1ae0 	ori	t4,t4,0x1ae0
    61bc:	3c0db1ec 	lui	t5,0xb1ec
    61c0:	35ad9648 	ori	t5,t5,0x9648
    61c4:	24100000 	li	s0,0
    61c8:	24120000 	li	s2,0
    61cc:	3c080000 	lui	t0,0x0
    61d0:	250861e8 	addiu	t0,t0,25064
    61d4:	3c090000 	lui	t1,0x0
    61d8:	25296254 	addiu	t1,t1,25172
    61dc:	1000000b 	b	620c <n39_jr_test+0x620c>
    61e0:	00000000 	nop
    61e4:	00000000 	nop
    61e8:	3c10ebe4 	lui	s0,0xebe4
    61ec:	01200008 	jr	t1
    61f0:	36101ae0 	ori	s0,s0,0x1ae0
    61f4:	10000019 	b	625c <n39_jr_test+0x625c>
    61f8:	00000000 	nop
    61fc:	00000000 	nop
    6200:	00000021 	move	zero,zero
    6204:	00000021 	move	zero,zero
    6208:	00000021 	move	zero,zero
    620c:	01000008 	jr	t0
    6210:	00000000 	nop
    6214:	10000011 	b	625c <n39_jr_test+0x625c>
    6218:	00000000 	nop
    621c:	00000000 	nop
    6220:	00000021 	move	zero,zero
    6224:	00000021 	move	zero,zero
    6228:	00000021 	move	zero,zero
    622c:	00000021 	move	zero,zero
    6230:	00000021 	move	zero,zero
    6234:	00000021 	move	zero,zero
    6238:	00000021 	move	zero,zero
    623c:	00000021 	move	zero,zero
    6240:	00000021 	move	zero,zero
    6244:	00000021 	move	zero,zero
    6248:	00000021 	move	zero,zero
    624c:	00000021 	move	zero,zero
    6250:	00000021 	move	zero,zero
    6254:	3c12b1ec 	lui	s2,0xb1ec
    6258:	36529648 	ori	s2,s2,0x9648
    625c:	00000000 	nop
    6260:	3c14ebe4 	lui	s4,0xebe4
    6264:	36941ae0 	ori	s4,s4,0x1ae0
    6268:	161410cf 	bne	s0,s4,a5a8 <inst_error>
    626c:	00000000 	nop
    6270:	00000000 	nop
    6274:	3c15b1ec 	lui	s5,0xb1ec
    6278:	36b59648 	ori	s5,s5,0x9648
    627c:	165510ca 	bne	s2,s5,a5a8 <inst_error>
    6280:	00000000 	nop
    6284:	00000000 	nop
    6288:	3c0c4ea5 	lui	t4,0x4ea5
    628c:	358ce93c 	ori	t4,t4,0xe93c
    6290:	3c0d06d5 	lui	t5,0x6d5
    6294:	35adf244 	ori	t5,t5,0xf244
    6298:	24100000 	li	s0,0
    629c:	24120000 	li	s2,0
    62a0:	3c080000 	lui	t0,0x0
    62a4:	250862bc 	addiu	t0,t0,25276
    62a8:	3c090000 	lui	t1,0x0
    62ac:	25296328 	addiu	t1,t1,25384
    62b0:	1000000b 	b	62e0 <n39_jr_test+0x62e0>
    62b4:	00000000 	nop
    62b8:	00000000 	nop
    62bc:	3c104ea5 	lui	s0,0x4ea5
    62c0:	01200008 	jr	t1
    62c4:	3610e93c 	ori	s0,s0,0xe93c
    62c8:	10000019 	b	6330 <n39_jr_test+0x6330>
    62cc:	00000000 	nop
    62d0:	00000000 	nop
    62d4:	00000021 	move	zero,zero
    62d8:	00000021 	move	zero,zero
    62dc:	00000021 	move	zero,zero
    62e0:	01000008 	jr	t0
    62e4:	00000000 	nop
    62e8:	10000011 	b	6330 <n39_jr_test+0x6330>
    62ec:	00000000 	nop
    62f0:	00000000 	nop
    62f4:	00000021 	move	zero,zero
    62f8:	00000021 	move	zero,zero
    62fc:	00000021 	move	zero,zero
    6300:	00000021 	move	zero,zero
    6304:	00000021 	move	zero,zero
    6308:	00000021 	move	zero,zero
    630c:	00000021 	move	zero,zero
    6310:	00000021 	move	zero,zero
    6314:	00000021 	move	zero,zero
    6318:	00000021 	move	zero,zero
    631c:	00000021 	move	zero,zero
    6320:	00000021 	move	zero,zero
    6324:	00000021 	move	zero,zero
    6328:	3c1206d5 	lui	s2,0x6d5
    632c:	3652f244 	ori	s2,s2,0xf244
    6330:	00000000 	nop
    6334:	3c144ea5 	lui	s4,0x4ea5
    6338:	3694e93c 	ori	s4,s4,0xe93c
    633c:	1614109a 	bne	s0,s4,a5a8 <inst_error>
    6340:	00000000 	nop
    6344:	00000000 	nop
    6348:	3c1506d5 	lui	s5,0x6d5
    634c:	36b5f244 	ori	s5,s5,0xf244
    6350:	16551095 	bne	s2,s5,a5a8 <inst_error>
    6354:	00000000 	nop
    6358:	00000000 	nop
    635c:	3c0cdf92 	lui	t4,0xdf92
    6360:	358c436a 	ori	t4,t4,0x436a
    6364:	3c0d4b4f 	lui	t5,0x4b4f
    6368:	35ad58bc 	ori	t5,t5,0x58bc
    636c:	24100000 	li	s0,0
    6370:	24120000 	li	s2,0
    6374:	3c080000 	lui	t0,0x0
    6378:	25086390 	addiu	t0,t0,25488
    637c:	3c090000 	lui	t1,0x0
    6380:	252963fc 	addiu	t1,t1,25596
    6384:	1000000b 	b	63b4 <n39_jr_test+0x63b4>
    6388:	00000000 	nop
    638c:	00000000 	nop
    6390:	3c10df92 	lui	s0,0xdf92
    6394:	01200008 	jr	t1
    6398:	3610436a 	ori	s0,s0,0x436a
    639c:	10000019 	b	6404 <n39_jr_test+0x6404>
    63a0:	00000000 	nop
    63a4:	00000000 	nop
    63a8:	00000021 	move	zero,zero
    63ac:	00000021 	move	zero,zero
    63b0:	00000021 	move	zero,zero
    63b4:	01000008 	jr	t0
    63b8:	00000000 	nop
    63bc:	10000011 	b	6404 <n39_jr_test+0x6404>
    63c0:	00000000 	nop
    63c4:	00000000 	nop
    63c8:	00000021 	move	zero,zero
    63cc:	00000021 	move	zero,zero
    63d0:	00000021 	move	zero,zero
    63d4:	00000021 	move	zero,zero
    63d8:	00000021 	move	zero,zero
    63dc:	00000021 	move	zero,zero
    63e0:	00000021 	move	zero,zero
    63e4:	00000021 	move	zero,zero
    63e8:	00000021 	move	zero,zero
    63ec:	00000021 	move	zero,zero
    63f0:	00000021 	move	zero,zero
    63f4:	00000021 	move	zero,zero
    63f8:	00000021 	move	zero,zero
    63fc:	3c124b4f 	lui	s2,0x4b4f
    6400:	365258bc 	ori	s2,s2,0x58bc
    6404:	00000000 	nop
    6408:	3c14df92 	lui	s4,0xdf92
    640c:	3694436a 	ori	s4,s4,0x436a
    6410:	16141065 	bne	s0,s4,a5a8 <inst_error>
    6414:	00000000 	nop
    6418:	00000000 	nop
    641c:	3c154b4f 	lui	s5,0x4b4f
    6420:	36b558bc 	ori	s5,s5,0x58bc
    6424:	16551060 	bne	s2,s5,a5a8 <inst_error>
    6428:	00000000 	nop
    642c:	00000000 	nop
    6430:	3c0ca046 	lui	t4,0xa046
    6434:	358c1040 	ori	t4,t4,0x1040
    6438:	3c0d8238 	lui	t5,0x8238
    643c:	35ada17c 	ori	t5,t5,0xa17c
    6440:	24100000 	li	s0,0
    6444:	24120000 	li	s2,0
    6448:	3c080000 	lui	t0,0x0
    644c:	25086464 	addiu	t0,t0,25700
    6450:	3c090000 	lui	t1,0x0
    6454:	252964d0 	addiu	t1,t1,25808
    6458:	1000000b 	b	6488 <n39_jr_test+0x6488>
    645c:	00000000 	nop
    6460:	00000000 	nop
    6464:	3c10a046 	lui	s0,0xa046
    6468:	01200008 	jr	t1
    646c:	36101040 	ori	s0,s0,0x1040
    6470:	10000019 	b	64d8 <n39_jr_test+0x64d8>
    6474:	00000000 	nop
    6478:	00000000 	nop
    647c:	00000021 	move	zero,zero
    6480:	00000021 	move	zero,zero
    6484:	00000021 	move	zero,zero
    6488:	01000008 	jr	t0
    648c:	00000000 	nop
    6490:	10000011 	b	64d8 <n39_jr_test+0x64d8>
    6494:	00000000 	nop
    6498:	00000000 	nop
    649c:	00000021 	move	zero,zero
    64a0:	00000021 	move	zero,zero
    64a4:	00000021 	move	zero,zero
    64a8:	00000021 	move	zero,zero
    64ac:	00000021 	move	zero,zero
    64b0:	00000021 	move	zero,zero
    64b4:	00000021 	move	zero,zero
    64b8:	00000021 	move	zero,zero
    64bc:	00000021 	move	zero,zero
    64c0:	00000021 	move	zero,zero
    64c4:	00000021 	move	zero,zero
    64c8:	00000021 	move	zero,zero
    64cc:	00000021 	move	zero,zero
    64d0:	3c128238 	lui	s2,0x8238
    64d4:	3652a17c 	ori	s2,s2,0xa17c
    64d8:	00000000 	nop
    64dc:	3c14a046 	lui	s4,0xa046
    64e0:	36941040 	ori	s4,s4,0x1040
    64e4:	16141030 	bne	s0,s4,a5a8 <inst_error>
    64e8:	00000000 	nop
    64ec:	00000000 	nop
    64f0:	3c158238 	lui	s5,0x8238
    64f4:	36b5a17c 	ori	s5,s5,0xa17c
    64f8:	1655102b 	bne	s2,s5,a5a8 <inst_error>
    64fc:	00000000 	nop
    6500:	00000000 	nop
    6504:	3c0cbca8 	lui	t4,0xbca8
    6508:	358c32fa 	ori	t4,t4,0x32fa
    650c:	3c0dc098 	lui	t5,0xc098
    6510:	35adcecc 	ori	t5,t5,0xcecc
    6514:	24100000 	li	s0,0
    6518:	24120000 	li	s2,0
    651c:	3c080000 	lui	t0,0x0
    6520:	25086538 	addiu	t0,t0,25912
    6524:	3c090000 	lui	t1,0x0
    6528:	252965a4 	addiu	t1,t1,26020
    652c:	1000000b 	b	655c <n39_jr_test+0x655c>
    6530:	00000000 	nop
    6534:	00000000 	nop
    6538:	3c10bca8 	lui	s0,0xbca8
    653c:	01200008 	jr	t1
    6540:	361032fa 	ori	s0,s0,0x32fa
    6544:	10000019 	b	65ac <n39_jr_test+0x65ac>
    6548:	00000000 	nop
    654c:	00000000 	nop
    6550:	00000021 	move	zero,zero
    6554:	00000021 	move	zero,zero
    6558:	00000021 	move	zero,zero
    655c:	01000008 	jr	t0
    6560:	00000000 	nop
    6564:	10000011 	b	65ac <n39_jr_test+0x65ac>
    6568:	00000000 	nop
    656c:	00000000 	nop
    6570:	00000021 	move	zero,zero
    6574:	00000021 	move	zero,zero
    6578:	00000021 	move	zero,zero
    657c:	00000021 	move	zero,zero
    6580:	00000021 	move	zero,zero
    6584:	00000021 	move	zero,zero
    6588:	00000021 	move	zero,zero
    658c:	00000021 	move	zero,zero
    6590:	00000021 	move	zero,zero
    6594:	00000021 	move	zero,zero
    6598:	00000021 	move	zero,zero
    659c:	00000021 	move	zero,zero
    65a0:	00000021 	move	zero,zero
    65a4:	3c12c098 	lui	s2,0xc098
    65a8:	3652cecc 	ori	s2,s2,0xcecc
    65ac:	00000000 	nop
    65b0:	3c14bca8 	lui	s4,0xbca8
    65b4:	369432fa 	ori	s4,s4,0x32fa
    65b8:	16140ffb 	bne	s0,s4,a5a8 <inst_error>
    65bc:	00000000 	nop
    65c0:	00000000 	nop
    65c4:	3c15c098 	lui	s5,0xc098
    65c8:	36b5cecc 	ori	s5,s5,0xcecc
    65cc:	16550ff6 	bne	s2,s5,a5a8 <inst_error>
    65d0:	00000000 	nop
    65d4:	00000000 	nop
    65d8:	3c0ccc4d 	lui	t4,0xcc4d
    65dc:	358cc3c0 	ori	t4,t4,0xc3c0
    65e0:	3c0da974 	lui	t5,0xa974
    65e4:	35ad5af0 	ori	t5,t5,0x5af0
    65e8:	24100000 	li	s0,0
    65ec:	24120000 	li	s2,0
    65f0:	3c080000 	lui	t0,0x0
    65f4:	2508660c 	addiu	t0,t0,26124
    65f8:	3c090000 	lui	t1,0x0
    65fc:	25296678 	addiu	t1,t1,26232
    6600:	1000000b 	b	6630 <n39_jr_test+0x6630>
    6604:	00000000 	nop
    6608:	00000000 	nop
    660c:	3c10cc4d 	lui	s0,0xcc4d
    6610:	01200008 	jr	t1
    6614:	3610c3c0 	ori	s0,s0,0xc3c0
    6618:	10000019 	b	6680 <n39_jr_test+0x6680>
    661c:	00000000 	nop
    6620:	00000000 	nop
    6624:	00000021 	move	zero,zero
    6628:	00000021 	move	zero,zero
    662c:	00000021 	move	zero,zero
    6630:	01000008 	jr	t0
    6634:	00000000 	nop
    6638:	10000011 	b	6680 <n39_jr_test+0x6680>
    663c:	00000000 	nop
    6640:	00000000 	nop
    6644:	00000021 	move	zero,zero
    6648:	00000021 	move	zero,zero
    664c:	00000021 	move	zero,zero
    6650:	00000021 	move	zero,zero
    6654:	00000021 	move	zero,zero
    6658:	00000021 	move	zero,zero
    665c:	00000021 	move	zero,zero
    6660:	00000021 	move	zero,zero
    6664:	00000021 	move	zero,zero
    6668:	00000021 	move	zero,zero
    666c:	00000021 	move	zero,zero
    6670:	00000021 	move	zero,zero
    6674:	00000021 	move	zero,zero
    6678:	3c12a974 	lui	s2,0xa974
    667c:	36525af0 	ori	s2,s2,0x5af0
    6680:	00000000 	nop
    6684:	3c14cc4d 	lui	s4,0xcc4d
    6688:	3694c3c0 	ori	s4,s4,0xc3c0
    668c:	16140fc6 	bne	s0,s4,a5a8 <inst_error>
    6690:	00000000 	nop
    6694:	00000000 	nop
    6698:	3c15a974 	lui	s5,0xa974
    669c:	36b55af0 	ori	s5,s5,0x5af0
    66a0:	16550fc1 	bne	s2,s5,a5a8 <inst_error>
    66a4:	00000000 	nop
    66a8:	00000000 	nop
    66ac:	3c0c2369 	lui	t4,0x2369
    66b0:	358c77c8 	ori	t4,t4,0x77c8
    66b4:	3c0dc805 	lui	t5,0xc805
    66b8:	35ad7a46 	ori	t5,t5,0x7a46
    66bc:	24100000 	li	s0,0
    66c0:	24120000 	li	s2,0
    66c4:	3c080000 	lui	t0,0x0
    66c8:	250866e0 	addiu	t0,t0,26336
    66cc:	3c090000 	lui	t1,0x0
    66d0:	2529674c 	addiu	t1,t1,26444
    66d4:	1000000b 	b	6704 <n39_jr_test+0x6704>
    66d8:	00000000 	nop
    66dc:	00000000 	nop
    66e0:	3c102369 	lui	s0,0x2369
    66e4:	01200008 	jr	t1
    66e8:	361077c8 	ori	s0,s0,0x77c8
    66ec:	10000019 	b	6754 <n39_jr_test+0x6754>
    66f0:	00000000 	nop
    66f4:	00000000 	nop
    66f8:	00000021 	move	zero,zero
    66fc:	00000021 	move	zero,zero
    6700:	00000021 	move	zero,zero
    6704:	01000008 	jr	t0
    6708:	00000000 	nop
    670c:	10000011 	b	6754 <n39_jr_test+0x6754>
    6710:	00000000 	nop
    6714:	00000000 	nop
    6718:	00000021 	move	zero,zero
    671c:	00000021 	move	zero,zero
    6720:	00000021 	move	zero,zero
    6724:	00000021 	move	zero,zero
    6728:	00000021 	move	zero,zero
    672c:	00000021 	move	zero,zero
    6730:	00000021 	move	zero,zero
    6734:	00000021 	move	zero,zero
    6738:	00000021 	move	zero,zero
    673c:	00000021 	move	zero,zero
    6740:	00000021 	move	zero,zero
    6744:	00000021 	move	zero,zero
    6748:	00000021 	move	zero,zero
    674c:	3c12c805 	lui	s2,0xc805
    6750:	36527a46 	ori	s2,s2,0x7a46
    6754:	00000000 	nop
    6758:	3c142369 	lui	s4,0x2369
    675c:	369477c8 	ori	s4,s4,0x77c8
    6760:	16140f91 	bne	s0,s4,a5a8 <inst_error>
    6764:	00000000 	nop
    6768:	00000000 	nop
    676c:	3c15c805 	lui	s5,0xc805
    6770:	36b57a46 	ori	s5,s5,0x7a46
    6774:	16550f8c 	bne	s2,s5,a5a8 <inst_error>
    6778:	00000000 	nop
    677c:	00000000 	nop
    6780:	3c0c8b7b 	lui	t4,0x8b7b
    6784:	358c85f2 	ori	t4,t4,0x85f2
    6788:	3c0dc72b 	lui	t5,0xc72b
    678c:	35ad74a0 	ori	t5,t5,0x74a0
    6790:	24100000 	li	s0,0
    6794:	24120000 	li	s2,0
    6798:	3c080000 	lui	t0,0x0
    679c:	250867b4 	addiu	t0,t0,26548
    67a0:	3c090000 	lui	t1,0x0
    67a4:	25296820 	addiu	t1,t1,26656
    67a8:	1000000b 	b	67d8 <n39_jr_test+0x67d8>
    67ac:	00000000 	nop
    67b0:	00000000 	nop
    67b4:	3c108b7b 	lui	s0,0x8b7b
    67b8:	01200008 	jr	t1
    67bc:	361085f2 	ori	s0,s0,0x85f2
    67c0:	10000019 	b	6828 <n39_jr_test+0x6828>
    67c4:	00000000 	nop
    67c8:	00000000 	nop
    67cc:	00000021 	move	zero,zero
    67d0:	00000021 	move	zero,zero
    67d4:	00000021 	move	zero,zero
    67d8:	01000008 	jr	t0
    67dc:	00000000 	nop
    67e0:	10000011 	b	6828 <n39_jr_test+0x6828>
    67e4:	00000000 	nop
    67e8:	00000000 	nop
    67ec:	00000021 	move	zero,zero
    67f0:	00000021 	move	zero,zero
    67f4:	00000021 	move	zero,zero
    67f8:	00000021 	move	zero,zero
    67fc:	00000021 	move	zero,zero
    6800:	00000021 	move	zero,zero
    6804:	00000021 	move	zero,zero
    6808:	00000021 	move	zero,zero
    680c:	00000021 	move	zero,zero
    6810:	00000021 	move	zero,zero
    6814:	00000021 	move	zero,zero
    6818:	00000021 	move	zero,zero
    681c:	00000021 	move	zero,zero
    6820:	3c12c72b 	lui	s2,0xc72b
    6824:	365274a0 	ori	s2,s2,0x74a0
    6828:	00000000 	nop
    682c:	3c148b7b 	lui	s4,0x8b7b
    6830:	369485f2 	ori	s4,s4,0x85f2
    6834:	16140f5c 	bne	s0,s4,a5a8 <inst_error>
    6838:	00000000 	nop
    683c:	00000000 	nop
    6840:	3c15c72b 	lui	s5,0xc72b
    6844:	36b574a0 	ori	s5,s5,0x74a0
    6848:	16550f57 	bne	s2,s5,a5a8 <inst_error>
    684c:	00000000 	nop
    6850:	00000000 	nop
    6854:	3c0ce8a9 	lui	t4,0xe8a9
    6858:	358c0d98 	ori	t4,t4,0xd98
    685c:	3c0ddaaf 	lui	t5,0xdaaf
    6860:	35adb741 	ori	t5,t5,0xb741
    6864:	24100000 	li	s0,0
    6868:	24120000 	li	s2,0
    686c:	3c080000 	lui	t0,0x0
    6870:	25086888 	addiu	t0,t0,26760
    6874:	3c090000 	lui	t1,0x0
    6878:	252968f4 	addiu	t1,t1,26868
    687c:	1000000b 	b	68ac <n39_jr_test+0x68ac>
    6880:	00000000 	nop
    6884:	00000000 	nop
    6888:	3c10e8a9 	lui	s0,0xe8a9
    688c:	01200008 	jr	t1
    6890:	36100d98 	ori	s0,s0,0xd98
    6894:	10000019 	b	68fc <n39_jr_test+0x68fc>
    6898:	00000000 	nop
    689c:	00000000 	nop
    68a0:	00000021 	move	zero,zero
    68a4:	00000021 	move	zero,zero
    68a8:	00000021 	move	zero,zero
    68ac:	01000008 	jr	t0
    68b0:	00000000 	nop
    68b4:	10000011 	b	68fc <n39_jr_test+0x68fc>
    68b8:	00000000 	nop
    68bc:	00000000 	nop
    68c0:	00000021 	move	zero,zero
    68c4:	00000021 	move	zero,zero
    68c8:	00000021 	move	zero,zero
    68cc:	00000021 	move	zero,zero
    68d0:	00000021 	move	zero,zero
    68d4:	00000021 	move	zero,zero
    68d8:	00000021 	move	zero,zero
    68dc:	00000021 	move	zero,zero
    68e0:	00000021 	move	zero,zero
    68e4:	00000021 	move	zero,zero
    68e8:	00000021 	move	zero,zero
    68ec:	00000021 	move	zero,zero
    68f0:	00000021 	move	zero,zero
    68f4:	3c12daaf 	lui	s2,0xdaaf
    68f8:	3652b741 	ori	s2,s2,0xb741
    68fc:	00000000 	nop
    6900:	3c14e8a9 	lui	s4,0xe8a9
    6904:	36940d98 	ori	s4,s4,0xd98
    6908:	16140f27 	bne	s0,s4,a5a8 <inst_error>
    690c:	00000000 	nop
    6910:	00000000 	nop
    6914:	3c15daaf 	lui	s5,0xdaaf
    6918:	36b5b741 	ori	s5,s5,0xb741
    691c:	16550f22 	bne	s2,s5,a5a8 <inst_error>
    6920:	00000000 	nop
    6924:	00000000 	nop
    6928:	3c0ca7e7 	lui	t4,0xa7e7
    692c:	358cb2b1 	ori	t4,t4,0xb2b1
    6930:	3c0d5c33 	lui	t5,0x5c33
    6934:	35ad40d2 	ori	t5,t5,0x40d2
    6938:	24100000 	li	s0,0
    693c:	24120000 	li	s2,0
    6940:	3c080000 	lui	t0,0x0
    6944:	2508695c 	addiu	t0,t0,26972
    6948:	3c090000 	lui	t1,0x0
    694c:	252969c8 	addiu	t1,t1,27080
    6950:	1000000b 	b	6980 <n39_jr_test+0x6980>
    6954:	00000000 	nop
    6958:	00000000 	nop
    695c:	3c10a7e7 	lui	s0,0xa7e7
    6960:	01200008 	jr	t1
    6964:	3610b2b1 	ori	s0,s0,0xb2b1
    6968:	10000019 	b	69d0 <n39_jr_test+0x69d0>
    696c:	00000000 	nop
    6970:	00000000 	nop
    6974:	00000021 	move	zero,zero
    6978:	00000021 	move	zero,zero
    697c:	00000021 	move	zero,zero
    6980:	01000008 	jr	t0
    6984:	00000000 	nop
    6988:	10000011 	b	69d0 <n39_jr_test+0x69d0>
    698c:	00000000 	nop
    6990:	00000000 	nop
    6994:	00000021 	move	zero,zero
    6998:	00000021 	move	zero,zero
    699c:	00000021 	move	zero,zero
    69a0:	00000021 	move	zero,zero
    69a4:	00000021 	move	zero,zero
    69a8:	00000021 	move	zero,zero
    69ac:	00000021 	move	zero,zero
    69b0:	00000021 	move	zero,zero
    69b4:	00000021 	move	zero,zero
    69b8:	00000021 	move	zero,zero
    69bc:	00000021 	move	zero,zero
    69c0:	00000021 	move	zero,zero
    69c4:	00000021 	move	zero,zero
    69c8:	3c125c33 	lui	s2,0x5c33
    69cc:	365240d2 	ori	s2,s2,0x40d2
    69d0:	00000000 	nop
    69d4:	3c14a7e7 	lui	s4,0xa7e7
    69d8:	3694b2b1 	ori	s4,s4,0xb2b1
    69dc:	16140ef2 	bne	s0,s4,a5a8 <inst_error>
    69e0:	00000000 	nop
    69e4:	00000000 	nop
    69e8:	3c155c33 	lui	s5,0x5c33
    69ec:	36b540d2 	ori	s5,s5,0x40d2
    69f0:	16550eed 	bne	s2,s5,a5a8 <inst_error>
    69f4:	00000000 	nop
    69f8:	00000000 	nop
    69fc:	3c0c2058 	lui	t4,0x2058
    6a00:	358c54d0 	ori	t4,t4,0x54d0
    6a04:	3c0d7e62 	lui	t5,0x7e62
    6a08:	35ad3f9b 	ori	t5,t5,0x3f9b
    6a0c:	24100000 	li	s0,0
    6a10:	24120000 	li	s2,0
    6a14:	3c080000 	lui	t0,0x0
    6a18:	25086a30 	addiu	t0,t0,27184
    6a1c:	3c090000 	lui	t1,0x0
    6a20:	25296a9c 	addiu	t1,t1,27292
    6a24:	1000000b 	b	6a54 <n39_jr_test+0x6a54>
    6a28:	00000000 	nop
    6a2c:	00000000 	nop
    6a30:	3c102058 	lui	s0,0x2058
    6a34:	01200008 	jr	t1
    6a38:	361054d0 	ori	s0,s0,0x54d0
    6a3c:	10000019 	b	6aa4 <n39_jr_test+0x6aa4>
    6a40:	00000000 	nop
    6a44:	00000000 	nop
    6a48:	00000021 	move	zero,zero
    6a4c:	00000021 	move	zero,zero
    6a50:	00000021 	move	zero,zero
    6a54:	01000008 	jr	t0
    6a58:	00000000 	nop
    6a5c:	10000011 	b	6aa4 <n39_jr_test+0x6aa4>
    6a60:	00000000 	nop
    6a64:	00000000 	nop
    6a68:	00000021 	move	zero,zero
    6a6c:	00000021 	move	zero,zero
    6a70:	00000021 	move	zero,zero
    6a74:	00000021 	move	zero,zero
    6a78:	00000021 	move	zero,zero
    6a7c:	00000021 	move	zero,zero
    6a80:	00000021 	move	zero,zero
    6a84:	00000021 	move	zero,zero
    6a88:	00000021 	move	zero,zero
    6a8c:	00000021 	move	zero,zero
    6a90:	00000021 	move	zero,zero
    6a94:	00000021 	move	zero,zero
    6a98:	00000021 	move	zero,zero
    6a9c:	3c127e62 	lui	s2,0x7e62
    6aa0:	36523f9b 	ori	s2,s2,0x3f9b
    6aa4:	00000000 	nop
    6aa8:	3c142058 	lui	s4,0x2058
    6aac:	369454d0 	ori	s4,s4,0x54d0
    6ab0:	16140ebd 	bne	s0,s4,a5a8 <inst_error>
    6ab4:	00000000 	nop
    6ab8:	00000000 	nop
    6abc:	3c157e62 	lui	s5,0x7e62
    6ac0:	36b53f9b 	ori	s5,s5,0x3f9b
    6ac4:	16550eb8 	bne	s2,s5,a5a8 <inst_error>
    6ac8:	00000000 	nop
    6acc:	00000000 	nop
    6ad0:	3c0cc8fd 	lui	t4,0xc8fd
    6ad4:	358c1218 	ori	t4,t4,0x1218
    6ad8:	3c0d29c8 	lui	t5,0x29c8
    6adc:	35ad2be4 	ori	t5,t5,0x2be4
    6ae0:	24100000 	li	s0,0
    6ae4:	24120000 	li	s2,0
    6ae8:	3c080000 	lui	t0,0x0
    6aec:	25086b04 	addiu	t0,t0,27396
    6af0:	3c090000 	lui	t1,0x0
    6af4:	25296b70 	addiu	t1,t1,27504
    6af8:	1000000b 	b	6b28 <n39_jr_test+0x6b28>
    6afc:	00000000 	nop
    6b00:	00000000 	nop
    6b04:	3c10c8fd 	lui	s0,0xc8fd
    6b08:	01200008 	jr	t1
    6b0c:	36101218 	ori	s0,s0,0x1218
    6b10:	10000019 	b	6b78 <n39_jr_test+0x6b78>
    6b14:	00000000 	nop
    6b18:	00000000 	nop
    6b1c:	00000021 	move	zero,zero
    6b20:	00000021 	move	zero,zero
    6b24:	00000021 	move	zero,zero
    6b28:	01000008 	jr	t0
    6b2c:	00000000 	nop
    6b30:	10000011 	b	6b78 <n39_jr_test+0x6b78>
    6b34:	00000000 	nop
    6b38:	00000000 	nop
    6b3c:	00000021 	move	zero,zero
    6b40:	00000021 	move	zero,zero
    6b44:	00000021 	move	zero,zero
    6b48:	00000021 	move	zero,zero
    6b4c:	00000021 	move	zero,zero
    6b50:	00000021 	move	zero,zero
    6b54:	00000021 	move	zero,zero
    6b58:	00000021 	move	zero,zero
    6b5c:	00000021 	move	zero,zero
    6b60:	00000021 	move	zero,zero
    6b64:	00000021 	move	zero,zero
    6b68:	00000021 	move	zero,zero
    6b6c:	00000021 	move	zero,zero
    6b70:	3c1229c8 	lui	s2,0x29c8
    6b74:	36522be4 	ori	s2,s2,0x2be4
    6b78:	00000000 	nop
    6b7c:	3c14c8fd 	lui	s4,0xc8fd
    6b80:	36941218 	ori	s4,s4,0x1218
    6b84:	16140e88 	bne	s0,s4,a5a8 <inst_error>
    6b88:	00000000 	nop
    6b8c:	00000000 	nop
    6b90:	3c1529c8 	lui	s5,0x29c8
    6b94:	36b52be4 	ori	s5,s5,0x2be4
    6b98:	16550e83 	bne	s2,s5,a5a8 <inst_error>
    6b9c:	00000000 	nop
    6ba0:	00000000 	nop
    6ba4:	3c0c248c 	lui	t4,0x248c
    6ba8:	358cbb10 	ori	t4,t4,0xbb10
    6bac:	3c0d04e6 	lui	t5,0x4e6
    6bb0:	35ad1518 	ori	t5,t5,0x1518
    6bb4:	24100000 	li	s0,0
    6bb8:	24120000 	li	s2,0
    6bbc:	3c080000 	lui	t0,0x0
    6bc0:	25086bd8 	addiu	t0,t0,27608
    6bc4:	3c090000 	lui	t1,0x0
    6bc8:	25296c44 	addiu	t1,t1,27716
    6bcc:	1000000b 	b	6bfc <n39_jr_test+0x6bfc>
    6bd0:	00000000 	nop
    6bd4:	00000000 	nop
    6bd8:	3c10248c 	lui	s0,0x248c
    6bdc:	01200008 	jr	t1
    6be0:	3610bb10 	ori	s0,s0,0xbb10
    6be4:	10000019 	b	6c4c <n39_jr_test+0x6c4c>
    6be8:	00000000 	nop
    6bec:	00000000 	nop
    6bf0:	00000021 	move	zero,zero
    6bf4:	00000021 	move	zero,zero
    6bf8:	00000021 	move	zero,zero
    6bfc:	01000008 	jr	t0
    6c00:	00000000 	nop
    6c04:	10000011 	b	6c4c <n39_jr_test+0x6c4c>
    6c08:	00000000 	nop
    6c0c:	00000000 	nop
    6c10:	00000021 	move	zero,zero
    6c14:	00000021 	move	zero,zero
    6c18:	00000021 	move	zero,zero
    6c1c:	00000021 	move	zero,zero
    6c20:	00000021 	move	zero,zero
    6c24:	00000021 	move	zero,zero
    6c28:	00000021 	move	zero,zero
    6c2c:	00000021 	move	zero,zero
    6c30:	00000021 	move	zero,zero
    6c34:	00000021 	move	zero,zero
    6c38:	00000021 	move	zero,zero
    6c3c:	00000021 	move	zero,zero
    6c40:	00000021 	move	zero,zero
    6c44:	3c1204e6 	lui	s2,0x4e6
    6c48:	36521518 	ori	s2,s2,0x1518
    6c4c:	00000000 	nop
    6c50:	3c14248c 	lui	s4,0x248c
    6c54:	3694bb10 	ori	s4,s4,0xbb10
    6c58:	16140e53 	bne	s0,s4,a5a8 <inst_error>
    6c5c:	00000000 	nop
    6c60:	00000000 	nop
    6c64:	3c1504e6 	lui	s5,0x4e6
    6c68:	36b51518 	ori	s5,s5,0x1518
    6c6c:	16550e4e 	bne	s2,s5,a5a8 <inst_error>
    6c70:	00000000 	nop
    6c74:	00000000 	nop
    6c78:	3c0c4e68 	lui	t4,0x4e68
    6c7c:	358c1e00 	ori	t4,t4,0x1e00
    6c80:	3c0d05eb 	lui	t5,0x5eb
    6c84:	35ad4288 	ori	t5,t5,0x4288
    6c88:	24100000 	li	s0,0
    6c8c:	24120000 	li	s2,0
    6c90:	3c080000 	lui	t0,0x0
    6c94:	25086cac 	addiu	t0,t0,27820
    6c98:	3c090000 	lui	t1,0x0
    6c9c:	25296d18 	addiu	t1,t1,27928
    6ca0:	1000000b 	b	6cd0 <n39_jr_test+0x6cd0>
    6ca4:	00000000 	nop
    6ca8:	00000000 	nop
    6cac:	3c104e68 	lui	s0,0x4e68
    6cb0:	01200008 	jr	t1
    6cb4:	36101e00 	ori	s0,s0,0x1e00
    6cb8:	10000019 	b	6d20 <n39_jr_test+0x6d20>
    6cbc:	00000000 	nop
    6cc0:	00000000 	nop
    6cc4:	00000021 	move	zero,zero
    6cc8:	00000021 	move	zero,zero
    6ccc:	00000021 	move	zero,zero
    6cd0:	01000008 	jr	t0
    6cd4:	00000000 	nop
    6cd8:	10000011 	b	6d20 <n39_jr_test+0x6d20>
    6cdc:	00000000 	nop
    6ce0:	00000000 	nop
    6ce4:	00000021 	move	zero,zero
    6ce8:	00000021 	move	zero,zero
    6cec:	00000021 	move	zero,zero
    6cf0:	00000021 	move	zero,zero
    6cf4:	00000021 	move	zero,zero
    6cf8:	00000021 	move	zero,zero
    6cfc:	00000021 	move	zero,zero
    6d00:	00000021 	move	zero,zero
    6d04:	00000021 	move	zero,zero
    6d08:	00000021 	move	zero,zero
    6d0c:	00000021 	move	zero,zero
    6d10:	00000021 	move	zero,zero
    6d14:	00000021 	move	zero,zero
    6d18:	3c1205eb 	lui	s2,0x5eb
    6d1c:	36524288 	ori	s2,s2,0x4288
    6d20:	00000000 	nop
    6d24:	3c144e68 	lui	s4,0x4e68
    6d28:	36941e00 	ori	s4,s4,0x1e00
    6d2c:	16140e1e 	bne	s0,s4,a5a8 <inst_error>
    6d30:	00000000 	nop
    6d34:	00000000 	nop
    6d38:	3c1505eb 	lui	s5,0x5eb
    6d3c:	36b54288 	ori	s5,s5,0x4288
    6d40:	16550e19 	bne	s2,s5,a5a8 <inst_error>
    6d44:	00000000 	nop
    6d48:	00000000 	nop
    6d4c:	3c0cf923 	lui	t4,0xf923
    6d50:	358c7e68 	ori	t4,t4,0x7e68
    6d54:	3c0db278 	lui	t5,0xb278
    6d58:	35ad3f58 	ori	t5,t5,0x3f58
    6d5c:	24100000 	li	s0,0
    6d60:	24120000 	li	s2,0
    6d64:	3c080000 	lui	t0,0x0
    6d68:	25086d80 	addiu	t0,t0,28032
    6d6c:	3c090000 	lui	t1,0x0
    6d70:	25296dec 	addiu	t1,t1,28140
    6d74:	1000000b 	b	6da4 <n39_jr_test+0x6da4>
    6d78:	00000000 	nop
    6d7c:	00000000 	nop
    6d80:	3c10f923 	lui	s0,0xf923
    6d84:	01200008 	jr	t1
    6d88:	36107e68 	ori	s0,s0,0x7e68
    6d8c:	10000019 	b	6df4 <n39_jr_test+0x6df4>
    6d90:	00000000 	nop
    6d94:	00000000 	nop
    6d98:	00000021 	move	zero,zero
    6d9c:	00000021 	move	zero,zero
    6da0:	00000021 	move	zero,zero
    6da4:	01000008 	jr	t0
    6da8:	00000000 	nop
    6dac:	10000011 	b	6df4 <n39_jr_test+0x6df4>
    6db0:	00000000 	nop
    6db4:	00000000 	nop
    6db8:	00000021 	move	zero,zero
    6dbc:	00000021 	move	zero,zero
    6dc0:	00000021 	move	zero,zero
    6dc4:	00000021 	move	zero,zero
    6dc8:	00000021 	move	zero,zero
    6dcc:	00000021 	move	zero,zero
    6dd0:	00000021 	move	zero,zero
    6dd4:	00000021 	move	zero,zero
    6dd8:	00000021 	move	zero,zero
    6ddc:	00000021 	move	zero,zero
    6de0:	00000021 	move	zero,zero
    6de4:	00000021 	move	zero,zero
    6de8:	00000021 	move	zero,zero
    6dec:	3c12b278 	lui	s2,0xb278
    6df0:	36523f58 	ori	s2,s2,0x3f58
    6df4:	00000000 	nop
    6df8:	3c14f923 	lui	s4,0xf923
    6dfc:	36947e68 	ori	s4,s4,0x7e68
    6e00:	16140de9 	bne	s0,s4,a5a8 <inst_error>
    6e04:	00000000 	nop
    6e08:	00000000 	nop
    6e0c:	3c15b278 	lui	s5,0xb278
    6e10:	36b53f58 	ori	s5,s5,0x3f58
    6e14:	16550de4 	bne	s2,s5,a5a8 <inst_error>
    6e18:	00000000 	nop
    6e1c:	00000000 	nop
    6e20:	3c0c2902 	lui	t4,0x2902
    6e24:	358cd948 	ori	t4,t4,0xd948
    6e28:	3c0d72a7 	lui	t5,0x72a7
    6e2c:	35ad1480 	ori	t5,t5,0x1480
    6e30:	24100000 	li	s0,0
    6e34:	24120000 	li	s2,0
    6e38:	3c080000 	lui	t0,0x0
    6e3c:	25086e54 	addiu	t0,t0,28244
    6e40:	3c090000 	lui	t1,0x0
    6e44:	25296ec0 	addiu	t1,t1,28352
    6e48:	1000000b 	b	6e78 <n39_jr_test+0x6e78>
    6e4c:	00000000 	nop
    6e50:	00000000 	nop
    6e54:	3c102902 	lui	s0,0x2902
    6e58:	01200008 	jr	t1
    6e5c:	3610d948 	ori	s0,s0,0xd948
    6e60:	10000019 	b	6ec8 <n39_jr_test+0x6ec8>
    6e64:	00000000 	nop
    6e68:	00000000 	nop
    6e6c:	00000021 	move	zero,zero
    6e70:	00000021 	move	zero,zero
    6e74:	00000021 	move	zero,zero
    6e78:	01000008 	jr	t0
    6e7c:	00000000 	nop
    6e80:	10000011 	b	6ec8 <n39_jr_test+0x6ec8>
    6e84:	00000000 	nop
    6e88:	00000000 	nop
    6e8c:	00000021 	move	zero,zero
    6e90:	00000021 	move	zero,zero
    6e94:	00000021 	move	zero,zero
    6e98:	00000021 	move	zero,zero
    6e9c:	00000021 	move	zero,zero
    6ea0:	00000021 	move	zero,zero
    6ea4:	00000021 	move	zero,zero
    6ea8:	00000021 	move	zero,zero
    6eac:	00000021 	move	zero,zero
    6eb0:	00000021 	move	zero,zero
    6eb4:	00000021 	move	zero,zero
    6eb8:	00000021 	move	zero,zero
    6ebc:	00000021 	move	zero,zero
    6ec0:	3c1272a7 	lui	s2,0x72a7
    6ec4:	36521480 	ori	s2,s2,0x1480
    6ec8:	00000000 	nop
    6ecc:	3c142902 	lui	s4,0x2902
    6ed0:	3694d948 	ori	s4,s4,0xd948
    6ed4:	16140db4 	bne	s0,s4,a5a8 <inst_error>
    6ed8:	00000000 	nop
    6edc:	00000000 	nop
    6ee0:	3c1572a7 	lui	s5,0x72a7
    6ee4:	36b51480 	ori	s5,s5,0x1480
    6ee8:	16550daf 	bne	s2,s5,a5a8 <inst_error>
    6eec:	00000000 	nop
    6ef0:	00000000 	nop
    6ef4:	3c0ce24e 	lui	t4,0xe24e
    6ef8:	358c54f0 	ori	t4,t4,0x54f0
    6efc:	3c0da6d1 	lui	t5,0xa6d1
    6f00:	35ad66cc 	ori	t5,t5,0x66cc
    6f04:	24100000 	li	s0,0
    6f08:	24120000 	li	s2,0
    6f0c:	3c080000 	lui	t0,0x0
    6f10:	25086f28 	addiu	t0,t0,28456
    6f14:	3c090000 	lui	t1,0x0
    6f18:	25296f94 	addiu	t1,t1,28564
    6f1c:	1000000b 	b	6f4c <n39_jr_test+0x6f4c>
    6f20:	00000000 	nop
    6f24:	00000000 	nop
    6f28:	3c10e24e 	lui	s0,0xe24e
    6f2c:	01200008 	jr	t1
    6f30:	361054f0 	ori	s0,s0,0x54f0
    6f34:	10000019 	b	6f9c <n39_jr_test+0x6f9c>
    6f38:	00000000 	nop
    6f3c:	00000000 	nop
    6f40:	00000021 	move	zero,zero
    6f44:	00000021 	move	zero,zero
    6f48:	00000021 	move	zero,zero
    6f4c:	01000008 	jr	t0
    6f50:	00000000 	nop
    6f54:	10000011 	b	6f9c <n39_jr_test+0x6f9c>
    6f58:	00000000 	nop
    6f5c:	00000000 	nop
    6f60:	00000021 	move	zero,zero
    6f64:	00000021 	move	zero,zero
    6f68:	00000021 	move	zero,zero
    6f6c:	00000021 	move	zero,zero
    6f70:	00000021 	move	zero,zero
    6f74:	00000021 	move	zero,zero
    6f78:	00000021 	move	zero,zero
    6f7c:	00000021 	move	zero,zero
    6f80:	00000021 	move	zero,zero
    6f84:	00000021 	move	zero,zero
    6f88:	00000021 	move	zero,zero
    6f8c:	00000021 	move	zero,zero
    6f90:	00000021 	move	zero,zero
    6f94:	3c12a6d1 	lui	s2,0xa6d1
    6f98:	365266cc 	ori	s2,s2,0x66cc
    6f9c:	00000000 	nop
    6fa0:	3c14e24e 	lui	s4,0xe24e
    6fa4:	369454f0 	ori	s4,s4,0x54f0
    6fa8:	16140d7f 	bne	s0,s4,a5a8 <inst_error>
    6fac:	00000000 	nop
    6fb0:	00000000 	nop
    6fb4:	3c15a6d1 	lui	s5,0xa6d1
    6fb8:	36b566cc 	ori	s5,s5,0x66cc
    6fbc:	16550d7a 	bne	s2,s5,a5a8 <inst_error>
    6fc0:	00000000 	nop
    6fc4:	00000000 	nop
    6fc8:	3c0c2627 	lui	t4,0x2627
    6fcc:	358cdbca 	ori	t4,t4,0xdbca
    6fd0:	3c0d556d 	lui	t5,0x556d
    6fd4:	35adff0c 	ori	t5,t5,0xff0c
    6fd8:	24100000 	li	s0,0
    6fdc:	24120000 	li	s2,0
    6fe0:	3c080000 	lui	t0,0x0
    6fe4:	25086ffc 	addiu	t0,t0,28668
    6fe8:	3c090000 	lui	t1,0x0
    6fec:	25297068 	addiu	t1,t1,28776
    6ff0:	1000000b 	b	7020 <n39_jr_test+0x7020>
    6ff4:	00000000 	nop
    6ff8:	00000000 	nop
    6ffc:	3c102627 	lui	s0,0x2627
    7000:	01200008 	jr	t1
    7004:	3610dbca 	ori	s0,s0,0xdbca
    7008:	10000019 	b	7070 <n39_jr_test+0x7070>
    700c:	00000000 	nop
    7010:	00000000 	nop
    7014:	00000021 	move	zero,zero
    7018:	00000021 	move	zero,zero
    701c:	00000021 	move	zero,zero
    7020:	01000008 	jr	t0
    7024:	00000000 	nop
    7028:	10000011 	b	7070 <n39_jr_test+0x7070>
    702c:	00000000 	nop
    7030:	00000000 	nop
    7034:	00000021 	move	zero,zero
    7038:	00000021 	move	zero,zero
    703c:	00000021 	move	zero,zero
    7040:	00000021 	move	zero,zero
    7044:	00000021 	move	zero,zero
    7048:	00000021 	move	zero,zero
    704c:	00000021 	move	zero,zero
    7050:	00000021 	move	zero,zero
    7054:	00000021 	move	zero,zero
    7058:	00000021 	move	zero,zero
    705c:	00000021 	move	zero,zero
    7060:	00000021 	move	zero,zero
    7064:	00000021 	move	zero,zero
    7068:	3c12556d 	lui	s2,0x556d
    706c:	3652ff0c 	ori	s2,s2,0xff0c
    7070:	00000000 	nop
    7074:	3c142627 	lui	s4,0x2627
    7078:	3694dbca 	ori	s4,s4,0xdbca
    707c:	16140d4a 	bne	s0,s4,a5a8 <inst_error>
    7080:	00000000 	nop
    7084:	00000000 	nop
    7088:	3c15556d 	lui	s5,0x556d
    708c:	36b5ff0c 	ori	s5,s5,0xff0c
    7090:	16550d45 	bne	s2,s5,a5a8 <inst_error>
    7094:	00000000 	nop
    7098:	00000000 	nop
    709c:	3c0c83ce 	lui	t4,0x83ce
    70a0:	358c7672 	ori	t4,t4,0x7672
    70a4:	3c0de3fc 	lui	t5,0xe3fc
    70a8:	35ad075d 	ori	t5,t5,0x75d
    70ac:	24100000 	li	s0,0
    70b0:	24120000 	li	s2,0
    70b4:	3c080000 	lui	t0,0x0
    70b8:	250870d0 	addiu	t0,t0,28880
    70bc:	3c090000 	lui	t1,0x0
    70c0:	2529713c 	addiu	t1,t1,28988
    70c4:	1000000b 	b	70f4 <n39_jr_test+0x70f4>
    70c8:	00000000 	nop
    70cc:	00000000 	nop
    70d0:	3c1083ce 	lui	s0,0x83ce
    70d4:	01200008 	jr	t1
    70d8:	36107672 	ori	s0,s0,0x7672
    70dc:	10000019 	b	7144 <n39_jr_test+0x7144>
    70e0:	00000000 	nop
    70e4:	00000000 	nop
    70e8:	00000021 	move	zero,zero
    70ec:	00000021 	move	zero,zero
    70f0:	00000021 	move	zero,zero
    70f4:	01000008 	jr	t0
    70f8:	00000000 	nop
    70fc:	10000011 	b	7144 <n39_jr_test+0x7144>
    7100:	00000000 	nop
    7104:	00000000 	nop
    7108:	00000021 	move	zero,zero
    710c:	00000021 	move	zero,zero
    7110:	00000021 	move	zero,zero
    7114:	00000021 	move	zero,zero
    7118:	00000021 	move	zero,zero
    711c:	00000021 	move	zero,zero
    7120:	00000021 	move	zero,zero
    7124:	00000021 	move	zero,zero
    7128:	00000021 	move	zero,zero
    712c:	00000021 	move	zero,zero
    7130:	00000021 	move	zero,zero
    7134:	00000021 	move	zero,zero
    7138:	00000021 	move	zero,zero
    713c:	3c12e3fc 	lui	s2,0xe3fc
    7140:	3652075d 	ori	s2,s2,0x75d
    7144:	00000000 	nop
    7148:	3c1483ce 	lui	s4,0x83ce
    714c:	36947672 	ori	s4,s4,0x7672
    7150:	16140d15 	bne	s0,s4,a5a8 <inst_error>
    7154:	00000000 	nop
    7158:	00000000 	nop
    715c:	3c15e3fc 	lui	s5,0xe3fc
    7160:	36b5075d 	ori	s5,s5,0x75d
    7164:	16550d10 	bne	s2,s5,a5a8 <inst_error>
    7168:	00000000 	nop
    716c:	00000000 	nop
    7170:	3c0c9b26 	lui	t4,0x9b26
    7174:	358c8b70 	ori	t4,t4,0x8b70
    7178:	3c0deaed 	lui	t5,0xeaed
    717c:	35ad5ca8 	ori	t5,t5,0x5ca8
    7180:	24100000 	li	s0,0
    7184:	24120000 	li	s2,0
    7188:	3c080000 	lui	t0,0x0
    718c:	250871a4 	addiu	t0,t0,29092
    7190:	3c090000 	lui	t1,0x0
    7194:	25297210 	addiu	t1,t1,29200
    7198:	1000000b 	b	71c8 <n39_jr_test+0x71c8>
    719c:	00000000 	nop
    71a0:	00000000 	nop
    71a4:	3c109b26 	lui	s0,0x9b26
    71a8:	01200008 	jr	t1
    71ac:	36108b70 	ori	s0,s0,0x8b70
    71b0:	10000019 	b	7218 <n39_jr_test+0x7218>
    71b4:	00000000 	nop
    71b8:	00000000 	nop
    71bc:	00000021 	move	zero,zero
    71c0:	00000021 	move	zero,zero
    71c4:	00000021 	move	zero,zero
    71c8:	01000008 	jr	t0
    71cc:	00000000 	nop
    71d0:	10000011 	b	7218 <n39_jr_test+0x7218>
    71d4:	00000000 	nop
    71d8:	00000000 	nop
    71dc:	00000021 	move	zero,zero
    71e0:	00000021 	move	zero,zero
    71e4:	00000021 	move	zero,zero
    71e8:	00000021 	move	zero,zero
    71ec:	00000021 	move	zero,zero
    71f0:	00000021 	move	zero,zero
    71f4:	00000021 	move	zero,zero
    71f8:	00000021 	move	zero,zero
    71fc:	00000021 	move	zero,zero
    7200:	00000021 	move	zero,zero
    7204:	00000021 	move	zero,zero
    7208:	00000021 	move	zero,zero
    720c:	00000021 	move	zero,zero
    7210:	3c12eaed 	lui	s2,0xeaed
    7214:	36525ca8 	ori	s2,s2,0x5ca8
    7218:	00000000 	nop
    721c:	3c149b26 	lui	s4,0x9b26
    7220:	36948b70 	ori	s4,s4,0x8b70
    7224:	16140ce0 	bne	s0,s4,a5a8 <inst_error>
    7228:	00000000 	nop
    722c:	00000000 	nop
    7230:	3c15eaed 	lui	s5,0xeaed
    7234:	36b55ca8 	ori	s5,s5,0x5ca8
    7238:	16550cdb 	bne	s2,s5,a5a8 <inst_error>
    723c:	00000000 	nop
    7240:	00000000 	nop
    7244:	3c0c3585 	lui	t4,0x3585
    7248:	358c14a0 	ori	t4,t4,0x14a0
    724c:	3c0df114 	lui	t5,0xf114
    7250:	35ad83e7 	ori	t5,t5,0x83e7
    7254:	24100000 	li	s0,0
    7258:	24120000 	li	s2,0
    725c:	3c080000 	lui	t0,0x0
    7260:	25087278 	addiu	t0,t0,29304
    7264:	3c090000 	lui	t1,0x0
    7268:	252972e4 	addiu	t1,t1,29412
    726c:	1000000b 	b	729c <n39_jr_test+0x729c>
    7270:	00000000 	nop
    7274:	00000000 	nop
    7278:	3c103585 	lui	s0,0x3585
    727c:	01200008 	jr	t1
    7280:	361014a0 	ori	s0,s0,0x14a0
    7284:	10000019 	b	72ec <n39_jr_test+0x72ec>
    7288:	00000000 	nop
    728c:	00000000 	nop
    7290:	00000021 	move	zero,zero
    7294:	00000021 	move	zero,zero
    7298:	00000021 	move	zero,zero
    729c:	01000008 	jr	t0
    72a0:	00000000 	nop
    72a4:	10000011 	b	72ec <n39_jr_test+0x72ec>
    72a8:	00000000 	nop
    72ac:	00000000 	nop
    72b0:	00000021 	move	zero,zero
    72b4:	00000021 	move	zero,zero
    72b8:	00000021 	move	zero,zero
    72bc:	00000021 	move	zero,zero
    72c0:	00000021 	move	zero,zero
    72c4:	00000021 	move	zero,zero
    72c8:	00000021 	move	zero,zero
    72cc:	00000021 	move	zero,zero
    72d0:	00000021 	move	zero,zero
    72d4:	00000021 	move	zero,zero
    72d8:	00000021 	move	zero,zero
    72dc:	00000021 	move	zero,zero
    72e0:	00000021 	move	zero,zero
    72e4:	3c12f114 	lui	s2,0xf114
    72e8:	365283e7 	ori	s2,s2,0x83e7
    72ec:	00000000 	nop
    72f0:	3c143585 	lui	s4,0x3585
    72f4:	369414a0 	ori	s4,s4,0x14a0
    72f8:	16140cab 	bne	s0,s4,a5a8 <inst_error>
    72fc:	00000000 	nop
    7300:	00000000 	nop
    7304:	3c15f114 	lui	s5,0xf114
    7308:	36b583e7 	ori	s5,s5,0x83e7
    730c:	16550ca6 	bne	s2,s5,a5a8 <inst_error>
    7310:	00000000 	nop
    7314:	00000000 	nop
    7318:	3c0cee61 	lui	t4,0xee61
    731c:	358c423b 	ori	t4,t4,0x423b
    7320:	3c0d282e 	lui	t5,0x282e
    7324:	35ad3580 	ori	t5,t5,0x3580
    7328:	24100000 	li	s0,0
    732c:	24120000 	li	s2,0
    7330:	3c080000 	lui	t0,0x0
    7334:	2508734c 	addiu	t0,t0,29516
    7338:	3c090000 	lui	t1,0x0
    733c:	252973b8 	addiu	t1,t1,29624
    7340:	1000000b 	b	7370 <n39_jr_test+0x7370>
    7344:	00000000 	nop
    7348:	00000000 	nop
    734c:	3c10ee61 	lui	s0,0xee61
    7350:	01200008 	jr	t1
    7354:	3610423b 	ori	s0,s0,0x423b
    7358:	10000019 	b	73c0 <n39_jr_test+0x73c0>
    735c:	00000000 	nop
    7360:	00000000 	nop
    7364:	00000021 	move	zero,zero
    7368:	00000021 	move	zero,zero
    736c:	00000021 	move	zero,zero
    7370:	01000008 	jr	t0
    7374:	00000000 	nop
    7378:	10000011 	b	73c0 <n39_jr_test+0x73c0>
    737c:	00000000 	nop
    7380:	00000000 	nop
    7384:	00000021 	move	zero,zero
    7388:	00000021 	move	zero,zero
    738c:	00000021 	move	zero,zero
    7390:	00000021 	move	zero,zero
    7394:	00000021 	move	zero,zero
    7398:	00000021 	move	zero,zero
    739c:	00000021 	move	zero,zero
    73a0:	00000021 	move	zero,zero
    73a4:	00000021 	move	zero,zero
    73a8:	00000021 	move	zero,zero
    73ac:	00000021 	move	zero,zero
    73b0:	00000021 	move	zero,zero
    73b4:	00000021 	move	zero,zero
    73b8:	3c12282e 	lui	s2,0x282e
    73bc:	36523580 	ori	s2,s2,0x3580
    73c0:	00000000 	nop
    73c4:	3c14ee61 	lui	s4,0xee61
    73c8:	3694423b 	ori	s4,s4,0x423b
    73cc:	16140c76 	bne	s0,s4,a5a8 <inst_error>
    73d0:	00000000 	nop
    73d4:	00000000 	nop
    73d8:	3c15282e 	lui	s5,0x282e
    73dc:	36b53580 	ori	s5,s5,0x3580
    73e0:	16550c71 	bne	s2,s5,a5a8 <inst_error>
    73e4:	00000000 	nop
    73e8:	00000000 	nop
    73ec:	3c0cdccf 	lui	t4,0xdccf
    73f0:	358cd296 	ori	t4,t4,0xd296
    73f4:	3c0dd26d 	lui	t5,0xd26d
    73f8:	35ad5480 	ori	t5,t5,0x5480
    73fc:	24100000 	li	s0,0
    7400:	24120000 	li	s2,0
    7404:	3c080000 	lui	t0,0x0
    7408:	25087420 	addiu	t0,t0,29728
    740c:	3c090000 	lui	t1,0x0
    7410:	2529748c 	addiu	t1,t1,29836
    7414:	1000000b 	b	7444 <n39_jr_test+0x7444>
    7418:	00000000 	nop
    741c:	00000000 	nop
    7420:	3c10dccf 	lui	s0,0xdccf
    7424:	01200008 	jr	t1
    7428:	3610d296 	ori	s0,s0,0xd296
    742c:	10000019 	b	7494 <n39_jr_test+0x7494>
    7430:	00000000 	nop
    7434:	00000000 	nop
    7438:	00000021 	move	zero,zero
    743c:	00000021 	move	zero,zero
    7440:	00000021 	move	zero,zero
    7444:	01000008 	jr	t0
    7448:	00000000 	nop
    744c:	10000011 	b	7494 <n39_jr_test+0x7494>
    7450:	00000000 	nop
    7454:	00000000 	nop
    7458:	00000021 	move	zero,zero
    745c:	00000021 	move	zero,zero
    7460:	00000021 	move	zero,zero
    7464:	00000021 	move	zero,zero
    7468:	00000021 	move	zero,zero
    746c:	00000021 	move	zero,zero
    7470:	00000021 	move	zero,zero
    7474:	00000021 	move	zero,zero
    7478:	00000021 	move	zero,zero
    747c:	00000021 	move	zero,zero
    7480:	00000021 	move	zero,zero
    7484:	00000021 	move	zero,zero
    7488:	00000021 	move	zero,zero
    748c:	3c12d26d 	lui	s2,0xd26d
    7490:	36525480 	ori	s2,s2,0x5480
    7494:	00000000 	nop
    7498:	3c14dccf 	lui	s4,0xdccf
    749c:	3694d296 	ori	s4,s4,0xd296
    74a0:	16140c41 	bne	s0,s4,a5a8 <inst_error>
    74a4:	00000000 	nop
    74a8:	00000000 	nop
    74ac:	3c15d26d 	lui	s5,0xd26d
    74b0:	36b55480 	ori	s5,s5,0x5480
    74b4:	16550c3c 	bne	s2,s5,a5a8 <inst_error>
    74b8:	00000000 	nop
    74bc:	00000000 	nop
    74c0:	3c0c29be 	lui	t4,0x29be
    74c4:	358c8f01 	ori	t4,t4,0x8f01
    74c8:	3c0d4955 	lui	t5,0x4955
    74cc:	35add3eb 	ori	t5,t5,0xd3eb
    74d0:	24100000 	li	s0,0
    74d4:	24120000 	li	s2,0
    74d8:	3c080000 	lui	t0,0x0
    74dc:	250874f4 	addiu	t0,t0,29940
    74e0:	3c090000 	lui	t1,0x0
    74e4:	25297560 	addiu	t1,t1,30048
    74e8:	1000000b 	b	7518 <n39_jr_test+0x7518>
    74ec:	00000000 	nop
    74f0:	00000000 	nop
    74f4:	3c1029be 	lui	s0,0x29be
    74f8:	01200008 	jr	t1
    74fc:	36108f01 	ori	s0,s0,0x8f01
    7500:	10000019 	b	7568 <n39_jr_test+0x7568>
    7504:	00000000 	nop
    7508:	00000000 	nop
    750c:	00000021 	move	zero,zero
    7510:	00000021 	move	zero,zero
    7514:	00000021 	move	zero,zero
    7518:	01000008 	jr	t0
    751c:	00000000 	nop
    7520:	10000011 	b	7568 <n39_jr_test+0x7568>
    7524:	00000000 	nop
    7528:	00000000 	nop
    752c:	00000021 	move	zero,zero
    7530:	00000021 	move	zero,zero
    7534:	00000021 	move	zero,zero
    7538:	00000021 	move	zero,zero
    753c:	00000021 	move	zero,zero
    7540:	00000021 	move	zero,zero
    7544:	00000021 	move	zero,zero
    7548:	00000021 	move	zero,zero
    754c:	00000021 	move	zero,zero
    7550:	00000021 	move	zero,zero
    7554:	00000021 	move	zero,zero
    7558:	00000021 	move	zero,zero
    755c:	00000021 	move	zero,zero
    7560:	3c124955 	lui	s2,0x4955
    7564:	3652d3eb 	ori	s2,s2,0xd3eb
    7568:	00000000 	nop
    756c:	3c1429be 	lui	s4,0x29be
    7570:	36948f01 	ori	s4,s4,0x8f01
    7574:	16140c0c 	bne	s0,s4,a5a8 <inst_error>
    7578:	00000000 	nop
    757c:	00000000 	nop
    7580:	3c154955 	lui	s5,0x4955
    7584:	36b5d3eb 	ori	s5,s5,0xd3eb
    7588:	16550c07 	bne	s2,s5,a5a8 <inst_error>
    758c:	00000000 	nop
    7590:	00000000 	nop
    7594:	3c0cb069 	lui	t4,0xb069
    7598:	358c36c0 	ori	t4,t4,0x36c0
    759c:	3c0d9166 	lui	t5,0x9166
    75a0:	35adccc0 	ori	t5,t5,0xccc0
    75a4:	24100000 	li	s0,0
    75a8:	24120000 	li	s2,0
    75ac:	3c080000 	lui	t0,0x0
    75b0:	250875c8 	addiu	t0,t0,30152
    75b4:	3c090000 	lui	t1,0x0
    75b8:	25297634 	addiu	t1,t1,30260
    75bc:	1000000b 	b	75ec <n39_jr_test+0x75ec>
    75c0:	00000000 	nop
    75c4:	00000000 	nop
    75c8:	3c10b069 	lui	s0,0xb069
    75cc:	01200008 	jr	t1
    75d0:	361036c0 	ori	s0,s0,0x36c0
    75d4:	10000019 	b	763c <n39_jr_test+0x763c>
    75d8:	00000000 	nop
    75dc:	00000000 	nop
    75e0:	00000021 	move	zero,zero
    75e4:	00000021 	move	zero,zero
    75e8:	00000021 	move	zero,zero
    75ec:	01000008 	jr	t0
    75f0:	00000000 	nop
    75f4:	10000011 	b	763c <n39_jr_test+0x763c>
    75f8:	00000000 	nop
    75fc:	00000000 	nop
    7600:	00000021 	move	zero,zero
    7604:	00000021 	move	zero,zero
    7608:	00000021 	move	zero,zero
    760c:	00000021 	move	zero,zero
    7610:	00000021 	move	zero,zero
    7614:	00000021 	move	zero,zero
    7618:	00000021 	move	zero,zero
    761c:	00000021 	move	zero,zero
    7620:	00000021 	move	zero,zero
    7624:	00000021 	move	zero,zero
    7628:	00000021 	move	zero,zero
    762c:	00000021 	move	zero,zero
    7630:	00000021 	move	zero,zero
    7634:	3c129166 	lui	s2,0x9166
    7638:	3652ccc0 	ori	s2,s2,0xccc0
    763c:	00000000 	nop
    7640:	3c14b069 	lui	s4,0xb069
    7644:	369436c0 	ori	s4,s4,0x36c0
    7648:	16140bd7 	bne	s0,s4,a5a8 <inst_error>
    764c:	00000000 	nop
    7650:	00000000 	nop
    7654:	3c159166 	lui	s5,0x9166
    7658:	36b5ccc0 	ori	s5,s5,0xccc0
    765c:	16550bd2 	bne	s2,s5,a5a8 <inst_error>
    7660:	00000000 	nop
    7664:	00000000 	nop
    7668:	3c0ce9b5 	lui	t4,0xe9b5
    766c:	358ccca8 	ori	t4,t4,0xcca8
    7670:	3c0dbbf0 	lui	t5,0xbbf0
    7674:	35ad9201 	ori	t5,t5,0x9201
    7678:	24100000 	li	s0,0
    767c:	24120000 	li	s2,0
    7680:	3c080000 	lui	t0,0x0
    7684:	2508769c 	addiu	t0,t0,30364
    7688:	3c090000 	lui	t1,0x0
    768c:	25297708 	addiu	t1,t1,30472
    7690:	1000000b 	b	76c0 <n39_jr_test+0x76c0>
    7694:	00000000 	nop
    7698:	00000000 	nop
    769c:	3c10e9b5 	lui	s0,0xe9b5
    76a0:	01200008 	jr	t1
    76a4:	3610cca8 	ori	s0,s0,0xcca8
    76a8:	10000019 	b	7710 <n39_jr_test+0x7710>
    76ac:	00000000 	nop
    76b0:	00000000 	nop
    76b4:	00000021 	move	zero,zero
    76b8:	00000021 	move	zero,zero
    76bc:	00000021 	move	zero,zero
    76c0:	01000008 	jr	t0
    76c4:	00000000 	nop
    76c8:	10000011 	b	7710 <n39_jr_test+0x7710>
    76cc:	00000000 	nop
    76d0:	00000000 	nop
    76d4:	00000021 	move	zero,zero
    76d8:	00000021 	move	zero,zero
    76dc:	00000021 	move	zero,zero
    76e0:	00000021 	move	zero,zero
    76e4:	00000021 	move	zero,zero
    76e8:	00000021 	move	zero,zero
    76ec:	00000021 	move	zero,zero
    76f0:	00000021 	move	zero,zero
    76f4:	00000021 	move	zero,zero
    76f8:	00000021 	move	zero,zero
    76fc:	00000021 	move	zero,zero
    7700:	00000021 	move	zero,zero
    7704:	00000021 	move	zero,zero
    7708:	3c12bbf0 	lui	s2,0xbbf0
    770c:	36529201 	ori	s2,s2,0x9201
    7710:	00000000 	nop
    7714:	3c14e9b5 	lui	s4,0xe9b5
    7718:	3694cca8 	ori	s4,s4,0xcca8
    771c:	16140ba2 	bne	s0,s4,a5a8 <inst_error>
    7720:	00000000 	nop
    7724:	00000000 	nop
    7728:	3c15bbf0 	lui	s5,0xbbf0
    772c:	36b59201 	ori	s5,s5,0x9201
    7730:	16550b9d 	bne	s2,s5,a5a8 <inst_error>
    7734:	00000000 	nop
    7738:	00000000 	nop
    773c:	3c0c544f 	lui	t4,0x544f
    7740:	358c5380 	ori	t4,t4,0x5380
    7744:	3c0d97e8 	lui	t5,0x97e8
    7748:	35ad441a 	ori	t5,t5,0x441a
    774c:	24100000 	li	s0,0
    7750:	24120000 	li	s2,0
    7754:	3c080000 	lui	t0,0x0
    7758:	25087770 	addiu	t0,t0,30576
    775c:	3c090000 	lui	t1,0x0
    7760:	252977dc 	addiu	t1,t1,30684
    7764:	1000000b 	b	7794 <n39_jr_test+0x7794>
    7768:	00000000 	nop
    776c:	00000000 	nop
    7770:	3c10544f 	lui	s0,0x544f
    7774:	01200008 	jr	t1
    7778:	36105380 	ori	s0,s0,0x5380
    777c:	10000019 	b	77e4 <n39_jr_test+0x77e4>
    7780:	00000000 	nop
    7784:	00000000 	nop
    7788:	00000021 	move	zero,zero
    778c:	00000021 	move	zero,zero
    7790:	00000021 	move	zero,zero
    7794:	01000008 	jr	t0
    7798:	00000000 	nop
    779c:	10000011 	b	77e4 <n39_jr_test+0x77e4>
    77a0:	00000000 	nop
    77a4:	00000000 	nop
    77a8:	00000021 	move	zero,zero
    77ac:	00000021 	move	zero,zero
    77b0:	00000021 	move	zero,zero
    77b4:	00000021 	move	zero,zero
    77b8:	00000021 	move	zero,zero
    77bc:	00000021 	move	zero,zero
    77c0:	00000021 	move	zero,zero
    77c4:	00000021 	move	zero,zero
    77c8:	00000021 	move	zero,zero
    77cc:	00000021 	move	zero,zero
    77d0:	00000021 	move	zero,zero
    77d4:	00000021 	move	zero,zero
    77d8:	00000021 	move	zero,zero
    77dc:	3c1297e8 	lui	s2,0x97e8
    77e0:	3652441a 	ori	s2,s2,0x441a
    77e4:	00000000 	nop
    77e8:	3c14544f 	lui	s4,0x544f
    77ec:	36945380 	ori	s4,s4,0x5380
    77f0:	16140b6d 	bne	s0,s4,a5a8 <inst_error>
    77f4:	00000000 	nop
    77f8:	00000000 	nop
    77fc:	3c1597e8 	lui	s5,0x97e8
    7800:	36b5441a 	ori	s5,s5,0x441a
    7804:	16550b68 	bne	s2,s5,a5a8 <inst_error>
    7808:	00000000 	nop
    780c:	00000000 	nop
    7810:	3c0c8cff 	lui	t4,0x8cff
    7814:	358c33f7 	ori	t4,t4,0x33f7
    7818:	3c0d85e9 	lui	t5,0x85e9
    781c:	35ad4ea8 	ori	t5,t5,0x4ea8
    7820:	24100000 	li	s0,0
    7824:	24120000 	li	s2,0
    7828:	3c080000 	lui	t0,0x0
    782c:	25087844 	addiu	t0,t0,30788
    7830:	3c090000 	lui	t1,0x0
    7834:	252978b0 	addiu	t1,t1,30896
    7838:	1000000b 	b	7868 <n39_jr_test+0x7868>
    783c:	00000000 	nop
    7840:	00000000 	nop
    7844:	3c108cff 	lui	s0,0x8cff
    7848:	01200008 	jr	t1
    784c:	361033f7 	ori	s0,s0,0x33f7
    7850:	10000019 	b	78b8 <n39_jr_test+0x78b8>
    7854:	00000000 	nop
    7858:	00000000 	nop
    785c:	00000021 	move	zero,zero
    7860:	00000021 	move	zero,zero
    7864:	00000021 	move	zero,zero
    7868:	01000008 	jr	t0
    786c:	00000000 	nop
    7870:	10000011 	b	78b8 <n39_jr_test+0x78b8>
    7874:	00000000 	nop
    7878:	00000000 	nop
    787c:	00000021 	move	zero,zero
    7880:	00000021 	move	zero,zero
    7884:	00000021 	move	zero,zero
    7888:	00000021 	move	zero,zero
    788c:	00000021 	move	zero,zero
    7890:	00000021 	move	zero,zero
    7894:	00000021 	move	zero,zero
    7898:	00000021 	move	zero,zero
    789c:	00000021 	move	zero,zero
    78a0:	00000021 	move	zero,zero
    78a4:	00000021 	move	zero,zero
    78a8:	00000021 	move	zero,zero
    78ac:	00000021 	move	zero,zero
    78b0:	3c1285e9 	lui	s2,0x85e9
    78b4:	36524ea8 	ori	s2,s2,0x4ea8
    78b8:	00000000 	nop
    78bc:	3c148cff 	lui	s4,0x8cff
    78c0:	369433f7 	ori	s4,s4,0x33f7
    78c4:	16140b38 	bne	s0,s4,a5a8 <inst_error>
    78c8:	00000000 	nop
    78cc:	00000000 	nop
    78d0:	3c1585e9 	lui	s5,0x85e9
    78d4:	36b54ea8 	ori	s5,s5,0x4ea8
    78d8:	16550b33 	bne	s2,s5,a5a8 <inst_error>
    78dc:	00000000 	nop
    78e0:	00000000 	nop
    78e4:	3c0c2f42 	lui	t4,0x2f42
    78e8:	358cc720 	ori	t4,t4,0xc720
    78ec:	3c0daff0 	lui	t5,0xaff0
    78f0:	35ad50dc 	ori	t5,t5,0x50dc
    78f4:	24100000 	li	s0,0
    78f8:	24120000 	li	s2,0
    78fc:	3c080000 	lui	t0,0x0
    7900:	25087918 	addiu	t0,t0,31000
    7904:	3c090000 	lui	t1,0x0
    7908:	25297984 	addiu	t1,t1,31108
    790c:	1000000b 	b	793c <n39_jr_test+0x793c>
    7910:	00000000 	nop
    7914:	00000000 	nop
    7918:	3c102f42 	lui	s0,0x2f42
    791c:	01200008 	jr	t1
    7920:	3610c720 	ori	s0,s0,0xc720
    7924:	10000019 	b	798c <n39_jr_test+0x798c>
    7928:	00000000 	nop
    792c:	00000000 	nop
    7930:	00000021 	move	zero,zero
    7934:	00000021 	move	zero,zero
    7938:	00000021 	move	zero,zero
    793c:	01000008 	jr	t0
    7940:	00000000 	nop
    7944:	10000011 	b	798c <n39_jr_test+0x798c>
    7948:	00000000 	nop
    794c:	00000000 	nop
    7950:	00000021 	move	zero,zero
    7954:	00000021 	move	zero,zero
    7958:	00000021 	move	zero,zero
    795c:	00000021 	move	zero,zero
    7960:	00000021 	move	zero,zero
    7964:	00000021 	move	zero,zero
    7968:	00000021 	move	zero,zero
    796c:	00000021 	move	zero,zero
    7970:	00000021 	move	zero,zero
    7974:	00000021 	move	zero,zero
    7978:	00000021 	move	zero,zero
    797c:	00000021 	move	zero,zero
    7980:	00000021 	move	zero,zero
    7984:	3c12aff0 	lui	s2,0xaff0
    7988:	365250dc 	ori	s2,s2,0x50dc
    798c:	00000000 	nop
    7990:	3c142f42 	lui	s4,0x2f42
    7994:	3694c720 	ori	s4,s4,0xc720
    7998:	16140b03 	bne	s0,s4,a5a8 <inst_error>
    799c:	00000000 	nop
    79a0:	00000000 	nop
    79a4:	3c15aff0 	lui	s5,0xaff0
    79a8:	36b550dc 	ori	s5,s5,0x50dc
    79ac:	16550afe 	bne	s2,s5,a5a8 <inst_error>
    79b0:	00000000 	nop
    79b4:	00000000 	nop
    79b8:	3c0c357f 	lui	t4,0x357f
    79bc:	358cfcc0 	ori	t4,t4,0xfcc0
    79c0:	3c0de272 	lui	t5,0xe272
    79c4:	35ad5c22 	ori	t5,t5,0x5c22
    79c8:	24100000 	li	s0,0
    79cc:	24120000 	li	s2,0
    79d0:	3c080000 	lui	t0,0x0
    79d4:	250879ec 	addiu	t0,t0,31212
    79d8:	3c090000 	lui	t1,0x0
    79dc:	25297a58 	addiu	t1,t1,31320
    79e0:	1000000b 	b	7a10 <n39_jr_test+0x7a10>
    79e4:	00000000 	nop
    79e8:	00000000 	nop
    79ec:	3c10357f 	lui	s0,0x357f
    79f0:	01200008 	jr	t1
    79f4:	3610fcc0 	ori	s0,s0,0xfcc0
    79f8:	10000019 	b	7a60 <n39_jr_test+0x7a60>
    79fc:	00000000 	nop
    7a00:	00000000 	nop
    7a04:	00000021 	move	zero,zero
    7a08:	00000021 	move	zero,zero
    7a0c:	00000021 	move	zero,zero
    7a10:	01000008 	jr	t0
    7a14:	00000000 	nop
    7a18:	10000011 	b	7a60 <n39_jr_test+0x7a60>
    7a1c:	00000000 	nop
    7a20:	00000000 	nop
    7a24:	00000021 	move	zero,zero
    7a28:	00000021 	move	zero,zero
    7a2c:	00000021 	move	zero,zero
    7a30:	00000021 	move	zero,zero
    7a34:	00000021 	move	zero,zero
    7a38:	00000021 	move	zero,zero
    7a3c:	00000021 	move	zero,zero
    7a40:	00000021 	move	zero,zero
    7a44:	00000021 	move	zero,zero
    7a48:	00000021 	move	zero,zero
    7a4c:	00000021 	move	zero,zero
    7a50:	00000021 	move	zero,zero
    7a54:	00000021 	move	zero,zero
    7a58:	3c12e272 	lui	s2,0xe272
    7a5c:	36525c22 	ori	s2,s2,0x5c22
    7a60:	00000000 	nop
    7a64:	3c14357f 	lui	s4,0x357f
    7a68:	3694fcc0 	ori	s4,s4,0xfcc0
    7a6c:	16140ace 	bne	s0,s4,a5a8 <inst_error>
    7a70:	00000000 	nop
    7a74:	00000000 	nop
    7a78:	3c15e272 	lui	s5,0xe272
    7a7c:	36b55c22 	ori	s5,s5,0x5c22
    7a80:	16550ac9 	bne	s2,s5,a5a8 <inst_error>
    7a84:	00000000 	nop
    7a88:	00000000 	nop
    7a8c:	3c0cf065 	lui	t4,0xf065
    7a90:	358c3e7f 	ori	t4,t4,0x3e7f
    7a94:	3c0d7fe6 	lui	t5,0x7fe6
    7a98:	35ad5b38 	ori	t5,t5,0x5b38
    7a9c:	24100000 	li	s0,0
    7aa0:	24120000 	li	s2,0
    7aa4:	3c080000 	lui	t0,0x0
    7aa8:	25087ac0 	addiu	t0,t0,31424
    7aac:	3c090000 	lui	t1,0x0
    7ab0:	25297b2c 	addiu	t1,t1,31532
    7ab4:	1000000b 	b	7ae4 <n39_jr_test+0x7ae4>
    7ab8:	00000000 	nop
    7abc:	00000000 	nop
    7ac0:	3c10f065 	lui	s0,0xf065
    7ac4:	01200008 	jr	t1
    7ac8:	36103e7f 	ori	s0,s0,0x3e7f
    7acc:	10000019 	b	7b34 <n39_jr_test+0x7b34>
    7ad0:	00000000 	nop
    7ad4:	00000000 	nop
    7ad8:	00000021 	move	zero,zero
    7adc:	00000021 	move	zero,zero
    7ae0:	00000021 	move	zero,zero
    7ae4:	01000008 	jr	t0
    7ae8:	00000000 	nop
    7aec:	10000011 	b	7b34 <n39_jr_test+0x7b34>
    7af0:	00000000 	nop
    7af4:	00000000 	nop
    7af8:	00000021 	move	zero,zero
    7afc:	00000021 	move	zero,zero
    7b00:	00000021 	move	zero,zero
    7b04:	00000021 	move	zero,zero
    7b08:	00000021 	move	zero,zero
    7b0c:	00000021 	move	zero,zero
    7b10:	00000021 	move	zero,zero
    7b14:	00000021 	move	zero,zero
    7b18:	00000021 	move	zero,zero
    7b1c:	00000021 	move	zero,zero
    7b20:	00000021 	move	zero,zero
    7b24:	00000021 	move	zero,zero
    7b28:	00000021 	move	zero,zero
    7b2c:	3c127fe6 	lui	s2,0x7fe6
    7b30:	36525b38 	ori	s2,s2,0x5b38
    7b34:	00000000 	nop
    7b38:	3c14f065 	lui	s4,0xf065
    7b3c:	36943e7f 	ori	s4,s4,0x3e7f
    7b40:	16140a99 	bne	s0,s4,a5a8 <inst_error>
    7b44:	00000000 	nop
    7b48:	00000000 	nop
    7b4c:	3c157fe6 	lui	s5,0x7fe6
    7b50:	36b55b38 	ori	s5,s5,0x5b38
    7b54:	16550a94 	bne	s2,s5,a5a8 <inst_error>
    7b58:	00000000 	nop
    7b5c:	00000000 	nop
    7b60:	3c0c75be 	lui	t4,0x75be
    7b64:	358c951c 	ori	t4,t4,0x951c
    7b68:	3c0d13ed 	lui	t5,0x13ed
    7b6c:	35ad14e8 	ori	t5,t5,0x14e8
    7b70:	24100000 	li	s0,0
    7b74:	24120000 	li	s2,0
    7b78:	3c080000 	lui	t0,0x0
    7b7c:	25087b94 	addiu	t0,t0,31636
    7b80:	3c090000 	lui	t1,0x0
    7b84:	25297c00 	addiu	t1,t1,31744
    7b88:	1000000b 	b	7bb8 <n39_jr_test+0x7bb8>
    7b8c:	00000000 	nop
    7b90:	00000000 	nop
    7b94:	3c1075be 	lui	s0,0x75be
    7b98:	01200008 	jr	t1
    7b9c:	3610951c 	ori	s0,s0,0x951c
    7ba0:	10000019 	b	7c08 <n39_jr_test+0x7c08>
    7ba4:	00000000 	nop
    7ba8:	00000000 	nop
    7bac:	00000021 	move	zero,zero
    7bb0:	00000021 	move	zero,zero
    7bb4:	00000021 	move	zero,zero
    7bb8:	01000008 	jr	t0
    7bbc:	00000000 	nop
    7bc0:	10000011 	b	7c08 <n39_jr_test+0x7c08>
    7bc4:	00000000 	nop
    7bc8:	00000000 	nop
    7bcc:	00000021 	move	zero,zero
    7bd0:	00000021 	move	zero,zero
    7bd4:	00000021 	move	zero,zero
    7bd8:	00000021 	move	zero,zero
    7bdc:	00000021 	move	zero,zero
    7be0:	00000021 	move	zero,zero
    7be4:	00000021 	move	zero,zero
    7be8:	00000021 	move	zero,zero
    7bec:	00000021 	move	zero,zero
    7bf0:	00000021 	move	zero,zero
    7bf4:	00000021 	move	zero,zero
    7bf8:	00000021 	move	zero,zero
    7bfc:	00000021 	move	zero,zero
    7c00:	3c1213ed 	lui	s2,0x13ed
    7c04:	365214e8 	ori	s2,s2,0x14e8
    7c08:	00000000 	nop
    7c0c:	3c1475be 	lui	s4,0x75be
    7c10:	3694951c 	ori	s4,s4,0x951c
    7c14:	16140a64 	bne	s0,s4,a5a8 <inst_error>
    7c18:	00000000 	nop
    7c1c:	00000000 	nop
    7c20:	3c1513ed 	lui	s5,0x13ed
    7c24:	36b514e8 	ori	s5,s5,0x14e8
    7c28:	16550a5f 	bne	s2,s5,a5a8 <inst_error>
    7c2c:	00000000 	nop
    7c30:	00000000 	nop
    7c34:	3c0c4954 	lui	t4,0x4954
    7c38:	358c7b18 	ori	t4,t4,0x7b18
    7c3c:	3c0dd762 	lui	t5,0xd762
    7c40:	35addc10 	ori	t5,t5,0xdc10
    7c44:	24100000 	li	s0,0
    7c48:	24120000 	li	s2,0
    7c4c:	3c080000 	lui	t0,0x0
    7c50:	25087c68 	addiu	t0,t0,31848
    7c54:	3c090000 	lui	t1,0x0
    7c58:	25297cd4 	addiu	t1,t1,31956
    7c5c:	1000000b 	b	7c8c <n39_jr_test+0x7c8c>
    7c60:	00000000 	nop
    7c64:	00000000 	nop
    7c68:	3c104954 	lui	s0,0x4954
    7c6c:	01200008 	jr	t1
    7c70:	36107b18 	ori	s0,s0,0x7b18
    7c74:	10000019 	b	7cdc <n39_jr_test+0x7cdc>
    7c78:	00000000 	nop
    7c7c:	00000000 	nop
    7c80:	00000021 	move	zero,zero
    7c84:	00000021 	move	zero,zero
    7c88:	00000021 	move	zero,zero
    7c8c:	01000008 	jr	t0
    7c90:	00000000 	nop
    7c94:	10000011 	b	7cdc <n39_jr_test+0x7cdc>
    7c98:	00000000 	nop
    7c9c:	00000000 	nop
    7ca0:	00000021 	move	zero,zero
    7ca4:	00000021 	move	zero,zero
    7ca8:	00000021 	move	zero,zero
    7cac:	00000021 	move	zero,zero
    7cb0:	00000021 	move	zero,zero
    7cb4:	00000021 	move	zero,zero
    7cb8:	00000021 	move	zero,zero
    7cbc:	00000021 	move	zero,zero
    7cc0:	00000021 	move	zero,zero
    7cc4:	00000021 	move	zero,zero
    7cc8:	00000021 	move	zero,zero
    7ccc:	00000021 	move	zero,zero
    7cd0:	00000021 	move	zero,zero
    7cd4:	3c12d762 	lui	s2,0xd762
    7cd8:	3652dc10 	ori	s2,s2,0xdc10
    7cdc:	00000000 	nop
    7ce0:	3c144954 	lui	s4,0x4954
    7ce4:	36947b18 	ori	s4,s4,0x7b18
    7ce8:	16140a2f 	bne	s0,s4,a5a8 <inst_error>
    7cec:	00000000 	nop
    7cf0:	00000000 	nop
    7cf4:	3c15d762 	lui	s5,0xd762
    7cf8:	36b5dc10 	ori	s5,s5,0xdc10
    7cfc:	16550a2a 	bne	s2,s5,a5a8 <inst_error>
    7d00:	00000000 	nop
    7d04:	00000000 	nop
    7d08:	3c0c70fe 	lui	t4,0x70fe
    7d0c:	358cc57a 	ori	t4,t4,0xc57a
    7d10:	3c0d9048 	lui	t5,0x9048
    7d14:	35ad2cbe 	ori	t5,t5,0x2cbe
    7d18:	24100000 	li	s0,0
    7d1c:	24120000 	li	s2,0
    7d20:	3c080000 	lui	t0,0x0
    7d24:	25087d3c 	addiu	t0,t0,32060
    7d28:	3c090000 	lui	t1,0x0
    7d2c:	25297da8 	addiu	t1,t1,32168
    7d30:	1000000b 	b	7d60 <n39_jr_test+0x7d60>
    7d34:	00000000 	nop
    7d38:	00000000 	nop
    7d3c:	3c1070fe 	lui	s0,0x70fe
    7d40:	01200008 	jr	t1
    7d44:	3610c57a 	ori	s0,s0,0xc57a
    7d48:	10000019 	b	7db0 <n39_jr_test+0x7db0>
    7d4c:	00000000 	nop
    7d50:	00000000 	nop
    7d54:	00000021 	move	zero,zero
    7d58:	00000021 	move	zero,zero
    7d5c:	00000021 	move	zero,zero
    7d60:	01000008 	jr	t0
    7d64:	00000000 	nop
    7d68:	10000011 	b	7db0 <n39_jr_test+0x7db0>
    7d6c:	00000000 	nop
    7d70:	00000000 	nop
    7d74:	00000021 	move	zero,zero
    7d78:	00000021 	move	zero,zero
    7d7c:	00000021 	move	zero,zero
    7d80:	00000021 	move	zero,zero
    7d84:	00000021 	move	zero,zero
    7d88:	00000021 	move	zero,zero
    7d8c:	00000021 	move	zero,zero
    7d90:	00000021 	move	zero,zero
    7d94:	00000021 	move	zero,zero
    7d98:	00000021 	move	zero,zero
    7d9c:	00000021 	move	zero,zero
    7da0:	00000021 	move	zero,zero
    7da4:	00000021 	move	zero,zero
    7da8:	3c129048 	lui	s2,0x9048
    7dac:	36522cbe 	ori	s2,s2,0x2cbe
    7db0:	00000000 	nop
    7db4:	3c1470fe 	lui	s4,0x70fe
    7db8:	3694c57a 	ori	s4,s4,0xc57a
    7dbc:	161409fa 	bne	s0,s4,a5a8 <inst_error>
    7dc0:	00000000 	nop
    7dc4:	00000000 	nop
    7dc8:	3c159048 	lui	s5,0x9048
    7dcc:	36b52cbe 	ori	s5,s5,0x2cbe
    7dd0:	165509f5 	bne	s2,s5,a5a8 <inst_error>
    7dd4:	00000000 	nop
    7dd8:	00000000 	nop
    7ddc:	3c0ce61b 	lui	t4,0xe61b
    7de0:	358c2f08 	ori	t4,t4,0x2f08
    7de4:	3c0dea0a 	lui	t5,0xea0a
    7de8:	35ad3b7e 	ori	t5,t5,0x3b7e
    7dec:	24100000 	li	s0,0
    7df0:	24120000 	li	s2,0
    7df4:	3c080000 	lui	t0,0x0
    7df8:	25087e10 	addiu	t0,t0,32272
    7dfc:	3c090000 	lui	t1,0x0
    7e00:	25297e7c 	addiu	t1,t1,32380
    7e04:	1000000b 	b	7e34 <n39_jr_test+0x7e34>
    7e08:	00000000 	nop
    7e0c:	00000000 	nop
    7e10:	3c10e61b 	lui	s0,0xe61b
    7e14:	01200008 	jr	t1
    7e18:	36102f08 	ori	s0,s0,0x2f08
    7e1c:	10000019 	b	7e84 <n39_jr_test+0x7e84>
    7e20:	00000000 	nop
    7e24:	00000000 	nop
    7e28:	00000021 	move	zero,zero
    7e2c:	00000021 	move	zero,zero
    7e30:	00000021 	move	zero,zero
    7e34:	01000008 	jr	t0
    7e38:	00000000 	nop
    7e3c:	10000011 	b	7e84 <n39_jr_test+0x7e84>
    7e40:	00000000 	nop
    7e44:	00000000 	nop
    7e48:	00000021 	move	zero,zero
    7e4c:	00000021 	move	zero,zero
    7e50:	00000021 	move	zero,zero
    7e54:	00000021 	move	zero,zero
    7e58:	00000021 	move	zero,zero
    7e5c:	00000021 	move	zero,zero
    7e60:	00000021 	move	zero,zero
    7e64:	00000021 	move	zero,zero
    7e68:	00000021 	move	zero,zero
    7e6c:	00000021 	move	zero,zero
    7e70:	00000021 	move	zero,zero
    7e74:	00000021 	move	zero,zero
    7e78:	00000021 	move	zero,zero
    7e7c:	3c12ea0a 	lui	s2,0xea0a
    7e80:	36523b7e 	ori	s2,s2,0x3b7e
    7e84:	00000000 	nop
    7e88:	3c14e61b 	lui	s4,0xe61b
    7e8c:	36942f08 	ori	s4,s4,0x2f08
    7e90:	161409c5 	bne	s0,s4,a5a8 <inst_error>
    7e94:	00000000 	nop
    7e98:	00000000 	nop
    7e9c:	3c15ea0a 	lui	s5,0xea0a
    7ea0:	36b53b7e 	ori	s5,s5,0x3b7e
    7ea4:	165509c0 	bne	s2,s5,a5a8 <inst_error>
    7ea8:	00000000 	nop
    7eac:	00000000 	nop
    7eb0:	3c0c3365 	lui	t4,0x3365
    7eb4:	358c1ede 	ori	t4,t4,0x1ede
    7eb8:	3c0d26cc 	lui	t5,0x26cc
    7ebc:	35adb363 	ori	t5,t5,0xb363
    7ec0:	24100000 	li	s0,0
    7ec4:	24120000 	li	s2,0
    7ec8:	3c080000 	lui	t0,0x0
    7ecc:	25087ee4 	addiu	t0,t0,32484
    7ed0:	3c090000 	lui	t1,0x0
    7ed4:	25297f50 	addiu	t1,t1,32592
    7ed8:	1000000b 	b	7f08 <n39_jr_test+0x7f08>
    7edc:	00000000 	nop
    7ee0:	00000000 	nop
    7ee4:	3c103365 	lui	s0,0x3365
    7ee8:	01200008 	jr	t1
    7eec:	36101ede 	ori	s0,s0,0x1ede
    7ef0:	10000019 	b	7f58 <n39_jr_test+0x7f58>
    7ef4:	00000000 	nop
    7ef8:	00000000 	nop
    7efc:	00000021 	move	zero,zero
    7f00:	00000021 	move	zero,zero
    7f04:	00000021 	move	zero,zero
    7f08:	01000008 	jr	t0
    7f0c:	00000000 	nop
    7f10:	10000011 	b	7f58 <n39_jr_test+0x7f58>
    7f14:	00000000 	nop
    7f18:	00000000 	nop
    7f1c:	00000021 	move	zero,zero
    7f20:	00000021 	move	zero,zero
    7f24:	00000021 	move	zero,zero
    7f28:	00000021 	move	zero,zero
    7f2c:	00000021 	move	zero,zero
    7f30:	00000021 	move	zero,zero
    7f34:	00000021 	move	zero,zero
    7f38:	00000021 	move	zero,zero
    7f3c:	00000021 	move	zero,zero
    7f40:	00000021 	move	zero,zero
    7f44:	00000021 	move	zero,zero
    7f48:	00000021 	move	zero,zero
    7f4c:	00000021 	move	zero,zero
    7f50:	3c1226cc 	lui	s2,0x26cc
    7f54:	3652b363 	ori	s2,s2,0xb363
    7f58:	00000000 	nop
    7f5c:	3c143365 	lui	s4,0x3365
    7f60:	36941ede 	ori	s4,s4,0x1ede
    7f64:	16140990 	bne	s0,s4,a5a8 <inst_error>
    7f68:	00000000 	nop
    7f6c:	00000000 	nop
    7f70:	3c1526cc 	lui	s5,0x26cc
    7f74:	36b5b363 	ori	s5,s5,0xb363
    7f78:	1655098b 	bne	s2,s5,a5a8 <inst_error>
    7f7c:	00000000 	nop
    7f80:	00000000 	nop
    7f84:	3c0c95f5 	lui	t4,0x95f5
    7f88:	358c0600 	ori	t4,t4,0x600
    7f8c:	3c0d91b7 	lui	t5,0x91b7
    7f90:	35adfe70 	ori	t5,t5,0xfe70
    7f94:	24100000 	li	s0,0
    7f98:	24120000 	li	s2,0
    7f9c:	3c080000 	lui	t0,0x0
    7fa0:	25087fb8 	addiu	t0,t0,32696
    7fa4:	3c090001 	lui	t1,0x1
    7fa8:	25298024 	addiu	t1,t1,-32732
    7fac:	1000000b 	b	7fdc <n39_jr_test+0x7fdc>
    7fb0:	00000000 	nop
    7fb4:	00000000 	nop
    7fb8:	3c1095f5 	lui	s0,0x95f5
    7fbc:	01200008 	jr	t1
    7fc0:	36100600 	ori	s0,s0,0x600
    7fc4:	10000019 	b	802c <n39_jr_test+0x802c>
    7fc8:	00000000 	nop
    7fcc:	00000000 	nop
    7fd0:	00000021 	move	zero,zero
    7fd4:	00000021 	move	zero,zero
    7fd8:	00000021 	move	zero,zero
    7fdc:	01000008 	jr	t0
    7fe0:	00000000 	nop
    7fe4:	10000011 	b	802c <n39_jr_test+0x802c>
    7fe8:	00000000 	nop
    7fec:	00000000 	nop
    7ff0:	00000021 	move	zero,zero
    7ff4:	00000021 	move	zero,zero
    7ff8:	00000021 	move	zero,zero
    7ffc:	00000021 	move	zero,zero
    8000:	00000021 	move	zero,zero
    8004:	00000021 	move	zero,zero
    8008:	00000021 	move	zero,zero
    800c:	00000021 	move	zero,zero
    8010:	00000021 	move	zero,zero
    8014:	00000021 	move	zero,zero
    8018:	00000021 	move	zero,zero
    801c:	00000021 	move	zero,zero
    8020:	00000021 	move	zero,zero
    8024:	3c1291b7 	lui	s2,0x91b7
    8028:	3652fe70 	ori	s2,s2,0xfe70
    802c:	00000000 	nop
    8030:	3c1495f5 	lui	s4,0x95f5
    8034:	36940600 	ori	s4,s4,0x600
    8038:	1614095b 	bne	s0,s4,a5a8 <inst_error>
    803c:	00000000 	nop
    8040:	00000000 	nop
    8044:	3c1591b7 	lui	s5,0x91b7
    8048:	36b5fe70 	ori	s5,s5,0xfe70
    804c:	16550956 	bne	s2,s5,a5a8 <inst_error>
    8050:	00000000 	nop
    8054:	00000000 	nop
    8058:	3c0c6dc4 	lui	t4,0x6dc4
    805c:	358c9bfc 	ori	t4,t4,0x9bfc
    8060:	3c0da48e 	lui	t5,0xa48e
    8064:	35ade500 	ori	t5,t5,0xe500
    8068:	24100000 	li	s0,0
    806c:	24120000 	li	s2,0
    8070:	3c080001 	lui	t0,0x1
    8074:	2508808c 	addiu	t0,t0,-32628
    8078:	3c090001 	lui	t1,0x1
    807c:	252980f8 	addiu	t1,t1,-32520
    8080:	1000000b 	b	80b0 <n39_jr_test+0x80b0>
    8084:	00000000 	nop
    8088:	00000000 	nop
    808c:	3c106dc4 	lui	s0,0x6dc4
    8090:	01200008 	jr	t1
    8094:	36109bfc 	ori	s0,s0,0x9bfc
    8098:	10000019 	b	8100 <n39_jr_test+0x8100>
    809c:	00000000 	nop
    80a0:	00000000 	nop
    80a4:	00000021 	move	zero,zero
    80a8:	00000021 	move	zero,zero
    80ac:	00000021 	move	zero,zero
    80b0:	01000008 	jr	t0
    80b4:	00000000 	nop
    80b8:	10000011 	b	8100 <n39_jr_test+0x8100>
    80bc:	00000000 	nop
    80c0:	00000000 	nop
    80c4:	00000021 	move	zero,zero
    80c8:	00000021 	move	zero,zero
    80cc:	00000021 	move	zero,zero
    80d0:	00000021 	move	zero,zero
    80d4:	00000021 	move	zero,zero
    80d8:	00000021 	move	zero,zero
    80dc:	00000021 	move	zero,zero
    80e0:	00000021 	move	zero,zero
    80e4:	00000021 	move	zero,zero
    80e8:	00000021 	move	zero,zero
    80ec:	00000021 	move	zero,zero
    80f0:	00000021 	move	zero,zero
    80f4:	00000021 	move	zero,zero
    80f8:	3c12a48e 	lui	s2,0xa48e
    80fc:	3652e500 	ori	s2,s2,0xe500
    8100:	00000000 	nop
    8104:	3c146dc4 	lui	s4,0x6dc4
    8108:	36949bfc 	ori	s4,s4,0x9bfc
    810c:	16140926 	bne	s0,s4,a5a8 <inst_error>
    8110:	00000000 	nop
    8114:	00000000 	nop
    8118:	3c15a48e 	lui	s5,0xa48e
    811c:	36b5e500 	ori	s5,s5,0xe500
    8120:	16550921 	bne	s2,s5,a5a8 <inst_error>
    8124:	00000000 	nop
    8128:	00000000 	nop
    812c:	3c0c23be 	lui	t4,0x23be
    8130:	358c8800 	ori	t4,t4,0x8800
    8134:	3c0d3b31 	lui	t5,0x3b31
    8138:	35ad6965 	ori	t5,t5,0x6965
    813c:	24100000 	li	s0,0
    8140:	24120000 	li	s2,0
    8144:	3c080001 	lui	t0,0x1
    8148:	25088160 	addiu	t0,t0,-32416
    814c:	3c090001 	lui	t1,0x1
    8150:	252981cc 	addiu	t1,t1,-32308
    8154:	1000000b 	b	8184 <n39_jr_test+0x8184>
    8158:	00000000 	nop
    815c:	00000000 	nop
    8160:	3c1023be 	lui	s0,0x23be
    8164:	01200008 	jr	t1
    8168:	36108800 	ori	s0,s0,0x8800
    816c:	10000019 	b	81d4 <n39_jr_test+0x81d4>
    8170:	00000000 	nop
    8174:	00000000 	nop
    8178:	00000021 	move	zero,zero
    817c:	00000021 	move	zero,zero
    8180:	00000021 	move	zero,zero
    8184:	01000008 	jr	t0
    8188:	00000000 	nop
    818c:	10000011 	b	81d4 <n39_jr_test+0x81d4>
    8190:	00000000 	nop
    8194:	00000000 	nop
    8198:	00000021 	move	zero,zero
    819c:	00000021 	move	zero,zero
    81a0:	00000021 	move	zero,zero
    81a4:	00000021 	move	zero,zero
    81a8:	00000021 	move	zero,zero
    81ac:	00000021 	move	zero,zero
    81b0:	00000021 	move	zero,zero
    81b4:	00000021 	move	zero,zero
    81b8:	00000021 	move	zero,zero
    81bc:	00000021 	move	zero,zero
    81c0:	00000021 	move	zero,zero
    81c4:	00000021 	move	zero,zero
    81c8:	00000021 	move	zero,zero
    81cc:	3c123b31 	lui	s2,0x3b31
    81d0:	36526965 	ori	s2,s2,0x6965
    81d4:	00000000 	nop
    81d8:	3c1423be 	lui	s4,0x23be
    81dc:	36948800 	ori	s4,s4,0x8800
    81e0:	161408f1 	bne	s0,s4,a5a8 <inst_error>
    81e4:	00000000 	nop
    81e8:	00000000 	nop
    81ec:	3c153b31 	lui	s5,0x3b31
    81f0:	36b56965 	ori	s5,s5,0x6965
    81f4:	165508ec 	bne	s2,s5,a5a8 <inst_error>
    81f8:	00000000 	nop
    81fc:	00000000 	nop
    8200:	3c0cac03 	lui	t4,0xac03
    8204:	358c99e8 	ori	t4,t4,0x99e8
    8208:	3c0da854 	lui	t5,0xa854
    820c:	35ad3092 	ori	t5,t5,0x3092
    8210:	24100000 	li	s0,0
    8214:	24120000 	li	s2,0
    8218:	3c080001 	lui	t0,0x1
    821c:	25088234 	addiu	t0,t0,-32204
    8220:	3c090001 	lui	t1,0x1
    8224:	252982a0 	addiu	t1,t1,-32096
    8228:	1000000b 	b	8258 <n39_jr_test+0x8258>
    822c:	00000000 	nop
    8230:	00000000 	nop
    8234:	3c10ac03 	lui	s0,0xac03
    8238:	01200008 	jr	t1
    823c:	361099e8 	ori	s0,s0,0x99e8
    8240:	10000019 	b	82a8 <n39_jr_test+0x82a8>
    8244:	00000000 	nop
    8248:	00000000 	nop
    824c:	00000021 	move	zero,zero
    8250:	00000021 	move	zero,zero
    8254:	00000021 	move	zero,zero
    8258:	01000008 	jr	t0
    825c:	00000000 	nop
    8260:	10000011 	b	82a8 <n39_jr_test+0x82a8>
    8264:	00000000 	nop
    8268:	00000000 	nop
    826c:	00000021 	move	zero,zero
    8270:	00000021 	move	zero,zero
    8274:	00000021 	move	zero,zero
    8278:	00000021 	move	zero,zero
    827c:	00000021 	move	zero,zero
    8280:	00000021 	move	zero,zero
    8284:	00000021 	move	zero,zero
    8288:	00000021 	move	zero,zero
    828c:	00000021 	move	zero,zero
    8290:	00000021 	move	zero,zero
    8294:	00000021 	move	zero,zero
    8298:	00000021 	move	zero,zero
    829c:	00000021 	move	zero,zero
    82a0:	3c12a854 	lui	s2,0xa854
    82a4:	36523092 	ori	s2,s2,0x3092
    82a8:	00000000 	nop
    82ac:	3c14ac03 	lui	s4,0xac03
    82b0:	369499e8 	ori	s4,s4,0x99e8
    82b4:	161408bc 	bne	s0,s4,a5a8 <inst_error>
    82b8:	00000000 	nop
    82bc:	00000000 	nop
    82c0:	3c15a854 	lui	s5,0xa854
    82c4:	36b53092 	ori	s5,s5,0x3092
    82c8:	165508b7 	bne	s2,s5,a5a8 <inst_error>
    82cc:	00000000 	nop
    82d0:	00000000 	nop
    82d4:	3c0cbc7b 	lui	t4,0xbc7b
    82d8:	358c4a80 	ori	t4,t4,0x4a80
    82dc:	3c0da4d6 	lui	t5,0xa4d6
    82e0:	35ad7100 	ori	t5,t5,0x7100
    82e4:	24100000 	li	s0,0
    82e8:	24120000 	li	s2,0
    82ec:	3c080001 	lui	t0,0x1
    82f0:	25088308 	addiu	t0,t0,-31992
    82f4:	3c090001 	lui	t1,0x1
    82f8:	25298374 	addiu	t1,t1,-31884
    82fc:	1000000b 	b	832c <n39_jr_test+0x832c>
    8300:	00000000 	nop
    8304:	00000000 	nop
    8308:	3c10bc7b 	lui	s0,0xbc7b
    830c:	01200008 	jr	t1
    8310:	36104a80 	ori	s0,s0,0x4a80
    8314:	10000019 	b	837c <n39_jr_test+0x837c>
    8318:	00000000 	nop
    831c:	00000000 	nop
    8320:	00000021 	move	zero,zero
    8324:	00000021 	move	zero,zero
    8328:	00000021 	move	zero,zero
    832c:	01000008 	jr	t0
    8330:	00000000 	nop
    8334:	10000011 	b	837c <n39_jr_test+0x837c>
    8338:	00000000 	nop
    833c:	00000000 	nop
    8340:	00000021 	move	zero,zero
    8344:	00000021 	move	zero,zero
    8348:	00000021 	move	zero,zero
    834c:	00000021 	move	zero,zero
    8350:	00000021 	move	zero,zero
    8354:	00000021 	move	zero,zero
    8358:	00000021 	move	zero,zero
    835c:	00000021 	move	zero,zero
    8360:	00000021 	move	zero,zero
    8364:	00000021 	move	zero,zero
    8368:	00000021 	move	zero,zero
    836c:	00000021 	move	zero,zero
    8370:	00000021 	move	zero,zero
    8374:	3c12a4d6 	lui	s2,0xa4d6
    8378:	36527100 	ori	s2,s2,0x7100
    837c:	00000000 	nop
    8380:	3c14bc7b 	lui	s4,0xbc7b
    8384:	36944a80 	ori	s4,s4,0x4a80
    8388:	16140887 	bne	s0,s4,a5a8 <inst_error>
    838c:	00000000 	nop
    8390:	00000000 	nop
    8394:	3c15a4d6 	lui	s5,0xa4d6
    8398:	36b57100 	ori	s5,s5,0x7100
    839c:	16550882 	bne	s2,s5,a5a8 <inst_error>
    83a0:	00000000 	nop
    83a4:	00000000 	nop
    83a8:	3c0c781b 	lui	t4,0x781b
    83ac:	358c8190 	ori	t4,t4,0x8190
    83b0:	3c0d5b4d 	lui	t5,0x5b4d
    83b4:	35ad8a31 	ori	t5,t5,0x8a31
    83b8:	24100000 	li	s0,0
    83bc:	24120000 	li	s2,0
    83c0:	3c080001 	lui	t0,0x1
    83c4:	250883dc 	addiu	t0,t0,-31780
    83c8:	3c090001 	lui	t1,0x1
    83cc:	25298448 	addiu	t1,t1,-31672
    83d0:	1000000b 	b	8400 <n39_jr_test+0x8400>
    83d4:	00000000 	nop
    83d8:	00000000 	nop
    83dc:	3c10781b 	lui	s0,0x781b
    83e0:	01200008 	jr	t1
    83e4:	36108190 	ori	s0,s0,0x8190
    83e8:	10000019 	b	8450 <n39_jr_test+0x8450>
    83ec:	00000000 	nop
    83f0:	00000000 	nop
    83f4:	00000021 	move	zero,zero
    83f8:	00000021 	move	zero,zero
    83fc:	00000021 	move	zero,zero
    8400:	01000008 	jr	t0
    8404:	00000000 	nop
    8408:	10000011 	b	8450 <n39_jr_test+0x8450>
    840c:	00000000 	nop
    8410:	00000000 	nop
    8414:	00000021 	move	zero,zero
    8418:	00000021 	move	zero,zero
    841c:	00000021 	move	zero,zero
    8420:	00000021 	move	zero,zero
    8424:	00000021 	move	zero,zero
    8428:	00000021 	move	zero,zero
    842c:	00000021 	move	zero,zero
    8430:	00000021 	move	zero,zero
    8434:	00000021 	move	zero,zero
    8438:	00000021 	move	zero,zero
    843c:	00000021 	move	zero,zero
    8440:	00000021 	move	zero,zero
    8444:	00000021 	move	zero,zero
    8448:	3c125b4d 	lui	s2,0x5b4d
    844c:	36528a31 	ori	s2,s2,0x8a31
    8450:	00000000 	nop
    8454:	3c14781b 	lui	s4,0x781b
    8458:	36948190 	ori	s4,s4,0x8190
    845c:	16140852 	bne	s0,s4,a5a8 <inst_error>
    8460:	00000000 	nop
    8464:	00000000 	nop
    8468:	3c155b4d 	lui	s5,0x5b4d
    846c:	36b58a31 	ori	s5,s5,0x8a31
    8470:	1655084d 	bne	s2,s5,a5a8 <inst_error>
    8474:	00000000 	nop
    8478:	00000000 	nop
    847c:	3c0ce0e6 	lui	t4,0xe0e6
    8480:	358c3b40 	ori	t4,t4,0x3b40
    8484:	3c0d4c2f 	lui	t5,0x4c2f
    8488:	35ad352c 	ori	t5,t5,0x352c
    848c:	24100000 	li	s0,0
    8490:	24120000 	li	s2,0
    8494:	3c080001 	lui	t0,0x1
    8498:	250884b0 	addiu	t0,t0,-31568
    849c:	3c090001 	lui	t1,0x1
    84a0:	2529851c 	addiu	t1,t1,-31460
    84a4:	1000000b 	b	84d4 <n39_jr_test+0x84d4>
    84a8:	00000000 	nop
    84ac:	00000000 	nop
    84b0:	3c10e0e6 	lui	s0,0xe0e6
    84b4:	01200008 	jr	t1
    84b8:	36103b40 	ori	s0,s0,0x3b40
    84bc:	10000019 	b	8524 <n39_jr_test+0x8524>
    84c0:	00000000 	nop
    84c4:	00000000 	nop
    84c8:	00000021 	move	zero,zero
    84cc:	00000021 	move	zero,zero
    84d0:	00000021 	move	zero,zero
    84d4:	01000008 	jr	t0
    84d8:	00000000 	nop
    84dc:	10000011 	b	8524 <n39_jr_test+0x8524>
    84e0:	00000000 	nop
    84e4:	00000000 	nop
    84e8:	00000021 	move	zero,zero
    84ec:	00000021 	move	zero,zero
    84f0:	00000021 	move	zero,zero
    84f4:	00000021 	move	zero,zero
    84f8:	00000021 	move	zero,zero
    84fc:	00000021 	move	zero,zero
    8500:	00000021 	move	zero,zero
    8504:	00000021 	move	zero,zero
    8508:	00000021 	move	zero,zero
    850c:	00000021 	move	zero,zero
    8510:	00000021 	move	zero,zero
    8514:	00000021 	move	zero,zero
    8518:	00000021 	move	zero,zero
    851c:	3c124c2f 	lui	s2,0x4c2f
    8520:	3652352c 	ori	s2,s2,0x352c
    8524:	00000000 	nop
    8528:	3c14e0e6 	lui	s4,0xe0e6
    852c:	36943b40 	ori	s4,s4,0x3b40
    8530:	1614081d 	bne	s0,s4,a5a8 <inst_error>
    8534:	00000000 	nop
    8538:	00000000 	nop
    853c:	3c154c2f 	lui	s5,0x4c2f
    8540:	36b5352c 	ori	s5,s5,0x352c
    8544:	16550818 	bne	s2,s5,a5a8 <inst_error>
    8548:	00000000 	nop
    854c:	00000000 	nop
    8550:	3c0cf12d 	lui	t4,0xf12d
    8554:	358c68c4 	ori	t4,t4,0x68c4
    8558:	3c0d41cb 	lui	t5,0x41cb
    855c:	35adf8c8 	ori	t5,t5,0xf8c8
    8560:	24100000 	li	s0,0
    8564:	24120000 	li	s2,0
    8568:	3c080001 	lui	t0,0x1
    856c:	25088584 	addiu	t0,t0,-31356
    8570:	3c090001 	lui	t1,0x1
    8574:	252985f0 	addiu	t1,t1,-31248
    8578:	1000000b 	b	85a8 <n39_jr_test+0x85a8>
    857c:	00000000 	nop
    8580:	00000000 	nop
    8584:	3c10f12d 	lui	s0,0xf12d
    8588:	01200008 	jr	t1
    858c:	361068c4 	ori	s0,s0,0x68c4
    8590:	10000019 	b	85f8 <n39_jr_test+0x85f8>
    8594:	00000000 	nop
    8598:	00000000 	nop
    859c:	00000021 	move	zero,zero
    85a0:	00000021 	move	zero,zero
    85a4:	00000021 	move	zero,zero
    85a8:	01000008 	jr	t0
    85ac:	00000000 	nop
    85b0:	10000011 	b	85f8 <n39_jr_test+0x85f8>
    85b4:	00000000 	nop
    85b8:	00000000 	nop
    85bc:	00000021 	move	zero,zero
    85c0:	00000021 	move	zero,zero
    85c4:	00000021 	move	zero,zero
    85c8:	00000021 	move	zero,zero
    85cc:	00000021 	move	zero,zero
    85d0:	00000021 	move	zero,zero
    85d4:	00000021 	move	zero,zero
    85d8:	00000021 	move	zero,zero
    85dc:	00000021 	move	zero,zero
    85e0:	00000021 	move	zero,zero
    85e4:	00000021 	move	zero,zero
    85e8:	00000021 	move	zero,zero
    85ec:	00000021 	move	zero,zero
    85f0:	3c1241cb 	lui	s2,0x41cb
    85f4:	3652f8c8 	ori	s2,s2,0xf8c8
    85f8:	00000000 	nop
    85fc:	3c14f12d 	lui	s4,0xf12d
    8600:	369468c4 	ori	s4,s4,0x68c4
    8604:	161407e8 	bne	s0,s4,a5a8 <inst_error>
    8608:	00000000 	nop
    860c:	00000000 	nop
    8610:	3c1541cb 	lui	s5,0x41cb
    8614:	36b5f8c8 	ori	s5,s5,0xf8c8
    8618:	165507e3 	bne	s2,s5,a5a8 <inst_error>
    861c:	00000000 	nop
    8620:	00000000 	nop
    8624:	3c0c1ed1 	lui	t4,0x1ed1
    8628:	358cd128 	ori	t4,t4,0xd128
    862c:	3c0d500d 	lui	t5,0x500d
    8630:	35ad40f8 	ori	t5,t5,0x40f8
    8634:	24100000 	li	s0,0
    8638:	24120000 	li	s2,0
    863c:	3c080001 	lui	t0,0x1
    8640:	25088658 	addiu	t0,t0,-31144
    8644:	3c090001 	lui	t1,0x1
    8648:	252986c4 	addiu	t1,t1,-31036
    864c:	1000000b 	b	867c <n39_jr_test+0x867c>
    8650:	00000000 	nop
    8654:	00000000 	nop
    8658:	3c101ed1 	lui	s0,0x1ed1
    865c:	01200008 	jr	t1
    8660:	3610d128 	ori	s0,s0,0xd128
    8664:	10000019 	b	86cc <n39_jr_test+0x86cc>
    8668:	00000000 	nop
    866c:	00000000 	nop
    8670:	00000021 	move	zero,zero
    8674:	00000021 	move	zero,zero
    8678:	00000021 	move	zero,zero
    867c:	01000008 	jr	t0
    8680:	00000000 	nop
    8684:	10000011 	b	86cc <n39_jr_test+0x86cc>
    8688:	00000000 	nop
    868c:	00000000 	nop
    8690:	00000021 	move	zero,zero
    8694:	00000021 	move	zero,zero
    8698:	00000021 	move	zero,zero
    869c:	00000021 	move	zero,zero
    86a0:	00000021 	move	zero,zero
    86a4:	00000021 	move	zero,zero
    86a8:	00000021 	move	zero,zero
    86ac:	00000021 	move	zero,zero
    86b0:	00000021 	move	zero,zero
    86b4:	00000021 	move	zero,zero
    86b8:	00000021 	move	zero,zero
    86bc:	00000021 	move	zero,zero
    86c0:	00000021 	move	zero,zero
    86c4:	3c12500d 	lui	s2,0x500d
    86c8:	365240f8 	ori	s2,s2,0x40f8
    86cc:	00000000 	nop
    86d0:	3c141ed1 	lui	s4,0x1ed1
    86d4:	3694d128 	ori	s4,s4,0xd128
    86d8:	161407b3 	bne	s0,s4,a5a8 <inst_error>
    86dc:	00000000 	nop
    86e0:	00000000 	nop
    86e4:	3c15500d 	lui	s5,0x500d
    86e8:	36b540f8 	ori	s5,s5,0x40f8
    86ec:	165507ae 	bne	s2,s5,a5a8 <inst_error>
    86f0:	00000000 	nop
    86f4:	00000000 	nop
    86f8:	3c0cae9d 	lui	t4,0xae9d
    86fc:	358cd038 	ori	t4,t4,0xd038
    8700:	3c0d688b 	lui	t5,0x688b
    8704:	35ad8be2 	ori	t5,t5,0x8be2
    8708:	24100000 	li	s0,0
    870c:	24120000 	li	s2,0
    8710:	3c080001 	lui	t0,0x1
    8714:	2508872c 	addiu	t0,t0,-30932
    8718:	3c090001 	lui	t1,0x1
    871c:	25298798 	addiu	t1,t1,-30824
    8720:	1000000b 	b	8750 <n39_jr_test+0x8750>
    8724:	00000000 	nop
    8728:	00000000 	nop
    872c:	3c10ae9d 	lui	s0,0xae9d
    8730:	01200008 	jr	t1
    8734:	3610d038 	ori	s0,s0,0xd038
    8738:	10000019 	b	87a0 <n39_jr_test+0x87a0>
    873c:	00000000 	nop
    8740:	00000000 	nop
    8744:	00000021 	move	zero,zero
    8748:	00000021 	move	zero,zero
    874c:	00000021 	move	zero,zero
    8750:	01000008 	jr	t0
    8754:	00000000 	nop
    8758:	10000011 	b	87a0 <n39_jr_test+0x87a0>
    875c:	00000000 	nop
    8760:	00000000 	nop
    8764:	00000021 	move	zero,zero
    8768:	00000021 	move	zero,zero
    876c:	00000021 	move	zero,zero
    8770:	00000021 	move	zero,zero
    8774:	00000021 	move	zero,zero
    8778:	00000021 	move	zero,zero
    877c:	00000021 	move	zero,zero
    8780:	00000021 	move	zero,zero
    8784:	00000021 	move	zero,zero
    8788:	00000021 	move	zero,zero
    878c:	00000021 	move	zero,zero
    8790:	00000021 	move	zero,zero
    8794:	00000021 	move	zero,zero
    8798:	3c12688b 	lui	s2,0x688b
    879c:	36528be2 	ori	s2,s2,0x8be2
    87a0:	00000000 	nop
    87a4:	3c14ae9d 	lui	s4,0xae9d
    87a8:	3694d038 	ori	s4,s4,0xd038
    87ac:	1614077e 	bne	s0,s4,a5a8 <inst_error>
    87b0:	00000000 	nop
    87b4:	00000000 	nop
    87b8:	3c15688b 	lui	s5,0x688b
    87bc:	36b58be2 	ori	s5,s5,0x8be2
    87c0:	16550779 	bne	s2,s5,a5a8 <inst_error>
    87c4:	00000000 	nop
    87c8:	00000000 	nop
    87cc:	3c0cdf3b 	lui	t4,0xdf3b
    87d0:	358ccb3d 	ori	t4,t4,0xcb3d
    87d4:	3c0dc717 	lui	t5,0xc717
    87d8:	35ad5e68 	ori	t5,t5,0x5e68
    87dc:	24100000 	li	s0,0
    87e0:	24120000 	li	s2,0
    87e4:	3c080001 	lui	t0,0x1
    87e8:	25088800 	addiu	t0,t0,-30720
    87ec:	3c090001 	lui	t1,0x1
    87f0:	2529886c 	addiu	t1,t1,-30612
    87f4:	1000000b 	b	8824 <n39_jr_test+0x8824>
    87f8:	00000000 	nop
    87fc:	00000000 	nop
    8800:	3c10df3b 	lui	s0,0xdf3b
    8804:	01200008 	jr	t1
    8808:	3610cb3d 	ori	s0,s0,0xcb3d
    880c:	10000019 	b	8874 <n39_jr_test+0x8874>
    8810:	00000000 	nop
    8814:	00000000 	nop
    8818:	00000021 	move	zero,zero
    881c:	00000021 	move	zero,zero
    8820:	00000021 	move	zero,zero
    8824:	01000008 	jr	t0
    8828:	00000000 	nop
    882c:	10000011 	b	8874 <n39_jr_test+0x8874>
    8830:	00000000 	nop
    8834:	00000000 	nop
    8838:	00000021 	move	zero,zero
    883c:	00000021 	move	zero,zero
    8840:	00000021 	move	zero,zero
    8844:	00000021 	move	zero,zero
    8848:	00000021 	move	zero,zero
    884c:	00000021 	move	zero,zero
    8850:	00000021 	move	zero,zero
    8854:	00000021 	move	zero,zero
    8858:	00000021 	move	zero,zero
    885c:	00000021 	move	zero,zero
    8860:	00000021 	move	zero,zero
    8864:	00000021 	move	zero,zero
    8868:	00000021 	move	zero,zero
    886c:	3c12c717 	lui	s2,0xc717
    8870:	36525e68 	ori	s2,s2,0x5e68
    8874:	00000000 	nop
    8878:	3c14df3b 	lui	s4,0xdf3b
    887c:	3694cb3d 	ori	s4,s4,0xcb3d
    8880:	16140749 	bne	s0,s4,a5a8 <inst_error>
    8884:	00000000 	nop
    8888:	00000000 	nop
    888c:	3c15c717 	lui	s5,0xc717
    8890:	36b55e68 	ori	s5,s5,0x5e68
    8894:	16550744 	bne	s2,s5,a5a8 <inst_error>
    8898:	00000000 	nop
    889c:	00000000 	nop
    88a0:	3c0c5813 	lui	t4,0x5813
    88a4:	358cb77e 	ori	t4,t4,0xb77e
    88a8:	3c0dc2a2 	lui	t5,0xc2a2
    88ac:	35adc3e6 	ori	t5,t5,0xc3e6
    88b0:	24100000 	li	s0,0
    88b4:	24120000 	li	s2,0
    88b8:	3c080001 	lui	t0,0x1
    88bc:	250888d4 	addiu	t0,t0,-30508
    88c0:	3c090001 	lui	t1,0x1
    88c4:	25298940 	addiu	t1,t1,-30400
    88c8:	1000000b 	b	88f8 <n39_jr_test+0x88f8>
    88cc:	00000000 	nop
    88d0:	00000000 	nop
    88d4:	3c105813 	lui	s0,0x5813
    88d8:	01200008 	jr	t1
    88dc:	3610b77e 	ori	s0,s0,0xb77e
    88e0:	10000019 	b	8948 <n39_jr_test+0x8948>
    88e4:	00000000 	nop
    88e8:	00000000 	nop
    88ec:	00000021 	move	zero,zero
    88f0:	00000021 	move	zero,zero
    88f4:	00000021 	move	zero,zero
    88f8:	01000008 	jr	t0
    88fc:	00000000 	nop
    8900:	10000011 	b	8948 <n39_jr_test+0x8948>
    8904:	00000000 	nop
    8908:	00000000 	nop
    890c:	00000021 	move	zero,zero
    8910:	00000021 	move	zero,zero
    8914:	00000021 	move	zero,zero
    8918:	00000021 	move	zero,zero
    891c:	00000021 	move	zero,zero
    8920:	00000021 	move	zero,zero
    8924:	00000021 	move	zero,zero
    8928:	00000021 	move	zero,zero
    892c:	00000021 	move	zero,zero
    8930:	00000021 	move	zero,zero
    8934:	00000021 	move	zero,zero
    8938:	00000021 	move	zero,zero
    893c:	00000021 	move	zero,zero
    8940:	3c12c2a2 	lui	s2,0xc2a2
    8944:	3652c3e6 	ori	s2,s2,0xc3e6
    8948:	00000000 	nop
    894c:	3c145813 	lui	s4,0x5813
    8950:	3694b77e 	ori	s4,s4,0xb77e
    8954:	16140714 	bne	s0,s4,a5a8 <inst_error>
    8958:	00000000 	nop
    895c:	00000000 	nop
    8960:	3c15c2a2 	lui	s5,0xc2a2
    8964:	36b5c3e6 	ori	s5,s5,0xc3e6
    8968:	1655070f 	bne	s2,s5,a5a8 <inst_error>
    896c:	00000000 	nop
    8970:	00000000 	nop
    8974:	3c0c1ec9 	lui	t4,0x1ec9
    8978:	358cf890 	ori	t4,t4,0xf890
    897c:	3c0d16f6 	lui	t5,0x16f6
    8980:	35ad7880 	ori	t5,t5,0x7880
    8984:	24100000 	li	s0,0
    8988:	24120000 	li	s2,0
    898c:	3c080001 	lui	t0,0x1
    8990:	250889a8 	addiu	t0,t0,-30296
    8994:	3c090001 	lui	t1,0x1
    8998:	25298a14 	addiu	t1,t1,-30188
    899c:	1000000b 	b	89cc <n39_jr_test+0x89cc>
    89a0:	00000000 	nop
    89a4:	00000000 	nop
    89a8:	3c101ec9 	lui	s0,0x1ec9
    89ac:	01200008 	jr	t1
    89b0:	3610f890 	ori	s0,s0,0xf890
    89b4:	10000019 	b	8a1c <n39_jr_test+0x8a1c>
    89b8:	00000000 	nop
    89bc:	00000000 	nop
    89c0:	00000021 	move	zero,zero
    89c4:	00000021 	move	zero,zero
    89c8:	00000021 	move	zero,zero
    89cc:	01000008 	jr	t0
    89d0:	00000000 	nop
    89d4:	10000011 	b	8a1c <n39_jr_test+0x8a1c>
    89d8:	00000000 	nop
    89dc:	00000000 	nop
    89e0:	00000021 	move	zero,zero
    89e4:	00000021 	move	zero,zero
    89e8:	00000021 	move	zero,zero
    89ec:	00000021 	move	zero,zero
    89f0:	00000021 	move	zero,zero
    89f4:	00000021 	move	zero,zero
    89f8:	00000021 	move	zero,zero
    89fc:	00000021 	move	zero,zero
    8a00:	00000021 	move	zero,zero
    8a04:	00000021 	move	zero,zero
    8a08:	00000021 	move	zero,zero
    8a0c:	00000021 	move	zero,zero
    8a10:	00000021 	move	zero,zero
    8a14:	3c1216f6 	lui	s2,0x16f6
    8a18:	36527880 	ori	s2,s2,0x7880
    8a1c:	00000000 	nop
    8a20:	3c141ec9 	lui	s4,0x1ec9
    8a24:	3694f890 	ori	s4,s4,0xf890
    8a28:	161406df 	bne	s0,s4,a5a8 <inst_error>
    8a2c:	00000000 	nop
    8a30:	00000000 	nop
    8a34:	3c1516f6 	lui	s5,0x16f6
    8a38:	36b57880 	ori	s5,s5,0x7880
    8a3c:	165506da 	bne	s2,s5,a5a8 <inst_error>
    8a40:	00000000 	nop
    8a44:	00000000 	nop
    8a48:	3c0cfede 	lui	t4,0xfede
    8a4c:	358cf1a8 	ori	t4,t4,0xf1a8
    8a50:	3c0dfac2 	lui	t5,0xfac2
    8a54:	35ad0a98 	ori	t5,t5,0xa98
    8a58:	24100000 	li	s0,0
    8a5c:	24120000 	li	s2,0
    8a60:	3c080001 	lui	t0,0x1
    8a64:	25088a7c 	addiu	t0,t0,-30084
    8a68:	3c090001 	lui	t1,0x1
    8a6c:	25298ae8 	addiu	t1,t1,-29976
    8a70:	1000000b 	b	8aa0 <n39_jr_test+0x8aa0>
    8a74:	00000000 	nop
    8a78:	00000000 	nop
    8a7c:	3c10fede 	lui	s0,0xfede
    8a80:	01200008 	jr	t1
    8a84:	3610f1a8 	ori	s0,s0,0xf1a8
    8a88:	10000019 	b	8af0 <n39_jr_test+0x8af0>
    8a8c:	00000000 	nop
    8a90:	00000000 	nop
    8a94:	00000021 	move	zero,zero
    8a98:	00000021 	move	zero,zero
    8a9c:	00000021 	move	zero,zero
    8aa0:	01000008 	jr	t0
    8aa4:	00000000 	nop
    8aa8:	10000011 	b	8af0 <n39_jr_test+0x8af0>
    8aac:	00000000 	nop
    8ab0:	00000000 	nop
    8ab4:	00000021 	move	zero,zero
    8ab8:	00000021 	move	zero,zero
    8abc:	00000021 	move	zero,zero
    8ac0:	00000021 	move	zero,zero
    8ac4:	00000021 	move	zero,zero
    8ac8:	00000021 	move	zero,zero
    8acc:	00000021 	move	zero,zero
    8ad0:	00000021 	move	zero,zero
    8ad4:	00000021 	move	zero,zero
    8ad8:	00000021 	move	zero,zero
    8adc:	00000021 	move	zero,zero
    8ae0:	00000021 	move	zero,zero
    8ae4:	00000021 	move	zero,zero
    8ae8:	3c12fac2 	lui	s2,0xfac2
    8aec:	36520a98 	ori	s2,s2,0xa98
    8af0:	00000000 	nop
    8af4:	3c14fede 	lui	s4,0xfede
    8af8:	3694f1a8 	ori	s4,s4,0xf1a8
    8afc:	161406aa 	bne	s0,s4,a5a8 <inst_error>
    8b00:	00000000 	nop
    8b04:	00000000 	nop
    8b08:	3c15fac2 	lui	s5,0xfac2
    8b0c:	36b50a98 	ori	s5,s5,0xa98
    8b10:	165506a5 	bne	s2,s5,a5a8 <inst_error>
    8b14:	00000000 	nop
    8b18:	00000000 	nop
    8b1c:	3c0c73d8 	lui	t4,0x73d8
    8b20:	358cff9f 	ori	t4,t4,0xff9f
    8b24:	3c0d9b54 	lui	t5,0x9b54
    8b28:	35ad8d8e 	ori	t5,t5,0x8d8e
    8b2c:	24100000 	li	s0,0
    8b30:	24120000 	li	s2,0
    8b34:	3c080001 	lui	t0,0x1
    8b38:	25088b50 	addiu	t0,t0,-29872
    8b3c:	3c090001 	lui	t1,0x1
    8b40:	25298bbc 	addiu	t1,t1,-29764
    8b44:	1000000b 	b	8b74 <n39_jr_test+0x8b74>
    8b48:	00000000 	nop
    8b4c:	00000000 	nop
    8b50:	3c1073d8 	lui	s0,0x73d8
    8b54:	01200008 	jr	t1
    8b58:	3610ff9f 	ori	s0,s0,0xff9f
    8b5c:	10000019 	b	8bc4 <n39_jr_test+0x8bc4>
    8b60:	00000000 	nop
    8b64:	00000000 	nop
    8b68:	00000021 	move	zero,zero
    8b6c:	00000021 	move	zero,zero
    8b70:	00000021 	move	zero,zero
    8b74:	01000008 	jr	t0
    8b78:	00000000 	nop
    8b7c:	10000011 	b	8bc4 <n39_jr_test+0x8bc4>
    8b80:	00000000 	nop
    8b84:	00000000 	nop
    8b88:	00000021 	move	zero,zero
    8b8c:	00000021 	move	zero,zero
    8b90:	00000021 	move	zero,zero
    8b94:	00000021 	move	zero,zero
    8b98:	00000021 	move	zero,zero
    8b9c:	00000021 	move	zero,zero
    8ba0:	00000021 	move	zero,zero
    8ba4:	00000021 	move	zero,zero
    8ba8:	00000021 	move	zero,zero
    8bac:	00000021 	move	zero,zero
    8bb0:	00000021 	move	zero,zero
    8bb4:	00000021 	move	zero,zero
    8bb8:	00000021 	move	zero,zero
    8bbc:	3c129b54 	lui	s2,0x9b54
    8bc0:	36528d8e 	ori	s2,s2,0x8d8e
    8bc4:	00000000 	nop
    8bc8:	3c1473d8 	lui	s4,0x73d8
    8bcc:	3694ff9f 	ori	s4,s4,0xff9f
    8bd0:	16140675 	bne	s0,s4,a5a8 <inst_error>
    8bd4:	00000000 	nop
    8bd8:	00000000 	nop
    8bdc:	3c159b54 	lui	s5,0x9b54
    8be0:	36b58d8e 	ori	s5,s5,0x8d8e
    8be4:	16550670 	bne	s2,s5,a5a8 <inst_error>
    8be8:	00000000 	nop
    8bec:	00000000 	nop
    8bf0:	3c0cefcf 	lui	t4,0xefcf
    8bf4:	358c97c0 	ori	t4,t4,0x97c0
    8bf8:	3c0dda43 	lui	t5,0xda43
    8bfc:	35ad81ca 	ori	t5,t5,0x81ca
    8c00:	24100000 	li	s0,0
    8c04:	24120000 	li	s2,0
    8c08:	3c080001 	lui	t0,0x1
    8c0c:	25088c24 	addiu	t0,t0,-29660
    8c10:	3c090001 	lui	t1,0x1
    8c14:	25298c90 	addiu	t1,t1,-29552
    8c18:	1000000b 	b	8c48 <n39_jr_test+0x8c48>
    8c1c:	00000000 	nop
    8c20:	00000000 	nop
    8c24:	3c10efcf 	lui	s0,0xefcf
    8c28:	01200008 	jr	t1
    8c2c:	361097c0 	ori	s0,s0,0x97c0
    8c30:	10000019 	b	8c98 <n39_jr_test+0x8c98>
    8c34:	00000000 	nop
    8c38:	00000000 	nop
    8c3c:	00000021 	move	zero,zero
    8c40:	00000021 	move	zero,zero
    8c44:	00000021 	move	zero,zero
    8c48:	01000008 	jr	t0
    8c4c:	00000000 	nop
    8c50:	10000011 	b	8c98 <n39_jr_test+0x8c98>
    8c54:	00000000 	nop
    8c58:	00000000 	nop
    8c5c:	00000021 	move	zero,zero
    8c60:	00000021 	move	zero,zero
    8c64:	00000021 	move	zero,zero
    8c68:	00000021 	move	zero,zero
    8c6c:	00000021 	move	zero,zero
    8c70:	00000021 	move	zero,zero
    8c74:	00000021 	move	zero,zero
    8c78:	00000021 	move	zero,zero
    8c7c:	00000021 	move	zero,zero
    8c80:	00000021 	move	zero,zero
    8c84:	00000021 	move	zero,zero
    8c88:	00000021 	move	zero,zero
    8c8c:	00000021 	move	zero,zero
    8c90:	3c12da43 	lui	s2,0xda43
    8c94:	365281ca 	ori	s2,s2,0x81ca
    8c98:	00000000 	nop
    8c9c:	3c14efcf 	lui	s4,0xefcf
    8ca0:	369497c0 	ori	s4,s4,0x97c0
    8ca4:	16140640 	bne	s0,s4,a5a8 <inst_error>
    8ca8:	00000000 	nop
    8cac:	00000000 	nop
    8cb0:	3c15da43 	lui	s5,0xda43
    8cb4:	36b581ca 	ori	s5,s5,0x81ca
    8cb8:	1655063b 	bne	s2,s5,a5a8 <inst_error>
    8cbc:	00000000 	nop
    8cc0:	00000000 	nop
    8cc4:	3c0cfb8a 	lui	t4,0xfb8a
    8cc8:	358c58f0 	ori	t4,t4,0x58f0
    8ccc:	3c0d9332 	lui	t5,0x9332
    8cd0:	35ad0d80 	ori	t5,t5,0xd80
    8cd4:	24100000 	li	s0,0
    8cd8:	24120000 	li	s2,0
    8cdc:	3c080001 	lui	t0,0x1
    8ce0:	25088cf8 	addiu	t0,t0,-29448
    8ce4:	3c090001 	lui	t1,0x1
    8ce8:	25298d64 	addiu	t1,t1,-29340
    8cec:	1000000b 	b	8d1c <n39_jr_test+0x8d1c>
    8cf0:	00000000 	nop
    8cf4:	00000000 	nop
    8cf8:	3c10fb8a 	lui	s0,0xfb8a
    8cfc:	01200008 	jr	t1
    8d00:	361058f0 	ori	s0,s0,0x58f0
    8d04:	10000019 	b	8d6c <n39_jr_test+0x8d6c>
    8d08:	00000000 	nop
    8d0c:	00000000 	nop
    8d10:	00000021 	move	zero,zero
    8d14:	00000021 	move	zero,zero
    8d18:	00000021 	move	zero,zero
    8d1c:	01000008 	jr	t0
    8d20:	00000000 	nop
    8d24:	10000011 	b	8d6c <n39_jr_test+0x8d6c>
    8d28:	00000000 	nop
    8d2c:	00000000 	nop
    8d30:	00000021 	move	zero,zero
    8d34:	00000021 	move	zero,zero
    8d38:	00000021 	move	zero,zero
    8d3c:	00000021 	move	zero,zero
    8d40:	00000021 	move	zero,zero
    8d44:	00000021 	move	zero,zero
    8d48:	00000021 	move	zero,zero
    8d4c:	00000021 	move	zero,zero
    8d50:	00000021 	move	zero,zero
    8d54:	00000021 	move	zero,zero
    8d58:	00000021 	move	zero,zero
    8d5c:	00000021 	move	zero,zero
    8d60:	00000021 	move	zero,zero
    8d64:	3c129332 	lui	s2,0x9332
    8d68:	36520d80 	ori	s2,s2,0xd80
    8d6c:	00000000 	nop
    8d70:	3c14fb8a 	lui	s4,0xfb8a
    8d74:	369458f0 	ori	s4,s4,0x58f0
    8d78:	1614060b 	bne	s0,s4,a5a8 <inst_error>
    8d7c:	00000000 	nop
    8d80:	00000000 	nop
    8d84:	3c159332 	lui	s5,0x9332
    8d88:	36b50d80 	ori	s5,s5,0xd80
    8d8c:	16550606 	bne	s2,s5,a5a8 <inst_error>
    8d90:	00000000 	nop
    8d94:	00000000 	nop
    8d98:	3c0c7048 	lui	t4,0x7048
    8d9c:	358cea70 	ori	t4,t4,0xea70
    8da0:	3c0d33d2 	lui	t5,0x33d2
    8da4:	35adc620 	ori	t5,t5,0xc620
    8da8:	24100000 	li	s0,0
    8dac:	24120000 	li	s2,0
    8db0:	3c080001 	lui	t0,0x1
    8db4:	25088dcc 	addiu	t0,t0,-29236
    8db8:	3c090001 	lui	t1,0x1
    8dbc:	25298e38 	addiu	t1,t1,-29128
    8dc0:	1000000b 	b	8df0 <n39_jr_test+0x8df0>
    8dc4:	00000000 	nop
    8dc8:	00000000 	nop
    8dcc:	3c107048 	lui	s0,0x7048
    8dd0:	01200008 	jr	t1
    8dd4:	3610ea70 	ori	s0,s0,0xea70
    8dd8:	10000019 	b	8e40 <n39_jr_test+0x8e40>
    8ddc:	00000000 	nop
    8de0:	00000000 	nop
    8de4:	00000021 	move	zero,zero
    8de8:	00000021 	move	zero,zero
    8dec:	00000021 	move	zero,zero
    8df0:	01000008 	jr	t0
    8df4:	00000000 	nop
    8df8:	10000011 	b	8e40 <n39_jr_test+0x8e40>
    8dfc:	00000000 	nop
    8e00:	00000000 	nop
    8e04:	00000021 	move	zero,zero
    8e08:	00000021 	move	zero,zero
    8e0c:	00000021 	move	zero,zero
    8e10:	00000021 	move	zero,zero
    8e14:	00000021 	move	zero,zero
    8e18:	00000021 	move	zero,zero
    8e1c:	00000021 	move	zero,zero
    8e20:	00000021 	move	zero,zero
    8e24:	00000021 	move	zero,zero
    8e28:	00000021 	move	zero,zero
    8e2c:	00000021 	move	zero,zero
    8e30:	00000021 	move	zero,zero
    8e34:	00000021 	move	zero,zero
    8e38:	3c1233d2 	lui	s2,0x33d2
    8e3c:	3652c620 	ori	s2,s2,0xc620
    8e40:	00000000 	nop
    8e44:	3c147048 	lui	s4,0x7048
    8e48:	3694ea70 	ori	s4,s4,0xea70
    8e4c:	161405d6 	bne	s0,s4,a5a8 <inst_error>
    8e50:	00000000 	nop
    8e54:	00000000 	nop
    8e58:	3c1533d2 	lui	s5,0x33d2
    8e5c:	36b5c620 	ori	s5,s5,0xc620
    8e60:	165505d1 	bne	s2,s5,a5a8 <inst_error>
    8e64:	00000000 	nop
    8e68:	00000000 	nop
    8e6c:	3c0c5378 	lui	t4,0x5378
    8e70:	358cf23e 	ori	t4,t4,0xf23e
    8e74:	3c0dfdf9 	lui	t5,0xfdf9
    8e78:	35ad7c20 	ori	t5,t5,0x7c20
    8e7c:	24100000 	li	s0,0
    8e80:	24120000 	li	s2,0
    8e84:	3c080001 	lui	t0,0x1
    8e88:	25088ea0 	addiu	t0,t0,-29024
    8e8c:	3c090001 	lui	t1,0x1
    8e90:	25298f0c 	addiu	t1,t1,-28916
    8e94:	1000000b 	b	8ec4 <n39_jr_test+0x8ec4>
    8e98:	00000000 	nop
    8e9c:	00000000 	nop
    8ea0:	3c105378 	lui	s0,0x5378
    8ea4:	01200008 	jr	t1
    8ea8:	3610f23e 	ori	s0,s0,0xf23e
    8eac:	10000019 	b	8f14 <n39_jr_test+0x8f14>
    8eb0:	00000000 	nop
    8eb4:	00000000 	nop
    8eb8:	00000021 	move	zero,zero
    8ebc:	00000021 	move	zero,zero
    8ec0:	00000021 	move	zero,zero
    8ec4:	01000008 	jr	t0
    8ec8:	00000000 	nop
    8ecc:	10000011 	b	8f14 <n39_jr_test+0x8f14>
    8ed0:	00000000 	nop
    8ed4:	00000000 	nop
    8ed8:	00000021 	move	zero,zero
    8edc:	00000021 	move	zero,zero
    8ee0:	00000021 	move	zero,zero
    8ee4:	00000021 	move	zero,zero
    8ee8:	00000021 	move	zero,zero
    8eec:	00000021 	move	zero,zero
    8ef0:	00000021 	move	zero,zero
    8ef4:	00000021 	move	zero,zero
    8ef8:	00000021 	move	zero,zero
    8efc:	00000021 	move	zero,zero
    8f00:	00000021 	move	zero,zero
    8f04:	00000021 	move	zero,zero
    8f08:	00000021 	move	zero,zero
    8f0c:	3c12fdf9 	lui	s2,0xfdf9
    8f10:	36527c20 	ori	s2,s2,0x7c20
    8f14:	00000000 	nop
    8f18:	3c145378 	lui	s4,0x5378
    8f1c:	3694f23e 	ori	s4,s4,0xf23e
    8f20:	161405a1 	bne	s0,s4,a5a8 <inst_error>
    8f24:	00000000 	nop
    8f28:	00000000 	nop
    8f2c:	3c15fdf9 	lui	s5,0xfdf9
    8f30:	36b57c20 	ori	s5,s5,0x7c20
    8f34:	1655059c 	bne	s2,s5,a5a8 <inst_error>
    8f38:	00000000 	nop
    8f3c:	00000000 	nop
    8f40:	3c0c0cdf 	lui	t4,0xcdf
    8f44:	358cdc00 	ori	t4,t4,0xdc00
    8f48:	3c0d51cf 	lui	t5,0x51cf
    8f4c:	35adfb64 	ori	t5,t5,0xfb64
    8f50:	24100000 	li	s0,0
    8f54:	24120000 	li	s2,0
    8f58:	3c080001 	lui	t0,0x1
    8f5c:	25088f74 	addiu	t0,t0,-28812
    8f60:	3c090001 	lui	t1,0x1
    8f64:	25298fe0 	addiu	t1,t1,-28704
    8f68:	1000000b 	b	8f98 <n39_jr_test+0x8f98>
    8f6c:	00000000 	nop
    8f70:	00000000 	nop
    8f74:	3c100cdf 	lui	s0,0xcdf
    8f78:	01200008 	jr	t1
    8f7c:	3610dc00 	ori	s0,s0,0xdc00
    8f80:	10000019 	b	8fe8 <n39_jr_test+0x8fe8>
    8f84:	00000000 	nop
    8f88:	00000000 	nop
    8f8c:	00000021 	move	zero,zero
    8f90:	00000021 	move	zero,zero
    8f94:	00000021 	move	zero,zero
    8f98:	01000008 	jr	t0
    8f9c:	00000000 	nop
    8fa0:	10000011 	b	8fe8 <n39_jr_test+0x8fe8>
    8fa4:	00000000 	nop
    8fa8:	00000000 	nop
    8fac:	00000021 	move	zero,zero
    8fb0:	00000021 	move	zero,zero
    8fb4:	00000021 	move	zero,zero
    8fb8:	00000021 	move	zero,zero
    8fbc:	00000021 	move	zero,zero
    8fc0:	00000021 	move	zero,zero
    8fc4:	00000021 	move	zero,zero
    8fc8:	00000021 	move	zero,zero
    8fcc:	00000021 	move	zero,zero
    8fd0:	00000021 	move	zero,zero
    8fd4:	00000021 	move	zero,zero
    8fd8:	00000021 	move	zero,zero
    8fdc:	00000021 	move	zero,zero
    8fe0:	3c1251cf 	lui	s2,0x51cf
    8fe4:	3652fb64 	ori	s2,s2,0xfb64
    8fe8:	00000000 	nop
    8fec:	3c140cdf 	lui	s4,0xcdf
    8ff0:	3694dc00 	ori	s4,s4,0xdc00
    8ff4:	1614056c 	bne	s0,s4,a5a8 <inst_error>
    8ff8:	00000000 	nop
    8ffc:	00000000 	nop
    9000:	3c1551cf 	lui	s5,0x51cf
    9004:	36b5fb64 	ori	s5,s5,0xfb64
    9008:	16550567 	bne	s2,s5,a5a8 <inst_error>
    900c:	00000000 	nop
    9010:	00000000 	nop
    9014:	3c0c76b0 	lui	t4,0x76b0
    9018:	358c47e0 	ori	t4,t4,0x47e0
    901c:	3c0df24d 	lui	t5,0xf24d
    9020:	35adc540 	ori	t5,t5,0xc540
    9024:	24100000 	li	s0,0
    9028:	24120000 	li	s2,0
    902c:	3c080001 	lui	t0,0x1
    9030:	25089048 	addiu	t0,t0,-28600
    9034:	3c090001 	lui	t1,0x1
    9038:	252990b4 	addiu	t1,t1,-28492
    903c:	1000000b 	b	906c <n39_jr_test+0x906c>
    9040:	00000000 	nop
    9044:	00000000 	nop
    9048:	3c1076b0 	lui	s0,0x76b0
    904c:	01200008 	jr	t1
    9050:	361047e0 	ori	s0,s0,0x47e0
    9054:	10000019 	b	90bc <n39_jr_test+0x90bc>
    9058:	00000000 	nop
    905c:	00000000 	nop
    9060:	00000021 	move	zero,zero
    9064:	00000021 	move	zero,zero
    9068:	00000021 	move	zero,zero
    906c:	01000008 	jr	t0
    9070:	00000000 	nop
    9074:	10000011 	b	90bc <n39_jr_test+0x90bc>
    9078:	00000000 	nop
    907c:	00000000 	nop
    9080:	00000021 	move	zero,zero
    9084:	00000021 	move	zero,zero
    9088:	00000021 	move	zero,zero
    908c:	00000021 	move	zero,zero
    9090:	00000021 	move	zero,zero
    9094:	00000021 	move	zero,zero
    9098:	00000021 	move	zero,zero
    909c:	00000021 	move	zero,zero
    90a0:	00000021 	move	zero,zero
    90a4:	00000021 	move	zero,zero
    90a8:	00000021 	move	zero,zero
    90ac:	00000021 	move	zero,zero
    90b0:	00000021 	move	zero,zero
    90b4:	3c12f24d 	lui	s2,0xf24d
    90b8:	3652c540 	ori	s2,s2,0xc540
    90bc:	00000000 	nop
    90c0:	3c1476b0 	lui	s4,0x76b0
    90c4:	369447e0 	ori	s4,s4,0x47e0
    90c8:	16140537 	bne	s0,s4,a5a8 <inst_error>
    90cc:	00000000 	nop
    90d0:	00000000 	nop
    90d4:	3c15f24d 	lui	s5,0xf24d
    90d8:	36b5c540 	ori	s5,s5,0xc540
    90dc:	16550532 	bne	s2,s5,a5a8 <inst_error>
    90e0:	00000000 	nop
    90e4:	00000000 	nop
    90e8:	3c0c7adc 	lui	t4,0x7adc
    90ec:	358c9690 	ori	t4,t4,0x9690
    90f0:	3c0d5add 	lui	t5,0x5add
    90f4:	35ad8e08 	ori	t5,t5,0x8e08
    90f8:	24100000 	li	s0,0
    90fc:	24120000 	li	s2,0
    9100:	3c080001 	lui	t0,0x1
    9104:	2508911c 	addiu	t0,t0,-28388
    9108:	3c090001 	lui	t1,0x1
    910c:	25299188 	addiu	t1,t1,-28280
    9110:	1000000b 	b	9140 <n39_jr_test+0x9140>
    9114:	00000000 	nop
    9118:	00000000 	nop
    911c:	3c107adc 	lui	s0,0x7adc
    9120:	01200008 	jr	t1
    9124:	36109690 	ori	s0,s0,0x9690
    9128:	10000019 	b	9190 <n39_jr_test+0x9190>
    912c:	00000000 	nop
    9130:	00000000 	nop
    9134:	00000021 	move	zero,zero
    9138:	00000021 	move	zero,zero
    913c:	00000021 	move	zero,zero
    9140:	01000008 	jr	t0
    9144:	00000000 	nop
    9148:	10000011 	b	9190 <n39_jr_test+0x9190>
    914c:	00000000 	nop
    9150:	00000000 	nop
    9154:	00000021 	move	zero,zero
    9158:	00000021 	move	zero,zero
    915c:	00000021 	move	zero,zero
    9160:	00000021 	move	zero,zero
    9164:	00000021 	move	zero,zero
    9168:	00000021 	move	zero,zero
    916c:	00000021 	move	zero,zero
    9170:	00000021 	move	zero,zero
    9174:	00000021 	move	zero,zero
    9178:	00000021 	move	zero,zero
    917c:	00000021 	move	zero,zero
    9180:	00000021 	move	zero,zero
    9184:	00000021 	move	zero,zero
    9188:	3c125add 	lui	s2,0x5add
    918c:	36528e08 	ori	s2,s2,0x8e08
    9190:	00000000 	nop
    9194:	3c147adc 	lui	s4,0x7adc
    9198:	36949690 	ori	s4,s4,0x9690
    919c:	16140502 	bne	s0,s4,a5a8 <inst_error>
    91a0:	00000000 	nop
    91a4:	00000000 	nop
    91a8:	3c155add 	lui	s5,0x5add
    91ac:	36b58e08 	ori	s5,s5,0x8e08
    91b0:	165504fd 	bne	s2,s5,a5a8 <inst_error>
    91b4:	00000000 	nop
    91b8:	00000000 	nop
    91bc:	3c0c933e 	lui	t4,0x933e
    91c0:	358c9498 	ori	t4,t4,0x9498
    91c4:	3c0d9417 	lui	t5,0x9417
    91c8:	35ad09d0 	ori	t5,t5,0x9d0
    91cc:	24100000 	li	s0,0
    91d0:	24120000 	li	s2,0
    91d4:	3c080001 	lui	t0,0x1
    91d8:	250891f0 	addiu	t0,t0,-28176
    91dc:	3c090001 	lui	t1,0x1
    91e0:	2529925c 	addiu	t1,t1,-28068
    91e4:	1000000b 	b	9214 <n39_jr_test+0x9214>
    91e8:	00000000 	nop
    91ec:	00000000 	nop
    91f0:	3c10933e 	lui	s0,0x933e
    91f4:	01200008 	jr	t1
    91f8:	36109498 	ori	s0,s0,0x9498
    91fc:	10000019 	b	9264 <n39_jr_test+0x9264>
    9200:	00000000 	nop
    9204:	00000000 	nop
    9208:	00000021 	move	zero,zero
    920c:	00000021 	move	zero,zero
    9210:	00000021 	move	zero,zero
    9214:	01000008 	jr	t0
    9218:	00000000 	nop
    921c:	10000011 	b	9264 <n39_jr_test+0x9264>
    9220:	00000000 	nop
    9224:	00000000 	nop
    9228:	00000021 	move	zero,zero
    922c:	00000021 	move	zero,zero
    9230:	00000021 	move	zero,zero
    9234:	00000021 	move	zero,zero
    9238:	00000021 	move	zero,zero
    923c:	00000021 	move	zero,zero
    9240:	00000021 	move	zero,zero
    9244:	00000021 	move	zero,zero
    9248:	00000021 	move	zero,zero
    924c:	00000021 	move	zero,zero
    9250:	00000021 	move	zero,zero
    9254:	00000021 	move	zero,zero
    9258:	00000021 	move	zero,zero
    925c:	3c129417 	lui	s2,0x9417
    9260:	365209d0 	ori	s2,s2,0x9d0
    9264:	00000000 	nop
    9268:	3c14933e 	lui	s4,0x933e
    926c:	36949498 	ori	s4,s4,0x9498
    9270:	161404cd 	bne	s0,s4,a5a8 <inst_error>
    9274:	00000000 	nop
    9278:	00000000 	nop
    927c:	3c159417 	lui	s5,0x9417
    9280:	36b509d0 	ori	s5,s5,0x9d0
    9284:	165504c8 	bne	s2,s5,a5a8 <inst_error>
    9288:	00000000 	nop
    928c:	00000000 	nop
    9290:	3c0cad2d 	lui	t4,0xad2d
    9294:	358c6f80 	ori	t4,t4,0x6f80
    9298:	3c0deea3 	lui	t5,0xeea3
    929c:	35ad2370 	ori	t5,t5,0x2370
    92a0:	24100000 	li	s0,0
    92a4:	24120000 	li	s2,0
    92a8:	3c080001 	lui	t0,0x1
    92ac:	250892c4 	addiu	t0,t0,-27964
    92b0:	3c090001 	lui	t1,0x1
    92b4:	25299330 	addiu	t1,t1,-27856
    92b8:	1000000b 	b	92e8 <n39_jr_test+0x92e8>
    92bc:	00000000 	nop
    92c0:	00000000 	nop
    92c4:	3c10ad2d 	lui	s0,0xad2d
    92c8:	01200008 	jr	t1
    92cc:	36106f80 	ori	s0,s0,0x6f80
    92d0:	10000019 	b	9338 <n39_jr_test+0x9338>
    92d4:	00000000 	nop
    92d8:	00000000 	nop
    92dc:	00000021 	move	zero,zero
    92e0:	00000021 	move	zero,zero
    92e4:	00000021 	move	zero,zero
    92e8:	01000008 	jr	t0
    92ec:	00000000 	nop
    92f0:	10000011 	b	9338 <n39_jr_test+0x9338>
    92f4:	00000000 	nop
    92f8:	00000000 	nop
    92fc:	00000021 	move	zero,zero
    9300:	00000021 	move	zero,zero
    9304:	00000021 	move	zero,zero
    9308:	00000021 	move	zero,zero
    930c:	00000021 	move	zero,zero
    9310:	00000021 	move	zero,zero
    9314:	00000021 	move	zero,zero
    9318:	00000021 	move	zero,zero
    931c:	00000021 	move	zero,zero
    9320:	00000021 	move	zero,zero
    9324:	00000021 	move	zero,zero
    9328:	00000021 	move	zero,zero
    932c:	00000021 	move	zero,zero
    9330:	3c12eea3 	lui	s2,0xeea3
    9334:	36522370 	ori	s2,s2,0x2370
    9338:	00000000 	nop
    933c:	3c14ad2d 	lui	s4,0xad2d
    9340:	36946f80 	ori	s4,s4,0x6f80
    9344:	16140498 	bne	s0,s4,a5a8 <inst_error>
    9348:	00000000 	nop
    934c:	00000000 	nop
    9350:	3c15eea3 	lui	s5,0xeea3
    9354:	36b52370 	ori	s5,s5,0x2370
    9358:	16550493 	bne	s2,s5,a5a8 <inst_error>
    935c:	00000000 	nop
    9360:	00000000 	nop
    9364:	3c0ce502 	lui	t4,0xe502
    9368:	358cad76 	ori	t4,t4,0xad76
    936c:	3c0d4a76 	lui	t5,0x4a76
    9370:	35adaf5c 	ori	t5,t5,0xaf5c
    9374:	24100000 	li	s0,0
    9378:	24120000 	li	s2,0
    937c:	3c080001 	lui	t0,0x1
    9380:	25089398 	addiu	t0,t0,-27752
    9384:	3c090001 	lui	t1,0x1
    9388:	25299404 	addiu	t1,t1,-27644
    938c:	1000000b 	b	93bc <n39_jr_test+0x93bc>
    9390:	00000000 	nop
    9394:	00000000 	nop
    9398:	3c10e502 	lui	s0,0xe502
    939c:	01200008 	jr	t1
    93a0:	3610ad76 	ori	s0,s0,0xad76
    93a4:	10000019 	b	940c <n39_jr_test+0x940c>
    93a8:	00000000 	nop
    93ac:	00000000 	nop
    93b0:	00000021 	move	zero,zero
    93b4:	00000021 	move	zero,zero
    93b8:	00000021 	move	zero,zero
    93bc:	01000008 	jr	t0
    93c0:	00000000 	nop
    93c4:	10000011 	b	940c <n39_jr_test+0x940c>
    93c8:	00000000 	nop
    93cc:	00000000 	nop
    93d0:	00000021 	move	zero,zero
    93d4:	00000021 	move	zero,zero
    93d8:	00000021 	move	zero,zero
    93dc:	00000021 	move	zero,zero
    93e0:	00000021 	move	zero,zero
    93e4:	00000021 	move	zero,zero
    93e8:	00000021 	move	zero,zero
    93ec:	00000021 	move	zero,zero
    93f0:	00000021 	move	zero,zero
    93f4:	00000021 	move	zero,zero
    93f8:	00000021 	move	zero,zero
    93fc:	00000021 	move	zero,zero
    9400:	00000021 	move	zero,zero
    9404:	3c124a76 	lui	s2,0x4a76
    9408:	3652af5c 	ori	s2,s2,0xaf5c
    940c:	00000000 	nop
    9410:	3c14e502 	lui	s4,0xe502
    9414:	3694ad76 	ori	s4,s4,0xad76
    9418:	16140463 	bne	s0,s4,a5a8 <inst_error>
    941c:	00000000 	nop
    9420:	00000000 	nop
    9424:	3c154a76 	lui	s5,0x4a76
    9428:	36b5af5c 	ori	s5,s5,0xaf5c
    942c:	1655045e 	bne	s2,s5,a5a8 <inst_error>
    9430:	00000000 	nop
    9434:	00000000 	nop
    9438:	3c0c33d8 	lui	t4,0x33d8
    943c:	358c8514 	ori	t4,t4,0x8514
    9440:	3c0dcc8e 	lui	t5,0xcc8e
    9444:	35ad2034 	ori	t5,t5,0x2034
    9448:	24100000 	li	s0,0
    944c:	24120000 	li	s2,0
    9450:	3c080001 	lui	t0,0x1
    9454:	2508946c 	addiu	t0,t0,-27540
    9458:	3c090001 	lui	t1,0x1
    945c:	252994d8 	addiu	t1,t1,-27432
    9460:	1000000b 	b	9490 <n39_jr_test+0x9490>
    9464:	00000000 	nop
    9468:	00000000 	nop
    946c:	3c1033d8 	lui	s0,0x33d8
    9470:	01200008 	jr	t1
    9474:	36108514 	ori	s0,s0,0x8514
    9478:	10000019 	b	94e0 <n39_jr_test+0x94e0>
    947c:	00000000 	nop
    9480:	00000000 	nop
    9484:	00000021 	move	zero,zero
    9488:	00000021 	move	zero,zero
    948c:	00000021 	move	zero,zero
    9490:	01000008 	jr	t0
    9494:	00000000 	nop
    9498:	10000011 	b	94e0 <n39_jr_test+0x94e0>
    949c:	00000000 	nop
    94a0:	00000000 	nop
    94a4:	00000021 	move	zero,zero
    94a8:	00000021 	move	zero,zero
    94ac:	00000021 	move	zero,zero
    94b0:	00000021 	move	zero,zero
    94b4:	00000021 	move	zero,zero
    94b8:	00000021 	move	zero,zero
    94bc:	00000021 	move	zero,zero
    94c0:	00000021 	move	zero,zero
    94c4:	00000021 	move	zero,zero
    94c8:	00000021 	move	zero,zero
    94cc:	00000021 	move	zero,zero
    94d0:	00000021 	move	zero,zero
    94d4:	00000021 	move	zero,zero
    94d8:	3c12cc8e 	lui	s2,0xcc8e
    94dc:	36522034 	ori	s2,s2,0x2034
    94e0:	00000000 	nop
    94e4:	3c1433d8 	lui	s4,0x33d8
    94e8:	36948514 	ori	s4,s4,0x8514
    94ec:	1614042e 	bne	s0,s4,a5a8 <inst_error>
    94f0:	00000000 	nop
    94f4:	00000000 	nop
    94f8:	3c15cc8e 	lui	s5,0xcc8e
    94fc:	36b52034 	ori	s5,s5,0x2034
    9500:	16550429 	bne	s2,s5,a5a8 <inst_error>
    9504:	00000000 	nop
    9508:	00000000 	nop
    950c:	3c0cdd0c 	lui	t4,0xdd0c
    9510:	358c2b1c 	ori	t4,t4,0x2b1c
    9514:	3c0daf9b 	lui	t5,0xaf9b
    9518:	35ad3df0 	ori	t5,t5,0x3df0
    951c:	24100000 	li	s0,0
    9520:	24120000 	li	s2,0
    9524:	3c080001 	lui	t0,0x1
    9528:	25089540 	addiu	t0,t0,-27328
    952c:	3c090001 	lui	t1,0x1
    9530:	252995ac 	addiu	t1,t1,-27220
    9534:	1000000b 	b	9564 <n39_jr_test+0x9564>
    9538:	00000000 	nop
    953c:	00000000 	nop
    9540:	3c10dd0c 	lui	s0,0xdd0c
    9544:	01200008 	jr	t1
    9548:	36102b1c 	ori	s0,s0,0x2b1c
    954c:	10000019 	b	95b4 <n39_jr_test+0x95b4>
    9550:	00000000 	nop
    9554:	00000000 	nop
    9558:	00000021 	move	zero,zero
    955c:	00000021 	move	zero,zero
    9560:	00000021 	move	zero,zero
    9564:	01000008 	jr	t0
    9568:	00000000 	nop
    956c:	10000011 	b	95b4 <n39_jr_test+0x95b4>
    9570:	00000000 	nop
    9574:	00000000 	nop
    9578:	00000021 	move	zero,zero
    957c:	00000021 	move	zero,zero
    9580:	00000021 	move	zero,zero
    9584:	00000021 	move	zero,zero
    9588:	00000021 	move	zero,zero
    958c:	00000021 	move	zero,zero
    9590:	00000021 	move	zero,zero
    9594:	00000021 	move	zero,zero
    9598:	00000021 	move	zero,zero
    959c:	00000021 	move	zero,zero
    95a0:	00000021 	move	zero,zero
    95a4:	00000021 	move	zero,zero
    95a8:	00000021 	move	zero,zero
    95ac:	3c12af9b 	lui	s2,0xaf9b
    95b0:	36523df0 	ori	s2,s2,0x3df0
    95b4:	00000000 	nop
    95b8:	3c14dd0c 	lui	s4,0xdd0c
    95bc:	36942b1c 	ori	s4,s4,0x2b1c
    95c0:	161403f9 	bne	s0,s4,a5a8 <inst_error>
    95c4:	00000000 	nop
    95c8:	00000000 	nop
    95cc:	3c15af9b 	lui	s5,0xaf9b
    95d0:	36b53df0 	ori	s5,s5,0x3df0
    95d4:	165503f4 	bne	s2,s5,a5a8 <inst_error>
    95d8:	00000000 	nop
    95dc:	00000000 	nop
    95e0:	3c0c4ae7 	lui	t4,0x4ae7
    95e4:	358c1680 	ori	t4,t4,0x1680
    95e8:	3c0ddfa6 	lui	t5,0xdfa6
    95ec:	35adfd40 	ori	t5,t5,0xfd40
    95f0:	24100000 	li	s0,0
    95f4:	24120000 	li	s2,0
    95f8:	3c080001 	lui	t0,0x1
    95fc:	25089614 	addiu	t0,t0,-27116
    9600:	3c090001 	lui	t1,0x1
    9604:	25299680 	addiu	t1,t1,-27008
    9608:	1000000b 	b	9638 <n39_jr_test+0x9638>
    960c:	00000000 	nop
    9610:	00000000 	nop
    9614:	3c104ae7 	lui	s0,0x4ae7
    9618:	01200008 	jr	t1
    961c:	36101680 	ori	s0,s0,0x1680
    9620:	10000019 	b	9688 <n39_jr_test+0x9688>
    9624:	00000000 	nop
    9628:	00000000 	nop
    962c:	00000021 	move	zero,zero
    9630:	00000021 	move	zero,zero
    9634:	00000021 	move	zero,zero
    9638:	01000008 	jr	t0
    963c:	00000000 	nop
    9640:	10000011 	b	9688 <n39_jr_test+0x9688>
    9644:	00000000 	nop
    9648:	00000000 	nop
    964c:	00000021 	move	zero,zero
    9650:	00000021 	move	zero,zero
    9654:	00000021 	move	zero,zero
    9658:	00000021 	move	zero,zero
    965c:	00000021 	move	zero,zero
    9660:	00000021 	move	zero,zero
    9664:	00000021 	move	zero,zero
    9668:	00000021 	move	zero,zero
    966c:	00000021 	move	zero,zero
    9670:	00000021 	move	zero,zero
    9674:	00000021 	move	zero,zero
    9678:	00000021 	move	zero,zero
    967c:	00000021 	move	zero,zero
    9680:	3c12dfa6 	lui	s2,0xdfa6
    9684:	3652fd40 	ori	s2,s2,0xfd40
    9688:	00000000 	nop
    968c:	3c144ae7 	lui	s4,0x4ae7
    9690:	36941680 	ori	s4,s4,0x1680
    9694:	161403c4 	bne	s0,s4,a5a8 <inst_error>
    9698:	00000000 	nop
    969c:	00000000 	nop
    96a0:	3c15dfa6 	lui	s5,0xdfa6
    96a4:	36b5fd40 	ori	s5,s5,0xfd40
    96a8:	165503bf 	bne	s2,s5,a5a8 <inst_error>
    96ac:	00000000 	nop
    96b0:	00000000 	nop
    96b4:	3c0cc6f7 	lui	t4,0xc6f7
    96b8:	358c25de 	ori	t4,t4,0x25de
    96bc:	3c0d7acd 	lui	t5,0x7acd
    96c0:	35ad6378 	ori	t5,t5,0x6378
    96c4:	24100000 	li	s0,0
    96c8:	24120000 	li	s2,0
    96cc:	3c080001 	lui	t0,0x1
    96d0:	250896e8 	addiu	t0,t0,-26904
    96d4:	3c090001 	lui	t1,0x1
    96d8:	25299754 	addiu	t1,t1,-26796
    96dc:	1000000b 	b	970c <n39_jr_test+0x970c>
    96e0:	00000000 	nop
    96e4:	00000000 	nop
    96e8:	3c10c6f7 	lui	s0,0xc6f7
    96ec:	01200008 	jr	t1
    96f0:	361025de 	ori	s0,s0,0x25de
    96f4:	10000019 	b	975c <n39_jr_test+0x975c>
    96f8:	00000000 	nop
    96fc:	00000000 	nop
    9700:	00000021 	move	zero,zero
    9704:	00000021 	move	zero,zero
    9708:	00000021 	move	zero,zero
    970c:	01000008 	jr	t0
    9710:	00000000 	nop
    9714:	10000011 	b	975c <n39_jr_test+0x975c>
    9718:	00000000 	nop
    971c:	00000000 	nop
    9720:	00000021 	move	zero,zero
    9724:	00000021 	move	zero,zero
    9728:	00000021 	move	zero,zero
    972c:	00000021 	move	zero,zero
    9730:	00000021 	move	zero,zero
    9734:	00000021 	move	zero,zero
    9738:	00000021 	move	zero,zero
    973c:	00000021 	move	zero,zero
    9740:	00000021 	move	zero,zero
    9744:	00000021 	move	zero,zero
    9748:	00000021 	move	zero,zero
    974c:	00000021 	move	zero,zero
    9750:	00000021 	move	zero,zero
    9754:	3c127acd 	lui	s2,0x7acd
    9758:	36526378 	ori	s2,s2,0x6378
    975c:	00000000 	nop
    9760:	3c14c6f7 	lui	s4,0xc6f7
    9764:	369425de 	ori	s4,s4,0x25de
    9768:	1614038f 	bne	s0,s4,a5a8 <inst_error>
    976c:	00000000 	nop
    9770:	00000000 	nop
    9774:	3c157acd 	lui	s5,0x7acd
    9778:	36b56378 	ori	s5,s5,0x6378
    977c:	1655038a 	bne	s2,s5,a5a8 <inst_error>
    9780:	00000000 	nop
    9784:	00000000 	nop
    9788:	3c0cdbe4 	lui	t4,0xdbe4
    978c:	358ccb34 	ori	t4,t4,0xcb34
    9790:	3c0db66e 	lui	t5,0xb66e
    9794:	35ad9b84 	ori	t5,t5,0x9b84
    9798:	24100000 	li	s0,0
    979c:	24120000 	li	s2,0
    97a0:	3c080001 	lui	t0,0x1
    97a4:	250897bc 	addiu	t0,t0,-26692
    97a8:	3c090001 	lui	t1,0x1
    97ac:	25299828 	addiu	t1,t1,-26584
    97b0:	1000000b 	b	97e0 <n39_jr_test+0x97e0>
    97b4:	00000000 	nop
    97b8:	00000000 	nop
    97bc:	3c10dbe4 	lui	s0,0xdbe4
    97c0:	01200008 	jr	t1
    97c4:	3610cb34 	ori	s0,s0,0xcb34
    97c8:	10000019 	b	9830 <n39_jr_test+0x9830>
    97cc:	00000000 	nop
    97d0:	00000000 	nop
    97d4:	00000021 	move	zero,zero
    97d8:	00000021 	move	zero,zero
    97dc:	00000021 	move	zero,zero
    97e0:	01000008 	jr	t0
    97e4:	00000000 	nop
    97e8:	10000011 	b	9830 <n39_jr_test+0x9830>
    97ec:	00000000 	nop
    97f0:	00000000 	nop
    97f4:	00000021 	move	zero,zero
    97f8:	00000021 	move	zero,zero
    97fc:	00000021 	move	zero,zero
    9800:	00000021 	move	zero,zero
    9804:	00000021 	move	zero,zero
    9808:	00000021 	move	zero,zero
    980c:	00000021 	move	zero,zero
    9810:	00000021 	move	zero,zero
    9814:	00000021 	move	zero,zero
    9818:	00000021 	move	zero,zero
    981c:	00000021 	move	zero,zero
    9820:	00000021 	move	zero,zero
    9824:	00000021 	move	zero,zero
    9828:	3c12b66e 	lui	s2,0xb66e
    982c:	36529b84 	ori	s2,s2,0x9b84
    9830:	00000000 	nop
    9834:	3c14dbe4 	lui	s4,0xdbe4
    9838:	3694cb34 	ori	s4,s4,0xcb34
    983c:	1614035a 	bne	s0,s4,a5a8 <inst_error>
    9840:	00000000 	nop
    9844:	00000000 	nop
    9848:	3c15b66e 	lui	s5,0xb66e
    984c:	36b59b84 	ori	s5,s5,0x9b84
    9850:	16550355 	bne	s2,s5,a5a8 <inst_error>
    9854:	00000000 	nop
    9858:	00000000 	nop
    985c:	3c0c5b4b 	lui	t4,0x5b4b
    9860:	358ce384 	ori	t4,t4,0xe384
    9864:	3c0dedd9 	lui	t5,0xedd9
    9868:	35ad2dd4 	ori	t5,t5,0x2dd4
    986c:	24100000 	li	s0,0
    9870:	24120000 	li	s2,0
    9874:	3c080001 	lui	t0,0x1
    9878:	25089890 	addiu	t0,t0,-26480
    987c:	3c090001 	lui	t1,0x1
    9880:	252998fc 	addiu	t1,t1,-26372
    9884:	1000000b 	b	98b4 <n39_jr_test+0x98b4>
    9888:	00000000 	nop
    988c:	00000000 	nop
    9890:	3c105b4b 	lui	s0,0x5b4b
    9894:	01200008 	jr	t1
    9898:	3610e384 	ori	s0,s0,0xe384
    989c:	10000019 	b	9904 <n39_jr_test+0x9904>
    98a0:	00000000 	nop
    98a4:	00000000 	nop
    98a8:	00000021 	move	zero,zero
    98ac:	00000021 	move	zero,zero
    98b0:	00000021 	move	zero,zero
    98b4:	01000008 	jr	t0
    98b8:	00000000 	nop
    98bc:	10000011 	b	9904 <n39_jr_test+0x9904>
    98c0:	00000000 	nop
    98c4:	00000000 	nop
    98c8:	00000021 	move	zero,zero
    98cc:	00000021 	move	zero,zero
    98d0:	00000021 	move	zero,zero
    98d4:	00000021 	move	zero,zero
    98d8:	00000021 	move	zero,zero
    98dc:	00000021 	move	zero,zero
    98e0:	00000021 	move	zero,zero
    98e4:	00000021 	move	zero,zero
    98e8:	00000021 	move	zero,zero
    98ec:	00000021 	move	zero,zero
    98f0:	00000021 	move	zero,zero
    98f4:	00000021 	move	zero,zero
    98f8:	00000021 	move	zero,zero
    98fc:	3c12edd9 	lui	s2,0xedd9
    9900:	36522dd4 	ori	s2,s2,0x2dd4
    9904:	00000000 	nop
    9908:	3c145b4b 	lui	s4,0x5b4b
    990c:	3694e384 	ori	s4,s4,0xe384
    9910:	16140325 	bne	s0,s4,a5a8 <inst_error>
    9914:	00000000 	nop
    9918:	00000000 	nop
    991c:	3c15edd9 	lui	s5,0xedd9
    9920:	36b52dd4 	ori	s5,s5,0x2dd4
    9924:	16550320 	bne	s2,s5,a5a8 <inst_error>
    9928:	00000000 	nop
    992c:	00000000 	nop
    9930:	3c0cf697 	lui	t4,0xf697
    9934:	358c4e30 	ori	t4,t4,0x4e30
    9938:	3c0dbb1d 	lui	t5,0xbb1d
    993c:	35ad2610 	ori	t5,t5,0x2610
    9940:	24100000 	li	s0,0
    9944:	24120000 	li	s2,0
    9948:	3c080001 	lui	t0,0x1
    994c:	25089964 	addiu	t0,t0,-26268
    9950:	3c090001 	lui	t1,0x1
    9954:	252999d0 	addiu	t1,t1,-26160
    9958:	1000000b 	b	9988 <n39_jr_test+0x9988>
    995c:	00000000 	nop
    9960:	00000000 	nop
    9964:	3c10f697 	lui	s0,0xf697
    9968:	01200008 	jr	t1
    996c:	36104e30 	ori	s0,s0,0x4e30
    9970:	10000019 	b	99d8 <n39_jr_test+0x99d8>
    9974:	00000000 	nop
    9978:	00000000 	nop
    997c:	00000021 	move	zero,zero
    9980:	00000021 	move	zero,zero
    9984:	00000021 	move	zero,zero
    9988:	01000008 	jr	t0
    998c:	00000000 	nop
    9990:	10000011 	b	99d8 <n39_jr_test+0x99d8>
    9994:	00000000 	nop
    9998:	00000000 	nop
    999c:	00000021 	move	zero,zero
    99a0:	00000021 	move	zero,zero
    99a4:	00000021 	move	zero,zero
    99a8:	00000021 	move	zero,zero
    99ac:	00000021 	move	zero,zero
    99b0:	00000021 	move	zero,zero
    99b4:	00000021 	move	zero,zero
    99b8:	00000021 	move	zero,zero
    99bc:	00000021 	move	zero,zero
    99c0:	00000021 	move	zero,zero
    99c4:	00000021 	move	zero,zero
    99c8:	00000021 	move	zero,zero
    99cc:	00000021 	move	zero,zero
    99d0:	3c12bb1d 	lui	s2,0xbb1d
    99d4:	36522610 	ori	s2,s2,0x2610
    99d8:	00000000 	nop
    99dc:	3c14f697 	lui	s4,0xf697
    99e0:	36944e30 	ori	s4,s4,0x4e30
    99e4:	161402f0 	bne	s0,s4,a5a8 <inst_error>
    99e8:	00000000 	nop
    99ec:	00000000 	nop
    99f0:	3c15bb1d 	lui	s5,0xbb1d
    99f4:	36b52610 	ori	s5,s5,0x2610
    99f8:	165502eb 	bne	s2,s5,a5a8 <inst_error>
    99fc:	00000000 	nop
    9a00:	00000000 	nop
    9a04:	3c0cbea9 	lui	t4,0xbea9
    9a08:	358c6e98 	ori	t4,t4,0x6e98
    9a0c:	3c0dc486 	lui	t5,0xc486
    9a10:	35ad75cc 	ori	t5,t5,0x75cc
    9a14:	24100000 	li	s0,0
    9a18:	24120000 	li	s2,0
    9a1c:	3c080001 	lui	t0,0x1
    9a20:	25089a38 	addiu	t0,t0,-26056
    9a24:	3c090001 	lui	t1,0x1
    9a28:	25299aa4 	addiu	t1,t1,-25948
    9a2c:	1000000b 	b	9a5c <n39_jr_test+0x9a5c>
    9a30:	00000000 	nop
    9a34:	00000000 	nop
    9a38:	3c10bea9 	lui	s0,0xbea9
    9a3c:	01200008 	jr	t1
    9a40:	36106e98 	ori	s0,s0,0x6e98
    9a44:	10000019 	b	9aac <n39_jr_test+0x9aac>
    9a48:	00000000 	nop
    9a4c:	00000000 	nop
    9a50:	00000021 	move	zero,zero
    9a54:	00000021 	move	zero,zero
    9a58:	00000021 	move	zero,zero
    9a5c:	01000008 	jr	t0
    9a60:	00000000 	nop
    9a64:	10000011 	b	9aac <n39_jr_test+0x9aac>
    9a68:	00000000 	nop
    9a6c:	00000000 	nop
    9a70:	00000021 	move	zero,zero
    9a74:	00000021 	move	zero,zero
    9a78:	00000021 	move	zero,zero
    9a7c:	00000021 	move	zero,zero
    9a80:	00000021 	move	zero,zero
    9a84:	00000021 	move	zero,zero
    9a88:	00000021 	move	zero,zero
    9a8c:	00000021 	move	zero,zero
    9a90:	00000021 	move	zero,zero
    9a94:	00000021 	move	zero,zero
    9a98:	00000021 	move	zero,zero
    9a9c:	00000021 	move	zero,zero
    9aa0:	00000021 	move	zero,zero
    9aa4:	3c12c486 	lui	s2,0xc486
    9aa8:	365275cc 	ori	s2,s2,0x75cc
    9aac:	00000000 	nop
    9ab0:	3c14bea9 	lui	s4,0xbea9
    9ab4:	36946e98 	ori	s4,s4,0x6e98
    9ab8:	161402bb 	bne	s0,s4,a5a8 <inst_error>
    9abc:	00000000 	nop
    9ac0:	00000000 	nop
    9ac4:	3c15c486 	lui	s5,0xc486
    9ac8:	36b575cc 	ori	s5,s5,0x75cc
    9acc:	165502b6 	bne	s2,s5,a5a8 <inst_error>
    9ad0:	00000000 	nop
    9ad4:	00000000 	nop
    9ad8:	3c0c7cf1 	lui	t4,0x7cf1
    9adc:	358cb198 	ori	t4,t4,0xb198
    9ae0:	3c0dc137 	lui	t5,0xc137
    9ae4:	35ad6e72 	ori	t5,t5,0x6e72
    9ae8:	24100000 	li	s0,0
    9aec:	24120000 	li	s2,0
    9af0:	3c080001 	lui	t0,0x1
    9af4:	25089b0c 	addiu	t0,t0,-25844
    9af8:	3c090001 	lui	t1,0x1
    9afc:	25299b78 	addiu	t1,t1,-25736
    9b00:	1000000b 	b	9b30 <n39_jr_test+0x9b30>
    9b04:	00000000 	nop
    9b08:	00000000 	nop
    9b0c:	3c107cf1 	lui	s0,0x7cf1
    9b10:	01200008 	jr	t1
    9b14:	3610b198 	ori	s0,s0,0xb198
    9b18:	10000019 	b	9b80 <n39_jr_test+0x9b80>
    9b1c:	00000000 	nop
    9b20:	00000000 	nop
    9b24:	00000021 	move	zero,zero
    9b28:	00000021 	move	zero,zero
    9b2c:	00000021 	move	zero,zero
    9b30:	01000008 	jr	t0
    9b34:	00000000 	nop
    9b38:	10000011 	b	9b80 <n39_jr_test+0x9b80>
    9b3c:	00000000 	nop
    9b40:	00000000 	nop
    9b44:	00000021 	move	zero,zero
    9b48:	00000021 	move	zero,zero
    9b4c:	00000021 	move	zero,zero
    9b50:	00000021 	move	zero,zero
    9b54:	00000021 	move	zero,zero
    9b58:	00000021 	move	zero,zero
    9b5c:	00000021 	move	zero,zero
    9b60:	00000021 	move	zero,zero
    9b64:	00000021 	move	zero,zero
    9b68:	00000021 	move	zero,zero
    9b6c:	00000021 	move	zero,zero
    9b70:	00000021 	move	zero,zero
    9b74:	00000021 	move	zero,zero
    9b78:	3c12c137 	lui	s2,0xc137
    9b7c:	36526e72 	ori	s2,s2,0x6e72
    9b80:	00000000 	nop
    9b84:	3c147cf1 	lui	s4,0x7cf1
    9b88:	3694b198 	ori	s4,s4,0xb198
    9b8c:	16140286 	bne	s0,s4,a5a8 <inst_error>
    9b90:	00000000 	nop
    9b94:	00000000 	nop
    9b98:	3c15c137 	lui	s5,0xc137
    9b9c:	36b56e72 	ori	s5,s5,0x6e72
    9ba0:	16550281 	bne	s2,s5,a5a8 <inst_error>
    9ba4:	00000000 	nop
    9ba8:	00000000 	nop
    9bac:	3c0c9d6d 	lui	t4,0x9d6d
    9bb0:	358cad80 	ori	t4,t4,0xad80
    9bb4:	3c0db78c 	lui	t5,0xb78c
    9bb8:	35ad218b 	ori	t5,t5,0x218b
    9bbc:	24100000 	li	s0,0
    9bc0:	24120000 	li	s2,0
    9bc4:	3c080001 	lui	t0,0x1
    9bc8:	25089be0 	addiu	t0,t0,-25632
    9bcc:	3c090001 	lui	t1,0x1
    9bd0:	25299c4c 	addiu	t1,t1,-25524
    9bd4:	1000000b 	b	9c04 <n39_jr_test+0x9c04>
    9bd8:	00000000 	nop
    9bdc:	00000000 	nop
    9be0:	3c109d6d 	lui	s0,0x9d6d
    9be4:	01200008 	jr	t1
    9be8:	3610ad80 	ori	s0,s0,0xad80
    9bec:	10000019 	b	9c54 <n39_jr_test+0x9c54>
    9bf0:	00000000 	nop
    9bf4:	00000000 	nop
    9bf8:	00000021 	move	zero,zero
    9bfc:	00000021 	move	zero,zero
    9c00:	00000021 	move	zero,zero
    9c04:	01000008 	jr	t0
    9c08:	00000000 	nop
    9c0c:	10000011 	b	9c54 <n39_jr_test+0x9c54>
    9c10:	00000000 	nop
    9c14:	00000000 	nop
    9c18:	00000021 	move	zero,zero
    9c1c:	00000021 	move	zero,zero
    9c20:	00000021 	move	zero,zero
    9c24:	00000021 	move	zero,zero
    9c28:	00000021 	move	zero,zero
    9c2c:	00000021 	move	zero,zero
    9c30:	00000021 	move	zero,zero
    9c34:	00000021 	move	zero,zero
    9c38:	00000021 	move	zero,zero
    9c3c:	00000021 	move	zero,zero
    9c40:	00000021 	move	zero,zero
    9c44:	00000021 	move	zero,zero
    9c48:	00000021 	move	zero,zero
    9c4c:	3c12b78c 	lui	s2,0xb78c
    9c50:	3652218b 	ori	s2,s2,0x218b
    9c54:	00000000 	nop
    9c58:	3c149d6d 	lui	s4,0x9d6d
    9c5c:	3694ad80 	ori	s4,s4,0xad80
    9c60:	16140251 	bne	s0,s4,a5a8 <inst_error>
    9c64:	00000000 	nop
    9c68:	00000000 	nop
    9c6c:	3c15b78c 	lui	s5,0xb78c
    9c70:	36b5218b 	ori	s5,s5,0x218b
    9c74:	1655024c 	bne	s2,s5,a5a8 <inst_error>
    9c78:	00000000 	nop
    9c7c:	00000000 	nop
    9c80:	3c0c1296 	lui	t4,0x1296
    9c84:	358cb21e 	ori	t4,t4,0xb21e
    9c88:	3c0d2685 	lui	t5,0x2685
    9c8c:	35ade4dc 	ori	t5,t5,0xe4dc
    9c90:	24100000 	li	s0,0
    9c94:	24120000 	li	s2,0
    9c98:	3c080001 	lui	t0,0x1
    9c9c:	25089cb4 	addiu	t0,t0,-25420
    9ca0:	3c090001 	lui	t1,0x1
    9ca4:	25299d20 	addiu	t1,t1,-25312
    9ca8:	1000000b 	b	9cd8 <n39_jr_test+0x9cd8>
    9cac:	00000000 	nop
    9cb0:	00000000 	nop
    9cb4:	3c101296 	lui	s0,0x1296
    9cb8:	01200008 	jr	t1
    9cbc:	3610b21e 	ori	s0,s0,0xb21e
    9cc0:	10000019 	b	9d28 <n39_jr_test+0x9d28>
    9cc4:	00000000 	nop
    9cc8:	00000000 	nop
    9ccc:	00000021 	move	zero,zero
    9cd0:	00000021 	move	zero,zero
    9cd4:	00000021 	move	zero,zero
    9cd8:	01000008 	jr	t0
    9cdc:	00000000 	nop
    9ce0:	10000011 	b	9d28 <n39_jr_test+0x9d28>
    9ce4:	00000000 	nop
    9ce8:	00000000 	nop
    9cec:	00000021 	move	zero,zero
    9cf0:	00000021 	move	zero,zero
    9cf4:	00000021 	move	zero,zero
    9cf8:	00000021 	move	zero,zero
    9cfc:	00000021 	move	zero,zero
    9d00:	00000021 	move	zero,zero
    9d04:	00000021 	move	zero,zero
    9d08:	00000021 	move	zero,zero
    9d0c:	00000021 	move	zero,zero
    9d10:	00000021 	move	zero,zero
    9d14:	00000021 	move	zero,zero
    9d18:	00000021 	move	zero,zero
    9d1c:	00000021 	move	zero,zero
    9d20:	3c122685 	lui	s2,0x2685
    9d24:	3652e4dc 	ori	s2,s2,0xe4dc
    9d28:	00000000 	nop
    9d2c:	3c141296 	lui	s4,0x1296
    9d30:	3694b21e 	ori	s4,s4,0xb21e
    9d34:	1614021c 	bne	s0,s4,a5a8 <inst_error>
    9d38:	00000000 	nop
    9d3c:	00000000 	nop
    9d40:	3c152685 	lui	s5,0x2685
    9d44:	36b5e4dc 	ori	s5,s5,0xe4dc
    9d48:	16550217 	bne	s2,s5,a5a8 <inst_error>
    9d4c:	00000000 	nop
    9d50:	00000000 	nop
    9d54:	3c0c65bf 	lui	t4,0x65bf
    9d58:	358c9398 	ori	t4,t4,0x9398
    9d5c:	3c0dc0cd 	lui	t5,0xc0cd
    9d60:	35adaa38 	ori	t5,t5,0xaa38
    9d64:	24100000 	li	s0,0
    9d68:	24120000 	li	s2,0
    9d6c:	3c080001 	lui	t0,0x1
    9d70:	25089d88 	addiu	t0,t0,-25208
    9d74:	3c090001 	lui	t1,0x1
    9d78:	25299df4 	addiu	t1,t1,-25100
    9d7c:	1000000b 	b	9dac <n39_jr_test+0x9dac>
    9d80:	00000000 	nop
    9d84:	00000000 	nop
    9d88:	3c1065bf 	lui	s0,0x65bf
    9d8c:	01200008 	jr	t1
    9d90:	36109398 	ori	s0,s0,0x9398
    9d94:	10000019 	b	9dfc <n39_jr_test+0x9dfc>
    9d98:	00000000 	nop
    9d9c:	00000000 	nop
    9da0:	00000021 	move	zero,zero
    9da4:	00000021 	move	zero,zero
    9da8:	00000021 	move	zero,zero
    9dac:	01000008 	jr	t0
    9db0:	00000000 	nop
    9db4:	10000011 	b	9dfc <n39_jr_test+0x9dfc>
    9db8:	00000000 	nop
    9dbc:	00000000 	nop
    9dc0:	00000021 	move	zero,zero
    9dc4:	00000021 	move	zero,zero
    9dc8:	00000021 	move	zero,zero
    9dcc:	00000021 	move	zero,zero
    9dd0:	00000021 	move	zero,zero
    9dd4:	00000021 	move	zero,zero
    9dd8:	00000021 	move	zero,zero
    9ddc:	00000021 	move	zero,zero
    9de0:	00000021 	move	zero,zero
    9de4:	00000021 	move	zero,zero
    9de8:	00000021 	move	zero,zero
    9dec:	00000021 	move	zero,zero
    9df0:	00000021 	move	zero,zero
    9df4:	3c12c0cd 	lui	s2,0xc0cd
    9df8:	3652aa38 	ori	s2,s2,0xaa38
    9dfc:	00000000 	nop
    9e00:	3c1465bf 	lui	s4,0x65bf
    9e04:	36949398 	ori	s4,s4,0x9398
    9e08:	161401e7 	bne	s0,s4,a5a8 <inst_error>
    9e0c:	00000000 	nop
    9e10:	00000000 	nop
    9e14:	3c15c0cd 	lui	s5,0xc0cd
    9e18:	36b5aa38 	ori	s5,s5,0xaa38
    9e1c:	165501e2 	bne	s2,s5,a5a8 <inst_error>
    9e20:	00000000 	nop
    9e24:	00000000 	nop
    9e28:	3c0c06c4 	lui	t4,0x6c4
    9e2c:	358c59fa 	ori	t4,t4,0x59fa
    9e30:	3c0d1534 	lui	t5,0x1534
    9e34:	35adec50 	ori	t5,t5,0xec50
    9e38:	24100000 	li	s0,0
    9e3c:	24120000 	li	s2,0
    9e40:	3c080001 	lui	t0,0x1
    9e44:	25089e5c 	addiu	t0,t0,-24996
    9e48:	3c090001 	lui	t1,0x1
    9e4c:	25299ec8 	addiu	t1,t1,-24888
    9e50:	1000000b 	b	9e80 <n39_jr_test+0x9e80>
    9e54:	00000000 	nop
    9e58:	00000000 	nop
    9e5c:	3c1006c4 	lui	s0,0x6c4
    9e60:	01200008 	jr	t1
    9e64:	361059fa 	ori	s0,s0,0x59fa
    9e68:	10000019 	b	9ed0 <n39_jr_test+0x9ed0>
    9e6c:	00000000 	nop
    9e70:	00000000 	nop
    9e74:	00000021 	move	zero,zero
    9e78:	00000021 	move	zero,zero
    9e7c:	00000021 	move	zero,zero
    9e80:	01000008 	jr	t0
    9e84:	00000000 	nop
    9e88:	10000011 	b	9ed0 <n39_jr_test+0x9ed0>
    9e8c:	00000000 	nop
    9e90:	00000000 	nop
    9e94:	00000021 	move	zero,zero
    9e98:	00000021 	move	zero,zero
    9e9c:	00000021 	move	zero,zero
    9ea0:	00000021 	move	zero,zero
    9ea4:	00000021 	move	zero,zero
    9ea8:	00000021 	move	zero,zero
    9eac:	00000021 	move	zero,zero
    9eb0:	00000021 	move	zero,zero
    9eb4:	00000021 	move	zero,zero
    9eb8:	00000021 	move	zero,zero
    9ebc:	00000021 	move	zero,zero
    9ec0:	00000021 	move	zero,zero
    9ec4:	00000021 	move	zero,zero
    9ec8:	3c121534 	lui	s2,0x1534
    9ecc:	3652ec50 	ori	s2,s2,0xec50
    9ed0:	00000000 	nop
    9ed4:	3c1406c4 	lui	s4,0x6c4
    9ed8:	369459fa 	ori	s4,s4,0x59fa
    9edc:	161401b2 	bne	s0,s4,a5a8 <inst_error>
    9ee0:	00000000 	nop
    9ee4:	00000000 	nop
    9ee8:	3c151534 	lui	s5,0x1534
    9eec:	36b5ec50 	ori	s5,s5,0xec50
    9ef0:	165501ad 	bne	s2,s5,a5a8 <inst_error>
    9ef4:	00000000 	nop
    9ef8:	00000000 	nop
    9efc:	3c0c78fb 	lui	t4,0x78fb
    9f00:	358c5d78 	ori	t4,t4,0x5d78
    9f04:	3c0de49b 	lui	t5,0xe49b
    9f08:	35ad9e24 	ori	t5,t5,0x9e24
    9f0c:	24100000 	li	s0,0
    9f10:	24120000 	li	s2,0
    9f14:	3c080001 	lui	t0,0x1
    9f18:	25089f30 	addiu	t0,t0,-24784
    9f1c:	3c090001 	lui	t1,0x1
    9f20:	25299f9c 	addiu	t1,t1,-24676
    9f24:	1000000b 	b	9f54 <n39_jr_test+0x9f54>
    9f28:	00000000 	nop
    9f2c:	00000000 	nop
    9f30:	3c1078fb 	lui	s0,0x78fb
    9f34:	01200008 	jr	t1
    9f38:	36105d78 	ori	s0,s0,0x5d78
    9f3c:	10000019 	b	9fa4 <n39_jr_test+0x9fa4>
    9f40:	00000000 	nop
    9f44:	00000000 	nop
    9f48:	00000021 	move	zero,zero
    9f4c:	00000021 	move	zero,zero
    9f50:	00000021 	move	zero,zero
    9f54:	01000008 	jr	t0
    9f58:	00000000 	nop
    9f5c:	10000011 	b	9fa4 <n39_jr_test+0x9fa4>
    9f60:	00000000 	nop
    9f64:	00000000 	nop
    9f68:	00000021 	move	zero,zero
    9f6c:	00000021 	move	zero,zero
    9f70:	00000021 	move	zero,zero
    9f74:	00000021 	move	zero,zero
    9f78:	00000021 	move	zero,zero
    9f7c:	00000021 	move	zero,zero
    9f80:	00000021 	move	zero,zero
    9f84:	00000021 	move	zero,zero
    9f88:	00000021 	move	zero,zero
    9f8c:	00000021 	move	zero,zero
    9f90:	00000021 	move	zero,zero
    9f94:	00000021 	move	zero,zero
    9f98:	00000021 	move	zero,zero
    9f9c:	3c12e49b 	lui	s2,0xe49b
    9fa0:	36529e24 	ori	s2,s2,0x9e24
    9fa4:	00000000 	nop
    9fa8:	3c1478fb 	lui	s4,0x78fb
    9fac:	36945d78 	ori	s4,s4,0x5d78
    9fb0:	1614017d 	bne	s0,s4,a5a8 <inst_error>
    9fb4:	00000000 	nop
    9fb8:	00000000 	nop
    9fbc:	3c15e49b 	lui	s5,0xe49b
    9fc0:	36b59e24 	ori	s5,s5,0x9e24
    9fc4:	16550178 	bne	s2,s5,a5a8 <inst_error>
    9fc8:	00000000 	nop
    9fcc:	00000000 	nop
    9fd0:	3c0c818f 	lui	t4,0x818f
    9fd4:	358c7ac0 	ori	t4,t4,0x7ac0
    9fd8:	3c0d05db 	lui	t5,0x5db
    9fdc:	35ad1f90 	ori	t5,t5,0x1f90
    9fe0:	24100000 	li	s0,0
    9fe4:	24120000 	li	s2,0
    9fe8:	3c080001 	lui	t0,0x1
    9fec:	2508a004 	addiu	t0,t0,-24572
    9ff0:	3c090001 	lui	t1,0x1
    9ff4:	2529a070 	addiu	t1,t1,-24464
    9ff8:	1000000b 	b	a028 <n39_jr_test+0xa028>
    9ffc:	00000000 	nop
    a000:	00000000 	nop
    a004:	3c10818f 	lui	s0,0x818f
    a008:	01200008 	jr	t1
    a00c:	36107ac0 	ori	s0,s0,0x7ac0
    a010:	10000019 	b	a078 <n39_jr_test+0xa078>
    a014:	00000000 	nop
    a018:	00000000 	nop
    a01c:	00000021 	move	zero,zero
    a020:	00000021 	move	zero,zero
    a024:	00000021 	move	zero,zero
    a028:	01000008 	jr	t0
    a02c:	00000000 	nop
    a030:	10000011 	b	a078 <n39_jr_test+0xa078>
    a034:	00000000 	nop
    a038:	00000000 	nop
    a03c:	00000021 	move	zero,zero
    a040:	00000021 	move	zero,zero
    a044:	00000021 	move	zero,zero
    a048:	00000021 	move	zero,zero
    a04c:	00000021 	move	zero,zero
    a050:	00000021 	move	zero,zero
    a054:	00000021 	move	zero,zero
    a058:	00000021 	move	zero,zero
    a05c:	00000021 	move	zero,zero
    a060:	00000021 	move	zero,zero
    a064:	00000021 	move	zero,zero
    a068:	00000021 	move	zero,zero
    a06c:	00000021 	move	zero,zero
    a070:	3c1205db 	lui	s2,0x5db
    a074:	36521f90 	ori	s2,s2,0x1f90
    a078:	00000000 	nop
    a07c:	3c14818f 	lui	s4,0x818f
    a080:	36947ac0 	ori	s4,s4,0x7ac0
    a084:	16140148 	bne	s0,s4,a5a8 <inst_error>
    a088:	00000000 	nop
    a08c:	00000000 	nop
    a090:	3c1505db 	lui	s5,0x5db
    a094:	36b51f90 	ori	s5,s5,0x1f90
    a098:	16550143 	bne	s2,s5,a5a8 <inst_error>
    a09c:	00000000 	nop
    a0a0:	00000000 	nop
    a0a4:	3c0c8c99 	lui	t4,0x8c99
    a0a8:	358c30e2 	ori	t4,t4,0x30e2
    a0ac:	3c0da0d9 	lui	t5,0xa0d9
    a0b0:	35ad7416 	ori	t5,t5,0x7416
    a0b4:	24100000 	li	s0,0
    a0b8:	24120000 	li	s2,0
    a0bc:	3c080001 	lui	t0,0x1
    a0c0:	2508a0d8 	addiu	t0,t0,-24360
    a0c4:	3c090001 	lui	t1,0x1
    a0c8:	2529a144 	addiu	t1,t1,-24252
    a0cc:	1000000b 	b	a0fc <n39_jr_test+0xa0fc>
    a0d0:	00000000 	nop
    a0d4:	00000000 	nop
    a0d8:	3c108c99 	lui	s0,0x8c99
    a0dc:	01200008 	jr	t1
    a0e0:	361030e2 	ori	s0,s0,0x30e2
    a0e4:	10000019 	b	a14c <n39_jr_test+0xa14c>
    a0e8:	00000000 	nop
    a0ec:	00000000 	nop
    a0f0:	00000021 	move	zero,zero
    a0f4:	00000021 	move	zero,zero
    a0f8:	00000021 	move	zero,zero
    a0fc:	01000008 	jr	t0
    a100:	00000000 	nop
    a104:	10000011 	b	a14c <n39_jr_test+0xa14c>
    a108:	00000000 	nop
    a10c:	00000000 	nop
    a110:	00000021 	move	zero,zero
    a114:	00000021 	move	zero,zero
    a118:	00000021 	move	zero,zero
    a11c:	00000021 	move	zero,zero
    a120:	00000021 	move	zero,zero
    a124:	00000021 	move	zero,zero
    a128:	00000021 	move	zero,zero
    a12c:	00000021 	move	zero,zero
    a130:	00000021 	move	zero,zero
    a134:	00000021 	move	zero,zero
    a138:	00000021 	move	zero,zero
    a13c:	00000021 	move	zero,zero
    a140:	00000021 	move	zero,zero
    a144:	3c12a0d9 	lui	s2,0xa0d9
    a148:	36527416 	ori	s2,s2,0x7416
    a14c:	00000000 	nop
    a150:	3c148c99 	lui	s4,0x8c99
    a154:	369430e2 	ori	s4,s4,0x30e2
    a158:	16140113 	bne	s0,s4,a5a8 <inst_error>
    a15c:	00000000 	nop
    a160:	00000000 	nop
    a164:	3c15a0d9 	lui	s5,0xa0d9
    a168:	36b57416 	ori	s5,s5,0x7416
    a16c:	1655010e 	bne	s2,s5,a5a8 <inst_error>
    a170:	00000000 	nop
    a174:	00000000 	nop
    a178:	3c0ca7f0 	lui	t4,0xa7f0
    a17c:	358cf822 	ori	t4,t4,0xf822
    a180:	3c0d88b7 	lui	t5,0x88b7
    a184:	35ad2e42 	ori	t5,t5,0x2e42
    a188:	24100000 	li	s0,0
    a18c:	24120000 	li	s2,0
    a190:	3c080001 	lui	t0,0x1
    a194:	2508a1ac 	addiu	t0,t0,-24148
    a198:	3c090001 	lui	t1,0x1
    a19c:	2529a218 	addiu	t1,t1,-24040
    a1a0:	1000000b 	b	a1d0 <n39_jr_test+0xa1d0>
    a1a4:	00000000 	nop
    a1a8:	00000000 	nop
    a1ac:	3c10a7f0 	lui	s0,0xa7f0
    a1b0:	01200008 	jr	t1
    a1b4:	3610f822 	ori	s0,s0,0xf822
    a1b8:	10000019 	b	a220 <n39_jr_test+0xa220>
    a1bc:	00000000 	nop
    a1c0:	00000000 	nop
    a1c4:	00000021 	move	zero,zero
    a1c8:	00000021 	move	zero,zero
    a1cc:	00000021 	move	zero,zero
    a1d0:	01000008 	jr	t0
    a1d4:	00000000 	nop
    a1d8:	10000011 	b	a220 <n39_jr_test+0xa220>
    a1dc:	00000000 	nop
    a1e0:	00000000 	nop
    a1e4:	00000021 	move	zero,zero
    a1e8:	00000021 	move	zero,zero
    a1ec:	00000021 	move	zero,zero
    a1f0:	00000021 	move	zero,zero
    a1f4:	00000021 	move	zero,zero
    a1f8:	00000021 	move	zero,zero
    a1fc:	00000021 	move	zero,zero
    a200:	00000021 	move	zero,zero
    a204:	00000021 	move	zero,zero
    a208:	00000021 	move	zero,zero
    a20c:	00000021 	move	zero,zero
    a210:	00000021 	move	zero,zero
    a214:	00000021 	move	zero,zero
    a218:	3c1288b7 	lui	s2,0x88b7
    a21c:	36522e42 	ori	s2,s2,0x2e42
    a220:	00000000 	nop
    a224:	3c14a7f0 	lui	s4,0xa7f0
    a228:	3694f822 	ori	s4,s4,0xf822
    a22c:	161400de 	bne	s0,s4,a5a8 <inst_error>
    a230:	00000000 	nop
    a234:	00000000 	nop
    a238:	3c1588b7 	lui	s5,0x88b7
    a23c:	36b52e42 	ori	s5,s5,0x2e42
    a240:	165500d9 	bne	s2,s5,a5a8 <inst_error>
    a244:	00000000 	nop
    a248:	00000000 	nop
    a24c:	3c0c2acb 	lui	t4,0x2acb
    a250:	358c5040 	ori	t4,t4,0x5040
    a254:	3c0d6963 	lui	t5,0x6963
    a258:	35ada418 	ori	t5,t5,0xa418
    a25c:	24100000 	li	s0,0
    a260:	24120000 	li	s2,0
    a264:	3c080001 	lui	t0,0x1
    a268:	2508a280 	addiu	t0,t0,-23936
    a26c:	3c090001 	lui	t1,0x1
    a270:	2529a2ec 	addiu	t1,t1,-23828
    a274:	1000000b 	b	a2a4 <n39_jr_test+0xa2a4>
    a278:	00000000 	nop
    a27c:	00000000 	nop
    a280:	3c102acb 	lui	s0,0x2acb
    a284:	01200008 	jr	t1
    a288:	36105040 	ori	s0,s0,0x5040
    a28c:	10000019 	b	a2f4 <n39_jr_test+0xa2f4>
    a290:	00000000 	nop
    a294:	00000000 	nop
    a298:	00000021 	move	zero,zero
    a29c:	00000021 	move	zero,zero
    a2a0:	00000021 	move	zero,zero
    a2a4:	01000008 	jr	t0
    a2a8:	00000000 	nop
    a2ac:	10000011 	b	a2f4 <n39_jr_test+0xa2f4>
    a2b0:	00000000 	nop
    a2b4:	00000000 	nop
    a2b8:	00000021 	move	zero,zero
    a2bc:	00000021 	move	zero,zero
    a2c0:	00000021 	move	zero,zero
    a2c4:	00000021 	move	zero,zero
    a2c8:	00000021 	move	zero,zero
    a2cc:	00000021 	move	zero,zero
    a2d0:	00000021 	move	zero,zero
    a2d4:	00000021 	move	zero,zero
    a2d8:	00000021 	move	zero,zero
    a2dc:	00000021 	move	zero,zero
    a2e0:	00000021 	move	zero,zero
    a2e4:	00000021 	move	zero,zero
    a2e8:	00000021 	move	zero,zero
    a2ec:	3c126963 	lui	s2,0x6963
    a2f0:	3652a418 	ori	s2,s2,0xa418
    a2f4:	00000000 	nop
    a2f8:	3c142acb 	lui	s4,0x2acb
    a2fc:	36945040 	ori	s4,s4,0x5040
    a300:	161400a9 	bne	s0,s4,a5a8 <inst_error>
    a304:	00000000 	nop
    a308:	00000000 	nop
    a30c:	3c156963 	lui	s5,0x6963
    a310:	36b5a418 	ori	s5,s5,0xa418
    a314:	165500a4 	bne	s2,s5,a5a8 <inst_error>
    a318:	00000000 	nop
    a31c:	00000000 	nop
    a320:	3c0cb586 	lui	t4,0xb586
    a324:	358ce7b0 	ori	t4,t4,0xe7b0
    a328:	3c0de7dc 	lui	t5,0xe7dc
    a32c:	35ad4228 	ori	t5,t5,0x4228
    a330:	24100000 	li	s0,0
    a334:	24120000 	li	s2,0
    a338:	3c080001 	lui	t0,0x1
    a33c:	2508a354 	addiu	t0,t0,-23724
    a340:	3c090001 	lui	t1,0x1
    a344:	2529a3c0 	addiu	t1,t1,-23616
    a348:	1000000b 	b	a378 <n39_jr_test+0xa378>
    a34c:	00000000 	nop
    a350:	00000000 	nop
    a354:	3c10b586 	lui	s0,0xb586
    a358:	01200008 	jr	t1
    a35c:	3610e7b0 	ori	s0,s0,0xe7b0
    a360:	10000019 	b	a3c8 <n39_jr_test+0xa3c8>
    a364:	00000000 	nop
    a368:	00000000 	nop
    a36c:	00000021 	move	zero,zero
    a370:	00000021 	move	zero,zero
    a374:	00000021 	move	zero,zero
    a378:	01000008 	jr	t0
    a37c:	00000000 	nop
    a380:	10000011 	b	a3c8 <n39_jr_test+0xa3c8>
    a384:	00000000 	nop
    a388:	00000000 	nop
    a38c:	00000021 	move	zero,zero
    a390:	00000021 	move	zero,zero
    a394:	00000021 	move	zero,zero
    a398:	00000021 	move	zero,zero
    a39c:	00000021 	move	zero,zero
    a3a0:	00000021 	move	zero,zero
    a3a4:	00000021 	move	zero,zero
    a3a8:	00000021 	move	zero,zero
    a3ac:	00000021 	move	zero,zero
    a3b0:	00000021 	move	zero,zero
    a3b4:	00000021 	move	zero,zero
    a3b8:	00000021 	move	zero,zero
    a3bc:	00000021 	move	zero,zero
    a3c0:	3c12e7dc 	lui	s2,0xe7dc
    a3c4:	36524228 	ori	s2,s2,0x4228
    a3c8:	00000000 	nop
    a3cc:	3c14b586 	lui	s4,0xb586
    a3d0:	3694e7b0 	ori	s4,s4,0xe7b0
    a3d4:	16140074 	bne	s0,s4,a5a8 <inst_error>
    a3d8:	00000000 	nop
    a3dc:	00000000 	nop
    a3e0:	3c15e7dc 	lui	s5,0xe7dc
    a3e4:	36b54228 	ori	s5,s5,0x4228
    a3e8:	1655006f 	bne	s2,s5,a5a8 <inst_error>
    a3ec:	00000000 	nop
    a3f0:	00000000 	nop
    a3f4:	3c0c727c 	lui	t4,0x727c
    a3f8:	358c263e 	ori	t4,t4,0x263e
    a3fc:	3c0d6ed5 	lui	t5,0x6ed5
    a400:	35adf774 	ori	t5,t5,0xf774
    a404:	24100000 	li	s0,0
    a408:	24120000 	li	s2,0
    a40c:	3c080001 	lui	t0,0x1
    a410:	2508a428 	addiu	t0,t0,-23512
    a414:	3c090001 	lui	t1,0x1
    a418:	2529a494 	addiu	t1,t1,-23404
    a41c:	1000000b 	b	a44c <n39_jr_test+0xa44c>
    a420:	00000000 	nop
    a424:	00000000 	nop
    a428:	3c10727c 	lui	s0,0x727c
    a42c:	01200008 	jr	t1
    a430:	3610263e 	ori	s0,s0,0x263e
    a434:	10000019 	b	a49c <n39_jr_test+0xa49c>
    a438:	00000000 	nop
    a43c:	00000000 	nop
    a440:	00000021 	move	zero,zero
    a444:	00000021 	move	zero,zero
    a448:	00000021 	move	zero,zero
    a44c:	01000008 	jr	t0
    a450:	00000000 	nop
    a454:	10000011 	b	a49c <n39_jr_test+0xa49c>
    a458:	00000000 	nop
    a45c:	00000000 	nop
    a460:	00000021 	move	zero,zero
    a464:	00000021 	move	zero,zero
    a468:	00000021 	move	zero,zero
    a46c:	00000021 	move	zero,zero
    a470:	00000021 	move	zero,zero
    a474:	00000021 	move	zero,zero
    a478:	00000021 	move	zero,zero
    a47c:	00000021 	move	zero,zero
    a480:	00000021 	move	zero,zero
    a484:	00000021 	move	zero,zero
    a488:	00000021 	move	zero,zero
    a48c:	00000021 	move	zero,zero
    a490:	00000021 	move	zero,zero
    a494:	3c126ed5 	lui	s2,0x6ed5
    a498:	3652f774 	ori	s2,s2,0xf774
    a49c:	00000000 	nop
    a4a0:	3c14727c 	lui	s4,0x727c
    a4a4:	3694263e 	ori	s4,s4,0x263e
    a4a8:	1614003f 	bne	s0,s4,a5a8 <inst_error>
    a4ac:	00000000 	nop
    a4b0:	00000000 	nop
    a4b4:	3c156ed5 	lui	s5,0x6ed5
    a4b8:	36b5f774 	ori	s5,s5,0xf774
    a4bc:	1655003a 	bne	s2,s5,a5a8 <inst_error>
    a4c0:	00000000 	nop
    a4c4:	00000000 	nop
    a4c8:	3c0c8715 	lui	t4,0x8715
    a4cc:	358c1984 	ori	t4,t4,0x1984
    a4d0:	3c0d381f 	lui	t5,0x381f
    a4d4:	35add770 	ori	t5,t5,0xd770
    a4d8:	24100000 	li	s0,0
    a4dc:	24120000 	li	s2,0
    a4e0:	3c080001 	lui	t0,0x1
    a4e4:	2508a4fc 	addiu	t0,t0,-23300
    a4e8:	3c090001 	lui	t1,0x1
    a4ec:	2529a568 	addiu	t1,t1,-23192
    a4f0:	1000000b 	b	a520 <n39_jr_test+0xa520>
    a4f4:	00000000 	nop
    a4f8:	00000000 	nop
    a4fc:	3c108715 	lui	s0,0x8715
    a500:	01200008 	jr	t1
    a504:	36101984 	ori	s0,s0,0x1984
    a508:	10000019 	b	a570 <n39_jr_test+0xa570>
    a50c:	00000000 	nop
    a510:	00000000 	nop
    a514:	00000021 	move	zero,zero
    a518:	00000021 	move	zero,zero
    a51c:	00000021 	move	zero,zero
    a520:	01000008 	jr	t0
    a524:	00000000 	nop
    a528:	10000011 	b	a570 <n39_jr_test+0xa570>
    a52c:	00000000 	nop
    a530:	00000000 	nop
    a534:	00000021 	move	zero,zero
    a538:	00000021 	move	zero,zero
    a53c:	00000021 	move	zero,zero
    a540:	00000021 	move	zero,zero
    a544:	00000021 	move	zero,zero
    a548:	00000021 	move	zero,zero
    a54c:	00000021 	move	zero,zero
    a550:	00000021 	move	zero,zero
    a554:	00000021 	move	zero,zero
    a558:	00000021 	move	zero,zero
    a55c:	00000021 	move	zero,zero
    a560:	00000021 	move	zero,zero
    a564:	00000021 	move	zero,zero
    a568:	3c12381f 	lui	s2,0x381f
    a56c:	3652d770 	ori	s2,s2,0xd770
    a570:	00000000 	nop
    a574:	3c148715 	lui	s4,0x8715
    a578:	36941984 	ori	s4,s4,0x1984
    a57c:	1614000a 	bne	s0,s4,a5a8 <inst_error>
    a580:	00000000 	nop
    a584:	00000000 	nop
    a588:	3c15381f 	lui	s5,0x381f
    a58c:	36b5d770 	ori	s5,s5,0xd770
    a590:	16550005 	bne	s2,s5,a5a8 <inst_error>
    a594:	00000000 	nop
    a598:	14400003 	bnez	v0,a5a8 <inst_error>
    a59c:	00000000 	nop
    a5a0:	00000000 	nop
    a5a4:	26730001 	addiu	s3,s3,1

0000a5a8 <inst_error>:
    a5a8:	00934025 	or	t0,a0,s3
    a5ac:	03e00008 	jr	ra
    a5b0:	ae280000 	sw	t0,0(s1)
