00000000 <n40_jalr_test>:
       0:	3c042800 	lui	a0,0x2800
       4:	24020000 	li	v0,0
       8:	001fb021 	addu	s6,zero,ra
       c:	3c0c6e6b 	lui	t4,0x6e6b
      10:	358c362a 	ori	t4,t4,0x362a
      14:	3c0d240b 	lui	t5,0x240b
      18:	35adaf26 	ori	t5,t5,0xaf26
      1c:	24100000 	li	s0,0
      20:	3c080000 	lui	t0,0x0
      24:	2508003c 	addiu	t0,t0,60
      28:	3c090000 	lui	t1,0x0
      2c:	2529009c 	addiu	t1,t1,156
      30:	10000013 	b	80 <n40_jalr_test+0x80>
      34:	24120000 	li	s2,0
      38:	00000000 	nop
      3c:	3c106e6b 	lui	s0,0x6e6b
      40:	3610362a 	ori	s0,s0,0x362a
      44:	0120f809 	jalr	t1
      48:	00000000 	nop
      4c:	10000015 	b	a4 <n40_jalr_test+0xa4>
      50:	00000000 	nop
      54:	00000000 	nop
      58:	00000021 	move	zero,zero
      5c:	00000021 	move	zero,zero
      60:	00000021 	move	zero,zero
      64:	00000021 	move	zero,zero
      68:	00000021 	move	zero,zero
      6c:	00000021 	move	zero,zero
      70:	00000021 	move	zero,zero
      74:	00000021 	move	zero,zero
      78:	00000021 	move	zero,zero
      7c:	00000021 	move	zero,zero
      80:	0100f809 	jalr	t0
      84:	00000000 	nop
      88:	10000006 	b	a4 <n40_jalr_test+0xa4>
      8c:	00000000 	nop
      90:	00000000 	nop
      94:	00000021 	move	zero,zero
      98:	00000021 	move	zero,zero
      9c:	3c12240b 	lui	s2,0x240b
      a0:	3652af26 	ori	s2,s2,0xaf26
      a4:	001fa021 	addu	s4,zero,ra
      a8:	0016f821 	addu	ra,zero,s6
      ac:	3c150000 	lui	s5,0x0
      b0:	26b50044 	addiu	s5,s5,68
      b4:	3c0d6e6b 	lui	t5,0x6e6b
      b8:	35ad362a 	ori	t5,t5,0x362a
      bc:	160d2c5d 	bne	s0,t5,b234 <inst_error>
      c0:	00000000 	nop
      c4:	00000000 	nop
      c8:	3c0c240b 	lui	t4,0x240b
      cc:	358caf26 	ori	t4,t4,0xaf26
      d0:	164c2c58 	bne	s2,t4,b234 <inst_error>
      d4:	00000000 	nop
      d8:	00000000 	nop
      dc:	26b50008 	addiu	s5,s5,8
      e0:	16952c54 	bne	s4,s5,b234 <inst_error>
      e4:	00000000 	nop
      e8:	00000000 	nop
      ec:	001fb021 	addu	s6,zero,ra
      f0:	3c0c5d0f 	lui	t4,0x5d0f
      f4:	358ccbc0 	ori	t4,t4,0xcbc0
      f8:	3c0ddba3 	lui	t5,0xdba3
      fc:	35adac64 	ori	t5,t5,0xac64
     100:	24100000 	li	s0,0
     104:	3c080000 	lui	t0,0x0
     108:	25080120 	addiu	t0,t0,288
     10c:	3c090000 	lui	t1,0x0
     110:	25290180 	addiu	t1,t1,384
     114:	10000013 	b	164 <n40_jalr_test+0x164>
     118:	24120000 	li	s2,0
     11c:	00000000 	nop
     120:	3c105d0f 	lui	s0,0x5d0f
     124:	3610cbc0 	ori	s0,s0,0xcbc0
     128:	0120f809 	jalr	t1
     12c:	00000000 	nop
     130:	10000015 	b	188 <n40_jalr_test+0x188>
     134:	00000000 	nop
     138:	00000000 	nop
     13c:	00000021 	move	zero,zero
     140:	00000021 	move	zero,zero
     144:	00000021 	move	zero,zero
     148:	00000021 	move	zero,zero
     14c:	00000021 	move	zero,zero
     150:	00000021 	move	zero,zero
     154:	00000021 	move	zero,zero
     158:	00000021 	move	zero,zero
     15c:	00000021 	move	zero,zero
     160:	00000021 	move	zero,zero
     164:	0100f809 	jalr	t0
     168:	00000000 	nop
     16c:	10000006 	b	188 <n40_jalr_test+0x188>
     170:	00000000 	nop
     174:	00000000 	nop
     178:	00000021 	move	zero,zero
     17c:	00000021 	move	zero,zero
     180:	3c12dba3 	lui	s2,0xdba3
     184:	3652ac64 	ori	s2,s2,0xac64
     188:	001fa021 	addu	s4,zero,ra
     18c:	0016f821 	addu	ra,zero,s6
     190:	3c150000 	lui	s5,0x0
     194:	26b50128 	addiu	s5,s5,296
     198:	3c0d5d0f 	lui	t5,0x5d0f
     19c:	35adcbc0 	ori	t5,t5,0xcbc0
     1a0:	160d2c24 	bne	s0,t5,b234 <inst_error>
     1a4:	00000000 	nop
     1a8:	00000000 	nop
     1ac:	3c0cdba3 	lui	t4,0xdba3
     1b0:	358cac64 	ori	t4,t4,0xac64
     1b4:	164c2c1f 	bne	s2,t4,b234 <inst_error>
     1b8:	00000000 	nop
     1bc:	00000000 	nop
     1c0:	26b50008 	addiu	s5,s5,8
     1c4:	16952c1b 	bne	s4,s5,b234 <inst_error>
     1c8:	00000000 	nop
     1cc:	00000000 	nop
     1d0:	001fb021 	addu	s6,zero,ra
     1d4:	3c0ca832 	lui	t4,0xa832
     1d8:	358cbb00 	ori	t4,t4,0xbb00
     1dc:	3c0df43f 	lui	t5,0xf43f
     1e0:	35ada620 	ori	t5,t5,0xa620
     1e4:	24100000 	li	s0,0
     1e8:	3c080000 	lui	t0,0x0
     1ec:	25080204 	addiu	t0,t0,516
     1f0:	3c090000 	lui	t1,0x0
     1f4:	25290264 	addiu	t1,t1,612
     1f8:	10000013 	b	248 <n40_jalr_test+0x248>
     1fc:	24120000 	li	s2,0
     200:	00000000 	nop
     204:	3c10a832 	lui	s0,0xa832
     208:	3610bb00 	ori	s0,s0,0xbb00
     20c:	0120f809 	jalr	t1
     210:	00000000 	nop
     214:	10000015 	b	26c <n40_jalr_test+0x26c>
     218:	00000000 	nop
     21c:	00000000 	nop
     220:	00000021 	move	zero,zero
     224:	00000021 	move	zero,zero
     228:	00000021 	move	zero,zero
     22c:	00000021 	move	zero,zero
     230:	00000021 	move	zero,zero
     234:	00000021 	move	zero,zero
     238:	00000021 	move	zero,zero
     23c:	00000021 	move	zero,zero
     240:	00000021 	move	zero,zero
     244:	00000021 	move	zero,zero
     248:	0100f809 	jalr	t0
     24c:	00000000 	nop
     250:	10000006 	b	26c <n40_jalr_test+0x26c>
     254:	00000000 	nop
     258:	00000000 	nop
     25c:	00000021 	move	zero,zero
     260:	00000021 	move	zero,zero
     264:	3c12f43f 	lui	s2,0xf43f
     268:	3652a620 	ori	s2,s2,0xa620
     26c:	001fa021 	addu	s4,zero,ra
     270:	0016f821 	addu	ra,zero,s6
     274:	3c150000 	lui	s5,0x0
     278:	26b5020c 	addiu	s5,s5,524
     27c:	3c0da832 	lui	t5,0xa832
     280:	35adbb00 	ori	t5,t5,0xbb00
     284:	160d2beb 	bne	s0,t5,b234 <inst_error>
     288:	00000000 	nop
     28c:	00000000 	nop
     290:	3c0cf43f 	lui	t4,0xf43f
     294:	358ca620 	ori	t4,t4,0xa620
     298:	164c2be6 	bne	s2,t4,b234 <inst_error>
     29c:	00000000 	nop
     2a0:	00000000 	nop
     2a4:	26b50008 	addiu	s5,s5,8
     2a8:	16952be2 	bne	s4,s5,b234 <inst_error>
     2ac:	00000000 	nop
     2b0:	00000000 	nop
     2b4:	001fb021 	addu	s6,zero,ra
     2b8:	3c0c1e2a 	lui	t4,0x1e2a
     2bc:	358ca5ca 	ori	t4,t4,0xa5ca
     2c0:	3c0d4782 	lui	t5,0x4782
     2c4:	35adfd22 	ori	t5,t5,0xfd22
     2c8:	24100000 	li	s0,0
     2cc:	3c080000 	lui	t0,0x0
     2d0:	250802e8 	addiu	t0,t0,744
     2d4:	3c090000 	lui	t1,0x0
     2d8:	25290348 	addiu	t1,t1,840
     2dc:	10000013 	b	32c <n40_jalr_test+0x32c>
     2e0:	24120000 	li	s2,0
     2e4:	00000000 	nop
     2e8:	3c101e2a 	lui	s0,0x1e2a
     2ec:	3610a5ca 	ori	s0,s0,0xa5ca
     2f0:	0120f809 	jalr	t1
     2f4:	00000000 	nop
     2f8:	10000015 	b	350 <n40_jalr_test+0x350>
     2fc:	00000000 	nop
     300:	00000000 	nop
     304:	00000021 	move	zero,zero
     308:	00000021 	move	zero,zero
     30c:	00000021 	move	zero,zero
     310:	00000021 	move	zero,zero
     314:	00000021 	move	zero,zero
     318:	00000021 	move	zero,zero
     31c:	00000021 	move	zero,zero
     320:	00000021 	move	zero,zero
     324:	00000021 	move	zero,zero
     328:	00000021 	move	zero,zero
     32c:	0100f809 	jalr	t0
     330:	00000000 	nop
     334:	10000006 	b	350 <n40_jalr_test+0x350>
     338:	00000000 	nop
     33c:	00000000 	nop
     340:	00000021 	move	zero,zero
     344:	00000021 	move	zero,zero
     348:	3c124782 	lui	s2,0x4782
     34c:	3652fd22 	ori	s2,s2,0xfd22
     350:	001fa021 	addu	s4,zero,ra
     354:	0016f821 	addu	ra,zero,s6
     358:	3c150000 	lui	s5,0x0
     35c:	26b502f0 	addiu	s5,s5,752
     360:	3c0d1e2a 	lui	t5,0x1e2a
     364:	35ada5ca 	ori	t5,t5,0xa5ca
     368:	160d2bb2 	bne	s0,t5,b234 <inst_error>
     36c:	00000000 	nop
     370:	00000000 	nop
     374:	3c0c4782 	lui	t4,0x4782
     378:	358cfd22 	ori	t4,t4,0xfd22
     37c:	164c2bad 	bne	s2,t4,b234 <inst_error>
     380:	00000000 	nop
     384:	00000000 	nop
     388:	26b50008 	addiu	s5,s5,8
     38c:	16952ba9 	bne	s4,s5,b234 <inst_error>
     390:	00000000 	nop
     394:	00000000 	nop
     398:	001fb021 	addu	s6,zero,ra
     39c:	3c0c188e 	lui	t4,0x188e
     3a0:	358c3538 	ori	t4,t4,0x3538
     3a4:	3c0d278b 	lui	t5,0x278b
     3a8:	35ad5208 	ori	t5,t5,0x5208
     3ac:	24100000 	li	s0,0
     3b0:	3c080000 	lui	t0,0x0
     3b4:	250803cc 	addiu	t0,t0,972
     3b8:	3c090000 	lui	t1,0x0
     3bc:	2529042c 	addiu	t1,t1,1068
     3c0:	10000013 	b	410 <n40_jalr_test+0x410>
     3c4:	24120000 	li	s2,0
     3c8:	00000000 	nop
     3cc:	3c10188e 	lui	s0,0x188e
     3d0:	36103538 	ori	s0,s0,0x3538
     3d4:	0120f809 	jalr	t1
     3d8:	00000000 	nop
     3dc:	10000015 	b	434 <n40_jalr_test+0x434>
     3e0:	00000000 	nop
     3e4:	00000000 	nop
     3e8:	00000021 	move	zero,zero
     3ec:	00000021 	move	zero,zero
     3f0:	00000021 	move	zero,zero
     3f4:	00000021 	move	zero,zero
     3f8:	00000021 	move	zero,zero
     3fc:	00000021 	move	zero,zero
     400:	00000021 	move	zero,zero
     404:	00000021 	move	zero,zero
     408:	00000021 	move	zero,zero
     40c:	00000021 	move	zero,zero
     410:	0100f809 	jalr	t0
     414:	00000000 	nop
     418:	10000006 	b	434 <n40_jalr_test+0x434>
     41c:	00000000 	nop
     420:	00000000 	nop
     424:	00000021 	move	zero,zero
     428:	00000021 	move	zero,zero
     42c:	3c12278b 	lui	s2,0x278b
     430:	36525208 	ori	s2,s2,0x5208
     434:	001fa021 	addu	s4,zero,ra
     438:	0016f821 	addu	ra,zero,s6
     43c:	3c150000 	lui	s5,0x0
     440:	26b503d4 	addiu	s5,s5,980
     444:	3c0d188e 	lui	t5,0x188e
     448:	35ad3538 	ori	t5,t5,0x3538
     44c:	160d2b79 	bne	s0,t5,b234 <inst_error>
     450:	00000000 	nop
     454:	00000000 	nop
     458:	3c0c278b 	lui	t4,0x278b
     45c:	358c5208 	ori	t4,t4,0x5208
     460:	164c2b74 	bne	s2,t4,b234 <inst_error>
     464:	00000000 	nop
     468:	00000000 	nop
     46c:	26b50008 	addiu	s5,s5,8
     470:	16952b70 	bne	s4,s5,b234 <inst_error>
     474:	00000000 	nop
     478:	00000000 	nop
     47c:	001fb021 	addu	s6,zero,ra
     480:	3c0ce03f 	lui	t4,0xe03f
     484:	358cef90 	ori	t4,t4,0xef90
     488:	3c0dd294 	lui	t5,0xd294
     48c:	35adc6c0 	ori	t5,t5,0xc6c0
     490:	24100000 	li	s0,0
     494:	3c080000 	lui	t0,0x0
     498:	250804b0 	addiu	t0,t0,1200
     49c:	3c090000 	lui	t1,0x0
     4a0:	25290510 	addiu	t1,t1,1296
     4a4:	10000013 	b	4f4 <n40_jalr_test+0x4f4>
     4a8:	24120000 	li	s2,0
     4ac:	00000000 	nop
     4b0:	3c10e03f 	lui	s0,0xe03f
     4b4:	3610ef90 	ori	s0,s0,0xef90
     4b8:	0120f809 	jalr	t1
     4bc:	00000000 	nop
     4c0:	10000015 	b	518 <n40_jalr_test+0x518>
     4c4:	00000000 	nop
     4c8:	00000000 	nop
     4cc:	00000021 	move	zero,zero
     4d0:	00000021 	move	zero,zero
     4d4:	00000021 	move	zero,zero
     4d8:	00000021 	move	zero,zero
     4dc:	00000021 	move	zero,zero
     4e0:	00000021 	move	zero,zero
     4e4:	00000021 	move	zero,zero
     4e8:	00000021 	move	zero,zero
     4ec:	00000021 	move	zero,zero
     4f0:	00000021 	move	zero,zero
     4f4:	0100f809 	jalr	t0
     4f8:	00000000 	nop
     4fc:	10000006 	b	518 <n40_jalr_test+0x518>
     500:	00000000 	nop
     504:	00000000 	nop
     508:	00000021 	move	zero,zero
     50c:	00000021 	move	zero,zero
     510:	3c12d294 	lui	s2,0xd294
     514:	3652c6c0 	ori	s2,s2,0xc6c0
     518:	001fa021 	addu	s4,zero,ra
     51c:	0016f821 	addu	ra,zero,s6
     520:	3c150000 	lui	s5,0x0
     524:	26b504b8 	addiu	s5,s5,1208
     528:	3c0de03f 	lui	t5,0xe03f
     52c:	35adef90 	ori	t5,t5,0xef90
     530:	160d2b40 	bne	s0,t5,b234 <inst_error>
     534:	00000000 	nop
     538:	00000000 	nop
     53c:	3c0cd294 	lui	t4,0xd294
     540:	358cc6c0 	ori	t4,t4,0xc6c0
     544:	164c2b3b 	bne	s2,t4,b234 <inst_error>
     548:	00000000 	nop
     54c:	00000000 	nop
     550:	26b50008 	addiu	s5,s5,8
     554:	16952b37 	bne	s4,s5,b234 <inst_error>
     558:	00000000 	nop
     55c:	00000000 	nop
     560:	001fb021 	addu	s6,zero,ra
     564:	3c0c23a4 	lui	t4,0x23a4
     568:	358c9840 	ori	t4,t4,0x9840
     56c:	3c0dd067 	lui	t5,0xd067
     570:	35ad7a68 	ori	t5,t5,0x7a68
     574:	24100000 	li	s0,0
     578:	3c080000 	lui	t0,0x0
     57c:	25080594 	addiu	t0,t0,1428
     580:	3c090000 	lui	t1,0x0
     584:	252905f4 	addiu	t1,t1,1524
     588:	10000013 	b	5d8 <n40_jalr_test+0x5d8>
     58c:	24120000 	li	s2,0
     590:	00000000 	nop
     594:	3c1023a4 	lui	s0,0x23a4
     598:	36109840 	ori	s0,s0,0x9840
     59c:	0120f809 	jalr	t1
     5a0:	00000000 	nop
     5a4:	10000015 	b	5fc <n40_jalr_test+0x5fc>
     5a8:	00000000 	nop
     5ac:	00000000 	nop
     5b0:	00000021 	move	zero,zero
     5b4:	00000021 	move	zero,zero
     5b8:	00000021 	move	zero,zero
     5bc:	00000021 	move	zero,zero
     5c0:	00000021 	move	zero,zero
     5c4:	00000021 	move	zero,zero
     5c8:	00000021 	move	zero,zero
     5cc:	00000021 	move	zero,zero
     5d0:	00000021 	move	zero,zero
     5d4:	00000021 	move	zero,zero
     5d8:	0100f809 	jalr	t0
     5dc:	00000000 	nop
     5e0:	10000006 	b	5fc <n40_jalr_test+0x5fc>
     5e4:	00000000 	nop
     5e8:	00000000 	nop
     5ec:	00000021 	move	zero,zero
     5f0:	00000021 	move	zero,zero
     5f4:	3c12d067 	lui	s2,0xd067
     5f8:	36527a68 	ori	s2,s2,0x7a68
     5fc:	001fa021 	addu	s4,zero,ra
     600:	0016f821 	addu	ra,zero,s6
     604:	3c150000 	lui	s5,0x0
     608:	26b5059c 	addiu	s5,s5,1436
     60c:	3c0d23a4 	lui	t5,0x23a4
     610:	35ad9840 	ori	t5,t5,0x9840
     614:	160d2b07 	bne	s0,t5,b234 <inst_error>
     618:	00000000 	nop
     61c:	00000000 	nop
     620:	3c0cd067 	lui	t4,0xd067
     624:	358c7a68 	ori	t4,t4,0x7a68
     628:	164c2b02 	bne	s2,t4,b234 <inst_error>
     62c:	00000000 	nop
     630:	00000000 	nop
     634:	26b50008 	addiu	s5,s5,8
     638:	16952afe 	bne	s4,s5,b234 <inst_error>
     63c:	00000000 	nop
     640:	00000000 	nop
     644:	001fb021 	addu	s6,zero,ra
     648:	3c0c5578 	lui	t4,0x5578
     64c:	358c1794 	ori	t4,t4,0x1794
     650:	3c0daf21 	lui	t5,0xaf21
     654:	35ad3480 	ori	t5,t5,0x3480
     658:	24100000 	li	s0,0
     65c:	3c080000 	lui	t0,0x0
     660:	25080678 	addiu	t0,t0,1656
     664:	3c090000 	lui	t1,0x0
     668:	252906d8 	addiu	t1,t1,1752
     66c:	10000013 	b	6bc <n40_jalr_test+0x6bc>
     670:	24120000 	li	s2,0
     674:	00000000 	nop
     678:	3c105578 	lui	s0,0x5578
     67c:	36101794 	ori	s0,s0,0x1794
     680:	0120f809 	jalr	t1
     684:	00000000 	nop
     688:	10000015 	b	6e0 <n40_jalr_test+0x6e0>
     68c:	00000000 	nop
     690:	00000000 	nop
     694:	00000021 	move	zero,zero
     698:	00000021 	move	zero,zero
     69c:	00000021 	move	zero,zero
     6a0:	00000021 	move	zero,zero
     6a4:	00000021 	move	zero,zero
     6a8:	00000021 	move	zero,zero
     6ac:	00000021 	move	zero,zero
     6b0:	00000021 	move	zero,zero
     6b4:	00000021 	move	zero,zero
     6b8:	00000021 	move	zero,zero
     6bc:	0100f809 	jalr	t0
     6c0:	00000000 	nop
     6c4:	10000006 	b	6e0 <n40_jalr_test+0x6e0>
     6c8:	00000000 	nop
     6cc:	00000000 	nop
     6d0:	00000021 	move	zero,zero
     6d4:	00000021 	move	zero,zero
     6d8:	3c12af21 	lui	s2,0xaf21
     6dc:	36523480 	ori	s2,s2,0x3480
     6e0:	001fa021 	addu	s4,zero,ra
     6e4:	0016f821 	addu	ra,zero,s6
     6e8:	3c150000 	lui	s5,0x0
     6ec:	26b50680 	addiu	s5,s5,1664
     6f0:	3c0d5578 	lui	t5,0x5578
     6f4:	35ad1794 	ori	t5,t5,0x1794
     6f8:	160d2ace 	bne	s0,t5,b234 <inst_error>
     6fc:	00000000 	nop
     700:	00000000 	nop
     704:	3c0caf21 	lui	t4,0xaf21
     708:	358c3480 	ori	t4,t4,0x3480
     70c:	164c2ac9 	bne	s2,t4,b234 <inst_error>
     710:	00000000 	nop
     714:	00000000 	nop
     718:	26b50008 	addiu	s5,s5,8
     71c:	16952ac5 	bne	s4,s5,b234 <inst_error>
     720:	00000000 	nop
     724:	00000000 	nop
     728:	001fb021 	addu	s6,zero,ra
     72c:	3c0c78d9 	lui	t4,0x78d9
     730:	358c76ca 	ori	t4,t4,0x76ca
     734:	3c0d0f5c 	lui	t5,0xf5c
     738:	35ad7b6e 	ori	t5,t5,0x7b6e
     73c:	24100000 	li	s0,0
     740:	3c080000 	lui	t0,0x0
     744:	2508075c 	addiu	t0,t0,1884
     748:	3c090000 	lui	t1,0x0
     74c:	252907bc 	addiu	t1,t1,1980
     750:	10000013 	b	7a0 <n40_jalr_test+0x7a0>
     754:	24120000 	li	s2,0
     758:	00000000 	nop
     75c:	3c1078d9 	lui	s0,0x78d9
     760:	361076ca 	ori	s0,s0,0x76ca
     764:	0120f809 	jalr	t1
     768:	00000000 	nop
     76c:	10000015 	b	7c4 <n40_jalr_test+0x7c4>
     770:	00000000 	nop
     774:	00000000 	nop
     778:	00000021 	move	zero,zero
     77c:	00000021 	move	zero,zero
     780:	00000021 	move	zero,zero
     784:	00000021 	move	zero,zero
     788:	00000021 	move	zero,zero
     78c:	00000021 	move	zero,zero
     790:	00000021 	move	zero,zero
     794:	00000021 	move	zero,zero
     798:	00000021 	move	zero,zero
     79c:	00000021 	move	zero,zero
     7a0:	0100f809 	jalr	t0
     7a4:	00000000 	nop
     7a8:	10000006 	b	7c4 <n40_jalr_test+0x7c4>
     7ac:	00000000 	nop
     7b0:	00000000 	nop
     7b4:	00000021 	move	zero,zero
     7b8:	00000021 	move	zero,zero
     7bc:	3c120f5c 	lui	s2,0xf5c
     7c0:	36527b6e 	ori	s2,s2,0x7b6e
     7c4:	001fa021 	addu	s4,zero,ra
     7c8:	0016f821 	addu	ra,zero,s6
     7cc:	3c150000 	lui	s5,0x0
     7d0:	26b50764 	addiu	s5,s5,1892
     7d4:	3c0d78d9 	lui	t5,0x78d9
     7d8:	35ad76ca 	ori	t5,t5,0x76ca
     7dc:	160d2a95 	bne	s0,t5,b234 <inst_error>
     7e0:	00000000 	nop
     7e4:	00000000 	nop
     7e8:	3c0c0f5c 	lui	t4,0xf5c
     7ec:	358c7b6e 	ori	t4,t4,0x7b6e
     7f0:	164c2a90 	bne	s2,t4,b234 <inst_error>
     7f4:	00000000 	nop
     7f8:	00000000 	nop
     7fc:	26b50008 	addiu	s5,s5,8
     800:	16952a8c 	bne	s4,s5,b234 <inst_error>
     804:	00000000 	nop
     808:	00000000 	nop
     80c:	001fb021 	addu	s6,zero,ra
     810:	3c0c41be 	lui	t4,0x41be
     814:	358c8dfc 	ori	t4,t4,0x8dfc
     818:	3c0dea0d 	lui	t5,0xea0d
     81c:	35ad3954 	ori	t5,t5,0x3954
     820:	24100000 	li	s0,0
     824:	3c080000 	lui	t0,0x0
     828:	25080840 	addiu	t0,t0,2112
     82c:	3c090000 	lui	t1,0x0
     830:	252908a0 	addiu	t1,t1,2208
     834:	10000013 	b	884 <n40_jalr_test+0x884>
     838:	24120000 	li	s2,0
     83c:	00000000 	nop
     840:	3c1041be 	lui	s0,0x41be
     844:	36108dfc 	ori	s0,s0,0x8dfc
     848:	0120f809 	jalr	t1
     84c:	00000000 	nop
     850:	10000015 	b	8a8 <n40_jalr_test+0x8a8>
     854:	00000000 	nop
     858:	00000000 	nop
     85c:	00000021 	move	zero,zero
     860:	00000021 	move	zero,zero
     864:	00000021 	move	zero,zero
     868:	00000021 	move	zero,zero
     86c:	00000021 	move	zero,zero
     870:	00000021 	move	zero,zero
     874:	00000021 	move	zero,zero
     878:	00000021 	move	zero,zero
     87c:	00000021 	move	zero,zero
     880:	00000021 	move	zero,zero
     884:	0100f809 	jalr	t0
     888:	00000000 	nop
     88c:	10000006 	b	8a8 <n40_jalr_test+0x8a8>
     890:	00000000 	nop
     894:	00000000 	nop
     898:	00000021 	move	zero,zero
     89c:	00000021 	move	zero,zero
     8a0:	3c12ea0d 	lui	s2,0xea0d
     8a4:	36523954 	ori	s2,s2,0x3954
     8a8:	001fa021 	addu	s4,zero,ra
     8ac:	0016f821 	addu	ra,zero,s6
     8b0:	3c150000 	lui	s5,0x0
     8b4:	26b50848 	addiu	s5,s5,2120
     8b8:	3c0d41be 	lui	t5,0x41be
     8bc:	35ad8dfc 	ori	t5,t5,0x8dfc
     8c0:	160d2a5c 	bne	s0,t5,b234 <inst_error>
     8c4:	00000000 	nop
     8c8:	00000000 	nop
     8cc:	3c0cea0d 	lui	t4,0xea0d
     8d0:	358c3954 	ori	t4,t4,0x3954
     8d4:	164c2a57 	bne	s2,t4,b234 <inst_error>
     8d8:	00000000 	nop
     8dc:	00000000 	nop
     8e0:	26b50008 	addiu	s5,s5,8
     8e4:	16952a53 	bne	s4,s5,b234 <inst_error>
     8e8:	00000000 	nop
     8ec:	00000000 	nop
     8f0:	001fb021 	addu	s6,zero,ra
     8f4:	3c0c5975 	lui	t4,0x5975
     8f8:	358cddea 	ori	t4,t4,0xddea
     8fc:	3c0d191b 	lui	t5,0x191b
     900:	35adfc2c 	ori	t5,t5,0xfc2c
     904:	24100000 	li	s0,0
     908:	3c080000 	lui	t0,0x0
     90c:	25080924 	addiu	t0,t0,2340
     910:	3c090000 	lui	t1,0x0
     914:	25290984 	addiu	t1,t1,2436
     918:	10000013 	b	968 <n40_jalr_test+0x968>
     91c:	24120000 	li	s2,0
     920:	00000000 	nop
     924:	3c105975 	lui	s0,0x5975
     928:	3610ddea 	ori	s0,s0,0xddea
     92c:	0120f809 	jalr	t1
     930:	00000000 	nop
     934:	10000015 	b	98c <n40_jalr_test+0x98c>
     938:	00000000 	nop
     93c:	00000000 	nop
     940:	00000021 	move	zero,zero
     944:	00000021 	move	zero,zero
     948:	00000021 	move	zero,zero
     94c:	00000021 	move	zero,zero
     950:	00000021 	move	zero,zero
     954:	00000021 	move	zero,zero
     958:	00000021 	move	zero,zero
     95c:	00000021 	move	zero,zero
     960:	00000021 	move	zero,zero
     964:	00000021 	move	zero,zero
     968:	0100f809 	jalr	t0
     96c:	00000000 	nop
     970:	10000006 	b	98c <n40_jalr_test+0x98c>
     974:	00000000 	nop
     978:	00000000 	nop
     97c:	00000021 	move	zero,zero
     980:	00000021 	move	zero,zero
     984:	3c12191b 	lui	s2,0x191b
     988:	3652fc2c 	ori	s2,s2,0xfc2c
     98c:	001fa021 	addu	s4,zero,ra
     990:	0016f821 	addu	ra,zero,s6
     994:	3c150000 	lui	s5,0x0
     998:	26b5092c 	addiu	s5,s5,2348
     99c:	3c0d5975 	lui	t5,0x5975
     9a0:	35adddea 	ori	t5,t5,0xddea
     9a4:	160d2a23 	bne	s0,t5,b234 <inst_error>
     9a8:	00000000 	nop
     9ac:	00000000 	nop
     9b0:	3c0c191b 	lui	t4,0x191b
     9b4:	358cfc2c 	ori	t4,t4,0xfc2c
     9b8:	164c2a1e 	bne	s2,t4,b234 <inst_error>
     9bc:	00000000 	nop
     9c0:	00000000 	nop
     9c4:	26b50008 	addiu	s5,s5,8
     9c8:	16952a1a 	bne	s4,s5,b234 <inst_error>
     9cc:	00000000 	nop
     9d0:	00000000 	nop
     9d4:	001fb021 	addu	s6,zero,ra
     9d8:	3c0c2af9 	lui	t4,0x2af9
     9dc:	358c3360 	ori	t4,t4,0x3360
     9e0:	3c0d6d4e 	lui	t5,0x6d4e
     9e4:	35add976 	ori	t5,t5,0xd976
     9e8:	24100000 	li	s0,0
     9ec:	3c080000 	lui	t0,0x0
     9f0:	25080a08 	addiu	t0,t0,2568
     9f4:	3c090000 	lui	t1,0x0
     9f8:	25290a68 	addiu	t1,t1,2664
     9fc:	10000013 	b	a4c <n40_jalr_test+0xa4c>
     a00:	24120000 	li	s2,0
     a04:	00000000 	nop
     a08:	3c102af9 	lui	s0,0x2af9
     a0c:	36103360 	ori	s0,s0,0x3360
     a10:	0120f809 	jalr	t1
     a14:	00000000 	nop
     a18:	10000015 	b	a70 <n40_jalr_test+0xa70>
     a1c:	00000000 	nop
     a20:	00000000 	nop
     a24:	00000021 	move	zero,zero
     a28:	00000021 	move	zero,zero
     a2c:	00000021 	move	zero,zero
     a30:	00000021 	move	zero,zero
     a34:	00000021 	move	zero,zero
     a38:	00000021 	move	zero,zero
     a3c:	00000021 	move	zero,zero
     a40:	00000021 	move	zero,zero
     a44:	00000021 	move	zero,zero
     a48:	00000021 	move	zero,zero
     a4c:	0100f809 	jalr	t0
     a50:	00000000 	nop
     a54:	10000006 	b	a70 <n40_jalr_test+0xa70>
     a58:	00000000 	nop
     a5c:	00000000 	nop
     a60:	00000021 	move	zero,zero
     a64:	00000021 	move	zero,zero
     a68:	3c126d4e 	lui	s2,0x6d4e
     a6c:	3652d976 	ori	s2,s2,0xd976
     a70:	001fa021 	addu	s4,zero,ra
     a74:	0016f821 	addu	ra,zero,s6
     a78:	3c150000 	lui	s5,0x0
     a7c:	26b50a10 	addiu	s5,s5,2576
     a80:	3c0d2af9 	lui	t5,0x2af9
     a84:	35ad3360 	ori	t5,t5,0x3360
     a88:	160d29ea 	bne	s0,t5,b234 <inst_error>
     a8c:	00000000 	nop
     a90:	00000000 	nop
     a94:	3c0c6d4e 	lui	t4,0x6d4e
     a98:	358cd976 	ori	t4,t4,0xd976
     a9c:	164c29e5 	bne	s2,t4,b234 <inst_error>
     aa0:	00000000 	nop
     aa4:	00000000 	nop
     aa8:	26b50008 	addiu	s5,s5,8
     aac:	169529e1 	bne	s4,s5,b234 <inst_error>
     ab0:	00000000 	nop
     ab4:	00000000 	nop
     ab8:	001fb021 	addu	s6,zero,ra
     abc:	3c0c8b28 	lui	t4,0x8b28
     ac0:	358c908c 	ori	t4,t4,0x908c
     ac4:	3c0d2506 	lui	t5,0x2506
     ac8:	35adcdf6 	ori	t5,t5,0xcdf6
     acc:	24100000 	li	s0,0
     ad0:	3c080000 	lui	t0,0x0
     ad4:	25080aec 	addiu	t0,t0,2796
     ad8:	3c090000 	lui	t1,0x0
     adc:	25290b4c 	addiu	t1,t1,2892
     ae0:	10000013 	b	b30 <n40_jalr_test+0xb30>
     ae4:	24120000 	li	s2,0
     ae8:	00000000 	nop
     aec:	3c108b28 	lui	s0,0x8b28
     af0:	3610908c 	ori	s0,s0,0x908c
     af4:	0120f809 	jalr	t1
     af8:	00000000 	nop
     afc:	10000015 	b	b54 <n40_jalr_test+0xb54>
     b00:	00000000 	nop
     b04:	00000000 	nop
     b08:	00000021 	move	zero,zero
     b0c:	00000021 	move	zero,zero
     b10:	00000021 	move	zero,zero
     b14:	00000021 	move	zero,zero
     b18:	00000021 	move	zero,zero
     b1c:	00000021 	move	zero,zero
     b20:	00000021 	move	zero,zero
     b24:	00000021 	move	zero,zero
     b28:	00000021 	move	zero,zero
     b2c:	00000021 	move	zero,zero
     b30:	0100f809 	jalr	t0
     b34:	00000000 	nop
     b38:	10000006 	b	b54 <n40_jalr_test+0xb54>
     b3c:	00000000 	nop
     b40:	00000000 	nop
     b44:	00000021 	move	zero,zero
     b48:	00000021 	move	zero,zero
     b4c:	3c122506 	lui	s2,0x2506
     b50:	3652cdf6 	ori	s2,s2,0xcdf6
     b54:	001fa021 	addu	s4,zero,ra
     b58:	0016f821 	addu	ra,zero,s6
     b5c:	3c150000 	lui	s5,0x0
     b60:	26b50af4 	addiu	s5,s5,2804
     b64:	3c0d8b28 	lui	t5,0x8b28
     b68:	35ad908c 	ori	t5,t5,0x908c
     b6c:	160d29b1 	bne	s0,t5,b234 <inst_error>
     b70:	00000000 	nop
     b74:	00000000 	nop
     b78:	3c0c2506 	lui	t4,0x2506
     b7c:	358ccdf6 	ori	t4,t4,0xcdf6
     b80:	164c29ac 	bne	s2,t4,b234 <inst_error>
     b84:	00000000 	nop
     b88:	00000000 	nop
     b8c:	26b50008 	addiu	s5,s5,8
     b90:	169529a8 	bne	s4,s5,b234 <inst_error>
     b94:	00000000 	nop
     b98:	00000000 	nop
     b9c:	001fb021 	addu	s6,zero,ra
     ba0:	3c0cb880 	lui	t4,0xb880
     ba4:	358cf72b 	ori	t4,t4,0xf72b
     ba8:	3c0d78b6 	lui	t5,0x78b6
     bac:	35ad5ab0 	ori	t5,t5,0x5ab0
     bb0:	24100000 	li	s0,0
     bb4:	3c080000 	lui	t0,0x0
     bb8:	25080bd0 	addiu	t0,t0,3024
     bbc:	3c090000 	lui	t1,0x0
     bc0:	25290c30 	addiu	t1,t1,3120
     bc4:	10000013 	b	c14 <n40_jalr_test+0xc14>
     bc8:	24120000 	li	s2,0
     bcc:	00000000 	nop
     bd0:	3c10b880 	lui	s0,0xb880
     bd4:	3610f72b 	ori	s0,s0,0xf72b
     bd8:	0120f809 	jalr	t1
     bdc:	00000000 	nop
     be0:	10000015 	b	c38 <n40_jalr_test+0xc38>
     be4:	00000000 	nop
     be8:	00000000 	nop
     bec:	00000021 	move	zero,zero
     bf0:	00000021 	move	zero,zero
     bf4:	00000021 	move	zero,zero
     bf8:	00000021 	move	zero,zero
     bfc:	00000021 	move	zero,zero
     c00:	00000021 	move	zero,zero
     c04:	00000021 	move	zero,zero
     c08:	00000021 	move	zero,zero
     c0c:	00000021 	move	zero,zero
     c10:	00000021 	move	zero,zero
     c14:	0100f809 	jalr	t0
     c18:	00000000 	nop
     c1c:	10000006 	b	c38 <n40_jalr_test+0xc38>
     c20:	00000000 	nop
     c24:	00000000 	nop
     c28:	00000021 	move	zero,zero
     c2c:	00000021 	move	zero,zero
     c30:	3c1278b6 	lui	s2,0x78b6
     c34:	36525ab0 	ori	s2,s2,0x5ab0
     c38:	001fa021 	addu	s4,zero,ra
     c3c:	0016f821 	addu	ra,zero,s6
     c40:	3c150000 	lui	s5,0x0
     c44:	26b50bd8 	addiu	s5,s5,3032
     c48:	3c0db880 	lui	t5,0xb880
     c4c:	35adf72b 	ori	t5,t5,0xf72b
     c50:	160d2978 	bne	s0,t5,b234 <inst_error>
     c54:	00000000 	nop
     c58:	00000000 	nop
     c5c:	3c0c78b6 	lui	t4,0x78b6
     c60:	358c5ab0 	ori	t4,t4,0x5ab0
     c64:	164c2973 	bne	s2,t4,b234 <inst_error>
     c68:	00000000 	nop
     c6c:	00000000 	nop
     c70:	26b50008 	addiu	s5,s5,8
     c74:	1695296f 	bne	s4,s5,b234 <inst_error>
     c78:	00000000 	nop
     c7c:	00000000 	nop
     c80:	001fb021 	addu	s6,zero,ra
     c84:	3c0c9abc 	lui	t4,0x9abc
     c88:	358c2fae 	ori	t4,t4,0x2fae
     c8c:	3c0d1fcc 	lui	t5,0x1fcc
     c90:	35adc210 	ori	t5,t5,0xc210
     c94:	24100000 	li	s0,0
     c98:	3c080000 	lui	t0,0x0
     c9c:	25080cb4 	addiu	t0,t0,3252
     ca0:	3c090000 	lui	t1,0x0
     ca4:	25290d14 	addiu	t1,t1,3348
     ca8:	10000013 	b	cf8 <n40_jalr_test+0xcf8>
     cac:	24120000 	li	s2,0
     cb0:	00000000 	nop
     cb4:	3c109abc 	lui	s0,0x9abc
     cb8:	36102fae 	ori	s0,s0,0x2fae
     cbc:	0120f809 	jalr	t1
     cc0:	00000000 	nop
     cc4:	10000015 	b	d1c <n40_jalr_test+0xd1c>
     cc8:	00000000 	nop
     ccc:	00000000 	nop
     cd0:	00000021 	move	zero,zero
     cd4:	00000021 	move	zero,zero
     cd8:	00000021 	move	zero,zero
     cdc:	00000021 	move	zero,zero
     ce0:	00000021 	move	zero,zero
     ce4:	00000021 	move	zero,zero
     ce8:	00000021 	move	zero,zero
     cec:	00000021 	move	zero,zero
     cf0:	00000021 	move	zero,zero
     cf4:	00000021 	move	zero,zero
     cf8:	0100f809 	jalr	t0
     cfc:	00000000 	nop
     d00:	10000006 	b	d1c <n40_jalr_test+0xd1c>
     d04:	00000000 	nop
     d08:	00000000 	nop
     d0c:	00000021 	move	zero,zero
     d10:	00000021 	move	zero,zero
     d14:	3c121fcc 	lui	s2,0x1fcc
     d18:	3652c210 	ori	s2,s2,0xc210
     d1c:	001fa021 	addu	s4,zero,ra
     d20:	0016f821 	addu	ra,zero,s6
     d24:	3c150000 	lui	s5,0x0
     d28:	26b50cbc 	addiu	s5,s5,3260
     d2c:	3c0d9abc 	lui	t5,0x9abc
     d30:	35ad2fae 	ori	t5,t5,0x2fae
     d34:	160d293f 	bne	s0,t5,b234 <inst_error>
     d38:	00000000 	nop
     d3c:	00000000 	nop
     d40:	3c0c1fcc 	lui	t4,0x1fcc
     d44:	358cc210 	ori	t4,t4,0xc210
     d48:	164c293a 	bne	s2,t4,b234 <inst_error>
     d4c:	00000000 	nop
     d50:	00000000 	nop
     d54:	26b50008 	addiu	s5,s5,8
     d58:	16952936 	bne	s4,s5,b234 <inst_error>
     d5c:	00000000 	nop
     d60:	00000000 	nop
     d64:	001fb021 	addu	s6,zero,ra
     d68:	3c0c468c 	lui	t4,0x468c
     d6c:	358ca120 	ori	t4,t4,0xa120
     d70:	3c0d63a8 	lui	t5,0x63a8
     d74:	35adcd28 	ori	t5,t5,0xcd28
     d78:	24100000 	li	s0,0
     d7c:	3c080000 	lui	t0,0x0
     d80:	25080d98 	addiu	t0,t0,3480
     d84:	3c090000 	lui	t1,0x0
     d88:	25290df8 	addiu	t1,t1,3576
     d8c:	10000013 	b	ddc <n40_jalr_test+0xddc>
     d90:	24120000 	li	s2,0
     d94:	00000000 	nop
     d98:	3c10468c 	lui	s0,0x468c
     d9c:	3610a120 	ori	s0,s0,0xa120
     da0:	0120f809 	jalr	t1
     da4:	00000000 	nop
     da8:	10000015 	b	e00 <n40_jalr_test+0xe00>
     dac:	00000000 	nop
     db0:	00000000 	nop
     db4:	00000021 	move	zero,zero
     db8:	00000021 	move	zero,zero
     dbc:	00000021 	move	zero,zero
     dc0:	00000021 	move	zero,zero
     dc4:	00000021 	move	zero,zero
     dc8:	00000021 	move	zero,zero
     dcc:	00000021 	move	zero,zero
     dd0:	00000021 	move	zero,zero
     dd4:	00000021 	move	zero,zero
     dd8:	00000021 	move	zero,zero
     ddc:	0100f809 	jalr	t0
     de0:	00000000 	nop
     de4:	10000006 	b	e00 <n40_jalr_test+0xe00>
     de8:	00000000 	nop
     dec:	00000000 	nop
     df0:	00000021 	move	zero,zero
     df4:	00000021 	move	zero,zero
     df8:	3c1263a8 	lui	s2,0x63a8
     dfc:	3652cd28 	ori	s2,s2,0xcd28
     e00:	001fa021 	addu	s4,zero,ra
     e04:	0016f821 	addu	ra,zero,s6
     e08:	3c150000 	lui	s5,0x0
     e0c:	26b50da0 	addiu	s5,s5,3488
     e10:	3c0d468c 	lui	t5,0x468c
     e14:	35ada120 	ori	t5,t5,0xa120
     e18:	160d2906 	bne	s0,t5,b234 <inst_error>
     e1c:	00000000 	nop
     e20:	00000000 	nop
     e24:	3c0c63a8 	lui	t4,0x63a8
     e28:	358ccd28 	ori	t4,t4,0xcd28
     e2c:	164c2901 	bne	s2,t4,b234 <inst_error>
     e30:	00000000 	nop
     e34:	00000000 	nop
     e38:	26b50008 	addiu	s5,s5,8
     e3c:	169528fd 	bne	s4,s5,b234 <inst_error>
     e40:	00000000 	nop
     e44:	00000000 	nop
     e48:	001fb021 	addu	s6,zero,ra
     e4c:	3c0cbd5f 	lui	t4,0xbd5f
     e50:	358c8d6a 	ori	t4,t4,0x8d6a
     e54:	3c0d9ccc 	lui	t5,0x9ccc
     e58:	35ad5a00 	ori	t5,t5,0x5a00
     e5c:	24100000 	li	s0,0
     e60:	3c080000 	lui	t0,0x0
     e64:	25080e7c 	addiu	t0,t0,3708
     e68:	3c090000 	lui	t1,0x0
     e6c:	25290edc 	addiu	t1,t1,3804
     e70:	10000013 	b	ec0 <n40_jalr_test+0xec0>
     e74:	24120000 	li	s2,0
     e78:	00000000 	nop
     e7c:	3c10bd5f 	lui	s0,0xbd5f
     e80:	36108d6a 	ori	s0,s0,0x8d6a
     e84:	0120f809 	jalr	t1
     e88:	00000000 	nop
     e8c:	10000015 	b	ee4 <n40_jalr_test+0xee4>
     e90:	00000000 	nop
     e94:	00000000 	nop
     e98:	00000021 	move	zero,zero
     e9c:	00000021 	move	zero,zero
     ea0:	00000021 	move	zero,zero
     ea4:	00000021 	move	zero,zero
     ea8:	00000021 	move	zero,zero
     eac:	00000021 	move	zero,zero
     eb0:	00000021 	move	zero,zero
     eb4:	00000021 	move	zero,zero
     eb8:	00000021 	move	zero,zero
     ebc:	00000021 	move	zero,zero
     ec0:	0100f809 	jalr	t0
     ec4:	00000000 	nop
     ec8:	10000006 	b	ee4 <n40_jalr_test+0xee4>
     ecc:	00000000 	nop
     ed0:	00000000 	nop
     ed4:	00000021 	move	zero,zero
     ed8:	00000021 	move	zero,zero
     edc:	3c129ccc 	lui	s2,0x9ccc
     ee0:	36525a00 	ori	s2,s2,0x5a00
     ee4:	001fa021 	addu	s4,zero,ra
     ee8:	0016f821 	addu	ra,zero,s6
     eec:	3c150000 	lui	s5,0x0
     ef0:	26b50e84 	addiu	s5,s5,3716
     ef4:	3c0dbd5f 	lui	t5,0xbd5f
     ef8:	35ad8d6a 	ori	t5,t5,0x8d6a
     efc:	160d28cd 	bne	s0,t5,b234 <inst_error>
     f00:	00000000 	nop
     f04:	00000000 	nop
     f08:	3c0c9ccc 	lui	t4,0x9ccc
     f0c:	358c5a00 	ori	t4,t4,0x5a00
     f10:	164c28c8 	bne	s2,t4,b234 <inst_error>
     f14:	00000000 	nop
     f18:	00000000 	nop
     f1c:	26b50008 	addiu	s5,s5,8
     f20:	169528c4 	bne	s4,s5,b234 <inst_error>
     f24:	00000000 	nop
     f28:	00000000 	nop
     f2c:	001fb021 	addu	s6,zero,ra
     f30:	3c0c5ff3 	lui	t4,0x5ff3
     f34:	358c3ad0 	ori	t4,t4,0x3ad0
     f38:	3c0d8d63 	lui	t5,0x8d63
     f3c:	35ad3be8 	ori	t5,t5,0x3be8
     f40:	24100000 	li	s0,0
     f44:	3c080000 	lui	t0,0x0
     f48:	25080f60 	addiu	t0,t0,3936
     f4c:	3c090000 	lui	t1,0x0
     f50:	25290fc0 	addiu	t1,t1,4032
     f54:	10000013 	b	fa4 <n40_jalr_test+0xfa4>
     f58:	24120000 	li	s2,0
     f5c:	00000000 	nop
     f60:	3c105ff3 	lui	s0,0x5ff3
     f64:	36103ad0 	ori	s0,s0,0x3ad0
     f68:	0120f809 	jalr	t1
     f6c:	00000000 	nop
     f70:	10000015 	b	fc8 <n40_jalr_test+0xfc8>
     f74:	00000000 	nop
     f78:	00000000 	nop
     f7c:	00000021 	move	zero,zero
     f80:	00000021 	move	zero,zero
     f84:	00000021 	move	zero,zero
     f88:	00000021 	move	zero,zero
     f8c:	00000021 	move	zero,zero
     f90:	00000021 	move	zero,zero
     f94:	00000021 	move	zero,zero
     f98:	00000021 	move	zero,zero
     f9c:	00000021 	move	zero,zero
     fa0:	00000021 	move	zero,zero
     fa4:	0100f809 	jalr	t0
     fa8:	00000000 	nop
     fac:	10000006 	b	fc8 <n40_jalr_test+0xfc8>
     fb0:	00000000 	nop
     fb4:	00000000 	nop
     fb8:	00000021 	move	zero,zero
     fbc:	00000021 	move	zero,zero
     fc0:	3c128d63 	lui	s2,0x8d63
     fc4:	36523be8 	ori	s2,s2,0x3be8
     fc8:	001fa021 	addu	s4,zero,ra
     fcc:	0016f821 	addu	ra,zero,s6
     fd0:	3c150000 	lui	s5,0x0
     fd4:	26b50f68 	addiu	s5,s5,3944
     fd8:	3c0d5ff3 	lui	t5,0x5ff3
     fdc:	35ad3ad0 	ori	t5,t5,0x3ad0
     fe0:	160d2894 	bne	s0,t5,b234 <inst_error>
     fe4:	00000000 	nop
     fe8:	00000000 	nop
     fec:	3c0c8d63 	lui	t4,0x8d63
     ff0:	358c3be8 	ori	t4,t4,0x3be8
     ff4:	164c288f 	bne	s2,t4,b234 <inst_error>
     ff8:	00000000 	nop
     ffc:	00000000 	nop
    1000:	26b50008 	addiu	s5,s5,8
    1004:	1695288b 	bne	s4,s5,b234 <inst_error>
    1008:	00000000 	nop
    100c:	00000000 	nop
    1010:	001fb021 	addu	s6,zero,ra
    1014:	3c0c8af0 	lui	t4,0x8af0
    1018:	358c4fe8 	ori	t4,t4,0x4fe8
    101c:	3c0d3eaf 	lui	t5,0x3eaf
    1020:	35ad5ed6 	ori	t5,t5,0x5ed6
    1024:	24100000 	li	s0,0
    1028:	3c080000 	lui	t0,0x0
    102c:	25081044 	addiu	t0,t0,4164
    1030:	3c090000 	lui	t1,0x0
    1034:	252910a4 	addiu	t1,t1,4260
    1038:	10000013 	b	1088 <n40_jalr_test+0x1088>
    103c:	24120000 	li	s2,0
    1040:	00000000 	nop
    1044:	3c108af0 	lui	s0,0x8af0
    1048:	36104fe8 	ori	s0,s0,0x4fe8
    104c:	0120f809 	jalr	t1
    1050:	00000000 	nop
    1054:	10000015 	b	10ac <n40_jalr_test+0x10ac>
    1058:	00000000 	nop
    105c:	00000000 	nop
    1060:	00000021 	move	zero,zero
    1064:	00000021 	move	zero,zero
    1068:	00000021 	move	zero,zero
    106c:	00000021 	move	zero,zero
    1070:	00000021 	move	zero,zero
    1074:	00000021 	move	zero,zero
    1078:	00000021 	move	zero,zero
    107c:	00000021 	move	zero,zero
    1080:	00000021 	move	zero,zero
    1084:	00000021 	move	zero,zero
    1088:	0100f809 	jalr	t0
    108c:	00000000 	nop
    1090:	10000006 	b	10ac <n40_jalr_test+0x10ac>
    1094:	00000000 	nop
    1098:	00000000 	nop
    109c:	00000021 	move	zero,zero
    10a0:	00000021 	move	zero,zero
    10a4:	3c123eaf 	lui	s2,0x3eaf
    10a8:	36525ed6 	ori	s2,s2,0x5ed6
    10ac:	001fa021 	addu	s4,zero,ra
    10b0:	0016f821 	addu	ra,zero,s6
    10b4:	3c150000 	lui	s5,0x0
    10b8:	26b5104c 	addiu	s5,s5,4172
    10bc:	3c0d8af0 	lui	t5,0x8af0
    10c0:	35ad4fe8 	ori	t5,t5,0x4fe8
    10c4:	160d285b 	bne	s0,t5,b234 <inst_error>
    10c8:	00000000 	nop
    10cc:	00000000 	nop
    10d0:	3c0c3eaf 	lui	t4,0x3eaf
    10d4:	358c5ed6 	ori	t4,t4,0x5ed6
    10d8:	164c2856 	bne	s2,t4,b234 <inst_error>
    10dc:	00000000 	nop
    10e0:	00000000 	nop
    10e4:	26b50008 	addiu	s5,s5,8
    10e8:	16952852 	bne	s4,s5,b234 <inst_error>
    10ec:	00000000 	nop
    10f0:	00000000 	nop
    10f4:	001fb021 	addu	s6,zero,ra
    10f8:	3c0ce392 	lui	t4,0xe392
    10fc:	358c49c6 	ori	t4,t4,0x49c6
    1100:	3c0dadcd 	lui	t5,0xadcd
    1104:	35ad7888 	ori	t5,t5,0x7888
    1108:	24100000 	li	s0,0
    110c:	3c080000 	lui	t0,0x0
    1110:	25081128 	addiu	t0,t0,4392
    1114:	3c090000 	lui	t1,0x0
    1118:	25291188 	addiu	t1,t1,4488
    111c:	10000013 	b	116c <n40_jalr_test+0x116c>
    1120:	24120000 	li	s2,0
    1124:	00000000 	nop
    1128:	3c10e392 	lui	s0,0xe392
    112c:	361049c6 	ori	s0,s0,0x49c6
    1130:	0120f809 	jalr	t1
    1134:	00000000 	nop
    1138:	10000015 	b	1190 <n40_jalr_test+0x1190>
    113c:	00000000 	nop
    1140:	00000000 	nop
    1144:	00000021 	move	zero,zero
    1148:	00000021 	move	zero,zero
    114c:	00000021 	move	zero,zero
    1150:	00000021 	move	zero,zero
    1154:	00000021 	move	zero,zero
    1158:	00000021 	move	zero,zero
    115c:	00000021 	move	zero,zero
    1160:	00000021 	move	zero,zero
    1164:	00000021 	move	zero,zero
    1168:	00000021 	move	zero,zero
    116c:	0100f809 	jalr	t0
    1170:	00000000 	nop
    1174:	10000006 	b	1190 <n40_jalr_test+0x1190>
    1178:	00000000 	nop
    117c:	00000000 	nop
    1180:	00000021 	move	zero,zero
    1184:	00000021 	move	zero,zero
    1188:	3c12adcd 	lui	s2,0xadcd
    118c:	36527888 	ori	s2,s2,0x7888
    1190:	001fa021 	addu	s4,zero,ra
    1194:	0016f821 	addu	ra,zero,s6
    1198:	3c150000 	lui	s5,0x0
    119c:	26b51130 	addiu	s5,s5,4400
    11a0:	3c0de392 	lui	t5,0xe392
    11a4:	35ad49c6 	ori	t5,t5,0x49c6
    11a8:	160d2822 	bne	s0,t5,b234 <inst_error>
    11ac:	00000000 	nop
    11b0:	00000000 	nop
    11b4:	3c0cadcd 	lui	t4,0xadcd
    11b8:	358c7888 	ori	t4,t4,0x7888
    11bc:	164c281d 	bne	s2,t4,b234 <inst_error>
    11c0:	00000000 	nop
    11c4:	00000000 	nop
    11c8:	26b50008 	addiu	s5,s5,8
    11cc:	16952819 	bne	s4,s5,b234 <inst_error>
    11d0:	00000000 	nop
    11d4:	00000000 	nop
    11d8:	001fb021 	addu	s6,zero,ra
    11dc:	3c0ce40a 	lui	t4,0xe40a
    11e0:	358cda2a 	ori	t4,t4,0xda2a
    11e4:	3c0d1085 	lui	t5,0x1085
    11e8:	35ad7a80 	ori	t5,t5,0x7a80
    11ec:	24100000 	li	s0,0
    11f0:	3c080000 	lui	t0,0x0
    11f4:	2508120c 	addiu	t0,t0,4620
    11f8:	3c090000 	lui	t1,0x0
    11fc:	2529126c 	addiu	t1,t1,4716
    1200:	10000013 	b	1250 <n40_jalr_test+0x1250>
    1204:	24120000 	li	s2,0
    1208:	00000000 	nop
    120c:	3c10e40a 	lui	s0,0xe40a
    1210:	3610da2a 	ori	s0,s0,0xda2a
    1214:	0120f809 	jalr	t1
    1218:	00000000 	nop
    121c:	10000015 	b	1274 <n40_jalr_test+0x1274>
    1220:	00000000 	nop
    1224:	00000000 	nop
    1228:	00000021 	move	zero,zero
    122c:	00000021 	move	zero,zero
    1230:	00000021 	move	zero,zero
    1234:	00000021 	move	zero,zero
    1238:	00000021 	move	zero,zero
    123c:	00000021 	move	zero,zero
    1240:	00000021 	move	zero,zero
    1244:	00000021 	move	zero,zero
    1248:	00000021 	move	zero,zero
    124c:	00000021 	move	zero,zero
    1250:	0100f809 	jalr	t0
    1254:	00000000 	nop
    1258:	10000006 	b	1274 <n40_jalr_test+0x1274>
    125c:	00000000 	nop
    1260:	00000000 	nop
    1264:	00000021 	move	zero,zero
    1268:	00000021 	move	zero,zero
    126c:	3c121085 	lui	s2,0x1085
    1270:	36527a80 	ori	s2,s2,0x7a80
    1274:	001fa021 	addu	s4,zero,ra
    1278:	0016f821 	addu	ra,zero,s6
    127c:	3c150000 	lui	s5,0x0
    1280:	26b51214 	addiu	s5,s5,4628
    1284:	3c0de40a 	lui	t5,0xe40a
    1288:	35adda2a 	ori	t5,t5,0xda2a
    128c:	160d27e9 	bne	s0,t5,b234 <inst_error>
    1290:	00000000 	nop
    1294:	00000000 	nop
    1298:	3c0c1085 	lui	t4,0x1085
    129c:	358c7a80 	ori	t4,t4,0x7a80
    12a0:	164c27e4 	bne	s2,t4,b234 <inst_error>
    12a4:	00000000 	nop
    12a8:	00000000 	nop
    12ac:	26b50008 	addiu	s5,s5,8
    12b0:	169527e0 	bne	s4,s5,b234 <inst_error>
    12b4:	00000000 	nop
    12b8:	00000000 	nop
    12bc:	001fb021 	addu	s6,zero,ra
    12c0:	3c0c5e3b 	lui	t4,0x5e3b
    12c4:	358ce25a 	ori	t4,t4,0xe25a
    12c8:	3c0d147f 	lui	t5,0x147f
    12cc:	35ad379c 	ori	t5,t5,0x379c
    12d0:	24100000 	li	s0,0
    12d4:	3c080000 	lui	t0,0x0
    12d8:	250812f0 	addiu	t0,t0,4848
    12dc:	3c090000 	lui	t1,0x0
    12e0:	25291350 	addiu	t1,t1,4944
    12e4:	10000013 	b	1334 <n40_jalr_test+0x1334>
    12e8:	24120000 	li	s2,0
    12ec:	00000000 	nop
    12f0:	3c105e3b 	lui	s0,0x5e3b
    12f4:	3610e25a 	ori	s0,s0,0xe25a
    12f8:	0120f809 	jalr	t1
    12fc:	00000000 	nop
    1300:	10000015 	b	1358 <n40_jalr_test+0x1358>
    1304:	00000000 	nop
    1308:	00000000 	nop
    130c:	00000021 	move	zero,zero
    1310:	00000021 	move	zero,zero
    1314:	00000021 	move	zero,zero
    1318:	00000021 	move	zero,zero
    131c:	00000021 	move	zero,zero
    1320:	00000021 	move	zero,zero
    1324:	00000021 	move	zero,zero
    1328:	00000021 	move	zero,zero
    132c:	00000021 	move	zero,zero
    1330:	00000021 	move	zero,zero
    1334:	0100f809 	jalr	t0
    1338:	00000000 	nop
    133c:	10000006 	b	1358 <n40_jalr_test+0x1358>
    1340:	00000000 	nop
    1344:	00000000 	nop
    1348:	00000021 	move	zero,zero
    134c:	00000021 	move	zero,zero
    1350:	3c12147f 	lui	s2,0x147f
    1354:	3652379c 	ori	s2,s2,0x379c
    1358:	001fa021 	addu	s4,zero,ra
    135c:	0016f821 	addu	ra,zero,s6
    1360:	3c150000 	lui	s5,0x0
    1364:	26b512f8 	addiu	s5,s5,4856
    1368:	3c0d5e3b 	lui	t5,0x5e3b
    136c:	35ade25a 	ori	t5,t5,0xe25a
    1370:	160d27b0 	bne	s0,t5,b234 <inst_error>
    1374:	00000000 	nop
    1378:	00000000 	nop
    137c:	3c0c147f 	lui	t4,0x147f
    1380:	358c379c 	ori	t4,t4,0x379c
    1384:	164c27ab 	bne	s2,t4,b234 <inst_error>
    1388:	00000000 	nop
    138c:	00000000 	nop
    1390:	26b50008 	addiu	s5,s5,8
    1394:	169527a7 	bne	s4,s5,b234 <inst_error>
    1398:	00000000 	nop
    139c:	00000000 	nop
    13a0:	001fb021 	addu	s6,zero,ra
    13a4:	3c0c411b 	lui	t4,0x411b
    13a8:	358cd014 	ori	t4,t4,0xd014
    13ac:	3c0dcbdb 	lui	t5,0xcbdb
    13b0:	35ad91f0 	ori	t5,t5,0x91f0
    13b4:	24100000 	li	s0,0
    13b8:	3c080000 	lui	t0,0x0
    13bc:	250813d4 	addiu	t0,t0,5076
    13c0:	3c090000 	lui	t1,0x0
    13c4:	25291434 	addiu	t1,t1,5172
    13c8:	10000013 	b	1418 <n40_jalr_test+0x1418>
    13cc:	24120000 	li	s2,0
    13d0:	00000000 	nop
    13d4:	3c10411b 	lui	s0,0x411b
    13d8:	3610d014 	ori	s0,s0,0xd014
    13dc:	0120f809 	jalr	t1
    13e0:	00000000 	nop
    13e4:	10000015 	b	143c <n40_jalr_test+0x143c>
    13e8:	00000000 	nop
    13ec:	00000000 	nop
    13f0:	00000021 	move	zero,zero
    13f4:	00000021 	move	zero,zero
    13f8:	00000021 	move	zero,zero
    13fc:	00000021 	move	zero,zero
    1400:	00000021 	move	zero,zero
    1404:	00000021 	move	zero,zero
    1408:	00000021 	move	zero,zero
    140c:	00000021 	move	zero,zero
    1410:	00000021 	move	zero,zero
    1414:	00000021 	move	zero,zero
    1418:	0100f809 	jalr	t0
    141c:	00000000 	nop
    1420:	10000006 	b	143c <n40_jalr_test+0x143c>
    1424:	00000000 	nop
    1428:	00000000 	nop
    142c:	00000021 	move	zero,zero
    1430:	00000021 	move	zero,zero
    1434:	3c12cbdb 	lui	s2,0xcbdb
    1438:	365291f0 	ori	s2,s2,0x91f0
    143c:	001fa021 	addu	s4,zero,ra
    1440:	0016f821 	addu	ra,zero,s6
    1444:	3c150000 	lui	s5,0x0
    1448:	26b513dc 	addiu	s5,s5,5084
    144c:	3c0d411b 	lui	t5,0x411b
    1450:	35add014 	ori	t5,t5,0xd014
    1454:	160d2777 	bne	s0,t5,b234 <inst_error>
    1458:	00000000 	nop
    145c:	00000000 	nop
    1460:	3c0ccbdb 	lui	t4,0xcbdb
    1464:	358c91f0 	ori	t4,t4,0x91f0
    1468:	164c2772 	bne	s2,t4,b234 <inst_error>
    146c:	00000000 	nop
    1470:	00000000 	nop
    1474:	26b50008 	addiu	s5,s5,8
    1478:	1695276e 	bne	s4,s5,b234 <inst_error>
    147c:	00000000 	nop
    1480:	00000000 	nop
    1484:	001fb021 	addu	s6,zero,ra
    1488:	3c0c8bf6 	lui	t4,0x8bf6
    148c:	358c6f88 	ori	t4,t4,0x6f88
    1490:	3c0d9c01 	lui	t5,0x9c01
    1494:	35ade678 	ori	t5,t5,0xe678
    1498:	24100000 	li	s0,0
    149c:	3c080000 	lui	t0,0x0
    14a0:	250814b8 	addiu	t0,t0,5304
    14a4:	3c090000 	lui	t1,0x0
    14a8:	25291518 	addiu	t1,t1,5400
    14ac:	10000013 	b	14fc <n40_jalr_test+0x14fc>
    14b0:	24120000 	li	s2,0
    14b4:	00000000 	nop
    14b8:	3c108bf6 	lui	s0,0x8bf6
    14bc:	36106f88 	ori	s0,s0,0x6f88
    14c0:	0120f809 	jalr	t1
    14c4:	00000000 	nop
    14c8:	10000015 	b	1520 <n40_jalr_test+0x1520>
    14cc:	00000000 	nop
    14d0:	00000000 	nop
    14d4:	00000021 	move	zero,zero
    14d8:	00000021 	move	zero,zero
    14dc:	00000021 	move	zero,zero
    14e0:	00000021 	move	zero,zero
    14e4:	00000021 	move	zero,zero
    14e8:	00000021 	move	zero,zero
    14ec:	00000021 	move	zero,zero
    14f0:	00000021 	move	zero,zero
    14f4:	00000021 	move	zero,zero
    14f8:	00000021 	move	zero,zero
    14fc:	0100f809 	jalr	t0
    1500:	00000000 	nop
    1504:	10000006 	b	1520 <n40_jalr_test+0x1520>
    1508:	00000000 	nop
    150c:	00000000 	nop
    1510:	00000021 	move	zero,zero
    1514:	00000021 	move	zero,zero
    1518:	3c129c01 	lui	s2,0x9c01
    151c:	3652e678 	ori	s2,s2,0xe678
    1520:	001fa021 	addu	s4,zero,ra
    1524:	0016f821 	addu	ra,zero,s6
    1528:	3c150000 	lui	s5,0x0
    152c:	26b514c0 	addiu	s5,s5,5312
    1530:	3c0d8bf6 	lui	t5,0x8bf6
    1534:	35ad6f88 	ori	t5,t5,0x6f88
    1538:	160d273e 	bne	s0,t5,b234 <inst_error>
    153c:	00000000 	nop
    1540:	00000000 	nop
    1544:	3c0c9c01 	lui	t4,0x9c01
    1548:	358ce678 	ori	t4,t4,0xe678
    154c:	164c2739 	bne	s2,t4,b234 <inst_error>
    1550:	00000000 	nop
    1554:	00000000 	nop
    1558:	26b50008 	addiu	s5,s5,8
    155c:	16952735 	bne	s4,s5,b234 <inst_error>
    1560:	00000000 	nop
    1564:	00000000 	nop
    1568:	001fb021 	addu	s6,zero,ra
    156c:	3c0cd2db 	lui	t4,0xd2db
    1570:	358ce41e 	ori	t4,t4,0xe41e
    1574:	3c0dc555 	lui	t5,0xc555
    1578:	35ade593 	ori	t5,t5,0xe593
    157c:	24100000 	li	s0,0
    1580:	3c080000 	lui	t0,0x0
    1584:	2508159c 	addiu	t0,t0,5532
    1588:	3c090000 	lui	t1,0x0
    158c:	252915fc 	addiu	t1,t1,5628
    1590:	10000013 	b	15e0 <n40_jalr_test+0x15e0>
    1594:	24120000 	li	s2,0
    1598:	00000000 	nop
    159c:	3c10d2db 	lui	s0,0xd2db
    15a0:	3610e41e 	ori	s0,s0,0xe41e
    15a4:	0120f809 	jalr	t1
    15a8:	00000000 	nop
    15ac:	10000015 	b	1604 <n40_jalr_test+0x1604>
    15b0:	00000000 	nop
    15b4:	00000000 	nop
    15b8:	00000021 	move	zero,zero
    15bc:	00000021 	move	zero,zero
    15c0:	00000021 	move	zero,zero
    15c4:	00000021 	move	zero,zero
    15c8:	00000021 	move	zero,zero
    15cc:	00000021 	move	zero,zero
    15d0:	00000021 	move	zero,zero
    15d4:	00000021 	move	zero,zero
    15d8:	00000021 	move	zero,zero
    15dc:	00000021 	move	zero,zero
    15e0:	0100f809 	jalr	t0
    15e4:	00000000 	nop
    15e8:	10000006 	b	1604 <n40_jalr_test+0x1604>
    15ec:	00000000 	nop
    15f0:	00000000 	nop
    15f4:	00000021 	move	zero,zero
    15f8:	00000021 	move	zero,zero
    15fc:	3c12c555 	lui	s2,0xc555
    1600:	3652e593 	ori	s2,s2,0xe593
    1604:	001fa021 	addu	s4,zero,ra
    1608:	0016f821 	addu	ra,zero,s6
    160c:	3c150000 	lui	s5,0x0
    1610:	26b515a4 	addiu	s5,s5,5540
    1614:	3c0dd2db 	lui	t5,0xd2db
    1618:	35ade41e 	ori	t5,t5,0xe41e
    161c:	160d2705 	bne	s0,t5,b234 <inst_error>
    1620:	00000000 	nop
    1624:	00000000 	nop
    1628:	3c0cc555 	lui	t4,0xc555
    162c:	358ce593 	ori	t4,t4,0xe593
    1630:	164c2700 	bne	s2,t4,b234 <inst_error>
    1634:	00000000 	nop
    1638:	00000000 	nop
    163c:	26b50008 	addiu	s5,s5,8
    1640:	169526fc 	bne	s4,s5,b234 <inst_error>
    1644:	00000000 	nop
    1648:	00000000 	nop
    164c:	001fb021 	addu	s6,zero,ra
    1650:	3c0c4a63 	lui	t4,0x4a63
    1654:	358cd80f 	ori	t4,t4,0xd80f
    1658:	3c0d0be2 	lui	t5,0xbe2
    165c:	35addf78 	ori	t5,t5,0xdf78
    1660:	24100000 	li	s0,0
    1664:	3c080000 	lui	t0,0x0
    1668:	25081680 	addiu	t0,t0,5760
    166c:	3c090000 	lui	t1,0x0
    1670:	252916e0 	addiu	t1,t1,5856
    1674:	10000013 	b	16c4 <n40_jalr_test+0x16c4>
    1678:	24120000 	li	s2,0
    167c:	00000000 	nop
    1680:	3c104a63 	lui	s0,0x4a63
    1684:	3610d80f 	ori	s0,s0,0xd80f
    1688:	0120f809 	jalr	t1
    168c:	00000000 	nop
    1690:	10000015 	b	16e8 <n40_jalr_test+0x16e8>
    1694:	00000000 	nop
    1698:	00000000 	nop
    169c:	00000021 	move	zero,zero
    16a0:	00000021 	move	zero,zero
    16a4:	00000021 	move	zero,zero
    16a8:	00000021 	move	zero,zero
    16ac:	00000021 	move	zero,zero
    16b0:	00000021 	move	zero,zero
    16b4:	00000021 	move	zero,zero
    16b8:	00000021 	move	zero,zero
    16bc:	00000021 	move	zero,zero
    16c0:	00000021 	move	zero,zero
    16c4:	0100f809 	jalr	t0
    16c8:	00000000 	nop
    16cc:	10000006 	b	16e8 <n40_jalr_test+0x16e8>
    16d0:	00000000 	nop
    16d4:	00000000 	nop
    16d8:	00000021 	move	zero,zero
    16dc:	00000021 	move	zero,zero
    16e0:	3c120be2 	lui	s2,0xbe2
    16e4:	3652df78 	ori	s2,s2,0xdf78
    16e8:	001fa021 	addu	s4,zero,ra
    16ec:	0016f821 	addu	ra,zero,s6
    16f0:	3c150000 	lui	s5,0x0
    16f4:	26b51688 	addiu	s5,s5,5768
    16f8:	3c0d4a63 	lui	t5,0x4a63
    16fc:	35add80f 	ori	t5,t5,0xd80f
    1700:	160d26cc 	bne	s0,t5,b234 <inst_error>
    1704:	00000000 	nop
    1708:	00000000 	nop
    170c:	3c0c0be2 	lui	t4,0xbe2
    1710:	358cdf78 	ori	t4,t4,0xdf78
    1714:	164c26c7 	bne	s2,t4,b234 <inst_error>
    1718:	00000000 	nop
    171c:	00000000 	nop
    1720:	26b50008 	addiu	s5,s5,8
    1724:	169526c3 	bne	s4,s5,b234 <inst_error>
    1728:	00000000 	nop
    172c:	00000000 	nop
    1730:	001fb021 	addu	s6,zero,ra
    1734:	3c0c349a 	lui	t4,0x349a
    1738:	358cf1fb 	ori	t4,t4,0xf1fb
    173c:	3c0dada0 	lui	t5,0xada0
    1740:	35ad5010 	ori	t5,t5,0x5010
    1744:	24100000 	li	s0,0
    1748:	3c080000 	lui	t0,0x0
    174c:	25081764 	addiu	t0,t0,5988
    1750:	3c090000 	lui	t1,0x0
    1754:	252917c4 	addiu	t1,t1,6084
    1758:	10000013 	b	17a8 <n40_jalr_test+0x17a8>
    175c:	24120000 	li	s2,0
    1760:	00000000 	nop
    1764:	3c10349a 	lui	s0,0x349a
    1768:	3610f1fb 	ori	s0,s0,0xf1fb
    176c:	0120f809 	jalr	t1
    1770:	00000000 	nop
    1774:	10000015 	b	17cc <n40_jalr_test+0x17cc>
    1778:	00000000 	nop
    177c:	00000000 	nop
    1780:	00000021 	move	zero,zero
    1784:	00000021 	move	zero,zero
    1788:	00000021 	move	zero,zero
    178c:	00000021 	move	zero,zero
    1790:	00000021 	move	zero,zero
    1794:	00000021 	move	zero,zero
    1798:	00000021 	move	zero,zero
    179c:	00000021 	move	zero,zero
    17a0:	00000021 	move	zero,zero
    17a4:	00000021 	move	zero,zero
    17a8:	0100f809 	jalr	t0
    17ac:	00000000 	nop
    17b0:	10000006 	b	17cc <n40_jalr_test+0x17cc>
    17b4:	00000000 	nop
    17b8:	00000000 	nop
    17bc:	00000021 	move	zero,zero
    17c0:	00000021 	move	zero,zero
    17c4:	3c12ada0 	lui	s2,0xada0
    17c8:	36525010 	ori	s2,s2,0x5010
    17cc:	001fa021 	addu	s4,zero,ra
    17d0:	0016f821 	addu	ra,zero,s6
    17d4:	3c150000 	lui	s5,0x0
    17d8:	26b5176c 	addiu	s5,s5,5996
    17dc:	3c0d349a 	lui	t5,0x349a
    17e0:	35adf1fb 	ori	t5,t5,0xf1fb
    17e4:	160d2693 	bne	s0,t5,b234 <inst_error>
    17e8:	00000000 	nop
    17ec:	00000000 	nop
    17f0:	3c0cada0 	lui	t4,0xada0
    17f4:	358c5010 	ori	t4,t4,0x5010
    17f8:	164c268e 	bne	s2,t4,b234 <inst_error>
    17fc:	00000000 	nop
    1800:	00000000 	nop
    1804:	26b50008 	addiu	s5,s5,8
    1808:	1695268a 	bne	s4,s5,b234 <inst_error>
    180c:	00000000 	nop
    1810:	00000000 	nop
    1814:	001fb021 	addu	s6,zero,ra
    1818:	3c0c30ed 	lui	t4,0x30ed
    181c:	358c73d0 	ori	t4,t4,0x73d0
    1820:	3c0df431 	lui	t5,0xf431
    1824:	35ad85b8 	ori	t5,t5,0x85b8
    1828:	24100000 	li	s0,0
    182c:	3c080000 	lui	t0,0x0
    1830:	25081848 	addiu	t0,t0,6216
    1834:	3c090000 	lui	t1,0x0
    1838:	252918a8 	addiu	t1,t1,6312
    183c:	10000013 	b	188c <n40_jalr_test+0x188c>
    1840:	24120000 	li	s2,0
    1844:	00000000 	nop
    1848:	3c1030ed 	lui	s0,0x30ed
    184c:	361073d0 	ori	s0,s0,0x73d0
    1850:	0120f809 	jalr	t1
    1854:	00000000 	nop
    1858:	10000015 	b	18b0 <n40_jalr_test+0x18b0>
    185c:	00000000 	nop
    1860:	00000000 	nop
    1864:	00000021 	move	zero,zero
    1868:	00000021 	move	zero,zero
    186c:	00000021 	move	zero,zero
    1870:	00000021 	move	zero,zero
    1874:	00000021 	move	zero,zero
    1878:	00000021 	move	zero,zero
    187c:	00000021 	move	zero,zero
    1880:	00000021 	move	zero,zero
    1884:	00000021 	move	zero,zero
    1888:	00000021 	move	zero,zero
    188c:	0100f809 	jalr	t0
    1890:	00000000 	nop
    1894:	10000006 	b	18b0 <n40_jalr_test+0x18b0>
    1898:	00000000 	nop
    189c:	00000000 	nop
    18a0:	00000021 	move	zero,zero
    18a4:	00000021 	move	zero,zero
    18a8:	3c12f431 	lui	s2,0xf431
    18ac:	365285b8 	ori	s2,s2,0x85b8
    18b0:	001fa021 	addu	s4,zero,ra
    18b4:	0016f821 	addu	ra,zero,s6
    18b8:	3c150000 	lui	s5,0x0
    18bc:	26b51850 	addiu	s5,s5,6224
    18c0:	3c0d30ed 	lui	t5,0x30ed
    18c4:	35ad73d0 	ori	t5,t5,0x73d0
    18c8:	160d265a 	bne	s0,t5,b234 <inst_error>
    18cc:	00000000 	nop
    18d0:	00000000 	nop
    18d4:	3c0cf431 	lui	t4,0xf431
    18d8:	358c85b8 	ori	t4,t4,0x85b8
    18dc:	164c2655 	bne	s2,t4,b234 <inst_error>
    18e0:	00000000 	nop
    18e4:	00000000 	nop
    18e8:	26b50008 	addiu	s5,s5,8
    18ec:	16952651 	bne	s4,s5,b234 <inst_error>
    18f0:	00000000 	nop
    18f4:	00000000 	nop
    18f8:	001fb021 	addu	s6,zero,ra
    18fc:	3c0c5488 	lui	t4,0x5488
    1900:	358cc147 	ori	t4,t4,0xc147
    1904:	3c0def42 	lui	t5,0xef42
    1908:	35ad3493 	ori	t5,t5,0x3493
    190c:	24100000 	li	s0,0
    1910:	3c080000 	lui	t0,0x0
    1914:	2508192c 	addiu	t0,t0,6444
    1918:	3c090000 	lui	t1,0x0
    191c:	2529198c 	addiu	t1,t1,6540
    1920:	10000013 	b	1970 <n40_jalr_test+0x1970>
    1924:	24120000 	li	s2,0
    1928:	00000000 	nop
    192c:	3c105488 	lui	s0,0x5488
    1930:	3610c147 	ori	s0,s0,0xc147
    1934:	0120f809 	jalr	t1
    1938:	00000000 	nop
    193c:	10000015 	b	1994 <n40_jalr_test+0x1994>
    1940:	00000000 	nop
    1944:	00000000 	nop
    1948:	00000021 	move	zero,zero
    194c:	00000021 	move	zero,zero
    1950:	00000021 	move	zero,zero
    1954:	00000021 	move	zero,zero
    1958:	00000021 	move	zero,zero
    195c:	00000021 	move	zero,zero
    1960:	00000021 	move	zero,zero
    1964:	00000021 	move	zero,zero
    1968:	00000021 	move	zero,zero
    196c:	00000021 	move	zero,zero
    1970:	0100f809 	jalr	t0
    1974:	00000000 	nop
    1978:	10000006 	b	1994 <n40_jalr_test+0x1994>
    197c:	00000000 	nop
    1980:	00000000 	nop
    1984:	00000021 	move	zero,zero
    1988:	00000021 	move	zero,zero
    198c:	3c12ef42 	lui	s2,0xef42
    1990:	36523493 	ori	s2,s2,0x3493
    1994:	001fa021 	addu	s4,zero,ra
    1998:	0016f821 	addu	ra,zero,s6
    199c:	3c150000 	lui	s5,0x0
    19a0:	26b51934 	addiu	s5,s5,6452
    19a4:	3c0d5488 	lui	t5,0x5488
    19a8:	35adc147 	ori	t5,t5,0xc147
    19ac:	160d2621 	bne	s0,t5,b234 <inst_error>
    19b0:	00000000 	nop
    19b4:	00000000 	nop
    19b8:	3c0cef42 	lui	t4,0xef42
    19bc:	358c3493 	ori	t4,t4,0x3493
    19c0:	164c261c 	bne	s2,t4,b234 <inst_error>
    19c4:	00000000 	nop
    19c8:	00000000 	nop
    19cc:	26b50008 	addiu	s5,s5,8
    19d0:	16952618 	bne	s4,s5,b234 <inst_error>
    19d4:	00000000 	nop
    19d8:	00000000 	nop
    19dc:	001fb021 	addu	s6,zero,ra
    19e0:	3c0c280d 	lui	t4,0x280d
    19e4:	358ccfb0 	ori	t4,t4,0xcfb0
    19e8:	3c0d654b 	lui	t5,0x654b
    19ec:	35ad02dc 	ori	t5,t5,0x2dc
    19f0:	24100000 	li	s0,0
    19f4:	3c080000 	lui	t0,0x0
    19f8:	25081a10 	addiu	t0,t0,6672
    19fc:	3c090000 	lui	t1,0x0
    1a00:	25291a70 	addiu	t1,t1,6768
    1a04:	10000013 	b	1a54 <n40_jalr_test+0x1a54>
    1a08:	24120000 	li	s2,0
    1a0c:	00000000 	nop
    1a10:	3c10280d 	lui	s0,0x280d
    1a14:	3610cfb0 	ori	s0,s0,0xcfb0
    1a18:	0120f809 	jalr	t1
    1a1c:	00000000 	nop
    1a20:	10000015 	b	1a78 <n40_jalr_test+0x1a78>
    1a24:	00000000 	nop
    1a28:	00000000 	nop
    1a2c:	00000021 	move	zero,zero
    1a30:	00000021 	move	zero,zero
    1a34:	00000021 	move	zero,zero
    1a38:	00000021 	move	zero,zero
    1a3c:	00000021 	move	zero,zero
    1a40:	00000021 	move	zero,zero
    1a44:	00000021 	move	zero,zero
    1a48:	00000021 	move	zero,zero
    1a4c:	00000021 	move	zero,zero
    1a50:	00000021 	move	zero,zero
    1a54:	0100f809 	jalr	t0
    1a58:	00000000 	nop
    1a5c:	10000006 	b	1a78 <n40_jalr_test+0x1a78>
    1a60:	00000000 	nop
    1a64:	00000000 	nop
    1a68:	00000021 	move	zero,zero
    1a6c:	00000021 	move	zero,zero
    1a70:	3c12654b 	lui	s2,0x654b
    1a74:	365202dc 	ori	s2,s2,0x2dc
    1a78:	001fa021 	addu	s4,zero,ra
    1a7c:	0016f821 	addu	ra,zero,s6
    1a80:	3c150000 	lui	s5,0x0
    1a84:	26b51a18 	addiu	s5,s5,6680
    1a88:	3c0d280d 	lui	t5,0x280d
    1a8c:	35adcfb0 	ori	t5,t5,0xcfb0
    1a90:	160d25e8 	bne	s0,t5,b234 <inst_error>
    1a94:	00000000 	nop
    1a98:	00000000 	nop
    1a9c:	3c0c654b 	lui	t4,0x654b
    1aa0:	358c02dc 	ori	t4,t4,0x2dc
    1aa4:	164c25e3 	bne	s2,t4,b234 <inst_error>
    1aa8:	00000000 	nop
    1aac:	00000000 	nop
    1ab0:	26b50008 	addiu	s5,s5,8
    1ab4:	169525df 	bne	s4,s5,b234 <inst_error>
    1ab8:	00000000 	nop
    1abc:	00000000 	nop
    1ac0:	001fb021 	addu	s6,zero,ra
    1ac4:	3c0c0ac9 	lui	t4,0xac9
    1ac8:	358c2d20 	ori	t4,t4,0x2d20
    1acc:	3c0d704b 	lui	t5,0x704b
    1ad0:	35adae70 	ori	t5,t5,0xae70
    1ad4:	24100000 	li	s0,0
    1ad8:	3c080000 	lui	t0,0x0
    1adc:	25081af4 	addiu	t0,t0,6900
    1ae0:	3c090000 	lui	t1,0x0
    1ae4:	25291b54 	addiu	t1,t1,6996
    1ae8:	10000013 	b	1b38 <n40_jalr_test+0x1b38>
    1aec:	24120000 	li	s2,0
    1af0:	00000000 	nop
    1af4:	3c100ac9 	lui	s0,0xac9
    1af8:	36102d20 	ori	s0,s0,0x2d20
    1afc:	0120f809 	jalr	t1
    1b00:	00000000 	nop
    1b04:	10000015 	b	1b5c <n40_jalr_test+0x1b5c>
    1b08:	00000000 	nop
    1b0c:	00000000 	nop
    1b10:	00000021 	move	zero,zero
    1b14:	00000021 	move	zero,zero
    1b18:	00000021 	move	zero,zero
    1b1c:	00000021 	move	zero,zero
    1b20:	00000021 	move	zero,zero
    1b24:	00000021 	move	zero,zero
    1b28:	00000021 	move	zero,zero
    1b2c:	00000021 	move	zero,zero
    1b30:	00000021 	move	zero,zero
    1b34:	00000021 	move	zero,zero
    1b38:	0100f809 	jalr	t0
    1b3c:	00000000 	nop
    1b40:	10000006 	b	1b5c <n40_jalr_test+0x1b5c>
    1b44:	00000000 	nop
    1b48:	00000000 	nop
    1b4c:	00000021 	move	zero,zero
    1b50:	00000021 	move	zero,zero
    1b54:	3c12704b 	lui	s2,0x704b
    1b58:	3652ae70 	ori	s2,s2,0xae70
    1b5c:	001fa021 	addu	s4,zero,ra
    1b60:	0016f821 	addu	ra,zero,s6
    1b64:	3c150000 	lui	s5,0x0
    1b68:	26b51afc 	addiu	s5,s5,6908
    1b6c:	3c0d0ac9 	lui	t5,0xac9
    1b70:	35ad2d20 	ori	t5,t5,0x2d20
    1b74:	160d25af 	bne	s0,t5,b234 <inst_error>
    1b78:	00000000 	nop
    1b7c:	00000000 	nop
    1b80:	3c0c704b 	lui	t4,0x704b
    1b84:	358cae70 	ori	t4,t4,0xae70
    1b88:	164c25aa 	bne	s2,t4,b234 <inst_error>
    1b8c:	00000000 	nop
    1b90:	00000000 	nop
    1b94:	26b50008 	addiu	s5,s5,8
    1b98:	169525a6 	bne	s4,s5,b234 <inst_error>
    1b9c:	00000000 	nop
    1ba0:	00000000 	nop
    1ba4:	001fb021 	addu	s6,zero,ra
    1ba8:	3c0c1ef2 	lui	t4,0x1ef2
    1bac:	358c2360 	ori	t4,t4,0x2360
    1bb0:	3c0d73a8 	lui	t5,0x73a8
    1bb4:	35ade5f8 	ori	t5,t5,0xe5f8
    1bb8:	24100000 	li	s0,0
    1bbc:	3c080000 	lui	t0,0x0
    1bc0:	25081bd8 	addiu	t0,t0,7128
    1bc4:	3c090000 	lui	t1,0x0
    1bc8:	25291c38 	addiu	t1,t1,7224
    1bcc:	10000013 	b	1c1c <n40_jalr_test+0x1c1c>
    1bd0:	24120000 	li	s2,0
    1bd4:	00000000 	nop
    1bd8:	3c101ef2 	lui	s0,0x1ef2
    1bdc:	36102360 	ori	s0,s0,0x2360
    1be0:	0120f809 	jalr	t1
    1be4:	00000000 	nop
    1be8:	10000015 	b	1c40 <n40_jalr_test+0x1c40>
    1bec:	00000000 	nop
    1bf0:	00000000 	nop
    1bf4:	00000021 	move	zero,zero
    1bf8:	00000021 	move	zero,zero
    1bfc:	00000021 	move	zero,zero
    1c00:	00000021 	move	zero,zero
    1c04:	00000021 	move	zero,zero
    1c08:	00000021 	move	zero,zero
    1c0c:	00000021 	move	zero,zero
    1c10:	00000021 	move	zero,zero
    1c14:	00000021 	move	zero,zero
    1c18:	00000021 	move	zero,zero
    1c1c:	0100f809 	jalr	t0
    1c20:	00000000 	nop
    1c24:	10000006 	b	1c40 <n40_jalr_test+0x1c40>
    1c28:	00000000 	nop
    1c2c:	00000000 	nop
    1c30:	00000021 	move	zero,zero
    1c34:	00000021 	move	zero,zero
    1c38:	3c1273a8 	lui	s2,0x73a8
    1c3c:	3652e5f8 	ori	s2,s2,0xe5f8
    1c40:	001fa021 	addu	s4,zero,ra
    1c44:	0016f821 	addu	ra,zero,s6
    1c48:	3c150000 	lui	s5,0x0
    1c4c:	26b51be0 	addiu	s5,s5,7136
    1c50:	3c0d1ef2 	lui	t5,0x1ef2
    1c54:	35ad2360 	ori	t5,t5,0x2360
    1c58:	160d2576 	bne	s0,t5,b234 <inst_error>
    1c5c:	00000000 	nop
    1c60:	00000000 	nop
    1c64:	3c0c73a8 	lui	t4,0x73a8
    1c68:	358ce5f8 	ori	t4,t4,0xe5f8
    1c6c:	164c2571 	bne	s2,t4,b234 <inst_error>
    1c70:	00000000 	nop
    1c74:	00000000 	nop
    1c78:	26b50008 	addiu	s5,s5,8
    1c7c:	1695256d 	bne	s4,s5,b234 <inst_error>
    1c80:	00000000 	nop
    1c84:	00000000 	nop
    1c88:	001fb021 	addu	s6,zero,ra
    1c8c:	3c0ccbde 	lui	t4,0xcbde
    1c90:	358ccc5e 	ori	t4,t4,0xcc5e
    1c94:	3c0d2ad3 	lui	t5,0x2ad3
    1c98:	35ad1d30 	ori	t5,t5,0x1d30
    1c9c:	24100000 	li	s0,0
    1ca0:	3c080000 	lui	t0,0x0
    1ca4:	25081cbc 	addiu	t0,t0,7356
    1ca8:	3c090000 	lui	t1,0x0
    1cac:	25291d1c 	addiu	t1,t1,7452
    1cb0:	10000013 	b	1d00 <n40_jalr_test+0x1d00>
    1cb4:	24120000 	li	s2,0
    1cb8:	00000000 	nop
    1cbc:	3c10cbde 	lui	s0,0xcbde
    1cc0:	3610cc5e 	ori	s0,s0,0xcc5e
    1cc4:	0120f809 	jalr	t1
    1cc8:	00000000 	nop
    1ccc:	10000015 	b	1d24 <n40_jalr_test+0x1d24>
    1cd0:	00000000 	nop
    1cd4:	00000000 	nop
    1cd8:	00000021 	move	zero,zero
    1cdc:	00000021 	move	zero,zero
    1ce0:	00000021 	move	zero,zero
    1ce4:	00000021 	move	zero,zero
    1ce8:	00000021 	move	zero,zero
    1cec:	00000021 	move	zero,zero
    1cf0:	00000021 	move	zero,zero
    1cf4:	00000021 	move	zero,zero
    1cf8:	00000021 	move	zero,zero
    1cfc:	00000021 	move	zero,zero
    1d00:	0100f809 	jalr	t0
    1d04:	00000000 	nop
    1d08:	10000006 	b	1d24 <n40_jalr_test+0x1d24>
    1d0c:	00000000 	nop
    1d10:	00000000 	nop
    1d14:	00000021 	move	zero,zero
    1d18:	00000021 	move	zero,zero
    1d1c:	3c122ad3 	lui	s2,0x2ad3
    1d20:	36521d30 	ori	s2,s2,0x1d30
    1d24:	001fa021 	addu	s4,zero,ra
    1d28:	0016f821 	addu	ra,zero,s6
    1d2c:	3c150000 	lui	s5,0x0
    1d30:	26b51cc4 	addiu	s5,s5,7364
    1d34:	3c0dcbde 	lui	t5,0xcbde
    1d38:	35adcc5e 	ori	t5,t5,0xcc5e
    1d3c:	160d253d 	bne	s0,t5,b234 <inst_error>
    1d40:	00000000 	nop
    1d44:	00000000 	nop
    1d48:	3c0c2ad3 	lui	t4,0x2ad3
    1d4c:	358c1d30 	ori	t4,t4,0x1d30
    1d50:	164c2538 	bne	s2,t4,b234 <inst_error>
    1d54:	00000000 	nop
    1d58:	00000000 	nop
    1d5c:	26b50008 	addiu	s5,s5,8
    1d60:	16952534 	bne	s4,s5,b234 <inst_error>
    1d64:	00000000 	nop
    1d68:	00000000 	nop
    1d6c:	001fb021 	addu	s6,zero,ra
    1d70:	3c0ccd0c 	lui	t4,0xcd0c
    1d74:	358c7478 	ori	t4,t4,0x7478
    1d78:	3c0dbe1a 	lui	t5,0xbe1a
    1d7c:	35ad2679 	ori	t5,t5,0x2679
    1d80:	24100000 	li	s0,0
    1d84:	3c080000 	lui	t0,0x0
    1d88:	25081da0 	addiu	t0,t0,7584
    1d8c:	3c090000 	lui	t1,0x0
    1d90:	25291e00 	addiu	t1,t1,7680
    1d94:	10000013 	b	1de4 <n40_jalr_test+0x1de4>
    1d98:	24120000 	li	s2,0
    1d9c:	00000000 	nop
    1da0:	3c10cd0c 	lui	s0,0xcd0c
    1da4:	36107478 	ori	s0,s0,0x7478
    1da8:	0120f809 	jalr	t1
    1dac:	00000000 	nop
    1db0:	10000015 	b	1e08 <n40_jalr_test+0x1e08>
    1db4:	00000000 	nop
    1db8:	00000000 	nop
    1dbc:	00000021 	move	zero,zero
    1dc0:	00000021 	move	zero,zero
    1dc4:	00000021 	move	zero,zero
    1dc8:	00000021 	move	zero,zero
    1dcc:	00000021 	move	zero,zero
    1dd0:	00000021 	move	zero,zero
    1dd4:	00000021 	move	zero,zero
    1dd8:	00000021 	move	zero,zero
    1ddc:	00000021 	move	zero,zero
    1de0:	00000021 	move	zero,zero
    1de4:	0100f809 	jalr	t0
    1de8:	00000000 	nop
    1dec:	10000006 	b	1e08 <n40_jalr_test+0x1e08>
    1df0:	00000000 	nop
    1df4:	00000000 	nop
    1df8:	00000021 	move	zero,zero
    1dfc:	00000021 	move	zero,zero
    1e00:	3c12be1a 	lui	s2,0xbe1a
    1e04:	36522679 	ori	s2,s2,0x2679
    1e08:	001fa021 	addu	s4,zero,ra
    1e0c:	0016f821 	addu	ra,zero,s6
    1e10:	3c150000 	lui	s5,0x0
    1e14:	26b51da8 	addiu	s5,s5,7592
    1e18:	3c0dcd0c 	lui	t5,0xcd0c
    1e1c:	35ad7478 	ori	t5,t5,0x7478
    1e20:	160d2504 	bne	s0,t5,b234 <inst_error>
    1e24:	00000000 	nop
    1e28:	00000000 	nop
    1e2c:	3c0cbe1a 	lui	t4,0xbe1a
    1e30:	358c2679 	ori	t4,t4,0x2679
    1e34:	164c24ff 	bne	s2,t4,b234 <inst_error>
    1e38:	00000000 	nop
    1e3c:	00000000 	nop
    1e40:	26b50008 	addiu	s5,s5,8
    1e44:	169524fb 	bne	s4,s5,b234 <inst_error>
    1e48:	00000000 	nop
    1e4c:	00000000 	nop
    1e50:	001fb021 	addu	s6,zero,ra
    1e54:	3c0cb22d 	lui	t4,0xb22d
    1e58:	358cbf3a 	ori	t4,t4,0xbf3a
    1e5c:	3c0d6a75 	lui	t5,0x6a75
    1e60:	35ad9f80 	ori	t5,t5,0x9f80
    1e64:	24100000 	li	s0,0
    1e68:	3c080000 	lui	t0,0x0
    1e6c:	25081e84 	addiu	t0,t0,7812
    1e70:	3c090000 	lui	t1,0x0
    1e74:	25291ee4 	addiu	t1,t1,7908
    1e78:	10000013 	b	1ec8 <n40_jalr_test+0x1ec8>
    1e7c:	24120000 	li	s2,0
    1e80:	00000000 	nop
    1e84:	3c10b22d 	lui	s0,0xb22d
    1e88:	3610bf3a 	ori	s0,s0,0xbf3a
    1e8c:	0120f809 	jalr	t1
    1e90:	00000000 	nop
    1e94:	10000015 	b	1eec <n40_jalr_test+0x1eec>
    1e98:	00000000 	nop
    1e9c:	00000000 	nop
    1ea0:	00000021 	move	zero,zero
    1ea4:	00000021 	move	zero,zero
    1ea8:	00000021 	move	zero,zero
    1eac:	00000021 	move	zero,zero
    1eb0:	00000021 	move	zero,zero
    1eb4:	00000021 	move	zero,zero
    1eb8:	00000021 	move	zero,zero
    1ebc:	00000021 	move	zero,zero
    1ec0:	00000021 	move	zero,zero
    1ec4:	00000021 	move	zero,zero
    1ec8:	0100f809 	jalr	t0
    1ecc:	00000000 	nop
    1ed0:	10000006 	b	1eec <n40_jalr_test+0x1eec>
    1ed4:	00000000 	nop
    1ed8:	00000000 	nop
    1edc:	00000021 	move	zero,zero
    1ee0:	00000021 	move	zero,zero
    1ee4:	3c126a75 	lui	s2,0x6a75
    1ee8:	36529f80 	ori	s2,s2,0x9f80
    1eec:	001fa021 	addu	s4,zero,ra
    1ef0:	0016f821 	addu	ra,zero,s6
    1ef4:	3c150000 	lui	s5,0x0
    1ef8:	26b51e8c 	addiu	s5,s5,7820
    1efc:	3c0db22d 	lui	t5,0xb22d
    1f00:	35adbf3a 	ori	t5,t5,0xbf3a
    1f04:	160d24cb 	bne	s0,t5,b234 <inst_error>
    1f08:	00000000 	nop
    1f0c:	00000000 	nop
    1f10:	3c0c6a75 	lui	t4,0x6a75
    1f14:	358c9f80 	ori	t4,t4,0x9f80
    1f18:	164c24c6 	bne	s2,t4,b234 <inst_error>
    1f1c:	00000000 	nop
    1f20:	00000000 	nop
    1f24:	26b50008 	addiu	s5,s5,8
    1f28:	169524c2 	bne	s4,s5,b234 <inst_error>
    1f2c:	00000000 	nop
    1f30:	00000000 	nop
    1f34:	001fb021 	addu	s6,zero,ra
    1f38:	3c0c9212 	lui	t4,0x9212
    1f3c:	358c8c02 	ori	t4,t4,0x8c02
    1f40:	3c0d5c00 	lui	t5,0x5c00
    1f44:	35adf61b 	ori	t5,t5,0xf61b
    1f48:	24100000 	li	s0,0
    1f4c:	3c080000 	lui	t0,0x0
    1f50:	25081f68 	addiu	t0,t0,8040
    1f54:	3c090000 	lui	t1,0x0
    1f58:	25291fc8 	addiu	t1,t1,8136
    1f5c:	10000013 	b	1fac <n40_jalr_test+0x1fac>
    1f60:	24120000 	li	s2,0
    1f64:	00000000 	nop
    1f68:	3c109212 	lui	s0,0x9212
    1f6c:	36108c02 	ori	s0,s0,0x8c02
    1f70:	0120f809 	jalr	t1
    1f74:	00000000 	nop
    1f78:	10000015 	b	1fd0 <n40_jalr_test+0x1fd0>
    1f7c:	00000000 	nop
    1f80:	00000000 	nop
    1f84:	00000021 	move	zero,zero
    1f88:	00000021 	move	zero,zero
    1f8c:	00000021 	move	zero,zero
    1f90:	00000021 	move	zero,zero
    1f94:	00000021 	move	zero,zero
    1f98:	00000021 	move	zero,zero
    1f9c:	00000021 	move	zero,zero
    1fa0:	00000021 	move	zero,zero
    1fa4:	00000021 	move	zero,zero
    1fa8:	00000021 	move	zero,zero
    1fac:	0100f809 	jalr	t0
    1fb0:	00000000 	nop
    1fb4:	10000006 	b	1fd0 <n40_jalr_test+0x1fd0>
    1fb8:	00000000 	nop
    1fbc:	00000000 	nop
    1fc0:	00000021 	move	zero,zero
    1fc4:	00000021 	move	zero,zero
    1fc8:	3c125c00 	lui	s2,0x5c00
    1fcc:	3652f61b 	ori	s2,s2,0xf61b
    1fd0:	001fa021 	addu	s4,zero,ra
    1fd4:	0016f821 	addu	ra,zero,s6
    1fd8:	3c150000 	lui	s5,0x0
    1fdc:	26b51f70 	addiu	s5,s5,8048
    1fe0:	3c0d9212 	lui	t5,0x9212
    1fe4:	35ad8c02 	ori	t5,t5,0x8c02
    1fe8:	160d2492 	bne	s0,t5,b234 <inst_error>
    1fec:	00000000 	nop
    1ff0:	00000000 	nop
    1ff4:	3c0c5c00 	lui	t4,0x5c00
    1ff8:	358cf61b 	ori	t4,t4,0xf61b
    1ffc:	164c248d 	bne	s2,t4,b234 <inst_error>
    2000:	00000000 	nop
    2004:	00000000 	nop
    2008:	26b50008 	addiu	s5,s5,8
    200c:	16952489 	bne	s4,s5,b234 <inst_error>
    2010:	00000000 	nop
    2014:	00000000 	nop
    2018:	001fb021 	addu	s6,zero,ra
    201c:	3c0c9f65 	lui	t4,0x9f65
    2020:	358cad30 	ori	t4,t4,0xad30
    2024:	3c0d9df7 	lui	t5,0x9df7
    2028:	35adb834 	ori	t5,t5,0xb834
    202c:	24100000 	li	s0,0
    2030:	3c080000 	lui	t0,0x0
    2034:	2508204c 	addiu	t0,t0,8268
    2038:	3c090000 	lui	t1,0x0
    203c:	252920ac 	addiu	t1,t1,8364
    2040:	10000013 	b	2090 <n40_jalr_test+0x2090>
    2044:	24120000 	li	s2,0
    2048:	00000000 	nop
    204c:	3c109f65 	lui	s0,0x9f65
    2050:	3610ad30 	ori	s0,s0,0xad30
    2054:	0120f809 	jalr	t1
    2058:	00000000 	nop
    205c:	10000015 	b	20b4 <n40_jalr_test+0x20b4>
    2060:	00000000 	nop
    2064:	00000000 	nop
    2068:	00000021 	move	zero,zero
    206c:	00000021 	move	zero,zero
    2070:	00000021 	move	zero,zero
    2074:	00000021 	move	zero,zero
    2078:	00000021 	move	zero,zero
    207c:	00000021 	move	zero,zero
    2080:	00000021 	move	zero,zero
    2084:	00000021 	move	zero,zero
    2088:	00000021 	move	zero,zero
    208c:	00000021 	move	zero,zero
    2090:	0100f809 	jalr	t0
    2094:	00000000 	nop
    2098:	10000006 	b	20b4 <n40_jalr_test+0x20b4>
    209c:	00000000 	nop
    20a0:	00000000 	nop
    20a4:	00000021 	move	zero,zero
    20a8:	00000021 	move	zero,zero
    20ac:	3c129df7 	lui	s2,0x9df7
    20b0:	3652b834 	ori	s2,s2,0xb834
    20b4:	001fa021 	addu	s4,zero,ra
    20b8:	0016f821 	addu	ra,zero,s6
    20bc:	3c150000 	lui	s5,0x0
    20c0:	26b52054 	addiu	s5,s5,8276
    20c4:	3c0d9f65 	lui	t5,0x9f65
    20c8:	35adad30 	ori	t5,t5,0xad30
    20cc:	160d2459 	bne	s0,t5,b234 <inst_error>
    20d0:	00000000 	nop
    20d4:	00000000 	nop
    20d8:	3c0c9df7 	lui	t4,0x9df7
    20dc:	358cb834 	ori	t4,t4,0xb834
    20e0:	164c2454 	bne	s2,t4,b234 <inst_error>
    20e4:	00000000 	nop
    20e8:	00000000 	nop
    20ec:	26b50008 	addiu	s5,s5,8
    20f0:	16952450 	bne	s4,s5,b234 <inst_error>
    20f4:	00000000 	nop
    20f8:	00000000 	nop
    20fc:	001fb021 	addu	s6,zero,ra
    2100:	3c0c51c4 	lui	t4,0x51c4
    2104:	358c88e0 	ori	t4,t4,0x88e0
    2108:	3c0df5d6 	lui	t5,0xf5d6
    210c:	35adfc20 	ori	t5,t5,0xfc20
    2110:	24100000 	li	s0,0
    2114:	3c080000 	lui	t0,0x0
    2118:	25082130 	addiu	t0,t0,8496
    211c:	3c090000 	lui	t1,0x0
    2120:	25292190 	addiu	t1,t1,8592
    2124:	10000013 	b	2174 <n40_jalr_test+0x2174>
    2128:	24120000 	li	s2,0
    212c:	00000000 	nop
    2130:	3c1051c4 	lui	s0,0x51c4
    2134:	361088e0 	ori	s0,s0,0x88e0
    2138:	0120f809 	jalr	t1
    213c:	00000000 	nop
    2140:	10000015 	b	2198 <n40_jalr_test+0x2198>
    2144:	00000000 	nop
    2148:	00000000 	nop
    214c:	00000021 	move	zero,zero
    2150:	00000021 	move	zero,zero
    2154:	00000021 	move	zero,zero
    2158:	00000021 	move	zero,zero
    215c:	00000021 	move	zero,zero
    2160:	00000021 	move	zero,zero
    2164:	00000021 	move	zero,zero
    2168:	00000021 	move	zero,zero
    216c:	00000021 	move	zero,zero
    2170:	00000021 	move	zero,zero
    2174:	0100f809 	jalr	t0
    2178:	00000000 	nop
    217c:	10000006 	b	2198 <n40_jalr_test+0x2198>
    2180:	00000000 	nop
    2184:	00000000 	nop
    2188:	00000021 	move	zero,zero
    218c:	00000021 	move	zero,zero
    2190:	3c12f5d6 	lui	s2,0xf5d6
    2194:	3652fc20 	ori	s2,s2,0xfc20
    2198:	001fa021 	addu	s4,zero,ra
    219c:	0016f821 	addu	ra,zero,s6
    21a0:	3c150000 	lui	s5,0x0
    21a4:	26b52138 	addiu	s5,s5,8504
    21a8:	3c0d51c4 	lui	t5,0x51c4
    21ac:	35ad88e0 	ori	t5,t5,0x88e0
    21b0:	160d2420 	bne	s0,t5,b234 <inst_error>
    21b4:	00000000 	nop
    21b8:	00000000 	nop
    21bc:	3c0cf5d6 	lui	t4,0xf5d6
    21c0:	358cfc20 	ori	t4,t4,0xfc20
    21c4:	164c241b 	bne	s2,t4,b234 <inst_error>
    21c8:	00000000 	nop
    21cc:	00000000 	nop
    21d0:	26b50008 	addiu	s5,s5,8
    21d4:	16952417 	bne	s4,s5,b234 <inst_error>
    21d8:	00000000 	nop
    21dc:	00000000 	nop
    21e0:	001fb021 	addu	s6,zero,ra
    21e4:	3c0c9f55 	lui	t4,0x9f55
    21e8:	358c01c0 	ori	t4,t4,0x1c0
    21ec:	3c0dd3e3 	lui	t5,0xd3e3
    21f0:	35ad1474 	ori	t5,t5,0x1474
    21f4:	24100000 	li	s0,0
    21f8:	3c080000 	lui	t0,0x0
    21fc:	25082214 	addiu	t0,t0,8724
    2200:	3c090000 	lui	t1,0x0
    2204:	25292274 	addiu	t1,t1,8820
    2208:	10000013 	b	2258 <n40_jalr_test+0x2258>
    220c:	24120000 	li	s2,0
    2210:	00000000 	nop
    2214:	3c109f55 	lui	s0,0x9f55
    2218:	361001c0 	ori	s0,s0,0x1c0
    221c:	0120f809 	jalr	t1
    2220:	00000000 	nop
    2224:	10000015 	b	227c <n40_jalr_test+0x227c>
    2228:	00000000 	nop
    222c:	00000000 	nop
    2230:	00000021 	move	zero,zero
    2234:	00000021 	move	zero,zero
    2238:	00000021 	move	zero,zero
    223c:	00000021 	move	zero,zero
    2240:	00000021 	move	zero,zero
    2244:	00000021 	move	zero,zero
    2248:	00000021 	move	zero,zero
    224c:	00000021 	move	zero,zero
    2250:	00000021 	move	zero,zero
    2254:	00000021 	move	zero,zero
    2258:	0100f809 	jalr	t0
    225c:	00000000 	nop
    2260:	10000006 	b	227c <n40_jalr_test+0x227c>
    2264:	00000000 	nop
    2268:	00000000 	nop
    226c:	00000021 	move	zero,zero
    2270:	00000021 	move	zero,zero
    2274:	3c12d3e3 	lui	s2,0xd3e3
    2278:	36521474 	ori	s2,s2,0x1474
    227c:	001fa021 	addu	s4,zero,ra
    2280:	0016f821 	addu	ra,zero,s6
    2284:	3c150000 	lui	s5,0x0
    2288:	26b5221c 	addiu	s5,s5,8732
    228c:	3c0d9f55 	lui	t5,0x9f55
    2290:	35ad01c0 	ori	t5,t5,0x1c0
    2294:	160d23e7 	bne	s0,t5,b234 <inst_error>
    2298:	00000000 	nop
    229c:	00000000 	nop
    22a0:	3c0cd3e3 	lui	t4,0xd3e3
    22a4:	358c1474 	ori	t4,t4,0x1474
    22a8:	164c23e2 	bne	s2,t4,b234 <inst_error>
    22ac:	00000000 	nop
    22b0:	00000000 	nop
    22b4:	26b50008 	addiu	s5,s5,8
    22b8:	169523de 	bne	s4,s5,b234 <inst_error>
    22bc:	00000000 	nop
    22c0:	00000000 	nop
    22c4:	001fb021 	addu	s6,zero,ra
    22c8:	3c0cdb8d 	lui	t4,0xdb8d
    22cc:	358c718a 	ori	t4,t4,0x718a
    22d0:	3c0d47cf 	lui	t5,0x47cf
    22d4:	35ade818 	ori	t5,t5,0xe818
    22d8:	24100000 	li	s0,0
    22dc:	3c080000 	lui	t0,0x0
    22e0:	250822f8 	addiu	t0,t0,8952
    22e4:	3c090000 	lui	t1,0x0
    22e8:	25292358 	addiu	t1,t1,9048
    22ec:	10000013 	b	233c <n40_jalr_test+0x233c>
    22f0:	24120000 	li	s2,0
    22f4:	00000000 	nop
    22f8:	3c10db8d 	lui	s0,0xdb8d
    22fc:	3610718a 	ori	s0,s0,0x718a
    2300:	0120f809 	jalr	t1
    2304:	00000000 	nop
    2308:	10000015 	b	2360 <n40_jalr_test+0x2360>
    230c:	00000000 	nop
    2310:	00000000 	nop
    2314:	00000021 	move	zero,zero
    2318:	00000021 	move	zero,zero
    231c:	00000021 	move	zero,zero
    2320:	00000021 	move	zero,zero
    2324:	00000021 	move	zero,zero
    2328:	00000021 	move	zero,zero
    232c:	00000021 	move	zero,zero
    2330:	00000021 	move	zero,zero
    2334:	00000021 	move	zero,zero
    2338:	00000021 	move	zero,zero
    233c:	0100f809 	jalr	t0
    2340:	00000000 	nop
    2344:	10000006 	b	2360 <n40_jalr_test+0x2360>
    2348:	00000000 	nop
    234c:	00000000 	nop
    2350:	00000021 	move	zero,zero
    2354:	00000021 	move	zero,zero
    2358:	3c1247cf 	lui	s2,0x47cf
    235c:	3652e818 	ori	s2,s2,0xe818
    2360:	001fa021 	addu	s4,zero,ra
    2364:	0016f821 	addu	ra,zero,s6
    2368:	3c150000 	lui	s5,0x0
    236c:	26b52300 	addiu	s5,s5,8960
    2370:	3c0ddb8d 	lui	t5,0xdb8d
    2374:	35ad718a 	ori	t5,t5,0x718a
    2378:	160d23ae 	bne	s0,t5,b234 <inst_error>
    237c:	00000000 	nop
    2380:	00000000 	nop
    2384:	3c0c47cf 	lui	t4,0x47cf
    2388:	358ce818 	ori	t4,t4,0xe818
    238c:	164c23a9 	bne	s2,t4,b234 <inst_error>
    2390:	00000000 	nop
    2394:	00000000 	nop
    2398:	26b50008 	addiu	s5,s5,8
    239c:	169523a5 	bne	s4,s5,b234 <inst_error>
    23a0:	00000000 	nop
    23a4:	00000000 	nop
    23a8:	001fb021 	addu	s6,zero,ra
    23ac:	3c0c0bda 	lui	t4,0xbda
    23b0:	358c82d4 	ori	t4,t4,0x82d4
    23b4:	3c0d4775 	lui	t5,0x4775
    23b8:	35ad755e 	ori	t5,t5,0x755e
    23bc:	24100000 	li	s0,0
    23c0:	3c080000 	lui	t0,0x0
    23c4:	250823dc 	addiu	t0,t0,9180
    23c8:	3c090000 	lui	t1,0x0
    23cc:	2529243c 	addiu	t1,t1,9276
    23d0:	10000013 	b	2420 <n40_jalr_test+0x2420>
    23d4:	24120000 	li	s2,0
    23d8:	00000000 	nop
    23dc:	3c100bda 	lui	s0,0xbda
    23e0:	361082d4 	ori	s0,s0,0x82d4
    23e4:	0120f809 	jalr	t1
    23e8:	00000000 	nop
    23ec:	10000015 	b	2444 <n40_jalr_test+0x2444>
    23f0:	00000000 	nop
    23f4:	00000000 	nop
    23f8:	00000021 	move	zero,zero
    23fc:	00000021 	move	zero,zero
    2400:	00000021 	move	zero,zero
    2404:	00000021 	move	zero,zero
    2408:	00000021 	move	zero,zero
    240c:	00000021 	move	zero,zero
    2410:	00000021 	move	zero,zero
    2414:	00000021 	move	zero,zero
    2418:	00000021 	move	zero,zero
    241c:	00000021 	move	zero,zero
    2420:	0100f809 	jalr	t0
    2424:	00000000 	nop
    2428:	10000006 	b	2444 <n40_jalr_test+0x2444>
    242c:	00000000 	nop
    2430:	00000000 	nop
    2434:	00000021 	move	zero,zero
    2438:	00000021 	move	zero,zero
    243c:	3c124775 	lui	s2,0x4775
    2440:	3652755e 	ori	s2,s2,0x755e
    2444:	001fa021 	addu	s4,zero,ra
    2448:	0016f821 	addu	ra,zero,s6
    244c:	3c150000 	lui	s5,0x0
    2450:	26b523e4 	addiu	s5,s5,9188
    2454:	3c0d0bda 	lui	t5,0xbda
    2458:	35ad82d4 	ori	t5,t5,0x82d4
    245c:	160d2375 	bne	s0,t5,b234 <inst_error>
    2460:	00000000 	nop
    2464:	00000000 	nop
    2468:	3c0c4775 	lui	t4,0x4775
    246c:	358c755e 	ori	t4,t4,0x755e
    2470:	164c2370 	bne	s2,t4,b234 <inst_error>
    2474:	00000000 	nop
    2478:	00000000 	nop
    247c:	26b50008 	addiu	s5,s5,8
    2480:	1695236c 	bne	s4,s5,b234 <inst_error>
    2484:	00000000 	nop
    2488:	00000000 	nop
    248c:	001fb021 	addu	s6,zero,ra
    2490:	3c0c505a 	lui	t4,0x505a
    2494:	358c80f3 	ori	t4,t4,0x80f3
    2498:	3c0d7516 	lui	t5,0x7516
    249c:	35adbcc1 	ori	t5,t5,0xbcc1
    24a0:	24100000 	li	s0,0
    24a4:	3c080000 	lui	t0,0x0
    24a8:	250824c0 	addiu	t0,t0,9408
    24ac:	3c090000 	lui	t1,0x0
    24b0:	25292520 	addiu	t1,t1,9504
    24b4:	10000013 	b	2504 <n40_jalr_test+0x2504>
    24b8:	24120000 	li	s2,0
    24bc:	00000000 	nop
    24c0:	3c10505a 	lui	s0,0x505a
    24c4:	361080f3 	ori	s0,s0,0x80f3
    24c8:	0120f809 	jalr	t1
    24cc:	00000000 	nop
    24d0:	10000015 	b	2528 <n40_jalr_test+0x2528>
    24d4:	00000000 	nop
    24d8:	00000000 	nop
    24dc:	00000021 	move	zero,zero
    24e0:	00000021 	move	zero,zero
    24e4:	00000021 	move	zero,zero
    24e8:	00000021 	move	zero,zero
    24ec:	00000021 	move	zero,zero
    24f0:	00000021 	move	zero,zero
    24f4:	00000021 	move	zero,zero
    24f8:	00000021 	move	zero,zero
    24fc:	00000021 	move	zero,zero
    2500:	00000021 	move	zero,zero
    2504:	0100f809 	jalr	t0
    2508:	00000000 	nop
    250c:	10000006 	b	2528 <n40_jalr_test+0x2528>
    2510:	00000000 	nop
    2514:	00000000 	nop
    2518:	00000021 	move	zero,zero
    251c:	00000021 	move	zero,zero
    2520:	3c127516 	lui	s2,0x7516
    2524:	3652bcc1 	ori	s2,s2,0xbcc1
    2528:	001fa021 	addu	s4,zero,ra
    252c:	0016f821 	addu	ra,zero,s6
    2530:	3c150000 	lui	s5,0x0
    2534:	26b524c8 	addiu	s5,s5,9416
    2538:	3c0d505a 	lui	t5,0x505a
    253c:	35ad80f3 	ori	t5,t5,0x80f3
    2540:	160d233c 	bne	s0,t5,b234 <inst_error>
    2544:	00000000 	nop
    2548:	00000000 	nop
    254c:	3c0c7516 	lui	t4,0x7516
    2550:	358cbcc1 	ori	t4,t4,0xbcc1
    2554:	164c2337 	bne	s2,t4,b234 <inst_error>
    2558:	00000000 	nop
    255c:	00000000 	nop
    2560:	26b50008 	addiu	s5,s5,8
    2564:	16952333 	bne	s4,s5,b234 <inst_error>
    2568:	00000000 	nop
    256c:	00000000 	nop
    2570:	001fb021 	addu	s6,zero,ra
    2574:	3c0c12b1 	lui	t4,0x12b1
    2578:	358cf92a 	ori	t4,t4,0xf92a
    257c:	3c0d76d7 	lui	t5,0x76d7
    2580:	35ad3942 	ori	t5,t5,0x3942
    2584:	24100000 	li	s0,0
    2588:	3c080000 	lui	t0,0x0
    258c:	250825a4 	addiu	t0,t0,9636
    2590:	3c090000 	lui	t1,0x0
    2594:	25292604 	addiu	t1,t1,9732
    2598:	10000013 	b	25e8 <n40_jalr_test+0x25e8>
    259c:	24120000 	li	s2,0
    25a0:	00000000 	nop
    25a4:	3c1012b1 	lui	s0,0x12b1
    25a8:	3610f92a 	ori	s0,s0,0xf92a
    25ac:	0120f809 	jalr	t1
    25b0:	00000000 	nop
    25b4:	10000015 	b	260c <n40_jalr_test+0x260c>
    25b8:	00000000 	nop
    25bc:	00000000 	nop
    25c0:	00000021 	move	zero,zero
    25c4:	00000021 	move	zero,zero
    25c8:	00000021 	move	zero,zero
    25cc:	00000021 	move	zero,zero
    25d0:	00000021 	move	zero,zero
    25d4:	00000021 	move	zero,zero
    25d8:	00000021 	move	zero,zero
    25dc:	00000021 	move	zero,zero
    25e0:	00000021 	move	zero,zero
    25e4:	00000021 	move	zero,zero
    25e8:	0100f809 	jalr	t0
    25ec:	00000000 	nop
    25f0:	10000006 	b	260c <n40_jalr_test+0x260c>
    25f4:	00000000 	nop
    25f8:	00000000 	nop
    25fc:	00000021 	move	zero,zero
    2600:	00000021 	move	zero,zero
    2604:	3c1276d7 	lui	s2,0x76d7
    2608:	36523942 	ori	s2,s2,0x3942
    260c:	001fa021 	addu	s4,zero,ra
    2610:	0016f821 	addu	ra,zero,s6
    2614:	3c150000 	lui	s5,0x0
    2618:	26b525ac 	addiu	s5,s5,9644
    261c:	3c0d12b1 	lui	t5,0x12b1
    2620:	35adf92a 	ori	t5,t5,0xf92a
    2624:	160d2303 	bne	s0,t5,b234 <inst_error>
    2628:	00000000 	nop
    262c:	00000000 	nop
    2630:	3c0c76d7 	lui	t4,0x76d7
    2634:	358c3942 	ori	t4,t4,0x3942
    2638:	164c22fe 	bne	s2,t4,b234 <inst_error>
    263c:	00000000 	nop
    2640:	00000000 	nop
    2644:	26b50008 	addiu	s5,s5,8
    2648:	169522fa 	bne	s4,s5,b234 <inst_error>
    264c:	00000000 	nop
    2650:	00000000 	nop
    2654:	001fb021 	addu	s6,zero,ra
    2658:	3c0cbe26 	lui	t4,0xbe26
    265c:	358c8c84 	ori	t4,t4,0x8c84
    2660:	3c0d195a 	lui	t5,0x195a
    2664:	35adde56 	ori	t5,t5,0xde56
    2668:	24100000 	li	s0,0
    266c:	3c080000 	lui	t0,0x0
    2670:	25082688 	addiu	t0,t0,9864
    2674:	3c090000 	lui	t1,0x0
    2678:	252926e8 	addiu	t1,t1,9960
    267c:	10000013 	b	26cc <n40_jalr_test+0x26cc>
    2680:	24120000 	li	s2,0
    2684:	00000000 	nop
    2688:	3c10be26 	lui	s0,0xbe26
    268c:	36108c84 	ori	s0,s0,0x8c84
    2690:	0120f809 	jalr	t1
    2694:	00000000 	nop
    2698:	10000015 	b	26f0 <n40_jalr_test+0x26f0>
    269c:	00000000 	nop
    26a0:	00000000 	nop
    26a4:	00000021 	move	zero,zero
    26a8:	00000021 	move	zero,zero
    26ac:	00000021 	move	zero,zero
    26b0:	00000021 	move	zero,zero
    26b4:	00000021 	move	zero,zero
    26b8:	00000021 	move	zero,zero
    26bc:	00000021 	move	zero,zero
    26c0:	00000021 	move	zero,zero
    26c4:	00000021 	move	zero,zero
    26c8:	00000021 	move	zero,zero
    26cc:	0100f809 	jalr	t0
    26d0:	00000000 	nop
    26d4:	10000006 	b	26f0 <n40_jalr_test+0x26f0>
    26d8:	00000000 	nop
    26dc:	00000000 	nop
    26e0:	00000021 	move	zero,zero
    26e4:	00000021 	move	zero,zero
    26e8:	3c12195a 	lui	s2,0x195a
    26ec:	3652de56 	ori	s2,s2,0xde56
    26f0:	001fa021 	addu	s4,zero,ra
    26f4:	0016f821 	addu	ra,zero,s6
    26f8:	3c150000 	lui	s5,0x0
    26fc:	26b52690 	addiu	s5,s5,9872
    2700:	3c0dbe26 	lui	t5,0xbe26
    2704:	35ad8c84 	ori	t5,t5,0x8c84
    2708:	160d22ca 	bne	s0,t5,b234 <inst_error>
    270c:	00000000 	nop
    2710:	00000000 	nop
    2714:	3c0c195a 	lui	t4,0x195a
    2718:	358cde56 	ori	t4,t4,0xde56
    271c:	164c22c5 	bne	s2,t4,b234 <inst_error>
    2720:	00000000 	nop
    2724:	00000000 	nop
    2728:	26b50008 	addiu	s5,s5,8
    272c:	169522c1 	bne	s4,s5,b234 <inst_error>
    2730:	00000000 	nop
    2734:	00000000 	nop
    2738:	001fb021 	addu	s6,zero,ra
    273c:	3c0cd8ce 	lui	t4,0xd8ce
    2740:	358cb216 	ori	t4,t4,0xb216
    2744:	3c0dd6bd 	lui	t5,0xd6bd
    2748:	35adfc38 	ori	t5,t5,0xfc38
    274c:	24100000 	li	s0,0
    2750:	3c080000 	lui	t0,0x0
    2754:	2508276c 	addiu	t0,t0,10092
    2758:	3c090000 	lui	t1,0x0
    275c:	252927cc 	addiu	t1,t1,10188
    2760:	10000013 	b	27b0 <n40_jalr_test+0x27b0>
    2764:	24120000 	li	s2,0
    2768:	00000000 	nop
    276c:	3c10d8ce 	lui	s0,0xd8ce
    2770:	3610b216 	ori	s0,s0,0xb216
    2774:	0120f809 	jalr	t1
    2778:	00000000 	nop
    277c:	10000015 	b	27d4 <n40_jalr_test+0x27d4>
    2780:	00000000 	nop
    2784:	00000000 	nop
    2788:	00000021 	move	zero,zero
    278c:	00000021 	move	zero,zero
    2790:	00000021 	move	zero,zero
    2794:	00000021 	move	zero,zero
    2798:	00000021 	move	zero,zero
    279c:	00000021 	move	zero,zero
    27a0:	00000021 	move	zero,zero
    27a4:	00000021 	move	zero,zero
    27a8:	00000021 	move	zero,zero
    27ac:	00000021 	move	zero,zero
    27b0:	0100f809 	jalr	t0
    27b4:	00000000 	nop
    27b8:	10000006 	b	27d4 <n40_jalr_test+0x27d4>
    27bc:	00000000 	nop
    27c0:	00000000 	nop
    27c4:	00000021 	move	zero,zero
    27c8:	00000021 	move	zero,zero
    27cc:	3c12d6bd 	lui	s2,0xd6bd
    27d0:	3652fc38 	ori	s2,s2,0xfc38
    27d4:	001fa021 	addu	s4,zero,ra
    27d8:	0016f821 	addu	ra,zero,s6
    27dc:	3c150000 	lui	s5,0x0
    27e0:	26b52774 	addiu	s5,s5,10100
    27e4:	3c0dd8ce 	lui	t5,0xd8ce
    27e8:	35adb216 	ori	t5,t5,0xb216
    27ec:	160d2291 	bne	s0,t5,b234 <inst_error>
    27f0:	00000000 	nop
    27f4:	00000000 	nop
    27f8:	3c0cd6bd 	lui	t4,0xd6bd
    27fc:	358cfc38 	ori	t4,t4,0xfc38
    2800:	164c228c 	bne	s2,t4,b234 <inst_error>
    2804:	00000000 	nop
    2808:	00000000 	nop
    280c:	26b50008 	addiu	s5,s5,8
    2810:	16952288 	bne	s4,s5,b234 <inst_error>
    2814:	00000000 	nop
    2818:	00000000 	nop
    281c:	001fb021 	addu	s6,zero,ra
    2820:	3c0c7d10 	lui	t4,0x7d10
    2824:	358c1790 	ori	t4,t4,0x1790
    2828:	3c0dfd33 	lui	t5,0xfd33
    282c:	35ad3d7c 	ori	t5,t5,0x3d7c
    2830:	24100000 	li	s0,0
    2834:	3c080000 	lui	t0,0x0
    2838:	25082850 	addiu	t0,t0,10320
    283c:	3c090000 	lui	t1,0x0
    2840:	252928b0 	addiu	t1,t1,10416
    2844:	10000013 	b	2894 <n40_jalr_test+0x2894>
    2848:	24120000 	li	s2,0
    284c:	00000000 	nop
    2850:	3c107d10 	lui	s0,0x7d10
    2854:	36101790 	ori	s0,s0,0x1790
    2858:	0120f809 	jalr	t1
    285c:	00000000 	nop
    2860:	10000015 	b	28b8 <n40_jalr_test+0x28b8>
    2864:	00000000 	nop
    2868:	00000000 	nop
    286c:	00000021 	move	zero,zero
    2870:	00000021 	move	zero,zero
    2874:	00000021 	move	zero,zero
    2878:	00000021 	move	zero,zero
    287c:	00000021 	move	zero,zero
    2880:	00000021 	move	zero,zero
    2884:	00000021 	move	zero,zero
    2888:	00000021 	move	zero,zero
    288c:	00000021 	move	zero,zero
    2890:	00000021 	move	zero,zero
    2894:	0100f809 	jalr	t0
    2898:	00000000 	nop
    289c:	10000006 	b	28b8 <n40_jalr_test+0x28b8>
    28a0:	00000000 	nop
    28a4:	00000000 	nop
    28a8:	00000021 	move	zero,zero
    28ac:	00000021 	move	zero,zero
    28b0:	3c12fd33 	lui	s2,0xfd33
    28b4:	36523d7c 	ori	s2,s2,0x3d7c
    28b8:	001fa021 	addu	s4,zero,ra
    28bc:	0016f821 	addu	ra,zero,s6
    28c0:	3c150000 	lui	s5,0x0
    28c4:	26b52858 	addiu	s5,s5,10328
    28c8:	3c0d7d10 	lui	t5,0x7d10
    28cc:	35ad1790 	ori	t5,t5,0x1790
    28d0:	160d2258 	bne	s0,t5,b234 <inst_error>
    28d4:	00000000 	nop
    28d8:	00000000 	nop
    28dc:	3c0cfd33 	lui	t4,0xfd33
    28e0:	358c3d7c 	ori	t4,t4,0x3d7c
    28e4:	164c2253 	bne	s2,t4,b234 <inst_error>
    28e8:	00000000 	nop
    28ec:	00000000 	nop
    28f0:	26b50008 	addiu	s5,s5,8
    28f4:	1695224f 	bne	s4,s5,b234 <inst_error>
    28f8:	00000000 	nop
    28fc:	00000000 	nop
    2900:	001fb021 	addu	s6,zero,ra
    2904:	3c0c231d 	lui	t4,0x231d
    2908:	358cd8d0 	ori	t4,t4,0xd8d0
    290c:	3c0d8a5a 	lui	t5,0x8a5a
    2910:	35add608 	ori	t5,t5,0xd608
    2914:	24100000 	li	s0,0
    2918:	3c080000 	lui	t0,0x0
    291c:	25082934 	addiu	t0,t0,10548
    2920:	3c090000 	lui	t1,0x0
    2924:	25292994 	addiu	t1,t1,10644
    2928:	10000013 	b	2978 <n40_jalr_test+0x2978>
    292c:	24120000 	li	s2,0
    2930:	00000000 	nop
    2934:	3c10231d 	lui	s0,0x231d
    2938:	3610d8d0 	ori	s0,s0,0xd8d0
    293c:	0120f809 	jalr	t1
    2940:	00000000 	nop
    2944:	10000015 	b	299c <n40_jalr_test+0x299c>
    2948:	00000000 	nop
    294c:	00000000 	nop
    2950:	00000021 	move	zero,zero
    2954:	00000021 	move	zero,zero
    2958:	00000021 	move	zero,zero
    295c:	00000021 	move	zero,zero
    2960:	00000021 	move	zero,zero
    2964:	00000021 	move	zero,zero
    2968:	00000021 	move	zero,zero
    296c:	00000021 	move	zero,zero
    2970:	00000021 	move	zero,zero
    2974:	00000021 	move	zero,zero
    2978:	0100f809 	jalr	t0
    297c:	00000000 	nop
    2980:	10000006 	b	299c <n40_jalr_test+0x299c>
    2984:	00000000 	nop
    2988:	00000000 	nop
    298c:	00000021 	move	zero,zero
    2990:	00000021 	move	zero,zero
    2994:	3c128a5a 	lui	s2,0x8a5a
    2998:	3652d608 	ori	s2,s2,0xd608
    299c:	001fa021 	addu	s4,zero,ra
    29a0:	0016f821 	addu	ra,zero,s6
    29a4:	3c150000 	lui	s5,0x0
    29a8:	26b5293c 	addiu	s5,s5,10556
    29ac:	3c0d231d 	lui	t5,0x231d
    29b0:	35add8d0 	ori	t5,t5,0xd8d0
    29b4:	160d221f 	bne	s0,t5,b234 <inst_error>
    29b8:	00000000 	nop
    29bc:	00000000 	nop
    29c0:	3c0c8a5a 	lui	t4,0x8a5a
    29c4:	358cd608 	ori	t4,t4,0xd608
    29c8:	164c221a 	bne	s2,t4,b234 <inst_error>
    29cc:	00000000 	nop
    29d0:	00000000 	nop
    29d4:	26b50008 	addiu	s5,s5,8
    29d8:	16952216 	bne	s4,s5,b234 <inst_error>
    29dc:	00000000 	nop
    29e0:	00000000 	nop
    29e4:	001fb021 	addu	s6,zero,ra
    29e8:	3c0c3a9a 	lui	t4,0x3a9a
    29ec:	358cd2f2 	ori	t4,t4,0xd2f2
    29f0:	3c0de819 	lui	t5,0xe819
    29f4:	35ad6b90 	ori	t5,t5,0x6b90
    29f8:	24100000 	li	s0,0
    29fc:	3c080000 	lui	t0,0x0
    2a00:	25082a18 	addiu	t0,t0,10776
    2a04:	3c090000 	lui	t1,0x0
    2a08:	25292a78 	addiu	t1,t1,10872
    2a0c:	10000013 	b	2a5c <n40_jalr_test+0x2a5c>
    2a10:	24120000 	li	s2,0
    2a14:	00000000 	nop
    2a18:	3c103a9a 	lui	s0,0x3a9a
    2a1c:	3610d2f2 	ori	s0,s0,0xd2f2
    2a20:	0120f809 	jalr	t1
    2a24:	00000000 	nop
    2a28:	10000015 	b	2a80 <n40_jalr_test+0x2a80>
    2a2c:	00000000 	nop
    2a30:	00000000 	nop
    2a34:	00000021 	move	zero,zero
    2a38:	00000021 	move	zero,zero
    2a3c:	00000021 	move	zero,zero
    2a40:	00000021 	move	zero,zero
    2a44:	00000021 	move	zero,zero
    2a48:	00000021 	move	zero,zero
    2a4c:	00000021 	move	zero,zero
    2a50:	00000021 	move	zero,zero
    2a54:	00000021 	move	zero,zero
    2a58:	00000021 	move	zero,zero
    2a5c:	0100f809 	jalr	t0
    2a60:	00000000 	nop
    2a64:	10000006 	b	2a80 <n40_jalr_test+0x2a80>
    2a68:	00000000 	nop
    2a6c:	00000000 	nop
    2a70:	00000021 	move	zero,zero
    2a74:	00000021 	move	zero,zero
    2a78:	3c12e819 	lui	s2,0xe819
    2a7c:	36526b90 	ori	s2,s2,0x6b90
    2a80:	001fa021 	addu	s4,zero,ra
    2a84:	0016f821 	addu	ra,zero,s6
    2a88:	3c150000 	lui	s5,0x0
    2a8c:	26b52a20 	addiu	s5,s5,10784
    2a90:	3c0d3a9a 	lui	t5,0x3a9a
    2a94:	35add2f2 	ori	t5,t5,0xd2f2
    2a98:	160d21e6 	bne	s0,t5,b234 <inst_error>
    2a9c:	00000000 	nop
    2aa0:	00000000 	nop
    2aa4:	3c0ce819 	lui	t4,0xe819
    2aa8:	358c6b90 	ori	t4,t4,0x6b90
    2aac:	164c21e1 	bne	s2,t4,b234 <inst_error>
    2ab0:	00000000 	nop
    2ab4:	00000000 	nop
    2ab8:	26b50008 	addiu	s5,s5,8
    2abc:	169521dd 	bne	s4,s5,b234 <inst_error>
    2ac0:	00000000 	nop
    2ac4:	00000000 	nop
    2ac8:	001fb021 	addu	s6,zero,ra
    2acc:	3c0c0b47 	lui	t4,0xb47
    2ad0:	358c9ee5 	ori	t4,t4,0x9ee5
    2ad4:	3c0d17da 	lui	t5,0x17da
    2ad8:	35ad32dc 	ori	t5,t5,0x32dc
    2adc:	24100000 	li	s0,0
    2ae0:	3c080000 	lui	t0,0x0
    2ae4:	25082afc 	addiu	t0,t0,11004
    2ae8:	3c090000 	lui	t1,0x0
    2aec:	25292b5c 	addiu	t1,t1,11100
    2af0:	10000013 	b	2b40 <n40_jalr_test+0x2b40>
    2af4:	24120000 	li	s2,0
    2af8:	00000000 	nop
    2afc:	3c100b47 	lui	s0,0xb47
    2b00:	36109ee5 	ori	s0,s0,0x9ee5
    2b04:	0120f809 	jalr	t1
    2b08:	00000000 	nop
    2b0c:	10000015 	b	2b64 <n40_jalr_test+0x2b64>
    2b10:	00000000 	nop
    2b14:	00000000 	nop
    2b18:	00000021 	move	zero,zero
    2b1c:	00000021 	move	zero,zero
    2b20:	00000021 	move	zero,zero
    2b24:	00000021 	move	zero,zero
    2b28:	00000021 	move	zero,zero
    2b2c:	00000021 	move	zero,zero
    2b30:	00000021 	move	zero,zero
    2b34:	00000021 	move	zero,zero
    2b38:	00000021 	move	zero,zero
    2b3c:	00000021 	move	zero,zero
    2b40:	0100f809 	jalr	t0
    2b44:	00000000 	nop
    2b48:	10000006 	b	2b64 <n40_jalr_test+0x2b64>
    2b4c:	00000000 	nop
    2b50:	00000000 	nop
    2b54:	00000021 	move	zero,zero
    2b58:	00000021 	move	zero,zero
    2b5c:	3c1217da 	lui	s2,0x17da
    2b60:	365232dc 	ori	s2,s2,0x32dc
    2b64:	001fa021 	addu	s4,zero,ra
    2b68:	0016f821 	addu	ra,zero,s6
    2b6c:	3c150000 	lui	s5,0x0
    2b70:	26b52b04 	addiu	s5,s5,11012
    2b74:	3c0d0b47 	lui	t5,0xb47
    2b78:	35ad9ee5 	ori	t5,t5,0x9ee5
    2b7c:	160d21ad 	bne	s0,t5,b234 <inst_error>
    2b80:	00000000 	nop
    2b84:	00000000 	nop
    2b88:	3c0c17da 	lui	t4,0x17da
    2b8c:	358c32dc 	ori	t4,t4,0x32dc
    2b90:	164c21a8 	bne	s2,t4,b234 <inst_error>
    2b94:	00000000 	nop
    2b98:	00000000 	nop
    2b9c:	26b50008 	addiu	s5,s5,8
    2ba0:	169521a4 	bne	s4,s5,b234 <inst_error>
    2ba4:	00000000 	nop
    2ba8:	00000000 	nop
    2bac:	001fb021 	addu	s6,zero,ra
    2bb0:	3c0c8b1c 	lui	t4,0x8b1c
    2bb4:	358c434a 	ori	t4,t4,0x434a
    2bb8:	3c0d8082 	lui	t5,0x8082
    2bbc:	35adfa76 	ori	t5,t5,0xfa76
    2bc0:	24100000 	li	s0,0
    2bc4:	3c080000 	lui	t0,0x0
    2bc8:	25082be0 	addiu	t0,t0,11232
    2bcc:	3c090000 	lui	t1,0x0
    2bd0:	25292c40 	addiu	t1,t1,11328
    2bd4:	10000013 	b	2c24 <n40_jalr_test+0x2c24>
    2bd8:	24120000 	li	s2,0
    2bdc:	00000000 	nop
    2be0:	3c108b1c 	lui	s0,0x8b1c
    2be4:	3610434a 	ori	s0,s0,0x434a
    2be8:	0120f809 	jalr	t1
    2bec:	00000000 	nop
    2bf0:	10000015 	b	2c48 <n40_jalr_test+0x2c48>
    2bf4:	00000000 	nop
    2bf8:	00000000 	nop
    2bfc:	00000021 	move	zero,zero
    2c00:	00000021 	move	zero,zero
    2c04:	00000021 	move	zero,zero
    2c08:	00000021 	move	zero,zero
    2c0c:	00000021 	move	zero,zero
    2c10:	00000021 	move	zero,zero
    2c14:	00000021 	move	zero,zero
    2c18:	00000021 	move	zero,zero
    2c1c:	00000021 	move	zero,zero
    2c20:	00000021 	move	zero,zero
    2c24:	0100f809 	jalr	t0
    2c28:	00000000 	nop
    2c2c:	10000006 	b	2c48 <n40_jalr_test+0x2c48>
    2c30:	00000000 	nop
    2c34:	00000000 	nop
    2c38:	00000021 	move	zero,zero
    2c3c:	00000021 	move	zero,zero
    2c40:	3c128082 	lui	s2,0x8082
    2c44:	3652fa76 	ori	s2,s2,0xfa76
    2c48:	001fa021 	addu	s4,zero,ra
    2c4c:	0016f821 	addu	ra,zero,s6
    2c50:	3c150000 	lui	s5,0x0
    2c54:	26b52be8 	addiu	s5,s5,11240
    2c58:	3c0d8b1c 	lui	t5,0x8b1c
    2c5c:	35ad434a 	ori	t5,t5,0x434a
    2c60:	160d2174 	bne	s0,t5,b234 <inst_error>
    2c64:	00000000 	nop
    2c68:	00000000 	nop
    2c6c:	3c0c8082 	lui	t4,0x8082
    2c70:	358cfa76 	ori	t4,t4,0xfa76
    2c74:	164c216f 	bne	s2,t4,b234 <inst_error>
    2c78:	00000000 	nop
    2c7c:	00000000 	nop
    2c80:	26b50008 	addiu	s5,s5,8
    2c84:	1695216b 	bne	s4,s5,b234 <inst_error>
    2c88:	00000000 	nop
    2c8c:	00000000 	nop
    2c90:	001fb021 	addu	s6,zero,ra
    2c94:	3c0c4c02 	lui	t4,0x4c02
    2c98:	358c3bfc 	ori	t4,t4,0x3bfc
    2c9c:	3c0d4047 	lui	t5,0x4047
    2ca0:	35adda00 	ori	t5,t5,0xda00
    2ca4:	24100000 	li	s0,0
    2ca8:	3c080000 	lui	t0,0x0
    2cac:	25082cc4 	addiu	t0,t0,11460
    2cb0:	3c090000 	lui	t1,0x0
    2cb4:	25292d24 	addiu	t1,t1,11556
    2cb8:	10000013 	b	2d08 <n40_jalr_test+0x2d08>
    2cbc:	24120000 	li	s2,0
    2cc0:	00000000 	nop
    2cc4:	3c104c02 	lui	s0,0x4c02
    2cc8:	36103bfc 	ori	s0,s0,0x3bfc
    2ccc:	0120f809 	jalr	t1
    2cd0:	00000000 	nop
    2cd4:	10000015 	b	2d2c <n40_jalr_test+0x2d2c>
    2cd8:	00000000 	nop
    2cdc:	00000000 	nop
    2ce0:	00000021 	move	zero,zero
    2ce4:	00000021 	move	zero,zero
    2ce8:	00000021 	move	zero,zero
    2cec:	00000021 	move	zero,zero
    2cf0:	00000021 	move	zero,zero
    2cf4:	00000021 	move	zero,zero
    2cf8:	00000021 	move	zero,zero
    2cfc:	00000021 	move	zero,zero
    2d00:	00000021 	move	zero,zero
    2d04:	00000021 	move	zero,zero
    2d08:	0100f809 	jalr	t0
    2d0c:	00000000 	nop
    2d10:	10000006 	b	2d2c <n40_jalr_test+0x2d2c>
    2d14:	00000000 	nop
    2d18:	00000000 	nop
    2d1c:	00000021 	move	zero,zero
    2d20:	00000021 	move	zero,zero
    2d24:	3c124047 	lui	s2,0x4047
    2d28:	3652da00 	ori	s2,s2,0xda00
    2d2c:	001fa021 	addu	s4,zero,ra
    2d30:	0016f821 	addu	ra,zero,s6
    2d34:	3c150000 	lui	s5,0x0
    2d38:	26b52ccc 	addiu	s5,s5,11468
    2d3c:	3c0d4c02 	lui	t5,0x4c02
    2d40:	35ad3bfc 	ori	t5,t5,0x3bfc
    2d44:	160d213b 	bne	s0,t5,b234 <inst_error>
    2d48:	00000000 	nop
    2d4c:	00000000 	nop
    2d50:	3c0c4047 	lui	t4,0x4047
    2d54:	358cda00 	ori	t4,t4,0xda00
    2d58:	164c2136 	bne	s2,t4,b234 <inst_error>
    2d5c:	00000000 	nop
    2d60:	00000000 	nop
    2d64:	26b50008 	addiu	s5,s5,8
    2d68:	16952132 	bne	s4,s5,b234 <inst_error>
    2d6c:	00000000 	nop
    2d70:	00000000 	nop
    2d74:	001fb021 	addu	s6,zero,ra
    2d78:	3c0cb9ff 	lui	t4,0xb9ff
    2d7c:	358c10d4 	ori	t4,t4,0x10d4
    2d80:	3c0d05b6 	lui	t5,0x5b6
    2d84:	35ad8058 	ori	t5,t5,0x8058
    2d88:	24100000 	li	s0,0
    2d8c:	3c080000 	lui	t0,0x0
    2d90:	25082da8 	addiu	t0,t0,11688
    2d94:	3c090000 	lui	t1,0x0
    2d98:	25292e08 	addiu	t1,t1,11784
    2d9c:	10000013 	b	2dec <n40_jalr_test+0x2dec>
    2da0:	24120000 	li	s2,0
    2da4:	00000000 	nop
    2da8:	3c10b9ff 	lui	s0,0xb9ff
    2dac:	361010d4 	ori	s0,s0,0x10d4
    2db0:	0120f809 	jalr	t1
    2db4:	00000000 	nop
    2db8:	10000015 	b	2e10 <n40_jalr_test+0x2e10>
    2dbc:	00000000 	nop
    2dc0:	00000000 	nop
    2dc4:	00000021 	move	zero,zero
    2dc8:	00000021 	move	zero,zero
    2dcc:	00000021 	move	zero,zero
    2dd0:	00000021 	move	zero,zero
    2dd4:	00000021 	move	zero,zero
    2dd8:	00000021 	move	zero,zero
    2ddc:	00000021 	move	zero,zero
    2de0:	00000021 	move	zero,zero
    2de4:	00000021 	move	zero,zero
    2de8:	00000021 	move	zero,zero
    2dec:	0100f809 	jalr	t0
    2df0:	00000000 	nop
    2df4:	10000006 	b	2e10 <n40_jalr_test+0x2e10>
    2df8:	00000000 	nop
    2dfc:	00000000 	nop
    2e00:	00000021 	move	zero,zero
    2e04:	00000021 	move	zero,zero
    2e08:	3c1205b6 	lui	s2,0x5b6
    2e0c:	36528058 	ori	s2,s2,0x8058
    2e10:	001fa021 	addu	s4,zero,ra
    2e14:	0016f821 	addu	ra,zero,s6
    2e18:	3c150000 	lui	s5,0x0
    2e1c:	26b52db0 	addiu	s5,s5,11696
    2e20:	3c0db9ff 	lui	t5,0xb9ff
    2e24:	35ad10d4 	ori	t5,t5,0x10d4
    2e28:	160d2102 	bne	s0,t5,b234 <inst_error>
    2e2c:	00000000 	nop
    2e30:	00000000 	nop
    2e34:	3c0c05b6 	lui	t4,0x5b6
    2e38:	358c8058 	ori	t4,t4,0x8058
    2e3c:	164c20fd 	bne	s2,t4,b234 <inst_error>
    2e40:	00000000 	nop
    2e44:	00000000 	nop
    2e48:	26b50008 	addiu	s5,s5,8
    2e4c:	169520f9 	bne	s4,s5,b234 <inst_error>
    2e50:	00000000 	nop
    2e54:	00000000 	nop
    2e58:	001fb021 	addu	s6,zero,ra
    2e5c:	3c0c536d 	lui	t4,0x536d
    2e60:	358ce97e 	ori	t4,t4,0xe97e
    2e64:	3c0dc2bb 	lui	t5,0xc2bb
    2e68:	35add95c 	ori	t5,t5,0xd95c
    2e6c:	24100000 	li	s0,0
    2e70:	3c080000 	lui	t0,0x0
    2e74:	25082e8c 	addiu	t0,t0,11916
    2e78:	3c090000 	lui	t1,0x0
    2e7c:	25292eec 	addiu	t1,t1,12012
    2e80:	10000013 	b	2ed0 <n40_jalr_test+0x2ed0>
    2e84:	24120000 	li	s2,0
    2e88:	00000000 	nop
    2e8c:	3c10536d 	lui	s0,0x536d
    2e90:	3610e97e 	ori	s0,s0,0xe97e
    2e94:	0120f809 	jalr	t1
    2e98:	00000000 	nop
    2e9c:	10000015 	b	2ef4 <n40_jalr_test+0x2ef4>
    2ea0:	00000000 	nop
    2ea4:	00000000 	nop
    2ea8:	00000021 	move	zero,zero
    2eac:	00000021 	move	zero,zero
    2eb0:	00000021 	move	zero,zero
    2eb4:	00000021 	move	zero,zero
    2eb8:	00000021 	move	zero,zero
    2ebc:	00000021 	move	zero,zero
    2ec0:	00000021 	move	zero,zero
    2ec4:	00000021 	move	zero,zero
    2ec8:	00000021 	move	zero,zero
    2ecc:	00000021 	move	zero,zero
    2ed0:	0100f809 	jalr	t0
    2ed4:	00000000 	nop
    2ed8:	10000006 	b	2ef4 <n40_jalr_test+0x2ef4>
    2edc:	00000000 	nop
    2ee0:	00000000 	nop
    2ee4:	00000021 	move	zero,zero
    2ee8:	00000021 	move	zero,zero
    2eec:	3c12c2bb 	lui	s2,0xc2bb
    2ef0:	3652d95c 	ori	s2,s2,0xd95c
    2ef4:	001fa021 	addu	s4,zero,ra
    2ef8:	0016f821 	addu	ra,zero,s6
    2efc:	3c150000 	lui	s5,0x0
    2f00:	26b52e94 	addiu	s5,s5,11924
    2f04:	3c0d536d 	lui	t5,0x536d
    2f08:	35ade97e 	ori	t5,t5,0xe97e
    2f0c:	160d20c9 	bne	s0,t5,b234 <inst_error>
    2f10:	00000000 	nop
    2f14:	00000000 	nop
    2f18:	3c0cc2bb 	lui	t4,0xc2bb
    2f1c:	358cd95c 	ori	t4,t4,0xd95c
    2f20:	164c20c4 	bne	s2,t4,b234 <inst_error>
    2f24:	00000000 	nop
    2f28:	00000000 	nop
    2f2c:	26b50008 	addiu	s5,s5,8
    2f30:	169520c0 	bne	s4,s5,b234 <inst_error>
    2f34:	00000000 	nop
    2f38:	00000000 	nop
    2f3c:	001fb021 	addu	s6,zero,ra
    2f40:	3c0ce61b 	lui	t4,0xe61b
    2f44:	358ce653 	ori	t4,t4,0xe653
    2f48:	3c0db66c 	lui	t5,0xb66c
    2f4c:	35add180 	ori	t5,t5,0xd180
    2f50:	24100000 	li	s0,0
    2f54:	3c080000 	lui	t0,0x0
    2f58:	25082f70 	addiu	t0,t0,12144
    2f5c:	3c090000 	lui	t1,0x0
    2f60:	25292fd0 	addiu	t1,t1,12240
    2f64:	10000013 	b	2fb4 <n40_jalr_test+0x2fb4>
    2f68:	24120000 	li	s2,0
    2f6c:	00000000 	nop
    2f70:	3c10e61b 	lui	s0,0xe61b
    2f74:	3610e653 	ori	s0,s0,0xe653
    2f78:	0120f809 	jalr	t1
    2f7c:	00000000 	nop
    2f80:	10000015 	b	2fd8 <n40_jalr_test+0x2fd8>
    2f84:	00000000 	nop
    2f88:	00000000 	nop
    2f8c:	00000021 	move	zero,zero
    2f90:	00000021 	move	zero,zero
    2f94:	00000021 	move	zero,zero
    2f98:	00000021 	move	zero,zero
    2f9c:	00000021 	move	zero,zero
    2fa0:	00000021 	move	zero,zero
    2fa4:	00000021 	move	zero,zero
    2fa8:	00000021 	move	zero,zero
    2fac:	00000021 	move	zero,zero
    2fb0:	00000021 	move	zero,zero
    2fb4:	0100f809 	jalr	t0
    2fb8:	00000000 	nop
    2fbc:	10000006 	b	2fd8 <n40_jalr_test+0x2fd8>
    2fc0:	00000000 	nop
    2fc4:	00000000 	nop
    2fc8:	00000021 	move	zero,zero
    2fcc:	00000021 	move	zero,zero
    2fd0:	3c12b66c 	lui	s2,0xb66c
    2fd4:	3652d180 	ori	s2,s2,0xd180
    2fd8:	001fa021 	addu	s4,zero,ra
    2fdc:	0016f821 	addu	ra,zero,s6
    2fe0:	3c150000 	lui	s5,0x0
    2fe4:	26b52f78 	addiu	s5,s5,12152
    2fe8:	3c0de61b 	lui	t5,0xe61b
    2fec:	35ade653 	ori	t5,t5,0xe653
    2ff0:	160d2090 	bne	s0,t5,b234 <inst_error>
    2ff4:	00000000 	nop
    2ff8:	00000000 	nop
    2ffc:	3c0cb66c 	lui	t4,0xb66c
    3000:	358cd180 	ori	t4,t4,0xd180
    3004:	164c208b 	bne	s2,t4,b234 <inst_error>
    3008:	00000000 	nop
    300c:	00000000 	nop
    3010:	26b50008 	addiu	s5,s5,8
    3014:	16952087 	bne	s4,s5,b234 <inst_error>
    3018:	00000000 	nop
    301c:	00000000 	nop
    3020:	001fb021 	addu	s6,zero,ra
    3024:	3c0c06ed 	lui	t4,0x6ed
    3028:	358c93e0 	ori	t4,t4,0x93e0
    302c:	3c0d8013 	lui	t5,0x8013
    3030:	35adcb46 	ori	t5,t5,0xcb46
    3034:	24100000 	li	s0,0
    3038:	3c080000 	lui	t0,0x0
    303c:	25083054 	addiu	t0,t0,12372
    3040:	3c090000 	lui	t1,0x0
    3044:	252930b4 	addiu	t1,t1,12468
    3048:	10000013 	b	3098 <n40_jalr_test+0x3098>
    304c:	24120000 	li	s2,0
    3050:	00000000 	nop
    3054:	3c1006ed 	lui	s0,0x6ed
    3058:	361093e0 	ori	s0,s0,0x93e0
    305c:	0120f809 	jalr	t1
    3060:	00000000 	nop
    3064:	10000015 	b	30bc <n40_jalr_test+0x30bc>
    3068:	00000000 	nop
    306c:	00000000 	nop
    3070:	00000021 	move	zero,zero
    3074:	00000021 	move	zero,zero
    3078:	00000021 	move	zero,zero
    307c:	00000021 	move	zero,zero
    3080:	00000021 	move	zero,zero
    3084:	00000021 	move	zero,zero
    3088:	00000021 	move	zero,zero
    308c:	00000021 	move	zero,zero
    3090:	00000021 	move	zero,zero
    3094:	00000021 	move	zero,zero
    3098:	0100f809 	jalr	t0
    309c:	00000000 	nop
    30a0:	10000006 	b	30bc <n40_jalr_test+0x30bc>
    30a4:	00000000 	nop
    30a8:	00000000 	nop
    30ac:	00000021 	move	zero,zero
    30b0:	00000021 	move	zero,zero
    30b4:	3c128013 	lui	s2,0x8013
    30b8:	3652cb46 	ori	s2,s2,0xcb46
    30bc:	001fa021 	addu	s4,zero,ra
    30c0:	0016f821 	addu	ra,zero,s6
    30c4:	3c150000 	lui	s5,0x0
    30c8:	26b5305c 	addiu	s5,s5,12380
    30cc:	3c0d06ed 	lui	t5,0x6ed
    30d0:	35ad93e0 	ori	t5,t5,0x93e0
    30d4:	160d2057 	bne	s0,t5,b234 <inst_error>
    30d8:	00000000 	nop
    30dc:	00000000 	nop
    30e0:	3c0c8013 	lui	t4,0x8013
    30e4:	358ccb46 	ori	t4,t4,0xcb46
    30e8:	164c2052 	bne	s2,t4,b234 <inst_error>
    30ec:	00000000 	nop
    30f0:	00000000 	nop
    30f4:	26b50008 	addiu	s5,s5,8
    30f8:	1695204e 	bne	s4,s5,b234 <inst_error>
    30fc:	00000000 	nop
    3100:	00000000 	nop
    3104:	001fb021 	addu	s6,zero,ra
    3108:	3c0c4db2 	lui	t4,0x4db2
    310c:	358c624a 	ori	t4,t4,0x624a
    3110:	3c0d882a 	lui	t5,0x882a
    3114:	35ada40a 	ori	t5,t5,0xa40a
    3118:	24100000 	li	s0,0
    311c:	3c080000 	lui	t0,0x0
    3120:	25083138 	addiu	t0,t0,12600
    3124:	3c090000 	lui	t1,0x0
    3128:	25293198 	addiu	t1,t1,12696
    312c:	10000013 	b	317c <n40_jalr_test+0x317c>
    3130:	24120000 	li	s2,0
    3134:	00000000 	nop
    3138:	3c104db2 	lui	s0,0x4db2
    313c:	3610624a 	ori	s0,s0,0x624a
    3140:	0120f809 	jalr	t1
    3144:	00000000 	nop
    3148:	10000015 	b	31a0 <n40_jalr_test+0x31a0>
    314c:	00000000 	nop
    3150:	00000000 	nop
    3154:	00000021 	move	zero,zero
    3158:	00000021 	move	zero,zero
    315c:	00000021 	move	zero,zero
    3160:	00000021 	move	zero,zero
    3164:	00000021 	move	zero,zero
    3168:	00000021 	move	zero,zero
    316c:	00000021 	move	zero,zero
    3170:	00000021 	move	zero,zero
    3174:	00000021 	move	zero,zero
    3178:	00000021 	move	zero,zero
    317c:	0100f809 	jalr	t0
    3180:	00000000 	nop
    3184:	10000006 	b	31a0 <n40_jalr_test+0x31a0>
    3188:	00000000 	nop
    318c:	00000000 	nop
    3190:	00000021 	move	zero,zero
    3194:	00000021 	move	zero,zero
    3198:	3c12882a 	lui	s2,0x882a
    319c:	3652a40a 	ori	s2,s2,0xa40a
    31a0:	001fa021 	addu	s4,zero,ra
    31a4:	0016f821 	addu	ra,zero,s6
    31a8:	3c150000 	lui	s5,0x0
    31ac:	26b53140 	addiu	s5,s5,12608
    31b0:	3c0d4db2 	lui	t5,0x4db2
    31b4:	35ad624a 	ori	t5,t5,0x624a
    31b8:	160d201e 	bne	s0,t5,b234 <inst_error>
    31bc:	00000000 	nop
    31c0:	00000000 	nop
    31c4:	3c0c882a 	lui	t4,0x882a
    31c8:	358ca40a 	ori	t4,t4,0xa40a
    31cc:	164c2019 	bne	s2,t4,b234 <inst_error>
    31d0:	00000000 	nop
    31d4:	00000000 	nop
    31d8:	26b50008 	addiu	s5,s5,8
    31dc:	16952015 	bne	s4,s5,b234 <inst_error>
    31e0:	00000000 	nop
    31e4:	00000000 	nop
    31e8:	001fb021 	addu	s6,zero,ra
    31ec:	3c0c9c18 	lui	t4,0x9c18
    31f0:	358cc981 	ori	t4,t4,0xc981
    31f4:	3c0dd46b 	lui	t5,0xd46b
    31f8:	35ad0540 	ori	t5,t5,0x540
    31fc:	24100000 	li	s0,0
    3200:	3c080000 	lui	t0,0x0
    3204:	2508321c 	addiu	t0,t0,12828
    3208:	3c090000 	lui	t1,0x0
    320c:	2529327c 	addiu	t1,t1,12924
    3210:	10000013 	b	3260 <n40_jalr_test+0x3260>
    3214:	24120000 	li	s2,0
    3218:	00000000 	nop
    321c:	3c109c18 	lui	s0,0x9c18
    3220:	3610c981 	ori	s0,s0,0xc981
    3224:	0120f809 	jalr	t1
    3228:	00000000 	nop
    322c:	10000015 	b	3284 <n40_jalr_test+0x3284>
    3230:	00000000 	nop
    3234:	00000000 	nop
    3238:	00000021 	move	zero,zero
    323c:	00000021 	move	zero,zero
    3240:	00000021 	move	zero,zero
    3244:	00000021 	move	zero,zero
    3248:	00000021 	move	zero,zero
    324c:	00000021 	move	zero,zero
    3250:	00000021 	move	zero,zero
    3254:	00000021 	move	zero,zero
    3258:	00000021 	move	zero,zero
    325c:	00000021 	move	zero,zero
    3260:	0100f809 	jalr	t0
    3264:	00000000 	nop
    3268:	10000006 	b	3284 <n40_jalr_test+0x3284>
    326c:	00000000 	nop
    3270:	00000000 	nop
    3274:	00000021 	move	zero,zero
    3278:	00000021 	move	zero,zero
    327c:	3c12d46b 	lui	s2,0xd46b
    3280:	36520540 	ori	s2,s2,0x540
    3284:	001fa021 	addu	s4,zero,ra
    3288:	0016f821 	addu	ra,zero,s6
    328c:	3c150000 	lui	s5,0x0
    3290:	26b53224 	addiu	s5,s5,12836
    3294:	3c0d9c18 	lui	t5,0x9c18
    3298:	35adc981 	ori	t5,t5,0xc981
    329c:	160d1fe5 	bne	s0,t5,b234 <inst_error>
    32a0:	00000000 	nop
    32a4:	00000000 	nop
    32a8:	3c0cd46b 	lui	t4,0xd46b
    32ac:	358c0540 	ori	t4,t4,0x540
    32b0:	164c1fe0 	bne	s2,t4,b234 <inst_error>
    32b4:	00000000 	nop
    32b8:	00000000 	nop
    32bc:	26b50008 	addiu	s5,s5,8
    32c0:	16951fdc 	bne	s4,s5,b234 <inst_error>
    32c4:	00000000 	nop
    32c8:	00000000 	nop
    32cc:	001fb021 	addu	s6,zero,ra
    32d0:	3c0c2036 	lui	t4,0x2036
    32d4:	358c2ea8 	ori	t4,t4,0x2ea8
    32d8:	3c0ddda4 	lui	t5,0xdda4
    32dc:	35ade301 	ori	t5,t5,0xe301
    32e0:	24100000 	li	s0,0
    32e4:	3c080000 	lui	t0,0x0
    32e8:	25083300 	addiu	t0,t0,13056
    32ec:	3c090000 	lui	t1,0x0
    32f0:	25293360 	addiu	t1,t1,13152
    32f4:	10000013 	b	3344 <n40_jalr_test+0x3344>
    32f8:	24120000 	li	s2,0
    32fc:	00000000 	nop
    3300:	3c102036 	lui	s0,0x2036
    3304:	36102ea8 	ori	s0,s0,0x2ea8
    3308:	0120f809 	jalr	t1
    330c:	00000000 	nop
    3310:	10000015 	b	3368 <n40_jalr_test+0x3368>
    3314:	00000000 	nop
    3318:	00000000 	nop
    331c:	00000021 	move	zero,zero
    3320:	00000021 	move	zero,zero
    3324:	00000021 	move	zero,zero
    3328:	00000021 	move	zero,zero
    332c:	00000021 	move	zero,zero
    3330:	00000021 	move	zero,zero
    3334:	00000021 	move	zero,zero
    3338:	00000021 	move	zero,zero
    333c:	00000021 	move	zero,zero
    3340:	00000021 	move	zero,zero
    3344:	0100f809 	jalr	t0
    3348:	00000000 	nop
    334c:	10000006 	b	3368 <n40_jalr_test+0x3368>
    3350:	00000000 	nop
    3354:	00000000 	nop
    3358:	00000021 	move	zero,zero
    335c:	00000021 	move	zero,zero
    3360:	3c12dda4 	lui	s2,0xdda4
    3364:	3652e301 	ori	s2,s2,0xe301
    3368:	001fa021 	addu	s4,zero,ra
    336c:	0016f821 	addu	ra,zero,s6
    3370:	3c150000 	lui	s5,0x0
    3374:	26b53308 	addiu	s5,s5,13064
    3378:	3c0d2036 	lui	t5,0x2036
    337c:	35ad2ea8 	ori	t5,t5,0x2ea8
    3380:	160d1fac 	bne	s0,t5,b234 <inst_error>
    3384:	00000000 	nop
    3388:	00000000 	nop
    338c:	3c0cdda4 	lui	t4,0xdda4
    3390:	358ce301 	ori	t4,t4,0xe301
    3394:	164c1fa7 	bne	s2,t4,b234 <inst_error>
    3398:	00000000 	nop
    339c:	00000000 	nop
    33a0:	26b50008 	addiu	s5,s5,8
    33a4:	16951fa3 	bne	s4,s5,b234 <inst_error>
    33a8:	00000000 	nop
    33ac:	00000000 	nop
    33b0:	001fb021 	addu	s6,zero,ra
    33b4:	3c0cbd4e 	lui	t4,0xbd4e
    33b8:	358cb617 	ori	t4,t4,0xb617
    33bc:	3c0dd586 	lui	t5,0xd586
    33c0:	35ad64c0 	ori	t5,t5,0x64c0
    33c4:	24100000 	li	s0,0
    33c8:	3c080000 	lui	t0,0x0
    33cc:	250833e4 	addiu	t0,t0,13284
    33d0:	3c090000 	lui	t1,0x0
    33d4:	25293444 	addiu	t1,t1,13380
    33d8:	10000013 	b	3428 <n40_jalr_test+0x3428>
    33dc:	24120000 	li	s2,0
    33e0:	00000000 	nop
    33e4:	3c10bd4e 	lui	s0,0xbd4e
    33e8:	3610b617 	ori	s0,s0,0xb617
    33ec:	0120f809 	jalr	t1
    33f0:	00000000 	nop
    33f4:	10000015 	b	344c <n40_jalr_test+0x344c>
    33f8:	00000000 	nop
    33fc:	00000000 	nop
    3400:	00000021 	move	zero,zero
    3404:	00000021 	move	zero,zero
    3408:	00000021 	move	zero,zero
    340c:	00000021 	move	zero,zero
    3410:	00000021 	move	zero,zero
    3414:	00000021 	move	zero,zero
    3418:	00000021 	move	zero,zero
    341c:	00000021 	move	zero,zero
    3420:	00000021 	move	zero,zero
    3424:	00000021 	move	zero,zero
    3428:	0100f809 	jalr	t0
    342c:	00000000 	nop
    3430:	10000006 	b	344c <n40_jalr_test+0x344c>
    3434:	00000000 	nop
    3438:	00000000 	nop
    343c:	00000021 	move	zero,zero
    3440:	00000021 	move	zero,zero
    3444:	3c12d586 	lui	s2,0xd586
    3448:	365264c0 	ori	s2,s2,0x64c0
    344c:	001fa021 	addu	s4,zero,ra
    3450:	0016f821 	addu	ra,zero,s6
    3454:	3c150000 	lui	s5,0x0
    3458:	26b533ec 	addiu	s5,s5,13292
    345c:	3c0dbd4e 	lui	t5,0xbd4e
    3460:	35adb617 	ori	t5,t5,0xb617
    3464:	160d1f73 	bne	s0,t5,b234 <inst_error>
    3468:	00000000 	nop
    346c:	00000000 	nop
    3470:	3c0cd586 	lui	t4,0xd586
    3474:	358c64c0 	ori	t4,t4,0x64c0
    3478:	164c1f6e 	bne	s2,t4,b234 <inst_error>
    347c:	00000000 	nop
    3480:	00000000 	nop
    3484:	26b50008 	addiu	s5,s5,8
    3488:	16951f6a 	bne	s4,s5,b234 <inst_error>
    348c:	00000000 	nop
    3490:	00000000 	nop
    3494:	001fb021 	addu	s6,zero,ra
    3498:	3c0c1b55 	lui	t4,0x1b55
    349c:	358c48ff 	ori	t4,t4,0x48ff
    34a0:	3c0df3cd 	lui	t5,0xf3cd
    34a4:	35ad5356 	ori	t5,t5,0x5356
    34a8:	24100000 	li	s0,0
    34ac:	3c080000 	lui	t0,0x0
    34b0:	250834c8 	addiu	t0,t0,13512
    34b4:	3c090000 	lui	t1,0x0
    34b8:	25293528 	addiu	t1,t1,13608
    34bc:	10000013 	b	350c <n40_jalr_test+0x350c>
    34c0:	24120000 	li	s2,0
    34c4:	00000000 	nop
    34c8:	3c101b55 	lui	s0,0x1b55
    34cc:	361048ff 	ori	s0,s0,0x48ff
    34d0:	0120f809 	jalr	t1
    34d4:	00000000 	nop
    34d8:	10000015 	b	3530 <n40_jalr_test+0x3530>
    34dc:	00000000 	nop
    34e0:	00000000 	nop
    34e4:	00000021 	move	zero,zero
    34e8:	00000021 	move	zero,zero
    34ec:	00000021 	move	zero,zero
    34f0:	00000021 	move	zero,zero
    34f4:	00000021 	move	zero,zero
    34f8:	00000021 	move	zero,zero
    34fc:	00000021 	move	zero,zero
    3500:	00000021 	move	zero,zero
    3504:	00000021 	move	zero,zero
    3508:	00000021 	move	zero,zero
    350c:	0100f809 	jalr	t0
    3510:	00000000 	nop
    3514:	10000006 	b	3530 <n40_jalr_test+0x3530>
    3518:	00000000 	nop
    351c:	00000000 	nop
    3520:	00000021 	move	zero,zero
    3524:	00000021 	move	zero,zero
    3528:	3c12f3cd 	lui	s2,0xf3cd
    352c:	36525356 	ori	s2,s2,0x5356
    3530:	001fa021 	addu	s4,zero,ra
    3534:	0016f821 	addu	ra,zero,s6
    3538:	3c150000 	lui	s5,0x0
    353c:	26b534d0 	addiu	s5,s5,13520
    3540:	3c0d1b55 	lui	t5,0x1b55
    3544:	35ad48ff 	ori	t5,t5,0x48ff
    3548:	160d1f3a 	bne	s0,t5,b234 <inst_error>
    354c:	00000000 	nop
    3550:	00000000 	nop
    3554:	3c0cf3cd 	lui	t4,0xf3cd
    3558:	358c5356 	ori	t4,t4,0x5356
    355c:	164c1f35 	bne	s2,t4,b234 <inst_error>
    3560:	00000000 	nop
    3564:	00000000 	nop
    3568:	26b50008 	addiu	s5,s5,8
    356c:	16951f31 	bne	s4,s5,b234 <inst_error>
    3570:	00000000 	nop
    3574:	00000000 	nop
    3578:	001fb021 	addu	s6,zero,ra
    357c:	3c0c268d 	lui	t4,0x268d
    3580:	358ccc90 	ori	t4,t4,0xcc90
    3584:	3c0dfb3b 	lui	t5,0xfb3b
    3588:	35ad87a0 	ori	t5,t5,0x87a0
    358c:	24100000 	li	s0,0
    3590:	3c080000 	lui	t0,0x0
    3594:	250835ac 	addiu	t0,t0,13740
    3598:	3c090000 	lui	t1,0x0
    359c:	2529360c 	addiu	t1,t1,13836
    35a0:	10000013 	b	35f0 <n40_jalr_test+0x35f0>
    35a4:	24120000 	li	s2,0
    35a8:	00000000 	nop
    35ac:	3c10268d 	lui	s0,0x268d
    35b0:	3610cc90 	ori	s0,s0,0xcc90
    35b4:	0120f809 	jalr	t1
    35b8:	00000000 	nop
    35bc:	10000015 	b	3614 <n40_jalr_test+0x3614>
    35c0:	00000000 	nop
    35c4:	00000000 	nop
    35c8:	00000021 	move	zero,zero
    35cc:	00000021 	move	zero,zero
    35d0:	00000021 	move	zero,zero
    35d4:	00000021 	move	zero,zero
    35d8:	00000021 	move	zero,zero
    35dc:	00000021 	move	zero,zero
    35e0:	00000021 	move	zero,zero
    35e4:	00000021 	move	zero,zero
    35e8:	00000021 	move	zero,zero
    35ec:	00000021 	move	zero,zero
    35f0:	0100f809 	jalr	t0
    35f4:	00000000 	nop
    35f8:	10000006 	b	3614 <n40_jalr_test+0x3614>
    35fc:	00000000 	nop
    3600:	00000000 	nop
    3604:	00000021 	move	zero,zero
    3608:	00000021 	move	zero,zero
    360c:	3c12fb3b 	lui	s2,0xfb3b
    3610:	365287a0 	ori	s2,s2,0x87a0
    3614:	001fa021 	addu	s4,zero,ra
    3618:	0016f821 	addu	ra,zero,s6
    361c:	3c150000 	lui	s5,0x0
    3620:	26b535b4 	addiu	s5,s5,13748
    3624:	3c0d268d 	lui	t5,0x268d
    3628:	35adcc90 	ori	t5,t5,0xcc90
    362c:	160d1f01 	bne	s0,t5,b234 <inst_error>
    3630:	00000000 	nop
    3634:	00000000 	nop
    3638:	3c0cfb3b 	lui	t4,0xfb3b
    363c:	358c87a0 	ori	t4,t4,0x87a0
    3640:	164c1efc 	bne	s2,t4,b234 <inst_error>
    3644:	00000000 	nop
    3648:	00000000 	nop
    364c:	26b50008 	addiu	s5,s5,8
    3650:	16951ef8 	bne	s4,s5,b234 <inst_error>
    3654:	00000000 	nop
    3658:	00000000 	nop
    365c:	001fb021 	addu	s6,zero,ra
    3660:	3c0cdac4 	lui	t4,0xdac4
    3664:	358c9479 	ori	t4,t4,0x9479
    3668:	3c0dba03 	lui	t5,0xba03
    366c:	35ad6d18 	ori	t5,t5,0x6d18
    3670:	24100000 	li	s0,0
    3674:	3c080000 	lui	t0,0x0
    3678:	25083690 	addiu	t0,t0,13968
    367c:	3c090000 	lui	t1,0x0
    3680:	252936f0 	addiu	t1,t1,14064
    3684:	10000013 	b	36d4 <n40_jalr_test+0x36d4>
    3688:	24120000 	li	s2,0
    368c:	00000000 	nop
    3690:	3c10dac4 	lui	s0,0xdac4
    3694:	36109479 	ori	s0,s0,0x9479
    3698:	0120f809 	jalr	t1
    369c:	00000000 	nop
    36a0:	10000015 	b	36f8 <n40_jalr_test+0x36f8>
    36a4:	00000000 	nop
    36a8:	00000000 	nop
    36ac:	00000021 	move	zero,zero
    36b0:	00000021 	move	zero,zero
    36b4:	00000021 	move	zero,zero
    36b8:	00000021 	move	zero,zero
    36bc:	00000021 	move	zero,zero
    36c0:	00000021 	move	zero,zero
    36c4:	00000021 	move	zero,zero
    36c8:	00000021 	move	zero,zero
    36cc:	00000021 	move	zero,zero
    36d0:	00000021 	move	zero,zero
    36d4:	0100f809 	jalr	t0
    36d8:	00000000 	nop
    36dc:	10000006 	b	36f8 <n40_jalr_test+0x36f8>
    36e0:	00000000 	nop
    36e4:	00000000 	nop
    36e8:	00000021 	move	zero,zero
    36ec:	00000021 	move	zero,zero
    36f0:	3c12ba03 	lui	s2,0xba03
    36f4:	36526d18 	ori	s2,s2,0x6d18
    36f8:	001fa021 	addu	s4,zero,ra
    36fc:	0016f821 	addu	ra,zero,s6
    3700:	3c150000 	lui	s5,0x0
    3704:	26b53698 	addiu	s5,s5,13976
    3708:	3c0ddac4 	lui	t5,0xdac4
    370c:	35ad9479 	ori	t5,t5,0x9479
    3710:	160d1ec8 	bne	s0,t5,b234 <inst_error>
    3714:	00000000 	nop
    3718:	00000000 	nop
    371c:	3c0cba03 	lui	t4,0xba03
    3720:	358c6d18 	ori	t4,t4,0x6d18
    3724:	164c1ec3 	bne	s2,t4,b234 <inst_error>
    3728:	00000000 	nop
    372c:	00000000 	nop
    3730:	26b50008 	addiu	s5,s5,8
    3734:	16951ebf 	bne	s4,s5,b234 <inst_error>
    3738:	00000000 	nop
    373c:	00000000 	nop
    3740:	001fb021 	addu	s6,zero,ra
    3744:	3c0c35b5 	lui	t4,0x35b5
    3748:	358c8838 	ori	t4,t4,0x8838
    374c:	3c0d84dd 	lui	t5,0x84dd
    3750:	35add8a0 	ori	t5,t5,0xd8a0
    3754:	24100000 	li	s0,0
    3758:	3c080000 	lui	t0,0x0
    375c:	25083774 	addiu	t0,t0,14196
    3760:	3c090000 	lui	t1,0x0
    3764:	252937d4 	addiu	t1,t1,14292
    3768:	10000013 	b	37b8 <n40_jalr_test+0x37b8>
    376c:	24120000 	li	s2,0
    3770:	00000000 	nop
    3774:	3c1035b5 	lui	s0,0x35b5
    3778:	36108838 	ori	s0,s0,0x8838
    377c:	0120f809 	jalr	t1
    3780:	00000000 	nop
    3784:	10000015 	b	37dc <n40_jalr_test+0x37dc>
    3788:	00000000 	nop
    378c:	00000000 	nop
    3790:	00000021 	move	zero,zero
    3794:	00000021 	move	zero,zero
    3798:	00000021 	move	zero,zero
    379c:	00000021 	move	zero,zero
    37a0:	00000021 	move	zero,zero
    37a4:	00000021 	move	zero,zero
    37a8:	00000021 	move	zero,zero
    37ac:	00000021 	move	zero,zero
    37b0:	00000021 	move	zero,zero
    37b4:	00000021 	move	zero,zero
    37b8:	0100f809 	jalr	t0
    37bc:	00000000 	nop
    37c0:	10000006 	b	37dc <n40_jalr_test+0x37dc>
    37c4:	00000000 	nop
    37c8:	00000000 	nop
    37cc:	00000021 	move	zero,zero
    37d0:	00000021 	move	zero,zero
    37d4:	3c1284dd 	lui	s2,0x84dd
    37d8:	3652d8a0 	ori	s2,s2,0xd8a0
    37dc:	001fa021 	addu	s4,zero,ra
    37e0:	0016f821 	addu	ra,zero,s6
    37e4:	3c150000 	lui	s5,0x0
    37e8:	26b5377c 	addiu	s5,s5,14204
    37ec:	3c0d35b5 	lui	t5,0x35b5
    37f0:	35ad8838 	ori	t5,t5,0x8838
    37f4:	160d1e8f 	bne	s0,t5,b234 <inst_error>
    37f8:	00000000 	nop
    37fc:	00000000 	nop
    3800:	3c0c84dd 	lui	t4,0x84dd
    3804:	358cd8a0 	ori	t4,t4,0xd8a0
    3808:	164c1e8a 	bne	s2,t4,b234 <inst_error>
    380c:	00000000 	nop
    3810:	00000000 	nop
    3814:	26b50008 	addiu	s5,s5,8
    3818:	16951e86 	bne	s4,s5,b234 <inst_error>
    381c:	00000000 	nop
    3820:	00000000 	nop
    3824:	001fb021 	addu	s6,zero,ra
    3828:	3c0c731a 	lui	t4,0x731a
    382c:	358c8e00 	ori	t4,t4,0x8e00
    3830:	3c0df885 	lui	t5,0xf885
    3834:	35add33c 	ori	t5,t5,0xd33c
    3838:	24100000 	li	s0,0
    383c:	3c080000 	lui	t0,0x0
    3840:	25083858 	addiu	t0,t0,14424
    3844:	3c090000 	lui	t1,0x0
    3848:	252938b8 	addiu	t1,t1,14520
    384c:	10000013 	b	389c <n40_jalr_test+0x389c>
    3850:	24120000 	li	s2,0
    3854:	00000000 	nop
    3858:	3c10731a 	lui	s0,0x731a
    385c:	36108e00 	ori	s0,s0,0x8e00
    3860:	0120f809 	jalr	t1
    3864:	00000000 	nop
    3868:	10000015 	b	38c0 <n40_jalr_test+0x38c0>
    386c:	00000000 	nop
    3870:	00000000 	nop
    3874:	00000021 	move	zero,zero
    3878:	00000021 	move	zero,zero
    387c:	00000021 	move	zero,zero
    3880:	00000021 	move	zero,zero
    3884:	00000021 	move	zero,zero
    3888:	00000021 	move	zero,zero
    388c:	00000021 	move	zero,zero
    3890:	00000021 	move	zero,zero
    3894:	00000021 	move	zero,zero
    3898:	00000021 	move	zero,zero
    389c:	0100f809 	jalr	t0
    38a0:	00000000 	nop
    38a4:	10000006 	b	38c0 <n40_jalr_test+0x38c0>
    38a8:	00000000 	nop
    38ac:	00000000 	nop
    38b0:	00000021 	move	zero,zero
    38b4:	00000021 	move	zero,zero
    38b8:	3c12f885 	lui	s2,0xf885
    38bc:	3652d33c 	ori	s2,s2,0xd33c
    38c0:	001fa021 	addu	s4,zero,ra
    38c4:	0016f821 	addu	ra,zero,s6
    38c8:	3c150000 	lui	s5,0x0
    38cc:	26b53860 	addiu	s5,s5,14432
    38d0:	3c0d731a 	lui	t5,0x731a
    38d4:	35ad8e00 	ori	t5,t5,0x8e00
    38d8:	160d1e56 	bne	s0,t5,b234 <inst_error>
    38dc:	00000000 	nop
    38e0:	00000000 	nop
    38e4:	3c0cf885 	lui	t4,0xf885
    38e8:	358cd33c 	ori	t4,t4,0xd33c
    38ec:	164c1e51 	bne	s2,t4,b234 <inst_error>
    38f0:	00000000 	nop
    38f4:	00000000 	nop
    38f8:	26b50008 	addiu	s5,s5,8
    38fc:	16951e4d 	bne	s4,s5,b234 <inst_error>
    3900:	00000000 	nop
    3904:	00000000 	nop
    3908:	001fb021 	addu	s6,zero,ra
    390c:	3c0ca5d3 	lui	t4,0xa5d3
    3910:	358c67b4 	ori	t4,t4,0x67b4
    3914:	3c0d5aa8 	lui	t5,0x5aa8
    3918:	35ad2d10 	ori	t5,t5,0x2d10
    391c:	24100000 	li	s0,0
    3920:	3c080000 	lui	t0,0x0
    3924:	2508393c 	addiu	t0,t0,14652
    3928:	3c090000 	lui	t1,0x0
    392c:	2529399c 	addiu	t1,t1,14748
    3930:	10000013 	b	3980 <n40_jalr_test+0x3980>
    3934:	24120000 	li	s2,0
    3938:	00000000 	nop
    393c:	3c10a5d3 	lui	s0,0xa5d3
    3940:	361067b4 	ori	s0,s0,0x67b4
    3944:	0120f809 	jalr	t1
    3948:	00000000 	nop
    394c:	10000015 	b	39a4 <n40_jalr_test+0x39a4>
    3950:	00000000 	nop
    3954:	00000000 	nop
    3958:	00000021 	move	zero,zero
    395c:	00000021 	move	zero,zero
    3960:	00000021 	move	zero,zero
    3964:	00000021 	move	zero,zero
    3968:	00000021 	move	zero,zero
    396c:	00000021 	move	zero,zero
    3970:	00000021 	move	zero,zero
    3974:	00000021 	move	zero,zero
    3978:	00000021 	move	zero,zero
    397c:	00000021 	move	zero,zero
    3980:	0100f809 	jalr	t0
    3984:	00000000 	nop
    3988:	10000006 	b	39a4 <n40_jalr_test+0x39a4>
    398c:	00000000 	nop
    3990:	00000000 	nop
    3994:	00000021 	move	zero,zero
    3998:	00000021 	move	zero,zero
    399c:	3c125aa8 	lui	s2,0x5aa8
    39a0:	36522d10 	ori	s2,s2,0x2d10
    39a4:	001fa021 	addu	s4,zero,ra
    39a8:	0016f821 	addu	ra,zero,s6
    39ac:	3c150000 	lui	s5,0x0
    39b0:	26b53944 	addiu	s5,s5,14660
    39b4:	3c0da5d3 	lui	t5,0xa5d3
    39b8:	35ad67b4 	ori	t5,t5,0x67b4
    39bc:	160d1e1d 	bne	s0,t5,b234 <inst_error>
    39c0:	00000000 	nop
    39c4:	00000000 	nop
    39c8:	3c0c5aa8 	lui	t4,0x5aa8
    39cc:	358c2d10 	ori	t4,t4,0x2d10
    39d0:	164c1e18 	bne	s2,t4,b234 <inst_error>
    39d4:	00000000 	nop
    39d8:	00000000 	nop
    39dc:	26b50008 	addiu	s5,s5,8
    39e0:	16951e14 	bne	s4,s5,b234 <inst_error>
    39e4:	00000000 	nop
    39e8:	00000000 	nop
    39ec:	001fb021 	addu	s6,zero,ra
    39f0:	3c0c828f 	lui	t4,0x828f
    39f4:	358cd0d0 	ori	t4,t4,0xd0d0
    39f8:	3c0debb6 	lui	t5,0xebb6
    39fc:	35ad3816 	ori	t5,t5,0x3816
    3a00:	24100000 	li	s0,0
    3a04:	3c080000 	lui	t0,0x0
    3a08:	25083a20 	addiu	t0,t0,14880
    3a0c:	3c090000 	lui	t1,0x0
    3a10:	25293a80 	addiu	t1,t1,14976
    3a14:	10000013 	b	3a64 <n40_jalr_test+0x3a64>
    3a18:	24120000 	li	s2,0
    3a1c:	00000000 	nop
    3a20:	3c10828f 	lui	s0,0x828f
    3a24:	3610d0d0 	ori	s0,s0,0xd0d0
    3a28:	0120f809 	jalr	t1
    3a2c:	00000000 	nop
    3a30:	10000015 	b	3a88 <n40_jalr_test+0x3a88>
    3a34:	00000000 	nop
    3a38:	00000000 	nop
    3a3c:	00000021 	move	zero,zero
    3a40:	00000021 	move	zero,zero
    3a44:	00000021 	move	zero,zero
    3a48:	00000021 	move	zero,zero
    3a4c:	00000021 	move	zero,zero
    3a50:	00000021 	move	zero,zero
    3a54:	00000021 	move	zero,zero
    3a58:	00000021 	move	zero,zero
    3a5c:	00000021 	move	zero,zero
    3a60:	00000021 	move	zero,zero
    3a64:	0100f809 	jalr	t0
    3a68:	00000000 	nop
    3a6c:	10000006 	b	3a88 <n40_jalr_test+0x3a88>
    3a70:	00000000 	nop
    3a74:	00000000 	nop
    3a78:	00000021 	move	zero,zero
    3a7c:	00000021 	move	zero,zero
    3a80:	3c12ebb6 	lui	s2,0xebb6
    3a84:	36523816 	ori	s2,s2,0x3816
    3a88:	001fa021 	addu	s4,zero,ra
    3a8c:	0016f821 	addu	ra,zero,s6
    3a90:	3c150000 	lui	s5,0x0
    3a94:	26b53a28 	addiu	s5,s5,14888
    3a98:	3c0d828f 	lui	t5,0x828f
    3a9c:	35add0d0 	ori	t5,t5,0xd0d0
    3aa0:	160d1de4 	bne	s0,t5,b234 <inst_error>
    3aa4:	00000000 	nop
    3aa8:	00000000 	nop
    3aac:	3c0cebb6 	lui	t4,0xebb6
    3ab0:	358c3816 	ori	t4,t4,0x3816
    3ab4:	164c1ddf 	bne	s2,t4,b234 <inst_error>
    3ab8:	00000000 	nop
    3abc:	00000000 	nop
    3ac0:	26b50008 	addiu	s5,s5,8
    3ac4:	16951ddb 	bne	s4,s5,b234 <inst_error>
    3ac8:	00000000 	nop
    3acc:	00000000 	nop
    3ad0:	001fb021 	addu	s6,zero,ra
    3ad4:	3c0c412c 	lui	t4,0x412c
    3ad8:	358ca48c 	ori	t4,t4,0xa48c
    3adc:	3c0d6732 	lui	t5,0x6732
    3ae0:	35ad2f2c 	ori	t5,t5,0x2f2c
    3ae4:	24100000 	li	s0,0
    3ae8:	3c080000 	lui	t0,0x0
    3aec:	25083b04 	addiu	t0,t0,15108
    3af0:	3c090000 	lui	t1,0x0
    3af4:	25293b64 	addiu	t1,t1,15204
    3af8:	10000013 	b	3b48 <n40_jalr_test+0x3b48>
    3afc:	24120000 	li	s2,0
    3b00:	00000000 	nop
    3b04:	3c10412c 	lui	s0,0x412c
    3b08:	3610a48c 	ori	s0,s0,0xa48c
    3b0c:	0120f809 	jalr	t1
    3b10:	00000000 	nop
    3b14:	10000015 	b	3b6c <n40_jalr_test+0x3b6c>
    3b18:	00000000 	nop
    3b1c:	00000000 	nop
    3b20:	00000021 	move	zero,zero
    3b24:	00000021 	move	zero,zero
    3b28:	00000021 	move	zero,zero
    3b2c:	00000021 	move	zero,zero
    3b30:	00000021 	move	zero,zero
    3b34:	00000021 	move	zero,zero
    3b38:	00000021 	move	zero,zero
    3b3c:	00000021 	move	zero,zero
    3b40:	00000021 	move	zero,zero
    3b44:	00000021 	move	zero,zero
    3b48:	0100f809 	jalr	t0
    3b4c:	00000000 	nop
    3b50:	10000006 	b	3b6c <n40_jalr_test+0x3b6c>
    3b54:	00000000 	nop
    3b58:	00000000 	nop
    3b5c:	00000021 	move	zero,zero
    3b60:	00000021 	move	zero,zero
    3b64:	3c126732 	lui	s2,0x6732
    3b68:	36522f2c 	ori	s2,s2,0x2f2c
    3b6c:	001fa021 	addu	s4,zero,ra
    3b70:	0016f821 	addu	ra,zero,s6
    3b74:	3c150000 	lui	s5,0x0
    3b78:	26b53b0c 	addiu	s5,s5,15116
    3b7c:	3c0d412c 	lui	t5,0x412c
    3b80:	35ada48c 	ori	t5,t5,0xa48c
    3b84:	160d1dab 	bne	s0,t5,b234 <inst_error>
    3b88:	00000000 	nop
    3b8c:	00000000 	nop
    3b90:	3c0c6732 	lui	t4,0x6732
    3b94:	358c2f2c 	ori	t4,t4,0x2f2c
    3b98:	164c1da6 	bne	s2,t4,b234 <inst_error>
    3b9c:	00000000 	nop
    3ba0:	00000000 	nop
    3ba4:	26b50008 	addiu	s5,s5,8
    3ba8:	16951da2 	bne	s4,s5,b234 <inst_error>
    3bac:	00000000 	nop
    3bb0:	00000000 	nop
    3bb4:	001fb021 	addu	s6,zero,ra
    3bb8:	3c0c63b0 	lui	t4,0x63b0
    3bbc:	358c43e0 	ori	t4,t4,0x43e0
    3bc0:	3c0da4c3 	lui	t5,0xa4c3
    3bc4:	35adcd80 	ori	t5,t5,0xcd80
    3bc8:	24100000 	li	s0,0
    3bcc:	3c080000 	lui	t0,0x0
    3bd0:	25083be8 	addiu	t0,t0,15336
    3bd4:	3c090000 	lui	t1,0x0
    3bd8:	25293c48 	addiu	t1,t1,15432
    3bdc:	10000013 	b	3c2c <n40_jalr_test+0x3c2c>
    3be0:	24120000 	li	s2,0
    3be4:	00000000 	nop
    3be8:	3c1063b0 	lui	s0,0x63b0
    3bec:	361043e0 	ori	s0,s0,0x43e0
    3bf0:	0120f809 	jalr	t1
    3bf4:	00000000 	nop
    3bf8:	10000015 	b	3c50 <n40_jalr_test+0x3c50>
    3bfc:	00000000 	nop
    3c00:	00000000 	nop
    3c04:	00000021 	move	zero,zero
    3c08:	00000021 	move	zero,zero
    3c0c:	00000021 	move	zero,zero
    3c10:	00000021 	move	zero,zero
    3c14:	00000021 	move	zero,zero
    3c18:	00000021 	move	zero,zero
    3c1c:	00000021 	move	zero,zero
    3c20:	00000021 	move	zero,zero
    3c24:	00000021 	move	zero,zero
    3c28:	00000021 	move	zero,zero
    3c2c:	0100f809 	jalr	t0
    3c30:	00000000 	nop
    3c34:	10000006 	b	3c50 <n40_jalr_test+0x3c50>
    3c38:	00000000 	nop
    3c3c:	00000000 	nop
    3c40:	00000021 	move	zero,zero
    3c44:	00000021 	move	zero,zero
    3c48:	3c12a4c3 	lui	s2,0xa4c3
    3c4c:	3652cd80 	ori	s2,s2,0xcd80
    3c50:	001fa021 	addu	s4,zero,ra
    3c54:	0016f821 	addu	ra,zero,s6
    3c58:	3c150000 	lui	s5,0x0
    3c5c:	26b53bf0 	addiu	s5,s5,15344
    3c60:	3c0d63b0 	lui	t5,0x63b0
    3c64:	35ad43e0 	ori	t5,t5,0x43e0
    3c68:	160d1d72 	bne	s0,t5,b234 <inst_error>
    3c6c:	00000000 	nop
    3c70:	00000000 	nop
    3c74:	3c0ca4c3 	lui	t4,0xa4c3
    3c78:	358ccd80 	ori	t4,t4,0xcd80
    3c7c:	164c1d6d 	bne	s2,t4,b234 <inst_error>
    3c80:	00000000 	nop
    3c84:	00000000 	nop
    3c88:	26b50008 	addiu	s5,s5,8
    3c8c:	16951d69 	bne	s4,s5,b234 <inst_error>
    3c90:	00000000 	nop
    3c94:	00000000 	nop
    3c98:	001fb021 	addu	s6,zero,ra
    3c9c:	3c0c812a 	lui	t4,0x812a
    3ca0:	358c64c0 	ori	t4,t4,0x64c0
    3ca4:	3c0de59f 	lui	t5,0xe59f
    3ca8:	35adc674 	ori	t5,t5,0xc674
    3cac:	24100000 	li	s0,0
    3cb0:	3c080000 	lui	t0,0x0
    3cb4:	25083ccc 	addiu	t0,t0,15564
    3cb8:	3c090000 	lui	t1,0x0
    3cbc:	25293d2c 	addiu	t1,t1,15660
    3cc0:	10000013 	b	3d10 <n40_jalr_test+0x3d10>
    3cc4:	24120000 	li	s2,0
    3cc8:	00000000 	nop
    3ccc:	3c10812a 	lui	s0,0x812a
    3cd0:	361064c0 	ori	s0,s0,0x64c0
    3cd4:	0120f809 	jalr	t1
    3cd8:	00000000 	nop
    3cdc:	10000015 	b	3d34 <n40_jalr_test+0x3d34>
    3ce0:	00000000 	nop
    3ce4:	00000000 	nop
    3ce8:	00000021 	move	zero,zero
    3cec:	00000021 	move	zero,zero
    3cf0:	00000021 	move	zero,zero
    3cf4:	00000021 	move	zero,zero
    3cf8:	00000021 	move	zero,zero
    3cfc:	00000021 	move	zero,zero
    3d00:	00000021 	move	zero,zero
    3d04:	00000021 	move	zero,zero
    3d08:	00000021 	move	zero,zero
    3d0c:	00000021 	move	zero,zero
    3d10:	0100f809 	jalr	t0
    3d14:	00000000 	nop
    3d18:	10000006 	b	3d34 <n40_jalr_test+0x3d34>
    3d1c:	00000000 	nop
    3d20:	00000000 	nop
    3d24:	00000021 	move	zero,zero
    3d28:	00000021 	move	zero,zero
    3d2c:	3c12e59f 	lui	s2,0xe59f
    3d30:	3652c674 	ori	s2,s2,0xc674
    3d34:	001fa021 	addu	s4,zero,ra
    3d38:	0016f821 	addu	ra,zero,s6
    3d3c:	3c150000 	lui	s5,0x0
    3d40:	26b53cd4 	addiu	s5,s5,15572
    3d44:	3c0d812a 	lui	t5,0x812a
    3d48:	35ad64c0 	ori	t5,t5,0x64c0
    3d4c:	160d1d39 	bne	s0,t5,b234 <inst_error>
    3d50:	00000000 	nop
    3d54:	00000000 	nop
    3d58:	3c0ce59f 	lui	t4,0xe59f
    3d5c:	358cc674 	ori	t4,t4,0xc674
    3d60:	164c1d34 	bne	s2,t4,b234 <inst_error>
    3d64:	00000000 	nop
    3d68:	00000000 	nop
    3d6c:	26b50008 	addiu	s5,s5,8
    3d70:	16951d30 	bne	s4,s5,b234 <inst_error>
    3d74:	00000000 	nop
    3d78:	00000000 	nop
    3d7c:	001fb021 	addu	s6,zero,ra
    3d80:	3c0c85c1 	lui	t4,0x85c1
    3d84:	358cc240 	ori	t4,t4,0xc240
    3d88:	3c0d97e2 	lui	t5,0x97e2
    3d8c:	35add472 	ori	t5,t5,0xd472
    3d90:	24100000 	li	s0,0
    3d94:	3c080000 	lui	t0,0x0
    3d98:	25083db0 	addiu	t0,t0,15792
    3d9c:	3c090000 	lui	t1,0x0
    3da0:	25293e10 	addiu	t1,t1,15888
    3da4:	10000013 	b	3df4 <n40_jalr_test+0x3df4>
    3da8:	24120000 	li	s2,0
    3dac:	00000000 	nop
    3db0:	3c1085c1 	lui	s0,0x85c1
    3db4:	3610c240 	ori	s0,s0,0xc240
    3db8:	0120f809 	jalr	t1
    3dbc:	00000000 	nop
    3dc0:	10000015 	b	3e18 <n40_jalr_test+0x3e18>
    3dc4:	00000000 	nop
    3dc8:	00000000 	nop
    3dcc:	00000021 	move	zero,zero
    3dd0:	00000021 	move	zero,zero
    3dd4:	00000021 	move	zero,zero
    3dd8:	00000021 	move	zero,zero
    3ddc:	00000021 	move	zero,zero
    3de0:	00000021 	move	zero,zero
    3de4:	00000021 	move	zero,zero
    3de8:	00000021 	move	zero,zero
    3dec:	00000021 	move	zero,zero
    3df0:	00000021 	move	zero,zero
    3df4:	0100f809 	jalr	t0
    3df8:	00000000 	nop
    3dfc:	10000006 	b	3e18 <n40_jalr_test+0x3e18>
    3e00:	00000000 	nop
    3e04:	00000000 	nop
    3e08:	00000021 	move	zero,zero
    3e0c:	00000021 	move	zero,zero
    3e10:	3c1297e2 	lui	s2,0x97e2
    3e14:	3652d472 	ori	s2,s2,0xd472
    3e18:	001fa021 	addu	s4,zero,ra
    3e1c:	0016f821 	addu	ra,zero,s6
    3e20:	3c150000 	lui	s5,0x0
    3e24:	26b53db8 	addiu	s5,s5,15800
    3e28:	3c0d85c1 	lui	t5,0x85c1
    3e2c:	35adc240 	ori	t5,t5,0xc240
    3e30:	160d1d00 	bne	s0,t5,b234 <inst_error>
    3e34:	00000000 	nop
    3e38:	00000000 	nop
    3e3c:	3c0c97e2 	lui	t4,0x97e2
    3e40:	358cd472 	ori	t4,t4,0xd472
    3e44:	164c1cfb 	bne	s2,t4,b234 <inst_error>
    3e48:	00000000 	nop
    3e4c:	00000000 	nop
    3e50:	26b50008 	addiu	s5,s5,8
    3e54:	16951cf7 	bne	s4,s5,b234 <inst_error>
    3e58:	00000000 	nop
    3e5c:	00000000 	nop
    3e60:	001fb021 	addu	s6,zero,ra
    3e64:	3c0c6d92 	lui	t4,0x6d92
    3e68:	358c7b58 	ori	t4,t4,0x7b58
    3e6c:	3c0d559b 	lui	t5,0x559b
    3e70:	35ad92ee 	ori	t5,t5,0x92ee
    3e74:	24100000 	li	s0,0
    3e78:	3c080000 	lui	t0,0x0
    3e7c:	25083e94 	addiu	t0,t0,16020
    3e80:	3c090000 	lui	t1,0x0
    3e84:	25293ef4 	addiu	t1,t1,16116
    3e88:	10000013 	b	3ed8 <n40_jalr_test+0x3ed8>
    3e8c:	24120000 	li	s2,0
    3e90:	00000000 	nop
    3e94:	3c106d92 	lui	s0,0x6d92
    3e98:	36107b58 	ori	s0,s0,0x7b58
    3e9c:	0120f809 	jalr	t1
    3ea0:	00000000 	nop
    3ea4:	10000015 	b	3efc <n40_jalr_test+0x3efc>
    3ea8:	00000000 	nop
    3eac:	00000000 	nop
    3eb0:	00000021 	move	zero,zero
    3eb4:	00000021 	move	zero,zero
    3eb8:	00000021 	move	zero,zero
    3ebc:	00000021 	move	zero,zero
    3ec0:	00000021 	move	zero,zero
    3ec4:	00000021 	move	zero,zero
    3ec8:	00000021 	move	zero,zero
    3ecc:	00000021 	move	zero,zero
    3ed0:	00000021 	move	zero,zero
    3ed4:	00000021 	move	zero,zero
    3ed8:	0100f809 	jalr	t0
    3edc:	00000000 	nop
    3ee0:	10000006 	b	3efc <n40_jalr_test+0x3efc>
    3ee4:	00000000 	nop
    3ee8:	00000000 	nop
    3eec:	00000021 	move	zero,zero
    3ef0:	00000021 	move	zero,zero
    3ef4:	3c12559b 	lui	s2,0x559b
    3ef8:	365292ee 	ori	s2,s2,0x92ee
    3efc:	001fa021 	addu	s4,zero,ra
    3f00:	0016f821 	addu	ra,zero,s6
    3f04:	3c150000 	lui	s5,0x0
    3f08:	26b53e9c 	addiu	s5,s5,16028
    3f0c:	3c0d6d92 	lui	t5,0x6d92
    3f10:	35ad7b58 	ori	t5,t5,0x7b58
    3f14:	160d1cc7 	bne	s0,t5,b234 <inst_error>
    3f18:	00000000 	nop
    3f1c:	00000000 	nop
    3f20:	3c0c559b 	lui	t4,0x559b
    3f24:	358c92ee 	ori	t4,t4,0x92ee
    3f28:	164c1cc2 	bne	s2,t4,b234 <inst_error>
    3f2c:	00000000 	nop
    3f30:	00000000 	nop
    3f34:	26b50008 	addiu	s5,s5,8
    3f38:	16951cbe 	bne	s4,s5,b234 <inst_error>
    3f3c:	00000000 	nop
    3f40:	00000000 	nop
    3f44:	001fb021 	addu	s6,zero,ra
    3f48:	3c0cb404 	lui	t4,0xb404
    3f4c:	358ce120 	ori	t4,t4,0xe120
    3f50:	3c0d2eff 	lui	t5,0x2eff
    3f54:	35ad91b0 	ori	t5,t5,0x91b0
    3f58:	24100000 	li	s0,0
    3f5c:	3c080000 	lui	t0,0x0
    3f60:	25083f78 	addiu	t0,t0,16248
    3f64:	3c090000 	lui	t1,0x0
    3f68:	25293fd8 	addiu	t1,t1,16344
    3f6c:	10000013 	b	3fbc <n40_jalr_test+0x3fbc>
    3f70:	24120000 	li	s2,0
    3f74:	00000000 	nop
    3f78:	3c10b404 	lui	s0,0xb404
    3f7c:	3610e120 	ori	s0,s0,0xe120
    3f80:	0120f809 	jalr	t1
    3f84:	00000000 	nop
    3f88:	10000015 	b	3fe0 <n40_jalr_test+0x3fe0>
    3f8c:	00000000 	nop
    3f90:	00000000 	nop
    3f94:	00000021 	move	zero,zero
    3f98:	00000021 	move	zero,zero
    3f9c:	00000021 	move	zero,zero
    3fa0:	00000021 	move	zero,zero
    3fa4:	00000021 	move	zero,zero
    3fa8:	00000021 	move	zero,zero
    3fac:	00000021 	move	zero,zero
    3fb0:	00000021 	move	zero,zero
    3fb4:	00000021 	move	zero,zero
    3fb8:	00000021 	move	zero,zero
    3fbc:	0100f809 	jalr	t0
    3fc0:	00000000 	nop
    3fc4:	10000006 	b	3fe0 <n40_jalr_test+0x3fe0>
    3fc8:	00000000 	nop
    3fcc:	00000000 	nop
    3fd0:	00000021 	move	zero,zero
    3fd4:	00000021 	move	zero,zero
    3fd8:	3c122eff 	lui	s2,0x2eff
    3fdc:	365291b0 	ori	s2,s2,0x91b0
    3fe0:	001fa021 	addu	s4,zero,ra
    3fe4:	0016f821 	addu	ra,zero,s6
    3fe8:	3c150000 	lui	s5,0x0
    3fec:	26b53f80 	addiu	s5,s5,16256
    3ff0:	3c0db404 	lui	t5,0xb404
    3ff4:	35ade120 	ori	t5,t5,0xe120
    3ff8:	160d1c8e 	bne	s0,t5,b234 <inst_error>
    3ffc:	00000000 	nop
    4000:	00000000 	nop
    4004:	3c0c2eff 	lui	t4,0x2eff
    4008:	358c91b0 	ori	t4,t4,0x91b0
    400c:	164c1c89 	bne	s2,t4,b234 <inst_error>
    4010:	00000000 	nop
    4014:	00000000 	nop
    4018:	26b50008 	addiu	s5,s5,8
    401c:	16951c85 	bne	s4,s5,b234 <inst_error>
    4020:	00000000 	nop
    4024:	00000000 	nop
    4028:	001fb021 	addu	s6,zero,ra
    402c:	3c0ca873 	lui	t4,0xa873
    4030:	358ce740 	ori	t4,t4,0xe740
    4034:	3c0ddc25 	lui	t5,0xdc25
    4038:	35ad8412 	ori	t5,t5,0x8412
    403c:	24100000 	li	s0,0
    4040:	3c080000 	lui	t0,0x0
    4044:	2508405c 	addiu	t0,t0,16476
    4048:	3c090000 	lui	t1,0x0
    404c:	252940bc 	addiu	t1,t1,16572
    4050:	10000013 	b	40a0 <n40_jalr_test+0x40a0>
    4054:	24120000 	li	s2,0
    4058:	00000000 	nop
    405c:	3c10a873 	lui	s0,0xa873
    4060:	3610e740 	ori	s0,s0,0xe740
    4064:	0120f809 	jalr	t1
    4068:	00000000 	nop
    406c:	10000015 	b	40c4 <n40_jalr_test+0x40c4>
    4070:	00000000 	nop
    4074:	00000000 	nop
    4078:	00000021 	move	zero,zero
    407c:	00000021 	move	zero,zero
    4080:	00000021 	move	zero,zero
    4084:	00000021 	move	zero,zero
    4088:	00000021 	move	zero,zero
    408c:	00000021 	move	zero,zero
    4090:	00000021 	move	zero,zero
    4094:	00000021 	move	zero,zero
    4098:	00000021 	move	zero,zero
    409c:	00000021 	move	zero,zero
    40a0:	0100f809 	jalr	t0
    40a4:	00000000 	nop
    40a8:	10000006 	b	40c4 <n40_jalr_test+0x40c4>
    40ac:	00000000 	nop
    40b0:	00000000 	nop
    40b4:	00000021 	move	zero,zero
    40b8:	00000021 	move	zero,zero
    40bc:	3c12dc25 	lui	s2,0xdc25
    40c0:	36528412 	ori	s2,s2,0x8412
    40c4:	001fa021 	addu	s4,zero,ra
    40c8:	0016f821 	addu	ra,zero,s6
    40cc:	3c150000 	lui	s5,0x0
    40d0:	26b54064 	addiu	s5,s5,16484
    40d4:	3c0da873 	lui	t5,0xa873
    40d8:	35ade740 	ori	t5,t5,0xe740
    40dc:	160d1c55 	bne	s0,t5,b234 <inst_error>
    40e0:	00000000 	nop
    40e4:	00000000 	nop
    40e8:	3c0cdc25 	lui	t4,0xdc25
    40ec:	358c8412 	ori	t4,t4,0x8412
    40f0:	164c1c50 	bne	s2,t4,b234 <inst_error>
    40f4:	00000000 	nop
    40f8:	00000000 	nop
    40fc:	26b50008 	addiu	s5,s5,8
    4100:	16951c4c 	bne	s4,s5,b234 <inst_error>
    4104:	00000000 	nop
    4108:	00000000 	nop
    410c:	001fb021 	addu	s6,zero,ra
    4110:	3c0cdaf8 	lui	t4,0xdaf8
    4114:	358c0430 	ori	t4,t4,0x430
    4118:	3c0d0516 	lui	t5,0x516
    411c:	35ad8b06 	ori	t5,t5,0x8b06
    4120:	24100000 	li	s0,0
    4124:	3c080000 	lui	t0,0x0
    4128:	25084140 	addiu	t0,t0,16704
    412c:	3c090000 	lui	t1,0x0
    4130:	252941a0 	addiu	t1,t1,16800
    4134:	10000013 	b	4184 <n40_jalr_test+0x4184>
    4138:	24120000 	li	s2,0
    413c:	00000000 	nop
    4140:	3c10daf8 	lui	s0,0xdaf8
    4144:	36100430 	ori	s0,s0,0x430
    4148:	0120f809 	jalr	t1
    414c:	00000000 	nop
    4150:	10000015 	b	41a8 <n40_jalr_test+0x41a8>
    4154:	00000000 	nop
    4158:	00000000 	nop
    415c:	00000021 	move	zero,zero
    4160:	00000021 	move	zero,zero
    4164:	00000021 	move	zero,zero
    4168:	00000021 	move	zero,zero
    416c:	00000021 	move	zero,zero
    4170:	00000021 	move	zero,zero
    4174:	00000021 	move	zero,zero
    4178:	00000021 	move	zero,zero
    417c:	00000021 	move	zero,zero
    4180:	00000021 	move	zero,zero
    4184:	0100f809 	jalr	t0
    4188:	00000000 	nop
    418c:	10000006 	b	41a8 <n40_jalr_test+0x41a8>
    4190:	00000000 	nop
    4194:	00000000 	nop
    4198:	00000021 	move	zero,zero
    419c:	00000021 	move	zero,zero
    41a0:	3c120516 	lui	s2,0x516
    41a4:	36528b06 	ori	s2,s2,0x8b06
    41a8:	001fa021 	addu	s4,zero,ra
    41ac:	0016f821 	addu	ra,zero,s6
    41b0:	3c150000 	lui	s5,0x0
    41b4:	26b54148 	addiu	s5,s5,16712
    41b8:	3c0ddaf8 	lui	t5,0xdaf8
    41bc:	35ad0430 	ori	t5,t5,0x430
    41c0:	160d1c1c 	bne	s0,t5,b234 <inst_error>
    41c4:	00000000 	nop
    41c8:	00000000 	nop
    41cc:	3c0c0516 	lui	t4,0x516
    41d0:	358c8b06 	ori	t4,t4,0x8b06
    41d4:	164c1c17 	bne	s2,t4,b234 <inst_error>
    41d8:	00000000 	nop
    41dc:	00000000 	nop
    41e0:	26b50008 	addiu	s5,s5,8
    41e4:	16951c13 	bne	s4,s5,b234 <inst_error>
    41e8:	00000000 	nop
    41ec:	00000000 	nop
    41f0:	001fb021 	addu	s6,zero,ra
    41f4:	3c0c5ada 	lui	t4,0x5ada
    41f8:	358c7e72 	ori	t4,t4,0x7e72
    41fc:	3c0d79c9 	lui	t5,0x79c9
    4200:	35ad7216 	ori	t5,t5,0x7216
    4204:	24100000 	li	s0,0
    4208:	3c080000 	lui	t0,0x0
    420c:	25084224 	addiu	t0,t0,16932
    4210:	3c090000 	lui	t1,0x0
    4214:	25294284 	addiu	t1,t1,17028
    4218:	10000013 	b	4268 <n40_jalr_test+0x4268>
    421c:	24120000 	li	s2,0
    4220:	00000000 	nop
    4224:	3c105ada 	lui	s0,0x5ada
    4228:	36107e72 	ori	s0,s0,0x7e72
    422c:	0120f809 	jalr	t1
    4230:	00000000 	nop
    4234:	10000015 	b	428c <n40_jalr_test+0x428c>
    4238:	00000000 	nop
    423c:	00000000 	nop
    4240:	00000021 	move	zero,zero
    4244:	00000021 	move	zero,zero
    4248:	00000021 	move	zero,zero
    424c:	00000021 	move	zero,zero
    4250:	00000021 	move	zero,zero
    4254:	00000021 	move	zero,zero
    4258:	00000021 	move	zero,zero
    425c:	00000021 	move	zero,zero
    4260:	00000021 	move	zero,zero
    4264:	00000021 	move	zero,zero
    4268:	0100f809 	jalr	t0
    426c:	00000000 	nop
    4270:	10000006 	b	428c <n40_jalr_test+0x428c>
    4274:	00000000 	nop
    4278:	00000000 	nop
    427c:	00000021 	move	zero,zero
    4280:	00000021 	move	zero,zero
    4284:	3c1279c9 	lui	s2,0x79c9
    4288:	36527216 	ori	s2,s2,0x7216
    428c:	001fa021 	addu	s4,zero,ra
    4290:	0016f821 	addu	ra,zero,s6
    4294:	3c150000 	lui	s5,0x0
    4298:	26b5422c 	addiu	s5,s5,16940
    429c:	3c0d5ada 	lui	t5,0x5ada
    42a0:	35ad7e72 	ori	t5,t5,0x7e72
    42a4:	160d1be3 	bne	s0,t5,b234 <inst_error>
    42a8:	00000000 	nop
    42ac:	00000000 	nop
    42b0:	3c0c79c9 	lui	t4,0x79c9
    42b4:	358c7216 	ori	t4,t4,0x7216
    42b8:	164c1bde 	bne	s2,t4,b234 <inst_error>
    42bc:	00000000 	nop
    42c0:	00000000 	nop
    42c4:	26b50008 	addiu	s5,s5,8
    42c8:	16951bda 	bne	s4,s5,b234 <inst_error>
    42cc:	00000000 	nop
    42d0:	00000000 	nop
    42d4:	001fb021 	addu	s6,zero,ra
    42d8:	3c0c72ba 	lui	t4,0x72ba
    42dc:	358ce777 	ori	t4,t4,0xe777
    42e0:	3c0dcbb2 	lui	t5,0xcbb2
    42e4:	35adebda 	ori	t5,t5,0xebda
    42e8:	24100000 	li	s0,0
    42ec:	3c080000 	lui	t0,0x0
    42f0:	25084308 	addiu	t0,t0,17160
    42f4:	3c090000 	lui	t1,0x0
    42f8:	25294368 	addiu	t1,t1,17256
    42fc:	10000013 	b	434c <n40_jalr_test+0x434c>
    4300:	24120000 	li	s2,0
    4304:	00000000 	nop
    4308:	3c1072ba 	lui	s0,0x72ba
    430c:	3610e777 	ori	s0,s0,0xe777
    4310:	0120f809 	jalr	t1
    4314:	00000000 	nop
    4318:	10000015 	b	4370 <n40_jalr_test+0x4370>
    431c:	00000000 	nop
    4320:	00000000 	nop
    4324:	00000021 	move	zero,zero
    4328:	00000021 	move	zero,zero
    432c:	00000021 	move	zero,zero
    4330:	00000021 	move	zero,zero
    4334:	00000021 	move	zero,zero
    4338:	00000021 	move	zero,zero
    433c:	00000021 	move	zero,zero
    4340:	00000021 	move	zero,zero
    4344:	00000021 	move	zero,zero
    4348:	00000021 	move	zero,zero
    434c:	0100f809 	jalr	t0
    4350:	00000000 	nop
    4354:	10000006 	b	4370 <n40_jalr_test+0x4370>
    4358:	00000000 	nop
    435c:	00000000 	nop
    4360:	00000021 	move	zero,zero
    4364:	00000021 	move	zero,zero
    4368:	3c12cbb2 	lui	s2,0xcbb2
    436c:	3652ebda 	ori	s2,s2,0xebda
    4370:	001fa021 	addu	s4,zero,ra
    4374:	0016f821 	addu	ra,zero,s6
    4378:	3c150000 	lui	s5,0x0
    437c:	26b54310 	addiu	s5,s5,17168
    4380:	3c0d72ba 	lui	t5,0x72ba
    4384:	35ade777 	ori	t5,t5,0xe777
    4388:	160d1baa 	bne	s0,t5,b234 <inst_error>
    438c:	00000000 	nop
    4390:	00000000 	nop
    4394:	3c0ccbb2 	lui	t4,0xcbb2
    4398:	358cebda 	ori	t4,t4,0xebda
    439c:	164c1ba5 	bne	s2,t4,b234 <inst_error>
    43a0:	00000000 	nop
    43a4:	00000000 	nop
    43a8:	26b50008 	addiu	s5,s5,8
    43ac:	16951ba1 	bne	s4,s5,b234 <inst_error>
    43b0:	00000000 	nop
    43b4:	00000000 	nop
    43b8:	001fb021 	addu	s6,zero,ra
    43bc:	3c0c9b23 	lui	t4,0x9b23
    43c0:	358cb0f0 	ori	t4,t4,0xb0f0
    43c4:	3c0d1a1b 	lui	t5,0x1a1b
    43c8:	35ad9780 	ori	t5,t5,0x9780
    43cc:	24100000 	li	s0,0
    43d0:	3c080000 	lui	t0,0x0
    43d4:	250843ec 	addiu	t0,t0,17388
    43d8:	3c090000 	lui	t1,0x0
    43dc:	2529444c 	addiu	t1,t1,17484
    43e0:	10000013 	b	4430 <n40_jalr_test+0x4430>
    43e4:	24120000 	li	s2,0
    43e8:	00000000 	nop
    43ec:	3c109b23 	lui	s0,0x9b23
    43f0:	3610b0f0 	ori	s0,s0,0xb0f0
    43f4:	0120f809 	jalr	t1
    43f8:	00000000 	nop
    43fc:	10000015 	b	4454 <n40_jalr_test+0x4454>
    4400:	00000000 	nop
    4404:	00000000 	nop
    4408:	00000021 	move	zero,zero
    440c:	00000021 	move	zero,zero
    4410:	00000021 	move	zero,zero
    4414:	00000021 	move	zero,zero
    4418:	00000021 	move	zero,zero
    441c:	00000021 	move	zero,zero
    4420:	00000021 	move	zero,zero
    4424:	00000021 	move	zero,zero
    4428:	00000021 	move	zero,zero
    442c:	00000021 	move	zero,zero
    4430:	0100f809 	jalr	t0
    4434:	00000000 	nop
    4438:	10000006 	b	4454 <n40_jalr_test+0x4454>
    443c:	00000000 	nop
    4440:	00000000 	nop
    4444:	00000021 	move	zero,zero
    4448:	00000021 	move	zero,zero
    444c:	3c121a1b 	lui	s2,0x1a1b
    4450:	36529780 	ori	s2,s2,0x9780
    4454:	001fa021 	addu	s4,zero,ra
    4458:	0016f821 	addu	ra,zero,s6
    445c:	3c150000 	lui	s5,0x0
    4460:	26b543f4 	addiu	s5,s5,17396
    4464:	3c0d9b23 	lui	t5,0x9b23
    4468:	35adb0f0 	ori	t5,t5,0xb0f0
    446c:	160d1b71 	bne	s0,t5,b234 <inst_error>
    4470:	00000000 	nop
    4474:	00000000 	nop
    4478:	3c0c1a1b 	lui	t4,0x1a1b
    447c:	358c9780 	ori	t4,t4,0x9780
    4480:	164c1b6c 	bne	s2,t4,b234 <inst_error>
    4484:	00000000 	nop
    4488:	00000000 	nop
    448c:	26b50008 	addiu	s5,s5,8
    4490:	16951b68 	bne	s4,s5,b234 <inst_error>
    4494:	00000000 	nop
    4498:	00000000 	nop
    449c:	001fb021 	addu	s6,zero,ra
    44a0:	3c0ca631 	lui	t4,0xa631
    44a4:	358cc6e6 	ori	t4,t4,0xc6e6
    44a8:	3c0dc01e 	lui	t5,0xc01e
    44ac:	35ad5184 	ori	t5,t5,0x5184
    44b0:	24100000 	li	s0,0
    44b4:	3c080000 	lui	t0,0x0
    44b8:	250844d0 	addiu	t0,t0,17616
    44bc:	3c090000 	lui	t1,0x0
    44c0:	25294530 	addiu	t1,t1,17712
    44c4:	10000013 	b	4514 <n40_jalr_test+0x4514>
    44c8:	24120000 	li	s2,0
    44cc:	00000000 	nop
    44d0:	3c10a631 	lui	s0,0xa631
    44d4:	3610c6e6 	ori	s0,s0,0xc6e6
    44d8:	0120f809 	jalr	t1
    44dc:	00000000 	nop
    44e0:	10000015 	b	4538 <n40_jalr_test+0x4538>
    44e4:	00000000 	nop
    44e8:	00000000 	nop
    44ec:	00000021 	move	zero,zero
    44f0:	00000021 	move	zero,zero
    44f4:	00000021 	move	zero,zero
    44f8:	00000021 	move	zero,zero
    44fc:	00000021 	move	zero,zero
    4500:	00000021 	move	zero,zero
    4504:	00000021 	move	zero,zero
    4508:	00000021 	move	zero,zero
    450c:	00000021 	move	zero,zero
    4510:	00000021 	move	zero,zero
    4514:	0100f809 	jalr	t0
    4518:	00000000 	nop
    451c:	10000006 	b	4538 <n40_jalr_test+0x4538>
    4520:	00000000 	nop
    4524:	00000000 	nop
    4528:	00000021 	move	zero,zero
    452c:	00000021 	move	zero,zero
    4530:	3c12c01e 	lui	s2,0xc01e
    4534:	36525184 	ori	s2,s2,0x5184
    4538:	001fa021 	addu	s4,zero,ra
    453c:	0016f821 	addu	ra,zero,s6
    4540:	3c150000 	lui	s5,0x0
    4544:	26b544d8 	addiu	s5,s5,17624
    4548:	3c0da631 	lui	t5,0xa631
    454c:	35adc6e6 	ori	t5,t5,0xc6e6
    4550:	160d1b38 	bne	s0,t5,b234 <inst_error>
    4554:	00000000 	nop
    4558:	00000000 	nop
    455c:	3c0cc01e 	lui	t4,0xc01e
    4560:	358c5184 	ori	t4,t4,0x5184
    4564:	164c1b33 	bne	s2,t4,b234 <inst_error>
    4568:	00000000 	nop
    456c:	00000000 	nop
    4570:	26b50008 	addiu	s5,s5,8
    4574:	16951b2f 	bne	s4,s5,b234 <inst_error>
    4578:	00000000 	nop
    457c:	00000000 	nop
    4580:	001fb021 	addu	s6,zero,ra
    4584:	3c0ccf03 	lui	t4,0xcf03
    4588:	358c50d0 	ori	t4,t4,0x50d0
    458c:	3c0d52e0 	lui	t5,0x52e0
    4590:	35ada720 	ori	t5,t5,0xa720
    4594:	24100000 	li	s0,0
    4598:	3c080000 	lui	t0,0x0
    459c:	250845b4 	addiu	t0,t0,17844
    45a0:	3c090000 	lui	t1,0x0
    45a4:	25294614 	addiu	t1,t1,17940
    45a8:	10000013 	b	45f8 <n40_jalr_test+0x45f8>
    45ac:	24120000 	li	s2,0
    45b0:	00000000 	nop
    45b4:	3c10cf03 	lui	s0,0xcf03
    45b8:	361050d0 	ori	s0,s0,0x50d0
    45bc:	0120f809 	jalr	t1
    45c0:	00000000 	nop
    45c4:	10000015 	b	461c <n40_jalr_test+0x461c>
    45c8:	00000000 	nop
    45cc:	00000000 	nop
    45d0:	00000021 	move	zero,zero
    45d4:	00000021 	move	zero,zero
    45d8:	00000021 	move	zero,zero
    45dc:	00000021 	move	zero,zero
    45e0:	00000021 	move	zero,zero
    45e4:	00000021 	move	zero,zero
    45e8:	00000021 	move	zero,zero
    45ec:	00000021 	move	zero,zero
    45f0:	00000021 	move	zero,zero
    45f4:	00000021 	move	zero,zero
    45f8:	0100f809 	jalr	t0
    45fc:	00000000 	nop
    4600:	10000006 	b	461c <n40_jalr_test+0x461c>
    4604:	00000000 	nop
    4608:	00000000 	nop
    460c:	00000021 	move	zero,zero
    4610:	00000021 	move	zero,zero
    4614:	3c1252e0 	lui	s2,0x52e0
    4618:	3652a720 	ori	s2,s2,0xa720
    461c:	001fa021 	addu	s4,zero,ra
    4620:	0016f821 	addu	ra,zero,s6
    4624:	3c150000 	lui	s5,0x0
    4628:	26b545bc 	addiu	s5,s5,17852
    462c:	3c0dcf03 	lui	t5,0xcf03
    4630:	35ad50d0 	ori	t5,t5,0x50d0
    4634:	160d1aff 	bne	s0,t5,b234 <inst_error>
    4638:	00000000 	nop
    463c:	00000000 	nop
    4640:	3c0c52e0 	lui	t4,0x52e0
    4644:	358ca720 	ori	t4,t4,0xa720
    4648:	164c1afa 	bne	s2,t4,b234 <inst_error>
    464c:	00000000 	nop
    4650:	00000000 	nop
    4654:	26b50008 	addiu	s5,s5,8
    4658:	16951af6 	bne	s4,s5,b234 <inst_error>
    465c:	00000000 	nop
    4660:	00000000 	nop
    4664:	001fb021 	addu	s6,zero,ra
    4668:	3c0c3a50 	lui	t4,0x3a50
    466c:	358c8bf0 	ori	t4,t4,0x8bf0
    4670:	3c0d1dc1 	lui	t5,0x1dc1
    4674:	35adacf7 	ori	t5,t5,0xacf7
    4678:	24100000 	li	s0,0
    467c:	3c080000 	lui	t0,0x0
    4680:	25084698 	addiu	t0,t0,18072
    4684:	3c090000 	lui	t1,0x0
    4688:	252946f8 	addiu	t1,t1,18168
    468c:	10000013 	b	46dc <n40_jalr_test+0x46dc>
    4690:	24120000 	li	s2,0
    4694:	00000000 	nop
    4698:	3c103a50 	lui	s0,0x3a50
    469c:	36108bf0 	ori	s0,s0,0x8bf0
    46a0:	0120f809 	jalr	t1
    46a4:	00000000 	nop
    46a8:	10000015 	b	4700 <n40_jalr_test+0x4700>
    46ac:	00000000 	nop
    46b0:	00000000 	nop
    46b4:	00000021 	move	zero,zero
    46b8:	00000021 	move	zero,zero
    46bc:	00000021 	move	zero,zero
    46c0:	00000021 	move	zero,zero
    46c4:	00000021 	move	zero,zero
    46c8:	00000021 	move	zero,zero
    46cc:	00000021 	move	zero,zero
    46d0:	00000021 	move	zero,zero
    46d4:	00000021 	move	zero,zero
    46d8:	00000021 	move	zero,zero
    46dc:	0100f809 	jalr	t0
    46e0:	00000000 	nop
    46e4:	10000006 	b	4700 <n40_jalr_test+0x4700>
    46e8:	00000000 	nop
    46ec:	00000000 	nop
    46f0:	00000021 	move	zero,zero
    46f4:	00000021 	move	zero,zero
    46f8:	3c121dc1 	lui	s2,0x1dc1
    46fc:	3652acf7 	ori	s2,s2,0xacf7
    4700:	001fa021 	addu	s4,zero,ra
    4704:	0016f821 	addu	ra,zero,s6
    4708:	3c150000 	lui	s5,0x0
    470c:	26b546a0 	addiu	s5,s5,18080
    4710:	3c0d3a50 	lui	t5,0x3a50
    4714:	35ad8bf0 	ori	t5,t5,0x8bf0
    4718:	160d1ac6 	bne	s0,t5,b234 <inst_error>
    471c:	00000000 	nop
    4720:	00000000 	nop
    4724:	3c0c1dc1 	lui	t4,0x1dc1
    4728:	358cacf7 	ori	t4,t4,0xacf7
    472c:	164c1ac1 	bne	s2,t4,b234 <inst_error>
    4730:	00000000 	nop
    4734:	00000000 	nop
    4738:	26b50008 	addiu	s5,s5,8
    473c:	16951abd 	bne	s4,s5,b234 <inst_error>
    4740:	00000000 	nop
    4744:	00000000 	nop
    4748:	001fb021 	addu	s6,zero,ra
    474c:	3c0c5343 	lui	t4,0x5343
    4750:	358cdc05 	ori	t4,t4,0xdc05
    4754:	3c0db235 	lui	t5,0xb235
    4758:	35adce3d 	ori	t5,t5,0xce3d
    475c:	24100000 	li	s0,0
    4760:	3c080000 	lui	t0,0x0
    4764:	2508477c 	addiu	t0,t0,18300
    4768:	3c090000 	lui	t1,0x0
    476c:	252947dc 	addiu	t1,t1,18396
    4770:	10000013 	b	47c0 <n40_jalr_test+0x47c0>
    4774:	24120000 	li	s2,0
    4778:	00000000 	nop
    477c:	3c105343 	lui	s0,0x5343
    4780:	3610dc05 	ori	s0,s0,0xdc05
    4784:	0120f809 	jalr	t1
    4788:	00000000 	nop
    478c:	10000015 	b	47e4 <n40_jalr_test+0x47e4>
    4790:	00000000 	nop
    4794:	00000000 	nop
    4798:	00000021 	move	zero,zero
    479c:	00000021 	move	zero,zero
    47a0:	00000021 	move	zero,zero
    47a4:	00000021 	move	zero,zero
    47a8:	00000021 	move	zero,zero
    47ac:	00000021 	move	zero,zero
    47b0:	00000021 	move	zero,zero
    47b4:	00000021 	move	zero,zero
    47b8:	00000021 	move	zero,zero
    47bc:	00000021 	move	zero,zero
    47c0:	0100f809 	jalr	t0
    47c4:	00000000 	nop
    47c8:	10000006 	b	47e4 <n40_jalr_test+0x47e4>
    47cc:	00000000 	nop
    47d0:	00000000 	nop
    47d4:	00000021 	move	zero,zero
    47d8:	00000021 	move	zero,zero
    47dc:	3c12b235 	lui	s2,0xb235
    47e0:	3652ce3d 	ori	s2,s2,0xce3d
    47e4:	001fa021 	addu	s4,zero,ra
    47e8:	0016f821 	addu	ra,zero,s6
    47ec:	3c150000 	lui	s5,0x0
    47f0:	26b54784 	addiu	s5,s5,18308
    47f4:	3c0d5343 	lui	t5,0x5343
    47f8:	35addc05 	ori	t5,t5,0xdc05
    47fc:	160d1a8d 	bne	s0,t5,b234 <inst_error>
    4800:	00000000 	nop
    4804:	00000000 	nop
    4808:	3c0cb235 	lui	t4,0xb235
    480c:	358cce3d 	ori	t4,t4,0xce3d
    4810:	164c1a88 	bne	s2,t4,b234 <inst_error>
    4814:	00000000 	nop
    4818:	00000000 	nop
    481c:	26b50008 	addiu	s5,s5,8
    4820:	16951a84 	bne	s4,s5,b234 <inst_error>
    4824:	00000000 	nop
    4828:	00000000 	nop
    482c:	001fb021 	addu	s6,zero,ra
    4830:	3c0cbb96 	lui	t4,0xbb96
    4834:	358cb500 	ori	t4,t4,0xb500
    4838:	3c0da62b 	lui	t5,0xa62b
    483c:	35adf360 	ori	t5,t5,0xf360
    4840:	24100000 	li	s0,0
    4844:	3c080000 	lui	t0,0x0
    4848:	25084860 	addiu	t0,t0,18528
    484c:	3c090000 	lui	t1,0x0
    4850:	252948c0 	addiu	t1,t1,18624
    4854:	10000013 	b	48a4 <n40_jalr_test+0x48a4>
    4858:	24120000 	li	s2,0
    485c:	00000000 	nop
    4860:	3c10bb96 	lui	s0,0xbb96
    4864:	3610b500 	ori	s0,s0,0xb500
    4868:	0120f809 	jalr	t1
    486c:	00000000 	nop
    4870:	10000015 	b	48c8 <n40_jalr_test+0x48c8>
    4874:	00000000 	nop
    4878:	00000000 	nop
    487c:	00000021 	move	zero,zero
    4880:	00000021 	move	zero,zero
    4884:	00000021 	move	zero,zero
    4888:	00000021 	move	zero,zero
    488c:	00000021 	move	zero,zero
    4890:	00000021 	move	zero,zero
    4894:	00000021 	move	zero,zero
    4898:	00000021 	move	zero,zero
    489c:	00000021 	move	zero,zero
    48a0:	00000021 	move	zero,zero
    48a4:	0100f809 	jalr	t0
    48a8:	00000000 	nop
    48ac:	10000006 	b	48c8 <n40_jalr_test+0x48c8>
    48b0:	00000000 	nop
    48b4:	00000000 	nop
    48b8:	00000021 	move	zero,zero
    48bc:	00000021 	move	zero,zero
    48c0:	3c12a62b 	lui	s2,0xa62b
    48c4:	3652f360 	ori	s2,s2,0xf360
    48c8:	001fa021 	addu	s4,zero,ra
    48cc:	0016f821 	addu	ra,zero,s6
    48d0:	3c150000 	lui	s5,0x0
    48d4:	26b54868 	addiu	s5,s5,18536
    48d8:	3c0dbb96 	lui	t5,0xbb96
    48dc:	35adb500 	ori	t5,t5,0xb500
    48e0:	160d1a54 	bne	s0,t5,b234 <inst_error>
    48e4:	00000000 	nop
    48e8:	00000000 	nop
    48ec:	3c0ca62b 	lui	t4,0xa62b
    48f0:	358cf360 	ori	t4,t4,0xf360
    48f4:	164c1a4f 	bne	s2,t4,b234 <inst_error>
    48f8:	00000000 	nop
    48fc:	00000000 	nop
    4900:	26b50008 	addiu	s5,s5,8
    4904:	16951a4b 	bne	s4,s5,b234 <inst_error>
    4908:	00000000 	nop
    490c:	00000000 	nop
    4910:	001fb021 	addu	s6,zero,ra
    4914:	3c0c3a4c 	lui	t4,0x3a4c
    4918:	358ceaac 	ori	t4,t4,0xeaac
    491c:	3c0d0236 	lui	t5,0x236
    4920:	35ade7f0 	ori	t5,t5,0xe7f0
    4924:	24100000 	li	s0,0
    4928:	3c080000 	lui	t0,0x0
    492c:	25084944 	addiu	t0,t0,18756
    4930:	3c090000 	lui	t1,0x0
    4934:	252949a4 	addiu	t1,t1,18852
    4938:	10000013 	b	4988 <n40_jalr_test+0x4988>
    493c:	24120000 	li	s2,0
    4940:	00000000 	nop
    4944:	3c103a4c 	lui	s0,0x3a4c
    4948:	3610eaac 	ori	s0,s0,0xeaac
    494c:	0120f809 	jalr	t1
    4950:	00000000 	nop
    4954:	10000015 	b	49ac <n40_jalr_test+0x49ac>
    4958:	00000000 	nop
    495c:	00000000 	nop
    4960:	00000021 	move	zero,zero
    4964:	00000021 	move	zero,zero
    4968:	00000021 	move	zero,zero
    496c:	00000021 	move	zero,zero
    4970:	00000021 	move	zero,zero
    4974:	00000021 	move	zero,zero
    4978:	00000021 	move	zero,zero
    497c:	00000021 	move	zero,zero
    4980:	00000021 	move	zero,zero
    4984:	00000021 	move	zero,zero
    4988:	0100f809 	jalr	t0
    498c:	00000000 	nop
    4990:	10000006 	b	49ac <n40_jalr_test+0x49ac>
    4994:	00000000 	nop
    4998:	00000000 	nop
    499c:	00000021 	move	zero,zero
    49a0:	00000021 	move	zero,zero
    49a4:	3c120236 	lui	s2,0x236
    49a8:	3652e7f0 	ori	s2,s2,0xe7f0
    49ac:	001fa021 	addu	s4,zero,ra
    49b0:	0016f821 	addu	ra,zero,s6
    49b4:	3c150000 	lui	s5,0x0
    49b8:	26b5494c 	addiu	s5,s5,18764
    49bc:	3c0d3a4c 	lui	t5,0x3a4c
    49c0:	35adeaac 	ori	t5,t5,0xeaac
    49c4:	160d1a1b 	bne	s0,t5,b234 <inst_error>
    49c8:	00000000 	nop
    49cc:	00000000 	nop
    49d0:	3c0c0236 	lui	t4,0x236
    49d4:	358ce7f0 	ori	t4,t4,0xe7f0
    49d8:	164c1a16 	bne	s2,t4,b234 <inst_error>
    49dc:	00000000 	nop
    49e0:	00000000 	nop
    49e4:	26b50008 	addiu	s5,s5,8
    49e8:	16951a12 	bne	s4,s5,b234 <inst_error>
    49ec:	00000000 	nop
    49f0:	00000000 	nop
    49f4:	001fb021 	addu	s6,zero,ra
    49f8:	3c0c2a6d 	lui	t4,0x2a6d
    49fc:	358ca2ec 	ori	t4,t4,0xa2ec
    4a00:	3c0d8ca2 	lui	t5,0x8ca2
    4a04:	35ad7828 	ori	t5,t5,0x7828
    4a08:	24100000 	li	s0,0
    4a0c:	3c080000 	lui	t0,0x0
    4a10:	25084a28 	addiu	t0,t0,18984
    4a14:	3c090000 	lui	t1,0x0
    4a18:	25294a88 	addiu	t1,t1,19080
    4a1c:	10000013 	b	4a6c <n40_jalr_test+0x4a6c>
    4a20:	24120000 	li	s2,0
    4a24:	00000000 	nop
    4a28:	3c102a6d 	lui	s0,0x2a6d
    4a2c:	3610a2ec 	ori	s0,s0,0xa2ec
    4a30:	0120f809 	jalr	t1
    4a34:	00000000 	nop
    4a38:	10000015 	b	4a90 <n40_jalr_test+0x4a90>
    4a3c:	00000000 	nop
    4a40:	00000000 	nop
    4a44:	00000021 	move	zero,zero
    4a48:	00000021 	move	zero,zero
    4a4c:	00000021 	move	zero,zero
    4a50:	00000021 	move	zero,zero
    4a54:	00000021 	move	zero,zero
    4a58:	00000021 	move	zero,zero
    4a5c:	00000021 	move	zero,zero
    4a60:	00000021 	move	zero,zero
    4a64:	00000021 	move	zero,zero
    4a68:	00000021 	move	zero,zero
    4a6c:	0100f809 	jalr	t0
    4a70:	00000000 	nop
    4a74:	10000006 	b	4a90 <n40_jalr_test+0x4a90>
    4a78:	00000000 	nop
    4a7c:	00000000 	nop
    4a80:	00000021 	move	zero,zero
    4a84:	00000021 	move	zero,zero
    4a88:	3c128ca2 	lui	s2,0x8ca2
    4a8c:	36527828 	ori	s2,s2,0x7828
    4a90:	001fa021 	addu	s4,zero,ra
    4a94:	0016f821 	addu	ra,zero,s6
    4a98:	3c150000 	lui	s5,0x0
    4a9c:	26b54a30 	addiu	s5,s5,18992
    4aa0:	3c0d2a6d 	lui	t5,0x2a6d
    4aa4:	35ada2ec 	ori	t5,t5,0xa2ec
    4aa8:	160d19e2 	bne	s0,t5,b234 <inst_error>
    4aac:	00000000 	nop
    4ab0:	00000000 	nop
    4ab4:	3c0c8ca2 	lui	t4,0x8ca2
    4ab8:	358c7828 	ori	t4,t4,0x7828
    4abc:	164c19dd 	bne	s2,t4,b234 <inst_error>
    4ac0:	00000000 	nop
    4ac4:	00000000 	nop
    4ac8:	26b50008 	addiu	s5,s5,8
    4acc:	169519d9 	bne	s4,s5,b234 <inst_error>
    4ad0:	00000000 	nop
    4ad4:	00000000 	nop
    4ad8:	001fb021 	addu	s6,zero,ra
    4adc:	3c0cdd11 	lui	t4,0xdd11
    4ae0:	358cc93c 	ori	t4,t4,0xc93c
    4ae4:	3c0d008c 	lui	t5,0x8c
    4ae8:	35ad5880 	ori	t5,t5,0x5880
    4aec:	24100000 	li	s0,0
    4af0:	3c080000 	lui	t0,0x0
    4af4:	25084b0c 	addiu	t0,t0,19212
    4af8:	3c090000 	lui	t1,0x0
    4afc:	25294b6c 	addiu	t1,t1,19308
    4b00:	10000013 	b	4b50 <n40_jalr_test+0x4b50>
    4b04:	24120000 	li	s2,0
    4b08:	00000000 	nop
    4b0c:	3c10dd11 	lui	s0,0xdd11
    4b10:	3610c93c 	ori	s0,s0,0xc93c
    4b14:	0120f809 	jalr	t1
    4b18:	00000000 	nop
    4b1c:	10000015 	b	4b74 <n40_jalr_test+0x4b74>
    4b20:	00000000 	nop
    4b24:	00000000 	nop
    4b28:	00000021 	move	zero,zero
    4b2c:	00000021 	move	zero,zero
    4b30:	00000021 	move	zero,zero
    4b34:	00000021 	move	zero,zero
    4b38:	00000021 	move	zero,zero
    4b3c:	00000021 	move	zero,zero
    4b40:	00000021 	move	zero,zero
    4b44:	00000021 	move	zero,zero
    4b48:	00000021 	move	zero,zero
    4b4c:	00000021 	move	zero,zero
    4b50:	0100f809 	jalr	t0
    4b54:	00000000 	nop
    4b58:	10000006 	b	4b74 <n40_jalr_test+0x4b74>
    4b5c:	00000000 	nop
    4b60:	00000000 	nop
    4b64:	00000021 	move	zero,zero
    4b68:	00000021 	move	zero,zero
    4b6c:	3c12008c 	lui	s2,0x8c
    4b70:	36525880 	ori	s2,s2,0x5880
    4b74:	001fa021 	addu	s4,zero,ra
    4b78:	0016f821 	addu	ra,zero,s6
    4b7c:	3c150000 	lui	s5,0x0
    4b80:	26b54b14 	addiu	s5,s5,19220
    4b84:	3c0ddd11 	lui	t5,0xdd11
    4b88:	35adc93c 	ori	t5,t5,0xc93c
    4b8c:	160d19a9 	bne	s0,t5,b234 <inst_error>
    4b90:	00000000 	nop
    4b94:	00000000 	nop
    4b98:	3c0c008c 	lui	t4,0x8c
    4b9c:	358c5880 	ori	t4,t4,0x5880
    4ba0:	164c19a4 	bne	s2,t4,b234 <inst_error>
    4ba4:	00000000 	nop
    4ba8:	00000000 	nop
    4bac:	26b50008 	addiu	s5,s5,8
    4bb0:	169519a0 	bne	s4,s5,b234 <inst_error>
    4bb4:	00000000 	nop
    4bb8:	00000000 	nop
    4bbc:	001fb021 	addu	s6,zero,ra
    4bc0:	3c0c514f 	lui	t4,0x514f
    4bc4:	358c1f08 	ori	t4,t4,0x1f08
    4bc8:	3c0d912f 	lui	t5,0x912f
    4bcc:	35ada124 	ori	t5,t5,0xa124
    4bd0:	24100000 	li	s0,0
    4bd4:	3c080000 	lui	t0,0x0
    4bd8:	25084bf0 	addiu	t0,t0,19440
    4bdc:	3c090000 	lui	t1,0x0
    4be0:	25294c50 	addiu	t1,t1,19536
    4be4:	10000013 	b	4c34 <n40_jalr_test+0x4c34>
    4be8:	24120000 	li	s2,0
    4bec:	00000000 	nop
    4bf0:	3c10514f 	lui	s0,0x514f
    4bf4:	36101f08 	ori	s0,s0,0x1f08
    4bf8:	0120f809 	jalr	t1
    4bfc:	00000000 	nop
    4c00:	10000015 	b	4c58 <n40_jalr_test+0x4c58>
    4c04:	00000000 	nop
    4c08:	00000000 	nop
    4c0c:	00000021 	move	zero,zero
    4c10:	00000021 	move	zero,zero
    4c14:	00000021 	move	zero,zero
    4c18:	00000021 	move	zero,zero
    4c1c:	00000021 	move	zero,zero
    4c20:	00000021 	move	zero,zero
    4c24:	00000021 	move	zero,zero
    4c28:	00000021 	move	zero,zero
    4c2c:	00000021 	move	zero,zero
    4c30:	00000021 	move	zero,zero
    4c34:	0100f809 	jalr	t0
    4c38:	00000000 	nop
    4c3c:	10000006 	b	4c58 <n40_jalr_test+0x4c58>
    4c40:	00000000 	nop
    4c44:	00000000 	nop
    4c48:	00000021 	move	zero,zero
    4c4c:	00000021 	move	zero,zero
    4c50:	3c12912f 	lui	s2,0x912f
    4c54:	3652a124 	ori	s2,s2,0xa124
    4c58:	001fa021 	addu	s4,zero,ra
    4c5c:	0016f821 	addu	ra,zero,s6
    4c60:	3c150000 	lui	s5,0x0
    4c64:	26b54bf8 	addiu	s5,s5,19448
    4c68:	3c0d514f 	lui	t5,0x514f
    4c6c:	35ad1f08 	ori	t5,t5,0x1f08
    4c70:	160d1970 	bne	s0,t5,b234 <inst_error>
    4c74:	00000000 	nop
    4c78:	00000000 	nop
    4c7c:	3c0c912f 	lui	t4,0x912f
    4c80:	358ca124 	ori	t4,t4,0xa124
    4c84:	164c196b 	bne	s2,t4,b234 <inst_error>
    4c88:	00000000 	nop
    4c8c:	00000000 	nop
    4c90:	26b50008 	addiu	s5,s5,8
    4c94:	16951967 	bne	s4,s5,b234 <inst_error>
    4c98:	00000000 	nop
    4c9c:	00000000 	nop
    4ca0:	001fb021 	addu	s6,zero,ra
    4ca4:	3c0cd137 	lui	t4,0xd137
    4ca8:	358cf020 	ori	t4,t4,0xf020
    4cac:	3c0d5028 	lui	t5,0x5028
    4cb0:	35ada644 	ori	t5,t5,0xa644
    4cb4:	24100000 	li	s0,0
    4cb8:	3c080000 	lui	t0,0x0
    4cbc:	25084cd4 	addiu	t0,t0,19668
    4cc0:	3c090000 	lui	t1,0x0
    4cc4:	25294d34 	addiu	t1,t1,19764
    4cc8:	10000013 	b	4d18 <n40_jalr_test+0x4d18>
    4ccc:	24120000 	li	s2,0
    4cd0:	00000000 	nop
    4cd4:	3c10d137 	lui	s0,0xd137
    4cd8:	3610f020 	ori	s0,s0,0xf020
    4cdc:	0120f809 	jalr	t1
    4ce0:	00000000 	nop
    4ce4:	10000015 	b	4d3c <n40_jalr_test+0x4d3c>
    4ce8:	00000000 	nop
    4cec:	00000000 	nop
    4cf0:	00000021 	move	zero,zero
    4cf4:	00000021 	move	zero,zero
    4cf8:	00000021 	move	zero,zero
    4cfc:	00000021 	move	zero,zero
    4d00:	00000021 	move	zero,zero
    4d04:	00000021 	move	zero,zero
    4d08:	00000021 	move	zero,zero
    4d0c:	00000021 	move	zero,zero
    4d10:	00000021 	move	zero,zero
    4d14:	00000021 	move	zero,zero
    4d18:	0100f809 	jalr	t0
    4d1c:	00000000 	nop
    4d20:	10000006 	b	4d3c <n40_jalr_test+0x4d3c>
    4d24:	00000000 	nop
    4d28:	00000000 	nop
    4d2c:	00000021 	move	zero,zero
    4d30:	00000021 	move	zero,zero
    4d34:	3c125028 	lui	s2,0x5028
    4d38:	3652a644 	ori	s2,s2,0xa644
    4d3c:	001fa021 	addu	s4,zero,ra
    4d40:	0016f821 	addu	ra,zero,s6
    4d44:	3c150000 	lui	s5,0x0
    4d48:	26b54cdc 	addiu	s5,s5,19676
    4d4c:	3c0dd137 	lui	t5,0xd137
    4d50:	35adf020 	ori	t5,t5,0xf020
    4d54:	160d1937 	bne	s0,t5,b234 <inst_error>
    4d58:	00000000 	nop
    4d5c:	00000000 	nop
    4d60:	3c0c5028 	lui	t4,0x5028
    4d64:	358ca644 	ori	t4,t4,0xa644
    4d68:	164c1932 	bne	s2,t4,b234 <inst_error>
    4d6c:	00000000 	nop
    4d70:	00000000 	nop
    4d74:	26b50008 	addiu	s5,s5,8
    4d78:	1695192e 	bne	s4,s5,b234 <inst_error>
    4d7c:	00000000 	nop
    4d80:	00000000 	nop
    4d84:	001fb021 	addu	s6,zero,ra
    4d88:	3c0cd227 	lui	t4,0xd227
    4d8c:	358c4400 	ori	t4,t4,0x4400
    4d90:	3c0dbab4 	lui	t5,0xbab4
    4d94:	35adfdb0 	ori	t5,t5,0xfdb0
    4d98:	24100000 	li	s0,0
    4d9c:	3c080000 	lui	t0,0x0
    4da0:	25084db8 	addiu	t0,t0,19896
    4da4:	3c090000 	lui	t1,0x0
    4da8:	25294e18 	addiu	t1,t1,19992
    4dac:	10000013 	b	4dfc <n40_jalr_test+0x4dfc>
    4db0:	24120000 	li	s2,0
    4db4:	00000000 	nop
    4db8:	3c10d227 	lui	s0,0xd227
    4dbc:	36104400 	ori	s0,s0,0x4400
    4dc0:	0120f809 	jalr	t1
    4dc4:	00000000 	nop
    4dc8:	10000015 	b	4e20 <n40_jalr_test+0x4e20>
    4dcc:	00000000 	nop
    4dd0:	00000000 	nop
    4dd4:	00000021 	move	zero,zero
    4dd8:	00000021 	move	zero,zero
    4ddc:	00000021 	move	zero,zero
    4de0:	00000021 	move	zero,zero
    4de4:	00000021 	move	zero,zero
    4de8:	00000021 	move	zero,zero
    4dec:	00000021 	move	zero,zero
    4df0:	00000021 	move	zero,zero
    4df4:	00000021 	move	zero,zero
    4df8:	00000021 	move	zero,zero
    4dfc:	0100f809 	jalr	t0
    4e00:	00000000 	nop
    4e04:	10000006 	b	4e20 <n40_jalr_test+0x4e20>
    4e08:	00000000 	nop
    4e0c:	00000000 	nop
    4e10:	00000021 	move	zero,zero
    4e14:	00000021 	move	zero,zero
    4e18:	3c12bab4 	lui	s2,0xbab4
    4e1c:	3652fdb0 	ori	s2,s2,0xfdb0
    4e20:	001fa021 	addu	s4,zero,ra
    4e24:	0016f821 	addu	ra,zero,s6
    4e28:	3c150000 	lui	s5,0x0
    4e2c:	26b54dc0 	addiu	s5,s5,19904
    4e30:	3c0dd227 	lui	t5,0xd227
    4e34:	35ad4400 	ori	t5,t5,0x4400
    4e38:	160d18fe 	bne	s0,t5,b234 <inst_error>
    4e3c:	00000000 	nop
    4e40:	00000000 	nop
    4e44:	3c0cbab4 	lui	t4,0xbab4
    4e48:	358cfdb0 	ori	t4,t4,0xfdb0
    4e4c:	164c18f9 	bne	s2,t4,b234 <inst_error>
    4e50:	00000000 	nop
    4e54:	00000000 	nop
    4e58:	26b50008 	addiu	s5,s5,8
    4e5c:	169518f5 	bne	s4,s5,b234 <inst_error>
    4e60:	00000000 	nop
    4e64:	00000000 	nop
    4e68:	001fb021 	addu	s6,zero,ra
    4e6c:	3c0c1c78 	lui	t4,0x1c78
    4e70:	358cea70 	ori	t4,t4,0xea70
    4e74:	3c0dff1c 	lui	t5,0xff1c
    4e78:	35ad183c 	ori	t5,t5,0x183c
    4e7c:	24100000 	li	s0,0
    4e80:	3c080000 	lui	t0,0x0
    4e84:	25084e9c 	addiu	t0,t0,20124
    4e88:	3c090000 	lui	t1,0x0
    4e8c:	25294efc 	addiu	t1,t1,20220
    4e90:	10000013 	b	4ee0 <n40_jalr_test+0x4ee0>
    4e94:	24120000 	li	s2,0
    4e98:	00000000 	nop
    4e9c:	3c101c78 	lui	s0,0x1c78
    4ea0:	3610ea70 	ori	s0,s0,0xea70
    4ea4:	0120f809 	jalr	t1
    4ea8:	00000000 	nop
    4eac:	10000015 	b	4f04 <n40_jalr_test+0x4f04>
    4eb0:	00000000 	nop
    4eb4:	00000000 	nop
    4eb8:	00000021 	move	zero,zero
    4ebc:	00000021 	move	zero,zero
    4ec0:	00000021 	move	zero,zero
    4ec4:	00000021 	move	zero,zero
    4ec8:	00000021 	move	zero,zero
    4ecc:	00000021 	move	zero,zero
    4ed0:	00000021 	move	zero,zero
    4ed4:	00000021 	move	zero,zero
    4ed8:	00000021 	move	zero,zero
    4edc:	00000021 	move	zero,zero
    4ee0:	0100f809 	jalr	t0
    4ee4:	00000000 	nop
    4ee8:	10000006 	b	4f04 <n40_jalr_test+0x4f04>
    4eec:	00000000 	nop
    4ef0:	00000000 	nop
    4ef4:	00000021 	move	zero,zero
    4ef8:	00000021 	move	zero,zero
    4efc:	3c12ff1c 	lui	s2,0xff1c
    4f00:	3652183c 	ori	s2,s2,0x183c
    4f04:	001fa021 	addu	s4,zero,ra
    4f08:	0016f821 	addu	ra,zero,s6
    4f0c:	3c150000 	lui	s5,0x0
    4f10:	26b54ea4 	addiu	s5,s5,20132
    4f14:	3c0d1c78 	lui	t5,0x1c78
    4f18:	35adea70 	ori	t5,t5,0xea70
    4f1c:	160d18c5 	bne	s0,t5,b234 <inst_error>
    4f20:	00000000 	nop
    4f24:	00000000 	nop
    4f28:	3c0cff1c 	lui	t4,0xff1c
    4f2c:	358c183c 	ori	t4,t4,0x183c
    4f30:	164c18c0 	bne	s2,t4,b234 <inst_error>
    4f34:	00000000 	nop
    4f38:	00000000 	nop
    4f3c:	26b50008 	addiu	s5,s5,8
    4f40:	169518bc 	bne	s4,s5,b234 <inst_error>
    4f44:	00000000 	nop
    4f48:	00000000 	nop
    4f4c:	001fb021 	addu	s6,zero,ra
    4f50:	3c0c49a7 	lui	t4,0x49a7
    4f54:	358cb38c 	ori	t4,t4,0xb38c
    4f58:	3c0d2dd5 	lui	t5,0x2dd5
    4f5c:	35ad2c00 	ori	t5,t5,0x2c00
    4f60:	24100000 	li	s0,0
    4f64:	3c080000 	lui	t0,0x0
    4f68:	25084f80 	addiu	t0,t0,20352
    4f6c:	3c090000 	lui	t1,0x0
    4f70:	25294fe0 	addiu	t1,t1,20448
    4f74:	10000013 	b	4fc4 <n40_jalr_test+0x4fc4>
    4f78:	24120000 	li	s2,0
    4f7c:	00000000 	nop
    4f80:	3c1049a7 	lui	s0,0x49a7
    4f84:	3610b38c 	ori	s0,s0,0xb38c
    4f88:	0120f809 	jalr	t1
    4f8c:	00000000 	nop
    4f90:	10000015 	b	4fe8 <n40_jalr_test+0x4fe8>
    4f94:	00000000 	nop
    4f98:	00000000 	nop
    4f9c:	00000021 	move	zero,zero
    4fa0:	00000021 	move	zero,zero
    4fa4:	00000021 	move	zero,zero
    4fa8:	00000021 	move	zero,zero
    4fac:	00000021 	move	zero,zero
    4fb0:	00000021 	move	zero,zero
    4fb4:	00000021 	move	zero,zero
    4fb8:	00000021 	move	zero,zero
    4fbc:	00000021 	move	zero,zero
    4fc0:	00000021 	move	zero,zero
    4fc4:	0100f809 	jalr	t0
    4fc8:	00000000 	nop
    4fcc:	10000006 	b	4fe8 <n40_jalr_test+0x4fe8>
    4fd0:	00000000 	nop
    4fd4:	00000000 	nop
    4fd8:	00000021 	move	zero,zero
    4fdc:	00000021 	move	zero,zero
    4fe0:	3c122dd5 	lui	s2,0x2dd5
    4fe4:	36522c00 	ori	s2,s2,0x2c00
    4fe8:	001fa021 	addu	s4,zero,ra
    4fec:	0016f821 	addu	ra,zero,s6
    4ff0:	3c150000 	lui	s5,0x0
    4ff4:	26b54f88 	addiu	s5,s5,20360
    4ff8:	3c0d49a7 	lui	t5,0x49a7
    4ffc:	35adb38c 	ori	t5,t5,0xb38c
    5000:	160d188c 	bne	s0,t5,b234 <inst_error>
    5004:	00000000 	nop
    5008:	00000000 	nop
    500c:	3c0c2dd5 	lui	t4,0x2dd5
    5010:	358c2c00 	ori	t4,t4,0x2c00
    5014:	164c1887 	bne	s2,t4,b234 <inst_error>
    5018:	00000000 	nop
    501c:	00000000 	nop
    5020:	26b50008 	addiu	s5,s5,8
    5024:	16951883 	bne	s4,s5,b234 <inst_error>
    5028:	00000000 	nop
    502c:	00000000 	nop
    5030:	001fb021 	addu	s6,zero,ra
    5034:	3c0ceec8 	lui	t4,0xeec8
    5038:	358c0e06 	ori	t4,t4,0xe06
    503c:	3c0d4c46 	lui	t5,0x4c46
    5040:	35addc50 	ori	t5,t5,0xdc50
    5044:	24100000 	li	s0,0
    5048:	3c080000 	lui	t0,0x0
    504c:	25085064 	addiu	t0,t0,20580
    5050:	3c090000 	lui	t1,0x0
    5054:	252950c4 	addiu	t1,t1,20676
    5058:	10000013 	b	50a8 <n40_jalr_test+0x50a8>
    505c:	24120000 	li	s2,0
    5060:	00000000 	nop
    5064:	3c10eec8 	lui	s0,0xeec8
    5068:	36100e06 	ori	s0,s0,0xe06
    506c:	0120f809 	jalr	t1
    5070:	00000000 	nop
    5074:	10000015 	b	50cc <n40_jalr_test+0x50cc>
    5078:	00000000 	nop
    507c:	00000000 	nop
    5080:	00000021 	move	zero,zero
    5084:	00000021 	move	zero,zero
    5088:	00000021 	move	zero,zero
    508c:	00000021 	move	zero,zero
    5090:	00000021 	move	zero,zero
    5094:	00000021 	move	zero,zero
    5098:	00000021 	move	zero,zero
    509c:	00000021 	move	zero,zero
    50a0:	00000021 	move	zero,zero
    50a4:	00000021 	move	zero,zero
    50a8:	0100f809 	jalr	t0
    50ac:	00000000 	nop
    50b0:	10000006 	b	50cc <n40_jalr_test+0x50cc>
    50b4:	00000000 	nop
    50b8:	00000000 	nop
    50bc:	00000021 	move	zero,zero
    50c0:	00000021 	move	zero,zero
    50c4:	3c124c46 	lui	s2,0x4c46
    50c8:	3652dc50 	ori	s2,s2,0xdc50
    50cc:	001fa021 	addu	s4,zero,ra
    50d0:	0016f821 	addu	ra,zero,s6
    50d4:	3c150000 	lui	s5,0x0
    50d8:	26b5506c 	addiu	s5,s5,20588
    50dc:	3c0deec8 	lui	t5,0xeec8
    50e0:	35ad0e06 	ori	t5,t5,0xe06
    50e4:	160d1853 	bne	s0,t5,b234 <inst_error>
    50e8:	00000000 	nop
    50ec:	00000000 	nop
    50f0:	3c0c4c46 	lui	t4,0x4c46
    50f4:	358cdc50 	ori	t4,t4,0xdc50
    50f8:	164c184e 	bne	s2,t4,b234 <inst_error>
    50fc:	00000000 	nop
    5100:	00000000 	nop
    5104:	26b50008 	addiu	s5,s5,8
    5108:	1695184a 	bne	s4,s5,b234 <inst_error>
    510c:	00000000 	nop
    5110:	00000000 	nop
    5114:	001fb021 	addu	s6,zero,ra
    5118:	3c0c99f5 	lui	t4,0x99f5
    511c:	358c15c6 	ori	t4,t4,0x15c6
    5120:	3c0d0ac4 	lui	t5,0xac4
    5124:	35adda04 	ori	t5,t5,0xda04
    5128:	24100000 	li	s0,0
    512c:	3c080000 	lui	t0,0x0
    5130:	25085148 	addiu	t0,t0,20808
    5134:	3c090000 	lui	t1,0x0
    5138:	252951a8 	addiu	t1,t1,20904
    513c:	10000013 	b	518c <n40_jalr_test+0x518c>
    5140:	24120000 	li	s2,0
    5144:	00000000 	nop
    5148:	3c1099f5 	lui	s0,0x99f5
    514c:	361015c6 	ori	s0,s0,0x15c6
    5150:	0120f809 	jalr	t1
    5154:	00000000 	nop
    5158:	10000015 	b	51b0 <n40_jalr_test+0x51b0>
    515c:	00000000 	nop
    5160:	00000000 	nop
    5164:	00000021 	move	zero,zero
    5168:	00000021 	move	zero,zero
    516c:	00000021 	move	zero,zero
    5170:	00000021 	move	zero,zero
    5174:	00000021 	move	zero,zero
    5178:	00000021 	move	zero,zero
    517c:	00000021 	move	zero,zero
    5180:	00000021 	move	zero,zero
    5184:	00000021 	move	zero,zero
    5188:	00000021 	move	zero,zero
    518c:	0100f809 	jalr	t0
    5190:	00000000 	nop
    5194:	10000006 	b	51b0 <n40_jalr_test+0x51b0>
    5198:	00000000 	nop
    519c:	00000000 	nop
    51a0:	00000021 	move	zero,zero
    51a4:	00000021 	move	zero,zero
    51a8:	3c120ac4 	lui	s2,0xac4
    51ac:	3652da04 	ori	s2,s2,0xda04
    51b0:	001fa021 	addu	s4,zero,ra
    51b4:	0016f821 	addu	ra,zero,s6
    51b8:	3c150000 	lui	s5,0x0
    51bc:	26b55150 	addiu	s5,s5,20816
    51c0:	3c0d99f5 	lui	t5,0x99f5
    51c4:	35ad15c6 	ori	t5,t5,0x15c6
    51c8:	160d181a 	bne	s0,t5,b234 <inst_error>
    51cc:	00000000 	nop
    51d0:	00000000 	nop
    51d4:	3c0c0ac4 	lui	t4,0xac4
    51d8:	358cda04 	ori	t4,t4,0xda04
    51dc:	164c1815 	bne	s2,t4,b234 <inst_error>
    51e0:	00000000 	nop
    51e4:	00000000 	nop
    51e8:	26b50008 	addiu	s5,s5,8
    51ec:	16951811 	bne	s4,s5,b234 <inst_error>
    51f0:	00000000 	nop
    51f4:	00000000 	nop
    51f8:	001fb021 	addu	s6,zero,ra
    51fc:	3c0caf18 	lui	t4,0xaf18
    5200:	358ca348 	ori	t4,t4,0xa348
    5204:	3c0de934 	lui	t5,0xe934
    5208:	35ad2d00 	ori	t5,t5,0x2d00
    520c:	24100000 	li	s0,0
    5210:	3c080000 	lui	t0,0x0
    5214:	2508522c 	addiu	t0,t0,21036
    5218:	3c090000 	lui	t1,0x0
    521c:	2529528c 	addiu	t1,t1,21132
    5220:	10000013 	b	5270 <n40_jalr_test+0x5270>
    5224:	24120000 	li	s2,0
    5228:	00000000 	nop
    522c:	3c10af18 	lui	s0,0xaf18
    5230:	3610a348 	ori	s0,s0,0xa348
    5234:	0120f809 	jalr	t1
    5238:	00000000 	nop
    523c:	10000015 	b	5294 <n40_jalr_test+0x5294>
    5240:	00000000 	nop
    5244:	00000000 	nop
    5248:	00000021 	move	zero,zero
    524c:	00000021 	move	zero,zero
    5250:	00000021 	move	zero,zero
    5254:	00000021 	move	zero,zero
    5258:	00000021 	move	zero,zero
    525c:	00000021 	move	zero,zero
    5260:	00000021 	move	zero,zero
    5264:	00000021 	move	zero,zero
    5268:	00000021 	move	zero,zero
    526c:	00000021 	move	zero,zero
    5270:	0100f809 	jalr	t0
    5274:	00000000 	nop
    5278:	10000006 	b	5294 <n40_jalr_test+0x5294>
    527c:	00000000 	nop
    5280:	00000000 	nop
    5284:	00000021 	move	zero,zero
    5288:	00000021 	move	zero,zero
    528c:	3c12e934 	lui	s2,0xe934
    5290:	36522d00 	ori	s2,s2,0x2d00
    5294:	001fa021 	addu	s4,zero,ra
    5298:	0016f821 	addu	ra,zero,s6
    529c:	3c150000 	lui	s5,0x0
    52a0:	26b55234 	addiu	s5,s5,21044
    52a4:	3c0daf18 	lui	t5,0xaf18
    52a8:	35ada348 	ori	t5,t5,0xa348
    52ac:	160d17e1 	bne	s0,t5,b234 <inst_error>
    52b0:	00000000 	nop
    52b4:	00000000 	nop
    52b8:	3c0ce934 	lui	t4,0xe934
    52bc:	358c2d00 	ori	t4,t4,0x2d00
    52c0:	164c17dc 	bne	s2,t4,b234 <inst_error>
    52c4:	00000000 	nop
    52c8:	00000000 	nop
    52cc:	26b50008 	addiu	s5,s5,8
    52d0:	169517d8 	bne	s4,s5,b234 <inst_error>
    52d4:	00000000 	nop
    52d8:	00000000 	nop
    52dc:	001fb021 	addu	s6,zero,ra
    52e0:	3c0c9f2f 	lui	t4,0x9f2f
    52e4:	358cf980 	ori	t4,t4,0xf980
    52e8:	3c0dce65 	lui	t5,0xce65
    52ec:	35ada118 	ori	t5,t5,0xa118
    52f0:	24100000 	li	s0,0
    52f4:	3c080000 	lui	t0,0x0
    52f8:	25085310 	addiu	t0,t0,21264
    52fc:	3c090000 	lui	t1,0x0
    5300:	25295370 	addiu	t1,t1,21360
    5304:	10000013 	b	5354 <n40_jalr_test+0x5354>
    5308:	24120000 	li	s2,0
    530c:	00000000 	nop
    5310:	3c109f2f 	lui	s0,0x9f2f
    5314:	3610f980 	ori	s0,s0,0xf980
    5318:	0120f809 	jalr	t1
    531c:	00000000 	nop
    5320:	10000015 	b	5378 <n40_jalr_test+0x5378>
    5324:	00000000 	nop
    5328:	00000000 	nop
    532c:	00000021 	move	zero,zero
    5330:	00000021 	move	zero,zero
    5334:	00000021 	move	zero,zero
    5338:	00000021 	move	zero,zero
    533c:	00000021 	move	zero,zero
    5340:	00000021 	move	zero,zero
    5344:	00000021 	move	zero,zero
    5348:	00000021 	move	zero,zero
    534c:	00000021 	move	zero,zero
    5350:	00000021 	move	zero,zero
    5354:	0100f809 	jalr	t0
    5358:	00000000 	nop
    535c:	10000006 	b	5378 <n40_jalr_test+0x5378>
    5360:	00000000 	nop
    5364:	00000000 	nop
    5368:	00000021 	move	zero,zero
    536c:	00000021 	move	zero,zero
    5370:	3c12ce65 	lui	s2,0xce65
    5374:	3652a118 	ori	s2,s2,0xa118
    5378:	001fa021 	addu	s4,zero,ra
    537c:	0016f821 	addu	ra,zero,s6
    5380:	3c150000 	lui	s5,0x0
    5384:	26b55318 	addiu	s5,s5,21272
    5388:	3c0d9f2f 	lui	t5,0x9f2f
    538c:	35adf980 	ori	t5,t5,0xf980
    5390:	160d17a8 	bne	s0,t5,b234 <inst_error>
    5394:	00000000 	nop
    5398:	00000000 	nop
    539c:	3c0cce65 	lui	t4,0xce65
    53a0:	358ca118 	ori	t4,t4,0xa118
    53a4:	164c17a3 	bne	s2,t4,b234 <inst_error>
    53a8:	00000000 	nop
    53ac:	00000000 	nop
    53b0:	26b50008 	addiu	s5,s5,8
    53b4:	1695179f 	bne	s4,s5,b234 <inst_error>
    53b8:	00000000 	nop
    53bc:	00000000 	nop
    53c0:	001fb021 	addu	s6,zero,ra
    53c4:	3c0c3cbf 	lui	t4,0x3cbf
    53c8:	358c7f40 	ori	t4,t4,0x7f40
    53cc:	3c0dcb5d 	lui	t5,0xcb5d
    53d0:	35ad4589 	ori	t5,t5,0x4589
    53d4:	24100000 	li	s0,0
    53d8:	3c080000 	lui	t0,0x0
    53dc:	250853f4 	addiu	t0,t0,21492
    53e0:	3c090000 	lui	t1,0x0
    53e4:	25295454 	addiu	t1,t1,21588
    53e8:	10000013 	b	5438 <n40_jalr_test+0x5438>
    53ec:	24120000 	li	s2,0
    53f0:	00000000 	nop
    53f4:	3c103cbf 	lui	s0,0x3cbf
    53f8:	36107f40 	ori	s0,s0,0x7f40
    53fc:	0120f809 	jalr	t1
    5400:	00000000 	nop
    5404:	10000015 	b	545c <n40_jalr_test+0x545c>
    5408:	00000000 	nop
    540c:	00000000 	nop
    5410:	00000021 	move	zero,zero
    5414:	00000021 	move	zero,zero
    5418:	00000021 	move	zero,zero
    541c:	00000021 	move	zero,zero
    5420:	00000021 	move	zero,zero
    5424:	00000021 	move	zero,zero
    5428:	00000021 	move	zero,zero
    542c:	00000021 	move	zero,zero
    5430:	00000021 	move	zero,zero
    5434:	00000021 	move	zero,zero
    5438:	0100f809 	jalr	t0
    543c:	00000000 	nop
    5440:	10000006 	b	545c <n40_jalr_test+0x545c>
    5444:	00000000 	nop
    5448:	00000000 	nop
    544c:	00000021 	move	zero,zero
    5450:	00000021 	move	zero,zero
    5454:	3c12cb5d 	lui	s2,0xcb5d
    5458:	36524589 	ori	s2,s2,0x4589
    545c:	001fa021 	addu	s4,zero,ra
    5460:	0016f821 	addu	ra,zero,s6
    5464:	3c150000 	lui	s5,0x0
    5468:	26b553fc 	addiu	s5,s5,21500
    546c:	3c0d3cbf 	lui	t5,0x3cbf
    5470:	35ad7f40 	ori	t5,t5,0x7f40
    5474:	160d176f 	bne	s0,t5,b234 <inst_error>
    5478:	00000000 	nop
    547c:	00000000 	nop
    5480:	3c0ccb5d 	lui	t4,0xcb5d
    5484:	358c4589 	ori	t4,t4,0x4589
    5488:	164c176a 	bne	s2,t4,b234 <inst_error>
    548c:	00000000 	nop
    5490:	00000000 	nop
    5494:	26b50008 	addiu	s5,s5,8
    5498:	16951766 	bne	s4,s5,b234 <inst_error>
    549c:	00000000 	nop
    54a0:	00000000 	nop
    54a4:	001fb021 	addu	s6,zero,ra
    54a8:	3c0c563a 	lui	t4,0x563a
    54ac:	358c1054 	ori	t4,t4,0x1054
    54b0:	3c0d776a 	lui	t5,0x776a
    54b4:	35ad3d12 	ori	t5,t5,0x3d12
    54b8:	24100000 	li	s0,0
    54bc:	3c080000 	lui	t0,0x0
    54c0:	250854d8 	addiu	t0,t0,21720
    54c4:	3c090000 	lui	t1,0x0
    54c8:	25295538 	addiu	t1,t1,21816
    54cc:	10000013 	b	551c <n40_jalr_test+0x551c>
    54d0:	24120000 	li	s2,0
    54d4:	00000000 	nop
    54d8:	3c10563a 	lui	s0,0x563a
    54dc:	36101054 	ori	s0,s0,0x1054
    54e0:	0120f809 	jalr	t1
    54e4:	00000000 	nop
    54e8:	10000015 	b	5540 <n40_jalr_test+0x5540>
    54ec:	00000000 	nop
    54f0:	00000000 	nop
    54f4:	00000021 	move	zero,zero
    54f8:	00000021 	move	zero,zero
    54fc:	00000021 	move	zero,zero
    5500:	00000021 	move	zero,zero
    5504:	00000021 	move	zero,zero
    5508:	00000021 	move	zero,zero
    550c:	00000021 	move	zero,zero
    5510:	00000021 	move	zero,zero
    5514:	00000021 	move	zero,zero
    5518:	00000021 	move	zero,zero
    551c:	0100f809 	jalr	t0
    5520:	00000000 	nop
    5524:	10000006 	b	5540 <n40_jalr_test+0x5540>
    5528:	00000000 	nop
    552c:	00000000 	nop
    5530:	00000021 	move	zero,zero
    5534:	00000021 	move	zero,zero
    5538:	3c12776a 	lui	s2,0x776a
    553c:	36523d12 	ori	s2,s2,0x3d12
    5540:	001fa021 	addu	s4,zero,ra
    5544:	0016f821 	addu	ra,zero,s6
    5548:	3c150000 	lui	s5,0x0
    554c:	26b554e0 	addiu	s5,s5,21728
    5550:	3c0d563a 	lui	t5,0x563a
    5554:	35ad1054 	ori	t5,t5,0x1054
    5558:	160d1736 	bne	s0,t5,b234 <inst_error>
    555c:	00000000 	nop
    5560:	00000000 	nop
    5564:	3c0c776a 	lui	t4,0x776a
    5568:	358c3d12 	ori	t4,t4,0x3d12
    556c:	164c1731 	bne	s2,t4,b234 <inst_error>
    5570:	00000000 	nop
    5574:	00000000 	nop
    5578:	26b50008 	addiu	s5,s5,8
    557c:	1695172d 	bne	s4,s5,b234 <inst_error>
    5580:	00000000 	nop
    5584:	00000000 	nop
    5588:	001fb021 	addu	s6,zero,ra
    558c:	3c0c199a 	lui	t4,0x199a
    5590:	358c5570 	ori	t4,t4,0x5570
    5594:	3c0d7ce1 	lui	t5,0x7ce1
    5598:	35ad721b 	ori	t5,t5,0x721b
    559c:	24100000 	li	s0,0
    55a0:	3c080000 	lui	t0,0x0
    55a4:	250855bc 	addiu	t0,t0,21948
    55a8:	3c090000 	lui	t1,0x0
    55ac:	2529561c 	addiu	t1,t1,22044
    55b0:	10000013 	b	5600 <n40_jalr_test+0x5600>
    55b4:	24120000 	li	s2,0
    55b8:	00000000 	nop
    55bc:	3c10199a 	lui	s0,0x199a
    55c0:	36105570 	ori	s0,s0,0x5570
    55c4:	0120f809 	jalr	t1
    55c8:	00000000 	nop
    55cc:	10000015 	b	5624 <n40_jalr_test+0x5624>
    55d0:	00000000 	nop
    55d4:	00000000 	nop
    55d8:	00000021 	move	zero,zero
    55dc:	00000021 	move	zero,zero
    55e0:	00000021 	move	zero,zero
    55e4:	00000021 	move	zero,zero
    55e8:	00000021 	move	zero,zero
    55ec:	00000021 	move	zero,zero
    55f0:	00000021 	move	zero,zero
    55f4:	00000021 	move	zero,zero
    55f8:	00000021 	move	zero,zero
    55fc:	00000021 	move	zero,zero
    5600:	0100f809 	jalr	t0
    5604:	00000000 	nop
    5608:	10000006 	b	5624 <n40_jalr_test+0x5624>
    560c:	00000000 	nop
    5610:	00000000 	nop
    5614:	00000021 	move	zero,zero
    5618:	00000021 	move	zero,zero
    561c:	3c127ce1 	lui	s2,0x7ce1
    5620:	3652721b 	ori	s2,s2,0x721b
    5624:	001fa021 	addu	s4,zero,ra
    5628:	0016f821 	addu	ra,zero,s6
    562c:	3c150000 	lui	s5,0x0
    5630:	26b555c4 	addiu	s5,s5,21956
    5634:	3c0d199a 	lui	t5,0x199a
    5638:	35ad5570 	ori	t5,t5,0x5570
    563c:	160d16fd 	bne	s0,t5,b234 <inst_error>
    5640:	00000000 	nop
    5644:	00000000 	nop
    5648:	3c0c7ce1 	lui	t4,0x7ce1
    564c:	358c721b 	ori	t4,t4,0x721b
    5650:	164c16f8 	bne	s2,t4,b234 <inst_error>
    5654:	00000000 	nop
    5658:	00000000 	nop
    565c:	26b50008 	addiu	s5,s5,8
    5660:	169516f4 	bne	s4,s5,b234 <inst_error>
    5664:	00000000 	nop
    5668:	00000000 	nop
    566c:	001fb021 	addu	s6,zero,ra
    5670:	3c0c61aa 	lui	t4,0x61aa
    5674:	358c3900 	ori	t4,t4,0x3900
    5678:	3c0d416d 	lui	t5,0x416d
    567c:	35addfc7 	ori	t5,t5,0xdfc7
    5680:	24100000 	li	s0,0
    5684:	3c080000 	lui	t0,0x0
    5688:	250856a0 	addiu	t0,t0,22176
    568c:	3c090000 	lui	t1,0x0
    5690:	25295700 	addiu	t1,t1,22272
    5694:	10000013 	b	56e4 <n40_jalr_test+0x56e4>
    5698:	24120000 	li	s2,0
    569c:	00000000 	nop
    56a0:	3c1061aa 	lui	s0,0x61aa
    56a4:	36103900 	ori	s0,s0,0x3900
    56a8:	0120f809 	jalr	t1
    56ac:	00000000 	nop
    56b0:	10000015 	b	5708 <n40_jalr_test+0x5708>
    56b4:	00000000 	nop
    56b8:	00000000 	nop
    56bc:	00000021 	move	zero,zero
    56c0:	00000021 	move	zero,zero
    56c4:	00000021 	move	zero,zero
    56c8:	00000021 	move	zero,zero
    56cc:	00000021 	move	zero,zero
    56d0:	00000021 	move	zero,zero
    56d4:	00000021 	move	zero,zero
    56d8:	00000021 	move	zero,zero
    56dc:	00000021 	move	zero,zero
    56e0:	00000021 	move	zero,zero
    56e4:	0100f809 	jalr	t0
    56e8:	00000000 	nop
    56ec:	10000006 	b	5708 <n40_jalr_test+0x5708>
    56f0:	00000000 	nop
    56f4:	00000000 	nop
    56f8:	00000021 	move	zero,zero
    56fc:	00000021 	move	zero,zero
    5700:	3c12416d 	lui	s2,0x416d
    5704:	3652dfc7 	ori	s2,s2,0xdfc7
    5708:	001fa021 	addu	s4,zero,ra
    570c:	0016f821 	addu	ra,zero,s6
    5710:	3c150000 	lui	s5,0x0
    5714:	26b556a8 	addiu	s5,s5,22184
    5718:	3c0d61aa 	lui	t5,0x61aa
    571c:	35ad3900 	ori	t5,t5,0x3900
    5720:	160d16c4 	bne	s0,t5,b234 <inst_error>
    5724:	00000000 	nop
    5728:	00000000 	nop
    572c:	3c0c416d 	lui	t4,0x416d
    5730:	358cdfc7 	ori	t4,t4,0xdfc7
    5734:	164c16bf 	bne	s2,t4,b234 <inst_error>
    5738:	00000000 	nop
    573c:	00000000 	nop
    5740:	26b50008 	addiu	s5,s5,8
    5744:	169516bb 	bne	s4,s5,b234 <inst_error>
    5748:	00000000 	nop
    574c:	00000000 	nop
    5750:	001fb021 	addu	s6,zero,ra
    5754:	3c0caf13 	lui	t4,0xaf13
    5758:	358cac90 	ori	t4,t4,0xac90
    575c:	3c0d23ff 	lui	t5,0x23ff
    5760:	35adf7b0 	ori	t5,t5,0xf7b0
    5764:	24100000 	li	s0,0
    5768:	3c080000 	lui	t0,0x0
    576c:	25085784 	addiu	t0,t0,22404
    5770:	3c090000 	lui	t1,0x0
    5774:	252957e4 	addiu	t1,t1,22500
    5778:	10000013 	b	57c8 <n40_jalr_test+0x57c8>
    577c:	24120000 	li	s2,0
    5780:	00000000 	nop
    5784:	3c10af13 	lui	s0,0xaf13
    5788:	3610ac90 	ori	s0,s0,0xac90
    578c:	0120f809 	jalr	t1
    5790:	00000000 	nop
    5794:	10000015 	b	57ec <n40_jalr_test+0x57ec>
    5798:	00000000 	nop
    579c:	00000000 	nop
    57a0:	00000021 	move	zero,zero
    57a4:	00000021 	move	zero,zero
    57a8:	00000021 	move	zero,zero
    57ac:	00000021 	move	zero,zero
    57b0:	00000021 	move	zero,zero
    57b4:	00000021 	move	zero,zero
    57b8:	00000021 	move	zero,zero
    57bc:	00000021 	move	zero,zero
    57c0:	00000021 	move	zero,zero
    57c4:	00000021 	move	zero,zero
    57c8:	0100f809 	jalr	t0
    57cc:	00000000 	nop
    57d0:	10000006 	b	57ec <n40_jalr_test+0x57ec>
    57d4:	00000000 	nop
    57d8:	00000000 	nop
    57dc:	00000021 	move	zero,zero
    57e0:	00000021 	move	zero,zero
    57e4:	3c1223ff 	lui	s2,0x23ff
    57e8:	3652f7b0 	ori	s2,s2,0xf7b0
    57ec:	001fa021 	addu	s4,zero,ra
    57f0:	0016f821 	addu	ra,zero,s6
    57f4:	3c150000 	lui	s5,0x0
    57f8:	26b5578c 	addiu	s5,s5,22412
    57fc:	3c0daf13 	lui	t5,0xaf13
    5800:	35adac90 	ori	t5,t5,0xac90
    5804:	160d168b 	bne	s0,t5,b234 <inst_error>
    5808:	00000000 	nop
    580c:	00000000 	nop
    5810:	3c0c23ff 	lui	t4,0x23ff
    5814:	358cf7b0 	ori	t4,t4,0xf7b0
    5818:	164c1686 	bne	s2,t4,b234 <inst_error>
    581c:	00000000 	nop
    5820:	00000000 	nop
    5824:	26b50008 	addiu	s5,s5,8
    5828:	16951682 	bne	s4,s5,b234 <inst_error>
    582c:	00000000 	nop
    5830:	00000000 	nop
    5834:	001fb021 	addu	s6,zero,ra
    5838:	3c0cdeaf 	lui	t4,0xdeaf
    583c:	358cbdfb 	ori	t4,t4,0xbdfb
    5840:	3c0db227 	lui	t5,0xb227
    5844:	35add4a0 	ori	t5,t5,0xd4a0
    5848:	24100000 	li	s0,0
    584c:	3c080000 	lui	t0,0x0
    5850:	25085868 	addiu	t0,t0,22632
    5854:	3c090000 	lui	t1,0x0
    5858:	252958c8 	addiu	t1,t1,22728
    585c:	10000013 	b	58ac <n40_jalr_test+0x58ac>
    5860:	24120000 	li	s2,0
    5864:	00000000 	nop
    5868:	3c10deaf 	lui	s0,0xdeaf
    586c:	3610bdfb 	ori	s0,s0,0xbdfb
    5870:	0120f809 	jalr	t1
    5874:	00000000 	nop
    5878:	10000015 	b	58d0 <n40_jalr_test+0x58d0>
    587c:	00000000 	nop
    5880:	00000000 	nop
    5884:	00000021 	move	zero,zero
    5888:	00000021 	move	zero,zero
    588c:	00000021 	move	zero,zero
    5890:	00000021 	move	zero,zero
    5894:	00000021 	move	zero,zero
    5898:	00000021 	move	zero,zero
    589c:	00000021 	move	zero,zero
    58a0:	00000021 	move	zero,zero
    58a4:	00000021 	move	zero,zero
    58a8:	00000021 	move	zero,zero
    58ac:	0100f809 	jalr	t0
    58b0:	00000000 	nop
    58b4:	10000006 	b	58d0 <n40_jalr_test+0x58d0>
    58b8:	00000000 	nop
    58bc:	00000000 	nop
    58c0:	00000021 	move	zero,zero
    58c4:	00000021 	move	zero,zero
    58c8:	3c12b227 	lui	s2,0xb227
    58cc:	3652d4a0 	ori	s2,s2,0xd4a0
    58d0:	001fa021 	addu	s4,zero,ra
    58d4:	0016f821 	addu	ra,zero,s6
    58d8:	3c150000 	lui	s5,0x0
    58dc:	26b55870 	addiu	s5,s5,22640
    58e0:	3c0ddeaf 	lui	t5,0xdeaf
    58e4:	35adbdfb 	ori	t5,t5,0xbdfb
    58e8:	160d1652 	bne	s0,t5,b234 <inst_error>
    58ec:	00000000 	nop
    58f0:	00000000 	nop
    58f4:	3c0cb227 	lui	t4,0xb227
    58f8:	358cd4a0 	ori	t4,t4,0xd4a0
    58fc:	164c164d 	bne	s2,t4,b234 <inst_error>
    5900:	00000000 	nop
    5904:	00000000 	nop
    5908:	26b50008 	addiu	s5,s5,8
    590c:	16951649 	bne	s4,s5,b234 <inst_error>
    5910:	00000000 	nop
    5914:	00000000 	nop
    5918:	001fb021 	addu	s6,zero,ra
    591c:	3c0ca66f 	lui	t4,0xa66f
    5920:	358c3a2a 	ori	t4,t4,0x3a2a
    5924:	3c0d0cf9 	lui	t5,0xcf9
    5928:	35adc0d4 	ori	t5,t5,0xc0d4
    592c:	24100000 	li	s0,0
    5930:	3c080000 	lui	t0,0x0
    5934:	2508594c 	addiu	t0,t0,22860
    5938:	3c090000 	lui	t1,0x0
    593c:	252959ac 	addiu	t1,t1,22956
    5940:	10000013 	b	5990 <n40_jalr_test+0x5990>
    5944:	24120000 	li	s2,0
    5948:	00000000 	nop
    594c:	3c10a66f 	lui	s0,0xa66f
    5950:	36103a2a 	ori	s0,s0,0x3a2a
    5954:	0120f809 	jalr	t1
    5958:	00000000 	nop
    595c:	10000015 	b	59b4 <n40_jalr_test+0x59b4>
    5960:	00000000 	nop
    5964:	00000000 	nop
    5968:	00000021 	move	zero,zero
    596c:	00000021 	move	zero,zero
    5970:	00000021 	move	zero,zero
    5974:	00000021 	move	zero,zero
    5978:	00000021 	move	zero,zero
    597c:	00000021 	move	zero,zero
    5980:	00000021 	move	zero,zero
    5984:	00000021 	move	zero,zero
    5988:	00000021 	move	zero,zero
    598c:	00000021 	move	zero,zero
    5990:	0100f809 	jalr	t0
    5994:	00000000 	nop
    5998:	10000006 	b	59b4 <n40_jalr_test+0x59b4>
    599c:	00000000 	nop
    59a0:	00000000 	nop
    59a4:	00000021 	move	zero,zero
    59a8:	00000021 	move	zero,zero
    59ac:	3c120cf9 	lui	s2,0xcf9
    59b0:	3652c0d4 	ori	s2,s2,0xc0d4
    59b4:	001fa021 	addu	s4,zero,ra
    59b8:	0016f821 	addu	ra,zero,s6
    59bc:	3c150000 	lui	s5,0x0
    59c0:	26b55954 	addiu	s5,s5,22868
    59c4:	3c0da66f 	lui	t5,0xa66f
    59c8:	35ad3a2a 	ori	t5,t5,0x3a2a
    59cc:	160d1619 	bne	s0,t5,b234 <inst_error>
    59d0:	00000000 	nop
    59d4:	00000000 	nop
    59d8:	3c0c0cf9 	lui	t4,0xcf9
    59dc:	358cc0d4 	ori	t4,t4,0xc0d4
    59e0:	164c1614 	bne	s2,t4,b234 <inst_error>
    59e4:	00000000 	nop
    59e8:	00000000 	nop
    59ec:	26b50008 	addiu	s5,s5,8
    59f0:	16951610 	bne	s4,s5,b234 <inst_error>
    59f4:	00000000 	nop
    59f8:	00000000 	nop
    59fc:	001fb021 	addu	s6,zero,ra
    5a00:	3c0c982c 	lui	t4,0x982c
    5a04:	358c51e8 	ori	t4,t4,0x51e8
    5a08:	3c0df359 	lui	t5,0xf359
    5a0c:	35ad05fe 	ori	t5,t5,0x5fe
    5a10:	24100000 	li	s0,0
    5a14:	3c080000 	lui	t0,0x0
    5a18:	25085a30 	addiu	t0,t0,23088
    5a1c:	3c090000 	lui	t1,0x0
    5a20:	25295a90 	addiu	t1,t1,23184
    5a24:	10000013 	b	5a74 <n40_jalr_test+0x5a74>
    5a28:	24120000 	li	s2,0
    5a2c:	00000000 	nop
    5a30:	3c10982c 	lui	s0,0x982c
    5a34:	361051e8 	ori	s0,s0,0x51e8
    5a38:	0120f809 	jalr	t1
    5a3c:	00000000 	nop
    5a40:	10000015 	b	5a98 <n40_jalr_test+0x5a98>
    5a44:	00000000 	nop
    5a48:	00000000 	nop
    5a4c:	00000021 	move	zero,zero
    5a50:	00000021 	move	zero,zero
    5a54:	00000021 	move	zero,zero
    5a58:	00000021 	move	zero,zero
    5a5c:	00000021 	move	zero,zero
    5a60:	00000021 	move	zero,zero
    5a64:	00000021 	move	zero,zero
    5a68:	00000021 	move	zero,zero
    5a6c:	00000021 	move	zero,zero
    5a70:	00000021 	move	zero,zero
    5a74:	0100f809 	jalr	t0
    5a78:	00000000 	nop
    5a7c:	10000006 	b	5a98 <n40_jalr_test+0x5a98>
    5a80:	00000000 	nop
    5a84:	00000000 	nop
    5a88:	00000021 	move	zero,zero
    5a8c:	00000021 	move	zero,zero
    5a90:	3c12f359 	lui	s2,0xf359
    5a94:	365205fe 	ori	s2,s2,0x5fe
    5a98:	001fa021 	addu	s4,zero,ra
    5a9c:	0016f821 	addu	ra,zero,s6
    5aa0:	3c150000 	lui	s5,0x0
    5aa4:	26b55a38 	addiu	s5,s5,23096
    5aa8:	3c0d982c 	lui	t5,0x982c
    5aac:	35ad51e8 	ori	t5,t5,0x51e8
    5ab0:	160d15e0 	bne	s0,t5,b234 <inst_error>
    5ab4:	00000000 	nop
    5ab8:	00000000 	nop
    5abc:	3c0cf359 	lui	t4,0xf359
    5ac0:	358c05fe 	ori	t4,t4,0x5fe
    5ac4:	164c15db 	bne	s2,t4,b234 <inst_error>
    5ac8:	00000000 	nop
    5acc:	00000000 	nop
    5ad0:	26b50008 	addiu	s5,s5,8
    5ad4:	169515d7 	bne	s4,s5,b234 <inst_error>
    5ad8:	00000000 	nop
    5adc:	00000000 	nop
    5ae0:	001fb021 	addu	s6,zero,ra
    5ae4:	3c0c78dc 	lui	t4,0x78dc
    5ae8:	358c5240 	ori	t4,t4,0x5240
    5aec:	3c0d99ce 	lui	t5,0x99ce
    5af0:	35adce05 	ori	t5,t5,0xce05
    5af4:	24100000 	li	s0,0
    5af8:	3c080000 	lui	t0,0x0
    5afc:	25085b14 	addiu	t0,t0,23316
    5b00:	3c090000 	lui	t1,0x0
    5b04:	25295b74 	addiu	t1,t1,23412
    5b08:	10000013 	b	5b58 <n40_jalr_test+0x5b58>
    5b0c:	24120000 	li	s2,0
    5b10:	00000000 	nop
    5b14:	3c1078dc 	lui	s0,0x78dc
    5b18:	36105240 	ori	s0,s0,0x5240
    5b1c:	0120f809 	jalr	t1
    5b20:	00000000 	nop
    5b24:	10000015 	b	5b7c <n40_jalr_test+0x5b7c>
    5b28:	00000000 	nop
    5b2c:	00000000 	nop
    5b30:	00000021 	move	zero,zero
    5b34:	00000021 	move	zero,zero
    5b38:	00000021 	move	zero,zero
    5b3c:	00000021 	move	zero,zero
    5b40:	00000021 	move	zero,zero
    5b44:	00000021 	move	zero,zero
    5b48:	00000021 	move	zero,zero
    5b4c:	00000021 	move	zero,zero
    5b50:	00000021 	move	zero,zero
    5b54:	00000021 	move	zero,zero
    5b58:	0100f809 	jalr	t0
    5b5c:	00000000 	nop
    5b60:	10000006 	b	5b7c <n40_jalr_test+0x5b7c>
    5b64:	00000000 	nop
    5b68:	00000000 	nop
    5b6c:	00000021 	move	zero,zero
    5b70:	00000021 	move	zero,zero
    5b74:	3c1299ce 	lui	s2,0x99ce
    5b78:	3652ce05 	ori	s2,s2,0xce05
    5b7c:	001fa021 	addu	s4,zero,ra
    5b80:	0016f821 	addu	ra,zero,s6
    5b84:	3c150000 	lui	s5,0x0
    5b88:	26b55b1c 	addiu	s5,s5,23324
    5b8c:	3c0d78dc 	lui	t5,0x78dc
    5b90:	35ad5240 	ori	t5,t5,0x5240
    5b94:	160d15a7 	bne	s0,t5,b234 <inst_error>
    5b98:	00000000 	nop
    5b9c:	00000000 	nop
    5ba0:	3c0c99ce 	lui	t4,0x99ce
    5ba4:	358cce05 	ori	t4,t4,0xce05
    5ba8:	164c15a2 	bne	s2,t4,b234 <inst_error>
    5bac:	00000000 	nop
    5bb0:	00000000 	nop
    5bb4:	26b50008 	addiu	s5,s5,8
    5bb8:	1695159e 	bne	s4,s5,b234 <inst_error>
    5bbc:	00000000 	nop
    5bc0:	00000000 	nop
    5bc4:	001fb021 	addu	s6,zero,ra
    5bc8:	3c0c27aa 	lui	t4,0x27aa
    5bcc:	358c9988 	ori	t4,t4,0x9988
    5bd0:	3c0d63bd 	lui	t5,0x63bd
    5bd4:	35ad2180 	ori	t5,t5,0x2180
    5bd8:	24100000 	li	s0,0
    5bdc:	3c080000 	lui	t0,0x0
    5be0:	25085bf8 	addiu	t0,t0,23544
    5be4:	3c090000 	lui	t1,0x0
    5be8:	25295c58 	addiu	t1,t1,23640
    5bec:	10000013 	b	5c3c <n40_jalr_test+0x5c3c>
    5bf0:	24120000 	li	s2,0
    5bf4:	00000000 	nop
    5bf8:	3c1027aa 	lui	s0,0x27aa
    5bfc:	36109988 	ori	s0,s0,0x9988
    5c00:	0120f809 	jalr	t1
    5c04:	00000000 	nop
    5c08:	10000015 	b	5c60 <n40_jalr_test+0x5c60>
    5c0c:	00000000 	nop
    5c10:	00000000 	nop
    5c14:	00000021 	move	zero,zero
    5c18:	00000021 	move	zero,zero
    5c1c:	00000021 	move	zero,zero
    5c20:	00000021 	move	zero,zero
    5c24:	00000021 	move	zero,zero
    5c28:	00000021 	move	zero,zero
    5c2c:	00000021 	move	zero,zero
    5c30:	00000021 	move	zero,zero
    5c34:	00000021 	move	zero,zero
    5c38:	00000021 	move	zero,zero
    5c3c:	0100f809 	jalr	t0
    5c40:	00000000 	nop
    5c44:	10000006 	b	5c60 <n40_jalr_test+0x5c60>
    5c48:	00000000 	nop
    5c4c:	00000000 	nop
    5c50:	00000021 	move	zero,zero
    5c54:	00000021 	move	zero,zero
    5c58:	3c1263bd 	lui	s2,0x63bd
    5c5c:	36522180 	ori	s2,s2,0x2180
    5c60:	001fa021 	addu	s4,zero,ra
    5c64:	0016f821 	addu	ra,zero,s6
    5c68:	3c150000 	lui	s5,0x0
    5c6c:	26b55c00 	addiu	s5,s5,23552
    5c70:	3c0d27aa 	lui	t5,0x27aa
    5c74:	35ad9988 	ori	t5,t5,0x9988
    5c78:	160d156e 	bne	s0,t5,b234 <inst_error>
    5c7c:	00000000 	nop
    5c80:	00000000 	nop
    5c84:	3c0c63bd 	lui	t4,0x63bd
    5c88:	358c2180 	ori	t4,t4,0x2180
    5c8c:	164c1569 	bne	s2,t4,b234 <inst_error>
    5c90:	00000000 	nop
    5c94:	00000000 	nop
    5c98:	26b50008 	addiu	s5,s5,8
    5c9c:	16951565 	bne	s4,s5,b234 <inst_error>
    5ca0:	00000000 	nop
    5ca4:	00000000 	nop
    5ca8:	001fb021 	addu	s6,zero,ra
    5cac:	3c0c98c5 	lui	t4,0x98c5
    5cb0:	358c5e18 	ori	t4,t4,0x5e18
    5cb4:	3c0d4c8a 	lui	t5,0x4c8a
    5cb8:	35ad23cc 	ori	t5,t5,0x23cc
    5cbc:	24100000 	li	s0,0
    5cc0:	3c080000 	lui	t0,0x0
    5cc4:	25085cdc 	addiu	t0,t0,23772
    5cc8:	3c090000 	lui	t1,0x0
    5ccc:	25295d3c 	addiu	t1,t1,23868
    5cd0:	10000013 	b	5d20 <n40_jalr_test+0x5d20>
    5cd4:	24120000 	li	s2,0
    5cd8:	00000000 	nop
    5cdc:	3c1098c5 	lui	s0,0x98c5
    5ce0:	36105e18 	ori	s0,s0,0x5e18
    5ce4:	0120f809 	jalr	t1
    5ce8:	00000000 	nop
    5cec:	10000015 	b	5d44 <n40_jalr_test+0x5d44>
    5cf0:	00000000 	nop
    5cf4:	00000000 	nop
    5cf8:	00000021 	move	zero,zero
    5cfc:	00000021 	move	zero,zero
    5d00:	00000021 	move	zero,zero
    5d04:	00000021 	move	zero,zero
    5d08:	00000021 	move	zero,zero
    5d0c:	00000021 	move	zero,zero
    5d10:	00000021 	move	zero,zero
    5d14:	00000021 	move	zero,zero
    5d18:	00000021 	move	zero,zero
    5d1c:	00000021 	move	zero,zero
    5d20:	0100f809 	jalr	t0
    5d24:	00000000 	nop
    5d28:	10000006 	b	5d44 <n40_jalr_test+0x5d44>
    5d2c:	00000000 	nop
    5d30:	00000000 	nop
    5d34:	00000021 	move	zero,zero
    5d38:	00000021 	move	zero,zero
    5d3c:	3c124c8a 	lui	s2,0x4c8a
    5d40:	365223cc 	ori	s2,s2,0x23cc
    5d44:	001fa021 	addu	s4,zero,ra
    5d48:	0016f821 	addu	ra,zero,s6
    5d4c:	3c150000 	lui	s5,0x0
    5d50:	26b55ce4 	addiu	s5,s5,23780
    5d54:	3c0d98c5 	lui	t5,0x98c5
    5d58:	35ad5e18 	ori	t5,t5,0x5e18
    5d5c:	160d1535 	bne	s0,t5,b234 <inst_error>
    5d60:	00000000 	nop
    5d64:	00000000 	nop
    5d68:	3c0c4c8a 	lui	t4,0x4c8a
    5d6c:	358c23cc 	ori	t4,t4,0x23cc
    5d70:	164c1530 	bne	s2,t4,b234 <inst_error>
    5d74:	00000000 	nop
    5d78:	00000000 	nop
    5d7c:	26b50008 	addiu	s5,s5,8
    5d80:	1695152c 	bne	s4,s5,b234 <inst_error>
    5d84:	00000000 	nop
    5d88:	00000000 	nop
    5d8c:	001fb021 	addu	s6,zero,ra
    5d90:	3c0c0864 	lui	t4,0x864
    5d94:	358ce8d8 	ori	t4,t4,0xe8d8
    5d98:	3c0defa3 	lui	t5,0xefa3
    5d9c:	35adc11f 	ori	t5,t5,0xc11f
    5da0:	24100000 	li	s0,0
    5da4:	3c080000 	lui	t0,0x0
    5da8:	25085dc0 	addiu	t0,t0,24000
    5dac:	3c090000 	lui	t1,0x0
    5db0:	25295e20 	addiu	t1,t1,24096
    5db4:	10000013 	b	5e04 <n40_jalr_test+0x5e04>
    5db8:	24120000 	li	s2,0
    5dbc:	00000000 	nop
    5dc0:	3c100864 	lui	s0,0x864
    5dc4:	3610e8d8 	ori	s0,s0,0xe8d8
    5dc8:	0120f809 	jalr	t1
    5dcc:	00000000 	nop
    5dd0:	10000015 	b	5e28 <n40_jalr_test+0x5e28>
    5dd4:	00000000 	nop
    5dd8:	00000000 	nop
    5ddc:	00000021 	move	zero,zero
    5de0:	00000021 	move	zero,zero
    5de4:	00000021 	move	zero,zero
    5de8:	00000021 	move	zero,zero
    5dec:	00000021 	move	zero,zero
    5df0:	00000021 	move	zero,zero
    5df4:	00000021 	move	zero,zero
    5df8:	00000021 	move	zero,zero
    5dfc:	00000021 	move	zero,zero
    5e00:	00000021 	move	zero,zero
    5e04:	0100f809 	jalr	t0
    5e08:	00000000 	nop
    5e0c:	10000006 	b	5e28 <n40_jalr_test+0x5e28>
    5e10:	00000000 	nop
    5e14:	00000000 	nop
    5e18:	00000021 	move	zero,zero
    5e1c:	00000021 	move	zero,zero
    5e20:	3c12efa3 	lui	s2,0xefa3
    5e24:	3652c11f 	ori	s2,s2,0xc11f
    5e28:	001fa021 	addu	s4,zero,ra
    5e2c:	0016f821 	addu	ra,zero,s6
    5e30:	3c150000 	lui	s5,0x0
    5e34:	26b55dc8 	addiu	s5,s5,24008
    5e38:	3c0d0864 	lui	t5,0x864
    5e3c:	35ade8d8 	ori	t5,t5,0xe8d8
    5e40:	160d14fc 	bne	s0,t5,b234 <inst_error>
    5e44:	00000000 	nop
    5e48:	00000000 	nop
    5e4c:	3c0cefa3 	lui	t4,0xefa3
    5e50:	358cc11f 	ori	t4,t4,0xc11f
    5e54:	164c14f7 	bne	s2,t4,b234 <inst_error>
    5e58:	00000000 	nop
    5e5c:	00000000 	nop
    5e60:	26b50008 	addiu	s5,s5,8
    5e64:	169514f3 	bne	s4,s5,b234 <inst_error>
    5e68:	00000000 	nop
    5e6c:	00000000 	nop
    5e70:	001fb021 	addu	s6,zero,ra
    5e74:	3c0ca012 	lui	t4,0xa012
    5e78:	358c9080 	ori	t4,t4,0x9080
    5e7c:	3c0df8be 	lui	t5,0xf8be
    5e80:	35ad2c38 	ori	t5,t5,0x2c38
    5e84:	24100000 	li	s0,0
    5e88:	3c080000 	lui	t0,0x0
    5e8c:	25085ea4 	addiu	t0,t0,24228
    5e90:	3c090000 	lui	t1,0x0
    5e94:	25295f04 	addiu	t1,t1,24324
    5e98:	10000013 	b	5ee8 <n40_jalr_test+0x5ee8>
    5e9c:	24120000 	li	s2,0
    5ea0:	00000000 	nop
    5ea4:	3c10a012 	lui	s0,0xa012
    5ea8:	36109080 	ori	s0,s0,0x9080
    5eac:	0120f809 	jalr	t1
    5eb0:	00000000 	nop
    5eb4:	10000015 	b	5f0c <n40_jalr_test+0x5f0c>
    5eb8:	00000000 	nop
    5ebc:	00000000 	nop
    5ec0:	00000021 	move	zero,zero
    5ec4:	00000021 	move	zero,zero
    5ec8:	00000021 	move	zero,zero
    5ecc:	00000021 	move	zero,zero
    5ed0:	00000021 	move	zero,zero
    5ed4:	00000021 	move	zero,zero
    5ed8:	00000021 	move	zero,zero
    5edc:	00000021 	move	zero,zero
    5ee0:	00000021 	move	zero,zero
    5ee4:	00000021 	move	zero,zero
    5ee8:	0100f809 	jalr	t0
    5eec:	00000000 	nop
    5ef0:	10000006 	b	5f0c <n40_jalr_test+0x5f0c>
    5ef4:	00000000 	nop
    5ef8:	00000000 	nop
    5efc:	00000021 	move	zero,zero
    5f00:	00000021 	move	zero,zero
    5f04:	3c12f8be 	lui	s2,0xf8be
    5f08:	36522c38 	ori	s2,s2,0x2c38
    5f0c:	001fa021 	addu	s4,zero,ra
    5f10:	0016f821 	addu	ra,zero,s6
    5f14:	3c150000 	lui	s5,0x0
    5f18:	26b55eac 	addiu	s5,s5,24236
    5f1c:	3c0da012 	lui	t5,0xa012
    5f20:	35ad9080 	ori	t5,t5,0x9080
    5f24:	160d14c3 	bne	s0,t5,b234 <inst_error>
    5f28:	00000000 	nop
    5f2c:	00000000 	nop
    5f30:	3c0cf8be 	lui	t4,0xf8be
    5f34:	358c2c38 	ori	t4,t4,0x2c38
    5f38:	164c14be 	bne	s2,t4,b234 <inst_error>
    5f3c:	00000000 	nop
    5f40:	00000000 	nop
    5f44:	26b50008 	addiu	s5,s5,8
    5f48:	169514ba 	bne	s4,s5,b234 <inst_error>
    5f4c:	00000000 	nop
    5f50:	00000000 	nop
    5f54:	001fb021 	addu	s6,zero,ra
    5f58:	3c0c7fe9 	lui	t4,0x7fe9
    5f5c:	358c274c 	ori	t4,t4,0x274c
    5f60:	3c0d7805 	lui	t5,0x7805
    5f64:	35adef1c 	ori	t5,t5,0xef1c
    5f68:	24100000 	li	s0,0
    5f6c:	3c080000 	lui	t0,0x0
    5f70:	25085f88 	addiu	t0,t0,24456
    5f74:	3c090000 	lui	t1,0x0
    5f78:	25295fe8 	addiu	t1,t1,24552
    5f7c:	10000013 	b	5fcc <n40_jalr_test+0x5fcc>
    5f80:	24120000 	li	s2,0
    5f84:	00000000 	nop
    5f88:	3c107fe9 	lui	s0,0x7fe9
    5f8c:	3610274c 	ori	s0,s0,0x274c
    5f90:	0120f809 	jalr	t1
    5f94:	00000000 	nop
    5f98:	10000015 	b	5ff0 <n40_jalr_test+0x5ff0>
    5f9c:	00000000 	nop
    5fa0:	00000000 	nop
    5fa4:	00000021 	move	zero,zero
    5fa8:	00000021 	move	zero,zero
    5fac:	00000021 	move	zero,zero
    5fb0:	00000021 	move	zero,zero
    5fb4:	00000021 	move	zero,zero
    5fb8:	00000021 	move	zero,zero
    5fbc:	00000021 	move	zero,zero
    5fc0:	00000021 	move	zero,zero
    5fc4:	00000021 	move	zero,zero
    5fc8:	00000021 	move	zero,zero
    5fcc:	0100f809 	jalr	t0
    5fd0:	00000000 	nop
    5fd4:	10000006 	b	5ff0 <n40_jalr_test+0x5ff0>
    5fd8:	00000000 	nop
    5fdc:	00000000 	nop
    5fe0:	00000021 	move	zero,zero
    5fe4:	00000021 	move	zero,zero
    5fe8:	3c127805 	lui	s2,0x7805
    5fec:	3652ef1c 	ori	s2,s2,0xef1c
    5ff0:	001fa021 	addu	s4,zero,ra
    5ff4:	0016f821 	addu	ra,zero,s6
    5ff8:	3c150000 	lui	s5,0x0
    5ffc:	26b55f90 	addiu	s5,s5,24464
    6000:	3c0d7fe9 	lui	t5,0x7fe9
    6004:	35ad274c 	ori	t5,t5,0x274c
    6008:	160d148a 	bne	s0,t5,b234 <inst_error>
    600c:	00000000 	nop
    6010:	00000000 	nop
    6014:	3c0c7805 	lui	t4,0x7805
    6018:	358cef1c 	ori	t4,t4,0xef1c
    601c:	164c1485 	bne	s2,t4,b234 <inst_error>
    6020:	00000000 	nop
    6024:	00000000 	nop
    6028:	26b50008 	addiu	s5,s5,8
    602c:	16951481 	bne	s4,s5,b234 <inst_error>
    6030:	00000000 	nop
    6034:	00000000 	nop
    6038:	001fb021 	addu	s6,zero,ra
    603c:	3c0cf857 	lui	t4,0xf857
    6040:	358c3c00 	ori	t4,t4,0x3c00
    6044:	3c0d8d9a 	lui	t5,0x8d9a
    6048:	35ad6b22 	ori	t5,t5,0x6b22
    604c:	24100000 	li	s0,0
    6050:	3c080000 	lui	t0,0x0
    6054:	2508606c 	addiu	t0,t0,24684
    6058:	3c090000 	lui	t1,0x0
    605c:	252960cc 	addiu	t1,t1,24780
    6060:	10000013 	b	60b0 <n40_jalr_test+0x60b0>
    6064:	24120000 	li	s2,0
    6068:	00000000 	nop
    606c:	3c10f857 	lui	s0,0xf857
    6070:	36103c00 	ori	s0,s0,0x3c00
    6074:	0120f809 	jalr	t1
    6078:	00000000 	nop
    607c:	10000015 	b	60d4 <n40_jalr_test+0x60d4>
    6080:	00000000 	nop
    6084:	00000000 	nop
    6088:	00000021 	move	zero,zero
    608c:	00000021 	move	zero,zero
    6090:	00000021 	move	zero,zero
    6094:	00000021 	move	zero,zero
    6098:	00000021 	move	zero,zero
    609c:	00000021 	move	zero,zero
    60a0:	00000021 	move	zero,zero
    60a4:	00000021 	move	zero,zero
    60a8:	00000021 	move	zero,zero
    60ac:	00000021 	move	zero,zero
    60b0:	0100f809 	jalr	t0
    60b4:	00000000 	nop
    60b8:	10000006 	b	60d4 <n40_jalr_test+0x60d4>
    60bc:	00000000 	nop
    60c0:	00000000 	nop
    60c4:	00000021 	move	zero,zero
    60c8:	00000021 	move	zero,zero
    60cc:	3c128d9a 	lui	s2,0x8d9a
    60d0:	36526b22 	ori	s2,s2,0x6b22
    60d4:	001fa021 	addu	s4,zero,ra
    60d8:	0016f821 	addu	ra,zero,s6
    60dc:	3c150000 	lui	s5,0x0
    60e0:	26b56074 	addiu	s5,s5,24692
    60e4:	3c0df857 	lui	t5,0xf857
    60e8:	35ad3c00 	ori	t5,t5,0x3c00
    60ec:	160d1451 	bne	s0,t5,b234 <inst_error>
    60f0:	00000000 	nop
    60f4:	00000000 	nop
    60f8:	3c0c8d9a 	lui	t4,0x8d9a
    60fc:	358c6b22 	ori	t4,t4,0x6b22
    6100:	164c144c 	bne	s2,t4,b234 <inst_error>
    6104:	00000000 	nop
    6108:	00000000 	nop
    610c:	26b50008 	addiu	s5,s5,8
    6110:	16951448 	bne	s4,s5,b234 <inst_error>
    6114:	00000000 	nop
    6118:	00000000 	nop
    611c:	001fb021 	addu	s6,zero,ra
    6120:	3c0c6d21 	lui	t4,0x6d21
    6124:	358c1770 	ori	t4,t4,0x1770
    6128:	3c0d93e4 	lui	t5,0x93e4
    612c:	35ad396a 	ori	t5,t5,0x396a
    6130:	24100000 	li	s0,0
    6134:	3c080000 	lui	t0,0x0
    6138:	25086150 	addiu	t0,t0,24912
    613c:	3c090000 	lui	t1,0x0
    6140:	252961b0 	addiu	t1,t1,25008
    6144:	10000013 	b	6194 <n40_jalr_test+0x6194>
    6148:	24120000 	li	s2,0
    614c:	00000000 	nop
    6150:	3c106d21 	lui	s0,0x6d21
    6154:	36101770 	ori	s0,s0,0x1770
    6158:	0120f809 	jalr	t1
    615c:	00000000 	nop
    6160:	10000015 	b	61b8 <n40_jalr_test+0x61b8>
    6164:	00000000 	nop
    6168:	00000000 	nop
    616c:	00000021 	move	zero,zero
    6170:	00000021 	move	zero,zero
    6174:	00000021 	move	zero,zero
    6178:	00000021 	move	zero,zero
    617c:	00000021 	move	zero,zero
    6180:	00000021 	move	zero,zero
    6184:	00000021 	move	zero,zero
    6188:	00000021 	move	zero,zero
    618c:	00000021 	move	zero,zero
    6190:	00000021 	move	zero,zero
    6194:	0100f809 	jalr	t0
    6198:	00000000 	nop
    619c:	10000006 	b	61b8 <n40_jalr_test+0x61b8>
    61a0:	00000000 	nop
    61a4:	00000000 	nop
    61a8:	00000021 	move	zero,zero
    61ac:	00000021 	move	zero,zero
    61b0:	3c1293e4 	lui	s2,0x93e4
    61b4:	3652396a 	ori	s2,s2,0x396a
    61b8:	001fa021 	addu	s4,zero,ra
    61bc:	0016f821 	addu	ra,zero,s6
    61c0:	3c150000 	lui	s5,0x0
    61c4:	26b56158 	addiu	s5,s5,24920
    61c8:	3c0d6d21 	lui	t5,0x6d21
    61cc:	35ad1770 	ori	t5,t5,0x1770
    61d0:	160d1418 	bne	s0,t5,b234 <inst_error>
    61d4:	00000000 	nop
    61d8:	00000000 	nop
    61dc:	3c0c93e4 	lui	t4,0x93e4
    61e0:	358c396a 	ori	t4,t4,0x396a
    61e4:	164c1413 	bne	s2,t4,b234 <inst_error>
    61e8:	00000000 	nop
    61ec:	00000000 	nop
    61f0:	26b50008 	addiu	s5,s5,8
    61f4:	1695140f 	bne	s4,s5,b234 <inst_error>
    61f8:	00000000 	nop
    61fc:	00000000 	nop
    6200:	001fb021 	addu	s6,zero,ra
    6204:	3c0c8a54 	lui	t4,0x8a54
    6208:	358c3f20 	ori	t4,t4,0x3f20
    620c:	3c0d2e5d 	lui	t5,0x2e5d
    6210:	35ada834 	ori	t5,t5,0xa834
    6214:	24100000 	li	s0,0
    6218:	3c080000 	lui	t0,0x0
    621c:	25086234 	addiu	t0,t0,25140
    6220:	3c090000 	lui	t1,0x0
    6224:	25296294 	addiu	t1,t1,25236
    6228:	10000013 	b	6278 <n40_jalr_test+0x6278>
    622c:	24120000 	li	s2,0
    6230:	00000000 	nop
    6234:	3c108a54 	lui	s0,0x8a54
    6238:	36103f20 	ori	s0,s0,0x3f20
    623c:	0120f809 	jalr	t1
    6240:	00000000 	nop
    6244:	10000015 	b	629c <n40_jalr_test+0x629c>
    6248:	00000000 	nop
    624c:	00000000 	nop
    6250:	00000021 	move	zero,zero
    6254:	00000021 	move	zero,zero
    6258:	00000021 	move	zero,zero
    625c:	00000021 	move	zero,zero
    6260:	00000021 	move	zero,zero
    6264:	00000021 	move	zero,zero
    6268:	00000021 	move	zero,zero
    626c:	00000021 	move	zero,zero
    6270:	00000021 	move	zero,zero
    6274:	00000021 	move	zero,zero
    6278:	0100f809 	jalr	t0
    627c:	00000000 	nop
    6280:	10000006 	b	629c <n40_jalr_test+0x629c>
    6284:	00000000 	nop
    6288:	00000000 	nop
    628c:	00000021 	move	zero,zero
    6290:	00000021 	move	zero,zero
    6294:	3c122e5d 	lui	s2,0x2e5d
    6298:	3652a834 	ori	s2,s2,0xa834
    629c:	001fa021 	addu	s4,zero,ra
    62a0:	0016f821 	addu	ra,zero,s6
    62a4:	3c150000 	lui	s5,0x0
    62a8:	26b5623c 	addiu	s5,s5,25148
    62ac:	3c0d8a54 	lui	t5,0x8a54
    62b0:	35ad3f20 	ori	t5,t5,0x3f20
    62b4:	160d13df 	bne	s0,t5,b234 <inst_error>
    62b8:	00000000 	nop
    62bc:	00000000 	nop
    62c0:	3c0c2e5d 	lui	t4,0x2e5d
    62c4:	358ca834 	ori	t4,t4,0xa834
    62c8:	164c13da 	bne	s2,t4,b234 <inst_error>
    62cc:	00000000 	nop
    62d0:	00000000 	nop
    62d4:	26b50008 	addiu	s5,s5,8
    62d8:	169513d6 	bne	s4,s5,b234 <inst_error>
    62dc:	00000000 	nop
    62e0:	00000000 	nop
    62e4:	001fb021 	addu	s6,zero,ra
    62e8:	3c0cba56 	lui	t4,0xba56
    62ec:	358ce260 	ori	t4,t4,0xe260
    62f0:	3c0d0fe2 	lui	t5,0xfe2
    62f4:	35ad487a 	ori	t5,t5,0x487a
    62f8:	24100000 	li	s0,0
    62fc:	3c080000 	lui	t0,0x0
    6300:	25086318 	addiu	t0,t0,25368
    6304:	3c090000 	lui	t1,0x0
    6308:	25296378 	addiu	t1,t1,25464
    630c:	10000013 	b	635c <n40_jalr_test+0x635c>
    6310:	24120000 	li	s2,0
    6314:	00000000 	nop
    6318:	3c10ba56 	lui	s0,0xba56
    631c:	3610e260 	ori	s0,s0,0xe260
    6320:	0120f809 	jalr	t1
    6324:	00000000 	nop
    6328:	10000015 	b	6380 <n40_jalr_test+0x6380>
    632c:	00000000 	nop
    6330:	00000000 	nop
    6334:	00000021 	move	zero,zero
    6338:	00000021 	move	zero,zero
    633c:	00000021 	move	zero,zero
    6340:	00000021 	move	zero,zero
    6344:	00000021 	move	zero,zero
    6348:	00000021 	move	zero,zero
    634c:	00000021 	move	zero,zero
    6350:	00000021 	move	zero,zero
    6354:	00000021 	move	zero,zero
    6358:	00000021 	move	zero,zero
    635c:	0100f809 	jalr	t0
    6360:	00000000 	nop
    6364:	10000006 	b	6380 <n40_jalr_test+0x6380>
    6368:	00000000 	nop
    636c:	00000000 	nop
    6370:	00000021 	move	zero,zero
    6374:	00000021 	move	zero,zero
    6378:	3c120fe2 	lui	s2,0xfe2
    637c:	3652487a 	ori	s2,s2,0x487a
    6380:	001fa021 	addu	s4,zero,ra
    6384:	0016f821 	addu	ra,zero,s6
    6388:	3c150000 	lui	s5,0x0
    638c:	26b56320 	addiu	s5,s5,25376
    6390:	3c0dba56 	lui	t5,0xba56
    6394:	35ade260 	ori	t5,t5,0xe260
    6398:	160d13a6 	bne	s0,t5,b234 <inst_error>
    639c:	00000000 	nop
    63a0:	00000000 	nop
    63a4:	3c0c0fe2 	lui	t4,0xfe2
    63a8:	358c487a 	ori	t4,t4,0x487a
    63ac:	164c13a1 	bne	s2,t4,b234 <inst_error>
    63b0:	00000000 	nop
    63b4:	00000000 	nop
    63b8:	26b50008 	addiu	s5,s5,8
    63bc:	1695139d 	bne	s4,s5,b234 <inst_error>
    63c0:	00000000 	nop
    63c4:	00000000 	nop
    63c8:	001fb021 	addu	s6,zero,ra
    63cc:	3c0c3c6a 	lui	t4,0x3c6a
    63d0:	358c2b4a 	ori	t4,t4,0x2b4a
    63d4:	3c0d1857 	lui	t5,0x1857
    63d8:	35ad965a 	ori	t5,t5,0x965a
    63dc:	24100000 	li	s0,0
    63e0:	3c080000 	lui	t0,0x0
    63e4:	250863fc 	addiu	t0,t0,25596
    63e8:	3c090000 	lui	t1,0x0
    63ec:	2529645c 	addiu	t1,t1,25692
    63f0:	10000013 	b	6440 <n40_jalr_test+0x6440>
    63f4:	24120000 	li	s2,0
    63f8:	00000000 	nop
    63fc:	3c103c6a 	lui	s0,0x3c6a
    6400:	36102b4a 	ori	s0,s0,0x2b4a
    6404:	0120f809 	jalr	t1
    6408:	00000000 	nop
    640c:	10000015 	b	6464 <n40_jalr_test+0x6464>
    6410:	00000000 	nop
    6414:	00000000 	nop
    6418:	00000021 	move	zero,zero
    641c:	00000021 	move	zero,zero
    6420:	00000021 	move	zero,zero
    6424:	00000021 	move	zero,zero
    6428:	00000021 	move	zero,zero
    642c:	00000021 	move	zero,zero
    6430:	00000021 	move	zero,zero
    6434:	00000021 	move	zero,zero
    6438:	00000021 	move	zero,zero
    643c:	00000021 	move	zero,zero
    6440:	0100f809 	jalr	t0
    6444:	00000000 	nop
    6448:	10000006 	b	6464 <n40_jalr_test+0x6464>
    644c:	00000000 	nop
    6450:	00000000 	nop
    6454:	00000021 	move	zero,zero
    6458:	00000021 	move	zero,zero
    645c:	3c121857 	lui	s2,0x1857
    6460:	3652965a 	ori	s2,s2,0x965a
    6464:	001fa021 	addu	s4,zero,ra
    6468:	0016f821 	addu	ra,zero,s6
    646c:	3c150000 	lui	s5,0x0
    6470:	26b56404 	addiu	s5,s5,25604
    6474:	3c0d3c6a 	lui	t5,0x3c6a
    6478:	35ad2b4a 	ori	t5,t5,0x2b4a
    647c:	160d136d 	bne	s0,t5,b234 <inst_error>
    6480:	00000000 	nop
    6484:	00000000 	nop
    6488:	3c0c1857 	lui	t4,0x1857
    648c:	358c965a 	ori	t4,t4,0x965a
    6490:	164c1368 	bne	s2,t4,b234 <inst_error>
    6494:	00000000 	nop
    6498:	00000000 	nop
    649c:	26b50008 	addiu	s5,s5,8
    64a0:	16951364 	bne	s4,s5,b234 <inst_error>
    64a4:	00000000 	nop
    64a8:	00000000 	nop
    64ac:	001fb021 	addu	s6,zero,ra
    64b0:	3c0c0d29 	lui	t4,0xd29
    64b4:	358c1e8b 	ori	t4,t4,0x1e8b
    64b8:	3c0d0050 	lui	t5,0x50
    64bc:	35ad7018 	ori	t5,t5,0x7018
    64c0:	24100000 	li	s0,0
    64c4:	3c080000 	lui	t0,0x0
    64c8:	250864e0 	addiu	t0,t0,25824
    64cc:	3c090000 	lui	t1,0x0
    64d0:	25296540 	addiu	t1,t1,25920
    64d4:	10000013 	b	6524 <n40_jalr_test+0x6524>
    64d8:	24120000 	li	s2,0
    64dc:	00000000 	nop
    64e0:	3c100d29 	lui	s0,0xd29
    64e4:	36101e8b 	ori	s0,s0,0x1e8b
    64e8:	0120f809 	jalr	t1
    64ec:	00000000 	nop
    64f0:	10000015 	b	6548 <n40_jalr_test+0x6548>
    64f4:	00000000 	nop
    64f8:	00000000 	nop
    64fc:	00000021 	move	zero,zero
    6500:	00000021 	move	zero,zero
    6504:	00000021 	move	zero,zero
    6508:	00000021 	move	zero,zero
    650c:	00000021 	move	zero,zero
    6510:	00000021 	move	zero,zero
    6514:	00000021 	move	zero,zero
    6518:	00000021 	move	zero,zero
    651c:	00000021 	move	zero,zero
    6520:	00000021 	move	zero,zero
    6524:	0100f809 	jalr	t0
    6528:	00000000 	nop
    652c:	10000006 	b	6548 <n40_jalr_test+0x6548>
    6530:	00000000 	nop
    6534:	00000000 	nop
    6538:	00000021 	move	zero,zero
    653c:	00000021 	move	zero,zero
    6540:	3c120050 	lui	s2,0x50
    6544:	36527018 	ori	s2,s2,0x7018
    6548:	001fa021 	addu	s4,zero,ra
    654c:	0016f821 	addu	ra,zero,s6
    6550:	3c150000 	lui	s5,0x0
    6554:	26b564e8 	addiu	s5,s5,25832
    6558:	3c0d0d29 	lui	t5,0xd29
    655c:	35ad1e8b 	ori	t5,t5,0x1e8b
    6560:	160d1334 	bne	s0,t5,b234 <inst_error>
    6564:	00000000 	nop
    6568:	00000000 	nop
    656c:	3c0c0050 	lui	t4,0x50
    6570:	358c7018 	ori	t4,t4,0x7018
    6574:	164c132f 	bne	s2,t4,b234 <inst_error>
    6578:	00000000 	nop
    657c:	00000000 	nop
    6580:	26b50008 	addiu	s5,s5,8
    6584:	1695132b 	bne	s4,s5,b234 <inst_error>
    6588:	00000000 	nop
    658c:	00000000 	nop
    6590:	001fb021 	addu	s6,zero,ra
    6594:	3c0ccffd 	lui	t4,0xcffd
    6598:	358c4000 	ori	t4,t4,0x4000
    659c:	3c0dc0fe 	lui	t5,0xc0fe
    65a0:	35adc614 	ori	t5,t5,0xc614
    65a4:	24100000 	li	s0,0
    65a8:	3c080000 	lui	t0,0x0
    65ac:	250865c4 	addiu	t0,t0,26052
    65b0:	3c090000 	lui	t1,0x0
    65b4:	25296624 	addiu	t1,t1,26148
    65b8:	10000013 	b	6608 <n40_jalr_test+0x6608>
    65bc:	24120000 	li	s2,0
    65c0:	00000000 	nop
    65c4:	3c10cffd 	lui	s0,0xcffd
    65c8:	36104000 	ori	s0,s0,0x4000
    65cc:	0120f809 	jalr	t1
    65d0:	00000000 	nop
    65d4:	10000015 	b	662c <n40_jalr_test+0x662c>
    65d8:	00000000 	nop
    65dc:	00000000 	nop
    65e0:	00000021 	move	zero,zero
    65e4:	00000021 	move	zero,zero
    65e8:	00000021 	move	zero,zero
    65ec:	00000021 	move	zero,zero
    65f0:	00000021 	move	zero,zero
    65f4:	00000021 	move	zero,zero
    65f8:	00000021 	move	zero,zero
    65fc:	00000021 	move	zero,zero
    6600:	00000021 	move	zero,zero
    6604:	00000021 	move	zero,zero
    6608:	0100f809 	jalr	t0
    660c:	00000000 	nop
    6610:	10000006 	b	662c <n40_jalr_test+0x662c>
    6614:	00000000 	nop
    6618:	00000000 	nop
    661c:	00000021 	move	zero,zero
    6620:	00000021 	move	zero,zero
    6624:	3c12c0fe 	lui	s2,0xc0fe
    6628:	3652c614 	ori	s2,s2,0xc614
    662c:	001fa021 	addu	s4,zero,ra
    6630:	0016f821 	addu	ra,zero,s6
    6634:	3c150000 	lui	s5,0x0
    6638:	26b565cc 	addiu	s5,s5,26060
    663c:	3c0dcffd 	lui	t5,0xcffd
    6640:	35ad4000 	ori	t5,t5,0x4000
    6644:	160d12fb 	bne	s0,t5,b234 <inst_error>
    6648:	00000000 	nop
    664c:	00000000 	nop
    6650:	3c0cc0fe 	lui	t4,0xc0fe
    6654:	358cc614 	ori	t4,t4,0xc614
    6658:	164c12f6 	bne	s2,t4,b234 <inst_error>
    665c:	00000000 	nop
    6660:	00000000 	nop
    6664:	26b50008 	addiu	s5,s5,8
    6668:	169512f2 	bne	s4,s5,b234 <inst_error>
    666c:	00000000 	nop
    6670:	00000000 	nop
    6674:	001fb021 	addu	s6,zero,ra
    6678:	3c0c257f 	lui	t4,0x257f
    667c:	358c9580 	ori	t4,t4,0x9580
    6680:	3c0d51b6 	lui	t5,0x51b6
    6684:	35ad01dc 	ori	t5,t5,0x1dc
    6688:	24100000 	li	s0,0
    668c:	3c080000 	lui	t0,0x0
    6690:	250866a8 	addiu	t0,t0,26280
    6694:	3c090000 	lui	t1,0x0
    6698:	25296708 	addiu	t1,t1,26376
    669c:	10000013 	b	66ec <n40_jalr_test+0x66ec>
    66a0:	24120000 	li	s2,0
    66a4:	00000000 	nop
    66a8:	3c10257f 	lui	s0,0x257f
    66ac:	36109580 	ori	s0,s0,0x9580
    66b0:	0120f809 	jalr	t1
    66b4:	00000000 	nop
    66b8:	10000015 	b	6710 <n40_jalr_test+0x6710>
    66bc:	00000000 	nop
    66c0:	00000000 	nop
    66c4:	00000021 	move	zero,zero
    66c8:	00000021 	move	zero,zero
    66cc:	00000021 	move	zero,zero
    66d0:	00000021 	move	zero,zero
    66d4:	00000021 	move	zero,zero
    66d8:	00000021 	move	zero,zero
    66dc:	00000021 	move	zero,zero
    66e0:	00000021 	move	zero,zero
    66e4:	00000021 	move	zero,zero
    66e8:	00000021 	move	zero,zero
    66ec:	0100f809 	jalr	t0
    66f0:	00000000 	nop
    66f4:	10000006 	b	6710 <n40_jalr_test+0x6710>
    66f8:	00000000 	nop
    66fc:	00000000 	nop
    6700:	00000021 	move	zero,zero
    6704:	00000021 	move	zero,zero
    6708:	3c1251b6 	lui	s2,0x51b6
    670c:	365201dc 	ori	s2,s2,0x1dc
    6710:	001fa021 	addu	s4,zero,ra
    6714:	0016f821 	addu	ra,zero,s6
    6718:	3c150000 	lui	s5,0x0
    671c:	26b566b0 	addiu	s5,s5,26288
    6720:	3c0d257f 	lui	t5,0x257f
    6724:	35ad9580 	ori	t5,t5,0x9580
    6728:	160d12c2 	bne	s0,t5,b234 <inst_error>
    672c:	00000000 	nop
    6730:	00000000 	nop
    6734:	3c0c51b6 	lui	t4,0x51b6
    6738:	358c01dc 	ori	t4,t4,0x1dc
    673c:	164c12bd 	bne	s2,t4,b234 <inst_error>
    6740:	00000000 	nop
    6744:	00000000 	nop
    6748:	26b50008 	addiu	s5,s5,8
    674c:	169512b9 	bne	s4,s5,b234 <inst_error>
    6750:	00000000 	nop
    6754:	00000000 	nop
    6758:	001fb021 	addu	s6,zero,ra
    675c:	3c0ce3ef 	lui	t4,0xe3ef
    6760:	358cb2e4 	ori	t4,t4,0xb2e4
    6764:	3c0d3ece 	lui	t5,0x3ece
    6768:	35ad2a1e 	ori	t5,t5,0x2a1e
    676c:	24100000 	li	s0,0
    6770:	3c080000 	lui	t0,0x0
    6774:	2508678c 	addiu	t0,t0,26508
    6778:	3c090000 	lui	t1,0x0
    677c:	252967ec 	addiu	t1,t1,26604
    6780:	10000013 	b	67d0 <n40_jalr_test+0x67d0>
    6784:	24120000 	li	s2,0
    6788:	00000000 	nop
    678c:	3c10e3ef 	lui	s0,0xe3ef
    6790:	3610b2e4 	ori	s0,s0,0xb2e4
    6794:	0120f809 	jalr	t1
    6798:	00000000 	nop
    679c:	10000015 	b	67f4 <n40_jalr_test+0x67f4>
    67a0:	00000000 	nop
    67a4:	00000000 	nop
    67a8:	00000021 	move	zero,zero
    67ac:	00000021 	move	zero,zero
    67b0:	00000021 	move	zero,zero
    67b4:	00000021 	move	zero,zero
    67b8:	00000021 	move	zero,zero
    67bc:	00000021 	move	zero,zero
    67c0:	00000021 	move	zero,zero
    67c4:	00000021 	move	zero,zero
    67c8:	00000021 	move	zero,zero
    67cc:	00000021 	move	zero,zero
    67d0:	0100f809 	jalr	t0
    67d4:	00000000 	nop
    67d8:	10000006 	b	67f4 <n40_jalr_test+0x67f4>
    67dc:	00000000 	nop
    67e0:	00000000 	nop
    67e4:	00000021 	move	zero,zero
    67e8:	00000021 	move	zero,zero
    67ec:	3c123ece 	lui	s2,0x3ece
    67f0:	36522a1e 	ori	s2,s2,0x2a1e
    67f4:	001fa021 	addu	s4,zero,ra
    67f8:	0016f821 	addu	ra,zero,s6
    67fc:	3c150000 	lui	s5,0x0
    6800:	26b56794 	addiu	s5,s5,26516
    6804:	3c0de3ef 	lui	t5,0xe3ef
    6808:	35adb2e4 	ori	t5,t5,0xb2e4
    680c:	160d1289 	bne	s0,t5,b234 <inst_error>
    6810:	00000000 	nop
    6814:	00000000 	nop
    6818:	3c0c3ece 	lui	t4,0x3ece
    681c:	358c2a1e 	ori	t4,t4,0x2a1e
    6820:	164c1284 	bne	s2,t4,b234 <inst_error>
    6824:	00000000 	nop
    6828:	00000000 	nop
    682c:	26b50008 	addiu	s5,s5,8
    6830:	16951280 	bne	s4,s5,b234 <inst_error>
    6834:	00000000 	nop
    6838:	00000000 	nop
    683c:	001fb021 	addu	s6,zero,ra
    6840:	3c0c6c5f 	lui	t4,0x6c5f
    6844:	358ca775 	ori	t4,t4,0xa775
    6848:	3c0dea5d 	lui	t5,0xea5d
    684c:	35adeeac 	ori	t5,t5,0xeeac
    6850:	24100000 	li	s0,0
    6854:	3c080000 	lui	t0,0x0
    6858:	25086870 	addiu	t0,t0,26736
    685c:	3c090000 	lui	t1,0x0
    6860:	252968d0 	addiu	t1,t1,26832
    6864:	10000013 	b	68b4 <n40_jalr_test+0x68b4>
    6868:	24120000 	li	s2,0
    686c:	00000000 	nop
    6870:	3c106c5f 	lui	s0,0x6c5f
    6874:	3610a775 	ori	s0,s0,0xa775
    6878:	0120f809 	jalr	t1
    687c:	00000000 	nop
    6880:	10000015 	b	68d8 <n40_jalr_test+0x68d8>
    6884:	00000000 	nop
    6888:	00000000 	nop
    688c:	00000021 	move	zero,zero
    6890:	00000021 	move	zero,zero
    6894:	00000021 	move	zero,zero
    6898:	00000021 	move	zero,zero
    689c:	00000021 	move	zero,zero
    68a0:	00000021 	move	zero,zero
    68a4:	00000021 	move	zero,zero
    68a8:	00000021 	move	zero,zero
    68ac:	00000021 	move	zero,zero
    68b0:	00000021 	move	zero,zero
    68b4:	0100f809 	jalr	t0
    68b8:	00000000 	nop
    68bc:	10000006 	b	68d8 <n40_jalr_test+0x68d8>
    68c0:	00000000 	nop
    68c4:	00000000 	nop
    68c8:	00000021 	move	zero,zero
    68cc:	00000021 	move	zero,zero
    68d0:	3c12ea5d 	lui	s2,0xea5d
    68d4:	3652eeac 	ori	s2,s2,0xeeac
    68d8:	001fa021 	addu	s4,zero,ra
    68dc:	0016f821 	addu	ra,zero,s6
    68e0:	3c150000 	lui	s5,0x0
    68e4:	26b56878 	addiu	s5,s5,26744
    68e8:	3c0d6c5f 	lui	t5,0x6c5f
    68ec:	35ada775 	ori	t5,t5,0xa775
    68f0:	160d1250 	bne	s0,t5,b234 <inst_error>
    68f4:	00000000 	nop
    68f8:	00000000 	nop
    68fc:	3c0cea5d 	lui	t4,0xea5d
    6900:	358ceeac 	ori	t4,t4,0xeeac
    6904:	164c124b 	bne	s2,t4,b234 <inst_error>
    6908:	00000000 	nop
    690c:	00000000 	nop
    6910:	26b50008 	addiu	s5,s5,8
    6914:	16951247 	bne	s4,s5,b234 <inst_error>
    6918:	00000000 	nop
    691c:	00000000 	nop
    6920:	001fb021 	addu	s6,zero,ra
    6924:	3c0ca22f 	lui	t4,0xa22f
    6928:	358c61a0 	ori	t4,t4,0x61a0
    692c:	3c0d6188 	lui	t5,0x6188
    6930:	35ad7758 	ori	t5,t5,0x7758
    6934:	24100000 	li	s0,0
    6938:	3c080000 	lui	t0,0x0
    693c:	25086954 	addiu	t0,t0,26964
    6940:	3c090000 	lui	t1,0x0
    6944:	252969b4 	addiu	t1,t1,27060
    6948:	10000013 	b	6998 <n40_jalr_test+0x6998>
    694c:	24120000 	li	s2,0
    6950:	00000000 	nop
    6954:	3c10a22f 	lui	s0,0xa22f
    6958:	361061a0 	ori	s0,s0,0x61a0
    695c:	0120f809 	jalr	t1
    6960:	00000000 	nop
    6964:	10000015 	b	69bc <n40_jalr_test+0x69bc>
    6968:	00000000 	nop
    696c:	00000000 	nop
    6970:	00000021 	move	zero,zero
    6974:	00000021 	move	zero,zero
    6978:	00000021 	move	zero,zero
    697c:	00000021 	move	zero,zero
    6980:	00000021 	move	zero,zero
    6984:	00000021 	move	zero,zero
    6988:	00000021 	move	zero,zero
    698c:	00000021 	move	zero,zero
    6990:	00000021 	move	zero,zero
    6994:	00000021 	move	zero,zero
    6998:	0100f809 	jalr	t0
    699c:	00000000 	nop
    69a0:	10000006 	b	69bc <n40_jalr_test+0x69bc>
    69a4:	00000000 	nop
    69a8:	00000000 	nop
    69ac:	00000021 	move	zero,zero
    69b0:	00000021 	move	zero,zero
    69b4:	3c126188 	lui	s2,0x6188
    69b8:	36527758 	ori	s2,s2,0x7758
    69bc:	001fa021 	addu	s4,zero,ra
    69c0:	0016f821 	addu	ra,zero,s6
    69c4:	3c150000 	lui	s5,0x0
    69c8:	26b5695c 	addiu	s5,s5,26972
    69cc:	3c0da22f 	lui	t5,0xa22f
    69d0:	35ad61a0 	ori	t5,t5,0x61a0
    69d4:	160d1217 	bne	s0,t5,b234 <inst_error>
    69d8:	00000000 	nop
    69dc:	00000000 	nop
    69e0:	3c0c6188 	lui	t4,0x6188
    69e4:	358c7758 	ori	t4,t4,0x7758
    69e8:	164c1212 	bne	s2,t4,b234 <inst_error>
    69ec:	00000000 	nop
    69f0:	00000000 	nop
    69f4:	26b50008 	addiu	s5,s5,8
    69f8:	1695120e 	bne	s4,s5,b234 <inst_error>
    69fc:	00000000 	nop
    6a00:	00000000 	nop
    6a04:	001fb021 	addu	s6,zero,ra
    6a08:	3c0c69cd 	lui	t4,0x69cd
    6a0c:	358c9484 	ori	t4,t4,0x9484
    6a10:	3c0d7d39 	lui	t5,0x7d39
    6a14:	35adcf3c 	ori	t5,t5,0xcf3c
    6a18:	24100000 	li	s0,0
    6a1c:	3c080000 	lui	t0,0x0
    6a20:	25086a38 	addiu	t0,t0,27192
    6a24:	3c090000 	lui	t1,0x0
    6a28:	25296a98 	addiu	t1,t1,27288
    6a2c:	10000013 	b	6a7c <n40_jalr_test+0x6a7c>
    6a30:	24120000 	li	s2,0
    6a34:	00000000 	nop
    6a38:	3c1069cd 	lui	s0,0x69cd
    6a3c:	36109484 	ori	s0,s0,0x9484
    6a40:	0120f809 	jalr	t1
    6a44:	00000000 	nop
    6a48:	10000015 	b	6aa0 <n40_jalr_test+0x6aa0>
    6a4c:	00000000 	nop
    6a50:	00000000 	nop
    6a54:	00000021 	move	zero,zero
    6a58:	00000021 	move	zero,zero
    6a5c:	00000021 	move	zero,zero
    6a60:	00000021 	move	zero,zero
    6a64:	00000021 	move	zero,zero
    6a68:	00000021 	move	zero,zero
    6a6c:	00000021 	move	zero,zero
    6a70:	00000021 	move	zero,zero
    6a74:	00000021 	move	zero,zero
    6a78:	00000021 	move	zero,zero
    6a7c:	0100f809 	jalr	t0
    6a80:	00000000 	nop
    6a84:	10000006 	b	6aa0 <n40_jalr_test+0x6aa0>
    6a88:	00000000 	nop
    6a8c:	00000000 	nop
    6a90:	00000021 	move	zero,zero
    6a94:	00000021 	move	zero,zero
    6a98:	3c127d39 	lui	s2,0x7d39
    6a9c:	3652cf3c 	ori	s2,s2,0xcf3c
    6aa0:	001fa021 	addu	s4,zero,ra
    6aa4:	0016f821 	addu	ra,zero,s6
    6aa8:	3c150000 	lui	s5,0x0
    6aac:	26b56a40 	addiu	s5,s5,27200
    6ab0:	3c0d69cd 	lui	t5,0x69cd
    6ab4:	35ad9484 	ori	t5,t5,0x9484
    6ab8:	160d11de 	bne	s0,t5,b234 <inst_error>
    6abc:	00000000 	nop
    6ac0:	00000000 	nop
    6ac4:	3c0c7d39 	lui	t4,0x7d39
    6ac8:	358ccf3c 	ori	t4,t4,0xcf3c
    6acc:	164c11d9 	bne	s2,t4,b234 <inst_error>
    6ad0:	00000000 	nop
    6ad4:	00000000 	nop
    6ad8:	26b50008 	addiu	s5,s5,8
    6adc:	169511d5 	bne	s4,s5,b234 <inst_error>
    6ae0:	00000000 	nop
    6ae4:	00000000 	nop
    6ae8:	001fb021 	addu	s6,zero,ra
    6aec:	3c0c95a3 	lui	t4,0x95a3
    6af0:	358cf330 	ori	t4,t4,0xf330
    6af4:	3c0d61db 	lui	t5,0x61db
    6af8:	35ad5f48 	ori	t5,t5,0x5f48
    6afc:	24100000 	li	s0,0
    6b00:	3c080000 	lui	t0,0x0
    6b04:	25086b1c 	addiu	t0,t0,27420
    6b08:	3c090000 	lui	t1,0x0
    6b0c:	25296b7c 	addiu	t1,t1,27516
    6b10:	10000013 	b	6b60 <n40_jalr_test+0x6b60>
    6b14:	24120000 	li	s2,0
    6b18:	00000000 	nop
    6b1c:	3c1095a3 	lui	s0,0x95a3
    6b20:	3610f330 	ori	s0,s0,0xf330
    6b24:	0120f809 	jalr	t1
    6b28:	00000000 	nop
    6b2c:	10000015 	b	6b84 <n40_jalr_test+0x6b84>
    6b30:	00000000 	nop
    6b34:	00000000 	nop
    6b38:	00000021 	move	zero,zero
    6b3c:	00000021 	move	zero,zero
    6b40:	00000021 	move	zero,zero
    6b44:	00000021 	move	zero,zero
    6b48:	00000021 	move	zero,zero
    6b4c:	00000021 	move	zero,zero
    6b50:	00000021 	move	zero,zero
    6b54:	00000021 	move	zero,zero
    6b58:	00000021 	move	zero,zero
    6b5c:	00000021 	move	zero,zero
    6b60:	0100f809 	jalr	t0
    6b64:	00000000 	nop
    6b68:	10000006 	b	6b84 <n40_jalr_test+0x6b84>
    6b6c:	00000000 	nop
    6b70:	00000000 	nop
    6b74:	00000021 	move	zero,zero
    6b78:	00000021 	move	zero,zero
    6b7c:	3c1261db 	lui	s2,0x61db
    6b80:	36525f48 	ori	s2,s2,0x5f48
    6b84:	001fa021 	addu	s4,zero,ra
    6b88:	0016f821 	addu	ra,zero,s6
    6b8c:	3c150000 	lui	s5,0x0
    6b90:	26b56b24 	addiu	s5,s5,27428
    6b94:	3c0d95a3 	lui	t5,0x95a3
    6b98:	35adf330 	ori	t5,t5,0xf330
    6b9c:	160d11a5 	bne	s0,t5,b234 <inst_error>
    6ba0:	00000000 	nop
    6ba4:	00000000 	nop
    6ba8:	3c0c61db 	lui	t4,0x61db
    6bac:	358c5f48 	ori	t4,t4,0x5f48
    6bb0:	164c11a0 	bne	s2,t4,b234 <inst_error>
    6bb4:	00000000 	nop
    6bb8:	00000000 	nop
    6bbc:	26b50008 	addiu	s5,s5,8
    6bc0:	1695119c 	bne	s4,s5,b234 <inst_error>
    6bc4:	00000000 	nop
    6bc8:	00000000 	nop
    6bcc:	001fb021 	addu	s6,zero,ra
    6bd0:	3c0c0435 	lui	t4,0x435
    6bd4:	358c9d84 	ori	t4,t4,0x9d84
    6bd8:	3c0da0f4 	lui	t5,0xa0f4
    6bdc:	35adfb5f 	ori	t5,t5,0xfb5f
    6be0:	24100000 	li	s0,0
    6be4:	3c080000 	lui	t0,0x0
    6be8:	25086c00 	addiu	t0,t0,27648
    6bec:	3c090000 	lui	t1,0x0
    6bf0:	25296c60 	addiu	t1,t1,27744
    6bf4:	10000013 	b	6c44 <n40_jalr_test+0x6c44>
    6bf8:	24120000 	li	s2,0
    6bfc:	00000000 	nop
    6c00:	3c100435 	lui	s0,0x435
    6c04:	36109d84 	ori	s0,s0,0x9d84
    6c08:	0120f809 	jalr	t1
    6c0c:	00000000 	nop
    6c10:	10000015 	b	6c68 <n40_jalr_test+0x6c68>
    6c14:	00000000 	nop
    6c18:	00000000 	nop
    6c1c:	00000021 	move	zero,zero
    6c20:	00000021 	move	zero,zero
    6c24:	00000021 	move	zero,zero
    6c28:	00000021 	move	zero,zero
    6c2c:	00000021 	move	zero,zero
    6c30:	00000021 	move	zero,zero
    6c34:	00000021 	move	zero,zero
    6c38:	00000021 	move	zero,zero
    6c3c:	00000021 	move	zero,zero
    6c40:	00000021 	move	zero,zero
    6c44:	0100f809 	jalr	t0
    6c48:	00000000 	nop
    6c4c:	10000006 	b	6c68 <n40_jalr_test+0x6c68>
    6c50:	00000000 	nop
    6c54:	00000000 	nop
    6c58:	00000021 	move	zero,zero
    6c5c:	00000021 	move	zero,zero
    6c60:	3c12a0f4 	lui	s2,0xa0f4
    6c64:	3652fb5f 	ori	s2,s2,0xfb5f
    6c68:	001fa021 	addu	s4,zero,ra
    6c6c:	0016f821 	addu	ra,zero,s6
    6c70:	3c150000 	lui	s5,0x0
    6c74:	26b56c08 	addiu	s5,s5,27656
    6c78:	3c0d0435 	lui	t5,0x435
    6c7c:	35ad9d84 	ori	t5,t5,0x9d84
    6c80:	160d116c 	bne	s0,t5,b234 <inst_error>
    6c84:	00000000 	nop
    6c88:	00000000 	nop
    6c8c:	3c0ca0f4 	lui	t4,0xa0f4
    6c90:	358cfb5f 	ori	t4,t4,0xfb5f
    6c94:	164c1167 	bne	s2,t4,b234 <inst_error>
    6c98:	00000000 	nop
    6c9c:	00000000 	nop
    6ca0:	26b50008 	addiu	s5,s5,8
    6ca4:	16951163 	bne	s4,s5,b234 <inst_error>
    6ca8:	00000000 	nop
    6cac:	00000000 	nop
    6cb0:	001fb021 	addu	s6,zero,ra
    6cb4:	3c0c4bb0 	lui	t4,0x4bb0
    6cb8:	358c28b2 	ori	t4,t4,0x28b2
    6cbc:	3c0d3bff 	lui	t5,0x3bff
    6cc0:	35ada5ec 	ori	t5,t5,0xa5ec
    6cc4:	24100000 	li	s0,0
    6cc8:	3c080000 	lui	t0,0x0
    6ccc:	25086ce4 	addiu	t0,t0,27876
    6cd0:	3c090000 	lui	t1,0x0
    6cd4:	25296d44 	addiu	t1,t1,27972
    6cd8:	10000013 	b	6d28 <n40_jalr_test+0x6d28>
    6cdc:	24120000 	li	s2,0
    6ce0:	00000000 	nop
    6ce4:	3c104bb0 	lui	s0,0x4bb0
    6ce8:	361028b2 	ori	s0,s0,0x28b2
    6cec:	0120f809 	jalr	t1
    6cf0:	00000000 	nop
    6cf4:	10000015 	b	6d4c <n40_jalr_test+0x6d4c>
    6cf8:	00000000 	nop
    6cfc:	00000000 	nop
    6d00:	00000021 	move	zero,zero
    6d04:	00000021 	move	zero,zero
    6d08:	00000021 	move	zero,zero
    6d0c:	00000021 	move	zero,zero
    6d10:	00000021 	move	zero,zero
    6d14:	00000021 	move	zero,zero
    6d18:	00000021 	move	zero,zero
    6d1c:	00000021 	move	zero,zero
    6d20:	00000021 	move	zero,zero
    6d24:	00000021 	move	zero,zero
    6d28:	0100f809 	jalr	t0
    6d2c:	00000000 	nop
    6d30:	10000006 	b	6d4c <n40_jalr_test+0x6d4c>
    6d34:	00000000 	nop
    6d38:	00000000 	nop
    6d3c:	00000021 	move	zero,zero
    6d40:	00000021 	move	zero,zero
    6d44:	3c123bff 	lui	s2,0x3bff
    6d48:	3652a5ec 	ori	s2,s2,0xa5ec
    6d4c:	001fa021 	addu	s4,zero,ra
    6d50:	0016f821 	addu	ra,zero,s6
    6d54:	3c150000 	lui	s5,0x0
    6d58:	26b56cec 	addiu	s5,s5,27884
    6d5c:	3c0d4bb0 	lui	t5,0x4bb0
    6d60:	35ad28b2 	ori	t5,t5,0x28b2
    6d64:	160d1133 	bne	s0,t5,b234 <inst_error>
    6d68:	00000000 	nop
    6d6c:	00000000 	nop
    6d70:	3c0c3bff 	lui	t4,0x3bff
    6d74:	358ca5ec 	ori	t4,t4,0xa5ec
    6d78:	164c112e 	bne	s2,t4,b234 <inst_error>
    6d7c:	00000000 	nop
    6d80:	00000000 	nop
    6d84:	26b50008 	addiu	s5,s5,8
    6d88:	1695112a 	bne	s4,s5,b234 <inst_error>
    6d8c:	00000000 	nop
    6d90:	00000000 	nop
    6d94:	001fb021 	addu	s6,zero,ra
    6d98:	3c0ce2b0 	lui	t4,0xe2b0
    6d9c:	358ca2c0 	ori	t4,t4,0xa2c0
    6da0:	3c0df225 	lui	t5,0xf225
    6da4:	35ad5610 	ori	t5,t5,0x5610
    6da8:	24100000 	li	s0,0
    6dac:	3c080000 	lui	t0,0x0
    6db0:	25086dc8 	addiu	t0,t0,28104
    6db4:	3c090000 	lui	t1,0x0
    6db8:	25296e28 	addiu	t1,t1,28200
    6dbc:	10000013 	b	6e0c <n40_jalr_test+0x6e0c>
    6dc0:	24120000 	li	s2,0
    6dc4:	00000000 	nop
    6dc8:	3c10e2b0 	lui	s0,0xe2b0
    6dcc:	3610a2c0 	ori	s0,s0,0xa2c0
    6dd0:	0120f809 	jalr	t1
    6dd4:	00000000 	nop
    6dd8:	10000015 	b	6e30 <n40_jalr_test+0x6e30>
    6ddc:	00000000 	nop
    6de0:	00000000 	nop
    6de4:	00000021 	move	zero,zero
    6de8:	00000021 	move	zero,zero
    6dec:	00000021 	move	zero,zero
    6df0:	00000021 	move	zero,zero
    6df4:	00000021 	move	zero,zero
    6df8:	00000021 	move	zero,zero
    6dfc:	00000021 	move	zero,zero
    6e00:	00000021 	move	zero,zero
    6e04:	00000021 	move	zero,zero
    6e08:	00000021 	move	zero,zero
    6e0c:	0100f809 	jalr	t0
    6e10:	00000000 	nop
    6e14:	10000006 	b	6e30 <n40_jalr_test+0x6e30>
    6e18:	00000000 	nop
    6e1c:	00000000 	nop
    6e20:	00000021 	move	zero,zero
    6e24:	00000021 	move	zero,zero
    6e28:	3c12f225 	lui	s2,0xf225
    6e2c:	36525610 	ori	s2,s2,0x5610
    6e30:	001fa021 	addu	s4,zero,ra
    6e34:	0016f821 	addu	ra,zero,s6
    6e38:	3c150000 	lui	s5,0x0
    6e3c:	26b56dd0 	addiu	s5,s5,28112
    6e40:	3c0de2b0 	lui	t5,0xe2b0
    6e44:	35ada2c0 	ori	t5,t5,0xa2c0
    6e48:	160d10fa 	bne	s0,t5,b234 <inst_error>
    6e4c:	00000000 	nop
    6e50:	00000000 	nop
    6e54:	3c0cf225 	lui	t4,0xf225
    6e58:	358c5610 	ori	t4,t4,0x5610
    6e5c:	164c10f5 	bne	s2,t4,b234 <inst_error>
    6e60:	00000000 	nop
    6e64:	00000000 	nop
    6e68:	26b50008 	addiu	s5,s5,8
    6e6c:	169510f1 	bne	s4,s5,b234 <inst_error>
    6e70:	00000000 	nop
    6e74:	00000000 	nop
    6e78:	001fb021 	addu	s6,zero,ra
    6e7c:	3c0ca794 	lui	t4,0xa794
    6e80:	358cd358 	ori	t4,t4,0xd358
    6e84:	3c0ddd1b 	lui	t5,0xdd1b
    6e88:	35adda33 	ori	t5,t5,0xda33
    6e8c:	24100000 	li	s0,0
    6e90:	3c080000 	lui	t0,0x0
    6e94:	25086eac 	addiu	t0,t0,28332
    6e98:	3c090000 	lui	t1,0x0
    6e9c:	25296f0c 	addiu	t1,t1,28428
    6ea0:	10000013 	b	6ef0 <n40_jalr_test+0x6ef0>
    6ea4:	24120000 	li	s2,0
    6ea8:	00000000 	nop
    6eac:	3c10a794 	lui	s0,0xa794
    6eb0:	3610d358 	ori	s0,s0,0xd358
    6eb4:	0120f809 	jalr	t1
    6eb8:	00000000 	nop
    6ebc:	10000015 	b	6f14 <n40_jalr_test+0x6f14>
    6ec0:	00000000 	nop
    6ec4:	00000000 	nop
    6ec8:	00000021 	move	zero,zero
    6ecc:	00000021 	move	zero,zero
    6ed0:	00000021 	move	zero,zero
    6ed4:	00000021 	move	zero,zero
    6ed8:	00000021 	move	zero,zero
    6edc:	00000021 	move	zero,zero
    6ee0:	00000021 	move	zero,zero
    6ee4:	00000021 	move	zero,zero
    6ee8:	00000021 	move	zero,zero
    6eec:	00000021 	move	zero,zero
    6ef0:	0100f809 	jalr	t0
    6ef4:	00000000 	nop
    6ef8:	10000006 	b	6f14 <n40_jalr_test+0x6f14>
    6efc:	00000000 	nop
    6f00:	00000000 	nop
    6f04:	00000021 	move	zero,zero
    6f08:	00000021 	move	zero,zero
    6f0c:	3c12dd1b 	lui	s2,0xdd1b
    6f10:	3652da33 	ori	s2,s2,0xda33
    6f14:	001fa021 	addu	s4,zero,ra
    6f18:	0016f821 	addu	ra,zero,s6
    6f1c:	3c150000 	lui	s5,0x0
    6f20:	26b56eb4 	addiu	s5,s5,28340
    6f24:	3c0da794 	lui	t5,0xa794
    6f28:	35add358 	ori	t5,t5,0xd358
    6f2c:	160d10c1 	bne	s0,t5,b234 <inst_error>
    6f30:	00000000 	nop
    6f34:	00000000 	nop
    6f38:	3c0cdd1b 	lui	t4,0xdd1b
    6f3c:	358cda33 	ori	t4,t4,0xda33
    6f40:	164c10bc 	bne	s2,t4,b234 <inst_error>
    6f44:	00000000 	nop
    6f48:	00000000 	nop
    6f4c:	26b50008 	addiu	s5,s5,8
    6f50:	169510b8 	bne	s4,s5,b234 <inst_error>
    6f54:	00000000 	nop
    6f58:	00000000 	nop
    6f5c:	001fb021 	addu	s6,zero,ra
    6f60:	3c0cb7ff 	lui	t4,0xb7ff
    6f64:	358ca000 	ori	t4,t4,0xa000
    6f68:	3c0dd9b9 	lui	t5,0xd9b9
    6f6c:	35add158 	ori	t5,t5,0xd158
    6f70:	24100000 	li	s0,0
    6f74:	3c080000 	lui	t0,0x0
    6f78:	25086f90 	addiu	t0,t0,28560
    6f7c:	3c090000 	lui	t1,0x0
    6f80:	25296ff0 	addiu	t1,t1,28656
    6f84:	10000013 	b	6fd4 <n40_jalr_test+0x6fd4>
    6f88:	24120000 	li	s2,0
    6f8c:	00000000 	nop
    6f90:	3c10b7ff 	lui	s0,0xb7ff
    6f94:	3610a000 	ori	s0,s0,0xa000
    6f98:	0120f809 	jalr	t1
    6f9c:	00000000 	nop
    6fa0:	10000015 	b	6ff8 <n40_jalr_test+0x6ff8>
    6fa4:	00000000 	nop
    6fa8:	00000000 	nop
    6fac:	00000021 	move	zero,zero
    6fb0:	00000021 	move	zero,zero
    6fb4:	00000021 	move	zero,zero
    6fb8:	00000021 	move	zero,zero
    6fbc:	00000021 	move	zero,zero
    6fc0:	00000021 	move	zero,zero
    6fc4:	00000021 	move	zero,zero
    6fc8:	00000021 	move	zero,zero
    6fcc:	00000021 	move	zero,zero
    6fd0:	00000021 	move	zero,zero
    6fd4:	0100f809 	jalr	t0
    6fd8:	00000000 	nop
    6fdc:	10000006 	b	6ff8 <n40_jalr_test+0x6ff8>
    6fe0:	00000000 	nop
    6fe4:	00000000 	nop
    6fe8:	00000021 	move	zero,zero
    6fec:	00000021 	move	zero,zero
    6ff0:	3c12d9b9 	lui	s2,0xd9b9
    6ff4:	3652d158 	ori	s2,s2,0xd158
    6ff8:	001fa021 	addu	s4,zero,ra
    6ffc:	0016f821 	addu	ra,zero,s6
    7000:	3c150000 	lui	s5,0x0
    7004:	26b56f98 	addiu	s5,s5,28568
    7008:	3c0db7ff 	lui	t5,0xb7ff
    700c:	35ada000 	ori	t5,t5,0xa000
    7010:	160d1088 	bne	s0,t5,b234 <inst_error>
    7014:	00000000 	nop
    7018:	00000000 	nop
    701c:	3c0cd9b9 	lui	t4,0xd9b9
    7020:	358cd158 	ori	t4,t4,0xd158
    7024:	164c1083 	bne	s2,t4,b234 <inst_error>
    7028:	00000000 	nop
    702c:	00000000 	nop
    7030:	26b50008 	addiu	s5,s5,8
    7034:	1695107f 	bne	s4,s5,b234 <inst_error>
    7038:	00000000 	nop
    703c:	00000000 	nop
    7040:	001fb021 	addu	s6,zero,ra
    7044:	3c0c308a 	lui	t4,0x308a
    7048:	358c97a0 	ori	t4,t4,0x97a0
    704c:	3c0d2ea8 	lui	t5,0x2ea8
    7050:	35ad84ea 	ori	t5,t5,0x84ea
    7054:	24100000 	li	s0,0
    7058:	3c080000 	lui	t0,0x0
    705c:	25087074 	addiu	t0,t0,28788
    7060:	3c090000 	lui	t1,0x0
    7064:	252970d4 	addiu	t1,t1,28884
    7068:	10000013 	b	70b8 <n40_jalr_test+0x70b8>
    706c:	24120000 	li	s2,0
    7070:	00000000 	nop
    7074:	3c10308a 	lui	s0,0x308a
    7078:	361097a0 	ori	s0,s0,0x97a0
    707c:	0120f809 	jalr	t1
    7080:	00000000 	nop
    7084:	10000015 	b	70dc <n40_jalr_test+0x70dc>
    7088:	00000000 	nop
    708c:	00000000 	nop
    7090:	00000021 	move	zero,zero
    7094:	00000021 	move	zero,zero
    7098:	00000021 	move	zero,zero
    709c:	00000021 	move	zero,zero
    70a0:	00000021 	move	zero,zero
    70a4:	00000021 	move	zero,zero
    70a8:	00000021 	move	zero,zero
    70ac:	00000021 	move	zero,zero
    70b0:	00000021 	move	zero,zero
    70b4:	00000021 	move	zero,zero
    70b8:	0100f809 	jalr	t0
    70bc:	00000000 	nop
    70c0:	10000006 	b	70dc <n40_jalr_test+0x70dc>
    70c4:	00000000 	nop
    70c8:	00000000 	nop
    70cc:	00000021 	move	zero,zero
    70d0:	00000021 	move	zero,zero
    70d4:	3c122ea8 	lui	s2,0x2ea8
    70d8:	365284ea 	ori	s2,s2,0x84ea
    70dc:	001fa021 	addu	s4,zero,ra
    70e0:	0016f821 	addu	ra,zero,s6
    70e4:	3c150000 	lui	s5,0x0
    70e8:	26b5707c 	addiu	s5,s5,28796
    70ec:	3c0d308a 	lui	t5,0x308a
    70f0:	35ad97a0 	ori	t5,t5,0x97a0
    70f4:	160d104f 	bne	s0,t5,b234 <inst_error>
    70f8:	00000000 	nop
    70fc:	00000000 	nop
    7100:	3c0c2ea8 	lui	t4,0x2ea8
    7104:	358c84ea 	ori	t4,t4,0x84ea
    7108:	164c104a 	bne	s2,t4,b234 <inst_error>
    710c:	00000000 	nop
    7110:	00000000 	nop
    7114:	26b50008 	addiu	s5,s5,8
    7118:	16951046 	bne	s4,s5,b234 <inst_error>
    711c:	00000000 	nop
    7120:	00000000 	nop
    7124:	001fb021 	addu	s6,zero,ra
    7128:	3c0cc2aa 	lui	t4,0xc2aa
    712c:	358cfe00 	ori	t4,t4,0xfe00
    7130:	3c0dcba8 	lui	t5,0xcba8
    7134:	35adaeda 	ori	t5,t5,0xaeda
    7138:	24100000 	li	s0,0
    713c:	3c080000 	lui	t0,0x0
    7140:	25087158 	addiu	t0,t0,29016
    7144:	3c090000 	lui	t1,0x0
    7148:	252971b8 	addiu	t1,t1,29112
    714c:	10000013 	b	719c <n40_jalr_test+0x719c>
    7150:	24120000 	li	s2,0
    7154:	00000000 	nop
    7158:	3c10c2aa 	lui	s0,0xc2aa
    715c:	3610fe00 	ori	s0,s0,0xfe00
    7160:	0120f809 	jalr	t1
    7164:	00000000 	nop
    7168:	10000015 	b	71c0 <n40_jalr_test+0x71c0>
    716c:	00000000 	nop
    7170:	00000000 	nop
    7174:	00000021 	move	zero,zero
    7178:	00000021 	move	zero,zero
    717c:	00000021 	move	zero,zero
    7180:	00000021 	move	zero,zero
    7184:	00000021 	move	zero,zero
    7188:	00000021 	move	zero,zero
    718c:	00000021 	move	zero,zero
    7190:	00000021 	move	zero,zero
    7194:	00000021 	move	zero,zero
    7198:	00000021 	move	zero,zero
    719c:	0100f809 	jalr	t0
    71a0:	00000000 	nop
    71a4:	10000006 	b	71c0 <n40_jalr_test+0x71c0>
    71a8:	00000000 	nop
    71ac:	00000000 	nop
    71b0:	00000021 	move	zero,zero
    71b4:	00000021 	move	zero,zero
    71b8:	3c12cba8 	lui	s2,0xcba8
    71bc:	3652aeda 	ori	s2,s2,0xaeda
    71c0:	001fa021 	addu	s4,zero,ra
    71c4:	0016f821 	addu	ra,zero,s6
    71c8:	3c150000 	lui	s5,0x0
    71cc:	26b57160 	addiu	s5,s5,29024
    71d0:	3c0dc2aa 	lui	t5,0xc2aa
    71d4:	35adfe00 	ori	t5,t5,0xfe00
    71d8:	160d1016 	bne	s0,t5,b234 <inst_error>
    71dc:	00000000 	nop
    71e0:	00000000 	nop
    71e4:	3c0ccba8 	lui	t4,0xcba8
    71e8:	358caeda 	ori	t4,t4,0xaeda
    71ec:	164c1011 	bne	s2,t4,b234 <inst_error>
    71f0:	00000000 	nop
    71f4:	00000000 	nop
    71f8:	26b50008 	addiu	s5,s5,8
    71fc:	1695100d 	bne	s4,s5,b234 <inst_error>
    7200:	00000000 	nop
    7204:	00000000 	nop
    7208:	001fb021 	addu	s6,zero,ra
    720c:	3c0c0c23 	lui	t4,0xc23
    7210:	358c5ca6 	ori	t4,t4,0x5ca6
    7214:	3c0d08da 	lui	t5,0x8da
    7218:	35add9f0 	ori	t5,t5,0xd9f0
    721c:	24100000 	li	s0,0
    7220:	3c080000 	lui	t0,0x0
    7224:	2508723c 	addiu	t0,t0,29244
    7228:	3c090000 	lui	t1,0x0
    722c:	2529729c 	addiu	t1,t1,29340
    7230:	10000013 	b	7280 <n40_jalr_test+0x7280>
    7234:	24120000 	li	s2,0
    7238:	00000000 	nop
    723c:	3c100c23 	lui	s0,0xc23
    7240:	36105ca6 	ori	s0,s0,0x5ca6
    7244:	0120f809 	jalr	t1
    7248:	00000000 	nop
    724c:	10000015 	b	72a4 <n40_jalr_test+0x72a4>
    7250:	00000000 	nop
    7254:	00000000 	nop
    7258:	00000021 	move	zero,zero
    725c:	00000021 	move	zero,zero
    7260:	00000021 	move	zero,zero
    7264:	00000021 	move	zero,zero
    7268:	00000021 	move	zero,zero
    726c:	00000021 	move	zero,zero
    7270:	00000021 	move	zero,zero
    7274:	00000021 	move	zero,zero
    7278:	00000021 	move	zero,zero
    727c:	00000021 	move	zero,zero
    7280:	0100f809 	jalr	t0
    7284:	00000000 	nop
    7288:	10000006 	b	72a4 <n40_jalr_test+0x72a4>
    728c:	00000000 	nop
    7290:	00000000 	nop
    7294:	00000021 	move	zero,zero
    7298:	00000021 	move	zero,zero
    729c:	3c1208da 	lui	s2,0x8da
    72a0:	3652d9f0 	ori	s2,s2,0xd9f0
    72a4:	001fa021 	addu	s4,zero,ra
    72a8:	0016f821 	addu	ra,zero,s6
    72ac:	3c150000 	lui	s5,0x0
    72b0:	26b57244 	addiu	s5,s5,29252
    72b4:	3c0d0c23 	lui	t5,0xc23
    72b8:	35ad5ca6 	ori	t5,t5,0x5ca6
    72bc:	160d0fdd 	bne	s0,t5,b234 <inst_error>
    72c0:	00000000 	nop
    72c4:	00000000 	nop
    72c8:	3c0c08da 	lui	t4,0x8da
    72cc:	358cd9f0 	ori	t4,t4,0xd9f0
    72d0:	164c0fd8 	bne	s2,t4,b234 <inst_error>
    72d4:	00000000 	nop
    72d8:	00000000 	nop
    72dc:	26b50008 	addiu	s5,s5,8
    72e0:	16950fd4 	bne	s4,s5,b234 <inst_error>
    72e4:	00000000 	nop
    72e8:	00000000 	nop
    72ec:	001fb021 	addu	s6,zero,ra
    72f0:	3c0c0027 	lui	t4,0x27
    72f4:	358c58af 	ori	t4,t4,0x58af
    72f8:	3c0d4f22 	lui	t5,0x4f22
    72fc:	35ad95d4 	ori	t5,t5,0x95d4
    7300:	24100000 	li	s0,0
    7304:	3c080000 	lui	t0,0x0
    7308:	25087320 	addiu	t0,t0,29472
    730c:	3c090000 	lui	t1,0x0
    7310:	25297380 	addiu	t1,t1,29568
    7314:	10000013 	b	7364 <n40_jalr_test+0x7364>
    7318:	24120000 	li	s2,0
    731c:	00000000 	nop
    7320:	3c100027 	lui	s0,0x27
    7324:	361058af 	ori	s0,s0,0x58af
    7328:	0120f809 	jalr	t1
    732c:	00000000 	nop
    7330:	10000015 	b	7388 <n40_jalr_test+0x7388>
    7334:	00000000 	nop
    7338:	00000000 	nop
    733c:	00000021 	move	zero,zero
    7340:	00000021 	move	zero,zero
    7344:	00000021 	move	zero,zero
    7348:	00000021 	move	zero,zero
    734c:	00000021 	move	zero,zero
    7350:	00000021 	move	zero,zero
    7354:	00000021 	move	zero,zero
    7358:	00000021 	move	zero,zero
    735c:	00000021 	move	zero,zero
    7360:	00000021 	move	zero,zero
    7364:	0100f809 	jalr	t0
    7368:	00000000 	nop
    736c:	10000006 	b	7388 <n40_jalr_test+0x7388>
    7370:	00000000 	nop
    7374:	00000000 	nop
    7378:	00000021 	move	zero,zero
    737c:	00000021 	move	zero,zero
    7380:	3c124f22 	lui	s2,0x4f22
    7384:	365295d4 	ori	s2,s2,0x95d4
    7388:	001fa021 	addu	s4,zero,ra
    738c:	0016f821 	addu	ra,zero,s6
    7390:	3c150000 	lui	s5,0x0
    7394:	26b57328 	addiu	s5,s5,29480
    7398:	3c0d0027 	lui	t5,0x27
    739c:	35ad58af 	ori	t5,t5,0x58af
    73a0:	160d0fa4 	bne	s0,t5,b234 <inst_error>
    73a4:	00000000 	nop
    73a8:	00000000 	nop
    73ac:	3c0c4f22 	lui	t4,0x4f22
    73b0:	358c95d4 	ori	t4,t4,0x95d4
    73b4:	164c0f9f 	bne	s2,t4,b234 <inst_error>
    73b8:	00000000 	nop
    73bc:	00000000 	nop
    73c0:	26b50008 	addiu	s5,s5,8
    73c4:	16950f9b 	bne	s4,s5,b234 <inst_error>
    73c8:	00000000 	nop
    73cc:	00000000 	nop
    73d0:	001fb021 	addu	s6,zero,ra
    73d4:	3c0ccb1c 	lui	t4,0xcb1c
    73d8:	358c7cd3 	ori	t4,t4,0x7cd3
    73dc:	3c0df1c1 	lui	t5,0xf1c1
    73e0:	35ad9a19 	ori	t5,t5,0x9a19
    73e4:	24100000 	li	s0,0
    73e8:	3c080000 	lui	t0,0x0
    73ec:	25087404 	addiu	t0,t0,29700
    73f0:	3c090000 	lui	t1,0x0
    73f4:	25297464 	addiu	t1,t1,29796
    73f8:	10000013 	b	7448 <n40_jalr_test+0x7448>
    73fc:	24120000 	li	s2,0
    7400:	00000000 	nop
    7404:	3c10cb1c 	lui	s0,0xcb1c
    7408:	36107cd3 	ori	s0,s0,0x7cd3
    740c:	0120f809 	jalr	t1
    7410:	00000000 	nop
    7414:	10000015 	b	746c <n40_jalr_test+0x746c>
    7418:	00000000 	nop
    741c:	00000000 	nop
    7420:	00000021 	move	zero,zero
    7424:	00000021 	move	zero,zero
    7428:	00000021 	move	zero,zero
    742c:	00000021 	move	zero,zero
    7430:	00000021 	move	zero,zero
    7434:	00000021 	move	zero,zero
    7438:	00000021 	move	zero,zero
    743c:	00000021 	move	zero,zero
    7440:	00000021 	move	zero,zero
    7444:	00000021 	move	zero,zero
    7448:	0100f809 	jalr	t0
    744c:	00000000 	nop
    7450:	10000006 	b	746c <n40_jalr_test+0x746c>
    7454:	00000000 	nop
    7458:	00000000 	nop
    745c:	00000021 	move	zero,zero
    7460:	00000021 	move	zero,zero
    7464:	3c12f1c1 	lui	s2,0xf1c1
    7468:	36529a19 	ori	s2,s2,0x9a19
    746c:	001fa021 	addu	s4,zero,ra
    7470:	0016f821 	addu	ra,zero,s6
    7474:	3c150000 	lui	s5,0x0
    7478:	26b5740c 	addiu	s5,s5,29708
    747c:	3c0dcb1c 	lui	t5,0xcb1c
    7480:	35ad7cd3 	ori	t5,t5,0x7cd3
    7484:	160d0f6b 	bne	s0,t5,b234 <inst_error>
    7488:	00000000 	nop
    748c:	00000000 	nop
    7490:	3c0cf1c1 	lui	t4,0xf1c1
    7494:	358c9a19 	ori	t4,t4,0x9a19
    7498:	164c0f66 	bne	s2,t4,b234 <inst_error>
    749c:	00000000 	nop
    74a0:	00000000 	nop
    74a4:	26b50008 	addiu	s5,s5,8
    74a8:	16950f62 	bne	s4,s5,b234 <inst_error>
    74ac:	00000000 	nop
    74b0:	00000000 	nop
    74b4:	001fb021 	addu	s6,zero,ra
    74b8:	3c0c0503 	lui	t4,0x503
    74bc:	358cf3ca 	ori	t4,t4,0xf3ca
    74c0:	3c0dc5a0 	lui	t5,0xc5a0
    74c4:	35add14e 	ori	t5,t5,0xd14e
    74c8:	24100000 	li	s0,0
    74cc:	3c080000 	lui	t0,0x0
    74d0:	250874e8 	addiu	t0,t0,29928
    74d4:	3c090000 	lui	t1,0x0
    74d8:	25297548 	addiu	t1,t1,30024
    74dc:	10000013 	b	752c <n40_jalr_test+0x752c>
    74e0:	24120000 	li	s2,0
    74e4:	00000000 	nop
    74e8:	3c100503 	lui	s0,0x503
    74ec:	3610f3ca 	ori	s0,s0,0xf3ca
    74f0:	0120f809 	jalr	t1
    74f4:	00000000 	nop
    74f8:	10000015 	b	7550 <n40_jalr_test+0x7550>
    74fc:	00000000 	nop
    7500:	00000000 	nop
    7504:	00000021 	move	zero,zero
    7508:	00000021 	move	zero,zero
    750c:	00000021 	move	zero,zero
    7510:	00000021 	move	zero,zero
    7514:	00000021 	move	zero,zero
    7518:	00000021 	move	zero,zero
    751c:	00000021 	move	zero,zero
    7520:	00000021 	move	zero,zero
    7524:	00000021 	move	zero,zero
    7528:	00000021 	move	zero,zero
    752c:	0100f809 	jalr	t0
    7530:	00000000 	nop
    7534:	10000006 	b	7550 <n40_jalr_test+0x7550>
    7538:	00000000 	nop
    753c:	00000000 	nop
    7540:	00000021 	move	zero,zero
    7544:	00000021 	move	zero,zero
    7548:	3c12c5a0 	lui	s2,0xc5a0
    754c:	3652d14e 	ori	s2,s2,0xd14e
    7550:	001fa021 	addu	s4,zero,ra
    7554:	0016f821 	addu	ra,zero,s6
    7558:	3c150000 	lui	s5,0x0
    755c:	26b574f0 	addiu	s5,s5,29936
    7560:	3c0d0503 	lui	t5,0x503
    7564:	35adf3ca 	ori	t5,t5,0xf3ca
    7568:	160d0f32 	bne	s0,t5,b234 <inst_error>
    756c:	00000000 	nop
    7570:	00000000 	nop
    7574:	3c0cc5a0 	lui	t4,0xc5a0
    7578:	358cd14e 	ori	t4,t4,0xd14e
    757c:	164c0f2d 	bne	s2,t4,b234 <inst_error>
    7580:	00000000 	nop
    7584:	00000000 	nop
    7588:	26b50008 	addiu	s5,s5,8
    758c:	16950f29 	bne	s4,s5,b234 <inst_error>
    7590:	00000000 	nop
    7594:	00000000 	nop
    7598:	001fb021 	addu	s6,zero,ra
    759c:	3c0cea7e 	lui	t4,0xea7e
    75a0:	358ca380 	ori	t4,t4,0xa380
    75a4:	3c0df200 	lui	t5,0xf200
    75a8:	35add2c8 	ori	t5,t5,0xd2c8
    75ac:	24100000 	li	s0,0
    75b0:	3c080000 	lui	t0,0x0
    75b4:	250875cc 	addiu	t0,t0,30156
    75b8:	3c090000 	lui	t1,0x0
    75bc:	2529762c 	addiu	t1,t1,30252
    75c0:	10000013 	b	7610 <n40_jalr_test+0x7610>
    75c4:	24120000 	li	s2,0
    75c8:	00000000 	nop
    75cc:	3c10ea7e 	lui	s0,0xea7e
    75d0:	3610a380 	ori	s0,s0,0xa380
    75d4:	0120f809 	jalr	t1
    75d8:	00000000 	nop
    75dc:	10000015 	b	7634 <n40_jalr_test+0x7634>
    75e0:	00000000 	nop
    75e4:	00000000 	nop
    75e8:	00000021 	move	zero,zero
    75ec:	00000021 	move	zero,zero
    75f0:	00000021 	move	zero,zero
    75f4:	00000021 	move	zero,zero
    75f8:	00000021 	move	zero,zero
    75fc:	00000021 	move	zero,zero
    7600:	00000021 	move	zero,zero
    7604:	00000021 	move	zero,zero
    7608:	00000021 	move	zero,zero
    760c:	00000021 	move	zero,zero
    7610:	0100f809 	jalr	t0
    7614:	00000000 	nop
    7618:	10000006 	b	7634 <n40_jalr_test+0x7634>
    761c:	00000000 	nop
    7620:	00000000 	nop
    7624:	00000021 	move	zero,zero
    7628:	00000021 	move	zero,zero
    762c:	3c12f200 	lui	s2,0xf200
    7630:	3652d2c8 	ori	s2,s2,0xd2c8
    7634:	001fa021 	addu	s4,zero,ra
    7638:	0016f821 	addu	ra,zero,s6
    763c:	3c150000 	lui	s5,0x0
    7640:	26b575d4 	addiu	s5,s5,30164
    7644:	3c0dea7e 	lui	t5,0xea7e
    7648:	35ada380 	ori	t5,t5,0xa380
    764c:	160d0ef9 	bne	s0,t5,b234 <inst_error>
    7650:	00000000 	nop
    7654:	00000000 	nop
    7658:	3c0cf200 	lui	t4,0xf200
    765c:	358cd2c8 	ori	t4,t4,0xd2c8
    7660:	164c0ef4 	bne	s2,t4,b234 <inst_error>
    7664:	00000000 	nop
    7668:	00000000 	nop
    766c:	26b50008 	addiu	s5,s5,8
    7670:	16950ef0 	bne	s4,s5,b234 <inst_error>
    7674:	00000000 	nop
    7678:	00000000 	nop
    767c:	001fb021 	addu	s6,zero,ra
    7680:	3c0cb35a 	lui	t4,0xb35a
    7684:	358ca088 	ori	t4,t4,0xa088
    7688:	3c0d9b4c 	lui	t5,0x9b4c
    768c:	35ad1034 	ori	t5,t5,0x1034
    7690:	24100000 	li	s0,0
    7694:	3c080000 	lui	t0,0x0
    7698:	250876b0 	addiu	t0,t0,30384
    769c:	3c090000 	lui	t1,0x0
    76a0:	25297710 	addiu	t1,t1,30480
    76a4:	10000013 	b	76f4 <n40_jalr_test+0x76f4>
    76a8:	24120000 	li	s2,0
    76ac:	00000000 	nop
    76b0:	3c10b35a 	lui	s0,0xb35a
    76b4:	3610a088 	ori	s0,s0,0xa088
    76b8:	0120f809 	jalr	t1
    76bc:	00000000 	nop
    76c0:	10000015 	b	7718 <n40_jalr_test+0x7718>
    76c4:	00000000 	nop
    76c8:	00000000 	nop
    76cc:	00000021 	move	zero,zero
    76d0:	00000021 	move	zero,zero
    76d4:	00000021 	move	zero,zero
    76d8:	00000021 	move	zero,zero
    76dc:	00000021 	move	zero,zero
    76e0:	00000021 	move	zero,zero
    76e4:	00000021 	move	zero,zero
    76e8:	00000021 	move	zero,zero
    76ec:	00000021 	move	zero,zero
    76f0:	00000021 	move	zero,zero
    76f4:	0100f809 	jalr	t0
    76f8:	00000000 	nop
    76fc:	10000006 	b	7718 <n40_jalr_test+0x7718>
    7700:	00000000 	nop
    7704:	00000000 	nop
    7708:	00000021 	move	zero,zero
    770c:	00000021 	move	zero,zero
    7710:	3c129b4c 	lui	s2,0x9b4c
    7714:	36521034 	ori	s2,s2,0x1034
    7718:	001fa021 	addu	s4,zero,ra
    771c:	0016f821 	addu	ra,zero,s6
    7720:	3c150000 	lui	s5,0x0
    7724:	26b576b8 	addiu	s5,s5,30392
    7728:	3c0db35a 	lui	t5,0xb35a
    772c:	35ada088 	ori	t5,t5,0xa088
    7730:	160d0ec0 	bne	s0,t5,b234 <inst_error>
    7734:	00000000 	nop
    7738:	00000000 	nop
    773c:	3c0c9b4c 	lui	t4,0x9b4c
    7740:	358c1034 	ori	t4,t4,0x1034
    7744:	164c0ebb 	bne	s2,t4,b234 <inst_error>
    7748:	00000000 	nop
    774c:	00000000 	nop
    7750:	26b50008 	addiu	s5,s5,8
    7754:	16950eb7 	bne	s4,s5,b234 <inst_error>
    7758:	00000000 	nop
    775c:	00000000 	nop
    7760:	001fb021 	addu	s6,zero,ra
    7764:	3c0c524c 	lui	t4,0x524c
    7768:	358cf520 	ori	t4,t4,0xf520
    776c:	3c0d6066 	lui	t5,0x6066
    7770:	35adb320 	ori	t5,t5,0xb320
    7774:	24100000 	li	s0,0
    7778:	3c080000 	lui	t0,0x0
    777c:	25087794 	addiu	t0,t0,30612
    7780:	3c090000 	lui	t1,0x0
    7784:	252977f4 	addiu	t1,t1,30708
    7788:	10000013 	b	77d8 <n40_jalr_test+0x77d8>
    778c:	24120000 	li	s2,0
    7790:	00000000 	nop
    7794:	3c10524c 	lui	s0,0x524c
    7798:	3610f520 	ori	s0,s0,0xf520
    779c:	0120f809 	jalr	t1
    77a0:	00000000 	nop
    77a4:	10000015 	b	77fc <n40_jalr_test+0x77fc>
    77a8:	00000000 	nop
    77ac:	00000000 	nop
    77b0:	00000021 	move	zero,zero
    77b4:	00000021 	move	zero,zero
    77b8:	00000021 	move	zero,zero
    77bc:	00000021 	move	zero,zero
    77c0:	00000021 	move	zero,zero
    77c4:	00000021 	move	zero,zero
    77c8:	00000021 	move	zero,zero
    77cc:	00000021 	move	zero,zero
    77d0:	00000021 	move	zero,zero
    77d4:	00000021 	move	zero,zero
    77d8:	0100f809 	jalr	t0
    77dc:	00000000 	nop
    77e0:	10000006 	b	77fc <n40_jalr_test+0x77fc>
    77e4:	00000000 	nop
    77e8:	00000000 	nop
    77ec:	00000021 	move	zero,zero
    77f0:	00000021 	move	zero,zero
    77f4:	3c126066 	lui	s2,0x6066
    77f8:	3652b320 	ori	s2,s2,0xb320
    77fc:	001fa021 	addu	s4,zero,ra
    7800:	0016f821 	addu	ra,zero,s6
    7804:	3c150000 	lui	s5,0x0
    7808:	26b5779c 	addiu	s5,s5,30620
    780c:	3c0d524c 	lui	t5,0x524c
    7810:	35adf520 	ori	t5,t5,0xf520
    7814:	160d0e87 	bne	s0,t5,b234 <inst_error>
    7818:	00000000 	nop
    781c:	00000000 	nop
    7820:	3c0c6066 	lui	t4,0x6066
    7824:	358cb320 	ori	t4,t4,0xb320
    7828:	164c0e82 	bne	s2,t4,b234 <inst_error>
    782c:	00000000 	nop
    7830:	00000000 	nop
    7834:	26b50008 	addiu	s5,s5,8
    7838:	16950e7e 	bne	s4,s5,b234 <inst_error>
    783c:	00000000 	nop
    7840:	00000000 	nop
    7844:	001fb021 	addu	s6,zero,ra
    7848:	3c0c9300 	lui	t4,0x9300
    784c:	358ced06 	ori	t4,t4,0xed06
    7850:	3c0d17d0 	lui	t5,0x17d0
    7854:	35ad8cb4 	ori	t5,t5,0x8cb4
    7858:	24100000 	li	s0,0
    785c:	3c080000 	lui	t0,0x0
    7860:	25087878 	addiu	t0,t0,30840
    7864:	3c090000 	lui	t1,0x0
    7868:	252978d8 	addiu	t1,t1,30936
    786c:	10000013 	b	78bc <n40_jalr_test+0x78bc>
    7870:	24120000 	li	s2,0
    7874:	00000000 	nop
    7878:	3c109300 	lui	s0,0x9300
    787c:	3610ed06 	ori	s0,s0,0xed06
    7880:	0120f809 	jalr	t1
    7884:	00000000 	nop
    7888:	10000015 	b	78e0 <n40_jalr_test+0x78e0>
    788c:	00000000 	nop
    7890:	00000000 	nop
    7894:	00000021 	move	zero,zero
    7898:	00000021 	move	zero,zero
    789c:	00000021 	move	zero,zero
    78a0:	00000021 	move	zero,zero
    78a4:	00000021 	move	zero,zero
    78a8:	00000021 	move	zero,zero
    78ac:	00000021 	move	zero,zero
    78b0:	00000021 	move	zero,zero
    78b4:	00000021 	move	zero,zero
    78b8:	00000021 	move	zero,zero
    78bc:	0100f809 	jalr	t0
    78c0:	00000000 	nop
    78c4:	10000006 	b	78e0 <n40_jalr_test+0x78e0>
    78c8:	00000000 	nop
    78cc:	00000000 	nop
    78d0:	00000021 	move	zero,zero
    78d4:	00000021 	move	zero,zero
    78d8:	3c1217d0 	lui	s2,0x17d0
    78dc:	36528cb4 	ori	s2,s2,0x8cb4
    78e0:	001fa021 	addu	s4,zero,ra
    78e4:	0016f821 	addu	ra,zero,s6
    78e8:	3c150000 	lui	s5,0x0
    78ec:	26b57880 	addiu	s5,s5,30848
    78f0:	3c0d9300 	lui	t5,0x9300
    78f4:	35aded06 	ori	t5,t5,0xed06
    78f8:	160d0e4e 	bne	s0,t5,b234 <inst_error>
    78fc:	00000000 	nop
    7900:	00000000 	nop
    7904:	3c0c17d0 	lui	t4,0x17d0
    7908:	358c8cb4 	ori	t4,t4,0x8cb4
    790c:	164c0e49 	bne	s2,t4,b234 <inst_error>
    7910:	00000000 	nop
    7914:	00000000 	nop
    7918:	26b50008 	addiu	s5,s5,8
    791c:	16950e45 	bne	s4,s5,b234 <inst_error>
    7920:	00000000 	nop
    7924:	00000000 	nop
    7928:	001fb021 	addu	s6,zero,ra
    792c:	3c0c6686 	lui	t4,0x6686
    7930:	358cce3c 	ori	t4,t4,0xce3c
    7934:	3c0da49a 	lui	t5,0xa49a
    7938:	35adce88 	ori	t5,t5,0xce88
    793c:	24100000 	li	s0,0
    7940:	3c080000 	lui	t0,0x0
    7944:	2508795c 	addiu	t0,t0,31068
    7948:	3c090000 	lui	t1,0x0
    794c:	252979bc 	addiu	t1,t1,31164
    7950:	10000013 	b	79a0 <n40_jalr_test+0x79a0>
    7954:	24120000 	li	s2,0
    7958:	00000000 	nop
    795c:	3c106686 	lui	s0,0x6686
    7960:	3610ce3c 	ori	s0,s0,0xce3c
    7964:	0120f809 	jalr	t1
    7968:	00000000 	nop
    796c:	10000015 	b	79c4 <n40_jalr_test+0x79c4>
    7970:	00000000 	nop
    7974:	00000000 	nop
    7978:	00000021 	move	zero,zero
    797c:	00000021 	move	zero,zero
    7980:	00000021 	move	zero,zero
    7984:	00000021 	move	zero,zero
    7988:	00000021 	move	zero,zero
    798c:	00000021 	move	zero,zero
    7990:	00000021 	move	zero,zero
    7994:	00000021 	move	zero,zero
    7998:	00000021 	move	zero,zero
    799c:	00000021 	move	zero,zero
    79a0:	0100f809 	jalr	t0
    79a4:	00000000 	nop
    79a8:	10000006 	b	79c4 <n40_jalr_test+0x79c4>
    79ac:	00000000 	nop
    79b0:	00000000 	nop
    79b4:	00000021 	move	zero,zero
    79b8:	00000021 	move	zero,zero
    79bc:	3c12a49a 	lui	s2,0xa49a
    79c0:	3652ce88 	ori	s2,s2,0xce88
    79c4:	001fa021 	addu	s4,zero,ra
    79c8:	0016f821 	addu	ra,zero,s6
    79cc:	3c150000 	lui	s5,0x0
    79d0:	26b57964 	addiu	s5,s5,31076
    79d4:	3c0d6686 	lui	t5,0x6686
    79d8:	35adce3c 	ori	t5,t5,0xce3c
    79dc:	160d0e15 	bne	s0,t5,b234 <inst_error>
    79e0:	00000000 	nop
    79e4:	00000000 	nop
    79e8:	3c0ca49a 	lui	t4,0xa49a
    79ec:	358cce88 	ori	t4,t4,0xce88
    79f0:	164c0e10 	bne	s2,t4,b234 <inst_error>
    79f4:	00000000 	nop
    79f8:	00000000 	nop
    79fc:	26b50008 	addiu	s5,s5,8
    7a00:	16950e0c 	bne	s4,s5,b234 <inst_error>
    7a04:	00000000 	nop
    7a08:	00000000 	nop
    7a0c:	001fb021 	addu	s6,zero,ra
    7a10:	3c0c6499 	lui	t4,0x6499
    7a14:	358cfc7a 	ori	t4,t4,0xfc7a
    7a18:	3c0daf67 	lui	t5,0xaf67
    7a1c:	35ad1f66 	ori	t5,t5,0x1f66
    7a20:	24100000 	li	s0,0
    7a24:	3c080000 	lui	t0,0x0
    7a28:	25087a40 	addiu	t0,t0,31296
    7a2c:	3c090000 	lui	t1,0x0
    7a30:	25297aa0 	addiu	t1,t1,31392
    7a34:	10000013 	b	7a84 <n40_jalr_test+0x7a84>
    7a38:	24120000 	li	s2,0
    7a3c:	00000000 	nop
    7a40:	3c106499 	lui	s0,0x6499
    7a44:	3610fc7a 	ori	s0,s0,0xfc7a
    7a48:	0120f809 	jalr	t1
    7a4c:	00000000 	nop
    7a50:	10000015 	b	7aa8 <n40_jalr_test+0x7aa8>
    7a54:	00000000 	nop
    7a58:	00000000 	nop
    7a5c:	00000021 	move	zero,zero
    7a60:	00000021 	move	zero,zero
    7a64:	00000021 	move	zero,zero
    7a68:	00000021 	move	zero,zero
    7a6c:	00000021 	move	zero,zero
    7a70:	00000021 	move	zero,zero
    7a74:	00000021 	move	zero,zero
    7a78:	00000021 	move	zero,zero
    7a7c:	00000021 	move	zero,zero
    7a80:	00000021 	move	zero,zero
    7a84:	0100f809 	jalr	t0
    7a88:	00000000 	nop
    7a8c:	10000006 	b	7aa8 <n40_jalr_test+0x7aa8>
    7a90:	00000000 	nop
    7a94:	00000000 	nop
    7a98:	00000021 	move	zero,zero
    7a9c:	00000021 	move	zero,zero
    7aa0:	3c12af67 	lui	s2,0xaf67
    7aa4:	36521f66 	ori	s2,s2,0x1f66
    7aa8:	001fa021 	addu	s4,zero,ra
    7aac:	0016f821 	addu	ra,zero,s6
    7ab0:	3c150000 	lui	s5,0x0
    7ab4:	26b57a48 	addiu	s5,s5,31304
    7ab8:	3c0d6499 	lui	t5,0x6499
    7abc:	35adfc7a 	ori	t5,t5,0xfc7a
    7ac0:	160d0ddc 	bne	s0,t5,b234 <inst_error>
    7ac4:	00000000 	nop
    7ac8:	00000000 	nop
    7acc:	3c0caf67 	lui	t4,0xaf67
    7ad0:	358c1f66 	ori	t4,t4,0x1f66
    7ad4:	164c0dd7 	bne	s2,t4,b234 <inst_error>
    7ad8:	00000000 	nop
    7adc:	00000000 	nop
    7ae0:	26b50008 	addiu	s5,s5,8
    7ae4:	16950dd3 	bne	s4,s5,b234 <inst_error>
    7ae8:	00000000 	nop
    7aec:	00000000 	nop
    7af0:	001fb021 	addu	s6,zero,ra
    7af4:	3c0cd7f6 	lui	t4,0xd7f6
    7af8:	358c3668 	ori	t4,t4,0x3668
    7afc:	3c0d8506 	lui	t5,0x8506
    7b00:	35ad3ab8 	ori	t5,t5,0x3ab8
    7b04:	24100000 	li	s0,0
    7b08:	3c080000 	lui	t0,0x0
    7b0c:	25087b24 	addiu	t0,t0,31524
    7b10:	3c090000 	lui	t1,0x0
    7b14:	25297b84 	addiu	t1,t1,31620
    7b18:	10000013 	b	7b68 <n40_jalr_test+0x7b68>
    7b1c:	24120000 	li	s2,0
    7b20:	00000000 	nop
    7b24:	3c10d7f6 	lui	s0,0xd7f6
    7b28:	36103668 	ori	s0,s0,0x3668
    7b2c:	0120f809 	jalr	t1
    7b30:	00000000 	nop
    7b34:	10000015 	b	7b8c <n40_jalr_test+0x7b8c>
    7b38:	00000000 	nop
    7b3c:	00000000 	nop
    7b40:	00000021 	move	zero,zero
    7b44:	00000021 	move	zero,zero
    7b48:	00000021 	move	zero,zero
    7b4c:	00000021 	move	zero,zero
    7b50:	00000021 	move	zero,zero
    7b54:	00000021 	move	zero,zero
    7b58:	00000021 	move	zero,zero
    7b5c:	00000021 	move	zero,zero
    7b60:	00000021 	move	zero,zero
    7b64:	00000021 	move	zero,zero
    7b68:	0100f809 	jalr	t0
    7b6c:	00000000 	nop
    7b70:	10000006 	b	7b8c <n40_jalr_test+0x7b8c>
    7b74:	00000000 	nop
    7b78:	00000000 	nop
    7b7c:	00000021 	move	zero,zero
    7b80:	00000021 	move	zero,zero
    7b84:	3c128506 	lui	s2,0x8506
    7b88:	36523ab8 	ori	s2,s2,0x3ab8
    7b8c:	001fa021 	addu	s4,zero,ra
    7b90:	0016f821 	addu	ra,zero,s6
    7b94:	3c150000 	lui	s5,0x0
    7b98:	26b57b2c 	addiu	s5,s5,31532
    7b9c:	3c0dd7f6 	lui	t5,0xd7f6
    7ba0:	35ad3668 	ori	t5,t5,0x3668
    7ba4:	160d0da3 	bne	s0,t5,b234 <inst_error>
    7ba8:	00000000 	nop
    7bac:	00000000 	nop
    7bb0:	3c0c8506 	lui	t4,0x8506
    7bb4:	358c3ab8 	ori	t4,t4,0x3ab8
    7bb8:	164c0d9e 	bne	s2,t4,b234 <inst_error>
    7bbc:	00000000 	nop
    7bc0:	00000000 	nop
    7bc4:	26b50008 	addiu	s5,s5,8
    7bc8:	16950d9a 	bne	s4,s5,b234 <inst_error>
    7bcc:	00000000 	nop
    7bd0:	00000000 	nop
    7bd4:	001fb021 	addu	s6,zero,ra
    7bd8:	3c0c1cb4 	lui	t4,0x1cb4
    7bdc:	358cafc0 	ori	t4,t4,0xafc0
    7be0:	3c0d66cc 	lui	t5,0x66cc
    7be4:	35ad792c 	ori	t5,t5,0x792c
    7be8:	24100000 	li	s0,0
    7bec:	3c080000 	lui	t0,0x0
    7bf0:	25087c08 	addiu	t0,t0,31752
    7bf4:	3c090000 	lui	t1,0x0
    7bf8:	25297c68 	addiu	t1,t1,31848
    7bfc:	10000013 	b	7c4c <n40_jalr_test+0x7c4c>
    7c00:	24120000 	li	s2,0
    7c04:	00000000 	nop
    7c08:	3c101cb4 	lui	s0,0x1cb4
    7c0c:	3610afc0 	ori	s0,s0,0xafc0
    7c10:	0120f809 	jalr	t1
    7c14:	00000000 	nop
    7c18:	10000015 	b	7c70 <n40_jalr_test+0x7c70>
    7c1c:	00000000 	nop
    7c20:	00000000 	nop
    7c24:	00000021 	move	zero,zero
    7c28:	00000021 	move	zero,zero
    7c2c:	00000021 	move	zero,zero
    7c30:	00000021 	move	zero,zero
    7c34:	00000021 	move	zero,zero
    7c38:	00000021 	move	zero,zero
    7c3c:	00000021 	move	zero,zero
    7c40:	00000021 	move	zero,zero
    7c44:	00000021 	move	zero,zero
    7c48:	00000021 	move	zero,zero
    7c4c:	0100f809 	jalr	t0
    7c50:	00000000 	nop
    7c54:	10000006 	b	7c70 <n40_jalr_test+0x7c70>
    7c58:	00000000 	nop
    7c5c:	00000000 	nop
    7c60:	00000021 	move	zero,zero
    7c64:	00000021 	move	zero,zero
    7c68:	3c1266cc 	lui	s2,0x66cc
    7c6c:	3652792c 	ori	s2,s2,0x792c
    7c70:	001fa021 	addu	s4,zero,ra
    7c74:	0016f821 	addu	ra,zero,s6
    7c78:	3c150000 	lui	s5,0x0
    7c7c:	26b57c10 	addiu	s5,s5,31760
    7c80:	3c0d1cb4 	lui	t5,0x1cb4
    7c84:	35adafc0 	ori	t5,t5,0xafc0
    7c88:	160d0d6a 	bne	s0,t5,b234 <inst_error>
    7c8c:	00000000 	nop
    7c90:	00000000 	nop
    7c94:	3c0c66cc 	lui	t4,0x66cc
    7c98:	358c792c 	ori	t4,t4,0x792c
    7c9c:	164c0d65 	bne	s2,t4,b234 <inst_error>
    7ca0:	00000000 	nop
    7ca4:	00000000 	nop
    7ca8:	26b50008 	addiu	s5,s5,8
    7cac:	16950d61 	bne	s4,s5,b234 <inst_error>
    7cb0:	00000000 	nop
    7cb4:	00000000 	nop
    7cb8:	001fb021 	addu	s6,zero,ra
    7cbc:	3c0c60fa 	lui	t4,0x60fa
    7cc0:	358c0e0a 	ori	t4,t4,0xe0a
    7cc4:	3c0dd870 	lui	t5,0xd870
    7cc8:	35ad6ed8 	ori	t5,t5,0x6ed8
    7ccc:	24100000 	li	s0,0
    7cd0:	3c080000 	lui	t0,0x0
    7cd4:	25087cec 	addiu	t0,t0,31980
    7cd8:	3c090000 	lui	t1,0x0
    7cdc:	25297d4c 	addiu	t1,t1,32076
    7ce0:	10000013 	b	7d30 <n40_jalr_test+0x7d30>
    7ce4:	24120000 	li	s2,0
    7ce8:	00000000 	nop
    7cec:	3c1060fa 	lui	s0,0x60fa
    7cf0:	36100e0a 	ori	s0,s0,0xe0a
    7cf4:	0120f809 	jalr	t1
    7cf8:	00000000 	nop
    7cfc:	10000015 	b	7d54 <n40_jalr_test+0x7d54>
    7d00:	00000000 	nop
    7d04:	00000000 	nop
    7d08:	00000021 	move	zero,zero
    7d0c:	00000021 	move	zero,zero
    7d10:	00000021 	move	zero,zero
    7d14:	00000021 	move	zero,zero
    7d18:	00000021 	move	zero,zero
    7d1c:	00000021 	move	zero,zero
    7d20:	00000021 	move	zero,zero
    7d24:	00000021 	move	zero,zero
    7d28:	00000021 	move	zero,zero
    7d2c:	00000021 	move	zero,zero
    7d30:	0100f809 	jalr	t0
    7d34:	00000000 	nop
    7d38:	10000006 	b	7d54 <n40_jalr_test+0x7d54>
    7d3c:	00000000 	nop
    7d40:	00000000 	nop
    7d44:	00000021 	move	zero,zero
    7d48:	00000021 	move	zero,zero
    7d4c:	3c12d870 	lui	s2,0xd870
    7d50:	36526ed8 	ori	s2,s2,0x6ed8
    7d54:	001fa021 	addu	s4,zero,ra
    7d58:	0016f821 	addu	ra,zero,s6
    7d5c:	3c150000 	lui	s5,0x0
    7d60:	26b57cf4 	addiu	s5,s5,31988
    7d64:	3c0d60fa 	lui	t5,0x60fa
    7d68:	35ad0e0a 	ori	t5,t5,0xe0a
    7d6c:	160d0d31 	bne	s0,t5,b234 <inst_error>
    7d70:	00000000 	nop
    7d74:	00000000 	nop
    7d78:	3c0cd870 	lui	t4,0xd870
    7d7c:	358c6ed8 	ori	t4,t4,0x6ed8
    7d80:	164c0d2c 	bne	s2,t4,b234 <inst_error>
    7d84:	00000000 	nop
    7d88:	00000000 	nop
    7d8c:	26b50008 	addiu	s5,s5,8
    7d90:	16950d28 	bne	s4,s5,b234 <inst_error>
    7d94:	00000000 	nop
    7d98:	00000000 	nop
    7d9c:	001fb021 	addu	s6,zero,ra
    7da0:	3c0c00c1 	lui	t4,0xc1
    7da4:	358c7a40 	ori	t4,t4,0x7a40
    7da8:	3c0dbe7d 	lui	t5,0xbe7d
    7dac:	35ad2bc0 	ori	t5,t5,0x2bc0
    7db0:	24100000 	li	s0,0
    7db4:	3c080000 	lui	t0,0x0
    7db8:	25087dd0 	addiu	t0,t0,32208
    7dbc:	3c090000 	lui	t1,0x0
    7dc0:	25297e30 	addiu	t1,t1,32304
    7dc4:	10000013 	b	7e14 <n40_jalr_test+0x7e14>
    7dc8:	24120000 	li	s2,0
    7dcc:	00000000 	nop
    7dd0:	3c1000c1 	lui	s0,0xc1
    7dd4:	36107a40 	ori	s0,s0,0x7a40
    7dd8:	0120f809 	jalr	t1
    7ddc:	00000000 	nop
    7de0:	10000015 	b	7e38 <n40_jalr_test+0x7e38>
    7de4:	00000000 	nop
    7de8:	00000000 	nop
    7dec:	00000021 	move	zero,zero
    7df0:	00000021 	move	zero,zero
    7df4:	00000021 	move	zero,zero
    7df8:	00000021 	move	zero,zero
    7dfc:	00000021 	move	zero,zero
    7e00:	00000021 	move	zero,zero
    7e04:	00000021 	move	zero,zero
    7e08:	00000021 	move	zero,zero
    7e0c:	00000021 	move	zero,zero
    7e10:	00000021 	move	zero,zero
    7e14:	0100f809 	jalr	t0
    7e18:	00000000 	nop
    7e1c:	10000006 	b	7e38 <n40_jalr_test+0x7e38>
    7e20:	00000000 	nop
    7e24:	00000000 	nop
    7e28:	00000021 	move	zero,zero
    7e2c:	00000021 	move	zero,zero
    7e30:	3c12be7d 	lui	s2,0xbe7d
    7e34:	36522bc0 	ori	s2,s2,0x2bc0
    7e38:	001fa021 	addu	s4,zero,ra
    7e3c:	0016f821 	addu	ra,zero,s6
    7e40:	3c150000 	lui	s5,0x0
    7e44:	26b57dd8 	addiu	s5,s5,32216
    7e48:	3c0d00c1 	lui	t5,0xc1
    7e4c:	35ad7a40 	ori	t5,t5,0x7a40
    7e50:	160d0cf8 	bne	s0,t5,b234 <inst_error>
    7e54:	00000000 	nop
    7e58:	00000000 	nop
    7e5c:	3c0cbe7d 	lui	t4,0xbe7d
    7e60:	358c2bc0 	ori	t4,t4,0x2bc0
    7e64:	164c0cf3 	bne	s2,t4,b234 <inst_error>
    7e68:	00000000 	nop
    7e6c:	00000000 	nop
    7e70:	26b50008 	addiu	s5,s5,8
    7e74:	16950cef 	bne	s4,s5,b234 <inst_error>
    7e78:	00000000 	nop
    7e7c:	00000000 	nop
    7e80:	001fb021 	addu	s6,zero,ra
    7e84:	3c0c9afa 	lui	t4,0x9afa
    7e88:	358c9d98 	ori	t4,t4,0x9d98
    7e8c:	3c0d980b 	lui	t5,0x980b
    7e90:	35ad0c54 	ori	t5,t5,0xc54
    7e94:	24100000 	li	s0,0
    7e98:	3c080000 	lui	t0,0x0
    7e9c:	25087eb4 	addiu	t0,t0,32436
    7ea0:	3c090000 	lui	t1,0x0
    7ea4:	25297f14 	addiu	t1,t1,32532
    7ea8:	10000013 	b	7ef8 <n40_jalr_test+0x7ef8>
    7eac:	24120000 	li	s2,0
    7eb0:	00000000 	nop
    7eb4:	3c109afa 	lui	s0,0x9afa
    7eb8:	36109d98 	ori	s0,s0,0x9d98
    7ebc:	0120f809 	jalr	t1
    7ec0:	00000000 	nop
    7ec4:	10000015 	b	7f1c <n40_jalr_test+0x7f1c>
    7ec8:	00000000 	nop
    7ecc:	00000000 	nop
    7ed0:	00000021 	move	zero,zero
    7ed4:	00000021 	move	zero,zero
    7ed8:	00000021 	move	zero,zero
    7edc:	00000021 	move	zero,zero
    7ee0:	00000021 	move	zero,zero
    7ee4:	00000021 	move	zero,zero
    7ee8:	00000021 	move	zero,zero
    7eec:	00000021 	move	zero,zero
    7ef0:	00000021 	move	zero,zero
    7ef4:	00000021 	move	zero,zero
    7ef8:	0100f809 	jalr	t0
    7efc:	00000000 	nop
    7f00:	10000006 	b	7f1c <n40_jalr_test+0x7f1c>
    7f04:	00000000 	nop
    7f08:	00000000 	nop
    7f0c:	00000021 	move	zero,zero
    7f10:	00000021 	move	zero,zero
    7f14:	3c12980b 	lui	s2,0x980b
    7f18:	36520c54 	ori	s2,s2,0xc54
    7f1c:	001fa021 	addu	s4,zero,ra
    7f20:	0016f821 	addu	ra,zero,s6
    7f24:	3c150000 	lui	s5,0x0
    7f28:	26b57ebc 	addiu	s5,s5,32444
    7f2c:	3c0d9afa 	lui	t5,0x9afa
    7f30:	35ad9d98 	ori	t5,t5,0x9d98
    7f34:	160d0cbf 	bne	s0,t5,b234 <inst_error>
    7f38:	00000000 	nop
    7f3c:	00000000 	nop
    7f40:	3c0c980b 	lui	t4,0x980b
    7f44:	358c0c54 	ori	t4,t4,0xc54
    7f48:	164c0cba 	bne	s2,t4,b234 <inst_error>
    7f4c:	00000000 	nop
    7f50:	00000000 	nop
    7f54:	26b50008 	addiu	s5,s5,8
    7f58:	16950cb6 	bne	s4,s5,b234 <inst_error>
    7f5c:	00000000 	nop
    7f60:	00000000 	nop
    7f64:	001fb021 	addu	s6,zero,ra
    7f68:	3c0cce0b 	lui	t4,0xce0b
    7f6c:	358ce588 	ori	t4,t4,0xe588
    7f70:	3c0de44b 	lui	t5,0xe44b
    7f74:	35ad84f2 	ori	t5,t5,0x84f2
    7f78:	24100000 	li	s0,0
    7f7c:	3c080000 	lui	t0,0x0
    7f80:	25087f98 	addiu	t0,t0,32664
    7f84:	3c090000 	lui	t1,0x0
    7f88:	25297ff8 	addiu	t1,t1,32760
    7f8c:	10000013 	b	7fdc <n40_jalr_test+0x7fdc>
    7f90:	24120000 	li	s2,0
    7f94:	00000000 	nop
    7f98:	3c10ce0b 	lui	s0,0xce0b
    7f9c:	3610e588 	ori	s0,s0,0xe588
    7fa0:	0120f809 	jalr	t1
    7fa4:	00000000 	nop
    7fa8:	10000015 	b	8000 <n40_jalr_test+0x8000>
    7fac:	00000000 	nop
    7fb0:	00000000 	nop
    7fb4:	00000021 	move	zero,zero
    7fb8:	00000021 	move	zero,zero
    7fbc:	00000021 	move	zero,zero
    7fc0:	00000021 	move	zero,zero
    7fc4:	00000021 	move	zero,zero
    7fc8:	00000021 	move	zero,zero
    7fcc:	00000021 	move	zero,zero
    7fd0:	00000021 	move	zero,zero
    7fd4:	00000021 	move	zero,zero
    7fd8:	00000021 	move	zero,zero
    7fdc:	0100f809 	jalr	t0
    7fe0:	00000000 	nop
    7fe4:	10000006 	b	8000 <n40_jalr_test+0x8000>
    7fe8:	00000000 	nop
    7fec:	00000000 	nop
    7ff0:	00000021 	move	zero,zero
    7ff4:	00000021 	move	zero,zero
    7ff8:	3c12e44b 	lui	s2,0xe44b
    7ffc:	365284f2 	ori	s2,s2,0x84f2
    8000:	001fa021 	addu	s4,zero,ra
    8004:	0016f821 	addu	ra,zero,s6
    8008:	3c150000 	lui	s5,0x0
    800c:	26b57fa0 	addiu	s5,s5,32672
    8010:	3c0dce0b 	lui	t5,0xce0b
    8014:	35ade588 	ori	t5,t5,0xe588
    8018:	160d0c86 	bne	s0,t5,b234 <inst_error>
    801c:	00000000 	nop
    8020:	00000000 	nop
    8024:	3c0ce44b 	lui	t4,0xe44b
    8028:	358c84f2 	ori	t4,t4,0x84f2
    802c:	164c0c81 	bne	s2,t4,b234 <inst_error>
    8030:	00000000 	nop
    8034:	00000000 	nop
    8038:	26b50008 	addiu	s5,s5,8
    803c:	16950c7d 	bne	s4,s5,b234 <inst_error>
    8040:	00000000 	nop
    8044:	00000000 	nop
    8048:	001fb021 	addu	s6,zero,ra
    804c:	3c0c7970 	lui	t4,0x7970
    8050:	358c79e4 	ori	t4,t4,0x79e4
    8054:	3c0d8fbf 	lui	t5,0x8fbf
    8058:	35adb80d 	ori	t5,t5,0xb80d
    805c:	24100000 	li	s0,0
    8060:	3c080001 	lui	t0,0x1
    8064:	2508807c 	addiu	t0,t0,-32644
    8068:	3c090001 	lui	t1,0x1
    806c:	252980dc 	addiu	t1,t1,-32548
    8070:	10000013 	b	80c0 <n40_jalr_test+0x80c0>
    8074:	24120000 	li	s2,0
    8078:	00000000 	nop
    807c:	3c107970 	lui	s0,0x7970
    8080:	361079e4 	ori	s0,s0,0x79e4
    8084:	0120f809 	jalr	t1
    8088:	00000000 	nop
    808c:	10000015 	b	80e4 <n40_jalr_test+0x80e4>
    8090:	00000000 	nop
    8094:	00000000 	nop
    8098:	00000021 	move	zero,zero
    809c:	00000021 	move	zero,zero
    80a0:	00000021 	move	zero,zero
    80a4:	00000021 	move	zero,zero
    80a8:	00000021 	move	zero,zero
    80ac:	00000021 	move	zero,zero
    80b0:	00000021 	move	zero,zero
    80b4:	00000021 	move	zero,zero
    80b8:	00000021 	move	zero,zero
    80bc:	00000021 	move	zero,zero
    80c0:	0100f809 	jalr	t0
    80c4:	00000000 	nop
    80c8:	10000006 	b	80e4 <n40_jalr_test+0x80e4>
    80cc:	00000000 	nop
    80d0:	00000000 	nop
    80d4:	00000021 	move	zero,zero
    80d8:	00000021 	move	zero,zero
    80dc:	3c128fbf 	lui	s2,0x8fbf
    80e0:	3652b80d 	ori	s2,s2,0xb80d
    80e4:	001fa021 	addu	s4,zero,ra
    80e8:	0016f821 	addu	ra,zero,s6
    80ec:	3c150001 	lui	s5,0x1
    80f0:	26b58084 	addiu	s5,s5,-32636
    80f4:	3c0d7970 	lui	t5,0x7970
    80f8:	35ad79e4 	ori	t5,t5,0x79e4
    80fc:	160d0c4d 	bne	s0,t5,b234 <inst_error>
    8100:	00000000 	nop
    8104:	00000000 	nop
    8108:	3c0c8fbf 	lui	t4,0x8fbf
    810c:	358cb80d 	ori	t4,t4,0xb80d
    8110:	164c0c48 	bne	s2,t4,b234 <inst_error>
    8114:	00000000 	nop
    8118:	00000000 	nop
    811c:	26b50008 	addiu	s5,s5,8
    8120:	16950c44 	bne	s4,s5,b234 <inst_error>
    8124:	00000000 	nop
    8128:	00000000 	nop
    812c:	001fb021 	addu	s6,zero,ra
    8130:	3c0c116f 	lui	t4,0x116f
    8134:	358c4350 	ori	t4,t4,0x4350
    8138:	3c0de8af 	lui	t5,0xe8af
    813c:	35adc208 	ori	t5,t5,0xc208
    8140:	24100000 	li	s0,0
    8144:	3c080001 	lui	t0,0x1
    8148:	25088160 	addiu	t0,t0,-32416
    814c:	3c090001 	lui	t1,0x1
    8150:	252981c0 	addiu	t1,t1,-32320
    8154:	10000013 	b	81a4 <n40_jalr_test+0x81a4>
    8158:	24120000 	li	s2,0
    815c:	00000000 	nop
    8160:	3c10116f 	lui	s0,0x116f
    8164:	36104350 	ori	s0,s0,0x4350
    8168:	0120f809 	jalr	t1
    816c:	00000000 	nop
    8170:	10000015 	b	81c8 <n40_jalr_test+0x81c8>
    8174:	00000000 	nop
    8178:	00000000 	nop
    817c:	00000021 	move	zero,zero
    8180:	00000021 	move	zero,zero
    8184:	00000021 	move	zero,zero
    8188:	00000021 	move	zero,zero
    818c:	00000021 	move	zero,zero
    8190:	00000021 	move	zero,zero
    8194:	00000021 	move	zero,zero
    8198:	00000021 	move	zero,zero
    819c:	00000021 	move	zero,zero
    81a0:	00000021 	move	zero,zero
    81a4:	0100f809 	jalr	t0
    81a8:	00000000 	nop
    81ac:	10000006 	b	81c8 <n40_jalr_test+0x81c8>
    81b0:	00000000 	nop
    81b4:	00000000 	nop
    81b8:	00000021 	move	zero,zero
    81bc:	00000021 	move	zero,zero
    81c0:	3c12e8af 	lui	s2,0xe8af
    81c4:	3652c208 	ori	s2,s2,0xc208
    81c8:	001fa021 	addu	s4,zero,ra
    81cc:	0016f821 	addu	ra,zero,s6
    81d0:	3c150001 	lui	s5,0x1
    81d4:	26b58168 	addiu	s5,s5,-32408
    81d8:	3c0d116f 	lui	t5,0x116f
    81dc:	35ad4350 	ori	t5,t5,0x4350
    81e0:	160d0c14 	bne	s0,t5,b234 <inst_error>
    81e4:	00000000 	nop
    81e8:	00000000 	nop
    81ec:	3c0ce8af 	lui	t4,0xe8af
    81f0:	358cc208 	ori	t4,t4,0xc208
    81f4:	164c0c0f 	bne	s2,t4,b234 <inst_error>
    81f8:	00000000 	nop
    81fc:	00000000 	nop
    8200:	26b50008 	addiu	s5,s5,8
    8204:	16950c0b 	bne	s4,s5,b234 <inst_error>
    8208:	00000000 	nop
    820c:	00000000 	nop
    8210:	001fb021 	addu	s6,zero,ra
    8214:	3c0ce372 	lui	t4,0xe372
    8218:	358c9f6c 	ori	t4,t4,0x9f6c
    821c:	3c0d82fb 	lui	t5,0x82fb
    8220:	35adefc2 	ori	t5,t5,0xefc2
    8224:	24100000 	li	s0,0
    8228:	3c080001 	lui	t0,0x1
    822c:	25088244 	addiu	t0,t0,-32188
    8230:	3c090001 	lui	t1,0x1
    8234:	252982a4 	addiu	t1,t1,-32092
    8238:	10000013 	b	8288 <n40_jalr_test+0x8288>
    823c:	24120000 	li	s2,0
    8240:	00000000 	nop
    8244:	3c10e372 	lui	s0,0xe372
    8248:	36109f6c 	ori	s0,s0,0x9f6c
    824c:	0120f809 	jalr	t1
    8250:	00000000 	nop
    8254:	10000015 	b	82ac <n40_jalr_test+0x82ac>
    8258:	00000000 	nop
    825c:	00000000 	nop
    8260:	00000021 	move	zero,zero
    8264:	00000021 	move	zero,zero
    8268:	00000021 	move	zero,zero
    826c:	00000021 	move	zero,zero
    8270:	00000021 	move	zero,zero
    8274:	00000021 	move	zero,zero
    8278:	00000021 	move	zero,zero
    827c:	00000021 	move	zero,zero
    8280:	00000021 	move	zero,zero
    8284:	00000021 	move	zero,zero
    8288:	0100f809 	jalr	t0
    828c:	00000000 	nop
    8290:	10000006 	b	82ac <n40_jalr_test+0x82ac>
    8294:	00000000 	nop
    8298:	00000000 	nop
    829c:	00000021 	move	zero,zero
    82a0:	00000021 	move	zero,zero
    82a4:	3c1282fb 	lui	s2,0x82fb
    82a8:	3652efc2 	ori	s2,s2,0xefc2
    82ac:	001fa021 	addu	s4,zero,ra
    82b0:	0016f821 	addu	ra,zero,s6
    82b4:	3c150001 	lui	s5,0x1
    82b8:	26b5824c 	addiu	s5,s5,-32180
    82bc:	3c0de372 	lui	t5,0xe372
    82c0:	35ad9f6c 	ori	t5,t5,0x9f6c
    82c4:	160d0bdb 	bne	s0,t5,b234 <inst_error>
    82c8:	00000000 	nop
    82cc:	00000000 	nop
    82d0:	3c0c82fb 	lui	t4,0x82fb
    82d4:	358cefc2 	ori	t4,t4,0xefc2
    82d8:	164c0bd6 	bne	s2,t4,b234 <inst_error>
    82dc:	00000000 	nop
    82e0:	00000000 	nop
    82e4:	26b50008 	addiu	s5,s5,8
    82e8:	16950bd2 	bne	s4,s5,b234 <inst_error>
    82ec:	00000000 	nop
    82f0:	00000000 	nop
    82f4:	001fb021 	addu	s6,zero,ra
    82f8:	3c0c0a78 	lui	t4,0xa78
    82fc:	358ce944 	ori	t4,t4,0xe944
    8300:	3c0de8b1 	lui	t5,0xe8b1
    8304:	35ada12a 	ori	t5,t5,0xa12a
    8308:	24100000 	li	s0,0
    830c:	3c080001 	lui	t0,0x1
    8310:	25088328 	addiu	t0,t0,-31960
    8314:	3c090001 	lui	t1,0x1
    8318:	25298388 	addiu	t1,t1,-31864
    831c:	10000013 	b	836c <n40_jalr_test+0x836c>
    8320:	24120000 	li	s2,0
    8324:	00000000 	nop
    8328:	3c100a78 	lui	s0,0xa78
    832c:	3610e944 	ori	s0,s0,0xe944
    8330:	0120f809 	jalr	t1
    8334:	00000000 	nop
    8338:	10000015 	b	8390 <n40_jalr_test+0x8390>
    833c:	00000000 	nop
    8340:	00000000 	nop
    8344:	00000021 	move	zero,zero
    8348:	00000021 	move	zero,zero
    834c:	00000021 	move	zero,zero
    8350:	00000021 	move	zero,zero
    8354:	00000021 	move	zero,zero
    8358:	00000021 	move	zero,zero
    835c:	00000021 	move	zero,zero
    8360:	00000021 	move	zero,zero
    8364:	00000021 	move	zero,zero
    8368:	00000021 	move	zero,zero
    836c:	0100f809 	jalr	t0
    8370:	00000000 	nop
    8374:	10000006 	b	8390 <n40_jalr_test+0x8390>
    8378:	00000000 	nop
    837c:	00000000 	nop
    8380:	00000021 	move	zero,zero
    8384:	00000021 	move	zero,zero
    8388:	3c12e8b1 	lui	s2,0xe8b1
    838c:	3652a12a 	ori	s2,s2,0xa12a
    8390:	001fa021 	addu	s4,zero,ra
    8394:	0016f821 	addu	ra,zero,s6
    8398:	3c150001 	lui	s5,0x1
    839c:	26b58330 	addiu	s5,s5,-31952
    83a0:	3c0d0a78 	lui	t5,0xa78
    83a4:	35ade944 	ori	t5,t5,0xe944
    83a8:	160d0ba2 	bne	s0,t5,b234 <inst_error>
    83ac:	00000000 	nop
    83b0:	00000000 	nop
    83b4:	3c0ce8b1 	lui	t4,0xe8b1
    83b8:	358ca12a 	ori	t4,t4,0xa12a
    83bc:	164c0b9d 	bne	s2,t4,b234 <inst_error>
    83c0:	00000000 	nop
    83c4:	00000000 	nop
    83c8:	26b50008 	addiu	s5,s5,8
    83cc:	16950b99 	bne	s4,s5,b234 <inst_error>
    83d0:	00000000 	nop
    83d4:	00000000 	nop
    83d8:	001fb021 	addu	s6,zero,ra
    83dc:	3c0cdba0 	lui	t4,0xdba0
    83e0:	358ca468 	ori	t4,t4,0xa468
    83e4:	3c0d4452 	lui	t5,0x4452
    83e8:	35ad1de4 	ori	t5,t5,0x1de4
    83ec:	24100000 	li	s0,0
    83f0:	3c080001 	lui	t0,0x1
    83f4:	2508840c 	addiu	t0,t0,-31732
    83f8:	3c090001 	lui	t1,0x1
    83fc:	2529846c 	addiu	t1,t1,-31636
    8400:	10000013 	b	8450 <n40_jalr_test+0x8450>
    8404:	24120000 	li	s2,0
    8408:	00000000 	nop
    840c:	3c10dba0 	lui	s0,0xdba0
    8410:	3610a468 	ori	s0,s0,0xa468
    8414:	0120f809 	jalr	t1
    8418:	00000000 	nop
    841c:	10000015 	b	8474 <n40_jalr_test+0x8474>
    8420:	00000000 	nop
    8424:	00000000 	nop
    8428:	00000021 	move	zero,zero
    842c:	00000021 	move	zero,zero
    8430:	00000021 	move	zero,zero
    8434:	00000021 	move	zero,zero
    8438:	00000021 	move	zero,zero
    843c:	00000021 	move	zero,zero
    8440:	00000021 	move	zero,zero
    8444:	00000021 	move	zero,zero
    8448:	00000021 	move	zero,zero
    844c:	00000021 	move	zero,zero
    8450:	0100f809 	jalr	t0
    8454:	00000000 	nop
    8458:	10000006 	b	8474 <n40_jalr_test+0x8474>
    845c:	00000000 	nop
    8460:	00000000 	nop
    8464:	00000021 	move	zero,zero
    8468:	00000021 	move	zero,zero
    846c:	3c124452 	lui	s2,0x4452
    8470:	36521de4 	ori	s2,s2,0x1de4
    8474:	001fa021 	addu	s4,zero,ra
    8478:	0016f821 	addu	ra,zero,s6
    847c:	3c150001 	lui	s5,0x1
    8480:	26b58414 	addiu	s5,s5,-31724
    8484:	3c0ddba0 	lui	t5,0xdba0
    8488:	35ada468 	ori	t5,t5,0xa468
    848c:	160d0b69 	bne	s0,t5,b234 <inst_error>
    8490:	00000000 	nop
    8494:	00000000 	nop
    8498:	3c0c4452 	lui	t4,0x4452
    849c:	358c1de4 	ori	t4,t4,0x1de4
    84a0:	164c0b64 	bne	s2,t4,b234 <inst_error>
    84a4:	00000000 	nop
    84a8:	00000000 	nop
    84ac:	26b50008 	addiu	s5,s5,8
    84b0:	16950b60 	bne	s4,s5,b234 <inst_error>
    84b4:	00000000 	nop
    84b8:	00000000 	nop
    84bc:	001fb021 	addu	s6,zero,ra
    84c0:	3c0c877c 	lui	t4,0x877c
    84c4:	358c99c0 	ori	t4,t4,0x99c0
    84c8:	3c0d92ec 	lui	t5,0x92ec
    84cc:	35ad9cd0 	ori	t5,t5,0x9cd0
    84d0:	24100000 	li	s0,0
    84d4:	3c080001 	lui	t0,0x1
    84d8:	250884f0 	addiu	t0,t0,-31504
    84dc:	3c090001 	lui	t1,0x1
    84e0:	25298550 	addiu	t1,t1,-31408
    84e4:	10000013 	b	8534 <n40_jalr_test+0x8534>
    84e8:	24120000 	li	s2,0
    84ec:	00000000 	nop
    84f0:	3c10877c 	lui	s0,0x877c
    84f4:	361099c0 	ori	s0,s0,0x99c0
    84f8:	0120f809 	jalr	t1
    84fc:	00000000 	nop
    8500:	10000015 	b	8558 <n40_jalr_test+0x8558>
    8504:	00000000 	nop
    8508:	00000000 	nop
    850c:	00000021 	move	zero,zero
    8510:	00000021 	move	zero,zero
    8514:	00000021 	move	zero,zero
    8518:	00000021 	move	zero,zero
    851c:	00000021 	move	zero,zero
    8520:	00000021 	move	zero,zero
    8524:	00000021 	move	zero,zero
    8528:	00000021 	move	zero,zero
    852c:	00000021 	move	zero,zero
    8530:	00000021 	move	zero,zero
    8534:	0100f809 	jalr	t0
    8538:	00000000 	nop
    853c:	10000006 	b	8558 <n40_jalr_test+0x8558>
    8540:	00000000 	nop
    8544:	00000000 	nop
    8548:	00000021 	move	zero,zero
    854c:	00000021 	move	zero,zero
    8550:	3c1292ec 	lui	s2,0x92ec
    8554:	36529cd0 	ori	s2,s2,0x9cd0
    8558:	001fa021 	addu	s4,zero,ra
    855c:	0016f821 	addu	ra,zero,s6
    8560:	3c150001 	lui	s5,0x1
    8564:	26b584f8 	addiu	s5,s5,-31496
    8568:	3c0d877c 	lui	t5,0x877c
    856c:	35ad99c0 	ori	t5,t5,0x99c0
    8570:	160d0b30 	bne	s0,t5,b234 <inst_error>
    8574:	00000000 	nop
    8578:	00000000 	nop
    857c:	3c0c92ec 	lui	t4,0x92ec
    8580:	358c9cd0 	ori	t4,t4,0x9cd0
    8584:	164c0b2b 	bne	s2,t4,b234 <inst_error>
    8588:	00000000 	nop
    858c:	00000000 	nop
    8590:	26b50008 	addiu	s5,s5,8
    8594:	16950b27 	bne	s4,s5,b234 <inst_error>
    8598:	00000000 	nop
    859c:	00000000 	nop
    85a0:	001fb021 	addu	s6,zero,ra
    85a4:	3c0c3f4b 	lui	t4,0x3f4b
    85a8:	358c1534 	ori	t4,t4,0x1534
    85ac:	3c0daa78 	lui	t5,0xaa78
    85b0:	35addc0e 	ori	t5,t5,0xdc0e
    85b4:	24100000 	li	s0,0
    85b8:	3c080001 	lui	t0,0x1
    85bc:	250885d4 	addiu	t0,t0,-31276
    85c0:	3c090001 	lui	t1,0x1
    85c4:	25298634 	addiu	t1,t1,-31180
    85c8:	10000013 	b	8618 <n40_jalr_test+0x8618>
    85cc:	24120000 	li	s2,0
    85d0:	00000000 	nop
    85d4:	3c103f4b 	lui	s0,0x3f4b
    85d8:	36101534 	ori	s0,s0,0x1534
    85dc:	0120f809 	jalr	t1
    85e0:	00000000 	nop
    85e4:	10000015 	b	863c <n40_jalr_test+0x863c>
    85e8:	00000000 	nop
    85ec:	00000000 	nop
    85f0:	00000021 	move	zero,zero
    85f4:	00000021 	move	zero,zero
    85f8:	00000021 	move	zero,zero
    85fc:	00000021 	move	zero,zero
    8600:	00000021 	move	zero,zero
    8604:	00000021 	move	zero,zero
    8608:	00000021 	move	zero,zero
    860c:	00000021 	move	zero,zero
    8610:	00000021 	move	zero,zero
    8614:	00000021 	move	zero,zero
    8618:	0100f809 	jalr	t0
    861c:	00000000 	nop
    8620:	10000006 	b	863c <n40_jalr_test+0x863c>
    8624:	00000000 	nop
    8628:	00000000 	nop
    862c:	00000021 	move	zero,zero
    8630:	00000021 	move	zero,zero
    8634:	3c12aa78 	lui	s2,0xaa78
    8638:	3652dc0e 	ori	s2,s2,0xdc0e
    863c:	001fa021 	addu	s4,zero,ra
    8640:	0016f821 	addu	ra,zero,s6
    8644:	3c150001 	lui	s5,0x1
    8648:	26b585dc 	addiu	s5,s5,-31268
    864c:	3c0d3f4b 	lui	t5,0x3f4b
    8650:	35ad1534 	ori	t5,t5,0x1534
    8654:	160d0af7 	bne	s0,t5,b234 <inst_error>
    8658:	00000000 	nop
    865c:	00000000 	nop
    8660:	3c0caa78 	lui	t4,0xaa78
    8664:	358cdc0e 	ori	t4,t4,0xdc0e
    8668:	164c0af2 	bne	s2,t4,b234 <inst_error>
    866c:	00000000 	nop
    8670:	00000000 	nop
    8674:	26b50008 	addiu	s5,s5,8
    8678:	16950aee 	bne	s4,s5,b234 <inst_error>
    867c:	00000000 	nop
    8680:	00000000 	nop
    8684:	001fb021 	addu	s6,zero,ra
    8688:	3c0c5a2b 	lui	t4,0x5a2b
    868c:	358ca14e 	ori	t4,t4,0xa14e
    8690:	3c0d46a0 	lui	t5,0x46a0
    8694:	35adb8e0 	ori	t5,t5,0xb8e0
    8698:	24100000 	li	s0,0
    869c:	3c080001 	lui	t0,0x1
    86a0:	250886b8 	addiu	t0,t0,-31048
    86a4:	3c090001 	lui	t1,0x1
    86a8:	25298718 	addiu	t1,t1,-30952
    86ac:	10000013 	b	86fc <n40_jalr_test+0x86fc>
    86b0:	24120000 	li	s2,0
    86b4:	00000000 	nop
    86b8:	3c105a2b 	lui	s0,0x5a2b
    86bc:	3610a14e 	ori	s0,s0,0xa14e
    86c0:	0120f809 	jalr	t1
    86c4:	00000000 	nop
    86c8:	10000015 	b	8720 <n40_jalr_test+0x8720>
    86cc:	00000000 	nop
    86d0:	00000000 	nop
    86d4:	00000021 	move	zero,zero
    86d8:	00000021 	move	zero,zero
    86dc:	00000021 	move	zero,zero
    86e0:	00000021 	move	zero,zero
    86e4:	00000021 	move	zero,zero
    86e8:	00000021 	move	zero,zero
    86ec:	00000021 	move	zero,zero
    86f0:	00000021 	move	zero,zero
    86f4:	00000021 	move	zero,zero
    86f8:	00000021 	move	zero,zero
    86fc:	0100f809 	jalr	t0
    8700:	00000000 	nop
    8704:	10000006 	b	8720 <n40_jalr_test+0x8720>
    8708:	00000000 	nop
    870c:	00000000 	nop
    8710:	00000021 	move	zero,zero
    8714:	00000021 	move	zero,zero
    8718:	3c1246a0 	lui	s2,0x46a0
    871c:	3652b8e0 	ori	s2,s2,0xb8e0
    8720:	001fa021 	addu	s4,zero,ra
    8724:	0016f821 	addu	ra,zero,s6
    8728:	3c150001 	lui	s5,0x1
    872c:	26b586c0 	addiu	s5,s5,-31040
    8730:	3c0d5a2b 	lui	t5,0x5a2b
    8734:	35ada14e 	ori	t5,t5,0xa14e
    8738:	160d0abe 	bne	s0,t5,b234 <inst_error>
    873c:	00000000 	nop
    8740:	00000000 	nop
    8744:	3c0c46a0 	lui	t4,0x46a0
    8748:	358cb8e0 	ori	t4,t4,0xb8e0
    874c:	164c0ab9 	bne	s2,t4,b234 <inst_error>
    8750:	00000000 	nop
    8754:	00000000 	nop
    8758:	26b50008 	addiu	s5,s5,8
    875c:	16950ab5 	bne	s4,s5,b234 <inst_error>
    8760:	00000000 	nop
    8764:	00000000 	nop
    8768:	001fb021 	addu	s6,zero,ra
    876c:	3c0cc6cd 	lui	t4,0xc6cd
    8770:	358ca210 	ori	t4,t4,0xa210
    8774:	3c0db73d 	lui	t5,0xb73d
    8778:	35ad1daa 	ori	t5,t5,0x1daa
    877c:	24100000 	li	s0,0
    8780:	3c080001 	lui	t0,0x1
    8784:	2508879c 	addiu	t0,t0,-30820
    8788:	3c090001 	lui	t1,0x1
    878c:	252987fc 	addiu	t1,t1,-30724
    8790:	10000013 	b	87e0 <n40_jalr_test+0x87e0>
    8794:	24120000 	li	s2,0
    8798:	00000000 	nop
    879c:	3c10c6cd 	lui	s0,0xc6cd
    87a0:	3610a210 	ori	s0,s0,0xa210
    87a4:	0120f809 	jalr	t1
    87a8:	00000000 	nop
    87ac:	10000015 	b	8804 <n40_jalr_test+0x8804>
    87b0:	00000000 	nop
    87b4:	00000000 	nop
    87b8:	00000021 	move	zero,zero
    87bc:	00000021 	move	zero,zero
    87c0:	00000021 	move	zero,zero
    87c4:	00000021 	move	zero,zero
    87c8:	00000021 	move	zero,zero
    87cc:	00000021 	move	zero,zero
    87d0:	00000021 	move	zero,zero
    87d4:	00000021 	move	zero,zero
    87d8:	00000021 	move	zero,zero
    87dc:	00000021 	move	zero,zero
    87e0:	0100f809 	jalr	t0
    87e4:	00000000 	nop
    87e8:	10000006 	b	8804 <n40_jalr_test+0x8804>
    87ec:	00000000 	nop
    87f0:	00000000 	nop
    87f4:	00000021 	move	zero,zero
    87f8:	00000021 	move	zero,zero
    87fc:	3c12b73d 	lui	s2,0xb73d
    8800:	36521daa 	ori	s2,s2,0x1daa
    8804:	001fa021 	addu	s4,zero,ra
    8808:	0016f821 	addu	ra,zero,s6
    880c:	3c150001 	lui	s5,0x1
    8810:	26b587a4 	addiu	s5,s5,-30812
    8814:	3c0dc6cd 	lui	t5,0xc6cd
    8818:	35ada210 	ori	t5,t5,0xa210
    881c:	160d0a85 	bne	s0,t5,b234 <inst_error>
    8820:	00000000 	nop
    8824:	00000000 	nop
    8828:	3c0cb73d 	lui	t4,0xb73d
    882c:	358c1daa 	ori	t4,t4,0x1daa
    8830:	164c0a80 	bne	s2,t4,b234 <inst_error>
    8834:	00000000 	nop
    8838:	00000000 	nop
    883c:	26b50008 	addiu	s5,s5,8
    8840:	16950a7c 	bne	s4,s5,b234 <inst_error>
    8844:	00000000 	nop
    8848:	00000000 	nop
    884c:	001fb021 	addu	s6,zero,ra
    8850:	3c0cfaa6 	lui	t4,0xfaa6
    8854:	358c9f00 	ori	t4,t4,0x9f00
    8858:	3c0d4638 	lui	t5,0x4638
    885c:	35adb0f0 	ori	t5,t5,0xb0f0
    8860:	24100000 	li	s0,0
    8864:	3c080001 	lui	t0,0x1
    8868:	25088880 	addiu	t0,t0,-30592
    886c:	3c090001 	lui	t1,0x1
    8870:	252988e0 	addiu	t1,t1,-30496
    8874:	10000013 	b	88c4 <n40_jalr_test+0x88c4>
    8878:	24120000 	li	s2,0
    887c:	00000000 	nop
    8880:	3c10faa6 	lui	s0,0xfaa6
    8884:	36109f00 	ori	s0,s0,0x9f00
    8888:	0120f809 	jalr	t1
    888c:	00000000 	nop
    8890:	10000015 	b	88e8 <n40_jalr_test+0x88e8>
    8894:	00000000 	nop
    8898:	00000000 	nop
    889c:	00000021 	move	zero,zero
    88a0:	00000021 	move	zero,zero
    88a4:	00000021 	move	zero,zero
    88a8:	00000021 	move	zero,zero
    88ac:	00000021 	move	zero,zero
    88b0:	00000021 	move	zero,zero
    88b4:	00000021 	move	zero,zero
    88b8:	00000021 	move	zero,zero
    88bc:	00000021 	move	zero,zero
    88c0:	00000021 	move	zero,zero
    88c4:	0100f809 	jalr	t0
    88c8:	00000000 	nop
    88cc:	10000006 	b	88e8 <n40_jalr_test+0x88e8>
    88d0:	00000000 	nop
    88d4:	00000000 	nop
    88d8:	00000021 	move	zero,zero
    88dc:	00000021 	move	zero,zero
    88e0:	3c124638 	lui	s2,0x4638
    88e4:	3652b0f0 	ori	s2,s2,0xb0f0
    88e8:	001fa021 	addu	s4,zero,ra
    88ec:	0016f821 	addu	ra,zero,s6
    88f0:	3c150001 	lui	s5,0x1
    88f4:	26b58888 	addiu	s5,s5,-30584
    88f8:	3c0dfaa6 	lui	t5,0xfaa6
    88fc:	35ad9f00 	ori	t5,t5,0x9f00
    8900:	160d0a4c 	bne	s0,t5,b234 <inst_error>
    8904:	00000000 	nop
    8908:	00000000 	nop
    890c:	3c0c4638 	lui	t4,0x4638
    8910:	358cb0f0 	ori	t4,t4,0xb0f0
    8914:	164c0a47 	bne	s2,t4,b234 <inst_error>
    8918:	00000000 	nop
    891c:	00000000 	nop
    8920:	26b50008 	addiu	s5,s5,8
    8924:	16950a43 	bne	s4,s5,b234 <inst_error>
    8928:	00000000 	nop
    892c:	00000000 	nop
    8930:	001fb021 	addu	s6,zero,ra
    8934:	3c0c63c8 	lui	t4,0x63c8
    8938:	358c1ce9 	ori	t4,t4,0x1ce9
    893c:	3c0de2ed 	lui	t5,0xe2ed
    8940:	35ad6e98 	ori	t5,t5,0x6e98
    8944:	24100000 	li	s0,0
    8948:	3c080001 	lui	t0,0x1
    894c:	25088964 	addiu	t0,t0,-30364
    8950:	3c090001 	lui	t1,0x1
    8954:	252989c4 	addiu	t1,t1,-30268
    8958:	10000013 	b	89a8 <n40_jalr_test+0x89a8>
    895c:	24120000 	li	s2,0
    8960:	00000000 	nop
    8964:	3c1063c8 	lui	s0,0x63c8
    8968:	36101ce9 	ori	s0,s0,0x1ce9
    896c:	0120f809 	jalr	t1
    8970:	00000000 	nop
    8974:	10000015 	b	89cc <n40_jalr_test+0x89cc>
    8978:	00000000 	nop
    897c:	00000000 	nop
    8980:	00000021 	move	zero,zero
    8984:	00000021 	move	zero,zero
    8988:	00000021 	move	zero,zero
    898c:	00000021 	move	zero,zero
    8990:	00000021 	move	zero,zero
    8994:	00000021 	move	zero,zero
    8998:	00000021 	move	zero,zero
    899c:	00000021 	move	zero,zero
    89a0:	00000021 	move	zero,zero
    89a4:	00000021 	move	zero,zero
    89a8:	0100f809 	jalr	t0
    89ac:	00000000 	nop
    89b0:	10000006 	b	89cc <n40_jalr_test+0x89cc>
    89b4:	00000000 	nop
    89b8:	00000000 	nop
    89bc:	00000021 	move	zero,zero
    89c0:	00000021 	move	zero,zero
    89c4:	3c12e2ed 	lui	s2,0xe2ed
    89c8:	36526e98 	ori	s2,s2,0x6e98
    89cc:	001fa021 	addu	s4,zero,ra
    89d0:	0016f821 	addu	ra,zero,s6
    89d4:	3c150001 	lui	s5,0x1
    89d8:	26b5896c 	addiu	s5,s5,-30356
    89dc:	3c0d63c8 	lui	t5,0x63c8
    89e0:	35ad1ce9 	ori	t5,t5,0x1ce9
    89e4:	160d0a13 	bne	s0,t5,b234 <inst_error>
    89e8:	00000000 	nop
    89ec:	00000000 	nop
    89f0:	3c0ce2ed 	lui	t4,0xe2ed
    89f4:	358c6e98 	ori	t4,t4,0x6e98
    89f8:	164c0a0e 	bne	s2,t4,b234 <inst_error>
    89fc:	00000000 	nop
    8a00:	00000000 	nop
    8a04:	26b50008 	addiu	s5,s5,8
    8a08:	16950a0a 	bne	s4,s5,b234 <inst_error>
    8a0c:	00000000 	nop
    8a10:	00000000 	nop
    8a14:	001fb021 	addu	s6,zero,ra
    8a18:	3c0c78e3 	lui	t4,0x78e3
    8a1c:	358cc080 	ori	t4,t4,0xc080
    8a20:	3c0d7e85 	lui	t5,0x7e85
    8a24:	35ada8c0 	ori	t5,t5,0xa8c0
    8a28:	24100000 	li	s0,0
    8a2c:	3c080001 	lui	t0,0x1
    8a30:	25088a48 	addiu	t0,t0,-30136
    8a34:	3c090001 	lui	t1,0x1
    8a38:	25298aa8 	addiu	t1,t1,-30040
    8a3c:	10000013 	b	8a8c <n40_jalr_test+0x8a8c>
    8a40:	24120000 	li	s2,0
    8a44:	00000000 	nop
    8a48:	3c1078e3 	lui	s0,0x78e3
    8a4c:	3610c080 	ori	s0,s0,0xc080
    8a50:	0120f809 	jalr	t1
    8a54:	00000000 	nop
    8a58:	10000015 	b	8ab0 <n40_jalr_test+0x8ab0>
    8a5c:	00000000 	nop
    8a60:	00000000 	nop
    8a64:	00000021 	move	zero,zero
    8a68:	00000021 	move	zero,zero
    8a6c:	00000021 	move	zero,zero
    8a70:	00000021 	move	zero,zero
    8a74:	00000021 	move	zero,zero
    8a78:	00000021 	move	zero,zero
    8a7c:	00000021 	move	zero,zero
    8a80:	00000021 	move	zero,zero
    8a84:	00000021 	move	zero,zero
    8a88:	00000021 	move	zero,zero
    8a8c:	0100f809 	jalr	t0
    8a90:	00000000 	nop
    8a94:	10000006 	b	8ab0 <n40_jalr_test+0x8ab0>
    8a98:	00000000 	nop
    8a9c:	00000000 	nop
    8aa0:	00000021 	move	zero,zero
    8aa4:	00000021 	move	zero,zero
    8aa8:	3c127e85 	lui	s2,0x7e85
    8aac:	3652a8c0 	ori	s2,s2,0xa8c0
    8ab0:	001fa021 	addu	s4,zero,ra
    8ab4:	0016f821 	addu	ra,zero,s6
    8ab8:	3c150001 	lui	s5,0x1
    8abc:	26b58a50 	addiu	s5,s5,-30128
    8ac0:	3c0d78e3 	lui	t5,0x78e3
    8ac4:	35adc080 	ori	t5,t5,0xc080
    8ac8:	160d09da 	bne	s0,t5,b234 <inst_error>
    8acc:	00000000 	nop
    8ad0:	00000000 	nop
    8ad4:	3c0c7e85 	lui	t4,0x7e85
    8ad8:	358ca8c0 	ori	t4,t4,0xa8c0
    8adc:	164c09d5 	bne	s2,t4,b234 <inst_error>
    8ae0:	00000000 	nop
    8ae4:	00000000 	nop
    8ae8:	26b50008 	addiu	s5,s5,8
    8aec:	169509d1 	bne	s4,s5,b234 <inst_error>
    8af0:	00000000 	nop
    8af4:	00000000 	nop
    8af8:	001fb021 	addu	s6,zero,ra
    8afc:	3c0cd5ad 	lui	t4,0xd5ad
    8b00:	358c20b0 	ori	t4,t4,0x20b0
    8b04:	3c0d6d1d 	lui	t5,0x6d1d
    8b08:	35ada774 	ori	t5,t5,0xa774
    8b0c:	24100000 	li	s0,0
    8b10:	3c080001 	lui	t0,0x1
    8b14:	25088b2c 	addiu	t0,t0,-29908
    8b18:	3c090001 	lui	t1,0x1
    8b1c:	25298b8c 	addiu	t1,t1,-29812
    8b20:	10000013 	b	8b70 <n40_jalr_test+0x8b70>
    8b24:	24120000 	li	s2,0
    8b28:	00000000 	nop
    8b2c:	3c10d5ad 	lui	s0,0xd5ad
    8b30:	361020b0 	ori	s0,s0,0x20b0
    8b34:	0120f809 	jalr	t1
    8b38:	00000000 	nop
    8b3c:	10000015 	b	8b94 <n40_jalr_test+0x8b94>
    8b40:	00000000 	nop
    8b44:	00000000 	nop
    8b48:	00000021 	move	zero,zero
    8b4c:	00000021 	move	zero,zero
    8b50:	00000021 	move	zero,zero
    8b54:	00000021 	move	zero,zero
    8b58:	00000021 	move	zero,zero
    8b5c:	00000021 	move	zero,zero
    8b60:	00000021 	move	zero,zero
    8b64:	00000021 	move	zero,zero
    8b68:	00000021 	move	zero,zero
    8b6c:	00000021 	move	zero,zero
    8b70:	0100f809 	jalr	t0
    8b74:	00000000 	nop
    8b78:	10000006 	b	8b94 <n40_jalr_test+0x8b94>
    8b7c:	00000000 	nop
    8b80:	00000000 	nop
    8b84:	00000021 	move	zero,zero
    8b88:	00000021 	move	zero,zero
    8b8c:	3c126d1d 	lui	s2,0x6d1d
    8b90:	3652a774 	ori	s2,s2,0xa774
    8b94:	001fa021 	addu	s4,zero,ra
    8b98:	0016f821 	addu	ra,zero,s6
    8b9c:	3c150001 	lui	s5,0x1
    8ba0:	26b58b34 	addiu	s5,s5,-29900
    8ba4:	3c0dd5ad 	lui	t5,0xd5ad
    8ba8:	35ad20b0 	ori	t5,t5,0x20b0
    8bac:	160d09a1 	bne	s0,t5,b234 <inst_error>
    8bb0:	00000000 	nop
    8bb4:	00000000 	nop
    8bb8:	3c0c6d1d 	lui	t4,0x6d1d
    8bbc:	358ca774 	ori	t4,t4,0xa774
    8bc0:	164c099c 	bne	s2,t4,b234 <inst_error>
    8bc4:	00000000 	nop
    8bc8:	00000000 	nop
    8bcc:	26b50008 	addiu	s5,s5,8
    8bd0:	16950998 	bne	s4,s5,b234 <inst_error>
    8bd4:	00000000 	nop
    8bd8:	00000000 	nop
    8bdc:	001fb021 	addu	s6,zero,ra
    8be0:	3c0c12ba 	lui	t4,0x12ba
    8be4:	358c6160 	ori	t4,t4,0x6160
    8be8:	3c0d06b6 	lui	t5,0x6b6
    8bec:	35ad44d0 	ori	t5,t5,0x44d0
    8bf0:	24100000 	li	s0,0
    8bf4:	3c080001 	lui	t0,0x1
    8bf8:	25088c10 	addiu	t0,t0,-29680
    8bfc:	3c090001 	lui	t1,0x1
    8c00:	25298c70 	addiu	t1,t1,-29584
    8c04:	10000013 	b	8c54 <n40_jalr_test+0x8c54>
    8c08:	24120000 	li	s2,0
    8c0c:	00000000 	nop
    8c10:	3c1012ba 	lui	s0,0x12ba
    8c14:	36106160 	ori	s0,s0,0x6160
    8c18:	0120f809 	jalr	t1
    8c1c:	00000000 	nop
    8c20:	10000015 	b	8c78 <n40_jalr_test+0x8c78>
    8c24:	00000000 	nop
    8c28:	00000000 	nop
    8c2c:	00000021 	move	zero,zero
    8c30:	00000021 	move	zero,zero
    8c34:	00000021 	move	zero,zero
    8c38:	00000021 	move	zero,zero
    8c3c:	00000021 	move	zero,zero
    8c40:	00000021 	move	zero,zero
    8c44:	00000021 	move	zero,zero
    8c48:	00000021 	move	zero,zero
    8c4c:	00000021 	move	zero,zero
    8c50:	00000021 	move	zero,zero
    8c54:	0100f809 	jalr	t0
    8c58:	00000000 	nop
    8c5c:	10000006 	b	8c78 <n40_jalr_test+0x8c78>
    8c60:	00000000 	nop
    8c64:	00000000 	nop
    8c68:	00000021 	move	zero,zero
    8c6c:	00000021 	move	zero,zero
    8c70:	3c1206b6 	lui	s2,0x6b6
    8c74:	365244d0 	ori	s2,s2,0x44d0
    8c78:	001fa021 	addu	s4,zero,ra
    8c7c:	0016f821 	addu	ra,zero,s6
    8c80:	3c150001 	lui	s5,0x1
    8c84:	26b58c18 	addiu	s5,s5,-29672
    8c88:	3c0d12ba 	lui	t5,0x12ba
    8c8c:	35ad6160 	ori	t5,t5,0x6160
    8c90:	160d0968 	bne	s0,t5,b234 <inst_error>
    8c94:	00000000 	nop
    8c98:	00000000 	nop
    8c9c:	3c0c06b6 	lui	t4,0x6b6
    8ca0:	358c44d0 	ori	t4,t4,0x44d0
    8ca4:	164c0963 	bne	s2,t4,b234 <inst_error>
    8ca8:	00000000 	nop
    8cac:	00000000 	nop
    8cb0:	26b50008 	addiu	s5,s5,8
    8cb4:	1695095f 	bne	s4,s5,b234 <inst_error>
    8cb8:	00000000 	nop
    8cbc:	00000000 	nop
    8cc0:	001fb021 	addu	s6,zero,ra
    8cc4:	3c0c76a1 	lui	t4,0x76a1
    8cc8:	358c432a 	ori	t4,t4,0x432a
    8ccc:	3c0d85ea 	lui	t5,0x85ea
    8cd0:	35adb480 	ori	t5,t5,0xb480
    8cd4:	24100000 	li	s0,0
    8cd8:	3c080001 	lui	t0,0x1
    8cdc:	25088cf4 	addiu	t0,t0,-29452
    8ce0:	3c090001 	lui	t1,0x1
    8ce4:	25298d54 	addiu	t1,t1,-29356
    8ce8:	10000013 	b	8d38 <n40_jalr_test+0x8d38>
    8cec:	24120000 	li	s2,0
    8cf0:	00000000 	nop
    8cf4:	3c1076a1 	lui	s0,0x76a1
    8cf8:	3610432a 	ori	s0,s0,0x432a
    8cfc:	0120f809 	jalr	t1
    8d00:	00000000 	nop
    8d04:	10000015 	b	8d5c <n40_jalr_test+0x8d5c>
    8d08:	00000000 	nop
    8d0c:	00000000 	nop
    8d10:	00000021 	move	zero,zero
    8d14:	00000021 	move	zero,zero
    8d18:	00000021 	move	zero,zero
    8d1c:	00000021 	move	zero,zero
    8d20:	00000021 	move	zero,zero
    8d24:	00000021 	move	zero,zero
    8d28:	00000021 	move	zero,zero
    8d2c:	00000021 	move	zero,zero
    8d30:	00000021 	move	zero,zero
    8d34:	00000021 	move	zero,zero
    8d38:	0100f809 	jalr	t0
    8d3c:	00000000 	nop
    8d40:	10000006 	b	8d5c <n40_jalr_test+0x8d5c>
    8d44:	00000000 	nop
    8d48:	00000000 	nop
    8d4c:	00000021 	move	zero,zero
    8d50:	00000021 	move	zero,zero
    8d54:	3c1285ea 	lui	s2,0x85ea
    8d58:	3652b480 	ori	s2,s2,0xb480
    8d5c:	001fa021 	addu	s4,zero,ra
    8d60:	0016f821 	addu	ra,zero,s6
    8d64:	3c150001 	lui	s5,0x1
    8d68:	26b58cfc 	addiu	s5,s5,-29444
    8d6c:	3c0d76a1 	lui	t5,0x76a1
    8d70:	35ad432a 	ori	t5,t5,0x432a
    8d74:	160d092f 	bne	s0,t5,b234 <inst_error>
    8d78:	00000000 	nop
    8d7c:	00000000 	nop
    8d80:	3c0c85ea 	lui	t4,0x85ea
    8d84:	358cb480 	ori	t4,t4,0xb480
    8d88:	164c092a 	bne	s2,t4,b234 <inst_error>
    8d8c:	00000000 	nop
    8d90:	00000000 	nop
    8d94:	26b50008 	addiu	s5,s5,8
    8d98:	16950926 	bne	s4,s5,b234 <inst_error>
    8d9c:	00000000 	nop
    8da0:	00000000 	nop
    8da4:	001fb021 	addu	s6,zero,ra
    8da8:	3c0c83b1 	lui	t4,0x83b1
    8dac:	358cd078 	ori	t4,t4,0xd078
    8db0:	3c0dee95 	lui	t5,0xee95
    8db4:	35ad7294 	ori	t5,t5,0x7294
    8db8:	24100000 	li	s0,0
    8dbc:	3c080001 	lui	t0,0x1
    8dc0:	25088dd8 	addiu	t0,t0,-29224
    8dc4:	3c090001 	lui	t1,0x1
    8dc8:	25298e38 	addiu	t1,t1,-29128
    8dcc:	10000013 	b	8e1c <n40_jalr_test+0x8e1c>
    8dd0:	24120000 	li	s2,0
    8dd4:	00000000 	nop
    8dd8:	3c1083b1 	lui	s0,0x83b1
    8ddc:	3610d078 	ori	s0,s0,0xd078
    8de0:	0120f809 	jalr	t1
    8de4:	00000000 	nop
    8de8:	10000015 	b	8e40 <n40_jalr_test+0x8e40>
    8dec:	00000000 	nop
    8df0:	00000000 	nop
    8df4:	00000021 	move	zero,zero
    8df8:	00000021 	move	zero,zero
    8dfc:	00000021 	move	zero,zero
    8e00:	00000021 	move	zero,zero
    8e04:	00000021 	move	zero,zero
    8e08:	00000021 	move	zero,zero
    8e0c:	00000021 	move	zero,zero
    8e10:	00000021 	move	zero,zero
    8e14:	00000021 	move	zero,zero
    8e18:	00000021 	move	zero,zero
    8e1c:	0100f809 	jalr	t0
    8e20:	00000000 	nop
    8e24:	10000006 	b	8e40 <n40_jalr_test+0x8e40>
    8e28:	00000000 	nop
    8e2c:	00000000 	nop
    8e30:	00000021 	move	zero,zero
    8e34:	00000021 	move	zero,zero
    8e38:	3c12ee95 	lui	s2,0xee95
    8e3c:	36527294 	ori	s2,s2,0x7294
    8e40:	001fa021 	addu	s4,zero,ra
    8e44:	0016f821 	addu	ra,zero,s6
    8e48:	3c150001 	lui	s5,0x1
    8e4c:	26b58de0 	addiu	s5,s5,-29216
    8e50:	3c0d83b1 	lui	t5,0x83b1
    8e54:	35add078 	ori	t5,t5,0xd078
    8e58:	160d08f6 	bne	s0,t5,b234 <inst_error>
    8e5c:	00000000 	nop
    8e60:	00000000 	nop
    8e64:	3c0cee95 	lui	t4,0xee95
    8e68:	358c7294 	ori	t4,t4,0x7294
    8e6c:	164c08f1 	bne	s2,t4,b234 <inst_error>
    8e70:	00000000 	nop
    8e74:	00000000 	nop
    8e78:	26b50008 	addiu	s5,s5,8
    8e7c:	169508ed 	bne	s4,s5,b234 <inst_error>
    8e80:	00000000 	nop
    8e84:	00000000 	nop
    8e88:	001fb021 	addu	s6,zero,ra
    8e8c:	3c0c694d 	lui	t4,0x694d
    8e90:	358ce574 	ori	t4,t4,0xe574
    8e94:	3c0dda62 	lui	t5,0xda62
    8e98:	35adda80 	ori	t5,t5,0xda80
    8e9c:	24100000 	li	s0,0
    8ea0:	3c080001 	lui	t0,0x1
    8ea4:	25088ebc 	addiu	t0,t0,-28996
    8ea8:	3c090001 	lui	t1,0x1
    8eac:	25298f1c 	addiu	t1,t1,-28900
    8eb0:	10000013 	b	8f00 <n40_jalr_test+0x8f00>
    8eb4:	24120000 	li	s2,0
    8eb8:	00000000 	nop
    8ebc:	3c10694d 	lui	s0,0x694d
    8ec0:	3610e574 	ori	s0,s0,0xe574
    8ec4:	0120f809 	jalr	t1
    8ec8:	00000000 	nop
    8ecc:	10000015 	b	8f24 <n40_jalr_test+0x8f24>
    8ed0:	00000000 	nop
    8ed4:	00000000 	nop
    8ed8:	00000021 	move	zero,zero
    8edc:	00000021 	move	zero,zero
    8ee0:	00000021 	move	zero,zero
    8ee4:	00000021 	move	zero,zero
    8ee8:	00000021 	move	zero,zero
    8eec:	00000021 	move	zero,zero
    8ef0:	00000021 	move	zero,zero
    8ef4:	00000021 	move	zero,zero
    8ef8:	00000021 	move	zero,zero
    8efc:	00000021 	move	zero,zero
    8f00:	0100f809 	jalr	t0
    8f04:	00000000 	nop
    8f08:	10000006 	b	8f24 <n40_jalr_test+0x8f24>
    8f0c:	00000000 	nop
    8f10:	00000000 	nop
    8f14:	00000021 	move	zero,zero
    8f18:	00000021 	move	zero,zero
    8f1c:	3c12da62 	lui	s2,0xda62
    8f20:	3652da80 	ori	s2,s2,0xda80
    8f24:	001fa021 	addu	s4,zero,ra
    8f28:	0016f821 	addu	ra,zero,s6
    8f2c:	3c150001 	lui	s5,0x1
    8f30:	26b58ec4 	addiu	s5,s5,-28988
    8f34:	3c0d694d 	lui	t5,0x694d
    8f38:	35ade574 	ori	t5,t5,0xe574
    8f3c:	160d08bd 	bne	s0,t5,b234 <inst_error>
    8f40:	00000000 	nop
    8f44:	00000000 	nop
    8f48:	3c0cda62 	lui	t4,0xda62
    8f4c:	358cda80 	ori	t4,t4,0xda80
    8f50:	164c08b8 	bne	s2,t4,b234 <inst_error>
    8f54:	00000000 	nop
    8f58:	00000000 	nop
    8f5c:	26b50008 	addiu	s5,s5,8
    8f60:	169508b4 	bne	s4,s5,b234 <inst_error>
    8f64:	00000000 	nop
    8f68:	00000000 	nop
    8f6c:	001fb021 	addu	s6,zero,ra
    8f70:	3c0cc95f 	lui	t4,0xc95f
    8f74:	358c1748 	ori	t4,t4,0x1748
    8f78:	3c0d8aa2 	lui	t5,0x8aa2
    8f7c:	35adfc5b 	ori	t5,t5,0xfc5b
    8f80:	24100000 	li	s0,0
    8f84:	3c080001 	lui	t0,0x1
    8f88:	25088fa0 	addiu	t0,t0,-28768
    8f8c:	3c090001 	lui	t1,0x1
    8f90:	25299000 	addiu	t1,t1,-28672
    8f94:	10000013 	b	8fe4 <n40_jalr_test+0x8fe4>
    8f98:	24120000 	li	s2,0
    8f9c:	00000000 	nop
    8fa0:	3c10c95f 	lui	s0,0xc95f
    8fa4:	36101748 	ori	s0,s0,0x1748
    8fa8:	0120f809 	jalr	t1
    8fac:	00000000 	nop
    8fb0:	10000015 	b	9008 <n40_jalr_test+0x9008>
    8fb4:	00000000 	nop
    8fb8:	00000000 	nop
    8fbc:	00000021 	move	zero,zero
    8fc0:	00000021 	move	zero,zero
    8fc4:	00000021 	move	zero,zero
    8fc8:	00000021 	move	zero,zero
    8fcc:	00000021 	move	zero,zero
    8fd0:	00000021 	move	zero,zero
    8fd4:	00000021 	move	zero,zero
    8fd8:	00000021 	move	zero,zero
    8fdc:	00000021 	move	zero,zero
    8fe0:	00000021 	move	zero,zero
    8fe4:	0100f809 	jalr	t0
    8fe8:	00000000 	nop
    8fec:	10000006 	b	9008 <n40_jalr_test+0x9008>
    8ff0:	00000000 	nop
    8ff4:	00000000 	nop
    8ff8:	00000021 	move	zero,zero
    8ffc:	00000021 	move	zero,zero
    9000:	3c128aa2 	lui	s2,0x8aa2
    9004:	3652fc5b 	ori	s2,s2,0xfc5b
    9008:	001fa021 	addu	s4,zero,ra
    900c:	0016f821 	addu	ra,zero,s6
    9010:	3c150001 	lui	s5,0x1
    9014:	26b58fa8 	addiu	s5,s5,-28760
    9018:	3c0dc95f 	lui	t5,0xc95f
    901c:	35ad1748 	ori	t5,t5,0x1748
    9020:	160d0884 	bne	s0,t5,b234 <inst_error>
    9024:	00000000 	nop
    9028:	00000000 	nop
    902c:	3c0c8aa2 	lui	t4,0x8aa2
    9030:	358cfc5b 	ori	t4,t4,0xfc5b
    9034:	164c087f 	bne	s2,t4,b234 <inst_error>
    9038:	00000000 	nop
    903c:	00000000 	nop
    9040:	26b50008 	addiu	s5,s5,8
    9044:	1695087b 	bne	s4,s5,b234 <inst_error>
    9048:	00000000 	nop
    904c:	00000000 	nop
    9050:	001fb021 	addu	s6,zero,ra
    9054:	3c0c3f8f 	lui	t4,0x3f8f
    9058:	358c31c8 	ori	t4,t4,0x31c8
    905c:	3c0d9e90 	lui	t5,0x9e90
    9060:	35ad6a4e 	ori	t5,t5,0x6a4e
    9064:	24100000 	li	s0,0
    9068:	3c080001 	lui	t0,0x1
    906c:	25089084 	addiu	t0,t0,-28540
    9070:	3c090001 	lui	t1,0x1
    9074:	252990e4 	addiu	t1,t1,-28444
    9078:	10000013 	b	90c8 <n40_jalr_test+0x90c8>
    907c:	24120000 	li	s2,0
    9080:	00000000 	nop
    9084:	3c103f8f 	lui	s0,0x3f8f
    9088:	361031c8 	ori	s0,s0,0x31c8
    908c:	0120f809 	jalr	t1
    9090:	00000000 	nop
    9094:	10000015 	b	90ec <n40_jalr_test+0x90ec>
    9098:	00000000 	nop
    909c:	00000000 	nop
    90a0:	00000021 	move	zero,zero
    90a4:	00000021 	move	zero,zero
    90a8:	00000021 	move	zero,zero
    90ac:	00000021 	move	zero,zero
    90b0:	00000021 	move	zero,zero
    90b4:	00000021 	move	zero,zero
    90b8:	00000021 	move	zero,zero
    90bc:	00000021 	move	zero,zero
    90c0:	00000021 	move	zero,zero
    90c4:	00000021 	move	zero,zero
    90c8:	0100f809 	jalr	t0
    90cc:	00000000 	nop
    90d0:	10000006 	b	90ec <n40_jalr_test+0x90ec>
    90d4:	00000000 	nop
    90d8:	00000000 	nop
    90dc:	00000021 	move	zero,zero
    90e0:	00000021 	move	zero,zero
    90e4:	3c129e90 	lui	s2,0x9e90
    90e8:	36526a4e 	ori	s2,s2,0x6a4e
    90ec:	001fa021 	addu	s4,zero,ra
    90f0:	0016f821 	addu	ra,zero,s6
    90f4:	3c150001 	lui	s5,0x1
    90f8:	26b5908c 	addiu	s5,s5,-28532
    90fc:	3c0d3f8f 	lui	t5,0x3f8f
    9100:	35ad31c8 	ori	t5,t5,0x31c8
    9104:	160d084b 	bne	s0,t5,b234 <inst_error>
    9108:	00000000 	nop
    910c:	00000000 	nop
    9110:	3c0c9e90 	lui	t4,0x9e90
    9114:	358c6a4e 	ori	t4,t4,0x6a4e
    9118:	164c0846 	bne	s2,t4,b234 <inst_error>
    911c:	00000000 	nop
    9120:	00000000 	nop
    9124:	26b50008 	addiu	s5,s5,8
    9128:	16950842 	bne	s4,s5,b234 <inst_error>
    912c:	00000000 	nop
    9130:	00000000 	nop
    9134:	001fb021 	addu	s6,zero,ra
    9138:	3c0cbf53 	lui	t4,0xbf53
    913c:	358c426e 	ori	t4,t4,0x426e
    9140:	3c0daf12 	lui	t5,0xaf12
    9144:	35ad4b10 	ori	t5,t5,0x4b10
    9148:	24100000 	li	s0,0
    914c:	3c080001 	lui	t0,0x1
    9150:	25089168 	addiu	t0,t0,-28312
    9154:	3c090001 	lui	t1,0x1
    9158:	252991c8 	addiu	t1,t1,-28216
    915c:	10000013 	b	91ac <n40_jalr_test+0x91ac>
    9160:	24120000 	li	s2,0
    9164:	00000000 	nop
    9168:	3c10bf53 	lui	s0,0xbf53
    916c:	3610426e 	ori	s0,s0,0x426e
    9170:	0120f809 	jalr	t1
    9174:	00000000 	nop
    9178:	10000015 	b	91d0 <n40_jalr_test+0x91d0>
    917c:	00000000 	nop
    9180:	00000000 	nop
    9184:	00000021 	move	zero,zero
    9188:	00000021 	move	zero,zero
    918c:	00000021 	move	zero,zero
    9190:	00000021 	move	zero,zero
    9194:	00000021 	move	zero,zero
    9198:	00000021 	move	zero,zero
    919c:	00000021 	move	zero,zero
    91a0:	00000021 	move	zero,zero
    91a4:	00000021 	move	zero,zero
    91a8:	00000021 	move	zero,zero
    91ac:	0100f809 	jalr	t0
    91b0:	00000000 	nop
    91b4:	10000006 	b	91d0 <n40_jalr_test+0x91d0>
    91b8:	00000000 	nop
    91bc:	00000000 	nop
    91c0:	00000021 	move	zero,zero
    91c4:	00000021 	move	zero,zero
    91c8:	3c12af12 	lui	s2,0xaf12
    91cc:	36524b10 	ori	s2,s2,0x4b10
    91d0:	001fa021 	addu	s4,zero,ra
    91d4:	0016f821 	addu	ra,zero,s6
    91d8:	3c150001 	lui	s5,0x1
    91dc:	26b59170 	addiu	s5,s5,-28304
    91e0:	3c0dbf53 	lui	t5,0xbf53
    91e4:	35ad426e 	ori	t5,t5,0x426e
    91e8:	160d0812 	bne	s0,t5,b234 <inst_error>
    91ec:	00000000 	nop
    91f0:	00000000 	nop
    91f4:	3c0caf12 	lui	t4,0xaf12
    91f8:	358c4b10 	ori	t4,t4,0x4b10
    91fc:	164c080d 	bne	s2,t4,b234 <inst_error>
    9200:	00000000 	nop
    9204:	00000000 	nop
    9208:	26b50008 	addiu	s5,s5,8
    920c:	16950809 	bne	s4,s5,b234 <inst_error>
    9210:	00000000 	nop
    9214:	00000000 	nop
    9218:	001fb021 	addu	s6,zero,ra
    921c:	3c0cc60c 	lui	t4,0xc60c
    9220:	358cbf90 	ori	t4,t4,0xbf90
    9224:	3c0db11b 	lui	t5,0xb11b
    9228:	35adfb48 	ori	t5,t5,0xfb48
    922c:	24100000 	li	s0,0
    9230:	3c080001 	lui	t0,0x1
    9234:	2508924c 	addiu	t0,t0,-28084
    9238:	3c090001 	lui	t1,0x1
    923c:	252992ac 	addiu	t1,t1,-27988
    9240:	10000013 	b	9290 <n40_jalr_test+0x9290>
    9244:	24120000 	li	s2,0
    9248:	00000000 	nop
    924c:	3c10c60c 	lui	s0,0xc60c
    9250:	3610bf90 	ori	s0,s0,0xbf90
    9254:	0120f809 	jalr	t1
    9258:	00000000 	nop
    925c:	10000015 	b	92b4 <n40_jalr_test+0x92b4>
    9260:	00000000 	nop
    9264:	00000000 	nop
    9268:	00000021 	move	zero,zero
    926c:	00000021 	move	zero,zero
    9270:	00000021 	move	zero,zero
    9274:	00000021 	move	zero,zero
    9278:	00000021 	move	zero,zero
    927c:	00000021 	move	zero,zero
    9280:	00000021 	move	zero,zero
    9284:	00000021 	move	zero,zero
    9288:	00000021 	move	zero,zero
    928c:	00000021 	move	zero,zero
    9290:	0100f809 	jalr	t0
    9294:	00000000 	nop
    9298:	10000006 	b	92b4 <n40_jalr_test+0x92b4>
    929c:	00000000 	nop
    92a0:	00000000 	nop
    92a4:	00000021 	move	zero,zero
    92a8:	00000021 	move	zero,zero
    92ac:	3c12b11b 	lui	s2,0xb11b
    92b0:	3652fb48 	ori	s2,s2,0xfb48
    92b4:	001fa021 	addu	s4,zero,ra
    92b8:	0016f821 	addu	ra,zero,s6
    92bc:	3c150001 	lui	s5,0x1
    92c0:	26b59254 	addiu	s5,s5,-28076
    92c4:	3c0dc60c 	lui	t5,0xc60c
    92c8:	35adbf90 	ori	t5,t5,0xbf90
    92cc:	160d07d9 	bne	s0,t5,b234 <inst_error>
    92d0:	00000000 	nop
    92d4:	00000000 	nop
    92d8:	3c0cb11b 	lui	t4,0xb11b
    92dc:	358cfb48 	ori	t4,t4,0xfb48
    92e0:	164c07d4 	bne	s2,t4,b234 <inst_error>
    92e4:	00000000 	nop
    92e8:	00000000 	nop
    92ec:	26b50008 	addiu	s5,s5,8
    92f0:	169507d0 	bne	s4,s5,b234 <inst_error>
    92f4:	00000000 	nop
    92f8:	00000000 	nop
    92fc:	001fb021 	addu	s6,zero,ra
    9300:	3c0cc235 	lui	t4,0xc235
    9304:	358c0500 	ori	t4,t4,0x500
    9308:	3c0d1fcb 	lui	t5,0x1fcb
    930c:	35ad9330 	ori	t5,t5,0x9330
    9310:	24100000 	li	s0,0
    9314:	3c080001 	lui	t0,0x1
    9318:	25089330 	addiu	t0,t0,-27856
    931c:	3c090001 	lui	t1,0x1
    9320:	25299390 	addiu	t1,t1,-27760
    9324:	10000013 	b	9374 <n40_jalr_test+0x9374>
    9328:	24120000 	li	s2,0
    932c:	00000000 	nop
    9330:	3c10c235 	lui	s0,0xc235
    9334:	36100500 	ori	s0,s0,0x500
    9338:	0120f809 	jalr	t1
    933c:	00000000 	nop
    9340:	10000015 	b	9398 <n40_jalr_test+0x9398>
    9344:	00000000 	nop
    9348:	00000000 	nop
    934c:	00000021 	move	zero,zero
    9350:	00000021 	move	zero,zero
    9354:	00000021 	move	zero,zero
    9358:	00000021 	move	zero,zero
    935c:	00000021 	move	zero,zero
    9360:	00000021 	move	zero,zero
    9364:	00000021 	move	zero,zero
    9368:	00000021 	move	zero,zero
    936c:	00000021 	move	zero,zero
    9370:	00000021 	move	zero,zero
    9374:	0100f809 	jalr	t0
    9378:	00000000 	nop
    937c:	10000006 	b	9398 <n40_jalr_test+0x9398>
    9380:	00000000 	nop
    9384:	00000000 	nop
    9388:	00000021 	move	zero,zero
    938c:	00000021 	move	zero,zero
    9390:	3c121fcb 	lui	s2,0x1fcb
    9394:	36529330 	ori	s2,s2,0x9330
    9398:	001fa021 	addu	s4,zero,ra
    939c:	0016f821 	addu	ra,zero,s6
    93a0:	3c150001 	lui	s5,0x1
    93a4:	26b59338 	addiu	s5,s5,-27848
    93a8:	3c0dc235 	lui	t5,0xc235
    93ac:	35ad0500 	ori	t5,t5,0x500
    93b0:	160d07a0 	bne	s0,t5,b234 <inst_error>
    93b4:	00000000 	nop
    93b8:	00000000 	nop
    93bc:	3c0c1fcb 	lui	t4,0x1fcb
    93c0:	358c9330 	ori	t4,t4,0x9330
    93c4:	164c079b 	bne	s2,t4,b234 <inst_error>
    93c8:	00000000 	nop
    93cc:	00000000 	nop
    93d0:	26b50008 	addiu	s5,s5,8
    93d4:	16950797 	bne	s4,s5,b234 <inst_error>
    93d8:	00000000 	nop
    93dc:	00000000 	nop
    93e0:	001fb021 	addu	s6,zero,ra
    93e4:	3c0cb2af 	lui	t4,0xb2af
    93e8:	358c5140 	ori	t4,t4,0x5140
    93ec:	3c0de3ce 	lui	t5,0xe3ce
    93f0:	35ada1b0 	ori	t5,t5,0xa1b0
    93f4:	24100000 	li	s0,0
    93f8:	3c080001 	lui	t0,0x1
    93fc:	25089414 	addiu	t0,t0,-27628
    9400:	3c090001 	lui	t1,0x1
    9404:	25299474 	addiu	t1,t1,-27532
    9408:	10000013 	b	9458 <n40_jalr_test+0x9458>
    940c:	24120000 	li	s2,0
    9410:	00000000 	nop
    9414:	3c10b2af 	lui	s0,0xb2af
    9418:	36105140 	ori	s0,s0,0x5140
    941c:	0120f809 	jalr	t1
    9420:	00000000 	nop
    9424:	10000015 	b	947c <n40_jalr_test+0x947c>
    9428:	00000000 	nop
    942c:	00000000 	nop
    9430:	00000021 	move	zero,zero
    9434:	00000021 	move	zero,zero
    9438:	00000021 	move	zero,zero
    943c:	00000021 	move	zero,zero
    9440:	00000021 	move	zero,zero
    9444:	00000021 	move	zero,zero
    9448:	00000021 	move	zero,zero
    944c:	00000021 	move	zero,zero
    9450:	00000021 	move	zero,zero
    9454:	00000021 	move	zero,zero
    9458:	0100f809 	jalr	t0
    945c:	00000000 	nop
    9460:	10000006 	b	947c <n40_jalr_test+0x947c>
    9464:	00000000 	nop
    9468:	00000000 	nop
    946c:	00000021 	move	zero,zero
    9470:	00000021 	move	zero,zero
    9474:	3c12e3ce 	lui	s2,0xe3ce
    9478:	3652a1b0 	ori	s2,s2,0xa1b0
    947c:	001fa021 	addu	s4,zero,ra
    9480:	0016f821 	addu	ra,zero,s6
    9484:	3c150001 	lui	s5,0x1
    9488:	26b5941c 	addiu	s5,s5,-27620
    948c:	3c0db2af 	lui	t5,0xb2af
    9490:	35ad5140 	ori	t5,t5,0x5140
    9494:	160d0767 	bne	s0,t5,b234 <inst_error>
    9498:	00000000 	nop
    949c:	00000000 	nop
    94a0:	3c0ce3ce 	lui	t4,0xe3ce
    94a4:	358ca1b0 	ori	t4,t4,0xa1b0
    94a8:	164c0762 	bne	s2,t4,b234 <inst_error>
    94ac:	00000000 	nop
    94b0:	00000000 	nop
    94b4:	26b50008 	addiu	s5,s5,8
    94b8:	1695075e 	bne	s4,s5,b234 <inst_error>
    94bc:	00000000 	nop
    94c0:	00000000 	nop
    94c4:	001fb021 	addu	s6,zero,ra
    94c8:	3c0c6324 	lui	t4,0x6324
    94cc:	358c8e60 	ori	t4,t4,0x8e60
    94d0:	3c0d7118 	lui	t5,0x7118
    94d4:	35adc472 	ori	t5,t5,0xc472
    94d8:	24100000 	li	s0,0
    94dc:	3c080001 	lui	t0,0x1
    94e0:	250894f8 	addiu	t0,t0,-27400
    94e4:	3c090001 	lui	t1,0x1
    94e8:	25299558 	addiu	t1,t1,-27304
    94ec:	10000013 	b	953c <n40_jalr_test+0x953c>
    94f0:	24120000 	li	s2,0
    94f4:	00000000 	nop
    94f8:	3c106324 	lui	s0,0x6324
    94fc:	36108e60 	ori	s0,s0,0x8e60
    9500:	0120f809 	jalr	t1
    9504:	00000000 	nop
    9508:	10000015 	b	9560 <n40_jalr_test+0x9560>
    950c:	00000000 	nop
    9510:	00000000 	nop
    9514:	00000021 	move	zero,zero
    9518:	00000021 	move	zero,zero
    951c:	00000021 	move	zero,zero
    9520:	00000021 	move	zero,zero
    9524:	00000021 	move	zero,zero
    9528:	00000021 	move	zero,zero
    952c:	00000021 	move	zero,zero
    9530:	00000021 	move	zero,zero
    9534:	00000021 	move	zero,zero
    9538:	00000021 	move	zero,zero
    953c:	0100f809 	jalr	t0
    9540:	00000000 	nop
    9544:	10000006 	b	9560 <n40_jalr_test+0x9560>
    9548:	00000000 	nop
    954c:	00000000 	nop
    9550:	00000021 	move	zero,zero
    9554:	00000021 	move	zero,zero
    9558:	3c127118 	lui	s2,0x7118
    955c:	3652c472 	ori	s2,s2,0xc472
    9560:	001fa021 	addu	s4,zero,ra
    9564:	0016f821 	addu	ra,zero,s6
    9568:	3c150001 	lui	s5,0x1
    956c:	26b59500 	addiu	s5,s5,-27392
    9570:	3c0d6324 	lui	t5,0x6324
    9574:	35ad8e60 	ori	t5,t5,0x8e60
    9578:	160d072e 	bne	s0,t5,b234 <inst_error>
    957c:	00000000 	nop
    9580:	00000000 	nop
    9584:	3c0c7118 	lui	t4,0x7118
    9588:	358cc472 	ori	t4,t4,0xc472
    958c:	164c0729 	bne	s2,t4,b234 <inst_error>
    9590:	00000000 	nop
    9594:	00000000 	nop
    9598:	26b50008 	addiu	s5,s5,8
    959c:	16950725 	bne	s4,s5,b234 <inst_error>
    95a0:	00000000 	nop
    95a4:	00000000 	nop
    95a8:	001fb021 	addu	s6,zero,ra
    95ac:	3c0c9069 	lui	t4,0x9069
    95b0:	358c16a2 	ori	t4,t4,0x16a2
    95b4:	3c0d5567 	lui	t5,0x5567
    95b8:	35ad4c0f 	ori	t5,t5,0x4c0f
    95bc:	24100000 	li	s0,0
    95c0:	3c080001 	lui	t0,0x1
    95c4:	250895dc 	addiu	t0,t0,-27172
    95c8:	3c090001 	lui	t1,0x1
    95cc:	2529963c 	addiu	t1,t1,-27076
    95d0:	10000013 	b	9620 <n40_jalr_test+0x9620>
    95d4:	24120000 	li	s2,0
    95d8:	00000000 	nop
    95dc:	3c109069 	lui	s0,0x9069
    95e0:	361016a2 	ori	s0,s0,0x16a2
    95e4:	0120f809 	jalr	t1
    95e8:	00000000 	nop
    95ec:	10000015 	b	9644 <n40_jalr_test+0x9644>
    95f0:	00000000 	nop
    95f4:	00000000 	nop
    95f8:	00000021 	move	zero,zero
    95fc:	00000021 	move	zero,zero
    9600:	00000021 	move	zero,zero
    9604:	00000021 	move	zero,zero
    9608:	00000021 	move	zero,zero
    960c:	00000021 	move	zero,zero
    9610:	00000021 	move	zero,zero
    9614:	00000021 	move	zero,zero
    9618:	00000021 	move	zero,zero
    961c:	00000021 	move	zero,zero
    9620:	0100f809 	jalr	t0
    9624:	00000000 	nop
    9628:	10000006 	b	9644 <n40_jalr_test+0x9644>
    962c:	00000000 	nop
    9630:	00000000 	nop
    9634:	00000021 	move	zero,zero
    9638:	00000021 	move	zero,zero
    963c:	3c125567 	lui	s2,0x5567
    9640:	36524c0f 	ori	s2,s2,0x4c0f
    9644:	001fa021 	addu	s4,zero,ra
    9648:	0016f821 	addu	ra,zero,s6
    964c:	3c150001 	lui	s5,0x1
    9650:	26b595e4 	addiu	s5,s5,-27164
    9654:	3c0d9069 	lui	t5,0x9069
    9658:	35ad16a2 	ori	t5,t5,0x16a2
    965c:	160d06f5 	bne	s0,t5,b234 <inst_error>
    9660:	00000000 	nop
    9664:	00000000 	nop
    9668:	3c0c5567 	lui	t4,0x5567
    966c:	358c4c0f 	ori	t4,t4,0x4c0f
    9670:	164c06f0 	bne	s2,t4,b234 <inst_error>
    9674:	00000000 	nop
    9678:	00000000 	nop
    967c:	26b50008 	addiu	s5,s5,8
    9680:	169506ec 	bne	s4,s5,b234 <inst_error>
    9684:	00000000 	nop
    9688:	00000000 	nop
    968c:	001fb021 	addu	s6,zero,ra
    9690:	3c0ce77e 	lui	t4,0xe77e
    9694:	358ceec0 	ori	t4,t4,0xeec0
    9698:	3c0d4705 	lui	t5,0x4705
    969c:	35ad84f6 	ori	t5,t5,0x84f6
    96a0:	24100000 	li	s0,0
    96a4:	3c080001 	lui	t0,0x1
    96a8:	250896c0 	addiu	t0,t0,-26944
    96ac:	3c090001 	lui	t1,0x1
    96b0:	25299720 	addiu	t1,t1,-26848
    96b4:	10000013 	b	9704 <n40_jalr_test+0x9704>
    96b8:	24120000 	li	s2,0
    96bc:	00000000 	nop
    96c0:	3c10e77e 	lui	s0,0xe77e
    96c4:	3610eec0 	ori	s0,s0,0xeec0
    96c8:	0120f809 	jalr	t1
    96cc:	00000000 	nop
    96d0:	10000015 	b	9728 <n40_jalr_test+0x9728>
    96d4:	00000000 	nop
    96d8:	00000000 	nop
    96dc:	00000021 	move	zero,zero
    96e0:	00000021 	move	zero,zero
    96e4:	00000021 	move	zero,zero
    96e8:	00000021 	move	zero,zero
    96ec:	00000021 	move	zero,zero
    96f0:	00000021 	move	zero,zero
    96f4:	00000021 	move	zero,zero
    96f8:	00000021 	move	zero,zero
    96fc:	00000021 	move	zero,zero
    9700:	00000021 	move	zero,zero
    9704:	0100f809 	jalr	t0
    9708:	00000000 	nop
    970c:	10000006 	b	9728 <n40_jalr_test+0x9728>
    9710:	00000000 	nop
    9714:	00000000 	nop
    9718:	00000021 	move	zero,zero
    971c:	00000021 	move	zero,zero
    9720:	3c124705 	lui	s2,0x4705
    9724:	365284f6 	ori	s2,s2,0x84f6
    9728:	001fa021 	addu	s4,zero,ra
    972c:	0016f821 	addu	ra,zero,s6
    9730:	3c150001 	lui	s5,0x1
    9734:	26b596c8 	addiu	s5,s5,-26936
    9738:	3c0de77e 	lui	t5,0xe77e
    973c:	35adeec0 	ori	t5,t5,0xeec0
    9740:	160d06bc 	bne	s0,t5,b234 <inst_error>
    9744:	00000000 	nop
    9748:	00000000 	nop
    974c:	3c0c4705 	lui	t4,0x4705
    9750:	358c84f6 	ori	t4,t4,0x84f6
    9754:	164c06b7 	bne	s2,t4,b234 <inst_error>
    9758:	00000000 	nop
    975c:	00000000 	nop
    9760:	26b50008 	addiu	s5,s5,8
    9764:	169506b3 	bne	s4,s5,b234 <inst_error>
    9768:	00000000 	nop
    976c:	00000000 	nop
    9770:	001fb021 	addu	s6,zero,ra
    9774:	3c0c9ff5 	lui	t4,0x9ff5
    9778:	358c2a08 	ori	t4,t4,0x2a08
    977c:	3c0dd55e 	lui	t5,0xd55e
    9780:	35ad9100 	ori	t5,t5,0x9100
    9784:	24100000 	li	s0,0
    9788:	3c080001 	lui	t0,0x1
    978c:	250897a4 	addiu	t0,t0,-26716
    9790:	3c090001 	lui	t1,0x1
    9794:	25299804 	addiu	t1,t1,-26620
    9798:	10000013 	b	97e8 <n40_jalr_test+0x97e8>
    979c:	24120000 	li	s2,0
    97a0:	00000000 	nop
    97a4:	3c109ff5 	lui	s0,0x9ff5
    97a8:	36102a08 	ori	s0,s0,0x2a08
    97ac:	0120f809 	jalr	t1
    97b0:	00000000 	nop
    97b4:	10000015 	b	980c <n40_jalr_test+0x980c>
    97b8:	00000000 	nop
    97bc:	00000000 	nop
    97c0:	00000021 	move	zero,zero
    97c4:	00000021 	move	zero,zero
    97c8:	00000021 	move	zero,zero
    97cc:	00000021 	move	zero,zero
    97d0:	00000021 	move	zero,zero
    97d4:	00000021 	move	zero,zero
    97d8:	00000021 	move	zero,zero
    97dc:	00000021 	move	zero,zero
    97e0:	00000021 	move	zero,zero
    97e4:	00000021 	move	zero,zero
    97e8:	0100f809 	jalr	t0
    97ec:	00000000 	nop
    97f0:	10000006 	b	980c <n40_jalr_test+0x980c>
    97f4:	00000000 	nop
    97f8:	00000000 	nop
    97fc:	00000021 	move	zero,zero
    9800:	00000021 	move	zero,zero
    9804:	3c12d55e 	lui	s2,0xd55e
    9808:	36529100 	ori	s2,s2,0x9100
    980c:	001fa021 	addu	s4,zero,ra
    9810:	0016f821 	addu	ra,zero,s6
    9814:	3c150001 	lui	s5,0x1
    9818:	26b597ac 	addiu	s5,s5,-26708
    981c:	3c0d9ff5 	lui	t5,0x9ff5
    9820:	35ad2a08 	ori	t5,t5,0x2a08
    9824:	160d0683 	bne	s0,t5,b234 <inst_error>
    9828:	00000000 	nop
    982c:	00000000 	nop
    9830:	3c0cd55e 	lui	t4,0xd55e
    9834:	358c9100 	ori	t4,t4,0x9100
    9838:	164c067e 	bne	s2,t4,b234 <inst_error>
    983c:	00000000 	nop
    9840:	00000000 	nop
    9844:	26b50008 	addiu	s5,s5,8
    9848:	1695067a 	bne	s4,s5,b234 <inst_error>
    984c:	00000000 	nop
    9850:	00000000 	nop
    9854:	001fb021 	addu	s6,zero,ra
    9858:	3c0cef3a 	lui	t4,0xef3a
    985c:	358c85d0 	ori	t4,t4,0x85d0
    9860:	3c0d9957 	lui	t5,0x9957
    9864:	35ad82aa 	ori	t5,t5,0x82aa
    9868:	24100000 	li	s0,0
    986c:	3c080001 	lui	t0,0x1
    9870:	25089888 	addiu	t0,t0,-26488
    9874:	3c090001 	lui	t1,0x1
    9878:	252998e8 	addiu	t1,t1,-26392
    987c:	10000013 	b	98cc <n40_jalr_test+0x98cc>
    9880:	24120000 	li	s2,0
    9884:	00000000 	nop
    9888:	3c10ef3a 	lui	s0,0xef3a
    988c:	361085d0 	ori	s0,s0,0x85d0
    9890:	0120f809 	jalr	t1
    9894:	00000000 	nop
    9898:	10000015 	b	98f0 <n40_jalr_test+0x98f0>
    989c:	00000000 	nop
    98a0:	00000000 	nop
    98a4:	00000021 	move	zero,zero
    98a8:	00000021 	move	zero,zero
    98ac:	00000021 	move	zero,zero
    98b0:	00000021 	move	zero,zero
    98b4:	00000021 	move	zero,zero
    98b8:	00000021 	move	zero,zero
    98bc:	00000021 	move	zero,zero
    98c0:	00000021 	move	zero,zero
    98c4:	00000021 	move	zero,zero
    98c8:	00000021 	move	zero,zero
    98cc:	0100f809 	jalr	t0
    98d0:	00000000 	nop
    98d4:	10000006 	b	98f0 <n40_jalr_test+0x98f0>
    98d8:	00000000 	nop
    98dc:	00000000 	nop
    98e0:	00000021 	move	zero,zero
    98e4:	00000021 	move	zero,zero
    98e8:	3c129957 	lui	s2,0x9957
    98ec:	365282aa 	ori	s2,s2,0x82aa
    98f0:	001fa021 	addu	s4,zero,ra
    98f4:	0016f821 	addu	ra,zero,s6
    98f8:	3c150001 	lui	s5,0x1
    98fc:	26b59890 	addiu	s5,s5,-26480
    9900:	3c0def3a 	lui	t5,0xef3a
    9904:	35ad85d0 	ori	t5,t5,0x85d0
    9908:	160d064a 	bne	s0,t5,b234 <inst_error>
    990c:	00000000 	nop
    9910:	00000000 	nop
    9914:	3c0c9957 	lui	t4,0x9957
    9918:	358c82aa 	ori	t4,t4,0x82aa
    991c:	164c0645 	bne	s2,t4,b234 <inst_error>
    9920:	00000000 	nop
    9924:	00000000 	nop
    9928:	26b50008 	addiu	s5,s5,8
    992c:	16950641 	bne	s4,s5,b234 <inst_error>
    9930:	00000000 	nop
    9934:	00000000 	nop
    9938:	001fb021 	addu	s6,zero,ra
    993c:	3c0c81e3 	lui	t4,0x81e3
    9940:	358c37f8 	ori	t4,t4,0x37f8
    9944:	3c0d9c82 	lui	t5,0x9c82
    9948:	35adc3a0 	ori	t5,t5,0xc3a0
    994c:	24100000 	li	s0,0
    9950:	3c080001 	lui	t0,0x1
    9954:	2508996c 	addiu	t0,t0,-26260
    9958:	3c090001 	lui	t1,0x1
    995c:	252999cc 	addiu	t1,t1,-26164
    9960:	10000013 	b	99b0 <n40_jalr_test+0x99b0>
    9964:	24120000 	li	s2,0
    9968:	00000000 	nop
    996c:	3c1081e3 	lui	s0,0x81e3
    9970:	361037f8 	ori	s0,s0,0x37f8
    9974:	0120f809 	jalr	t1
    9978:	00000000 	nop
    997c:	10000015 	b	99d4 <n40_jalr_test+0x99d4>
    9980:	00000000 	nop
    9984:	00000000 	nop
    9988:	00000021 	move	zero,zero
    998c:	00000021 	move	zero,zero
    9990:	00000021 	move	zero,zero
    9994:	00000021 	move	zero,zero
    9998:	00000021 	move	zero,zero
    999c:	00000021 	move	zero,zero
    99a0:	00000021 	move	zero,zero
    99a4:	00000021 	move	zero,zero
    99a8:	00000021 	move	zero,zero
    99ac:	00000021 	move	zero,zero
    99b0:	0100f809 	jalr	t0
    99b4:	00000000 	nop
    99b8:	10000006 	b	99d4 <n40_jalr_test+0x99d4>
    99bc:	00000000 	nop
    99c0:	00000000 	nop
    99c4:	00000021 	move	zero,zero
    99c8:	00000021 	move	zero,zero
    99cc:	3c129c82 	lui	s2,0x9c82
    99d0:	3652c3a0 	ori	s2,s2,0xc3a0
    99d4:	001fa021 	addu	s4,zero,ra
    99d8:	0016f821 	addu	ra,zero,s6
    99dc:	3c150001 	lui	s5,0x1
    99e0:	26b59974 	addiu	s5,s5,-26252
    99e4:	3c0d81e3 	lui	t5,0x81e3
    99e8:	35ad37f8 	ori	t5,t5,0x37f8
    99ec:	160d0611 	bne	s0,t5,b234 <inst_error>
    99f0:	00000000 	nop
    99f4:	00000000 	nop
    99f8:	3c0c9c82 	lui	t4,0x9c82
    99fc:	358cc3a0 	ori	t4,t4,0xc3a0
    9a00:	164c060c 	bne	s2,t4,b234 <inst_error>
    9a04:	00000000 	nop
    9a08:	00000000 	nop
    9a0c:	26b50008 	addiu	s5,s5,8
    9a10:	16950608 	bne	s4,s5,b234 <inst_error>
    9a14:	00000000 	nop
    9a18:	00000000 	nop
    9a1c:	001fb021 	addu	s6,zero,ra
    9a20:	3c0c3e29 	lui	t4,0x3e29
    9a24:	358c8dc8 	ori	t4,t4,0x8dc8
    9a28:	3c0d02ac 	lui	t5,0x2ac
    9a2c:	35ad6cd8 	ori	t5,t5,0x6cd8
    9a30:	24100000 	li	s0,0
    9a34:	3c080001 	lui	t0,0x1
    9a38:	25089a50 	addiu	t0,t0,-26032
    9a3c:	3c090001 	lui	t1,0x1
    9a40:	25299ab0 	addiu	t1,t1,-25936
    9a44:	10000013 	b	9a94 <n40_jalr_test+0x9a94>
    9a48:	24120000 	li	s2,0
    9a4c:	00000000 	nop
    9a50:	3c103e29 	lui	s0,0x3e29
    9a54:	36108dc8 	ori	s0,s0,0x8dc8
    9a58:	0120f809 	jalr	t1
    9a5c:	00000000 	nop
    9a60:	10000015 	b	9ab8 <n40_jalr_test+0x9ab8>
    9a64:	00000000 	nop
    9a68:	00000000 	nop
    9a6c:	00000021 	move	zero,zero
    9a70:	00000021 	move	zero,zero
    9a74:	00000021 	move	zero,zero
    9a78:	00000021 	move	zero,zero
    9a7c:	00000021 	move	zero,zero
    9a80:	00000021 	move	zero,zero
    9a84:	00000021 	move	zero,zero
    9a88:	00000021 	move	zero,zero
    9a8c:	00000021 	move	zero,zero
    9a90:	00000021 	move	zero,zero
    9a94:	0100f809 	jalr	t0
    9a98:	00000000 	nop
    9a9c:	10000006 	b	9ab8 <n40_jalr_test+0x9ab8>
    9aa0:	00000000 	nop
    9aa4:	00000000 	nop
    9aa8:	00000021 	move	zero,zero
    9aac:	00000021 	move	zero,zero
    9ab0:	3c1202ac 	lui	s2,0x2ac
    9ab4:	36526cd8 	ori	s2,s2,0x6cd8
    9ab8:	001fa021 	addu	s4,zero,ra
    9abc:	0016f821 	addu	ra,zero,s6
    9ac0:	3c150001 	lui	s5,0x1
    9ac4:	26b59a58 	addiu	s5,s5,-26024
    9ac8:	3c0d3e29 	lui	t5,0x3e29
    9acc:	35ad8dc8 	ori	t5,t5,0x8dc8
    9ad0:	160d05d8 	bne	s0,t5,b234 <inst_error>
    9ad4:	00000000 	nop
    9ad8:	00000000 	nop
    9adc:	3c0c02ac 	lui	t4,0x2ac
    9ae0:	358c6cd8 	ori	t4,t4,0x6cd8
    9ae4:	164c05d3 	bne	s2,t4,b234 <inst_error>
    9ae8:	00000000 	nop
    9aec:	00000000 	nop
    9af0:	26b50008 	addiu	s5,s5,8
    9af4:	169505cf 	bne	s4,s5,b234 <inst_error>
    9af8:	00000000 	nop
    9afc:	00000000 	nop
    9b00:	001fb021 	addu	s6,zero,ra
    9b04:	3c0cd365 	lui	t4,0xd365
    9b08:	358cfd70 	ori	t4,t4,0xfd70
    9b0c:	3c0d6a23 	lui	t5,0x6a23
    9b10:	35ad3e98 	ori	t5,t5,0x3e98
    9b14:	24100000 	li	s0,0
    9b18:	3c080001 	lui	t0,0x1
    9b1c:	25089b34 	addiu	t0,t0,-25804
    9b20:	3c090001 	lui	t1,0x1
    9b24:	25299b94 	addiu	t1,t1,-25708
    9b28:	10000013 	b	9b78 <n40_jalr_test+0x9b78>
    9b2c:	24120000 	li	s2,0
    9b30:	00000000 	nop
    9b34:	3c10d365 	lui	s0,0xd365
    9b38:	3610fd70 	ori	s0,s0,0xfd70
    9b3c:	0120f809 	jalr	t1
    9b40:	00000000 	nop
    9b44:	10000015 	b	9b9c <n40_jalr_test+0x9b9c>
    9b48:	00000000 	nop
    9b4c:	00000000 	nop
    9b50:	00000021 	move	zero,zero
    9b54:	00000021 	move	zero,zero
    9b58:	00000021 	move	zero,zero
    9b5c:	00000021 	move	zero,zero
    9b60:	00000021 	move	zero,zero
    9b64:	00000021 	move	zero,zero
    9b68:	00000021 	move	zero,zero
    9b6c:	00000021 	move	zero,zero
    9b70:	00000021 	move	zero,zero
    9b74:	00000021 	move	zero,zero
    9b78:	0100f809 	jalr	t0
    9b7c:	00000000 	nop
    9b80:	10000006 	b	9b9c <n40_jalr_test+0x9b9c>
    9b84:	00000000 	nop
    9b88:	00000000 	nop
    9b8c:	00000021 	move	zero,zero
    9b90:	00000021 	move	zero,zero
    9b94:	3c126a23 	lui	s2,0x6a23
    9b98:	36523e98 	ori	s2,s2,0x3e98
    9b9c:	001fa021 	addu	s4,zero,ra
    9ba0:	0016f821 	addu	ra,zero,s6
    9ba4:	3c150001 	lui	s5,0x1
    9ba8:	26b59b3c 	addiu	s5,s5,-25796
    9bac:	3c0dd365 	lui	t5,0xd365
    9bb0:	35adfd70 	ori	t5,t5,0xfd70
    9bb4:	160d059f 	bne	s0,t5,b234 <inst_error>
    9bb8:	00000000 	nop
    9bbc:	00000000 	nop
    9bc0:	3c0c6a23 	lui	t4,0x6a23
    9bc4:	358c3e98 	ori	t4,t4,0x3e98
    9bc8:	164c059a 	bne	s2,t4,b234 <inst_error>
    9bcc:	00000000 	nop
    9bd0:	00000000 	nop
    9bd4:	26b50008 	addiu	s5,s5,8
    9bd8:	16950596 	bne	s4,s5,b234 <inst_error>
    9bdc:	00000000 	nop
    9be0:	00000000 	nop
    9be4:	001fb021 	addu	s6,zero,ra
    9be8:	3c0c2044 	lui	t4,0x2044
    9bec:	358ca324 	ori	t4,t4,0xa324
    9bf0:	3c0da39f 	lui	t5,0xa39f
    9bf4:	35adec0b 	ori	t5,t5,0xec0b
    9bf8:	24100000 	li	s0,0
    9bfc:	3c080001 	lui	t0,0x1
    9c00:	25089c18 	addiu	t0,t0,-25576
    9c04:	3c090001 	lui	t1,0x1
    9c08:	25299c78 	addiu	t1,t1,-25480
    9c0c:	10000013 	b	9c5c <n40_jalr_test+0x9c5c>
    9c10:	24120000 	li	s2,0
    9c14:	00000000 	nop
    9c18:	3c102044 	lui	s0,0x2044
    9c1c:	3610a324 	ori	s0,s0,0xa324
    9c20:	0120f809 	jalr	t1
    9c24:	00000000 	nop
    9c28:	10000015 	b	9c80 <n40_jalr_test+0x9c80>
    9c2c:	00000000 	nop
    9c30:	00000000 	nop
    9c34:	00000021 	move	zero,zero
    9c38:	00000021 	move	zero,zero
    9c3c:	00000021 	move	zero,zero
    9c40:	00000021 	move	zero,zero
    9c44:	00000021 	move	zero,zero
    9c48:	00000021 	move	zero,zero
    9c4c:	00000021 	move	zero,zero
    9c50:	00000021 	move	zero,zero
    9c54:	00000021 	move	zero,zero
    9c58:	00000021 	move	zero,zero
    9c5c:	0100f809 	jalr	t0
    9c60:	00000000 	nop
    9c64:	10000006 	b	9c80 <n40_jalr_test+0x9c80>
    9c68:	00000000 	nop
    9c6c:	00000000 	nop
    9c70:	00000021 	move	zero,zero
    9c74:	00000021 	move	zero,zero
    9c78:	3c12a39f 	lui	s2,0xa39f
    9c7c:	3652ec0b 	ori	s2,s2,0xec0b
    9c80:	001fa021 	addu	s4,zero,ra
    9c84:	0016f821 	addu	ra,zero,s6
    9c88:	3c150001 	lui	s5,0x1
    9c8c:	26b59c20 	addiu	s5,s5,-25568
    9c90:	3c0d2044 	lui	t5,0x2044
    9c94:	35ada324 	ori	t5,t5,0xa324
    9c98:	160d0566 	bne	s0,t5,b234 <inst_error>
    9c9c:	00000000 	nop
    9ca0:	00000000 	nop
    9ca4:	3c0ca39f 	lui	t4,0xa39f
    9ca8:	358cec0b 	ori	t4,t4,0xec0b
    9cac:	164c0561 	bne	s2,t4,b234 <inst_error>
    9cb0:	00000000 	nop
    9cb4:	00000000 	nop
    9cb8:	26b50008 	addiu	s5,s5,8
    9cbc:	1695055d 	bne	s4,s5,b234 <inst_error>
    9cc0:	00000000 	nop
    9cc4:	00000000 	nop
    9cc8:	001fb021 	addu	s6,zero,ra
    9ccc:	3c0c3968 	lui	t4,0x3968
    9cd0:	358c8b54 	ori	t4,t4,0x8b54
    9cd4:	3c0d7ede 	lui	t5,0x7ede
    9cd8:	35ad5a00 	ori	t5,t5,0x5a00
    9cdc:	24100000 	li	s0,0
    9ce0:	3c080001 	lui	t0,0x1
    9ce4:	25089cfc 	addiu	t0,t0,-25348
    9ce8:	3c090001 	lui	t1,0x1
    9cec:	25299d5c 	addiu	t1,t1,-25252
    9cf0:	10000013 	b	9d40 <n40_jalr_test+0x9d40>
    9cf4:	24120000 	li	s2,0
    9cf8:	00000000 	nop
    9cfc:	3c103968 	lui	s0,0x3968
    9d00:	36108b54 	ori	s0,s0,0x8b54
    9d04:	0120f809 	jalr	t1
    9d08:	00000000 	nop
    9d0c:	10000015 	b	9d64 <n40_jalr_test+0x9d64>
    9d10:	00000000 	nop
    9d14:	00000000 	nop
    9d18:	00000021 	move	zero,zero
    9d1c:	00000021 	move	zero,zero
    9d20:	00000021 	move	zero,zero
    9d24:	00000021 	move	zero,zero
    9d28:	00000021 	move	zero,zero
    9d2c:	00000021 	move	zero,zero
    9d30:	00000021 	move	zero,zero
    9d34:	00000021 	move	zero,zero
    9d38:	00000021 	move	zero,zero
    9d3c:	00000021 	move	zero,zero
    9d40:	0100f809 	jalr	t0
    9d44:	00000000 	nop
    9d48:	10000006 	b	9d64 <n40_jalr_test+0x9d64>
    9d4c:	00000000 	nop
    9d50:	00000000 	nop
    9d54:	00000021 	move	zero,zero
    9d58:	00000021 	move	zero,zero
    9d5c:	3c127ede 	lui	s2,0x7ede
    9d60:	36525a00 	ori	s2,s2,0x5a00
    9d64:	001fa021 	addu	s4,zero,ra
    9d68:	0016f821 	addu	ra,zero,s6
    9d6c:	3c150001 	lui	s5,0x1
    9d70:	26b59d04 	addiu	s5,s5,-25340
    9d74:	3c0d3968 	lui	t5,0x3968
    9d78:	35ad8b54 	ori	t5,t5,0x8b54
    9d7c:	160d052d 	bne	s0,t5,b234 <inst_error>
    9d80:	00000000 	nop
    9d84:	00000000 	nop
    9d88:	3c0c7ede 	lui	t4,0x7ede
    9d8c:	358c5a00 	ori	t4,t4,0x5a00
    9d90:	164c0528 	bne	s2,t4,b234 <inst_error>
    9d94:	00000000 	nop
    9d98:	00000000 	nop
    9d9c:	26b50008 	addiu	s5,s5,8
    9da0:	16950524 	bne	s4,s5,b234 <inst_error>
    9da4:	00000000 	nop
    9da8:	00000000 	nop
    9dac:	001fb021 	addu	s6,zero,ra
    9db0:	3c0c3332 	lui	t4,0x3332
    9db4:	358c5ec8 	ori	t4,t4,0x5ec8
    9db8:	3c0d069c 	lui	t5,0x69c
    9dbc:	35adc078 	ori	t5,t5,0xc078
    9dc0:	24100000 	li	s0,0
    9dc4:	3c080001 	lui	t0,0x1
    9dc8:	25089de0 	addiu	t0,t0,-25120
    9dcc:	3c090001 	lui	t1,0x1
    9dd0:	25299e40 	addiu	t1,t1,-25024
    9dd4:	10000013 	b	9e24 <n40_jalr_test+0x9e24>
    9dd8:	24120000 	li	s2,0
    9ddc:	00000000 	nop
    9de0:	3c103332 	lui	s0,0x3332
    9de4:	36105ec8 	ori	s0,s0,0x5ec8
    9de8:	0120f809 	jalr	t1
    9dec:	00000000 	nop
    9df0:	10000015 	b	9e48 <n40_jalr_test+0x9e48>
    9df4:	00000000 	nop
    9df8:	00000000 	nop
    9dfc:	00000021 	move	zero,zero
    9e00:	00000021 	move	zero,zero
    9e04:	00000021 	move	zero,zero
    9e08:	00000021 	move	zero,zero
    9e0c:	00000021 	move	zero,zero
    9e10:	00000021 	move	zero,zero
    9e14:	00000021 	move	zero,zero
    9e18:	00000021 	move	zero,zero
    9e1c:	00000021 	move	zero,zero
    9e20:	00000021 	move	zero,zero
    9e24:	0100f809 	jalr	t0
    9e28:	00000000 	nop
    9e2c:	10000006 	b	9e48 <n40_jalr_test+0x9e48>
    9e30:	00000000 	nop
    9e34:	00000000 	nop
    9e38:	00000021 	move	zero,zero
    9e3c:	00000021 	move	zero,zero
    9e40:	3c12069c 	lui	s2,0x69c
    9e44:	3652c078 	ori	s2,s2,0xc078
    9e48:	001fa021 	addu	s4,zero,ra
    9e4c:	0016f821 	addu	ra,zero,s6
    9e50:	3c150001 	lui	s5,0x1
    9e54:	26b59de8 	addiu	s5,s5,-25112
    9e58:	3c0d3332 	lui	t5,0x3332
    9e5c:	35ad5ec8 	ori	t5,t5,0x5ec8
    9e60:	160d04f4 	bne	s0,t5,b234 <inst_error>
    9e64:	00000000 	nop
    9e68:	00000000 	nop
    9e6c:	3c0c069c 	lui	t4,0x69c
    9e70:	358cc078 	ori	t4,t4,0xc078
    9e74:	164c04ef 	bne	s2,t4,b234 <inst_error>
    9e78:	00000000 	nop
    9e7c:	00000000 	nop
    9e80:	26b50008 	addiu	s5,s5,8
    9e84:	169504eb 	bne	s4,s5,b234 <inst_error>
    9e88:	00000000 	nop
    9e8c:	00000000 	nop
    9e90:	001fb021 	addu	s6,zero,ra
    9e94:	3c0c281d 	lui	t4,0x281d
    9e98:	358c17a0 	ori	t4,t4,0x17a0
    9e9c:	3c0d9e2f 	lui	t5,0x9e2f
    9ea0:	35ad60c8 	ori	t5,t5,0x60c8
    9ea4:	24100000 	li	s0,0
    9ea8:	3c080001 	lui	t0,0x1
    9eac:	25089ec4 	addiu	t0,t0,-24892
    9eb0:	3c090001 	lui	t1,0x1
    9eb4:	25299f24 	addiu	t1,t1,-24796
    9eb8:	10000013 	b	9f08 <n40_jalr_test+0x9f08>
    9ebc:	24120000 	li	s2,0
    9ec0:	00000000 	nop
    9ec4:	3c10281d 	lui	s0,0x281d
    9ec8:	361017a0 	ori	s0,s0,0x17a0
    9ecc:	0120f809 	jalr	t1
    9ed0:	00000000 	nop
    9ed4:	10000015 	b	9f2c <n40_jalr_test+0x9f2c>
    9ed8:	00000000 	nop
    9edc:	00000000 	nop
    9ee0:	00000021 	move	zero,zero
    9ee4:	00000021 	move	zero,zero
    9ee8:	00000021 	move	zero,zero
    9eec:	00000021 	move	zero,zero
    9ef0:	00000021 	move	zero,zero
    9ef4:	00000021 	move	zero,zero
    9ef8:	00000021 	move	zero,zero
    9efc:	00000021 	move	zero,zero
    9f00:	00000021 	move	zero,zero
    9f04:	00000021 	move	zero,zero
    9f08:	0100f809 	jalr	t0
    9f0c:	00000000 	nop
    9f10:	10000006 	b	9f2c <n40_jalr_test+0x9f2c>
    9f14:	00000000 	nop
    9f18:	00000000 	nop
    9f1c:	00000021 	move	zero,zero
    9f20:	00000021 	move	zero,zero
    9f24:	3c129e2f 	lui	s2,0x9e2f
    9f28:	365260c8 	ori	s2,s2,0x60c8
    9f2c:	001fa021 	addu	s4,zero,ra
    9f30:	0016f821 	addu	ra,zero,s6
    9f34:	3c150001 	lui	s5,0x1
    9f38:	26b59ecc 	addiu	s5,s5,-24884
    9f3c:	3c0d281d 	lui	t5,0x281d
    9f40:	35ad17a0 	ori	t5,t5,0x17a0
    9f44:	160d04bb 	bne	s0,t5,b234 <inst_error>
    9f48:	00000000 	nop
    9f4c:	00000000 	nop
    9f50:	3c0c9e2f 	lui	t4,0x9e2f
    9f54:	358c60c8 	ori	t4,t4,0x60c8
    9f58:	164c04b6 	bne	s2,t4,b234 <inst_error>
    9f5c:	00000000 	nop
    9f60:	00000000 	nop
    9f64:	26b50008 	addiu	s5,s5,8
    9f68:	169504b2 	bne	s4,s5,b234 <inst_error>
    9f6c:	00000000 	nop
    9f70:	00000000 	nop
    9f74:	001fb021 	addu	s6,zero,ra
    9f78:	3c0c311c 	lui	t4,0x311c
    9f7c:	358cd17e 	ori	t4,t4,0xd17e
    9f80:	3c0defc4 	lui	t5,0xefc4
    9f84:	35ad68c8 	ori	t5,t5,0x68c8
    9f88:	24100000 	li	s0,0
    9f8c:	3c080001 	lui	t0,0x1
    9f90:	25089fa8 	addiu	t0,t0,-24664
    9f94:	3c090001 	lui	t1,0x1
    9f98:	2529a008 	addiu	t1,t1,-24568
    9f9c:	10000013 	b	9fec <n40_jalr_test+0x9fec>
    9fa0:	24120000 	li	s2,0
    9fa4:	00000000 	nop
    9fa8:	3c10311c 	lui	s0,0x311c
    9fac:	3610d17e 	ori	s0,s0,0xd17e
    9fb0:	0120f809 	jalr	t1
    9fb4:	00000000 	nop
    9fb8:	10000015 	b	a010 <n40_jalr_test+0xa010>
    9fbc:	00000000 	nop
    9fc0:	00000000 	nop
    9fc4:	00000021 	move	zero,zero
    9fc8:	00000021 	move	zero,zero
    9fcc:	00000021 	move	zero,zero
    9fd0:	00000021 	move	zero,zero
    9fd4:	00000021 	move	zero,zero
    9fd8:	00000021 	move	zero,zero
    9fdc:	00000021 	move	zero,zero
    9fe0:	00000021 	move	zero,zero
    9fe4:	00000021 	move	zero,zero
    9fe8:	00000021 	move	zero,zero
    9fec:	0100f809 	jalr	t0
    9ff0:	00000000 	nop
    9ff4:	10000006 	b	a010 <n40_jalr_test+0xa010>
    9ff8:	00000000 	nop
    9ffc:	00000000 	nop
    a000:	00000021 	move	zero,zero
    a004:	00000021 	move	zero,zero
    a008:	3c12efc4 	lui	s2,0xefc4
    a00c:	365268c8 	ori	s2,s2,0x68c8
    a010:	001fa021 	addu	s4,zero,ra
    a014:	0016f821 	addu	ra,zero,s6
    a018:	3c150001 	lui	s5,0x1
    a01c:	26b59fb0 	addiu	s5,s5,-24656
    a020:	3c0d311c 	lui	t5,0x311c
    a024:	35add17e 	ori	t5,t5,0xd17e
    a028:	160d0482 	bne	s0,t5,b234 <inst_error>
    a02c:	00000000 	nop
    a030:	00000000 	nop
    a034:	3c0cefc4 	lui	t4,0xefc4
    a038:	358c68c8 	ori	t4,t4,0x68c8
    a03c:	164c047d 	bne	s2,t4,b234 <inst_error>
    a040:	00000000 	nop
    a044:	00000000 	nop
    a048:	26b50008 	addiu	s5,s5,8
    a04c:	16950479 	bne	s4,s5,b234 <inst_error>
    a050:	00000000 	nop
    a054:	00000000 	nop
    a058:	001fb021 	addu	s6,zero,ra
    a05c:	3c0c787e 	lui	t4,0x787e
    a060:	358cf7de 	ori	t4,t4,0xf7de
    a064:	3c0dda72 	lui	t5,0xda72
    a068:	35adfb90 	ori	t5,t5,0xfb90
    a06c:	24100000 	li	s0,0
    a070:	3c080001 	lui	t0,0x1
    a074:	2508a08c 	addiu	t0,t0,-24436
    a078:	3c090001 	lui	t1,0x1
    a07c:	2529a0ec 	addiu	t1,t1,-24340
    a080:	10000013 	b	a0d0 <n40_jalr_test+0xa0d0>
    a084:	24120000 	li	s2,0
    a088:	00000000 	nop
    a08c:	3c10787e 	lui	s0,0x787e
    a090:	3610f7de 	ori	s0,s0,0xf7de
    a094:	0120f809 	jalr	t1
    a098:	00000000 	nop
    a09c:	10000015 	b	a0f4 <n40_jalr_test+0xa0f4>
    a0a0:	00000000 	nop
    a0a4:	00000000 	nop
    a0a8:	00000021 	move	zero,zero
    a0ac:	00000021 	move	zero,zero
    a0b0:	00000021 	move	zero,zero
    a0b4:	00000021 	move	zero,zero
    a0b8:	00000021 	move	zero,zero
    a0bc:	00000021 	move	zero,zero
    a0c0:	00000021 	move	zero,zero
    a0c4:	00000021 	move	zero,zero
    a0c8:	00000021 	move	zero,zero
    a0cc:	00000021 	move	zero,zero
    a0d0:	0100f809 	jalr	t0
    a0d4:	00000000 	nop
    a0d8:	10000006 	b	a0f4 <n40_jalr_test+0xa0f4>
    a0dc:	00000000 	nop
    a0e0:	00000000 	nop
    a0e4:	00000021 	move	zero,zero
    a0e8:	00000021 	move	zero,zero
    a0ec:	3c12da72 	lui	s2,0xda72
    a0f0:	3652fb90 	ori	s2,s2,0xfb90
    a0f4:	001fa021 	addu	s4,zero,ra
    a0f8:	0016f821 	addu	ra,zero,s6
    a0fc:	3c150001 	lui	s5,0x1
    a100:	26b5a094 	addiu	s5,s5,-24428
    a104:	3c0d787e 	lui	t5,0x787e
    a108:	35adf7de 	ori	t5,t5,0xf7de
    a10c:	160d0449 	bne	s0,t5,b234 <inst_error>
    a110:	00000000 	nop
    a114:	00000000 	nop
    a118:	3c0cda72 	lui	t4,0xda72
    a11c:	358cfb90 	ori	t4,t4,0xfb90
    a120:	164c0444 	bne	s2,t4,b234 <inst_error>
    a124:	00000000 	nop
    a128:	00000000 	nop
    a12c:	26b50008 	addiu	s5,s5,8
    a130:	16950440 	bne	s4,s5,b234 <inst_error>
    a134:	00000000 	nop
    a138:	00000000 	nop
    a13c:	001fb021 	addu	s6,zero,ra
    a140:	3c0c94b5 	lui	t4,0x94b5
    a144:	358ca61a 	ori	t4,t4,0xa61a
    a148:	3c0d6cdf 	lui	t5,0x6cdf
    a14c:	35ad84e4 	ori	t5,t5,0x84e4
    a150:	24100000 	li	s0,0
    a154:	3c080001 	lui	t0,0x1
    a158:	2508a170 	addiu	t0,t0,-24208
    a15c:	3c090001 	lui	t1,0x1
    a160:	2529a1d0 	addiu	t1,t1,-24112
    a164:	10000013 	b	a1b4 <n40_jalr_test+0xa1b4>
    a168:	24120000 	li	s2,0
    a16c:	00000000 	nop
    a170:	3c1094b5 	lui	s0,0x94b5
    a174:	3610a61a 	ori	s0,s0,0xa61a
    a178:	0120f809 	jalr	t1
    a17c:	00000000 	nop
    a180:	10000015 	b	a1d8 <n40_jalr_test+0xa1d8>
    a184:	00000000 	nop
    a188:	00000000 	nop
    a18c:	00000021 	move	zero,zero
    a190:	00000021 	move	zero,zero
    a194:	00000021 	move	zero,zero
    a198:	00000021 	move	zero,zero
    a19c:	00000021 	move	zero,zero
    a1a0:	00000021 	move	zero,zero
    a1a4:	00000021 	move	zero,zero
    a1a8:	00000021 	move	zero,zero
    a1ac:	00000021 	move	zero,zero
    a1b0:	00000021 	move	zero,zero
    a1b4:	0100f809 	jalr	t0
    a1b8:	00000000 	nop
    a1bc:	10000006 	b	a1d8 <n40_jalr_test+0xa1d8>
    a1c0:	00000000 	nop
    a1c4:	00000000 	nop
    a1c8:	00000021 	move	zero,zero
    a1cc:	00000021 	move	zero,zero
    a1d0:	3c126cdf 	lui	s2,0x6cdf
    a1d4:	365284e4 	ori	s2,s2,0x84e4
    a1d8:	001fa021 	addu	s4,zero,ra
    a1dc:	0016f821 	addu	ra,zero,s6
    a1e0:	3c150001 	lui	s5,0x1
    a1e4:	26b5a178 	addiu	s5,s5,-24200
    a1e8:	3c0d94b5 	lui	t5,0x94b5
    a1ec:	35ada61a 	ori	t5,t5,0xa61a
    a1f0:	160d0410 	bne	s0,t5,b234 <inst_error>
    a1f4:	00000000 	nop
    a1f8:	00000000 	nop
    a1fc:	3c0c6cdf 	lui	t4,0x6cdf
    a200:	358c84e4 	ori	t4,t4,0x84e4
    a204:	164c040b 	bne	s2,t4,b234 <inst_error>
    a208:	00000000 	nop
    a20c:	00000000 	nop
    a210:	26b50008 	addiu	s5,s5,8
    a214:	16950407 	bne	s4,s5,b234 <inst_error>
    a218:	00000000 	nop
    a21c:	00000000 	nop
    a220:	001fb021 	addu	s6,zero,ra
    a224:	3c0c2963 	lui	t4,0x2963
    a228:	358c8a20 	ori	t4,t4,0x8a20
    a22c:	3c0d2fbb 	lui	t5,0x2fbb
    a230:	35ad2656 	ori	t5,t5,0x2656
    a234:	24100000 	li	s0,0
    a238:	3c080001 	lui	t0,0x1
    a23c:	2508a254 	addiu	t0,t0,-23980
    a240:	3c090001 	lui	t1,0x1
    a244:	2529a2b4 	addiu	t1,t1,-23884
    a248:	10000013 	b	a298 <n40_jalr_test+0xa298>
    a24c:	24120000 	li	s2,0
    a250:	00000000 	nop
    a254:	3c102963 	lui	s0,0x2963
    a258:	36108a20 	ori	s0,s0,0x8a20
    a25c:	0120f809 	jalr	t1
    a260:	00000000 	nop
    a264:	10000015 	b	a2bc <n40_jalr_test+0xa2bc>
    a268:	00000000 	nop
    a26c:	00000000 	nop
    a270:	00000021 	move	zero,zero
    a274:	00000021 	move	zero,zero
    a278:	00000021 	move	zero,zero
    a27c:	00000021 	move	zero,zero
    a280:	00000021 	move	zero,zero
    a284:	00000021 	move	zero,zero
    a288:	00000021 	move	zero,zero
    a28c:	00000021 	move	zero,zero
    a290:	00000021 	move	zero,zero
    a294:	00000021 	move	zero,zero
    a298:	0100f809 	jalr	t0
    a29c:	00000000 	nop
    a2a0:	10000006 	b	a2bc <n40_jalr_test+0xa2bc>
    a2a4:	00000000 	nop
    a2a8:	00000000 	nop
    a2ac:	00000021 	move	zero,zero
    a2b0:	00000021 	move	zero,zero
    a2b4:	3c122fbb 	lui	s2,0x2fbb
    a2b8:	36522656 	ori	s2,s2,0x2656
    a2bc:	001fa021 	addu	s4,zero,ra
    a2c0:	0016f821 	addu	ra,zero,s6
    a2c4:	3c150001 	lui	s5,0x1
    a2c8:	26b5a25c 	addiu	s5,s5,-23972
    a2cc:	3c0d2963 	lui	t5,0x2963
    a2d0:	35ad8a20 	ori	t5,t5,0x8a20
    a2d4:	160d03d7 	bne	s0,t5,b234 <inst_error>
    a2d8:	00000000 	nop
    a2dc:	00000000 	nop
    a2e0:	3c0c2fbb 	lui	t4,0x2fbb
    a2e4:	358c2656 	ori	t4,t4,0x2656
    a2e8:	164c03d2 	bne	s2,t4,b234 <inst_error>
    a2ec:	00000000 	nop
    a2f0:	00000000 	nop
    a2f4:	26b50008 	addiu	s5,s5,8
    a2f8:	169503ce 	bne	s4,s5,b234 <inst_error>
    a2fc:	00000000 	nop
    a300:	00000000 	nop
    a304:	001fb021 	addu	s6,zero,ra
    a308:	3c0cc521 	lui	t4,0xc521
    a30c:	358c0ba6 	ori	t4,t4,0xba6
    a310:	3c0dd65a 	lui	t5,0xd65a
    a314:	35ad04de 	ori	t5,t5,0x4de
    a318:	24100000 	li	s0,0
    a31c:	3c080001 	lui	t0,0x1
    a320:	2508a338 	addiu	t0,t0,-23752
    a324:	3c090001 	lui	t1,0x1
    a328:	2529a398 	addiu	t1,t1,-23656
    a32c:	10000013 	b	a37c <n40_jalr_test+0xa37c>
    a330:	24120000 	li	s2,0
    a334:	00000000 	nop
    a338:	3c10c521 	lui	s0,0xc521
    a33c:	36100ba6 	ori	s0,s0,0xba6
    a340:	0120f809 	jalr	t1
    a344:	00000000 	nop
    a348:	10000015 	b	a3a0 <n40_jalr_test+0xa3a0>
    a34c:	00000000 	nop
    a350:	00000000 	nop
    a354:	00000021 	move	zero,zero
    a358:	00000021 	move	zero,zero
    a35c:	00000021 	move	zero,zero
    a360:	00000021 	move	zero,zero
    a364:	00000021 	move	zero,zero
    a368:	00000021 	move	zero,zero
    a36c:	00000021 	move	zero,zero
    a370:	00000021 	move	zero,zero
    a374:	00000021 	move	zero,zero
    a378:	00000021 	move	zero,zero
    a37c:	0100f809 	jalr	t0
    a380:	00000000 	nop
    a384:	10000006 	b	a3a0 <n40_jalr_test+0xa3a0>
    a388:	00000000 	nop
    a38c:	00000000 	nop
    a390:	00000021 	move	zero,zero
    a394:	00000021 	move	zero,zero
    a398:	3c12d65a 	lui	s2,0xd65a
    a39c:	365204de 	ori	s2,s2,0x4de
    a3a0:	001fa021 	addu	s4,zero,ra
    a3a4:	0016f821 	addu	ra,zero,s6
    a3a8:	3c150001 	lui	s5,0x1
    a3ac:	26b5a340 	addiu	s5,s5,-23744
    a3b0:	3c0dc521 	lui	t5,0xc521
    a3b4:	35ad0ba6 	ori	t5,t5,0xba6
    a3b8:	160d039e 	bne	s0,t5,b234 <inst_error>
    a3bc:	00000000 	nop
    a3c0:	00000000 	nop
    a3c4:	3c0cd65a 	lui	t4,0xd65a
    a3c8:	358c04de 	ori	t4,t4,0x4de
    a3cc:	164c0399 	bne	s2,t4,b234 <inst_error>
    a3d0:	00000000 	nop
    a3d4:	00000000 	nop
    a3d8:	26b50008 	addiu	s5,s5,8
    a3dc:	16950395 	bne	s4,s5,b234 <inst_error>
    a3e0:	00000000 	nop
    a3e4:	00000000 	nop
    a3e8:	001fb021 	addu	s6,zero,ra
    a3ec:	3c0c12a9 	lui	t4,0x12a9
    a3f0:	358c3b40 	ori	t4,t4,0x3b40
    a3f4:	3c0d050b 	lui	t5,0x50b
    a3f8:	35ad0700 	ori	t5,t5,0x700
    a3fc:	24100000 	li	s0,0
    a400:	3c080001 	lui	t0,0x1
    a404:	2508a41c 	addiu	t0,t0,-23524
    a408:	3c090001 	lui	t1,0x1
    a40c:	2529a47c 	addiu	t1,t1,-23428
    a410:	10000013 	b	a460 <n40_jalr_test+0xa460>
    a414:	24120000 	li	s2,0
    a418:	00000000 	nop
    a41c:	3c1012a9 	lui	s0,0x12a9
    a420:	36103b40 	ori	s0,s0,0x3b40
    a424:	0120f809 	jalr	t1
    a428:	00000000 	nop
    a42c:	10000015 	b	a484 <n40_jalr_test+0xa484>
    a430:	00000000 	nop
    a434:	00000000 	nop
    a438:	00000021 	move	zero,zero
    a43c:	00000021 	move	zero,zero
    a440:	00000021 	move	zero,zero
    a444:	00000021 	move	zero,zero
    a448:	00000021 	move	zero,zero
    a44c:	00000021 	move	zero,zero
    a450:	00000021 	move	zero,zero
    a454:	00000021 	move	zero,zero
    a458:	00000021 	move	zero,zero
    a45c:	00000021 	move	zero,zero
    a460:	0100f809 	jalr	t0
    a464:	00000000 	nop
    a468:	10000006 	b	a484 <n40_jalr_test+0xa484>
    a46c:	00000000 	nop
    a470:	00000000 	nop
    a474:	00000021 	move	zero,zero
    a478:	00000021 	move	zero,zero
    a47c:	3c12050b 	lui	s2,0x50b
    a480:	36520700 	ori	s2,s2,0x700
    a484:	001fa021 	addu	s4,zero,ra
    a488:	0016f821 	addu	ra,zero,s6
    a48c:	3c150001 	lui	s5,0x1
    a490:	26b5a424 	addiu	s5,s5,-23516
    a494:	3c0d12a9 	lui	t5,0x12a9
    a498:	35ad3b40 	ori	t5,t5,0x3b40
    a49c:	160d0365 	bne	s0,t5,b234 <inst_error>
    a4a0:	00000000 	nop
    a4a4:	00000000 	nop
    a4a8:	3c0c050b 	lui	t4,0x50b
    a4ac:	358c0700 	ori	t4,t4,0x700
    a4b0:	164c0360 	bne	s2,t4,b234 <inst_error>
    a4b4:	00000000 	nop
    a4b8:	00000000 	nop
    a4bc:	26b50008 	addiu	s5,s5,8
    a4c0:	1695035c 	bne	s4,s5,b234 <inst_error>
    a4c4:	00000000 	nop
    a4c8:	00000000 	nop
    a4cc:	001fb021 	addu	s6,zero,ra
    a4d0:	3c0c1e34 	lui	t4,0x1e34
    a4d4:	358c1c00 	ori	t4,t4,0x1c00
    a4d8:	3c0d29ca 	lui	t5,0x29ca
    a4dc:	35ade707 	ori	t5,t5,0xe707
    a4e0:	24100000 	li	s0,0
    a4e4:	3c080001 	lui	t0,0x1
    a4e8:	2508a500 	addiu	t0,t0,-23296
    a4ec:	3c090001 	lui	t1,0x1
    a4f0:	2529a560 	addiu	t1,t1,-23200
    a4f4:	10000013 	b	a544 <n40_jalr_test+0xa544>
    a4f8:	24120000 	li	s2,0
    a4fc:	00000000 	nop
    a500:	3c101e34 	lui	s0,0x1e34
    a504:	36101c00 	ori	s0,s0,0x1c00
    a508:	0120f809 	jalr	t1
    a50c:	00000000 	nop
    a510:	10000015 	b	a568 <n40_jalr_test+0xa568>
    a514:	00000000 	nop
    a518:	00000000 	nop
    a51c:	00000021 	move	zero,zero
    a520:	00000021 	move	zero,zero
    a524:	00000021 	move	zero,zero
    a528:	00000021 	move	zero,zero
    a52c:	00000021 	move	zero,zero
    a530:	00000021 	move	zero,zero
    a534:	00000021 	move	zero,zero
    a538:	00000021 	move	zero,zero
    a53c:	00000021 	move	zero,zero
    a540:	00000021 	move	zero,zero
    a544:	0100f809 	jalr	t0
    a548:	00000000 	nop
    a54c:	10000006 	b	a568 <n40_jalr_test+0xa568>
    a550:	00000000 	nop
    a554:	00000000 	nop
    a558:	00000021 	move	zero,zero
    a55c:	00000021 	move	zero,zero
    a560:	3c1229ca 	lui	s2,0x29ca
    a564:	3652e707 	ori	s2,s2,0xe707
    a568:	001fa021 	addu	s4,zero,ra
    a56c:	0016f821 	addu	ra,zero,s6
    a570:	3c150001 	lui	s5,0x1
    a574:	26b5a508 	addiu	s5,s5,-23288
    a578:	3c0d1e34 	lui	t5,0x1e34
    a57c:	35ad1c00 	ori	t5,t5,0x1c00
    a580:	160d032c 	bne	s0,t5,b234 <inst_error>
    a584:	00000000 	nop
    a588:	00000000 	nop
    a58c:	3c0c29ca 	lui	t4,0x29ca
    a590:	358ce707 	ori	t4,t4,0xe707
    a594:	164c0327 	bne	s2,t4,b234 <inst_error>
    a598:	00000000 	nop
    a59c:	00000000 	nop
    a5a0:	26b50008 	addiu	s5,s5,8
    a5a4:	16950323 	bne	s4,s5,b234 <inst_error>
    a5a8:	00000000 	nop
    a5ac:	00000000 	nop
    a5b0:	001fb021 	addu	s6,zero,ra
    a5b4:	3c0c7f72 	lui	t4,0x7f72
    a5b8:	358ca67b 	ori	t4,t4,0xa67b
    a5bc:	3c0d47ba 	lui	t5,0x47ba
    a5c0:	35ad67c6 	ori	t5,t5,0x67c6
    a5c4:	24100000 	li	s0,0
    a5c8:	3c080001 	lui	t0,0x1
    a5cc:	2508a5e4 	addiu	t0,t0,-23068
    a5d0:	3c090001 	lui	t1,0x1
    a5d4:	2529a644 	addiu	t1,t1,-22972
    a5d8:	10000013 	b	a628 <n40_jalr_test+0xa628>
    a5dc:	24120000 	li	s2,0
    a5e0:	00000000 	nop
    a5e4:	3c107f72 	lui	s0,0x7f72
    a5e8:	3610a67b 	ori	s0,s0,0xa67b
    a5ec:	0120f809 	jalr	t1
    a5f0:	00000000 	nop
    a5f4:	10000015 	b	a64c <n40_jalr_test+0xa64c>
    a5f8:	00000000 	nop
    a5fc:	00000000 	nop
    a600:	00000021 	move	zero,zero
    a604:	00000021 	move	zero,zero
    a608:	00000021 	move	zero,zero
    a60c:	00000021 	move	zero,zero
    a610:	00000021 	move	zero,zero
    a614:	00000021 	move	zero,zero
    a618:	00000021 	move	zero,zero
    a61c:	00000021 	move	zero,zero
    a620:	00000021 	move	zero,zero
    a624:	00000021 	move	zero,zero
    a628:	0100f809 	jalr	t0
    a62c:	00000000 	nop
    a630:	10000006 	b	a64c <n40_jalr_test+0xa64c>
    a634:	00000000 	nop
    a638:	00000000 	nop
    a63c:	00000021 	move	zero,zero
    a640:	00000021 	move	zero,zero
    a644:	3c1247ba 	lui	s2,0x47ba
    a648:	365267c6 	ori	s2,s2,0x67c6
    a64c:	001fa021 	addu	s4,zero,ra
    a650:	0016f821 	addu	ra,zero,s6
    a654:	3c150001 	lui	s5,0x1
    a658:	26b5a5ec 	addiu	s5,s5,-23060
    a65c:	3c0d7f72 	lui	t5,0x7f72
    a660:	35ada67b 	ori	t5,t5,0xa67b
    a664:	160d02f3 	bne	s0,t5,b234 <inst_error>
    a668:	00000000 	nop
    a66c:	00000000 	nop
    a670:	3c0c47ba 	lui	t4,0x47ba
    a674:	358c67c6 	ori	t4,t4,0x67c6
    a678:	164c02ee 	bne	s2,t4,b234 <inst_error>
    a67c:	00000000 	nop
    a680:	00000000 	nop
    a684:	26b50008 	addiu	s5,s5,8
    a688:	169502ea 	bne	s4,s5,b234 <inst_error>
    a68c:	00000000 	nop
    a690:	00000000 	nop
    a694:	001fb021 	addu	s6,zero,ra
    a698:	3c0c30e3 	lui	t4,0x30e3
    a69c:	358c2f10 	ori	t4,t4,0x2f10
    a6a0:	3c0d028a 	lui	t5,0x28a
    a6a4:	35ad9ed0 	ori	t5,t5,0x9ed0
    a6a8:	24100000 	li	s0,0
    a6ac:	3c080001 	lui	t0,0x1
    a6b0:	2508a6c8 	addiu	t0,t0,-22840
    a6b4:	3c090001 	lui	t1,0x1
    a6b8:	2529a728 	addiu	t1,t1,-22744
    a6bc:	10000013 	b	a70c <n40_jalr_test+0xa70c>
    a6c0:	24120000 	li	s2,0
    a6c4:	00000000 	nop
    a6c8:	3c1030e3 	lui	s0,0x30e3
    a6cc:	36102f10 	ori	s0,s0,0x2f10
    a6d0:	0120f809 	jalr	t1
    a6d4:	00000000 	nop
    a6d8:	10000015 	b	a730 <n40_jalr_test+0xa730>
    a6dc:	00000000 	nop
    a6e0:	00000000 	nop
    a6e4:	00000021 	move	zero,zero
    a6e8:	00000021 	move	zero,zero
    a6ec:	00000021 	move	zero,zero
    a6f0:	00000021 	move	zero,zero
    a6f4:	00000021 	move	zero,zero
    a6f8:	00000021 	move	zero,zero
    a6fc:	00000021 	move	zero,zero
    a700:	00000021 	move	zero,zero
    a704:	00000021 	move	zero,zero
    a708:	00000021 	move	zero,zero
    a70c:	0100f809 	jalr	t0
    a710:	00000000 	nop
    a714:	10000006 	b	a730 <n40_jalr_test+0xa730>
    a718:	00000000 	nop
    a71c:	00000000 	nop
    a720:	00000021 	move	zero,zero
    a724:	00000021 	move	zero,zero
    a728:	3c12028a 	lui	s2,0x28a
    a72c:	36529ed0 	ori	s2,s2,0x9ed0
    a730:	001fa021 	addu	s4,zero,ra
    a734:	0016f821 	addu	ra,zero,s6
    a738:	3c150001 	lui	s5,0x1
    a73c:	26b5a6d0 	addiu	s5,s5,-22832
    a740:	3c0d30e3 	lui	t5,0x30e3
    a744:	35ad2f10 	ori	t5,t5,0x2f10
    a748:	160d02ba 	bne	s0,t5,b234 <inst_error>
    a74c:	00000000 	nop
    a750:	00000000 	nop
    a754:	3c0c028a 	lui	t4,0x28a
    a758:	358c9ed0 	ori	t4,t4,0x9ed0
    a75c:	164c02b5 	bne	s2,t4,b234 <inst_error>
    a760:	00000000 	nop
    a764:	00000000 	nop
    a768:	26b50008 	addiu	s5,s5,8
    a76c:	169502b1 	bne	s4,s5,b234 <inst_error>
    a770:	00000000 	nop
    a774:	00000000 	nop
    a778:	001fb021 	addu	s6,zero,ra
    a77c:	3c0caa6a 	lui	t4,0xaa6a
    a780:	358c2f86 	ori	t4,t4,0x2f86
    a784:	3c0d574e 	lui	t5,0x574e
    a788:	35ada69d 	ori	t5,t5,0xa69d
    a78c:	24100000 	li	s0,0
    a790:	3c080001 	lui	t0,0x1
    a794:	2508a7ac 	addiu	t0,t0,-22612
    a798:	3c090001 	lui	t1,0x1
    a79c:	2529a80c 	addiu	t1,t1,-22516
    a7a0:	10000013 	b	a7f0 <n40_jalr_test+0xa7f0>
    a7a4:	24120000 	li	s2,0
    a7a8:	00000000 	nop
    a7ac:	3c10aa6a 	lui	s0,0xaa6a
    a7b0:	36102f86 	ori	s0,s0,0x2f86
    a7b4:	0120f809 	jalr	t1
    a7b8:	00000000 	nop
    a7bc:	10000015 	b	a814 <n40_jalr_test+0xa814>
    a7c0:	00000000 	nop
    a7c4:	00000000 	nop
    a7c8:	00000021 	move	zero,zero
    a7cc:	00000021 	move	zero,zero
    a7d0:	00000021 	move	zero,zero
    a7d4:	00000021 	move	zero,zero
    a7d8:	00000021 	move	zero,zero
    a7dc:	00000021 	move	zero,zero
    a7e0:	00000021 	move	zero,zero
    a7e4:	00000021 	move	zero,zero
    a7e8:	00000021 	move	zero,zero
    a7ec:	00000021 	move	zero,zero
    a7f0:	0100f809 	jalr	t0
    a7f4:	00000000 	nop
    a7f8:	10000006 	b	a814 <n40_jalr_test+0xa814>
    a7fc:	00000000 	nop
    a800:	00000000 	nop
    a804:	00000021 	move	zero,zero
    a808:	00000021 	move	zero,zero
    a80c:	3c12574e 	lui	s2,0x574e
    a810:	3652a69d 	ori	s2,s2,0xa69d
    a814:	001fa021 	addu	s4,zero,ra
    a818:	0016f821 	addu	ra,zero,s6
    a81c:	3c150001 	lui	s5,0x1
    a820:	26b5a7b4 	addiu	s5,s5,-22604
    a824:	3c0daa6a 	lui	t5,0xaa6a
    a828:	35ad2f86 	ori	t5,t5,0x2f86
    a82c:	160d0281 	bne	s0,t5,b234 <inst_error>
    a830:	00000000 	nop
    a834:	00000000 	nop
    a838:	3c0c574e 	lui	t4,0x574e
    a83c:	358ca69d 	ori	t4,t4,0xa69d
    a840:	164c027c 	bne	s2,t4,b234 <inst_error>
    a844:	00000000 	nop
    a848:	00000000 	nop
    a84c:	26b50008 	addiu	s5,s5,8
    a850:	16950278 	bne	s4,s5,b234 <inst_error>
    a854:	00000000 	nop
    a858:	00000000 	nop
    a85c:	001fb021 	addu	s6,zero,ra
    a860:	3c0cce7f 	lui	t4,0xce7f
    a864:	358cee30 	ori	t4,t4,0xee30
    a868:	3c0dea56 	lui	t5,0xea56
    a86c:	35ad9892 	ori	t5,t5,0x9892
    a870:	24100000 	li	s0,0
    a874:	3c080001 	lui	t0,0x1
    a878:	2508a890 	addiu	t0,t0,-22384
    a87c:	3c090001 	lui	t1,0x1
    a880:	2529a8f0 	addiu	t1,t1,-22288
    a884:	10000013 	b	a8d4 <n40_jalr_test+0xa8d4>
    a888:	24120000 	li	s2,0
    a88c:	00000000 	nop
    a890:	3c10ce7f 	lui	s0,0xce7f
    a894:	3610ee30 	ori	s0,s0,0xee30
    a898:	0120f809 	jalr	t1
    a89c:	00000000 	nop
    a8a0:	10000015 	b	a8f8 <n40_jalr_test+0xa8f8>
    a8a4:	00000000 	nop
    a8a8:	00000000 	nop
    a8ac:	00000021 	move	zero,zero
    a8b0:	00000021 	move	zero,zero
    a8b4:	00000021 	move	zero,zero
    a8b8:	00000021 	move	zero,zero
    a8bc:	00000021 	move	zero,zero
    a8c0:	00000021 	move	zero,zero
    a8c4:	00000021 	move	zero,zero
    a8c8:	00000021 	move	zero,zero
    a8cc:	00000021 	move	zero,zero
    a8d0:	00000021 	move	zero,zero
    a8d4:	0100f809 	jalr	t0
    a8d8:	00000000 	nop
    a8dc:	10000006 	b	a8f8 <n40_jalr_test+0xa8f8>
    a8e0:	00000000 	nop
    a8e4:	00000000 	nop
    a8e8:	00000021 	move	zero,zero
    a8ec:	00000021 	move	zero,zero
    a8f0:	3c12ea56 	lui	s2,0xea56
    a8f4:	36529892 	ori	s2,s2,0x9892
    a8f8:	001fa021 	addu	s4,zero,ra
    a8fc:	0016f821 	addu	ra,zero,s6
    a900:	3c150001 	lui	s5,0x1
    a904:	26b5a898 	addiu	s5,s5,-22376
    a908:	3c0dce7f 	lui	t5,0xce7f
    a90c:	35adee30 	ori	t5,t5,0xee30
    a910:	160d0248 	bne	s0,t5,b234 <inst_error>
    a914:	00000000 	nop
    a918:	00000000 	nop
    a91c:	3c0cea56 	lui	t4,0xea56
    a920:	358c9892 	ori	t4,t4,0x9892
    a924:	164c0243 	bne	s2,t4,b234 <inst_error>
    a928:	00000000 	nop
    a92c:	00000000 	nop
    a930:	26b50008 	addiu	s5,s5,8
    a934:	1695023f 	bne	s4,s5,b234 <inst_error>
    a938:	00000000 	nop
    a93c:	00000000 	nop
    a940:	001fb021 	addu	s6,zero,ra
    a944:	3c0ca6ae 	lui	t4,0xa6ae
    a948:	358c023c 	ori	t4,t4,0x23c
    a94c:	3c0dc083 	lui	t5,0xc083
    a950:	35adbe4d 	ori	t5,t5,0xbe4d
    a954:	24100000 	li	s0,0
    a958:	3c080001 	lui	t0,0x1
    a95c:	2508a974 	addiu	t0,t0,-22156
    a960:	3c090001 	lui	t1,0x1
    a964:	2529a9d4 	addiu	t1,t1,-22060
    a968:	10000013 	b	a9b8 <n40_jalr_test+0xa9b8>
    a96c:	24120000 	li	s2,0
    a970:	00000000 	nop
    a974:	3c10a6ae 	lui	s0,0xa6ae
    a978:	3610023c 	ori	s0,s0,0x23c
    a97c:	0120f809 	jalr	t1
    a980:	00000000 	nop
    a984:	10000015 	b	a9dc <n40_jalr_test+0xa9dc>
    a988:	00000000 	nop
    a98c:	00000000 	nop
    a990:	00000021 	move	zero,zero
    a994:	00000021 	move	zero,zero
    a998:	00000021 	move	zero,zero
    a99c:	00000021 	move	zero,zero
    a9a0:	00000021 	move	zero,zero
    a9a4:	00000021 	move	zero,zero
    a9a8:	00000021 	move	zero,zero
    a9ac:	00000021 	move	zero,zero
    a9b0:	00000021 	move	zero,zero
    a9b4:	00000021 	move	zero,zero
    a9b8:	0100f809 	jalr	t0
    a9bc:	00000000 	nop
    a9c0:	10000006 	b	a9dc <n40_jalr_test+0xa9dc>
    a9c4:	00000000 	nop
    a9c8:	00000000 	nop
    a9cc:	00000021 	move	zero,zero
    a9d0:	00000021 	move	zero,zero
    a9d4:	3c12c083 	lui	s2,0xc083
    a9d8:	3652be4d 	ori	s2,s2,0xbe4d
    a9dc:	001fa021 	addu	s4,zero,ra
    a9e0:	0016f821 	addu	ra,zero,s6
    a9e4:	3c150001 	lui	s5,0x1
    a9e8:	26b5a97c 	addiu	s5,s5,-22148
    a9ec:	3c0da6ae 	lui	t5,0xa6ae
    a9f0:	35ad023c 	ori	t5,t5,0x23c
    a9f4:	160d020f 	bne	s0,t5,b234 <inst_error>
    a9f8:	00000000 	nop
    a9fc:	00000000 	nop
    aa00:	3c0cc083 	lui	t4,0xc083
    aa04:	358cbe4d 	ori	t4,t4,0xbe4d
    aa08:	164c020a 	bne	s2,t4,b234 <inst_error>
    aa0c:	00000000 	nop
    aa10:	00000000 	nop
    aa14:	26b50008 	addiu	s5,s5,8
    aa18:	16950206 	bne	s4,s5,b234 <inst_error>
    aa1c:	00000000 	nop
    aa20:	00000000 	nop
    aa24:	001fb021 	addu	s6,zero,ra
    aa28:	3c0c03eb 	lui	t4,0x3eb
    aa2c:	358cfcfc 	ori	t4,t4,0xfcfc
    aa30:	3c0dd4ee 	lui	t5,0xd4ee
    aa34:	35adc0ec 	ori	t5,t5,0xc0ec
    aa38:	24100000 	li	s0,0
    aa3c:	3c080001 	lui	t0,0x1
    aa40:	2508aa58 	addiu	t0,t0,-21928
    aa44:	3c090001 	lui	t1,0x1
    aa48:	2529aab8 	addiu	t1,t1,-21832
    aa4c:	10000013 	b	aa9c <n40_jalr_test+0xaa9c>
    aa50:	24120000 	li	s2,0
    aa54:	00000000 	nop
    aa58:	3c1003eb 	lui	s0,0x3eb
    aa5c:	3610fcfc 	ori	s0,s0,0xfcfc
    aa60:	0120f809 	jalr	t1
    aa64:	00000000 	nop
    aa68:	10000015 	b	aac0 <n40_jalr_test+0xaac0>
    aa6c:	00000000 	nop
    aa70:	00000000 	nop
    aa74:	00000021 	move	zero,zero
    aa78:	00000021 	move	zero,zero
    aa7c:	00000021 	move	zero,zero
    aa80:	00000021 	move	zero,zero
    aa84:	00000021 	move	zero,zero
    aa88:	00000021 	move	zero,zero
    aa8c:	00000021 	move	zero,zero
    aa90:	00000021 	move	zero,zero
    aa94:	00000021 	move	zero,zero
    aa98:	00000021 	move	zero,zero
    aa9c:	0100f809 	jalr	t0
    aaa0:	00000000 	nop
    aaa4:	10000006 	b	aac0 <n40_jalr_test+0xaac0>
    aaa8:	00000000 	nop
    aaac:	00000000 	nop
    aab0:	00000021 	move	zero,zero
    aab4:	00000021 	move	zero,zero
    aab8:	3c12d4ee 	lui	s2,0xd4ee
    aabc:	3652c0ec 	ori	s2,s2,0xc0ec
    aac0:	001fa021 	addu	s4,zero,ra
    aac4:	0016f821 	addu	ra,zero,s6
    aac8:	3c150001 	lui	s5,0x1
    aacc:	26b5aa60 	addiu	s5,s5,-21920
    aad0:	3c0d03eb 	lui	t5,0x3eb
    aad4:	35adfcfc 	ori	t5,t5,0xfcfc
    aad8:	160d01d6 	bne	s0,t5,b234 <inst_error>
    aadc:	00000000 	nop
    aae0:	00000000 	nop
    aae4:	3c0cd4ee 	lui	t4,0xd4ee
    aae8:	358cc0ec 	ori	t4,t4,0xc0ec
    aaec:	164c01d1 	bne	s2,t4,b234 <inst_error>
    aaf0:	00000000 	nop
    aaf4:	00000000 	nop
    aaf8:	26b50008 	addiu	s5,s5,8
    aafc:	169501cd 	bne	s4,s5,b234 <inst_error>
    ab00:	00000000 	nop
    ab04:	00000000 	nop
    ab08:	001fb021 	addu	s6,zero,ra
    ab0c:	3c0c7afd 	lui	t4,0x7afd
    ab10:	358c4e9c 	ori	t4,t4,0x4e9c
    ab14:	3c0d383e 	lui	t5,0x383e
    ab18:	35adf760 	ori	t5,t5,0xf760
    ab1c:	24100000 	li	s0,0
    ab20:	3c080001 	lui	t0,0x1
    ab24:	2508ab3c 	addiu	t0,t0,-21700
    ab28:	3c090001 	lui	t1,0x1
    ab2c:	2529ab9c 	addiu	t1,t1,-21604
    ab30:	10000013 	b	ab80 <n40_jalr_test+0xab80>
    ab34:	24120000 	li	s2,0
    ab38:	00000000 	nop
    ab3c:	3c107afd 	lui	s0,0x7afd
    ab40:	36104e9c 	ori	s0,s0,0x4e9c
    ab44:	0120f809 	jalr	t1
    ab48:	00000000 	nop
    ab4c:	10000015 	b	aba4 <n40_jalr_test+0xaba4>
    ab50:	00000000 	nop
    ab54:	00000000 	nop
    ab58:	00000021 	move	zero,zero
    ab5c:	00000021 	move	zero,zero
    ab60:	00000021 	move	zero,zero
    ab64:	00000021 	move	zero,zero
    ab68:	00000021 	move	zero,zero
    ab6c:	00000021 	move	zero,zero
    ab70:	00000021 	move	zero,zero
    ab74:	00000021 	move	zero,zero
    ab78:	00000021 	move	zero,zero
    ab7c:	00000021 	move	zero,zero
    ab80:	0100f809 	jalr	t0
    ab84:	00000000 	nop
    ab88:	10000006 	b	aba4 <n40_jalr_test+0xaba4>
    ab8c:	00000000 	nop
    ab90:	00000000 	nop
    ab94:	00000021 	move	zero,zero
    ab98:	00000021 	move	zero,zero
    ab9c:	3c12383e 	lui	s2,0x383e
    aba0:	3652f760 	ori	s2,s2,0xf760
    aba4:	001fa021 	addu	s4,zero,ra
    aba8:	0016f821 	addu	ra,zero,s6
    abac:	3c150001 	lui	s5,0x1
    abb0:	26b5ab44 	addiu	s5,s5,-21692
    abb4:	3c0d7afd 	lui	t5,0x7afd
    abb8:	35ad4e9c 	ori	t5,t5,0x4e9c
    abbc:	160d019d 	bne	s0,t5,b234 <inst_error>
    abc0:	00000000 	nop
    abc4:	00000000 	nop
    abc8:	3c0c383e 	lui	t4,0x383e
    abcc:	358cf760 	ori	t4,t4,0xf760
    abd0:	164c0198 	bne	s2,t4,b234 <inst_error>
    abd4:	00000000 	nop
    abd8:	00000000 	nop
    abdc:	26b50008 	addiu	s5,s5,8
    abe0:	16950194 	bne	s4,s5,b234 <inst_error>
    abe4:	00000000 	nop
    abe8:	00000000 	nop
    abec:	001fb021 	addu	s6,zero,ra
    abf0:	3c0cbda0 	lui	t4,0xbda0
    abf4:	358cc850 	ori	t4,t4,0xc850
    abf8:	3c0d5c66 	lui	t5,0x5c66
    abfc:	35ad7588 	ori	t5,t5,0x7588
    ac00:	24100000 	li	s0,0
    ac04:	3c080001 	lui	t0,0x1
    ac08:	2508ac20 	addiu	t0,t0,-21472
    ac0c:	3c090001 	lui	t1,0x1
    ac10:	2529ac80 	addiu	t1,t1,-21376
    ac14:	10000013 	b	ac64 <n40_jalr_test+0xac64>
    ac18:	24120000 	li	s2,0
    ac1c:	00000000 	nop
    ac20:	3c10bda0 	lui	s0,0xbda0
    ac24:	3610c850 	ori	s0,s0,0xc850
    ac28:	0120f809 	jalr	t1
    ac2c:	00000000 	nop
    ac30:	10000015 	b	ac88 <n40_jalr_test+0xac88>
    ac34:	00000000 	nop
    ac38:	00000000 	nop
    ac3c:	00000021 	move	zero,zero
    ac40:	00000021 	move	zero,zero
    ac44:	00000021 	move	zero,zero
    ac48:	00000021 	move	zero,zero
    ac4c:	00000021 	move	zero,zero
    ac50:	00000021 	move	zero,zero
    ac54:	00000021 	move	zero,zero
    ac58:	00000021 	move	zero,zero
    ac5c:	00000021 	move	zero,zero
    ac60:	00000021 	move	zero,zero
    ac64:	0100f809 	jalr	t0
    ac68:	00000000 	nop
    ac6c:	10000006 	b	ac88 <n40_jalr_test+0xac88>
    ac70:	00000000 	nop
    ac74:	00000000 	nop
    ac78:	00000021 	move	zero,zero
    ac7c:	00000021 	move	zero,zero
    ac80:	3c125c66 	lui	s2,0x5c66
    ac84:	36527588 	ori	s2,s2,0x7588
    ac88:	001fa021 	addu	s4,zero,ra
    ac8c:	0016f821 	addu	ra,zero,s6
    ac90:	3c150001 	lui	s5,0x1
    ac94:	26b5ac28 	addiu	s5,s5,-21464
    ac98:	3c0dbda0 	lui	t5,0xbda0
    ac9c:	35adc850 	ori	t5,t5,0xc850
    aca0:	160d0164 	bne	s0,t5,b234 <inst_error>
    aca4:	00000000 	nop
    aca8:	00000000 	nop
    acac:	3c0c5c66 	lui	t4,0x5c66
    acb0:	358c7588 	ori	t4,t4,0x7588
    acb4:	164c015f 	bne	s2,t4,b234 <inst_error>
    acb8:	00000000 	nop
    acbc:	00000000 	nop
    acc0:	26b50008 	addiu	s5,s5,8
    acc4:	1695015b 	bne	s4,s5,b234 <inst_error>
    acc8:	00000000 	nop
    accc:	00000000 	nop
    acd0:	001fb021 	addu	s6,zero,ra
    acd4:	3c0c9773 	lui	t4,0x9773
    acd8:	358c29e8 	ori	t4,t4,0x29e8
    acdc:	3c0df922 	lui	t5,0xf922
    ace0:	35adfa40 	ori	t5,t5,0xfa40
    ace4:	24100000 	li	s0,0
    ace8:	3c080001 	lui	t0,0x1
    acec:	2508ad04 	addiu	t0,t0,-21244
    acf0:	3c090001 	lui	t1,0x1
    acf4:	2529ad64 	addiu	t1,t1,-21148
    acf8:	10000013 	b	ad48 <n40_jalr_test+0xad48>
    acfc:	24120000 	li	s2,0
    ad00:	00000000 	nop
    ad04:	3c109773 	lui	s0,0x9773
    ad08:	361029e8 	ori	s0,s0,0x29e8
    ad0c:	0120f809 	jalr	t1
    ad10:	00000000 	nop
    ad14:	10000015 	b	ad6c <n40_jalr_test+0xad6c>
    ad18:	00000000 	nop
    ad1c:	00000000 	nop
    ad20:	00000021 	move	zero,zero
    ad24:	00000021 	move	zero,zero
    ad28:	00000021 	move	zero,zero
    ad2c:	00000021 	move	zero,zero
    ad30:	00000021 	move	zero,zero
    ad34:	00000021 	move	zero,zero
    ad38:	00000021 	move	zero,zero
    ad3c:	00000021 	move	zero,zero
    ad40:	00000021 	move	zero,zero
    ad44:	00000021 	move	zero,zero
    ad48:	0100f809 	jalr	t0
    ad4c:	00000000 	nop
    ad50:	10000006 	b	ad6c <n40_jalr_test+0xad6c>
    ad54:	00000000 	nop
    ad58:	00000000 	nop
    ad5c:	00000021 	move	zero,zero
    ad60:	00000021 	move	zero,zero
    ad64:	3c12f922 	lui	s2,0xf922
    ad68:	3652fa40 	ori	s2,s2,0xfa40
    ad6c:	001fa021 	addu	s4,zero,ra
    ad70:	0016f821 	addu	ra,zero,s6
    ad74:	3c150001 	lui	s5,0x1
    ad78:	26b5ad0c 	addiu	s5,s5,-21236
    ad7c:	3c0d9773 	lui	t5,0x9773
    ad80:	35ad29e8 	ori	t5,t5,0x29e8
    ad84:	160d012b 	bne	s0,t5,b234 <inst_error>
    ad88:	00000000 	nop
    ad8c:	00000000 	nop
    ad90:	3c0cf922 	lui	t4,0xf922
    ad94:	358cfa40 	ori	t4,t4,0xfa40
    ad98:	164c0126 	bne	s2,t4,b234 <inst_error>
    ad9c:	00000000 	nop
    ada0:	00000000 	nop
    ada4:	26b50008 	addiu	s5,s5,8
    ada8:	16950122 	bne	s4,s5,b234 <inst_error>
    adac:	00000000 	nop
    adb0:	00000000 	nop
    adb4:	001fb021 	addu	s6,zero,ra
    adb8:	3c0cd7d1 	lui	t4,0xd7d1
    adbc:	358cccd0 	ori	t4,t4,0xccd0
    adc0:	3c0df39e 	lui	t5,0xf39e
    adc4:	35adf448 	ori	t5,t5,0xf448
    adc8:	24100000 	li	s0,0
    adcc:	3c080001 	lui	t0,0x1
    add0:	2508ade8 	addiu	t0,t0,-21016
    add4:	3c090001 	lui	t1,0x1
    add8:	2529ae48 	addiu	t1,t1,-20920
    addc:	10000013 	b	ae2c <n40_jalr_test+0xae2c>
    ade0:	24120000 	li	s2,0
    ade4:	00000000 	nop
    ade8:	3c10d7d1 	lui	s0,0xd7d1
    adec:	3610ccd0 	ori	s0,s0,0xccd0
    adf0:	0120f809 	jalr	t1
    adf4:	00000000 	nop
    adf8:	10000015 	b	ae50 <n40_jalr_test+0xae50>
    adfc:	00000000 	nop
    ae00:	00000000 	nop
    ae04:	00000021 	move	zero,zero
    ae08:	00000021 	move	zero,zero
    ae0c:	00000021 	move	zero,zero
    ae10:	00000021 	move	zero,zero
    ae14:	00000021 	move	zero,zero
    ae18:	00000021 	move	zero,zero
    ae1c:	00000021 	move	zero,zero
    ae20:	00000021 	move	zero,zero
    ae24:	00000021 	move	zero,zero
    ae28:	00000021 	move	zero,zero
    ae2c:	0100f809 	jalr	t0
    ae30:	00000000 	nop
    ae34:	10000006 	b	ae50 <n40_jalr_test+0xae50>
    ae38:	00000000 	nop
    ae3c:	00000000 	nop
    ae40:	00000021 	move	zero,zero
    ae44:	00000021 	move	zero,zero
    ae48:	3c12f39e 	lui	s2,0xf39e
    ae4c:	3652f448 	ori	s2,s2,0xf448
    ae50:	001fa021 	addu	s4,zero,ra
    ae54:	0016f821 	addu	ra,zero,s6
    ae58:	3c150001 	lui	s5,0x1
    ae5c:	26b5adf0 	addiu	s5,s5,-21008
    ae60:	3c0dd7d1 	lui	t5,0xd7d1
    ae64:	35adccd0 	ori	t5,t5,0xccd0
    ae68:	160d00f2 	bne	s0,t5,b234 <inst_error>
    ae6c:	00000000 	nop
    ae70:	00000000 	nop
    ae74:	3c0cf39e 	lui	t4,0xf39e
    ae78:	358cf448 	ori	t4,t4,0xf448
    ae7c:	164c00ed 	bne	s2,t4,b234 <inst_error>
    ae80:	00000000 	nop
    ae84:	00000000 	nop
    ae88:	26b50008 	addiu	s5,s5,8
    ae8c:	169500e9 	bne	s4,s5,b234 <inst_error>
    ae90:	00000000 	nop
    ae94:	00000000 	nop
    ae98:	001fb021 	addu	s6,zero,ra
    ae9c:	3c0c6fe2 	lui	t4,0x6fe2
    aea0:	358c0051 	ori	t4,t4,0x51
    aea4:	3c0de6d2 	lui	t5,0xe6d2
    aea8:	35ad86d2 	ori	t5,t5,0x86d2
    aeac:	24100000 	li	s0,0
    aeb0:	3c080001 	lui	t0,0x1
    aeb4:	2508aecc 	addiu	t0,t0,-20788
    aeb8:	3c090001 	lui	t1,0x1
    aebc:	2529af2c 	addiu	t1,t1,-20692
    aec0:	10000013 	b	af10 <n40_jalr_test+0xaf10>
    aec4:	24120000 	li	s2,0
    aec8:	00000000 	nop
    aecc:	3c106fe2 	lui	s0,0x6fe2
    aed0:	36100051 	ori	s0,s0,0x51
    aed4:	0120f809 	jalr	t1
    aed8:	00000000 	nop
    aedc:	10000015 	b	af34 <n40_jalr_test+0xaf34>
    aee0:	00000000 	nop
    aee4:	00000000 	nop
    aee8:	00000021 	move	zero,zero
    aeec:	00000021 	move	zero,zero
    aef0:	00000021 	move	zero,zero
    aef4:	00000021 	move	zero,zero
    aef8:	00000021 	move	zero,zero
    aefc:	00000021 	move	zero,zero
    af00:	00000021 	move	zero,zero
    af04:	00000021 	move	zero,zero
    af08:	00000021 	move	zero,zero
    af0c:	00000021 	move	zero,zero
    af10:	0100f809 	jalr	t0
    af14:	00000000 	nop
    af18:	10000006 	b	af34 <n40_jalr_test+0xaf34>
    af1c:	00000000 	nop
    af20:	00000000 	nop
    af24:	00000021 	move	zero,zero
    af28:	00000021 	move	zero,zero
    af2c:	3c12e6d2 	lui	s2,0xe6d2
    af30:	365286d2 	ori	s2,s2,0x86d2
    af34:	001fa021 	addu	s4,zero,ra
    af38:	0016f821 	addu	ra,zero,s6
    af3c:	3c150001 	lui	s5,0x1
    af40:	26b5aed4 	addiu	s5,s5,-20780
    af44:	3c0d6fe2 	lui	t5,0x6fe2
    af48:	35ad0051 	ori	t5,t5,0x51
    af4c:	160d00b9 	bne	s0,t5,b234 <inst_error>
    af50:	00000000 	nop
    af54:	00000000 	nop
    af58:	3c0ce6d2 	lui	t4,0xe6d2
    af5c:	358c86d2 	ori	t4,t4,0x86d2
    af60:	164c00b4 	bne	s2,t4,b234 <inst_error>
    af64:	00000000 	nop
    af68:	00000000 	nop
    af6c:	26b50008 	addiu	s5,s5,8
    af70:	169500b0 	bne	s4,s5,b234 <inst_error>
    af74:	00000000 	nop
    af78:	00000000 	nop
    af7c:	001fb021 	addu	s6,zero,ra
    af80:	3c0cfb9c 	lui	t4,0xfb9c
    af84:	358cfd6d 	ori	t4,t4,0xfd6d
    af88:	3c0d39ae 	lui	t5,0x39ae
    af8c:	35ad4860 	ori	t5,t5,0x4860
    af90:	24100000 	li	s0,0
    af94:	3c080001 	lui	t0,0x1
    af98:	2508afb0 	addiu	t0,t0,-20560
    af9c:	3c090001 	lui	t1,0x1
    afa0:	2529b010 	addiu	t1,t1,-20464
    afa4:	10000013 	b	aff4 <n40_jalr_test+0xaff4>
    afa8:	24120000 	li	s2,0
    afac:	00000000 	nop
    afb0:	3c10fb9c 	lui	s0,0xfb9c
    afb4:	3610fd6d 	ori	s0,s0,0xfd6d
    afb8:	0120f809 	jalr	t1
    afbc:	00000000 	nop
    afc0:	10000015 	b	b018 <n40_jalr_test+0xb018>
    afc4:	00000000 	nop
    afc8:	00000000 	nop
    afcc:	00000021 	move	zero,zero
    afd0:	00000021 	move	zero,zero
    afd4:	00000021 	move	zero,zero
    afd8:	00000021 	move	zero,zero
    afdc:	00000021 	move	zero,zero
    afe0:	00000021 	move	zero,zero
    afe4:	00000021 	move	zero,zero
    afe8:	00000021 	move	zero,zero
    afec:	00000021 	move	zero,zero
    aff0:	00000021 	move	zero,zero
    aff4:	0100f809 	jalr	t0
    aff8:	00000000 	nop
    affc:	10000006 	b	b018 <n40_jalr_test+0xb018>
    b000:	00000000 	nop
    b004:	00000000 	nop
    b008:	00000021 	move	zero,zero
    b00c:	00000021 	move	zero,zero
    b010:	3c1239ae 	lui	s2,0x39ae
    b014:	36524860 	ori	s2,s2,0x4860
    b018:	001fa021 	addu	s4,zero,ra
    b01c:	0016f821 	addu	ra,zero,s6
    b020:	3c150001 	lui	s5,0x1
    b024:	26b5afb8 	addiu	s5,s5,-20552
    b028:	3c0dfb9c 	lui	t5,0xfb9c
    b02c:	35adfd6d 	ori	t5,t5,0xfd6d
    b030:	160d0080 	bne	s0,t5,b234 <inst_error>
    b034:	00000000 	nop
    b038:	00000000 	nop
    b03c:	3c0c39ae 	lui	t4,0x39ae
    b040:	358c4860 	ori	t4,t4,0x4860
    b044:	164c007b 	bne	s2,t4,b234 <inst_error>
    b048:	00000000 	nop
    b04c:	00000000 	nop
    b050:	26b50008 	addiu	s5,s5,8
    b054:	16950077 	bne	s4,s5,b234 <inst_error>
    b058:	00000000 	nop
    b05c:	00000000 	nop
    b060:	001fb021 	addu	s6,zero,ra
    b064:	3c0c138b 	lui	t4,0x138b
    b068:	358c8d70 	ori	t4,t4,0x8d70
    b06c:	3c0dedd5 	lui	t5,0xedd5
    b070:	35ad82e5 	ori	t5,t5,0x82e5
    b074:	24100000 	li	s0,0
    b078:	3c080001 	lui	t0,0x1
    b07c:	2508b094 	addiu	t0,t0,-20332
    b080:	3c090001 	lui	t1,0x1
    b084:	2529b0f4 	addiu	t1,t1,-20236
    b088:	10000013 	b	b0d8 <n40_jalr_test+0xb0d8>
    b08c:	24120000 	li	s2,0
    b090:	00000000 	nop
    b094:	3c10138b 	lui	s0,0x138b
    b098:	36108d70 	ori	s0,s0,0x8d70
    b09c:	0120f809 	jalr	t1
    b0a0:	00000000 	nop
    b0a4:	10000015 	b	b0fc <n40_jalr_test+0xb0fc>
    b0a8:	00000000 	nop
    b0ac:	00000000 	nop
    b0b0:	00000021 	move	zero,zero
    b0b4:	00000021 	move	zero,zero
    b0b8:	00000021 	move	zero,zero
    b0bc:	00000021 	move	zero,zero
    b0c0:	00000021 	move	zero,zero
    b0c4:	00000021 	move	zero,zero
    b0c8:	00000021 	move	zero,zero
    b0cc:	00000021 	move	zero,zero
    b0d0:	00000021 	move	zero,zero
    b0d4:	00000021 	move	zero,zero
    b0d8:	0100f809 	jalr	t0
    b0dc:	00000000 	nop
    b0e0:	10000006 	b	b0fc <n40_jalr_test+0xb0fc>
    b0e4:	00000000 	nop
    b0e8:	00000000 	nop
    b0ec:	00000021 	move	zero,zero
    b0f0:	00000021 	move	zero,zero
    b0f4:	3c12edd5 	lui	s2,0xedd5
    b0f8:	365282e5 	ori	s2,s2,0x82e5
    b0fc:	001fa021 	addu	s4,zero,ra
    b100:	0016f821 	addu	ra,zero,s6
    b104:	3c150001 	lui	s5,0x1
    b108:	26b5b09c 	addiu	s5,s5,-20324
    b10c:	3c0d138b 	lui	t5,0x138b
    b110:	35ad8d70 	ori	t5,t5,0x8d70
    b114:	160d0047 	bne	s0,t5,b234 <inst_error>
    b118:	00000000 	nop
    b11c:	00000000 	nop
    b120:	3c0cedd5 	lui	t4,0xedd5
    b124:	358c82e5 	ori	t4,t4,0x82e5
    b128:	164c0042 	bne	s2,t4,b234 <inst_error>
    b12c:	00000000 	nop
    b130:	00000000 	nop
    b134:	26b50008 	addiu	s5,s5,8
    b138:	1695003e 	bne	s4,s5,b234 <inst_error>
    b13c:	00000000 	nop
    b140:	00000000 	nop
    b144:	001fb021 	addu	s6,zero,ra
    b148:	3c0cf1c9 	lui	t4,0xf1c9
    b14c:	358c1b75 	ori	t4,t4,0x1b75
    b150:	3c0dc478 	lui	t5,0xc478
    b154:	35ad3b2e 	ori	t5,t5,0x3b2e
    b158:	24100000 	li	s0,0
    b15c:	3c080001 	lui	t0,0x1
    b160:	2508b178 	addiu	t0,t0,-20104
    b164:	3c090001 	lui	t1,0x1
    b168:	2529b1d8 	addiu	t1,t1,-20008
    b16c:	10000013 	b	b1bc <n40_jalr_test+0xb1bc>
    b170:	24120000 	li	s2,0
    b174:	00000000 	nop
    b178:	3c10f1c9 	lui	s0,0xf1c9
    b17c:	36101b75 	ori	s0,s0,0x1b75
    b180:	0120f809 	jalr	t1
    b184:	00000000 	nop
    b188:	10000015 	b	b1e0 <n40_jalr_test+0xb1e0>
    b18c:	00000000 	nop
    b190:	00000000 	nop
    b194:	00000021 	move	zero,zero
    b198:	00000021 	move	zero,zero
    b19c:	00000021 	move	zero,zero
    b1a0:	00000021 	move	zero,zero
    b1a4:	00000021 	move	zero,zero
    b1a8:	00000021 	move	zero,zero
    b1ac:	00000021 	move	zero,zero
    b1b0:	00000021 	move	zero,zero
    b1b4:	00000021 	move	zero,zero
    b1b8:	00000021 	move	zero,zero
    b1bc:	0100f809 	jalr	t0
    b1c0:	00000000 	nop
    b1c4:	10000006 	b	b1e0 <n40_jalr_test+0xb1e0>
    b1c8:	00000000 	nop
    b1cc:	00000000 	nop
    b1d0:	00000021 	move	zero,zero
    b1d4:	00000021 	move	zero,zero
    b1d8:	3c12c478 	lui	s2,0xc478
    b1dc:	36523b2e 	ori	s2,s2,0x3b2e
    b1e0:	001fa021 	addu	s4,zero,ra
    b1e4:	0016f821 	addu	ra,zero,s6
    b1e8:	3c150001 	lui	s5,0x1
    b1ec:	26b5b180 	addiu	s5,s5,-20096
    b1f0:	3c0df1c9 	lui	t5,0xf1c9
    b1f4:	35ad1b75 	ori	t5,t5,0x1b75
    b1f8:	160d000e 	bne	s0,t5,b234 <inst_error>
    b1fc:	00000000 	nop
    b200:	00000000 	nop
    b204:	3c0cc478 	lui	t4,0xc478
    b208:	358c3b2e 	ori	t4,t4,0x3b2e
    b20c:	164c0009 	bne	s2,t4,b234 <inst_error>
    b210:	00000000 	nop
    b214:	00000000 	nop
    b218:	26b50008 	addiu	s5,s5,8
    b21c:	16950005 	bne	s4,s5,b234 <inst_error>
    b220:	00000000 	nop
    b224:	14400003 	bnez	v0,b234 <inst_error>
    b228:	00000000 	nop
    b22c:	00000000 	nop
    b230:	26730001 	addiu	s3,s3,1

0000b234 <inst_error>:
    b234:	00934025 	or	t0,a0,s3
    b238:	03e00008 	jr	ra
    b23c:	ae280000 	sw	t0,0(s1)
