
n67_reserved_instruction_ex.o:     file format elf32-tradlittlemips

Disassembly of section .data:

00000000 <n67_reserved_instruction_ex_test>:
   0:	3c044300 	lui	a0,0x4300
   4:	24020008 	li	v0,8
   8:	45df00e0 	0x45df00e0
   c:	3c123333 	lui	s2,0x3333
  10:	145201fb 	bne	v0,s2,800 <inst_error>
  14:	00000000 	nop
  18:	00000000 	nop
  1c:	24020008 	li	v0,8
  20:	7a22db9c 	0x7a22db9c
  24:	3c123333 	lui	s2,0x3333
  28:	145201f5 	bne	v0,s2,800 <inst_error>
  2c:	00000000 	nop
  30:	00000000 	nop
  34:	24020008 	li	v0,8
  38:	6f76e210 	0x6f76e210
  3c:	3c123333 	lui	s2,0x3333
  40:	145201ef 	bne	v0,s2,800 <inst_error>
  44:	00000000 	nop
  48:	00000000 	nop
  4c:	24020008 	li	v0,8
  50:	5a8d78ce 	0x5a8d78ce
  54:	3c123333 	lui	s2,0x3333
  58:	145201e9 	bne	v0,s2,800 <inst_error>
  5c:	00000000 	nop
  60:	00000000 	nop
  64:	24020008 	li	v0,8
  68:	7bd1ac60 	0x7bd1ac60
  6c:	3c123333 	lui	s2,0x3333
  70:	145201e3 	bne	v0,s2,800 <inst_error>
  74:	00000000 	nop
  78:	00000000 	nop
  7c:	24020008 	li	v0,8
  80:	7e6265cc 	0x7e6265cc
  84:	3c123333 	lui	s2,0x3333
  88:	145201dd 	bne	v0,s2,800 <inst_error>
  8c:	00000000 	nop
  90:	00000000 	nop
  94:	24020008 	li	v0,8
  98:	9fc55510 	0x9fc55510
  9c:	3c123333 	lui	s2,0x3333
  a0:	145201d7 	bne	v0,s2,800 <inst_error>
  a4:	00000000 	nop
  a8:	00000000 	nop
  ac:	24020008 	li	v0,8
  b0:	b70e3e49 	0xb70e3e49
  b4:	3c123333 	lui	s2,0x3333
  b8:	145201d1 	bne	v0,s2,800 <inst_error>
  bc:	00000000 	nop
  c0:	00000000 	nop
  c4:	24020008 	li	v0,8
  c8:	dd65f0f4 	0xdd65f0f4
  cc:	3c123333 	lui	s2,0x3333
  d0:	145201cb 	bne	v0,s2,800 <inst_error>
  d4:	00000000 	nop
  d8:	00000000 	nop
  dc:	24020008 	li	v0,8
  e0:	7d468520 	0x7d468520
  e4:	3c123333 	lui	s2,0x3333
  e8:	145201c5 	bne	v0,s2,800 <inst_error>
  ec:	00000000 	nop
  f0:	00000000 	nop
  f4:	24020008 	li	v0,8
  f8:	d33bd844 	0xd33bd844
  fc:	3c123333 	lui	s2,0x3333
 100:	145201bf 	bne	v0,s2,800 <inst_error>
 104:	00000000 	nop
 108:	00000000 	nop
 10c:	24020008 	li	v0,8
 110:	71ac59bc 	0x71ac59bc
 114:	3c123333 	lui	s2,0x3333
 118:	145201b9 	bne	v0,s2,800 <inst_error>
 11c:	00000000 	nop
 120:	00000000 	nop
 124:	24020008 	li	v0,8
 128:	bd78be2c 	0xbd78be2c
 12c:	3c123333 	lui	s2,0x3333
 130:	145201b3 	bne	v0,s2,800 <inst_error>
 134:	00000000 	nop
 138:	00000000 	nop
 13c:	24020008 	li	v0,8
 140:	d193fd44 	0xd193fd44
 144:	3c123333 	lui	s2,0x3333
 148:	145201ad 	bne	v0,s2,800 <inst_error>
 14c:	00000000 	nop
 150:	00000000 	nop
 154:	24020008 	li	v0,8
 158:	ec6f06c8 	swc3	$15,1736(v1)
 15c:	3c123333 	lui	s2,0x3333
 160:	145201a7 	bne	v0,s2,800 <inst_error>
 164:	00000000 	nop
 168:	00000000 	nop
 16c:	24020008 	li	v0,8
 170:	75891917 	jalx	624645c <inst_error+0x6245c5c>
 174:	3c123333 	lui	s2,0x3333
 178:	145201a1 	bne	v0,s2,800 <inst_error>
 17c:	00000000 	nop
 180:	00000000 	nop
 184:	24020008 	li	v0,8
 188:	77e0d000 	jalx	f834000 <inst_error+0xf833800>
 18c:	3c123333 	lui	s2,0x3333
 190:	1452019b 	bne	v0,s2,800 <inst_error>
 194:	00000000 	nop
 198:	00000000 	nop
 19c:	24020008 	li	v0,8
 1a0:	7dd39a40 	0x7dd39a40
 1a4:	3c123333 	lui	s2,0x3333
 1a8:	14520195 	bne	v0,s2,800 <inst_error>
 1ac:	00000000 	nop
 1b0:	00000000 	nop
 1b4:	24020008 	li	v0,8
 1b8:	63bc98f0 	0x63bc98f0
 1bc:	3c123333 	lui	s2,0x3333
 1c0:	1452018f 	bne	v0,s2,800 <inst_error>
 1c4:	00000000 	nop
 1c8:	00000000 	nop
 1cc:	24020008 	li	v0,8
 1d0:	7c619a60 	0x7c619a60
 1d4:	3c123333 	lui	s2,0x3333
 1d8:	14520189 	bne	v0,s2,800 <inst_error>
 1dc:	00000000 	nop
 1e0:	00000000 	nop
 1e4:	24020008 	li	v0,8
 1e8:	59556f14 	0x59556f14
 1ec:	3c123333 	lui	s2,0x3333
 1f0:	14520183 	bne	v0,s2,800 <inst_error>
 1f4:	00000000 	nop
 1f8:	00000000 	nop
 1fc:	24020008 	li	v0,8
 200:	d3568dfa 	0xd3568dfa
 204:	3c123333 	lui	s2,0x3333
 208:	1452017d 	bne	v0,s2,800 <inst_error>
 20c:	00000000 	nop
 210:	00000000 	nop
 214:	24020008 	li	v0,8
 218:	1ec30450 	0x1ec30450
 21c:	3c123333 	lui	s2,0x3333
 220:	14520177 	bne	v0,s2,800 <inst_error>
 224:	00000000 	nop
 228:	00000000 	nop
 22c:	24020008 	li	v0,8
 230:	72f84f90 	0x72f84f90
 234:	3c123333 	lui	s2,0x3333
 238:	14520171 	bne	v0,s2,800 <inst_error>
 23c:	00000000 	nop
 240:	00000000 	nop
 244:	24020008 	li	v0,8
 248:	f01cf3f0 	0xf01cf3f0
 24c:	3c123333 	lui	s2,0x3333
 250:	1452016b 	bne	v0,s2,800 <inst_error>
 254:	00000000 	nop
 258:	00000000 	nop
 25c:	24020008 	li	v0,8
 260:	18abd27a 	0x18abd27a
 264:	3c123333 	lui	s2,0x3333
 268:	14520165 	bne	v0,s2,800 <inst_error>
 26c:	00000000 	nop
 270:	00000000 	nop
 274:	24020008 	li	v0,8
 278:	45bfb278 	0x45bfb278
 27c:	3c123333 	lui	s2,0x3333
 280:	1452015f 	bne	v0,s2,800 <inst_error>
 284:	00000000 	nop
 288:	00000000 	nop
 28c:	24020008 	li	v0,8
 290:	ef52e63e 	swc3	$18,-6594(k0)
 294:	3c123333 	lui	s2,0x3333
 298:	14520159 	bne	v0,s2,800 <inst_error>
 29c:	00000000 	nop
 2a0:	00000000 	nop
 2a4:	24020008 	li	v0,8
 2a8:	feb3780c 	0xfeb3780c
 2ac:	3c123333 	lui	s2,0x3333
 2b0:	14520153 	bne	v0,s2,800 <inst_error>
 2b4:	00000000 	nop
 2b8:	00000000 	nop
 2bc:	24020008 	li	v0,8
 2c0:	1b104e68 	0x1b104e68
 2c4:	3c123333 	lui	s2,0x3333
 2c8:	1452014d 	bne	v0,s2,800 <inst_error>
 2cc:	00000000 	nop
 2d0:	00000000 	nop
 2d4:	24020008 	li	v0,8
 2d8:	4145f9e8 	0x4145f9e8
 2dc:	3c123333 	lui	s2,0x3333
 2e0:	14520147 	bne	v0,s2,800 <inst_error>
 2e4:	00000000 	nop
 2e8:	00000000 	nop
 2ec:	24020008 	li	v0,8
 2f0:	f010e50c 	0xf010e50c
 2f4:	3c123333 	lui	s2,0x3333
 2f8:	14520141 	bne	v0,s2,800 <inst_error>
 2fc:	00000000 	nop
 300:	00000000 	nop
 304:	24020008 	li	v0,8
 308:	58b2de08 	0x58b2de08
 30c:	3c123333 	lui	s2,0x3333
 310:	1452013b 	bne	v0,s2,800 <inst_error>
 314:	00000000 	nop
 318:	00000000 	nop
 31c:	24020008 	li	v0,8
 320:	5d51d31e 	0x5d51d31e
 324:	3c123333 	lui	s2,0x3333
 328:	14520135 	bne	v0,s2,800 <inst_error>
 32c:	00000000 	nop
 330:	00000000 	nop
 334:	24020008 	li	v0,8
 338:	9e1d55c0 	0x9e1d55c0
 33c:	3c123333 	lui	s2,0x3333
 340:	1452012f 	bne	v0,s2,800 <inst_error>
 344:	00000000 	nop
 348:	00000000 	nop
 34c:	24020008 	li	v0,8
 350:	d08541a0 	0xd08541a0
 354:	3c123333 	lui	s2,0x3333
 358:	14520129 	bne	v0,s2,800 <inst_error>
 35c:	00000000 	nop
 360:	00000000 	nop
 364:	24020008 	li	v0,8
 368:	3cf5f5d0 	0x3cf5f5d0
 36c:	3c123333 	lui	s2,0x3333
 370:	14520123 	bne	v0,s2,800 <inst_error>
 374:	00000000 	nop
 378:	00000000 	nop
 37c:	24020008 	li	v0,8
 380:	9ef414c4 	0x9ef414c4
 384:	3c123333 	lui	s2,0x3333
 388:	1452011d 	bne	v0,s2,800 <inst_error>
 38c:	00000000 	nop
 390:	00000000 	nop
 394:	24020008 	li	v0,8
 398:	ef3de4cc 	swc3	$29,-6964(t9)
 39c:	3c123333 	lui	s2,0x3333
 3a0:	14520117 	bne	v0,s2,800 <inst_error>
 3a4:	00000000 	nop
 3a8:	00000000 	nop
 3ac:	24020008 	li	v0,8
 3b0:	65fe27d0 	0x65fe27d0
 3b4:	3c123333 	lui	s2,0x3333
 3b8:	14520111 	bne	v0,s2,800 <inst_error>
 3bc:	00000000 	nop
 3c0:	00000000 	nop
 3c4:	24020008 	li	v0,8
 3c8:	ef4127c2 	swc3	$1,10178(k0)
 3cc:	3c123333 	lui	s2,0x3333
 3d0:	1452010b 	bne	v0,s2,800 <inst_error>
 3d4:	00000000 	nop
 3d8:	00000000 	nop
 3dc:	24020008 	li	v0,8
 3e0:	ee3b4c40 	swc3	$27,19520(s1)
 3e4:	3c123333 	lui	s2,0x3333
 3e8:	14520105 	bne	v0,s2,800 <inst_error>
 3ec:	00000000 	nop
 3f0:	00000000 	nop
 3f4:	24020008 	li	v0,8
 3f8:	9f43b7b9 	0x9f43b7b9
 3fc:	3c123333 	lui	s2,0x3333
 400:	145200ff 	bne	v0,s2,800 <inst_error>
 404:	00000000 	nop
 408:	00000000 	nop
 40c:	24020008 	li	v0,8
 410:	de17b818 	0xde17b818
 414:	3c123333 	lui	s2,0x3333
 418:	145200f9 	bne	v0,s2,800 <inst_error>
 41c:	00000000 	nop
 420:	00000000 	nop
 424:	24020008 	li	v0,8
 428:	fe6b0ba9 	0xfe6b0ba9
 42c:	3c123333 	lui	s2,0x3333
 430:	145200f3 	bne	v0,s2,800 <inst_error>
 434:	00000000 	nop
 438:	00000000 	nop
 43c:	24020008 	li	v0,8
 440:	dff56a98 	0xdff56a98
 444:	3c123333 	lui	s2,0x3333
 448:	145200ed 	bne	v0,s2,800 <inst_error>
 44c:	00000000 	nop
 450:	00000000 	nop
 454:	24020008 	li	v0,8
 458:	5cd0cb40 	0x5cd0cb40
 45c:	3c123333 	lui	s2,0x3333
 460:	145200e7 	bne	v0,s2,800 <inst_error>
 464:	00000000 	nop
 468:	00000000 	nop
 46c:	24020008 	li	v0,8
 470:	65f9321c 	0x65f9321c
 474:	3c123333 	lui	s2,0x3333
 478:	145200e1 	bne	v0,s2,800 <inst_error>
 47c:	00000000 	nop
 480:	00000000 	nop
 484:	24020008 	li	v0,8
 488:	48bcd91a 	0x48bcd91a
 48c:	3c123333 	lui	s2,0x3333
 490:	145200db 	bne	v0,s2,800 <inst_error>
 494:	00000000 	nop
 498:	00000000 	nop
 49c:	24020008 	li	v0,8
 4a0:	4e0b39e6 	c3	0xb39e6
 4a4:	3c123333 	lui	s2,0x3333
 4a8:	145200d5 	bne	v0,s2,800 <inst_error>
 4ac:	00000000 	nop
 4b0:	00000000 	nop
 4b4:	24020008 	li	v0,8
 4b8:	4862f047 	0x4862f047
 4bc:	3c123333 	lui	s2,0x3333
 4c0:	145200cf 	bne	v0,s2,800 <inst_error>
 4c4:	00000000 	nop
 4c8:	00000000 	nop
 4cc:	24020008 	li	v0,8
 4d0:	6925a008 	0x6925a008
 4d4:	3c123333 	lui	s2,0x3333
 4d8:	145200c9 	bne	v0,s2,800 <inst_error>
 4dc:	00000000 	nop
 4e0:	00000000 	nop
 4e4:	24020008 	li	v0,8
 4e8:	bd2cc518 	0xbd2cc518
 4ec:	3c123333 	lui	s2,0x3333
 4f0:	145200c3 	bne	v0,s2,800 <inst_error>
 4f4:	00000000 	nop
 4f8:	00000000 	nop
 4fc:	24020008 	li	v0,8
 500:	9c1f2675 	0x9c1f2675
 504:	3c123333 	lui	s2,0x3333
 508:	145200bd 	bne	v0,s2,800 <inst_error>
 50c:	00000000 	nop
 510:	00000000 	nop
 514:	24020008 	li	v0,8
 518:	47e3ca90 	c1	0x1e3ca90
 51c:	3c123333 	lui	s2,0x3333
 520:	145200b7 	bne	v0,s2,800 <inst_error>
 524:	00000000 	nop
 528:	00000000 	nop
 52c:	24020008 	li	v0,8
 530:	7454b800 	jalx	152e000 <inst_error+0x152d800>
 534:	3c123333 	lui	s2,0x3333
 538:	145200b1 	bne	v0,s2,800 <inst_error>
 53c:	00000000 	nop
 540:	00000000 	nop
 544:	24020008 	li	v0,8
 548:	efcf40ae 	swc3	$15,16558(s8)
 54c:	3c123333 	lui	s2,0x3333
 550:	145200ab 	bne	v0,s2,800 <inst_error>
 554:	00000000 	nop
 558:	00000000 	nop
 55c:	24020008 	li	v0,8
 560:	68e12b46 	0x68e12b46
 564:	3c123333 	lui	s2,0x3333
 568:	145200a5 	bne	v0,s2,800 <inst_error>
 56c:	00000000 	nop
 570:	00000000 	nop
 574:	24020008 	li	v0,8
 578:	61282599 	0x61282599
 57c:	3c123333 	lui	s2,0x3333
 580:	1452009f 	bne	v0,s2,800 <inst_error>
 584:	00000000 	nop
 588:	00000000 	nop
 58c:	24020008 	li	v0,8
 590:	1b8ceba4 	0x1b8ceba4
 594:	3c123333 	lui	s2,0x3333
 598:	14520099 	bne	v0,s2,800 <inst_error>
 59c:	00000000 	nop
 5a0:	00000000 	nop
 5a4:	24020008 	li	v0,8
 5a8:	7a4dea21 	0x7a4dea21
 5ac:	3c123333 	lui	s2,0x3333
 5b0:	14520093 	bne	v0,s2,800 <inst_error>
 5b4:	00000000 	nop
 5b8:	00000000 	nop
 5bc:	24020008 	li	v0,8
 5c0:	4562167a 	0x4562167a
 5c4:	3c123333 	lui	s2,0x3333
 5c8:	1452008d 	bne	v0,s2,800 <inst_error>
 5cc:	00000000 	nop
 5d0:	00000000 	nop
 5d4:	24020008 	li	v0,8
 5d8:	1caaa076 	0x1caaa076
 5dc:	3c123333 	lui	s2,0x3333
 5e0:	14520087 	bne	v0,s2,800 <inst_error>
 5e4:	00000000 	nop
 5e8:	00000000 	nop
 5ec:	24020008 	li	v0,8
 5f0:	4837d64e 	0x4837d64e
 5f4:	3c123333 	lui	s2,0x3333
 5f8:	14520081 	bne	v0,s2,800 <inst_error>
 5fc:	00000000 	nop
 600:	00000000 	nop
 604:	24020008 	li	v0,8
 608:	b74d062c 	0xb74d062c
 60c:	3c123333 	lui	s2,0x3333
 610:	1452007b 	bne	v0,s2,800 <inst_error>
 614:	00000000 	nop
 618:	00000000 	nop
 61c:	24020008 	li	v0,8
 620:	75c69163 	jalx	71a458c <inst_error+0x71a3d8c>
 624:	3c123333 	lui	s2,0x3333
 628:	14520075 	bne	v0,s2,800 <inst_error>
 62c:	00000000 	nop
 630:	00000000 	nop
 634:	24020008 	li	v0,8
 638:	787738ae 	0x787738ae
 63c:	3c123333 	lui	s2,0x3333
 640:	1452006f 	bne	v0,s2,800 <inst_error>
 644:	00000000 	nop
 648:	00000000 	nop
 64c:	24020008 	li	v0,8
 650:	6bb00de2 	0x6bb00de2
 654:	3c123333 	lui	s2,0x3333
 658:	14520069 	bne	v0,s2,800 <inst_error>
 65c:	00000000 	nop
 660:	00000000 	nop
 664:	24020008 	li	v0,8
 668:	5f14ecbe 	0x5f14ecbe
 66c:	3c123333 	lui	s2,0x3333
 670:	14520063 	bne	v0,s2,800 <inst_error>
 674:	00000000 	nop
 678:	00000000 	nop
 67c:	24020008 	li	v0,8
 680:	4d477986 	0x4d477986
 684:	3c123333 	lui	s2,0x3333
 688:	1452005d 	bne	v0,s2,800 <inst_error>
 68c:	00000000 	nop
 690:	00000000 	nop
 694:	24020008 	li	v0,8
 698:	7d135b30 	0x7d135b30
 69c:	3c123333 	lui	s2,0x3333
 6a0:	14520057 	bne	v0,s2,800 <inst_error>
 6a4:	00000000 	nop
 6a8:	00000000 	nop
 6ac:	24020008 	li	v0,8
 6b0:	7f9f8424 	0x7f9f8424
 6b4:	3c123333 	lui	s2,0x3333
 6b8:	14520051 	bne	v0,s2,800 <inst_error>
 6bc:	00000000 	nop
 6c0:	00000000 	nop
 6c4:	24020008 	li	v0,8
 6c8:	3eae9730 	0x3eae9730
 6cc:	3c123333 	lui	s2,0x3333
 6d0:	1452004b 	bne	v0,s2,800 <inst_error>
 6d4:	00000000 	nop
 6d8:	00000000 	nop
 6dc:	24020008 	li	v0,8
 6e0:	9dd6fa9c 	0x9dd6fa9c
 6e4:	3c123333 	lui	s2,0x3333
 6e8:	14520045 	bne	v0,s2,800 <inst_error>
 6ec:	00000000 	nop
 6f0:	00000000 	nop
 6f4:	24020008 	li	v0,8
 6f8:	ecc6f966 	swc3	$6,-1690(a2)
 6fc:	3c123333 	lui	s2,0x3333
 700:	1452003f 	bne	v0,s2,800 <inst_error>
 704:	00000000 	nop
 708:	00000000 	nop
 70c:	24020008 	li	v0,8
 710:	768e0cd0 	jalx	a383340 <inst_error+0xa382b40>
 714:	3c123333 	lui	s2,0x3333
 718:	14520039 	bne	v0,s2,800 <inst_error>
 71c:	00000000 	nop
 720:	00000000 	nop
 724:	24020008 	li	v0,8
 728:	48282efc 	0x48282efc
 72c:	3c123333 	lui	s2,0x3333
 730:	14520033 	bne	v0,s2,800 <inst_error>
 734:	00000000 	nop
 738:	00000000 	nop
 73c:	24020008 	li	v0,8
 740:	1c1bca40 	0x1c1bca40
 744:	3c123333 	lui	s2,0x3333
 748:	1452002d 	bne	v0,s2,800 <inst_error>
 74c:	00000000 	nop
 750:	00000000 	nop
 754:	24020008 	li	v0,8
 758:	fed167b2 	0xfed167b2
 75c:	3c123333 	lui	s2,0x3333
 760:	14520027 	bne	v0,s2,800 <inst_error>
 764:	00000000 	nop
 768:	00000000 	nop
 76c:	24020008 	li	v0,8
 770:	b12d367c 	0xb12d367c
 774:	3c123333 	lui	s2,0x3333
 778:	14520021 	bne	v0,s2,800 <inst_error>
 77c:	00000000 	nop
 780:	00000000 	nop
 784:	24020008 	li	v0,8
 788:	f1140e40 	0xf1140e40
 78c:	3c123333 	lui	s2,0x3333
 790:	1452001b 	bne	v0,s2,800 <inst_error>
 794:	00000000 	nop
 798:	00000000 	nop
 79c:	24020008 	li	v0,8
 7a0:	d282d674 	0xd282d674
 7a4:	3c123333 	lui	s2,0x3333
 7a8:	14520015 	bne	v0,s2,800 <inst_error>
 7ac:	00000000 	nop
 7b0:	00000000 	nop
 7b4:	24020008 	li	v0,8
 7b8:	5f386844 	0x5f386844
 7bc:	3c123333 	lui	s2,0x3333
 7c0:	1452000f 	bne	v0,s2,800 <inst_error>
 7c4:	00000000 	nop
 7c8:	00000000 	nop
 7cc:	24020008 	li	v0,8
 7d0:	9e3c56aa 	0x9e3c56aa
 7d4:	3c123333 	lui	s2,0x3333
 7d8:	14520009 	bne	v0,s2,800 <inst_error>
 7dc:	00000000 	nop
 7e0:	00000000 	nop
 7e4:	24020008 	li	v0,8
 7e8:	ec1ba960 	swc3	$27,-22176(zero)
 7ec:	3c123333 	lui	s2,0x3333
 7f0:	14520003 	bne	v0,s2,800 <inst_error>
 7f4:	00000000 	nop
 7f8:	00000000 	nop
 7fc:	26730001 	addiu	s3,s3,1

00000800 <inst_error>:
 800:	00934025 	or	t0,a0,s3
 804:	03e00008 	jr	ra
 808:	ae280000 	sw	t0,0(s1)
 80c:	00000000 	nop
Disassembly of section .reginfo:

00000000 <.reginfo>:
   0:	800e0114 	lb	t6,276(zero)
	...
Disassembly of section .debug_line:

00000000 <.debug_line>:
   0:	000000f8 	0xf8
   4:	00340002 	0x340002
   8:	01010000 	0x1010000
   c:	000d0efb 	0xd0efb
  10:	01010101 	0x1010101
  14:	01000000 	0x1000000
  18:	00010000 	sll	zero,at,0x0
  1c:	5f37366e 	0x5f37366e
  20:	65736572 	0x65736572
  24:	64657672 	0x64657672
  28:	736e695f 	0x736e695f
  2c:	63757274 	0x63757274
  30:	6e6f6974 	0x6e6f6974
  34:	2e78655f 	sltiu	t8,s3,25951
  38:	00000053 	0x53
  3c:	05000000 	bltz	t0,40 <.debug_line+0x40>
  40:	00000002 	srl	zero,zero,0x0
  44:	010c0300 	0x10c0300
  48:	0875084c 	j	1d42130 <inst_error+0x1d41930>
  4c:	08750875 	j	1d421d4 <inst_error+0x1d419d4>
  50:	08750875 	j	1d421d4 <inst_error+0x1d419d4>
  54:	08750875 	j	1d421d4 <inst_error+0x1d419d4>
  58:	08750875 	j	1d421d4 <inst_error+0x1d419d4>
  5c:	08750875 	j	1d421d4 <inst_error+0x1d419d4>
  60:	08750875 	j	1d421d4 <inst_error+0x1d419d4>
  64:	08750875 	j	1d421d4 <inst_error+0x1d419d4>
  68:	08750875 	j	1d421d4 <inst_error+0x1d419d4>
  6c:	08750875 	j	1d421d4 <inst_error+0x1d419d4>
  70:	08750875 	j	1d421d4 <inst_error+0x1d419d4>
  74:	08750875 	j	1d421d4 <inst_error+0x1d419d4>
  78:	08750875 	j	1d421d4 <inst_error+0x1d419d4>
  7c:	08750875 	j	1d421d4 <inst_error+0x1d419d4>
  80:	08750875 	j	1d421d4 <inst_error+0x1d419d4>
  84:	08750875 	j	1d421d4 <inst_error+0x1d419d4>
  88:	08750875 	j	1d421d4 <inst_error+0x1d419d4>
  8c:	08750875 	j	1d421d4 <inst_error+0x1d419d4>
  90:	08750875 	j	1d421d4 <inst_error+0x1d419d4>
  94:	08750875 	j	1d421d4 <inst_error+0x1d419d4>
  98:	08750875 	j	1d421d4 <inst_error+0x1d419d4>
  9c:	08750875 	j	1d421d4 <inst_error+0x1d419d4>
  a0:	08750875 	j	1d421d4 <inst_error+0x1d419d4>
  a4:	08750875 	j	1d421d4 <inst_error+0x1d419d4>
  a8:	08750875 	j	1d421d4 <inst_error+0x1d419d4>
  ac:	08750875 	j	1d421d4 <inst_error+0x1d419d4>
  b0:	08750875 	j	1d421d4 <inst_error+0x1d419d4>
  b4:	08750875 	j	1d421d4 <inst_error+0x1d419d4>
  b8:	08750875 	j	1d421d4 <inst_error+0x1d419d4>
  bc:	08750875 	j	1d421d4 <inst_error+0x1d419d4>
  c0:	08750875 	j	1d421d4 <inst_error+0x1d419d4>
  c4:	08750875 	j	1d421d4 <inst_error+0x1d419d4>
  c8:	08750875 	j	1d421d4 <inst_error+0x1d419d4>
  cc:	08750875 	j	1d421d4 <inst_error+0x1d419d4>
  d0:	08750875 	j	1d421d4 <inst_error+0x1d419d4>
  d4:	08750875 	j	1d421d4 <inst_error+0x1d419d4>
  d8:	08750875 	j	1d421d4 <inst_error+0x1d419d4>
  dc:	08750875 	j	1d421d4 <inst_error+0x1d419d4>
  e0:	08750875 	j	1d421d4 <inst_error+0x1d419d4>
  e4:	08750875 	j	1d421d4 <inst_error+0x1d419d4>
  e8:	08750875 	j	1d421d4 <inst_error+0x1d419d4>
  ec:	08750875 	j	1d421d4 <inst_error+0x1d419d4>
  f0:	4d780875 	0x4d780875
  f4:	024b4b4b 	0x24b4b4b
  f8:	01010004 	sllv	zero,at,t0
Disassembly of section .debug_info:

00000000 <.debug_info>:
   0:	00000077 	0x77
   4:	00000002 	srl	zero,zero,0x0
   8:	01040000 	0x1040000
	...
  14:	00000810 	mfhi	at
  18:	5f37366e 	0x5f37366e
  1c:	65736572 	0x65736572
  20:	64657672 	0x64657672
  24:	736e695f 	0x736e695f
  28:	63757274 	0x63757274
  2c:	6e6f6974 	0x6e6f6974
  30:	2e78655f 	sltiu	t8,s3,25951
  34:	6d2f0053 	0x6d2f0053
  38:	61696465 	0x61696465
  3c:	5f66732f 	0x5f66732f
  40:	6e6f6f6c 	0x6e6f6f6c
  44:	6e6f7367 	0x6e6f7367
  48:	3130322f 	andi	s0,t1,0x322f
  4c:	33353037 	andi	s5,t9,0x3037
  50:	75662f31 	jalx	598bcc4 <inst_error+0x598b4c4>
  54:	745f636e 	jalx	17d8db8 <inst_error+0x17d85b8>
  58:	2f747365 	sltiu	s4,k1,29541
  5c:	74666f73 	jalx	199bdcc <inst_error+0x199b5cc>
  60:	6372732f 	0x6372732f
  64:	736e692f 	0x736e692f
  68:	4e470074 	c3	0x470074
  6c:	53412055 	0x53412055
  70:	312e3220 	andi	t6,t1,0x3220
  74:	30352e38 	andi	s5,at,0x2e38
  78:	Address 0x0000000000000078 is out of bounds.

Disassembly of section .debug_abbrev:

00000000 <.debug_abbrev>:
   0:	10001101 	b	4408 <inst_error+0x3c08>
   4:	12011106 	beq	s0,at,4420 <inst_error+0x3c20>
   8:	1b080301 	0x1b080301
   c:	13082508 	beq	t8,t0,9430 <inst_error+0x8c30>
  10:	00000005 	0x5
Disassembly of section .debug_aranges:

00000000 <.debug_aranges>:
   0:	0000001c 	0x1c
   4:	00000002 	srl	zero,zero,0x0
   8:	00040000 	sll	zero,a0,0x0
	...
  14:	00000810 	mfhi	at
	...
